; Listing generated by Microsoft (R) Optimizing Compiler Version 19.00.24215.1 

	TITLE	C:\Users\Alexis\Desktop\Sources_GostCrypt_Windows_1.3.1_COMMENTED\Sources_GostCrypt_Windows_1.3.1é\Sources_GostCrypt_Windows_1.3.1\Common\BootEncryption.cpp
	.686P
	.XMM
	include listing.inc
	.model	flat

INCLUDELIB LIBCMT
INCLUDELIB OLDNAMES

PUBLIC	??_C@_1M@LJLLCMEH@?$AAp?$AAt?$AA?9?$AAb?$AAr?$AA?$AA@ ; `string'
PUBLIC	??_C@_1M@NCMONAAL@?$AAp?$AAt?$AA?9?$AAp?$AAt?$AA?$AA@ ; `string'
PUBLIC	??_C@_1O@EAKMAJDN@?$AAq?$AAu?$AAz?$AA?9?$AAb?$AAo?$AA?$AA@ ; `string'
PUBLIC	??_C@_0BA@IDBKCKK@atlTraceStencil?$AA@		; `string'
PUBLIC	??_C@_1O@BHHPIGDN@?$AAq?$AAu?$AAz?$AA?9?$AAe?$AAc?$AA?$AA@ ; `string'
PUBLIC	??_C@_1O@GBAPEKMJ@?$AAq?$AAu?$AAz?$AA?9?$AAp?$AAe?$AA?$AA@ ; `string'
PUBLIC	??_C@_1M@CLGLEFBO@?$AAr?$AAo?$AA?9?$AAr?$AAo?$AA?$AA@ ; `string'
PUBLIC	??_C@_1M@CEEDODME@?$AAr?$AAu?$AA?9?$AAr?$AAu?$AA?$AA@ ; `string'
PUBLIC	??_C@_1M@HPKKKMPP@?$AAs?$AAa?$AA?9?$AAi?$AAn?$AA?$AA@ ; `string'
PUBLIC	??_C@_1M@BKMAIGOJ@?$AAs?$AAe?$AA?9?$AAf?$AAi?$AA?$AA@ ; `string'
PUBLIC	??_C@_1M@NDPIFLFI@?$AAs?$AAe?$AA?9?$AAn?$AAo?$AA?$AA@ ; `string'
PUBLIC	??_C@_1M@DANKKHJ@?$AAs?$AAe?$AA?9?$AAs?$AAe?$AA?$AA@ ; `string'
PUBLIC	??_C@_1M@PNBLONPJ@?$AAs?$AAk?$AA?9?$AAs?$AAk?$AA?$AA@ ; `string'
PUBLIC	??_C@_1M@LFMODOAL@?$AAs?$AAl?$AA?9?$AAs?$AAi?$AA?$AA@ ; `string'
PUBLIC	??_C@_1O@DFKOMPG@?$AAs?$AAm?$AAa?$AA?9?$AAn?$AAo?$AA?$AA@ ; `string'
PUBLIC	??_C@_1O@NDKPBNNH@?$AAs?$AAm?$AAa?$AA?9?$AAs?$AAe?$AA?$AA@ ; `string'
PUBLIC	??_C@_1O@PLLKBHAB@?$AAs?$AAm?$AAj?$AA?9?$AAn?$AAo?$AA?$AA@ ; `string'
PUBLIC	??_C@_1O@CLEPOGCA@?$AAs?$AAm?$AAj?$AA?9?$AAs?$AAe?$AA?$AA@ ; `string'
PUBLIC	??_C@_1O@DLGJGKMK@?$AAs?$AAm?$AAn?$AA?9?$AAf?$AAi?$AA?$AA@ ; `string'
PUBLIC	??_C@_1O@OJDJGAJC@?$AAs?$AAm?$AAs?$AA?9?$AAf?$AAi?$AA?$AA@ ; `string'
PUBLIC	??_C@_1M@BOFOGHPB@?$AAs?$AAq?$AA?9?$AAa?$AAl?$AA?$AA@ ; `string'
PUBLIC	??_C@_1BG@LJBBIPGB@?$AAs?$AAr?$AA?9?$AAb?$AAa?$AA?9?$AAc?$AAy?$AAr?$AAl?$AA?$AA@ ; `string'
PUBLIC	??_C@_1BG@JLBENFOE@?$AAs?$AAr?$AA?9?$AAb?$AAa?$AA?9?$AAl?$AAa?$AAt?$AAn?$AA?$AA@ ; `string'
PUBLIC	??_C@_1BG@KODPNHE@?$AAs?$AAr?$AA?9?$AAs?$AAp?$AA?9?$AAc?$AAy?$AAr?$AAl?$AA?$AA@ ; `string'
PUBLIC	??_C@_1BG@CIOGKHPB@?$AAs?$AAr?$AA?9?$AAs?$AAp?$AA?9?$AAl?$AAa?$AAt?$AAn?$AA?$AA@ ; `string'
PUBLIC	??_C@_1M@NGFJLMAC@?$AAs?$AAv?$AA?9?$AAf?$AAi?$AA?$AA@ ; `string'
PUBLIC	??_C@_1M@MPJEJAJC@?$AAs?$AAv?$AA?9?$AAs?$AAe?$AA?$AA@ ; `string'
PUBLIC	??_C@_1M@MPNDHLFK@?$AAs?$AAw?$AA?9?$AAk?$AAe?$AA?$AA@ ; `string'
PUBLIC	??_C@_1O@KOHBJJI@?$AAs?$AAy?$AAr?$AA?9?$AAs?$AAy?$AA?$AA@ ; `string'
PUBLIC	??_C@_1M@LDCEFHA@?$AAt?$AAa?$AA?9?$AAi?$AAn?$AA?$AA@ ; `string'
PUBLIC	??_C@_1M@CNJOFAK@?$AAt?$AAe?$AA?9?$AAi?$AAn?$AA?$AA@ ; `string'
PUBLIC	??_C@_1M@GNAECACD@?$AAt?$AAh?$AA?9?$AAt?$AAh?$AA?$AA@ ; `string'
PUBLIC	??_C@_1M@CHBIHOJO@?$AAt?$AAn?$AA?9?$AAz?$AAa?$AA?$AA@ ; `string'
PUBLIC	??_C@_1M@GCCMIGPJ@?$AAt?$AAr?$AA?9?$AAt?$AAr?$AA?$AA@ ; `string'
PUBLIC	??_C@_1M@CELMCNBK@?$AAt?$AAt?$AA?9?$AAr?$AAu?$AA?$AA@ ; `string'
PUBLIC	??_C@_1M@KLMCELGA@?$AAu?$AAk?$AA?9?$AAu?$AAa?$AA?$AA@ ; `string'
PUBLIC	_IID_IAxWinHostWindow
PUBLIC	??_C@_1M@EPAJJAJF@?$AAu?$AAr?$AA?9?$AAp?$AAk?$AA?$AA@ ; `string'
PUBLIC	??_C@_1BG@GEGPMCDJ@?$AAu?$AAz?$AA?9?$AAu?$AAz?$AA?9?$AAc?$AAy?$AAr?$AAl?$AA?$AA@ ; `string'
PUBLIC	??_C@_1BG@EGGKJILM@?$AAu?$AAz?$AA?9?$AAu?$AAz?$AA?9?$AAl?$AAa?$AAt?$AAn?$AA?$AA@ ; `string'
PUBLIC	??_C@_1M@GFOCLFF@?$AAv?$AAi?$AA?9?$AAv?$AAn?$AA?$AA@ ; `string'
PUBLIC	??_C@_1M@CPAMEDFI@?$AAx?$AAh?$AA?9?$AAz?$AAa?$AA?$AA@ ; `string'
PUBLIC	??_C@_1O@EBKIFIGN@?$AAz?$AAh?$AA?9?$AAc?$AAh?$AAs?$AA?$AA@ ; `string'
PUBLIC	??_C@_1O@NMHPGANE@?$AAz?$AAh?$AA?9?$AAc?$AAh?$AAt?$AA?$AA@ ; `string'
PUBLIC	??_C@_1M@LPINJOMC@?$AAz?$AAh?$AA?9?$AAc?$AAn?$AA?$AA@ ; `string'
PUBLIC	??_C@_1M@OCJEJODD@?$AAz?$AAh?$AA?9?$AAh?$AAk?$AA?$AA@ ; `string'
PUBLIC	??_C@_1M@DNDLJINH@?$AAz?$AAh?$AA?9?$AAm?$AAo?$AA?$AA@ ; `string'
PUBLIC	??_C@_1M@MBFDNDND@?$AAz?$AAh?$AA?9?$AAs?$AAg?$AA?$AA@ ; `string'
PUBLIC	??_C@_1M@IMEPLEPE@?$AAz?$AAh?$AA?9?$AAt?$AAw?$AA?$AA@ ; `string'
PUBLIC	??_C@_1M@BBGHNHJP@?$AAz?$AAu?$AA?9?$AAz?$AAa?$AA?$AA@ ; `string'
PUBLIC	??_C@_0P@MBNHGHMI@atlTraceString?$AA@		; `string'
PUBLIC	??_C@_0M@IOBBMAHG@atlTraceMap?$AA@		; `string'
PUBLIC	??_C@_0N@FEAAACHD@atlTraceUtil?$AA@		; `string'
PUBLIC	_IID_IAxWinHostWindowLic
PUBLIC	??_C@_0BB@DNJDADMG@atlTraceSecurity?$AA@	; `string'
PUBLIC	_IID_IAxWinAmbientDispatch
PUBLIC	??_C@_0N@KLPNCFEE@atlTraceSync?$AA@		; `string'
PUBLIC	?chDirSep@ATL@@3DB				; ATL::chDirSep
PUBLIC	?chRightBracket@ATL@@3DB			; ATL::chRightBracket
PUBLIC	?chLeftBracket@ATL@@3DB				; ATL::chLeftBracket
PUBLIC	?chQuote@ATL@@3DB				; ATL::chQuote
PUBLIC	?chEquals@ATL@@3DB				; ATL::chEquals
PUBLIC	?szStringVal@ATL@@3QBDB				; ATL::szStringVal
PUBLIC	??_C@_01CPLAODJH@S?$AA@				; `string'
PUBLIC	?multiszStringVal@ATL@@3QBDB			; ATL::multiszStringVal
PUBLIC	??_C@_01PLPBNMEI@M?$AA@				; `string'
PUBLIC	?szDwordVal@ATL@@3QBDB				; ATL::szDwordVal
PUBLIC	??_C@_01CKDDGHAB@D?$AA@				; `string'
PUBLIC	?szBinaryVal@ATL@@3QBDB				; ATL::szBinaryVal
PUBLIC	??_C@_01HMGJMAIH@B?$AA@				; `string'
PUBLIC	?szValToken@ATL@@3QBDB				; ATL::szValToken
PUBLIC	??_C@_03LAIAPFCB@Val?$AA@			; `string'
PUBLIC	??_C@_0O@KHOBHOBJ@atlTraceISAPI?$AA@		; `string'
PUBLIC	?szForceRemove@ATL@@3QBDB			; ATL::szForceRemove
PUBLIC	??_C@_0M@DBGDLGLL@ForceRemove?$AA@		; `string'
PUBLIC	?szNoRemove@ATL@@3QBDB				; ATL::szNoRemove
PUBLIC	??_C@_08KAAPDIAN@NoRemove?$AA@			; `string'
PUBLIC	?szDelete@ATL@@3QBDB				; ATL::szDelete
PUBLIC	??_C@_06JBKGCNBB@Delete?$AA@			; `string'
PUBLIC	??_C@_0BA@MKMIKKJB@atlTraceGeneral?$AA@		; `string'
PUBLIC	??_C@_0M@DGPFJEBB@atlTraceCOM?$AA@		; `string'
PUBLIC	?_pAtlAutoThreadModule@ATL@@3PAUIAtlAutoThreadModule@1@A ; ATL::_pAtlAutoThreadModule
PUBLIC	??_C@_0L@LHELAKBP@atlTraceQI?$AA@		; `string'
PUBLIC	?m_bInitFailed@CAtlBaseModule@ATL@@2_NA		; ATL::CAtlBaseModule::m_bInitFailed
PUBLIC	??_C@_0BC@MALHFBAO@atlTraceRegistrar?$AA@	; `string'
PUBLIC	??_C@_0BB@ILPPDKFL@atlTraceRefcount?$AA@	; `string'
PUBLIC	_IID_IAxWinAmbientDispatchEx
PUBLIC	_IID_IInternalConnection
PUBLIC	??_C@_0BC@DGHHNKDC@atlTraceWindowing?$AA@	; `string'
PUBLIC	??_C@_0BB@GHKJKKIE@atlTraceControls?$AA@	; `string'
PUBLIC	??_C@_0BA@DKOAAGGM@atlTraceHosting?$AA@		; `string'
PUBLIC	?_pAtlModule@ATL@@3PAVCAtlModule@1@A		; ATL::_pAtlModule
PUBLIC	??_C@_0BB@BEBMGMDO@atlTraceDBClient?$AA@	; `string'
PUBLIC	_CLSID_Registrar
PUBLIC	__pAtlLcidToLocaleNameTable
PUBLIC	??_C@_15EMKDOKLE@?$AAa?$AAr?$AA?$AA@		; `string'
PUBLIC	??_C@_15KNPADPLH@?$AAb?$AAg?$AA?$AA@		; `string'
PUBLIC	??_C@_15EDMHLDMO@?$AAc?$AAa?$AA?$AA@		; `string'
PUBLIC	??_C@_1O@BPEAJADD@?$AAz?$AAh?$AA?9?$AAC?$AAH?$AAS?$AA?$AA@ ; `string'
PUBLIC	??_C@_15LJNHCMNK@?$AAc?$AAs?$AA?$AA@		; `string'
PUBLIC	??_C@_15FOMCIDHG@?$AAd?$AAa?$AA?$AA@		; `string'
PUBLIC	??_C@_15NBKABECB@?$AAd?$AAe?$AA?$AA@		; `string'
PUBLIC	??_C@_15GHPEIIAO@?$AAe?$AAl?$AA?$AA@		; `string'
PUBLIC	??_C@_15MNPNEAIF@?$AAe?$AAn?$AA?$AA@		; `string'
PUBLIC	??_C@_15GPIOMPMH@?$AAe?$AAs?$AA?$AA@		; `string'
PUBLIC	??_C@_15NGLOAKJC@?$AAf?$AAi?$AA?$AA@		; `string'
PUBLIC	??_C@_15FBKGNKAM@?$AAf?$AAr?$AA?$AA@		; `string'
PUBLIC	??_C@_15KGGCNEFK@?$AAh?$AAe?$AA?$AA@		; `string'
PUBLIC	??_C@_15PGHLIDMF@?$AAh?$AAu?$AA?$AA@		; `string'
PUBLIC	??_C@_15BIEMAPLM@?$AAi?$AAs?$AA?$AA@		; `string'
PUBLIC	??_C@_15IFJLDHAF@?$AAi?$AAt?$AA?$AA@		; `string'
PUBLIC	??_C@_0BD@KOADKDIA@atlTraceDBProvider?$AA@	; `string'
PUBLIC	??_C@_15GEMIOCAG@?$AAj?$AAa?$AA?$AA@		; `string'
PUBLIC	??_C@_15EPELEGJA@?$AAk?$AAo?$AA?$AA@		; `string'
PUBLIC	??_C@_15NDDHIMN@?$AAn?$AAl?$AA?$AA@		; `string'
PUBLIC	??_C@_15BPIGNHCD@?$AAn?$AAo?$AA?$AA@		; `string'
PUBLIC	??_C@_15DEOPBLCG@?$AAp?$AAl?$AA?$AA@		; `string'
PUBLIC	??_C@_15KBECGEFG@?$AAp?$AAt?$AA?$AA@		; `string'
PUBLIC	??_C@_15GLJCBFMD@?$AAr?$AAo?$AA?$AA@		; `string'
PUBLIC	??_C@_15FEDGKCDI@?$AAr?$AAu?$AA?$AA@		; `string'
PUBLIC	??_C@_15GLKMLLHM@?$AAh?$AAr?$AA?$AA@		; `string'
PUBLIC	??_C@_15CPKMFBDB@?$AAs?$AAk?$AA?$AA@		; `string'
PUBLIC	??_C@_15BAAIOGMK@?$AAs?$AAq?$AA?$AA@		; `string'
PUBLIC	??_C@_15INNPNOHD@?$AAs?$AAv?$AA?$AA@		; `string'
PUBLIC	??_C@_15CABMMOGH@?$AAt?$AAh?$AA?$AA@		; `string'
PUBLIC	??_C@_15BPLIHJJM@?$AAt?$AAr?$AA?$AA@		; `string'
PUBLIC	??_C@_15NEOEKKDJ@?$AAu?$AAr?$AA?$AA@		; `string'
PUBLIC	??_C@_15NFICGAJK@?$AAi?$AAd?$AA?$AA@		; `string'
PUBLIC	??_C@_15PJPFLCCM@?$AAu?$AAk?$AA?$AA@		; `string'
PUBLIC	??_C@_15HPJPHDM@?$AAb?$AAe?$AA?$AA@		; `string'
PUBLIC	??_C@_15LCHLGJII@?$AAs?$AAl?$AA?$AA@		; `string'
PUBLIC	??_C@_15PCFJPHHO@?$AAe?$AAt?$AA?$AA@		; `string'
PUBLIC	_IID_IRegistrar
PUBLIC	??_C@_15HPFPGODN@?$AAl?$AAv?$AA?$AA@		; `string'
PUBLIC	??_C@_15NFFGKGLG@?$AAl?$AAt?$AA?$AA@		; `string'
PUBLIC	??_C@_15BDAKCCHN@?$AAf?$AAa?$AA?$AA@		; `string'
PUBLIC	??_C@_15NFGIAIAJ@?$AAv?$AAi?$AA?$AA@		; `string'
PUBLIC	??_C@_15LMKNDMHN@?$AAh?$AAy?$AA?$AA@		; `string'
PUBLIC	??_C@_15IJBHMCFL@?$AAa?$AAz?$AA?$AA@		; `string'
PUBLIC	??_C@_15EKOFJABL@?$AAe?$AAu?$AA?$AA@		; `string'
PUBLIC	??_C@_15BGHADCNK@?$AAm?$AAk?$AA?$AA@		; `string'
PUBLIC	??_C@_15JDNICKHM@?$AAa?$AAf?$AA?$AA@		; `string'
PUBLIC	??_C@_15KPJEDBKD@?$AAk?$AAa?$AA?$AA@		; `string'
PUBLIC	??_C@_15PDNFFFEO@?$AAf?$AAo?$AA?$AA@		; `string'
PUBLIC	??_C@_15OMLEGLOC@?$AAh?$AAi?$AA?$AA@		; `string'
PUBLIC	??_C@_15IDNNENKK@?$AAm?$AAs?$AA?$AA@		; `string'
PUBLIC	??_C@_15MACJNBMH@?$AAk?$AAk?$AA?$AA@		; `string'
PUBLIC	??_C@_15DKDJEOND@?$AAk?$AAy?$AA?$AA@		; `string'
PUBLIC	??_C@_15DFGDLJBG@?$AAs?$AAw?$AA?$AA@		; `string'
PUBLIC	??_C@_15BBFAICNG@?$AAu?$AAz?$AA?$AA@		; `string'
PUBLIC	??_C@_15DKNDCGEA@?$AAt?$AAt?$AA?$AA@		; `string'
PUBLIC	??_C@_15MGIFMDPL@?$AAp?$AAa?$AA?$AA@		; `string'
PUBLIC	??_C@_15HCNDBBA@?$AAg?$AAu?$AA?$AA@		; `string'
PUBLIC	??_C@_15FNBEIBON@?$AAt?$AAa?$AA?$AA@		; `string'
PUBLIC	??_C@_15NCHGBGLK@?$AAt?$AAe?$AA?$AA@		; `string'
PUBLIC	??_C@_15PHPHCBPF@?$AAk?$AAn?$AA?$AA@		; `string'
PUBLIC	??_C@_15DLGBCKMP@?$AAm?$AAr?$AA?$AA@		; `string'
PUBLIC	??_C@_15EABBLBFF@?$AAs?$AAa?$AA?$AA@		; `string'
PUBLIC	??_C@_15CBKOMCOI@?$AAm?$AAn?$AA?$AA@		; `string'
PUBLIC	??_C@_15CKDMCJAF@?$AAg?$AAl?$AA?$AA@		; `string'
PUBLIC	??_C@_0P@LNEGBOLO@atlTraceSnapin?$AA@		; `string'
PUBLIC	??_C@_17CNJFBPG@?$AAk?$AAo?$AAk?$AA?$AA@	; `string'
PUBLIC	??_C@_17FFBJICPL@?$AAs?$AAy?$AAr?$AA?$AA@	; `string'
PUBLIC	??_C@_17KPNDCPAF@?$AAd?$AAi?$AAv?$AA?$AA@	; `string'
PUBLIC	??_C@_11LOCGONAA@?$AA?$AA@			; `string'
PUBLIC	??_C@_1M@OKAHONE@?$AAa?$AAr?$AA?9?$AAS?$AAA?$AA?$AA@ ; `string'
PUBLIC	??_C@_1M@FFFIGIGK@?$AAb?$AAg?$AA?9?$AAB?$AAG?$AA?$AA@ ; `string'
PUBLIC	??_C@_1M@BJNKEDC@?$AAc?$AAa?$AA?9?$AAE?$AAS?$AA?$AA@ ; `string'
PUBLIC	??_C@_1M@CLNBBOPM@?$AAz?$AAh?$AA?9?$AAT?$AAW?$AA?$AA@ ; `string'
PUBLIC	??_C@_1M@IJJHFJHA@?$AAc?$AAs?$AA?9?$AAC?$AAZ?$AA?$AA@ ; `string'
PUBLIC	??_C@_1M@CLPEOBGI@?$AAd?$AAa?$AA?9?$AAD?$AAK?$AA?$AA@ ; `string'
PUBLIC	??_C@_1M@MCMADGCB@?$AAd?$AAe?$AA?9?$AAD?$AAE?$AA?$AA@ ; `string'
PUBLIC	??_C@_1M@OOCKEMAM@?$AAe?$AAl?$AA?9?$AAG?$AAR?$AA?$AA@ ; `string'
PUBLIC	??_C@_1M@BMHNFIME@?$AAe?$AAn?$AA?9?$AAU?$AAS?$AA?$AA@ ; `string'
PUBLIC	??_C@_1M@DDNJFGID@?$AAf?$AAi?$AA?9?$AAF?$AAI?$AA?$AA@ ; `string'
PUBLIC	??_C@_1M@GLIPPMAC@?$AAf?$AAr?$AA?9?$AAF?$AAR?$AA?$AA@ ; `string'
PUBLIC	??_C@_1M@GFMCHPE@?$AAh?$AAe?$AA?9?$AAI?$AAL?$AA?$AA@ ; `string'
PUBLIC	??_C@_1M@MHLPGNKM@?$AAh?$AAu?$AA?9?$AAH?$AAU?$AA?$AA@ ; `string'
PUBLIC	??_C@_1M@LPDDNNPN@?$AAi?$AAs?$AA?9?$AAI?$AAS?$AA?$AA@ ; `string'
PUBLIC	??_C@_1M@MADIPODN@?$AAi?$AAt?$AA?9?$AAI?$AAT?$AA?$AA@ ; `string'
PUBLIC	??_C@_1M@HPNHIDJI@?$AAj?$AAa?$AA?9?$AAJ?$AAP?$AA?$AA@ ; `string'
PUBLIC	??_C@_1M@JLOOOEGK@?$AAk?$AAo?$AA?9?$AAK?$AAR?$AA?$AA@ ; `string'
PUBLIC	??_C@_1M@IHBJJGG@?$AAn?$AAl?$AA?9?$AAN?$AAL?$AA?$AA@ ; `string'
PUBLIC	??_C@_1M@EANAGDL@?$AAn?$AAb?$AA?9?$AAN?$AAO?$AA?$AA@ ; `string'
PUBLIC	??_C@_1M@NEIEMEGP@?$AAp?$AAl?$AA?9?$AAP?$AAL?$AA?$AA@ ; `string'
PUBLIC	??_C@_1M@BOCFIGEP@?$AAp?$AAt?$AA?9?$AAB?$AAR?$AA?$AA@ ; `string'
PUBLIC	??_C@_1M@IMPFOPBG@?$AAr?$AAo?$AA?9?$AAR?$AAO?$AA?$AA@ ; `string'
PUBLIC	??_C@_1M@IDNNEJMM@?$AAr?$AAu?$AA?9?$AAR?$AAU?$AA?$AA@ ; `string'
PUBLIC	??_C@_1M@LILEEOGM@?$AAh?$AAr?$AA?9?$AAH?$AAR?$AA?$AA@ ; `string'
PUBLIC	??_C@_1M@FKIFEHPB@?$AAs?$AAk?$AA?9?$AAS?$AAK?$AA?$AA@ ; `string'
PUBLIC	??_C@_1M@LJMAMNPJ@?$AAs?$AAq?$AA?9?$AAA?$AAL?$AA?$AA@ ; `string'
PUBLIC	??_C@_1M@GIAKDKJK@?$AAs?$AAv?$AA?9?$AAS?$AAE?$AA?$AA@ ; `string'
PUBLIC	??_C@_1M@MKJKIKCL@?$AAt?$AAh?$AA?9?$AAT?$AAH?$AA?$AA@ ; `string'
PUBLIC	??_C@_1M@MFLCCMPB@?$AAt?$AAr?$AA?9?$AAT?$AAR?$AA?$AA@ ; `string'
PUBLIC	??_C@_1M@OIJHDKJN@?$AAu?$AAr?$AA?9?$AAP?$AAK?$AA?$AA@ ; `string'
PUBLIC	??_C@_1M@LHIPCIEK@?$AAi?$AAd?$AA?9?$AAI?$AAD?$AA?$AA@ ; `string'
PUBLIC	??_C@_1M@MFMOBGI@?$AAu?$AAk?$AA?9?$AAU?$AAA?$AA?$AA@ ; `string'
PUBLIC	??_C@_1M@OBGLJIPL@?$AAb?$AAe?$AA?9?$AAB?$AAY?$AA?$AA@ ; `string'
PUBLIC	??_C@_1M@BCFAJEAD@?$AAs?$AAl?$AA?9?$AAS?$AAI?$AA?$AA@ ; `string'
PUBLIC	??_C@_1M@FKFFEDDN@?$AAe?$AAt?$AA?9?$AAE?$AAE?$AA?$AA@ ; `string'
PUBLIC	??_C@_1M@KGKKAACI@?$AAl?$AAv?$AA?9?$AAL?$AAV?$AA?$AA@ ; `string'
PUBLIC	??_C@_1M@IFGBIJO@?$AAl?$AAt?$AA?9?$AAL?$AAT?$AA?$AA@ ; `string'
PUBLIC	??_C@_1M@FGEAHEDM@?$AAf?$AAa?$AA?9?$AAI?$AAR?$AA?$AA@ ; `string'
PUBLIC	??_C@_1M@KBMAIBFN@?$AAv?$AAi?$AA?9?$AAV?$AAN?$AA?$AA@ ; `string'
PUBLIC	??_C@_1M@GPCBKDJK@?$AAh?$AAy?$AA?9?$AAA?$AAM?$AA?$AA@ ; `string'
PUBLIC	??_C@_1BG@BECMDDJB@?$AAa?$AAz?$AA?9?$AAA?$AAZ?$AA?9?$AAL?$AAa?$AAt?$AAn?$AA?$AA@ ; `string'
PUBLIC	??_C@_1M@MAOFCAEA@?$AAe?$AAu?$AA?9?$AAE?$AAS?$AA?$AA@ ; `string'
PUBLIC	??_C@_1M@IGHABKPI@?$AAm?$AAk?$AA?9?$AAM?$AAK?$AA?$AA@ ; `string'
PUBLIC	??_C@_0BA@MCBFIDIC@atlTraceNotImpl?$AA@		; `string'
PUBLIC	??_C@_1M@IAIGNEJG@?$AAt?$AAn?$AA?9?$AAZ?$AAA?$AA?$AA@ ; `string'
PUBLIC	??_C@_1M@IIJCOJFA@?$AAx?$AAh?$AA?9?$AAZ?$AAA?$AA?$AA@ ; `string'
PUBLIC	??_C@_1M@LGPJHNJH@?$AAz?$AAu?$AA?9?$AAZ?$AAA?$AA?$AA@ ; `string'
PUBLIC	??_C@_1M@HOKAOIO@?$AAa?$AAf?$AA?9?$AAZ?$AAA?$AA?$AA@ ; `string'
PUBLIC	??_C@_1M@DPCLHLIE@?$AAk?$AAa?$AA?9?$AAG?$AAE?$AA?$AA@ ; `string'
PUBLIC	??_C@_1M@BLKMHJBI@?$AAf?$AAo?$AA?9?$AAF?$AAO?$AA?$AA@ ; `string'
PUBLIC	??_C@_1M@LGGJAPPB@?$AAh?$AAi?$AA?9?$AAI?$AAN?$AA?$AA@ ; `string'
PUBLIC	??_C@_1M@FIKPIHFE@?$AAm?$AAt?$AA?9?$AAM?$AAT?$AA?$AA@ ; `string'
PUBLIC	??_C@_1M@HEGGPBFA@?$AAs?$AAe?$AA?9?$AAN?$AAO?$AA?$AA@ ; `string'
PUBLIC	??_C@_1M@EIBJEEPA@?$AAm?$AAs?$AA?9?$AAM?$AAY?$AA?$AA@ ; `string'
PUBLIC	??_C@_1M@FHLBGMPP@?$AAk?$AAk?$AA?9?$AAK?$AAZ?$AA?$AA@ ; `string'
PUBLIC	??_C@_1M@NGJJLCGI@?$AAk?$AAy?$AA?9?$AAK?$AAG?$AA?$AA@ ; `string'
PUBLIC	??_C@_1M@GIENNBFC@?$AAs?$AAw?$AA?9?$AAK?$AAE?$AA?$AA@ ; `string'
PUBLIC	??_C@_1BG@NDGMJIMJ@?$AAu?$AAz?$AA?9?$AAU?$AAZ?$AA?9?$AAL?$AAa?$AAt?$AAn?$AA?$AA@ ; `string'
PUBLIC	??_C@_1M@IDCCIHBC@?$AAt?$AAt?$AA?9?$AAR?$AAU?$AA?$AA@ ; `string'
PUBLIC	??_C@_1M@LOICPMOJ@?$AAb?$AAn?$AA?9?$AAI?$AAN?$AA?$AA@ ; `string'
PUBLIC	??_C@_1M@KPKKNEAH@?$AAp?$AAa?$AA?9?$AAI?$AAN?$AA?$AA@ ; `string'
PUBLIC	??_C@_1M@PJGPPBOG@?$AAg?$AAu?$AA?9?$AAI?$AAN?$AA?$AA@ ; `string'
PUBLIC	??_C@_1M@KMKMOPHI@?$AAt?$AAa?$AA?9?$AAI?$AAN?$AA?$AA@ ; `string'
PUBLIC	??_C@_1M@KFEHEPAC@?$AAt?$AAe?$AA?9?$AAI?$AAN?$AA?$AA@ ; `string'
PUBLIC	??_C@_1M@CDCLMGHI@?$AAk?$AAn?$AA?9?$AAI?$AAN?$AA?$AA@ ; `string'
PUBLIC	??_C@_1M@MIODLDKF@?$AAm?$AAl?$AA?9?$AAI?$AAN?$AA?$AA@ ; `string'
PUBLIC	??_C@_1M@PBIEACPO@?$AAm?$AAr?$AA?9?$AAI?$AAN?$AA?$AA@ ; `string'
PUBLIC	??_C@_1M@NIDEAGPH@?$AAs?$AAa?$AA?9?$AAI?$AAN?$AA?$AA@ ; `string'
PUBLIC	??_C@_1M@FHIHCBIO@?$AAm?$AAn?$AA?9?$AAM?$AAN?$AA?$AA@ ; `string'
PUBLIC	??_C@_1M@JAIJPENP@?$AAc?$AAy?$AA?9?$AAG?$AAB?$AA?$AA@ ; `string'
PUBLIC	??_C@_1M@PHGFBEPN@?$AAg?$AAl?$AA?9?$AAE?$AAS?$AA?$AA@ ; `string'
PUBLIC	??_C@_1O@KPIPDNCP@?$AAk?$AAo?$AAk?$AA?9?$AAI?$AAN?$AA?$AA@ ; `string'
PUBLIC	??_C@_1O@KNHJLDJA@?$AAs?$AAy?$AAr?$AA?9?$AAS?$AAY?$AA?$AA@ ; `string'
PUBLIC	??_C@_1O@MKEKBLAH@?$AAd?$AAi?$AAv?$AA?9?$AAM?$AAV?$AA?$AA@ ; `string'
PUBLIC	??_C@_1O@OHDCKDDF@?$AAq?$AAu?$AAz?$AA?9?$AAB?$AAO?$AA?$AA@ ; `string'
PUBLIC	??_C@_1M@LEPJNLFD@?$AAn?$AAs?$AA?9?$AAZ?$AAA?$AA?$AA@ ; `string'
PUBLIC	??_C@_1M@OMLEIIJB@?$AAm?$AAi?$AA?9?$AAN?$AAZ?$AA?$AA@ ; `string'
PUBLIC	??_C@_1M@PMPEAILG@?$AAa?$AAr?$AA?9?$AAI?$AAQ?$AA?$AA@ ; `string'
PUBLIC	??_C@_1M@BIBDDEMK@?$AAz?$AAh?$AA?9?$AAC?$AAN?$AA?$AA@ ; `string'
PUBLIC	??_C@_1M@CNKPNOEE@?$AAd?$AAe?$AA?9?$AAC?$AAH?$AA?$AA@ ; `string'
PUBLIC	??_C@_1M@LKMGMLKO@?$AAe?$AAn?$AA?9?$AAG?$AAB?$AA?$AA@ ; `string'
PUBLIC	??_C@_1M@PGKJFFGL@?$AAe?$AAs?$AA?9?$AAM?$AAX?$AA?$AA@ ; `string'
PUBLIC	??_C@_1M@DNNANBDC@?$AAf?$AAr?$AA?9?$AAB?$AAE?$AA?$AA@ ; `string'
PUBLIC	??_C@_1M@HLGMDFHM@?$AAi?$AAt?$AA?9?$AAC?$AAH?$AA?$AA@ ; `string'
PUBLIC	??_C@_1M@CLLBGJH@?$AAn?$AAl?$AA?9?$AAB?$AAE?$AA?$AA@ ; `string'
PUBLIC	??_C@_1M@BODBOGLF@?$AAn?$AAn?$AA?9?$AAN?$AAO?$AA?$AA@ ; `string'
PUBLIC	??_C@_1M@HFFAHKAD@?$AAp?$AAt?$AA?9?$AAP?$AAT?$AA?$AA@ ; `string'
PUBLIC	??_C@_1BG@LNOAKHIE@?$AAs?$AAr?$AA?9?$AAS?$AAP?$AA?9?$AAL?$AAa?$AAt?$AAn?$AA?$AA@ ; `string'
PUBLIC	_LIBID_ATLLib
PUBLIC	??_C@_1M@HBMHBGAK@?$AAs?$AAv?$AA?9?$AAF?$AAI?$AA?$AA@ ; `string'
PUBLIC	??_C@_1BG@DGCJGJBE@?$AAa?$AAz?$AA?9?$AAA?$AAZ?$AA?9?$AAC?$AAy?$AAr?$AAl?$AA?$AA@ ; `string'
PUBLIC	??_C@_1M@KEJDAAHB@?$AAs?$AAe?$AA?9?$AAS?$AAE?$AA?$AA@ ; `string'
PUBLIC	??_C@_0BD@PJPCCAKP@atlTraceAllocation?$AA@	; `string'
PUBLIC	??_C@_1M@HEIBJJAD@?$AAm?$AAs?$AA?9?$AAB?$AAN?$AA?$AA@ ; `string'
PUBLIC	??_C@_1BG@PBGJMCEM@?$AAu?$AAz?$AA?9?$AAU?$AAZ?$AA?9?$AAC?$AAy?$AAr?$AAl?$AA?$AA@ ; `string'
PUBLIC	??_C@_1O@LAOBCMDF@?$AAq?$AAu?$AAz?$AA?9?$AAE?$AAC?$AA?$AA@ ; `string'
PUBLIC	??_C@_1M@POEEMAIO@?$AAa?$AAr?$AA?9?$AAE?$AAG?$AA?$AA@ ; `string'
PUBLIC	??_C@_1M@EFAKDEDL@?$AAz?$AAh?$AA?9?$AAH?$AAK?$AA?$AA@ ; `string'
PUBLIC	_IID_IDocHostUIHandlerDispatch
PUBLIC	??_C@_1M@HKKIJHGI@?$AAd?$AAe?$AA?9?$AAA?$AAT?$AA?$AA@ ; `string'
PUBLIC	??_C@_1M@KBFBEHJF@?$AAe?$AAn?$AA?9?$AAA?$AAU?$AA?$AA@ ; `string'
PUBLIC	??_C@_1M@MNPLFAAH@?$AAe?$AAs?$AA?9?$AAE?$AAS?$AA?$AA@ ; `string'
PUBLIC	??_C@_1M@HJOOJFMA@?$AAf?$AAr?$AA?9?$AAC?$AAA?$AA?$AA@ ; `string'
PUBLIC	??_C@_1BG@JPOFPNAB@?$AAs?$AAr?$AA?9?$AAS?$AAP?$AA?9?$AAC?$AAy?$AAr?$AAl?$AA?$AA@ ; `string'
PUBLIC	??_C@_1M@LNFOCMOB@?$AAs?$AAe?$AA?9?$AAF?$AAI?$AA?$AA@ ; `string'
PUBLIC	??_C@_1O@MGJBOAMB@?$AAq?$AAu?$AAz?$AA?9?$AAP?$AAE?$AA?$AA@ ; `string'
PUBLIC	??_C@_1M@GJINLBOK@?$AAa?$AAr?$AA?9?$AAL?$AAY?$AA?$AA@ ; `string'
PUBLIC	??_C@_1M@GGMNHJNL@?$AAz?$AAh?$AA?9?$AAS?$AAG?$AA?$AA@ ; `string'
PUBLIC	??_C@_1M@HOIKODND@?$AAd?$AAe?$AA?9?$AAL?$AAU?$AA?$AA@ ; `string'
PUBLIC	??_C@_1M@DDOCCGFG@?$AAe?$AAn?$AA?9?$AAC?$AAA?$AA?$AA@ ; `string'
PUBLIC	??_C@_1M@BNOEMJLF@?$AAe?$AAs?$AA?9?$AAG?$AAT?$AA?$AA@ ; `string'
PUBLIC	??_C@_1M@EOGNKEK@?$AAf?$AAr?$AA?9?$AAC?$AAH?$AA?$AA@ ; `string'
PUBLIC	??_C@_1M@FLIDJFHL@?$AAh?$AAr?$AA?9?$AAB?$AAA?$AA?$AA@ ; `string'
PUBLIC	??_C@_1O@FMCELNAJ@?$AAs?$AAm?$AAj?$AA?9?$AAN?$AAO?$AA?$AA@ ; `string'
PUBLIC	??_C@_1M@JHGLJMGJ@?$AAa?$AAr?$AA?9?$AAD?$AAZ?$AA?$AA@ ; `string'
PUBLIC	??_C@_1M@JKKFDCNP@?$AAz?$AAh?$AA?9?$AAM?$AAO?$AA?$AA@ ; `string'
PUBLIC	??_C@_1M@GEEFALPE@?$AAd?$AAe?$AA?9?$AAL?$AAI?$AA?$AA@ ; `string'
PUBLIC	??_C@_1M@IGEOFBG@?$AAe?$AAn?$AA?9?$AAN?$AAZ?$AA?$AA@ ; `string'
PUBLIC	??_C@_1M@KDBONEHP@?$AAe?$AAs?$AA?9?$AAC?$AAR?$AA?$AA@ ; `string'
PUBLIC	??_C@_1M@FHMDOHNN@?$AAf?$AAr?$AA?9?$AAL?$AAU?$AA?$AA@ ; `string'
PUBLIC	??_C@_1BG@NFKKMAFG@?$AAb?$AAs?$AA?9?$AAB?$AAA?$AA?9?$AAL?$AAa?$AAt?$AAn?$AA?$AA@ ; `string'
PUBLIC	??_C@_1O@IMNBEMCI@?$AAs?$AAm?$AAj?$AA?9?$AAS?$AAE?$AA?$AA@ ; `string'
PUBLIC	??_C@_1M@DHHMBNDP@?$AAa?$AAr?$AA?9?$AAM?$AAA?$AA?$AA@ ; `string'
PUBLIC	??_C@_1M@BNBLJCGH@?$AAe?$AAn?$AA?9?$AAI?$AAE?$AA?$AA@ ; `string'
PUBLIC	??_C@_1M@GEPAFMDL@?$AAe?$AAs?$AA?9?$AAP?$AAA?$AA?$AA@ ; `string'
PUBLIC	??_C@_1M@OJONDMDL@?$AAf?$AAr?$AA?9?$AAM?$AAC?$AA?$AA@ ; `string'
PUBLIC	??_C@_1BG@OBCNFJB@?$AAs?$AAr?$AA?9?$AAB?$AAA?$AA?9?$AAL?$AAa?$AAt?$AAn?$AA?$AA@ ; `string'
PUBLIC	??_C@_1O@KEMEEGPO@?$AAs?$AAm?$AAa?$AA?9?$AAN?$AAO?$AA?$AA@ ; `string'
PUBLIC	??_C@_1M@ELMGFODK@?$AAa?$AAr?$AA?9?$AAT?$AAN?$AA?$AA@ ; `string'
PUBLIC	??_C@_1M@BHDLHFAF@?$AAe?$AAn?$AA?9?$AAZ?$AAA?$AA?$AA@ ; `string'
PUBLIC	??_C@_1M@BMGIGLIF@?$AAe?$AAs?$AA?9?$AAD?$AAO?$AA?$AA@ ; `string'
PUBLIC	??_C@_1BG@CMBHIPBE@?$AAs?$AAr?$AA?9?$AAB?$AAA?$AA?9?$AAC?$AAy?$AAr?$AAl?$AA?$AA@ ; `string'
PUBLIC	??_C@_1O@HEDBLHNP@?$AAs?$AAm?$AAa?$AA?9?$AAS?$AAE?$AA?$AA@ ; `string'
PUBLIC	??_C@_1M@DAGCADIM@?$AAa?$AAr?$AA?9?$AAO?$AAM?$AA?$AA@ ; `string'
PUBLIC	??_C@_1M@FODLMICG@?$AAe?$AAn?$AA?9?$AAJ?$AAM?$AA?$AA@ ; `string'
PUBLIC	??_C@_1M@DNMLCIHB@?$AAe?$AAs?$AA?9?$AAV?$AAE?$AA?$AA@ ; `string'
PUBLIC	??_C@_1O@EOKHMKJK@?$AAs?$AAm?$AAs?$AA?9?$AAF?$AAI?$AA?$AA@ ; `string'
PUBLIC	??_C@_1M@CAFJMKOF@?$AAa?$AAr?$AA?9?$AAY?$AAE?$AA?$AA@ ; `string'
PUBLIC	??_C@_1M@CBFHIJLI@?$AAe?$AAn?$AA?9?$AAC?$AAB?$AA?$AA@ ; `string'
PUBLIC	??_C@_1M@BGNFLDN@?$AAe?$AAs?$AA?9?$AAC?$AAO?$AA?$AA@ ; `string'
PUBLIC	??_C@_1O@JMPHMAMC@?$AAs?$AAm?$AAn?$AA?9?$AAF?$AAI?$AA?$AA@ ; `string'
PUBLIC	??_C@_0BC@PGMFNIFA@atlTraceException?$AA@	; `string'
PUBLIC	??_C@_1M@JLANABKE@?$AAa?$AAr?$AA?9?$AAS?$AAY?$AA?$AA@ ; `string'
PUBLIC	??_C@_1M@HPKGCFGN@?$AAe?$AAn?$AA?9?$AAB?$AAZ?$AA?$AA@ ; `string'
PUBLIC	??_C@_1M@OLJCMLGM@?$AAe?$AAs?$AA?9?$AAP?$AAE?$AA?$AA@ ; `string'
PUBLIC	??_C@_1M@MKKGFKLE@?$AAa?$AAr?$AA?9?$AAJ?$AAO?$AA?$AA@ ; `string'
PUBLIC	??_C@_1M@EKPGLDNI@?$AAe?$AAn?$AA?9?$AAT?$AAT?$AA?$AA@ ; `string'
PUBLIC	??_C@_1M@OONGHFHE@?$AAe?$AAs?$AA?9?$AAA?$AAR?$AA?$AA@ ; `string'
PUBLIC	??_C@_1M@OOJFGBHE@?$AAa?$AAr?$AA?9?$AAL?$AAB?$AA?$AA@ ; `string'
PUBLIC	??_C@_1M@GCEJHNEG@?$AAe?$AAn?$AA?9?$AAZ?$AAW?$AA?$AA@ ; `string'
PUBLIC	??_C@_1M@JNOCAHJI@?$AAe?$AAs?$AA?9?$AAE?$AAC?$AA?$AA@ ; `string'
PUBLIC	??_C@_1M@JEFHPGGB@?$AAa?$AAr?$AA?9?$AAK?$AAW?$AA?$AA@ ; `string'
PUBLIC	??_C@_1M@MLKIBJOJ@?$AAe?$AAn?$AA?9?$AAP?$AAH?$AA?$AA@ ; `string'
PUBLIC	??_C@_1M@BDNIPEND@?$AAe?$AAs?$AA?9?$AAC?$AAL?$AA?$AA@ ; `string'
PUBLIC	??_C@_1M@MPNMEKBD@?$AAa?$AAr?$AA?9?$AAA?$AAE?$AA?$AA@ ; `string'
PUBLIC	??_C@_1M@KBJALCPI@?$AAe?$AAs?$AA?9?$AAU?$AAY?$AA?$AA@ ; `string'
PUBLIC	??_C@_1M@LLCCOAGA@?$AAa?$AAr?$AA?9?$AAB?$AAH?$AA?$AA@ ; `string'
PUBLIC	??_C@_1M@PBFNCDEL@?$AAe?$AAs?$AA?9?$AAP?$AAY?$AA?$AA@ ; `string'
PUBLIC	??_C@_1M@EDGINPNP@?$AAa?$AAr?$AA?9?$AAQ?$AAA?$AA?$AA@ ; `string'
PUBLIC	??_C@_1M@MKDBIIJI@?$AAe?$AAs?$AA?9?$AAB?$AAO?$AA?$AA@ ; `string'
PUBLIC	??_C@_1M@CPKKEBLD@?$AAe?$AAs?$AA?9?$AAS?$AAV?$AA?$AA@ ; `string'
PUBLIC	??_C@_1M@NDBGMMJL@?$AAe?$AAs?$AA?9?$AAH?$AAN?$AA?$AA@ ; `string'
PUBLIC	??_C@_1M@JIJIBHDP@?$AAe?$AAs?$AA?9?$AAN?$AAI?$AA?$AA@ ; `string'
PUBLIC	??_C@_1M@CGFMKEEK@?$AAe?$AAs?$AA?9?$AAP?$AAR?$AA?$AA@ ; `string'
PUBLIC	??_C@_1O@ICJHKIIK@?$AAz?$AAh?$AA?9?$AAC?$AAH?$AAT?$AA?$AA@ ; `string'
PUBLIC	??_C@_15CLNEJCE@?$AAs?$AAr?$AA?$AA@		; `string'
PUBLIC	__pAtlLocaleNameToIndexTable
PUBLIC	??_C@_1M@KAHEKEIG@?$AAa?$AAf?$AA?9?$AAz?$AAa?$AA?$AA@ ; `string'
PUBLIC	??_C@_1M@GIECOABL@?$AAa?$AAr?$AA?9?$AAa?$AAe?$AA?$AA@ ; `string'
PUBLIC	??_C@_1M@BMLMEKGI@?$AAa?$AAr?$AA?9?$AAb?$AAh?$AA?$AA@ ; `string'
PUBLIC	??_C@_1M@DAPFDGGB@?$AAa?$AAr?$AA?9?$AAd?$AAz?$AA?$AA@ ; `string'
PUBLIC	??_C@_1M@FJNKGKIG@?$AAa?$AAr?$AA?9?$AAe?$AAg?$AA?$AA@ ; `string'
PUBLIC	??_C@_1M@FLGKKCLO@?$AAa?$AAr?$AA?9?$AAi?$AAq?$AA?$AA@ ; `string'
PUBLIC	??_C@_1M@GNDIPALM@?$AAa?$AAr?$AA?9?$AAj?$AAo?$AA?$AA@ ; `string'
PUBLIC	??_C@_1M@DDMJFMGJ@?$AAa?$AAr?$AA?9?$AAk?$AAw?$AA?$AA@ ; `string'
PUBLIC	?_pModule@ATL@@3PAVCComModule@1@A		; ATL::_pModule
PUBLIC	??_C@_1M@EJALMLHM@?$AAa?$AAr?$AA?9?$AAl?$AAb?$AA?$AA@ ; `string'
PUBLIC	??_C@_1M@MOBDBLOC@?$AAa?$AAr?$AA?9?$AAl?$AAy?$AA?$AA@ ; `string'
PUBLIC	??_C@_1M@JAOCLHDH@?$AAa?$AAr?$AA?9?$AAm?$AAa?$AA?$AA@ ; `string'
PUBLIC	??_C@_1M@JHPMKJIE@?$AAa?$AAr?$AA?9?$AAo?$AAm?$AA?$AA@ ; `string'
PUBLIC	??_C@_1M@OEPGHFNH@?$AAa?$AAr?$AA?9?$AAq?$AAa?$AA?$AA@ ; `string'
PUBLIC	??_C@_1M@KJDONENM@?$AAa?$AAr?$AA?9?$AAs?$AAa?$AA?$AA@ ; `string'
PUBLIC	??_C@_1M@DMJDKLKM@?$AAa?$AAr?$AA?9?$AAs?$AAy?$AA?$AA@ ; `string'
PUBLIC	??_C@_1M@OMFIPEDC@?$AAa?$AAr?$AA?9?$AAt?$AAn?$AA?$AA@ ; `string'
PUBLIC	??_C@_1M@IHMHGAON@?$AAa?$AAr?$AA?9?$AAy?$AAe?$AA?$AA@ ; `string'
PUBLIC	??_C@_1BG@KDCPGJGB@?$AAa?$AAz?$AA?9?$AAa?$AAz?$AA?9?$AAc?$AAy?$AAr?$AAl?$AA?$AA@ ; `string'
PUBLIC	??_C@_1BG@IBCKDDOE@?$AAa?$AAz?$AA?9?$AAa?$AAz?$AA?9?$AAl?$AAa?$AAt?$AAn?$AA?$AA@ ; `string'
PUBLIC	??_C@_1M@EGPFDCPD@?$AAb?$AAe?$AA?9?$AAb?$AAy?$AA?$AA@ ; `string'
PUBLIC	??_C@_1M@PCMGMCGC@?$AAb?$AAg?$AA?9?$AAb?$AAg?$AA?$AA@ ; `string'
PUBLIC	??_C@_1M@BJBMFGOB@?$AAb?$AAn?$AA?9?$AAi?$AAn?$AA?$AA@ ; `string'
PUBLIC	??_C@_0N@BNNILHBE@atlTraceTime?$AA@		; `string'
PUBLIC	??_C@_1BG@EAKMMACD@?$AAb?$AAs?$AA?9?$AAb?$AAa?$AA?9?$AAl?$AAa?$AAt?$AAn?$AA?$AA@ ; `string'
PUBLIC	??_C@_1M@KGADAODK@?$AAc?$AAa?$AA?9?$AAe?$AAs?$AA?$AA@ ; `string'
PUBLIC	??_C@_1M@COAJPDHI@?$AAc?$AAs?$AA?9?$AAc?$AAz?$AA?$AA@ ; `string'
PUBLIC	??_C@_1M@DHBHFONH@?$AAc?$AAy?$AA?9?$AAg?$AAb?$AA?$AA@ ; `string'
PUBLIC	??_C@_1M@IMGKELGA@?$AAd?$AAa?$AA?9?$AAd?$AAk?$AA?$AA@ ; `string'
PUBLIC	??_C@_1M@NNDGDNGA@?$AAd?$AAe?$AA?9?$AAa?$AAt?$AA?$AA@ ; `string'
PUBLIC	??_C@_1M@IKDBHEEM@?$AAd?$AAe?$AA?9?$AAc?$AAh?$AA?$AA@ ; `string'
PUBLIC	??_C@_1M@GFFOJMCJ@?$AAd?$AAe?$AA?9?$AAd?$AAe?$AA?$AA@ ; `string'
PUBLIC	??_C@_1M@MDNLKBPM@?$AAd?$AAe?$AA?9?$AAl?$AAi?$AA?$AA@ ; `string'
PUBLIC	??_C@_1M@NJBEEJNL@?$AAd?$AAe?$AA?9?$AAl?$AAu?$AA?$AA@ ; `string'
PUBLIC	??_C@_1O@GNNELBAP@?$AAd?$AAi?$AAv?$AA?9?$AAm?$AAv?$AA?$AA@ ; `string'
PUBLIC	??_C@_1M@EJLEOGAE@?$AAe?$AAl?$AA?9?$AAg?$AAr?$AA?$AA@ ; `string'
PUBLIC	??_C@_1M@GMPONJN@?$AAe?$AAn?$AA?9?$AAa?$AAu?$AA?$AA@ ; `string'
PUBLIC	??_C@_1M@NIDIIPGF@?$AAe?$AAn?$AA?9?$AAb?$AAz?$AA?$AA@ ; `string'
PUBLIC	??_C@_1M@JEHMIMFO@?$AAe?$AAn?$AA?9?$AAc?$AAa?$AA?$AA@ ; `string'
PUBLIC	??_C@_1M@IGMJCDLA@?$AAe?$AAn?$AA?9?$AAc?$AAb?$AA?$AA@ ; `string'
PUBLIC	??_C@_1M@BNFIGBKG@?$AAe?$AAn?$AA?9?$AAg?$AAb?$AA?$AA@ ; `string'
PUBLIC	??_C@_1M@LKIFDIGP@?$AAe?$AAn?$AA?9?$AAi?$AAe?$AA?$AA@ ; `string'
PUBLIC	??_C@_1M@PJKFGCCO@?$AAe?$AAn?$AA?9?$AAj?$AAm?$AA?$AA@ ; `string'
PUBLIC	??_C@_1M@KPPKEPBO@?$AAe?$AAn?$AA?9?$AAn?$AAz?$AA?$AA@ ; `string'
PUBLIC	??_C@_1M@GMDGLDOB@?$AAe?$AAn?$AA?9?$AAp?$AAh?$AA?$AA@ ; `string'
PUBLIC	??_C@_1M@ONGIBJNA@?$AAe?$AAn?$AA?9?$AAt?$AAt?$AA?$AA@ ; `string'
PUBLIC	??_C@_1M@LLODPCMM@?$AAe?$AAn?$AA?9?$AAu?$AAs?$AA?$AA@ ; `string'
PUBLIC	??_C@_1M@LAKFNPAN@?$AAe?$AAn?$AA?9?$AAz?$AAa?$AA?$AA@ ; `string'
PUBLIC	??_C@_1M@MFNHNHEO@?$AAe?$AAn?$AA?9?$AAz?$AAw?$AA?$AA@ ; `string'
PUBLIC	??_C@_1M@EJEINPHM@?$AAe?$AAs?$AA?9?$AAa?$AAr?$AA?$AA@ ; `string'
PUBLIC	??_C@_1M@GNKPCCJA@?$AAe?$AAs?$AA?9?$AAb?$AAo?$AA?$AA@ ; `string'
PUBLIC	??_C@_1M@LEEGFONL@?$AAe?$AAs?$AA?9?$AAc?$AAl?$AA?$AA@ ; `string'
PUBLIC	??_C@_1M@KGPDPBDF@?$AAe?$AAs?$AA?9?$AAc?$AAo?$AA?$AA@ ; `string'
PUBLIC	??_C@_1M@EIAHOHH@?$AAe?$AAs?$AA?9?$AAc?$AAr?$AA?$AA@ ; `string'
PUBLIC	??_C@_1M@LLPGMBIN@?$AAe?$AAs?$AA?9?$AAd?$AAo?$AA?$AA@ ; `string'
PUBLIC	??_C@_1M@DKHMKNJA@?$AAe?$AAs?$AA?9?$AAe?$AAc?$AA?$AA@ ; `string'
PUBLIC	??_C@_1M@GKGFPKAP@?$AAe?$AAs?$AA?9?$AAe?$AAs?$AA?$AA@ ; `string'
PUBLIC	??_C@_1M@LKHKGDLN@?$AAe?$AAs?$AA?9?$AAg?$AAt?$AA?$AA@ ; `string'
PUBLIC	??_C@_1M@HEIIGGJD@?$AAe?$AAs?$AA?9?$AAh?$AAn?$AA?$AA@ ; `string'
PUBLIC	??_C@_1M@FBDHPPGD@?$AAe?$AAs?$AA?9?$AAm?$AAx?$AA?$AA@ ; `string'
PUBLIC	??_C@_1M@DPAGLNDH@?$AAe?$AAs?$AA?9?$AAn?$AAi?$AA?$AA@ ; `string'
PUBLIC	??_C@_1M@MDGOPGDD@?$AAe?$AAs?$AA?9?$AAp?$AAa?$AA?$AA@ ; `string'
PUBLIC	??_C@_1M@EMAMGBGE@?$AAe?$AAs?$AA?9?$AAp?$AAe?$AA?$AA@ ; `string'
PUBLIC	??_C@_1M@IBMCAOEC@?$AAe?$AAs?$AA?9?$AAp?$AAr?$AA?$AA@ ; `string'
PUBLIC	??_C@_1M@FGMDIJED@?$AAe?$AAs?$AA?9?$AAp?$AAy?$AA?$AA@ ; `string'
PUBLIC	??_C@_1M@IIDEOLLL@?$AAe?$AAs?$AA?9?$AAs?$AAv?$AA?$AA@ ; `string'
PUBLIC	??_C@_1M@GAOBIPA@?$AAe?$AAs?$AA?9?$AAu?$AAy?$AA?$AA@ ; `string'
PUBLIC	??_C@_1M@JKFFICHJ@?$AAe?$AAs?$AA?9?$AAv?$AAe?$AA?$AA@ ; `string'
PUBLIC	??_C@_1M@PNMLOJDF@?$AAe?$AAt?$AA?9?$AAe?$AAe?$AA?$AA@ ; `string'
PUBLIC	??_C@_1M@GHHLIKEI@?$AAe?$AAu?$AA?9?$AAe?$AAs?$AA?$AA@ ; `string'
PUBLIC	??_C@_1M@PBNONODE@?$AAf?$AAa?$AA?9?$AAi?$AAr?$AA?$AA@ ; `string'
PUBLIC	??_C@_0O@MEOJAOKK@atlTraceCache?$AA@		; `string'
PUBLIC	??_C@_1M@JEEHPMIL@?$AAf?$AAi?$AA?9?$AAf?$AAi?$AA?$AA@ ; `string'
PUBLIC	??_C@_1M@LMDCNDBA@?$AAf?$AAo?$AA?9?$AAf?$AAo?$AA?$AA@ ; `string'
PUBLIC	??_C@_1M@JKEOHLDK@?$AAf?$AAr?$AA?9?$AAb?$AAe?$AA?$AA@ ; `string'
PUBLIC	??_C@_1M@NOHADPMI@?$AAf?$AAr?$AA?9?$AAc?$AAa?$AA?$AA@ ; `string'
PUBLIC	??_C@_1M@KDHIHAEC@?$AAf?$AAr?$AA?9?$AAc?$AAh?$AA?$AA@ ; `string'
PUBLIC	___pobjMapEntryFirst
PUBLIC	??_C@_1M@MMBBFGAK@?$AAf?$AAr?$AA?9?$AAf?$AAr?$AA?$AA@ ; `string'
PUBLIC	___pobjMapEntryLast
PUBLIC	??_C@_1M@PAFNENNF@?$AAf?$AAr?$AA?9?$AAl?$AAu?$AA?$AA@ ; `string'
PUBLIC	??_C@_1M@EOHDJGDD@?$AAf?$AAr?$AA?9?$AAm?$AAc?$AA?$AA@ ; `string'
PUBLIC	??_C@_1M@FAPLLOPF@?$AAg?$AAl?$AA?9?$AAe?$AAs?$AA?$AA@ ; `string'
PUBLIC	??_C@_1M@FOPBFLOO@?$AAg?$AAu?$AA?9?$AAi?$AAn?$AA?$AA@ ; `string'
PUBLIC	??_C@_1M@KBMCINPM@?$AAh?$AAe?$AA?9?$AAi?$AAl?$AA?$AA@ ; `string'
PUBLIC	??_C@_1M@BBPHKFPJ@?$AAh?$AAi?$AA?9?$AAi?$AAn?$AA?$AA@ ; `string'
PUBLIC	??_C@_1M@PMBNDPHD@?$AAh?$AAr?$AA?9?$AAb?$AAa?$AA?$AA@ ; `string'
PUBLIC	??_C@_1M@BPCKOEGE@?$AAh?$AAr?$AA?9?$AAh?$AAr?$AA?$AA@ ; `string'
PUBLIC	??_C@_1M@GACBMHKE@?$AAh?$AAu?$AA?9?$AAh?$AAu?$AA?$AA@ ; `string'
PUBLIC	??_C@_1M@MILPAJJC@?$AAh?$AAy?$AA?9?$AAa?$AAm?$AA?$AA@ ; `string'
PUBLIC	??_C@_1M@BABBICEC@?$AAi?$AAd?$AA?9?$AAi?$AAd?$AA?$AA@ ; `string'
PUBLIC	??_C@_1M@BIKNHHPF@?$AAi?$AAs?$AA?9?$AAi?$AAs?$AA?$AA@ ; `string'
PUBLIC	??_C@_1M@NMPCJPHE@?$AAi?$AAt?$AA?9?$AAc?$AAh?$AA?$AA@ ; `string'
PUBLIC	??_C@_1M@GHKGFEDF@?$AAi?$AAt?$AA?9?$AAi?$AAt?$AA?$AA@ ; `string'
PUBLIC	??_C@_1M@NIEJCJJA@?$AAj?$AAa?$AA?9?$AAj?$AAp?$AA?$AA@ ; `string'
PUBLIC	??_C@_1M@JILFNBIM@?$AAk?$AAa?$AA?9?$AAg?$AAe?$AA?$AA@ ; `string'
PUBLIC	??_C@_1M@PACPMGPH@?$AAk?$AAk?$AA?9?$AAk?$AAz?$AA?$AA@ ; `string'
PUBLIC	??_C@_1M@IELFGMHA@?$AAk?$AAn?$AA?9?$AAi?$AAn?$AA?$AA@ ; `string'
PUBLIC	??_C@_1O@IBBJHCH@?$AAk?$AAo?$AAk?$AA?9?$AAi?$AAn?$AA?$AA@ ; `string'
PUBLIC	??_C@_1M@DMHAEOGC@?$AAk?$AAo?$AA?9?$AAk?$AAr?$AA?$AA@ ; `string'
PUBLIC	??_C@_1M@HBAHBIGA@?$AAk?$AAy?$AA?9?$AAk?$AAg?$AA?$AA@ ; `string'
PUBLIC	??_C@_1M@KPMILCJG@?$AAl?$AAt?$AA?9?$AAl?$AAt?$AA?$AA@ ; `string'
PUBLIC	??_C@_1M@BDEKKCA@?$AAl?$AAv?$AA?9?$AAl?$AAv?$AA?$AA@ ; `string'
PUBLIC	??_C@_1M@ELCKCCJJ@?$AAm?$AAi?$AA?9?$AAn?$AAz?$AA?$AA@ ; `string'
PUBLIC	??_C@_1M@CBOOLAPA@?$AAm?$AAk?$AA?9?$AAm?$AAk?$AA?$AA@ ; `string'
PUBLIC	??_C@_1M@GPHNBJKN@?$AAm?$AAl?$AA?9?$AAi?$AAn?$AA?$AA@ ; `string'
PUBLIC	??_C@_1M@PABJILIG@?$AAm?$AAn?$AA?9?$AAm?$AAn?$AA?$AA@ ; `string'
PUBLIC	??_C@_1M@FGBKKIPG@?$AAm?$AAr?$AA?9?$AAi?$AAn?$AA?$AA@ ; `string'
PUBLIC	??_C@_1M@NDBPDDAL@?$AAm?$AAs?$AA?9?$AAb?$AAn?$AA?$AA@ ; `string'
PUBLIC	??_C@_1M@OPIHOOPI@?$AAm?$AAs?$AA?9?$AAm?$AAy?$AA?$AA@ ; `string'
PUBLIC	??_C@_1M@PPDBCNFM@?$AAm?$AAt?$AA?9?$AAm?$AAt?$AA?$AA@ ; `string'
PUBLIC	?_pPerfRegFunc@ATL@@3P6AJPAUHINSTANCE__@@@ZA	; ATL::_pPerfRegFunc
PUBLIC	??_C@_1M@KDJDKMDD@?$AAn?$AAb?$AA?9?$AAn?$AAo?$AA?$AA@ ; `string'
PUBLIC	?_pPerfUnRegFunc@ATL@@3P6AJXZA			; ATL::_pPerfUnRegFunc
PUBLIC	??_C@_1M@KFCFLMJP@?$AAn?$AAl?$AA?9?$AAb?$AAe?$AA?$AA@ ; `string'
PUBLIC	?_AtlRegisterPerUser@ATL@@3_NA			; ATL::_AtlRegisterPerUser
PUBLIC	??_C@_1M@KPOPDDGO@?$AAn?$AAl?$AA?9?$AAn?$AAl?$AA?$AA@ ; `string'
PUBLIC	??_C@_1M@LJKPEMLN@?$AAn?$AAn?$AA?9?$AAn?$AAo?$AA?$AA@ ; `string'
PUBLIC	??_C@_1M@BDGHHBFL@?$AAn?$AAs?$AA?9?$AAz?$AAa?$AA?$AA@ ; `string'
PUBLIC	??_C@_1M@IDEHOAP@?$AAp?$AAa?$AA?9?$AAi?$AAn?$AA?$AA@ ; `string'
PUBLIC	??_C@_1M@HDBKGOGH@?$AAp?$AAl?$AA?9?$AAp?$AAl?$AA?$AA@ ; `string'
EXTRN	?_AtlBaseModule@ATL@@3VCAtlBaseModule@1@A:BYTE	; ATL::_AtlBaseModule
EXTRN	___ImageBase:BYTE
;	COMDAT ?_pAtlAutoThreadModule@ATL@@3PAUIAtlAutoThreadModule@1@A
_BSS	SEGMENT
?_pAtlAutoThreadModule@ATL@@3PAUIAtlAutoThreadModule@1@A DD 01H DUP (?) ; ATL::_pAtlAutoThreadModule
_BSS	ENDS
;	COMDAT ?m_bInitFailed@CAtlBaseModule@ATL@@2_NA
_BSS	SEGMENT
?m_bInitFailed@CAtlBaseModule@ATL@@2_NA DB 01H DUP (?)	; ATL::CAtlBaseModule::m_bInitFailed
_BSS	ENDS
;	COMDAT ?_pAtlModule@ATL@@3PAVCAtlModule@1@A
_BSS	SEGMENT
?_pAtlModule@ATL@@3PAVCAtlModule@1@A DD 01H DUP (?)	; ATL::_pAtlModule
_BSS	ENDS
;	COMDAT ?_pModule@ATL@@3PAVCComModule@1@A
_BSS	SEGMENT
?_pModule@ATL@@3PAVCComModule@1@A DD 01H DUP (?)	; ATL::_pModule
_BSS	ENDS
;	COMDAT ?_pPerfRegFunc@ATL@@3P6AJPAUHINSTANCE__@@@ZA
_BSS	SEGMENT
?_pPerfRegFunc@ATL@@3P6AJPAUHINSTANCE__@@@ZA DD 01H DUP (?) ; ATL::_pPerfRegFunc
_BSS	ENDS
;	COMDAT ?_pPerfUnRegFunc@ATL@@3P6AJXZA
_BSS	SEGMENT
?_pPerfUnRegFunc@ATL@@3P6AJXZA DD 01H DUP (?)		; ATL::_pPerfUnRegFunc
_BSS	ENDS
;	COMDAT ?_AtlRegisterPerUser@ATL@@3_NA
_BSS	SEGMENT
?_AtlRegisterPerUser@ATL@@3_NA DB 01H DUP (?)		; ATL::_AtlRegisterPerUser
_BSS	ENDS
;	COMDAT ??_C@_1M@HDBKGOGH@?$AAp?$AAl?$AA?9?$AAp?$AAl?$AA?$AA@
CONST	SEGMENT
??_C@_1M@HDBKGOGH@?$AAp?$AAl?$AA?9?$AAp?$AAl?$AA?$AA@ DB 'p', 00H, 'l', 00H
	DB	'-', 00H, 'p', 00H, 'l', 00H, 00H, 00H	; `string'
CONST	ENDS
;	COMDAT ??_C@_1M@IDEHOAP@?$AAp?$AAa?$AA?9?$AAi?$AAn?$AA?$AA@
CONST	SEGMENT
??_C@_1M@IDEHOAP@?$AAp?$AAa?$AA?9?$AAi?$AAn?$AA?$AA@ DB 'p', 00H, 'a', 00H
	DB	'-', 00H, 'i', 00H, 'n', 00H, 00H, 00H	; `string'
CONST	ENDS
;	COMDAT ??_C@_1M@BDGHHBFL@?$AAn?$AAs?$AA?9?$AAz?$AAa?$AA?$AA@
CONST	SEGMENT
??_C@_1M@BDGHHBFL@?$AAn?$AAs?$AA?9?$AAz?$AAa?$AA?$AA@ DB 'n', 00H, 's', 00H
	DB	'-', 00H, 'z', 00H, 'a', 00H, 00H, 00H	; `string'
CONST	ENDS
;	COMDAT ??_C@_1M@LJKPEMLN@?$AAn?$AAn?$AA?9?$AAn?$AAo?$AA?$AA@
CONST	SEGMENT
??_C@_1M@LJKPEMLN@?$AAn?$AAn?$AA?9?$AAn?$AAo?$AA?$AA@ DB 'n', 00H, 'n', 00H
	DB	'-', 00H, 'n', 00H, 'o', 00H, 00H, 00H	; `string'
CONST	ENDS
;	COMDAT ??_C@_1M@KPOPDDGO@?$AAn?$AAl?$AA?9?$AAn?$AAl?$AA?$AA@
CONST	SEGMENT
??_C@_1M@KPOPDDGO@?$AAn?$AAl?$AA?9?$AAn?$AAl?$AA?$AA@ DB 'n', 00H, 'l', 00H
	DB	'-', 00H, 'n', 00H, 'l', 00H, 00H, 00H	; `string'
CONST	ENDS
;	COMDAT ??_C@_1M@KFCFLMJP@?$AAn?$AAl?$AA?9?$AAb?$AAe?$AA?$AA@
CONST	SEGMENT
??_C@_1M@KFCFLMJP@?$AAn?$AAl?$AA?9?$AAb?$AAe?$AA?$AA@ DB 'n', 00H, 'l', 00H
	DB	'-', 00H, 'b', 00H, 'e', 00H, 00H, 00H	; `string'
CONST	ENDS
;	COMDAT ??_C@_1M@KDJDKMDD@?$AAn?$AAb?$AA?9?$AAn?$AAo?$AA?$AA@
CONST	SEGMENT
??_C@_1M@KDJDKMDD@?$AAn?$AAb?$AA?9?$AAn?$AAo?$AA?$AA@ DB 'n', 00H, 'b', 00H
	DB	'-', 00H, 'n', 00H, 'o', 00H, 00H, 00H	; `string'
CONST	ENDS
;	COMDAT ??_C@_1M@PPDBCNFM@?$AAm?$AAt?$AA?9?$AAm?$AAt?$AA?$AA@
CONST	SEGMENT
??_C@_1M@PPDBCNFM@?$AAm?$AAt?$AA?9?$AAm?$AAt?$AA?$AA@ DB 'm', 00H, 't', 00H
	DB	'-', 00H, 'm', 00H, 't', 00H, 00H, 00H	; `string'
CONST	ENDS
;	COMDAT ??_C@_1M@OPIHOOPI@?$AAm?$AAs?$AA?9?$AAm?$AAy?$AA?$AA@
CONST	SEGMENT
??_C@_1M@OPIHOOPI@?$AAm?$AAs?$AA?9?$AAm?$AAy?$AA?$AA@ DB 'm', 00H, 's', 00H
	DB	'-', 00H, 'm', 00H, 'y', 00H, 00H, 00H	; `string'
CONST	ENDS
;	COMDAT ??_C@_1M@NDBPDDAL@?$AAm?$AAs?$AA?9?$AAb?$AAn?$AA?$AA@
CONST	SEGMENT
??_C@_1M@NDBPDDAL@?$AAm?$AAs?$AA?9?$AAb?$AAn?$AA?$AA@ DB 'm', 00H, 's', 00H
	DB	'-', 00H, 'b', 00H, 'n', 00H, 00H, 00H	; `string'
CONST	ENDS
;	COMDAT ??_C@_1M@FGBKKIPG@?$AAm?$AAr?$AA?9?$AAi?$AAn?$AA?$AA@
CONST	SEGMENT
??_C@_1M@FGBKKIPG@?$AAm?$AAr?$AA?9?$AAi?$AAn?$AA?$AA@ DB 'm', 00H, 'r', 00H
	DB	'-', 00H, 'i', 00H, 'n', 00H, 00H, 00H	; `string'
CONST	ENDS
;	COMDAT ??_C@_1M@PABJILIG@?$AAm?$AAn?$AA?9?$AAm?$AAn?$AA?$AA@
CONST	SEGMENT
??_C@_1M@PABJILIG@?$AAm?$AAn?$AA?9?$AAm?$AAn?$AA?$AA@ DB 'm', 00H, 'n', 00H
	DB	'-', 00H, 'm', 00H, 'n', 00H, 00H, 00H	; `string'
CONST	ENDS
;	COMDAT ??_C@_1M@GPHNBJKN@?$AAm?$AAl?$AA?9?$AAi?$AAn?$AA?$AA@
CONST	SEGMENT
??_C@_1M@GPHNBJKN@?$AAm?$AAl?$AA?9?$AAi?$AAn?$AA?$AA@ DB 'm', 00H, 'l', 00H
	DB	'-', 00H, 'i', 00H, 'n', 00H, 00H, 00H	; `string'
CONST	ENDS
;	COMDAT ??_C@_1M@CBOOLAPA@?$AAm?$AAk?$AA?9?$AAm?$AAk?$AA?$AA@
CONST	SEGMENT
??_C@_1M@CBOOLAPA@?$AAm?$AAk?$AA?9?$AAm?$AAk?$AA?$AA@ DB 'm', 00H, 'k', 00H
	DB	'-', 00H, 'm', 00H, 'k', 00H, 00H, 00H	; `string'
CONST	ENDS
;	COMDAT ??_C@_1M@ELCKCCJJ@?$AAm?$AAi?$AA?9?$AAn?$AAz?$AA?$AA@
CONST	SEGMENT
??_C@_1M@ELCKCCJJ@?$AAm?$AAi?$AA?9?$AAn?$AAz?$AA?$AA@ DB 'm', 00H, 'i', 00H
	DB	'-', 00H, 'n', 00H, 'z', 00H, 00H, 00H	; `string'
CONST	ENDS
;	COMDAT ??_C@_1M@BDEKKCA@?$AAl?$AAv?$AA?9?$AAl?$AAv?$AA?$AA@
CONST	SEGMENT
??_C@_1M@BDEKKCA@?$AAl?$AAv?$AA?9?$AAl?$AAv?$AA?$AA@ DB 'l', 00H, 'v', 00H
	DB	'-', 00H, 'l', 00H, 'v', 00H, 00H, 00H	; `string'
CONST	ENDS
;	COMDAT ??_C@_1M@KPMILCJG@?$AAl?$AAt?$AA?9?$AAl?$AAt?$AA?$AA@
CONST	SEGMENT
??_C@_1M@KPMILCJG@?$AAl?$AAt?$AA?9?$AAl?$AAt?$AA?$AA@ DB 'l', 00H, 't', 00H
	DB	'-', 00H, 'l', 00H, 't', 00H, 00H, 00H	; `string'
CONST	ENDS
;	COMDAT ??_C@_1M@HBAHBIGA@?$AAk?$AAy?$AA?9?$AAk?$AAg?$AA?$AA@
CONST	SEGMENT
??_C@_1M@HBAHBIGA@?$AAk?$AAy?$AA?9?$AAk?$AAg?$AA?$AA@ DB 'k', 00H, 'y', 00H
	DB	'-', 00H, 'k', 00H, 'g', 00H, 00H, 00H	; `string'
CONST	ENDS
;	COMDAT ??_C@_1M@DMHAEOGC@?$AAk?$AAo?$AA?9?$AAk?$AAr?$AA?$AA@
CONST	SEGMENT
??_C@_1M@DMHAEOGC@?$AAk?$AAo?$AA?9?$AAk?$AAr?$AA?$AA@ DB 'k', 00H, 'o', 00H
	DB	'-', 00H, 'k', 00H, 'r', 00H, 00H, 00H	; `string'
CONST	ENDS
;	COMDAT ??_C@_1O@IBBJHCH@?$AAk?$AAo?$AAk?$AA?9?$AAi?$AAn?$AA?$AA@
CONST	SEGMENT
??_C@_1O@IBBJHCH@?$AAk?$AAo?$AAk?$AA?9?$AAi?$AAn?$AA?$AA@ DB 'k', 00H, 'o'
	DB	00H, 'k', 00H, '-', 00H, 'i', 00H, 'n', 00H, 00H, 00H ; `string'
CONST	ENDS
;	COMDAT ??_C@_1M@IELFGMHA@?$AAk?$AAn?$AA?9?$AAi?$AAn?$AA?$AA@
CONST	SEGMENT
??_C@_1M@IELFGMHA@?$AAk?$AAn?$AA?9?$AAi?$AAn?$AA?$AA@ DB 'k', 00H, 'n', 00H
	DB	'-', 00H, 'i', 00H, 'n', 00H, 00H, 00H	; `string'
CONST	ENDS
;	COMDAT ??_C@_1M@PACPMGPH@?$AAk?$AAk?$AA?9?$AAk?$AAz?$AA?$AA@
CONST	SEGMENT
??_C@_1M@PACPMGPH@?$AAk?$AAk?$AA?9?$AAk?$AAz?$AA?$AA@ DB 'k', 00H, 'k', 00H
	DB	'-', 00H, 'k', 00H, 'z', 00H, 00H, 00H	; `string'
CONST	ENDS
;	COMDAT ??_C@_1M@JILFNBIM@?$AAk?$AAa?$AA?9?$AAg?$AAe?$AA?$AA@
CONST	SEGMENT
??_C@_1M@JILFNBIM@?$AAk?$AAa?$AA?9?$AAg?$AAe?$AA?$AA@ DB 'k', 00H, 'a', 00H
	DB	'-', 00H, 'g', 00H, 'e', 00H, 00H, 00H	; `string'
CONST	ENDS
;	COMDAT ??_C@_1M@NIEJCJJA@?$AAj?$AAa?$AA?9?$AAj?$AAp?$AA?$AA@
CONST	SEGMENT
??_C@_1M@NIEJCJJA@?$AAj?$AAa?$AA?9?$AAj?$AAp?$AA?$AA@ DB 'j', 00H, 'a', 00H
	DB	'-', 00H, 'j', 00H, 'p', 00H, 00H, 00H	; `string'
CONST	ENDS
;	COMDAT ??_C@_1M@GHKGFEDF@?$AAi?$AAt?$AA?9?$AAi?$AAt?$AA?$AA@
CONST	SEGMENT
??_C@_1M@GHKGFEDF@?$AAi?$AAt?$AA?9?$AAi?$AAt?$AA?$AA@ DB 'i', 00H, 't', 00H
	DB	'-', 00H, 'i', 00H, 't', 00H, 00H, 00H	; `string'
CONST	ENDS
;	COMDAT ??_C@_1M@NMPCJPHE@?$AAi?$AAt?$AA?9?$AAc?$AAh?$AA?$AA@
CONST	SEGMENT
??_C@_1M@NMPCJPHE@?$AAi?$AAt?$AA?9?$AAc?$AAh?$AA?$AA@ DB 'i', 00H, 't', 00H
	DB	'-', 00H, 'c', 00H, 'h', 00H, 00H, 00H	; `string'
CONST	ENDS
;	COMDAT ??_C@_1M@BIKNHHPF@?$AAi?$AAs?$AA?9?$AAi?$AAs?$AA?$AA@
CONST	SEGMENT
??_C@_1M@BIKNHHPF@?$AAi?$AAs?$AA?9?$AAi?$AAs?$AA?$AA@ DB 'i', 00H, 's', 00H
	DB	'-', 00H, 'i', 00H, 's', 00H, 00H, 00H	; `string'
CONST	ENDS
;	COMDAT ??_C@_1M@BABBICEC@?$AAi?$AAd?$AA?9?$AAi?$AAd?$AA?$AA@
CONST	SEGMENT
??_C@_1M@BABBICEC@?$AAi?$AAd?$AA?9?$AAi?$AAd?$AA?$AA@ DB 'i', 00H, 'd', 00H
	DB	'-', 00H, 'i', 00H, 'd', 00H, 00H, 00H	; `string'
CONST	ENDS
;	COMDAT ??_C@_1M@MILPAJJC@?$AAh?$AAy?$AA?9?$AAa?$AAm?$AA?$AA@
CONST	SEGMENT
??_C@_1M@MILPAJJC@?$AAh?$AAy?$AA?9?$AAa?$AAm?$AA?$AA@ DB 'h', 00H, 'y', 00H
	DB	'-', 00H, 'a', 00H, 'm', 00H, 00H, 00H	; `string'
CONST	ENDS
;	COMDAT ??_C@_1M@GACBMHKE@?$AAh?$AAu?$AA?9?$AAh?$AAu?$AA?$AA@
CONST	SEGMENT
??_C@_1M@GACBMHKE@?$AAh?$AAu?$AA?9?$AAh?$AAu?$AA?$AA@ DB 'h', 00H, 'u', 00H
	DB	'-', 00H, 'h', 00H, 'u', 00H, 00H, 00H	; `string'
CONST	ENDS
;	COMDAT ??_C@_1M@BPCKOEGE@?$AAh?$AAr?$AA?9?$AAh?$AAr?$AA?$AA@
CONST	SEGMENT
??_C@_1M@BPCKOEGE@?$AAh?$AAr?$AA?9?$AAh?$AAr?$AA?$AA@ DB 'h', 00H, 'r', 00H
	DB	'-', 00H, 'h', 00H, 'r', 00H, 00H, 00H	; `string'
CONST	ENDS
;	COMDAT ??_C@_1M@PMBNDPHD@?$AAh?$AAr?$AA?9?$AAb?$AAa?$AA?$AA@
CONST	SEGMENT
??_C@_1M@PMBNDPHD@?$AAh?$AAr?$AA?9?$AAb?$AAa?$AA?$AA@ DB 'h', 00H, 'r', 00H
	DB	'-', 00H, 'b', 00H, 'a', 00H, 00H, 00H	; `string'
CONST	ENDS
;	COMDAT ??_C@_1M@BBPHKFPJ@?$AAh?$AAi?$AA?9?$AAi?$AAn?$AA?$AA@
CONST	SEGMENT
??_C@_1M@BBPHKFPJ@?$AAh?$AAi?$AA?9?$AAi?$AAn?$AA?$AA@ DB 'h', 00H, 'i', 00H
	DB	'-', 00H, 'i', 00H, 'n', 00H, 00H, 00H	; `string'
CONST	ENDS
;	COMDAT ??_C@_1M@KBMCINPM@?$AAh?$AAe?$AA?9?$AAi?$AAl?$AA?$AA@
CONST	SEGMENT
??_C@_1M@KBMCINPM@?$AAh?$AAe?$AA?9?$AAi?$AAl?$AA?$AA@ DB 'h', 00H, 'e', 00H
	DB	'-', 00H, 'i', 00H, 'l', 00H, 00H, 00H	; `string'
CONST	ENDS
;	COMDAT ??_C@_1M@FOPBFLOO@?$AAg?$AAu?$AA?9?$AAi?$AAn?$AA?$AA@
CONST	SEGMENT
??_C@_1M@FOPBFLOO@?$AAg?$AAu?$AA?9?$AAi?$AAn?$AA?$AA@ DB 'g', 00H, 'u', 00H
	DB	'-', 00H, 'i', 00H, 'n', 00H, 00H, 00H	; `string'
CONST	ENDS
;	COMDAT ??_C@_1M@FAPLLOPF@?$AAg?$AAl?$AA?9?$AAe?$AAs?$AA?$AA@
CONST	SEGMENT
??_C@_1M@FAPLLOPF@?$AAg?$AAl?$AA?9?$AAe?$AAs?$AA?$AA@ DB 'g', 00H, 'l', 00H
	DB	'-', 00H, 'e', 00H, 's', 00H, 00H, 00H	; `string'
CONST	ENDS
;	COMDAT ??_C@_1M@EOHDJGDD@?$AAf?$AAr?$AA?9?$AAm?$AAc?$AA?$AA@
CONST	SEGMENT
??_C@_1M@EOHDJGDD@?$AAf?$AAr?$AA?9?$AAm?$AAc?$AA?$AA@ DB 'f', 00H, 'r', 00H
	DB	'-', 00H, 'm', 00H, 'c', 00H, 00H, 00H	; `string'
CONST	ENDS
;	COMDAT ??_C@_1M@PAFNENNF@?$AAf?$AAr?$AA?9?$AAl?$AAu?$AA?$AA@
CONST	SEGMENT
??_C@_1M@PAFNENNF@?$AAf?$AAr?$AA?9?$AAl?$AAu?$AA?$AA@ DB 'f', 00H, 'r', 00H
	DB	'-', 00H, 'l', 00H, 'u', 00H, 00H, 00H	; `string'
CONST	ENDS
;	COMDAT ___pobjMapEntryLast
ATL$__z	SEGMENT
___pobjMapEntryLast DD 00H
ATL$__z	ENDS
;	COMDAT ??_C@_1M@MMBBFGAK@?$AAf?$AAr?$AA?9?$AAf?$AAr?$AA?$AA@
CONST	SEGMENT
??_C@_1M@MMBBFGAK@?$AAf?$AAr?$AA?9?$AAf?$AAr?$AA?$AA@ DB 'f', 00H, 'r', 00H
	DB	'-', 00H, 'f', 00H, 'r', 00H, 00H, 00H	; `string'
CONST	ENDS
;	COMDAT ___pobjMapEntryFirst
ATL$__a	SEGMENT
___pobjMapEntryFirst DD 00H
ATL$__a	ENDS
;	COMDAT ??_C@_1M@KDHIHAEC@?$AAf?$AAr?$AA?9?$AAc?$AAh?$AA?$AA@
CONST	SEGMENT
??_C@_1M@KDHIHAEC@?$AAf?$AAr?$AA?9?$AAc?$AAh?$AA?$AA@ DB 'f', 00H, 'r', 00H
	DB	'-', 00H, 'c', 00H, 'h', 00H, 00H, 00H	; `string'
CONST	ENDS
;	COMDAT ??_C@_1M@NOHADPMI@?$AAf?$AAr?$AA?9?$AAc?$AAa?$AA?$AA@
CONST	SEGMENT
??_C@_1M@NOHADPMI@?$AAf?$AAr?$AA?9?$AAc?$AAa?$AA?$AA@ DB 'f', 00H, 'r', 00H
	DB	'-', 00H, 'c', 00H, 'a', 00H, 00H, 00H	; `string'
CONST	ENDS
;	COMDAT ??_C@_1M@JKEOHLDK@?$AAf?$AAr?$AA?9?$AAb?$AAe?$AA?$AA@
CONST	SEGMENT
??_C@_1M@JKEOHLDK@?$AAf?$AAr?$AA?9?$AAb?$AAe?$AA?$AA@ DB 'f', 00H, 'r', 00H
	DB	'-', 00H, 'b', 00H, 'e', 00H, 00H, 00H	; `string'
CONST	ENDS
;	COMDAT ??_C@_1M@LMDCNDBA@?$AAf?$AAo?$AA?9?$AAf?$AAo?$AA?$AA@
CONST	SEGMENT
??_C@_1M@LMDCNDBA@?$AAf?$AAo?$AA?9?$AAf?$AAo?$AA?$AA@ DB 'f', 00H, 'o', 00H
	DB	'-', 00H, 'f', 00H, 'o', 00H, 00H, 00H	; `string'
CONST	ENDS
;	COMDAT ??_C@_1M@JEEHPMIL@?$AAf?$AAi?$AA?9?$AAf?$AAi?$AA?$AA@
CONST	SEGMENT
??_C@_1M@JEEHPMIL@?$AAf?$AAi?$AA?9?$AAf?$AAi?$AA?$AA@ DB 'f', 00H, 'i', 00H
	DB	'-', 00H, 'f', 00H, 'i', 00H, 00H, 00H	; `string'
CONST	ENDS
;	COMDAT ??_C@_0O@MEOJAOKK@atlTraceCache?$AA@
CONST	SEGMENT
??_C@_0O@MEOJAOKK@atlTraceCache?$AA@ DB 'atlTraceCache', 00H ; `string'
CONST	ENDS
;	COMDAT ??_C@_1M@PBNONODE@?$AAf?$AAa?$AA?9?$AAi?$AAr?$AA?$AA@
CONST	SEGMENT
??_C@_1M@PBNONODE@?$AAf?$AAa?$AA?9?$AAi?$AAr?$AA?$AA@ DB 'f', 00H, 'a', 00H
	DB	'-', 00H, 'i', 00H, 'r', 00H, 00H, 00H	; `string'
CONST	ENDS
;	COMDAT ??_C@_1M@GHHLIKEI@?$AAe?$AAu?$AA?9?$AAe?$AAs?$AA?$AA@
CONST	SEGMENT
??_C@_1M@GHHLIKEI@?$AAe?$AAu?$AA?9?$AAe?$AAs?$AA?$AA@ DB 'e', 00H, 'u', 00H
	DB	'-', 00H, 'e', 00H, 's', 00H, 00H, 00H	; `string'
CONST	ENDS
;	COMDAT ??_C@_1M@PNMLOJDF@?$AAe?$AAt?$AA?9?$AAe?$AAe?$AA?$AA@
CONST	SEGMENT
??_C@_1M@PNMLOJDF@?$AAe?$AAt?$AA?9?$AAe?$AAe?$AA?$AA@ DB 'e', 00H, 't', 00H
	DB	'-', 00H, 'e', 00H, 'e', 00H, 00H, 00H	; `string'
CONST	ENDS
;	COMDAT ??_C@_1M@JKFFICHJ@?$AAe?$AAs?$AA?9?$AAv?$AAe?$AA?$AA@
CONST	SEGMENT
??_C@_1M@JKFFICHJ@?$AAe?$AAs?$AA?9?$AAv?$AAe?$AA?$AA@ DB 'e', 00H, 's', 00H
	DB	'-', 00H, 'v', 00H, 'e', 00H, 00H, 00H	; `string'
CONST	ENDS
;	COMDAT ??_C@_1M@GAOBIPA@?$AAe?$AAs?$AA?9?$AAu?$AAy?$AA?$AA@
CONST	SEGMENT
??_C@_1M@GAOBIPA@?$AAe?$AAs?$AA?9?$AAu?$AAy?$AA?$AA@ DB 'e', 00H, 's', 00H
	DB	'-', 00H, 'u', 00H, 'y', 00H, 00H, 00H	; `string'
CONST	ENDS
;	COMDAT ??_C@_1M@IIDEOLLL@?$AAe?$AAs?$AA?9?$AAs?$AAv?$AA?$AA@
CONST	SEGMENT
??_C@_1M@IIDEOLLL@?$AAe?$AAs?$AA?9?$AAs?$AAv?$AA?$AA@ DB 'e', 00H, 's', 00H
	DB	'-', 00H, 's', 00H, 'v', 00H, 00H, 00H	; `string'
CONST	ENDS
;	COMDAT ??_C@_1M@FGMDIJED@?$AAe?$AAs?$AA?9?$AAp?$AAy?$AA?$AA@
CONST	SEGMENT
??_C@_1M@FGMDIJED@?$AAe?$AAs?$AA?9?$AAp?$AAy?$AA?$AA@ DB 'e', 00H, 's', 00H
	DB	'-', 00H, 'p', 00H, 'y', 00H, 00H, 00H	; `string'
CONST	ENDS
;	COMDAT ??_C@_1M@IBMCAOEC@?$AAe?$AAs?$AA?9?$AAp?$AAr?$AA?$AA@
CONST	SEGMENT
??_C@_1M@IBMCAOEC@?$AAe?$AAs?$AA?9?$AAp?$AAr?$AA?$AA@ DB 'e', 00H, 's', 00H
	DB	'-', 00H, 'p', 00H, 'r', 00H, 00H, 00H	; `string'
CONST	ENDS
;	COMDAT ??_C@_1M@EMAMGBGE@?$AAe?$AAs?$AA?9?$AAp?$AAe?$AA?$AA@
CONST	SEGMENT
??_C@_1M@EMAMGBGE@?$AAe?$AAs?$AA?9?$AAp?$AAe?$AA?$AA@ DB 'e', 00H, 's', 00H
	DB	'-', 00H, 'p', 00H, 'e', 00H, 00H, 00H	; `string'
CONST	ENDS
;	COMDAT ??_C@_1M@MDGOPGDD@?$AAe?$AAs?$AA?9?$AAp?$AAa?$AA?$AA@
CONST	SEGMENT
??_C@_1M@MDGOPGDD@?$AAe?$AAs?$AA?9?$AAp?$AAa?$AA?$AA@ DB 'e', 00H, 's', 00H
	DB	'-', 00H, 'p', 00H, 'a', 00H, 00H, 00H	; `string'
CONST	ENDS
;	COMDAT ??_C@_1M@DPAGLNDH@?$AAe?$AAs?$AA?9?$AAn?$AAi?$AA?$AA@
CONST	SEGMENT
??_C@_1M@DPAGLNDH@?$AAe?$AAs?$AA?9?$AAn?$AAi?$AA?$AA@ DB 'e', 00H, 's', 00H
	DB	'-', 00H, 'n', 00H, 'i', 00H, 00H, 00H	; `string'
CONST	ENDS
;	COMDAT ??_C@_1M@FBDHPPGD@?$AAe?$AAs?$AA?9?$AAm?$AAx?$AA?$AA@
CONST	SEGMENT
??_C@_1M@FBDHPPGD@?$AAe?$AAs?$AA?9?$AAm?$AAx?$AA?$AA@ DB 'e', 00H, 's', 00H
	DB	'-', 00H, 'm', 00H, 'x', 00H, 00H, 00H	; `string'
CONST	ENDS
;	COMDAT ??_C@_1M@HEIIGGJD@?$AAe?$AAs?$AA?9?$AAh?$AAn?$AA?$AA@
CONST	SEGMENT
??_C@_1M@HEIIGGJD@?$AAe?$AAs?$AA?9?$AAh?$AAn?$AA?$AA@ DB 'e', 00H, 's', 00H
	DB	'-', 00H, 'h', 00H, 'n', 00H, 00H, 00H	; `string'
CONST	ENDS
;	COMDAT ??_C@_1M@LKHKGDLN@?$AAe?$AAs?$AA?9?$AAg?$AAt?$AA?$AA@
CONST	SEGMENT
??_C@_1M@LKHKGDLN@?$AAe?$AAs?$AA?9?$AAg?$AAt?$AA?$AA@ DB 'e', 00H, 's', 00H
	DB	'-', 00H, 'g', 00H, 't', 00H, 00H, 00H	; `string'
CONST	ENDS
;	COMDAT ??_C@_1M@GKGFPKAP@?$AAe?$AAs?$AA?9?$AAe?$AAs?$AA?$AA@
CONST	SEGMENT
??_C@_1M@GKGFPKAP@?$AAe?$AAs?$AA?9?$AAe?$AAs?$AA?$AA@ DB 'e', 00H, 's', 00H
	DB	'-', 00H, 'e', 00H, 's', 00H, 00H, 00H	; `string'
CONST	ENDS
;	COMDAT ??_C@_1M@DKHMKNJA@?$AAe?$AAs?$AA?9?$AAe?$AAc?$AA?$AA@
CONST	SEGMENT
??_C@_1M@DKHMKNJA@?$AAe?$AAs?$AA?9?$AAe?$AAc?$AA?$AA@ DB 'e', 00H, 's', 00H
	DB	'-', 00H, 'e', 00H, 'c', 00H, 00H, 00H	; `string'
CONST	ENDS
;	COMDAT ??_C@_1M@LLPGMBIN@?$AAe?$AAs?$AA?9?$AAd?$AAo?$AA?$AA@
CONST	SEGMENT
??_C@_1M@LLPGMBIN@?$AAe?$AAs?$AA?9?$AAd?$AAo?$AA?$AA@ DB 'e', 00H, 's', 00H
	DB	'-', 00H, 'd', 00H, 'o', 00H, 00H, 00H	; `string'
CONST	ENDS
;	COMDAT ??_C@_1M@EIAHOHH@?$AAe?$AAs?$AA?9?$AAc?$AAr?$AA?$AA@
CONST	SEGMENT
??_C@_1M@EIAHOHH@?$AAe?$AAs?$AA?9?$AAc?$AAr?$AA?$AA@ DB 'e', 00H, 's', 00H
	DB	'-', 00H, 'c', 00H, 'r', 00H, 00H, 00H	; `string'
CONST	ENDS
;	COMDAT ??_C@_1M@KGPDPBDF@?$AAe?$AAs?$AA?9?$AAc?$AAo?$AA?$AA@
CONST	SEGMENT
??_C@_1M@KGPDPBDF@?$AAe?$AAs?$AA?9?$AAc?$AAo?$AA?$AA@ DB 'e', 00H, 's', 00H
	DB	'-', 00H, 'c', 00H, 'o', 00H, 00H, 00H	; `string'
CONST	ENDS
;	COMDAT ??_C@_1M@LEEGFONL@?$AAe?$AAs?$AA?9?$AAc?$AAl?$AA?$AA@
CONST	SEGMENT
??_C@_1M@LEEGFONL@?$AAe?$AAs?$AA?9?$AAc?$AAl?$AA?$AA@ DB 'e', 00H, 's', 00H
	DB	'-', 00H, 'c', 00H, 'l', 00H, 00H, 00H	; `string'
CONST	ENDS
;	COMDAT ??_C@_1M@GNKPCCJA@?$AAe?$AAs?$AA?9?$AAb?$AAo?$AA?$AA@
CONST	SEGMENT
??_C@_1M@GNKPCCJA@?$AAe?$AAs?$AA?9?$AAb?$AAo?$AA?$AA@ DB 'e', 00H, 's', 00H
	DB	'-', 00H, 'b', 00H, 'o', 00H, 00H, 00H	; `string'
CONST	ENDS
;	COMDAT ??_C@_1M@EJEINPHM@?$AAe?$AAs?$AA?9?$AAa?$AAr?$AA?$AA@
CONST	SEGMENT
??_C@_1M@EJEINPHM@?$AAe?$AAs?$AA?9?$AAa?$AAr?$AA?$AA@ DB 'e', 00H, 's', 00H
	DB	'-', 00H, 'a', 00H, 'r', 00H, 00H, 00H	; `string'
CONST	ENDS
;	COMDAT ??_C@_1M@MFNHNHEO@?$AAe?$AAn?$AA?9?$AAz?$AAw?$AA?$AA@
CONST	SEGMENT
??_C@_1M@MFNHNHEO@?$AAe?$AAn?$AA?9?$AAz?$AAw?$AA?$AA@ DB 'e', 00H, 'n', 00H
	DB	'-', 00H, 'z', 00H, 'w', 00H, 00H, 00H	; `string'
CONST	ENDS
;	COMDAT ??_C@_1M@LAKFNPAN@?$AAe?$AAn?$AA?9?$AAz?$AAa?$AA?$AA@
CONST	SEGMENT
??_C@_1M@LAKFNPAN@?$AAe?$AAn?$AA?9?$AAz?$AAa?$AA?$AA@ DB 'e', 00H, 'n', 00H
	DB	'-', 00H, 'z', 00H, 'a', 00H, 00H, 00H	; `string'
CONST	ENDS
;	COMDAT ??_C@_1M@LLODPCMM@?$AAe?$AAn?$AA?9?$AAu?$AAs?$AA?$AA@
CONST	SEGMENT
??_C@_1M@LLODPCMM@?$AAe?$AAn?$AA?9?$AAu?$AAs?$AA?$AA@ DB 'e', 00H, 'n', 00H
	DB	'-', 00H, 'u', 00H, 's', 00H, 00H, 00H	; `string'
CONST	ENDS
;	COMDAT ??_C@_1M@ONGIBJNA@?$AAe?$AAn?$AA?9?$AAt?$AAt?$AA?$AA@
CONST	SEGMENT
??_C@_1M@ONGIBJNA@?$AAe?$AAn?$AA?9?$AAt?$AAt?$AA?$AA@ DB 'e', 00H, 'n', 00H
	DB	'-', 00H, 't', 00H, 't', 00H, 00H, 00H	; `string'
CONST	ENDS
;	COMDAT ??_C@_1M@GMDGLDOB@?$AAe?$AAn?$AA?9?$AAp?$AAh?$AA?$AA@
CONST	SEGMENT
??_C@_1M@GMDGLDOB@?$AAe?$AAn?$AA?9?$AAp?$AAh?$AA?$AA@ DB 'e', 00H, 'n', 00H
	DB	'-', 00H, 'p', 00H, 'h', 00H, 00H, 00H	; `string'
CONST	ENDS
;	COMDAT ??_C@_1M@KPPKEPBO@?$AAe?$AAn?$AA?9?$AAn?$AAz?$AA?$AA@
CONST	SEGMENT
??_C@_1M@KPPKEPBO@?$AAe?$AAn?$AA?9?$AAn?$AAz?$AA?$AA@ DB 'e', 00H, 'n', 00H
	DB	'-', 00H, 'n', 00H, 'z', 00H, 00H, 00H	; `string'
CONST	ENDS
;	COMDAT ??_C@_1M@PJKFGCCO@?$AAe?$AAn?$AA?9?$AAj?$AAm?$AA?$AA@
CONST	SEGMENT
??_C@_1M@PJKFGCCO@?$AAe?$AAn?$AA?9?$AAj?$AAm?$AA?$AA@ DB 'e', 00H, 'n', 00H
	DB	'-', 00H, 'j', 00H, 'm', 00H, 00H, 00H	; `string'
CONST	ENDS
;	COMDAT ??_C@_1M@LKIFDIGP@?$AAe?$AAn?$AA?9?$AAi?$AAe?$AA?$AA@
CONST	SEGMENT
??_C@_1M@LKIFDIGP@?$AAe?$AAn?$AA?9?$AAi?$AAe?$AA?$AA@ DB 'e', 00H, 'n', 00H
	DB	'-', 00H, 'i', 00H, 'e', 00H, 00H, 00H	; `string'
CONST	ENDS
;	COMDAT ??_C@_1M@BNFIGBKG@?$AAe?$AAn?$AA?9?$AAg?$AAb?$AA?$AA@
CONST	SEGMENT
??_C@_1M@BNFIGBKG@?$AAe?$AAn?$AA?9?$AAg?$AAb?$AA?$AA@ DB 'e', 00H, 'n', 00H
	DB	'-', 00H, 'g', 00H, 'b', 00H, 00H, 00H	; `string'
CONST	ENDS
;	COMDAT ??_C@_1M@IGMJCDLA@?$AAe?$AAn?$AA?9?$AAc?$AAb?$AA?$AA@
CONST	SEGMENT
??_C@_1M@IGMJCDLA@?$AAe?$AAn?$AA?9?$AAc?$AAb?$AA?$AA@ DB 'e', 00H, 'n', 00H
	DB	'-', 00H, 'c', 00H, 'b', 00H, 00H, 00H	; `string'
CONST	ENDS
;	COMDAT ??_C@_1M@JEHMIMFO@?$AAe?$AAn?$AA?9?$AAc?$AAa?$AA?$AA@
CONST	SEGMENT
??_C@_1M@JEHMIMFO@?$AAe?$AAn?$AA?9?$AAc?$AAa?$AA?$AA@ DB 'e', 00H, 'n', 00H
	DB	'-', 00H, 'c', 00H, 'a', 00H, 00H, 00H	; `string'
CONST	ENDS
;	COMDAT ??_C@_1M@NIDIIPGF@?$AAe?$AAn?$AA?9?$AAb?$AAz?$AA?$AA@
CONST	SEGMENT
??_C@_1M@NIDIIPGF@?$AAe?$AAn?$AA?9?$AAb?$AAz?$AA?$AA@ DB 'e', 00H, 'n', 00H
	DB	'-', 00H, 'b', 00H, 'z', 00H, 00H, 00H	; `string'
CONST	ENDS
;	COMDAT ??_C@_1M@GMPONJN@?$AAe?$AAn?$AA?9?$AAa?$AAu?$AA?$AA@
CONST	SEGMENT
??_C@_1M@GMPONJN@?$AAe?$AAn?$AA?9?$AAa?$AAu?$AA?$AA@ DB 'e', 00H, 'n', 00H
	DB	'-', 00H, 'a', 00H, 'u', 00H, 00H, 00H	; `string'
CONST	ENDS
;	COMDAT ??_C@_1M@EJLEOGAE@?$AAe?$AAl?$AA?9?$AAg?$AAr?$AA?$AA@
CONST	SEGMENT
??_C@_1M@EJLEOGAE@?$AAe?$AAl?$AA?9?$AAg?$AAr?$AA?$AA@ DB 'e', 00H, 'l', 00H
	DB	'-', 00H, 'g', 00H, 'r', 00H, 00H, 00H	; `string'
CONST	ENDS
;	COMDAT ??_C@_1O@GNNELBAP@?$AAd?$AAi?$AAv?$AA?9?$AAm?$AAv?$AA?$AA@
CONST	SEGMENT
??_C@_1O@GNNELBAP@?$AAd?$AAi?$AAv?$AA?9?$AAm?$AAv?$AA?$AA@ DB 'd', 00H, 'i'
	DB	00H, 'v', 00H, '-', 00H, 'm', 00H, 'v', 00H, 00H, 00H ; `string'
CONST	ENDS
;	COMDAT ??_C@_1M@NJBEEJNL@?$AAd?$AAe?$AA?9?$AAl?$AAu?$AA?$AA@
CONST	SEGMENT
??_C@_1M@NJBEEJNL@?$AAd?$AAe?$AA?9?$AAl?$AAu?$AA?$AA@ DB 'd', 00H, 'e', 00H
	DB	'-', 00H, 'l', 00H, 'u', 00H, 00H, 00H	; `string'
CONST	ENDS
;	COMDAT ??_C@_1M@MDNLKBPM@?$AAd?$AAe?$AA?9?$AAl?$AAi?$AA?$AA@
CONST	SEGMENT
??_C@_1M@MDNLKBPM@?$AAd?$AAe?$AA?9?$AAl?$AAi?$AA?$AA@ DB 'd', 00H, 'e', 00H
	DB	'-', 00H, 'l', 00H, 'i', 00H, 00H, 00H	; `string'
CONST	ENDS
;	COMDAT ??_C@_1M@GFFOJMCJ@?$AAd?$AAe?$AA?9?$AAd?$AAe?$AA?$AA@
CONST	SEGMENT
??_C@_1M@GFFOJMCJ@?$AAd?$AAe?$AA?9?$AAd?$AAe?$AA?$AA@ DB 'd', 00H, 'e', 00H
	DB	'-', 00H, 'd', 00H, 'e', 00H, 00H, 00H	; `string'
CONST	ENDS
;	COMDAT ??_C@_1M@IKDBHEEM@?$AAd?$AAe?$AA?9?$AAc?$AAh?$AA?$AA@
CONST	SEGMENT
??_C@_1M@IKDBHEEM@?$AAd?$AAe?$AA?9?$AAc?$AAh?$AA?$AA@ DB 'd', 00H, 'e', 00H
	DB	'-', 00H, 'c', 00H, 'h', 00H, 00H, 00H	; `string'
CONST	ENDS
;	COMDAT ??_C@_1M@NNDGDNGA@?$AAd?$AAe?$AA?9?$AAa?$AAt?$AA?$AA@
CONST	SEGMENT
??_C@_1M@NNDGDNGA@?$AAd?$AAe?$AA?9?$AAa?$AAt?$AA?$AA@ DB 'd', 00H, 'e', 00H
	DB	'-', 00H, 'a', 00H, 't', 00H, 00H, 00H	; `string'
CONST	ENDS
;	COMDAT ??_C@_1M@IMGKELGA@?$AAd?$AAa?$AA?9?$AAd?$AAk?$AA?$AA@
CONST	SEGMENT
??_C@_1M@IMGKELGA@?$AAd?$AAa?$AA?9?$AAd?$AAk?$AA?$AA@ DB 'd', 00H, 'a', 00H
	DB	'-', 00H, 'd', 00H, 'k', 00H, 00H, 00H	; `string'
CONST	ENDS
;	COMDAT ??_C@_1M@DHBHFONH@?$AAc?$AAy?$AA?9?$AAg?$AAb?$AA?$AA@
CONST	SEGMENT
??_C@_1M@DHBHFONH@?$AAc?$AAy?$AA?9?$AAg?$AAb?$AA?$AA@ DB 'c', 00H, 'y', 00H
	DB	'-', 00H, 'g', 00H, 'b', 00H, 00H, 00H	; `string'
CONST	ENDS
;	COMDAT ??_C@_1M@COAJPDHI@?$AAc?$AAs?$AA?9?$AAc?$AAz?$AA?$AA@
CONST	SEGMENT
??_C@_1M@COAJPDHI@?$AAc?$AAs?$AA?9?$AAc?$AAz?$AA?$AA@ DB 'c', 00H, 's', 00H
	DB	'-', 00H, 'c', 00H, 'z', 00H, 00H, 00H	; `string'
CONST	ENDS
;	COMDAT ??_C@_1M@KGADAODK@?$AAc?$AAa?$AA?9?$AAe?$AAs?$AA?$AA@
CONST	SEGMENT
??_C@_1M@KGADAODK@?$AAc?$AAa?$AA?9?$AAe?$AAs?$AA?$AA@ DB 'c', 00H, 'a', 00H
	DB	'-', 00H, 'e', 00H, 's', 00H, 00H, 00H	; `string'
CONST	ENDS
;	COMDAT ??_C@_1BG@EAKMMACD@?$AAb?$AAs?$AA?9?$AAb?$AAa?$AA?9?$AAl?$AAa?$AAt?$AAn?$AA?$AA@
CONST	SEGMENT
??_C@_1BG@EAKMMACD@?$AAb?$AAs?$AA?9?$AAb?$AAa?$AA?9?$AAl?$AAa?$AAt?$AAn?$AA?$AA@ DB 'b'
	DB	00H, 's', 00H, '-', 00H, 'b', 00H, 'a', 00H, '-', 00H, 'l', 00H
	DB	'a', 00H, 't', 00H, 'n', 00H, 00H, 00H	; `string'
CONST	ENDS
;	COMDAT ??_C@_0N@BNNILHBE@atlTraceTime?$AA@
CONST	SEGMENT
??_C@_0N@BNNILHBE@atlTraceTime?$AA@ DB 'atlTraceTime', 00H ; `string'
CONST	ENDS
;	COMDAT ??_C@_1M@BJBMFGOB@?$AAb?$AAn?$AA?9?$AAi?$AAn?$AA?$AA@
CONST	SEGMENT
??_C@_1M@BJBMFGOB@?$AAb?$AAn?$AA?9?$AAi?$AAn?$AA?$AA@ DB 'b', 00H, 'n', 00H
	DB	'-', 00H, 'i', 00H, 'n', 00H, 00H, 00H	; `string'
CONST	ENDS
;	COMDAT ??_C@_1M@PCMGMCGC@?$AAb?$AAg?$AA?9?$AAb?$AAg?$AA?$AA@
CONST	SEGMENT
??_C@_1M@PCMGMCGC@?$AAb?$AAg?$AA?9?$AAb?$AAg?$AA?$AA@ DB 'b', 00H, 'g', 00H
	DB	'-', 00H, 'b', 00H, 'g', 00H, 00H, 00H	; `string'
CONST	ENDS
;	COMDAT ??_C@_1M@EGPFDCPD@?$AAb?$AAe?$AA?9?$AAb?$AAy?$AA?$AA@
CONST	SEGMENT
??_C@_1M@EGPFDCPD@?$AAb?$AAe?$AA?9?$AAb?$AAy?$AA?$AA@ DB 'b', 00H, 'e', 00H
	DB	'-', 00H, 'b', 00H, 'y', 00H, 00H, 00H	; `string'
CONST	ENDS
;	COMDAT ??_C@_1BG@IBCKDDOE@?$AAa?$AAz?$AA?9?$AAa?$AAz?$AA?9?$AAl?$AAa?$AAt?$AAn?$AA?$AA@
CONST	SEGMENT
??_C@_1BG@IBCKDDOE@?$AAa?$AAz?$AA?9?$AAa?$AAz?$AA?9?$AAl?$AAa?$AAt?$AAn?$AA?$AA@ DB 'a'
	DB	00H, 'z', 00H, '-', 00H, 'a', 00H, 'z', 00H, '-', 00H, 'l', 00H
	DB	'a', 00H, 't', 00H, 'n', 00H, 00H, 00H	; `string'
CONST	ENDS
;	COMDAT ??_C@_1BG@KDCPGJGB@?$AAa?$AAz?$AA?9?$AAa?$AAz?$AA?9?$AAc?$AAy?$AAr?$AAl?$AA?$AA@
CONST	SEGMENT
??_C@_1BG@KDCPGJGB@?$AAa?$AAz?$AA?9?$AAa?$AAz?$AA?9?$AAc?$AAy?$AAr?$AAl?$AA?$AA@ DB 'a'
	DB	00H, 'z', 00H, '-', 00H, 'a', 00H, 'z', 00H, '-', 00H, 'c', 00H
	DB	'y', 00H, 'r', 00H, 'l', 00H, 00H, 00H	; `string'
CONST	ENDS
;	COMDAT ??_C@_1M@IHMHGAON@?$AAa?$AAr?$AA?9?$AAy?$AAe?$AA?$AA@
CONST	SEGMENT
??_C@_1M@IHMHGAON@?$AAa?$AAr?$AA?9?$AAy?$AAe?$AA?$AA@ DB 'a', 00H, 'r', 00H
	DB	'-', 00H, 'y', 00H, 'e', 00H, 00H, 00H	; `string'
CONST	ENDS
;	COMDAT ??_C@_1M@OMFIPEDC@?$AAa?$AAr?$AA?9?$AAt?$AAn?$AA?$AA@
CONST	SEGMENT
??_C@_1M@OMFIPEDC@?$AAa?$AAr?$AA?9?$AAt?$AAn?$AA?$AA@ DB 'a', 00H, 'r', 00H
	DB	'-', 00H, 't', 00H, 'n', 00H, 00H, 00H	; `string'
CONST	ENDS
;	COMDAT ??_C@_1M@DMJDKLKM@?$AAa?$AAr?$AA?9?$AAs?$AAy?$AA?$AA@
CONST	SEGMENT
??_C@_1M@DMJDKLKM@?$AAa?$AAr?$AA?9?$AAs?$AAy?$AA?$AA@ DB 'a', 00H, 'r', 00H
	DB	'-', 00H, 's', 00H, 'y', 00H, 00H, 00H	; `string'
CONST	ENDS
;	COMDAT ??_C@_1M@KJDONENM@?$AAa?$AAr?$AA?9?$AAs?$AAa?$AA?$AA@
CONST	SEGMENT
??_C@_1M@KJDONENM@?$AAa?$AAr?$AA?9?$AAs?$AAa?$AA?$AA@ DB 'a', 00H, 'r', 00H
	DB	'-', 00H, 's', 00H, 'a', 00H, 00H, 00H	; `string'
CONST	ENDS
;	COMDAT ??_C@_1M@OEPGHFNH@?$AAa?$AAr?$AA?9?$AAq?$AAa?$AA?$AA@
CONST	SEGMENT
??_C@_1M@OEPGHFNH@?$AAa?$AAr?$AA?9?$AAq?$AAa?$AA?$AA@ DB 'a', 00H, 'r', 00H
	DB	'-', 00H, 'q', 00H, 'a', 00H, 00H, 00H	; `string'
CONST	ENDS
;	COMDAT ??_C@_1M@JHPMKJIE@?$AAa?$AAr?$AA?9?$AAo?$AAm?$AA?$AA@
CONST	SEGMENT
??_C@_1M@JHPMKJIE@?$AAa?$AAr?$AA?9?$AAo?$AAm?$AA?$AA@ DB 'a', 00H, 'r', 00H
	DB	'-', 00H, 'o', 00H, 'm', 00H, 00H, 00H	; `string'
CONST	ENDS
;	COMDAT ??_C@_1M@JAOCLHDH@?$AAa?$AAr?$AA?9?$AAm?$AAa?$AA?$AA@
CONST	SEGMENT
??_C@_1M@JAOCLHDH@?$AAa?$AAr?$AA?9?$AAm?$AAa?$AA?$AA@ DB 'a', 00H, 'r', 00H
	DB	'-', 00H, 'm', 00H, 'a', 00H, 00H, 00H	; `string'
CONST	ENDS
;	COMDAT ??_C@_1M@MOBDBLOC@?$AAa?$AAr?$AA?9?$AAl?$AAy?$AA?$AA@
CONST	SEGMENT
??_C@_1M@MOBDBLOC@?$AAa?$AAr?$AA?9?$AAl?$AAy?$AA?$AA@ DB 'a', 00H, 'r', 00H
	DB	'-', 00H, 'l', 00H, 'y', 00H, 00H, 00H	; `string'
CONST	ENDS
;	COMDAT ??_C@_1M@EJALMLHM@?$AAa?$AAr?$AA?9?$AAl?$AAb?$AA?$AA@
CONST	SEGMENT
??_C@_1M@EJALMLHM@?$AAa?$AAr?$AA?9?$AAl?$AAb?$AA?$AA@ DB 'a', 00H, 'r', 00H
	DB	'-', 00H, 'l', 00H, 'b', 00H, 00H, 00H	; `string'
CONST	ENDS
;	COMDAT ??_C@_1M@DDMJFMGJ@?$AAa?$AAr?$AA?9?$AAk?$AAw?$AA?$AA@
CONST	SEGMENT
??_C@_1M@DDMJFMGJ@?$AAa?$AAr?$AA?9?$AAk?$AAw?$AA?$AA@ DB 'a', 00H, 'r', 00H
	DB	'-', 00H, 'k', 00H, 'w', 00H, 00H, 00H	; `string'
CONST	ENDS
;	COMDAT ??_C@_1M@GNDIPALM@?$AAa?$AAr?$AA?9?$AAj?$AAo?$AA?$AA@
CONST	SEGMENT
??_C@_1M@GNDIPALM@?$AAa?$AAr?$AA?9?$AAj?$AAo?$AA?$AA@ DB 'a', 00H, 'r', 00H
	DB	'-', 00H, 'j', 00H, 'o', 00H, 00H, 00H	; `string'
CONST	ENDS
;	COMDAT ??_C@_1M@FLGKKCLO@?$AAa?$AAr?$AA?9?$AAi?$AAq?$AA?$AA@
CONST	SEGMENT
??_C@_1M@FLGKKCLO@?$AAa?$AAr?$AA?9?$AAi?$AAq?$AA?$AA@ DB 'a', 00H, 'r', 00H
	DB	'-', 00H, 'i', 00H, 'q', 00H, 00H, 00H	; `string'
CONST	ENDS
;	COMDAT ??_C@_1M@FJNKGKIG@?$AAa?$AAr?$AA?9?$AAe?$AAg?$AA?$AA@
CONST	SEGMENT
??_C@_1M@FJNKGKIG@?$AAa?$AAr?$AA?9?$AAe?$AAg?$AA?$AA@ DB 'a', 00H, 'r', 00H
	DB	'-', 00H, 'e', 00H, 'g', 00H, 00H, 00H	; `string'
CONST	ENDS
;	COMDAT ??_C@_1M@DAPFDGGB@?$AAa?$AAr?$AA?9?$AAd?$AAz?$AA?$AA@
CONST	SEGMENT
??_C@_1M@DAPFDGGB@?$AAa?$AAr?$AA?9?$AAd?$AAz?$AA?$AA@ DB 'a', 00H, 'r', 00H
	DB	'-', 00H, 'd', 00H, 'z', 00H, 00H, 00H	; `string'
CONST	ENDS
;	COMDAT ??_C@_1M@BMLMEKGI@?$AAa?$AAr?$AA?9?$AAb?$AAh?$AA?$AA@
CONST	SEGMENT
??_C@_1M@BMLMEKGI@?$AAa?$AAr?$AA?9?$AAb?$AAh?$AA?$AA@ DB 'a', 00H, 'r', 00H
	DB	'-', 00H, 'b', 00H, 'h', 00H, 00H, 00H	; `string'
CONST	ENDS
;	COMDAT ??_C@_1M@GIECOABL@?$AAa?$AAr?$AA?9?$AAa?$AAe?$AA?$AA@
CONST	SEGMENT
??_C@_1M@GIECOABL@?$AAa?$AAr?$AA?9?$AAa?$AAe?$AA?$AA@ DB 'a', 00H, 'r', 00H
	DB	'-', 00H, 'a', 00H, 'e', 00H, 00H, 00H	; `string'
CONST	ENDS
;	COMDAT ??_C@_1M@KAHEKEIG@?$AAa?$AAf?$AA?9?$AAz?$AAa?$AA?$AA@
CONST	SEGMENT
??_C@_1M@KAHEKEIG@?$AAa?$AAf?$AA?9?$AAz?$AAa?$AA?$AA@ DB 'a', 00H, 'f', 00H
	DB	'-', 00H, 'z', 00H, 'a', 00H, 00H, 00H	; `string'
CONST	ENDS
;	COMDAT __pAtlLocaleNameToIndexTable
CONST	SEGMENT
__pAtlLocaleNameToIndexTable DD FLAT:??_C@_11LOCGONAA@?$AA?$AA@
	DD	042H
	DD	FLAT:??_C@_15JDNICKHM@?$AAa?$AAf?$AA?$AA@
	DD	02cH
	DD	FLAT:??_C@_1M@KAHEKEIG@?$AAa?$AAf?$AA?9?$AAz?$AAa?$AA?$AA@
	DD	071H
	DD	FLAT:??_C@_15EMKDOKLE@?$AAa?$AAr?$AA?$AA@
	DD	00H
	DD	FLAT:??_C@_1M@GIECOABL@?$AAa?$AAr?$AA?9?$AAa?$AAe?$AA?$AA@
	DD	0d8H
	DD	FLAT:??_C@_1M@BMLMEKGI@?$AAa?$AAr?$AA?9?$AAb?$AAh?$AA?$AA@
	DD	0daH
	DD	FLAT:??_C@_1M@DAPFDGGB@?$AAa?$AAr?$AA?9?$AAd?$AAz?$AA?$AA@
	DD	0b1H
	DD	FLAT:??_C@_1M@FJNKGKIG@?$AAa?$AAr?$AA?9?$AAe?$AAg?$AA?$AA@
	DD	0a0H
	DD	FLAT:??_C@_1M@FLGKKCLO@?$AAa?$AAr?$AA?9?$AAi?$AAq?$AA?$AA@
	DD	08fH
	DD	FLAT:??_C@_1M@GNDIPALM@?$AAa?$AAr?$AA?9?$AAj?$AAo?$AA?$AA@
	DD	0cfH
	DD	FLAT:??_C@_1M@DDMJFMGJ@?$AAa?$AAr?$AA?9?$AAk?$AAw?$AA?$AA@
	DD	0d5H
	DD	FLAT:??_C@_1M@EJALMLHM@?$AAa?$AAr?$AA?9?$AAl?$AAb?$AA?$AA@
	DD	0d2H
	DD	FLAT:??_C@_1M@MOBDBLOC@?$AAa?$AAr?$AA?9?$AAl?$AAy?$AA?$AA@
	DD	0a9H
	DD	FLAT:??_C@_1M@JAOCLHDH@?$AAa?$AAr?$AA?9?$AAm?$AAa?$AA?$AA@
	DD	0b9H
	DD	FLAT:??_C@_1M@JHPMKJIE@?$AAa?$AAr?$AA?9?$AAo?$AAm?$AA?$AA@
	DD	0c4H
	DD	FLAT:??_C@_1M@OEPGHFNH@?$AAa?$AAr?$AA?9?$AAq?$AAa?$AA?$AA@
	DD	0dcH
	DD	FLAT:??_C@_1M@KJDONENM@?$AAa?$AAr?$AA?9?$AAs?$AAa?$AA?$AA@
	DD	043H
	DD	FLAT:??_C@_1M@DMJDKLKM@?$AAa?$AAr?$AA?9?$AAs?$AAy?$AA?$AA@
	DD	0ccH
	DD	FLAT:??_C@_1M@OMFIPEDC@?$AAa?$AAr?$AA?9?$AAt?$AAn?$AA?$AA@
	DD	0bfH
	DD	FLAT:??_C@_1M@IHMHGAON@?$AAa?$AAr?$AA?9?$AAy?$AAe?$AA?$AA@
	DD	0c8H
	DD	FLAT:??_C@_15IJBHMCFL@?$AAa?$AAz?$AA?$AA@
	DD	029H
	DD	FLAT:??_C@_1BG@KDCPGJGB@?$AAa?$AAz?$AA?9?$AAa?$AAz?$AA?9?$AAc?$AAy?$AAr?$AAl?$AA?$AA@
	DD	09bH
	DD	FLAT:??_C@_1BG@IBCKDDOE@?$AAa?$AAz?$AA?9?$AAa?$AAz?$AA?9?$AAl?$AAa?$AAt?$AAn?$AA?$AA@
	DD	06bH
	DD	FLAT:??_C@_15HPJPHDM@?$AAb?$AAe?$AA?$AA@
	DD	021H
	DD	FLAT:??_C@_1M@EGPFDCPD@?$AAb?$AAe?$AA?9?$AAb?$AAy?$AA?$AA@
	DD	063H
	DD	FLAT:??_C@_15KNPADPLH@?$AAb?$AAg?$AA?$AA@
	DD	01H
	DD	FLAT:??_C@_1M@PCMGMCGC@?$AAb?$AAg?$AA?9?$AAb?$AAg?$AA?$AA@
	DD	044H
	DD	FLAT:??_C@_1M@BJBMFGOB@?$AAb?$AAn?$AA?9?$AAi?$AAn?$AA?$AA@
	DD	07dH
	DD	FLAT:??_C@_1BG@EAKMMACD@?$AAb?$AAs?$AA?9?$AAb?$AAa?$AA?9?$AAl?$AAa?$AAt?$AAn?$AA?$AA@
	DD	0b7H
	DD	FLAT:??_C@_15EDMHLDMO@?$AAc?$AAa?$AA?$AA@
	DD	02H
	DD	FLAT:??_C@_1M@KGADAODK@?$AAc?$AAa?$AA?9?$AAe?$AAs?$AA?$AA@
	DD	045H
	DD	FLAT:??_C@_15LJNHCMNK@?$AAc?$AAs?$AA?$AA@
	DD	04H
	DD	FLAT:??_C@_1M@COAJPDHI@?$AAc?$AAs?$AA?9?$AAc?$AAz?$AA?$AA@
	DD	047H
	DD	FLAT:??_C@_1M@DHBHFONH@?$AAc?$AAy?$AA?9?$AAg?$AAb?$AA?$AA@
	DD	087H
	DD	FLAT:??_C@_15FOMCIDHG@?$AAd?$AAa?$AA?$AA@
	DD	05H
	DD	FLAT:??_C@_1M@IMGKELGA@?$AAd?$AAa?$AA?9?$AAd?$AAk?$AA?$AA@
	DD	048H
	DD	FLAT:??_C@_15NBKABECB@?$AAd?$AAe?$AA?$AA@
	DD	06H
	DD	FLAT:??_C@_1M@NNDGDNGA@?$AAd?$AAe?$AA?9?$AAa?$AAt?$AA?$AA@
	DD	0a2H
	DD	FLAT:??_C@_1M@IKDBHEEM@?$AAd?$AAe?$AA?9?$AAc?$AAh?$AA?$AA@
	DD	091H
	DD	FLAT:??_C@_1M@GFFOJMCJ@?$AAd?$AAe?$AA?9?$AAd?$AAe?$AA?$AA@
	DD	049H
	DD	FLAT:??_C@_1M@MDNLKBPM@?$AAd?$AAe?$AA?9?$AAl?$AAi?$AA?$AA@
	DD	0b3H
	DD	FLAT:??_C@_1M@NJBEEJNL@?$AAd?$AAe?$AA?9?$AAl?$AAu?$AA?$AA@
	DD	0abH
	DD	FLAT:??_C@_17KPNDCPAF@?$AAd?$AAi?$AAv?$AA?$AA@
	DD	041H
	DD	FLAT:??_C@_1O@GNNELBAP@?$AAd?$AAi?$AAv?$AA?9?$AAm?$AAv?$AA?$AA@
	DD	08bH
	DD	FLAT:??_C@_15GHPEIIAO@?$AAe?$AAl?$AA?$AA@
	DD	07H
	DD	FLAT:??_C@_1M@EJLEOGAE@?$AAe?$AAl?$AA?9?$AAg?$AAr?$AA?$AA@
	DD	04aH
	DD	FLAT:??_C@_15MNPNEAIF@?$AAe?$AAn?$AA?$AA@
	DD	08H
	DD	FLAT:??_C@_1M@GMPONJN@?$AAe?$AAn?$AA?9?$AAa?$AAu?$AA?$AA@
	DD	0a3H
	DD	FLAT:??_C@_1M@NIDIIPGF@?$AAe?$AAn?$AA?9?$AAb?$AAz?$AA?$AA@
	DD	0cdH
	DD	FLAT:??_C@_1M@JEHMIMFO@?$AAe?$AAn?$AA?9?$AAc?$AAa?$AA?$AA@
	DD	0acH
	DD	FLAT:??_C@_1M@IGMJCDLA@?$AAe?$AAn?$AA?9?$AAc?$AAb?$AA?$AA@
	DD	0c9H
	DD	FLAT:??_C@_1M@BNFIGBKG@?$AAe?$AAn?$AA?9?$AAg?$AAb?$AA?$AA@
	DD	092H
	DD	FLAT:??_C@_1M@LKIFDIGP@?$AAe?$AAn?$AA?9?$AAi?$AAe?$AA?$AA@
	DD	0baH
	DD	FLAT:??_C@_1M@PJKFGCCO@?$AAe?$AAn?$AA?9?$AAj?$AAm?$AA?$AA@
	DD	0c5H
	DD	FLAT:??_C@_1M@KPPKEPBO@?$AAe?$AAn?$AA?9?$AAn?$AAz?$AA?$AA@
	DD	0b4H
	DD	FLAT:??_C@_1M@GMDGLDOB@?$AAe?$AAn?$AA?9?$AAp?$AAh?$AA?$AA@
	DD	0d6H
	DD	FLAT:??_C@_1M@ONGIBJNA@?$AAe?$AAn?$AA?9?$AAt?$AAt?$AA?$AA@
	DD	0d0H
	DD	FLAT:??_C@_1M@LLODPCMM@?$AAe?$AAn?$AA?9?$AAu?$AAs?$AA?$AA@
	DD	04bH
	DD	FLAT:??_C@_1M@LAKFNPAN@?$AAe?$AAn?$AA?9?$AAz?$AAa?$AA?$AA@
	DD	0c0H
	DD	FLAT:??_C@_1M@MFNHNHEO@?$AAe?$AAn?$AA?9?$AAz?$AAw?$AA?$AA@
	DD	0d3H
	DD	FLAT:??_C@_15GPIOMPMH@?$AAe?$AAs?$AA?$AA@
	DD	09H
	DD	FLAT:??_C@_1M@EJEINPHM@?$AAe?$AAs?$AA?9?$AAa?$AAr?$AA?$AA@
	DD	0d1H
	DD	FLAT:??_C@_1M@GNKPCCJA@?$AAe?$AAs?$AA?9?$AAb?$AAo?$AA?$AA@
	DD	0ddH
	DD	FLAT:??_C@_1M@LEEGFONL@?$AAe?$AAs?$AA?9?$AAc?$AAl?$AA?$AA@
	DD	0d7H
	DD	FLAT:??_C@_1M@KGPDPBDF@?$AAe?$AAs?$AA?9?$AAc?$AAo?$AA?$AA@
	DD	0caH
	DD	FLAT:??_C@_1M@EIAHOHH@?$AAe?$AAs?$AA?9?$AAc?$AAr?$AA?$AA@
	DD	0b5H
	DD	FLAT:??_C@_1M@LLPGMBIN@?$AAe?$AAs?$AA?9?$AAd?$AAo?$AA?$AA@
	DD	0c1H
	DD	FLAT:??_C@_1M@DKHMKNJA@?$AAe?$AAs?$AA?9?$AAe?$AAc?$AA?$AA@
	DD	0d4H
	DD	FLAT:??_C@_1M@GKGFPKAP@?$AAe?$AAs?$AA?9?$AAe?$AAs?$AA?$AA@
	DD	0a4H
	DD	FLAT:??_C@_1M@LKHKGDLN@?$AAe?$AAs?$AA?9?$AAg?$AAt?$AA?$AA@
	DD	0adH
	DD	FLAT:??_C@_1M@HEIIGGJD@?$AAe?$AAs?$AA?9?$AAh?$AAn?$AA?$AA@
	DD	0dfH
	DD	FLAT:??_C@_1M@FBDHPPGD@?$AAe?$AAs?$AA?9?$AAm?$AAx?$AA?$AA@
	DD	093H
	DD	FLAT:??_C@_1M@DPAGLNDH@?$AAe?$AAs?$AA?9?$AAn?$AAi?$AA?$AA@
	DD	0e0H
	DD	FLAT:??_C@_1M@MDGOPGDD@?$AAe?$AAs?$AA?9?$AAp?$AAa?$AA?$AA@
	DD	0bbH
	DD	FLAT:??_C@_1M@EMAMGBGE@?$AAe?$AAs?$AA?9?$AAp?$AAe?$AA?$AA@
	DD	0ceH
	DD	FLAT:??_C@_1M@IBMCAOEC@?$AAe?$AAs?$AA?9?$AAp?$AAr?$AA?$AA@
	DD	0e1H
	DD	FLAT:??_C@_1M@FGMDIJED@?$AAe?$AAs?$AA?9?$AAp?$AAy?$AA?$AA@
	DD	0dbH
	DD	FLAT:??_C@_1M@IIDEOLLL@?$AAe?$AAs?$AA?9?$AAs?$AAv?$AA?$AA@
	DD	0deH
	DD	FLAT:??_C@_1M@GAOBIPA@?$AAe?$AAs?$AA?9?$AAu?$AAy?$AA?$AA@
	DD	0d9H
	DD	FLAT:??_C@_1M@JKFFICHJ@?$AAe?$AAs?$AA?9?$AAv?$AAe?$AA?$AA@
	DD	0c6H
	DD	FLAT:??_C@_15PCFJPHHO@?$AAe?$AAt?$AA?$AA@
	DD	023H
	DD	FLAT:??_C@_1M@PNMLOJDF@?$AAe?$AAt?$AA?9?$AAe?$AAe?$AA?$AA@
	DD	065H
	DD	FLAT:??_C@_15EKOFJABL@?$AAe?$AAu?$AA?$AA@
	DD	02aH
	DD	FLAT:??_C@_1M@GHHLIKEI@?$AAe?$AAu?$AA?9?$AAe?$AAs?$AA?$AA@
	DD	06cH
	DD	FLAT:??_C@_15BDAKCCHN@?$AAf?$AAa?$AA?$AA@
	DD	026H
	DD	FLAT:??_C@_1M@PBNONODE@?$AAf?$AAa?$AA?9?$AAi?$AAr?$AA?$AA@
	DD	068H
	DD	FLAT:??_C@_15NGLOAKJC@?$AAf?$AAi?$AA?$AA@
	DD	0aH
	DD	FLAT:??_C@_1M@JEEHPMIL@?$AAf?$AAi?$AA?9?$AAf?$AAi?$AA?$AA@
	DD	04cH
	DD	FLAT:??_C@_15PDNFFFEO@?$AAf?$AAo?$AA?$AA@
	DD	02eH
	DD	FLAT:??_C@_1M@LMDCNDBA@?$AAf?$AAo?$AA?9?$AAf?$AAo?$AA?$AA@
	DD	073H
	DD	FLAT:??_C@_15FBKGNKAM@?$AAf?$AAr?$AA?$AA@
	DD	0bH
	DD	FLAT:??_C@_1M@JKEOHLDK@?$AAf?$AAr?$AA?9?$AAb?$AAe?$AA?$AA@
	DD	094H
	DD	FLAT:??_C@_1M@NOHADPMI@?$AAf?$AAr?$AA?9?$AAc?$AAa?$AA?$AA@
	DD	0a5H
	DD	FLAT:??_C@_1M@KDHIHAEC@?$AAf?$AAr?$AA?9?$AAc?$AAh?$AA?$AA@
	DD	0aeH
	DD	FLAT:??_C@_1M@MMBBFGAK@?$AAf?$AAr?$AA?9?$AAf?$AAr?$AA?$AA@
	DD	04dH
	DD	FLAT:??_C@_1M@PAFNENNF@?$AAf?$AAr?$AA?9?$AAl?$AAu?$AA?$AA@
	DD	0b6H
	DD	FLAT:??_C@_1M@EOHDJGDD@?$AAf?$AAr?$AA?9?$AAm?$AAc?$AA?$AA@
	DD	0bcH
	DD	FLAT:??_C@_15CKDMCJAF@?$AAg?$AAl?$AA?$AA@
	DD	03eH
	DD	FLAT:??_C@_1M@FAPLLOPF@?$AAg?$AAl?$AA?9?$AAe?$AAs?$AA?$AA@
	DD	088H
	DD	FLAT:??_C@_15HCNDBBA@?$AAg?$AAu?$AA?$AA@
	DD	037H
	DD	FLAT:??_C@_1M@FOPBFLOO@?$AAg?$AAu?$AA?9?$AAi?$AAn?$AA?$AA@
	DD	07fH
	DD	FLAT:??_C@_15KGGCNEFK@?$AAh?$AAe?$AA?$AA@
	DD	0cH
	DD	FLAT:??_C@_1M@KBMCINPM@?$AAh?$AAe?$AA?9?$AAi?$AAl?$AA?$AA@
	DD	04eH
	DD	FLAT:??_C@_15OMLEGLOC@?$AAh?$AAi?$AA?$AA@
	DD	02fH
	DD	FLAT:??_C@_1M@BBPHKFPJ@?$AAh?$AAi?$AA?9?$AAi?$AAn?$AA?$AA@
	DD	074H
	DD	FLAT:??_C@_15GLKMLLHM@?$AAh?$AAr?$AA?$AA@
	DD	018H
	DD	FLAT:??_C@_1M@PMBNDPHD@?$AAh?$AAr?$AA?9?$AAb?$AAa?$AA?$AA@
	DD	0afH
	DD	FLAT:??_C@_1M@BPCKOEGE@?$AAh?$AAr?$AA?9?$AAh?$AAr?$AA?$AA@
	DD	05aH
	DD	FLAT:??_C@_15PGHLIDMF@?$AAh?$AAu?$AA?$AA@
	DD	0dH
	DD	FLAT:??_C@_1M@GACBMHKE@?$AAh?$AAu?$AA?9?$AAh?$AAu?$AA?$AA@
	DD	04fH
	DD	FLAT:??_C@_15LMKNDMHN@?$AAh?$AAy?$AA?$AA@
	DD	028H
	DD	FLAT:??_C@_1M@MILPAJJC@?$AAh?$AAy?$AA?9?$AAa?$AAm?$AA?$AA@
	DD	06aH
	DD	FLAT:??_C@_15NFICGAJK@?$AAi?$AAd?$AA?$AA@
	DD	01fH
	DD	FLAT:??_C@_1M@BABBICEC@?$AAi?$AAd?$AA?9?$AAi?$AAd?$AA?$AA@
	DD	061H
	DD	FLAT:??_C@_15BIEMAPLM@?$AAi?$AAs?$AA?$AA@
	DD	0eH
	DD	FLAT:??_C@_1M@BIKNHHPF@?$AAi?$AAs?$AA?9?$AAi?$AAs?$AA?$AA@
	DD	050H
	DD	FLAT:??_C@_15IFJLDHAF@?$AAi?$AAt?$AA?$AA@
	DD	0fH
	DD	FLAT:??_C@_1M@NMPCJPHE@?$AAi?$AAt?$AA?9?$AAc?$AAh?$AA?$AA@
	DD	095H
	DD	FLAT:??_C@_1M@GHKGFEDF@?$AAi?$AAt?$AA?9?$AAi?$AAt?$AA?$AA@
	DD	051H
	DD	FLAT:??_C@_15GEMIOCAG@?$AAj?$AAa?$AA?$AA@
	DD	010H
	DD	FLAT:??_C@_1M@NIEJCJJA@?$AAj?$AAa?$AA?9?$AAj?$AAp?$AA?$AA@
	DD	052H
	DD	FLAT:??_C@_15KPJEDBKD@?$AAk?$AAa?$AA?$AA@
	DD	02dH
	DD	FLAT:??_C@_1M@JILFNBIM@?$AAk?$AAa?$AA?9?$AAg?$AAe?$AA?$AA@
	DD	072H
	DD	FLAT:??_C@_15MACJNBMH@?$AAk?$AAk?$AA?$AA@
	DD	031H
	DD	FLAT:??_C@_1M@PACPMGPH@?$AAk?$AAk?$AA?9?$AAk?$AAz?$AA?$AA@
	DD	078H
	DD	FLAT:??_C@_15PHPHCBPF@?$AAk?$AAn?$AA?$AA@
	DD	03aH
	DD	FLAT:??_C@_1M@IELFGMHA@?$AAk?$AAn?$AA?9?$AAi?$AAn?$AA?$AA@
	DD	082H
	DD	FLAT:??_C@_15EPELEGJA@?$AAk?$AAo?$AA?$AA@
	DD	011H
	DD	FLAT:??_C@_17CNJFBPG@?$AAk?$AAo?$AAk?$AA?$AA@
	DD	03fH
	DD	FLAT:??_C@_1O@IBBJHCH@?$AAk?$AAo?$AAk?$AA?9?$AAi?$AAn?$AA?$AA@
	DD	089H
	DD	FLAT:??_C@_1M@DMHAEOGC@?$AAk?$AAo?$AA?9?$AAk?$AAr?$AA?$AA@
	DD	053H
	DD	FLAT:??_C@_15DKDJEOND@?$AAk?$AAy?$AA?$AA@
	DD	032H
	DD	FLAT:??_C@_1M@HBAHBIGA@?$AAk?$AAy?$AA?9?$AAk?$AAg?$AA?$AA@
	DD	079H
	DD	FLAT:??_C@_15NFFGKGLG@?$AAl?$AAt?$AA?$AA@
	DD	025H
	DD	FLAT:??_C@_1M@KPMILCJG@?$AAl?$AAt?$AA?9?$AAl?$AAt?$AA?$AA@
	DD	067H
	DD	FLAT:??_C@_15HPFPGODN@?$AAl?$AAv?$AA?$AA@
	DD	024H
	DD	FLAT:??_C@_1M@BDEKKCA@?$AAl?$AAv?$AA?9?$AAl?$AAv?$AA?$AA@
	DD	066H
	DD	FLAT:??_C@_1M@ELCKCCJJ@?$AAm?$AAi?$AA?9?$AAn?$AAz?$AA?$AA@
	DD	08eH
	DD	FLAT:??_C@_15BGHADCNK@?$AAm?$AAk?$AA?$AA@
	DD	02bH
	DD	FLAT:??_C@_1M@CBOOLAPA@?$AAm?$AAk?$AA?9?$AAm?$AAk?$AA?$AA@
	DD	06dH
	DD	FLAT:??_C@_1M@GPHNBJKN@?$AAm?$AAl?$AA?9?$AAi?$AAn?$AA?$AA@
	DD	083H
	DD	FLAT:??_C@_15CBKOMCOI@?$AAm?$AAn?$AA?$AA@
	DD	03dH
	DD	FLAT:??_C@_1M@PABJILIG@?$AAm?$AAn?$AA?9?$AAm?$AAn?$AA?$AA@
	DD	086H
	DD	FLAT:??_C@_15DLGBCKMP@?$AAm?$AAr?$AA?$AA@
	DD	03bH
	DD	FLAT:??_C@_1M@FGBKKIPG@?$AAm?$AAr?$AA?9?$AAi?$AAn?$AA?$AA@
	DD	084H
	DD	FLAT:??_C@_15IDNNENKK@?$AAm?$AAs?$AA?$AA@
	DD	030H
	DD	FLAT:??_C@_1M@NDBPDDAL@?$AAm?$AAs?$AA?9?$AAb?$AAn?$AA?$AA@
	DD	09dH
	DD	FLAT:??_C@_1M@OPIHOOPI@?$AAm?$AAs?$AA?9?$AAm?$AAy?$AA?$AA@
	DD	077H
	DD	FLAT:??_C@_1M@PPDBCNFM@?$AAm?$AAt?$AA?9?$AAm?$AAt?$AA?$AA@
	DD	075H
	DD	FLAT:??_C@_1M@KDJDKMDD@?$AAn?$AAb?$AA?9?$AAn?$AAo?$AA?$AA@
	DD	055H
	DD	FLAT:??_C@_15NDDHIMN@?$AAn?$AAl?$AA?$AA@
	DD	012H
	DD	FLAT:??_C@_1M@KFCFLMJP@?$AAn?$AAl?$AA?9?$AAb?$AAe?$AA?$AA@
	DD	096H
	DD	FLAT:??_C@_1M@KPOPDDGO@?$AAn?$AAl?$AA?9?$AAn?$AAl?$AA?$AA@
	DD	054H
	DD	FLAT:??_C@_1M@LJKPEMLN@?$AAn?$AAn?$AA?9?$AAn?$AAo?$AA?$AA@
	DD	097H
	DD	FLAT:??_C@_15BPIGNHCD@?$AAn?$AAo?$AA?$AA@
	DD	013H
	DD	FLAT:??_C@_1M@BDGHHBFL@?$AAn?$AAs?$AA?9?$AAz?$AAa?$AA?$AA@
	DD	08dH
	DD	FLAT:??_C@_15MGIFMDPL@?$AAp?$AAa?$AA?$AA@
	DD	036H
	DD	FLAT:??_C@_1M@IDEHOAP@?$AAp?$AAa?$AA?9?$AAi?$AAn?$AA?$AA@
	DD	07eH
	DD	FLAT:??_C@_15DEOPBLCG@?$AAp?$AAl?$AA?$AA@
	DD	014H
	DD	FLAT:??_C@_1M@HDBKGOGH@?$AAp?$AAl?$AA?9?$AAp?$AAl?$AA?$AA@
	DD	056H
	DD	FLAT:??_C@_15KBECGEFG@?$AAp?$AAt?$AA?$AA@
	DD	015H
	DD	FLAT:??_C@_1M@LJLLCMEH@?$AAp?$AAt?$AA?9?$AAb?$AAr?$AA?$AA@
	DD	057H
	DD	FLAT:??_C@_1M@NCMONAAL@?$AAp?$AAt?$AA?9?$AAp?$AAt?$AA?$AA@
	DD	098H
	DD	FLAT:??_C@_1O@EAKMAJDN@?$AAq?$AAu?$AAz?$AA?9?$AAb?$AAo?$AA?$AA@
	DD	08cH
	DD	FLAT:??_C@_1O@BHHPIGDN@?$AAq?$AAu?$AAz?$AA?9?$AAe?$AAc?$AA?$AA@
	DD	09fH
	DD	FLAT:??_C@_1O@GBAPEKMJ@?$AAq?$AAu?$AAz?$AA?9?$AAp?$AAe?$AA?$AA@
	DD	0a8H
	DD	FLAT:??_C@_15GLJCBFMD@?$AAr?$AAo?$AA?$AA@
	DD	016H
	DD	FLAT:??_C@_1M@CLGLEFBO@?$AAr?$AAo?$AA?9?$AAr?$AAo?$AA?$AA@
	DD	058H
	DD	FLAT:??_C@_15FEDGKCDI@?$AAr?$AAu?$AA?$AA@
	DD	017H
	DD	FLAT:??_C@_1M@CEEDODME@?$AAr?$AAu?$AA?9?$AAr?$AAu?$AA?$AA@
	DD	059H
	DD	FLAT:??_C@_15EABBLBFF@?$AAs?$AAa?$AA?$AA@
	DD	03cH
	DD	FLAT:??_C@_1M@HPKKKMPP@?$AAs?$AAa?$AA?9?$AAi?$AAn?$AA?$AA@
	DD	085H
	DD	FLAT:??_C@_1M@BKMAIGOJ@?$AAs?$AAe?$AA?9?$AAf?$AAi?$AA?$AA@
	DD	0a7H
	DD	FLAT:??_C@_1M@NDPIFLFI@?$AAs?$AAe?$AA?9?$AAn?$AAo?$AA?$AA@
	DD	076H
	DD	FLAT:??_C@_1M@DANKKHJ@?$AAs?$AAe?$AA?9?$AAs?$AAe?$AA?$AA@
	DD	09cH
	DD	FLAT:??_C@_15CPKMFBDB@?$AAs?$AAk?$AA?$AA@
	DD	019H
	DD	FLAT:??_C@_1M@PNBLONPJ@?$AAs?$AAk?$AA?9?$AAs?$AAk?$AA?$AA@
	DD	05bH
	DD	FLAT:??_C@_15LCHLGJII@?$AAs?$AAl?$AA?$AA@
	DD	022H
	DD	FLAT:??_C@_1M@LFMODOAL@?$AAs?$AAl?$AA?9?$AAs?$AAi?$AA?$AA@
	DD	064H
	DD	FLAT:??_C@_1O@DFKOMPG@?$AAs?$AAm?$AAa?$AA?9?$AAn?$AAo?$AA?$AA@
	DD	0beH
	DD	FLAT:??_C@_1O@NDKPBNNH@?$AAs?$AAm?$AAa?$AA?9?$AAs?$AAe?$AA?$AA@
	DD	0c3H
	DD	FLAT:??_C@_1O@PLLKBHAB@?$AAs?$AAm?$AAj?$AA?9?$AAn?$AAo?$AA?$AA@
	DD	0b0H
	DD	FLAT:??_C@_1O@CLEPOGCA@?$AAs?$AAm?$AAj?$AA?9?$AAs?$AAe?$AA?$AA@
	DD	0b8H
	DD	FLAT:??_C@_1O@DLGJGKMK@?$AAs?$AAm?$AAn?$AA?9?$AAf?$AAi?$AA?$AA@
	DD	0cbH
	DD	FLAT:??_C@_1O@OJDJGAJC@?$AAs?$AAm?$AAs?$AA?9?$AAf?$AAi?$AA?$AA@
	DD	0c7H
	DD	FLAT:??_C@_15BAAIOGMK@?$AAs?$AAq?$AA?$AA@
	DD	01aH
	DD	FLAT:??_C@_1M@BOFOGHPB@?$AAs?$AAq?$AA?9?$AAa?$AAl?$AA?$AA@
	DD	05cH
	DD	FLAT:??_C@_15CLNEJCE@?$AAs?$AAr?$AA?$AA@
	DD	0e3H
	DD	FLAT:??_C@_1BG@LJBBIPGB@?$AAs?$AAr?$AA?9?$AAb?$AAa?$AA?9?$AAc?$AAy?$AAr?$AAl?$AA?$AA@
	DD	0c2H
	DD	FLAT:??_C@_1BG@JLBENFOE@?$AAs?$AAr?$AA?9?$AAb?$AAa?$AA?9?$AAl?$AAa?$AAt?$AAn?$AA?$AA@
	DD	0bdH
	DD	FLAT:??_C@_1BG@KODPNHE@?$AAs?$AAr?$AA?9?$AAs?$AAp?$AA?9?$AAc?$AAy?$AAr?$AAl?$AA?$AA@
	DD	0a6H
	DD	FLAT:??_C@_1BG@CIOGKHPB@?$AAs?$AAr?$AA?9?$AAs?$AAp?$AA?9?$AAl?$AAa?$AAt?$AAn?$AA?$AA@
	DD	099H
	DD	FLAT:??_C@_15INNPNOHD@?$AAs?$AAv?$AA?$AA@
	DD	01bH
	DD	FLAT:??_C@_1M@NGFJLMAC@?$AAs?$AAv?$AA?9?$AAf?$AAi?$AA?$AA@
	DD	09aH
	DD	FLAT:??_C@_1M@MPJEJAJC@?$AAs?$AAv?$AA?9?$AAs?$AAe?$AA?$AA@
	DD	05dH
	DD	FLAT:??_C@_15DFGDLJBG@?$AAs?$AAw?$AA?$AA@
	DD	033H
	DD	FLAT:??_C@_1M@MPNDHLFK@?$AAs?$AAw?$AA?9?$AAk?$AAe?$AA?$AA@
	DD	07aH
	DD	FLAT:??_C@_17FFBJICPL@?$AAs?$AAy?$AAr?$AA?$AA@
	DD	040H
	DD	FLAT:??_C@_1O@KOHBJJI@?$AAs?$AAy?$AAr?$AA?9?$AAs?$AAy?$AA?$AA@
	DD	08aH
	DD	FLAT:??_C@_15FNBEIBON@?$AAt?$AAa?$AA?$AA@
	DD	038H
	DD	FLAT:??_C@_1M@LDCEFHA@?$AAt?$AAa?$AA?9?$AAi?$AAn?$AA?$AA@
	DD	080H
	DD	FLAT:??_C@_15NCHGBGLK@?$AAt?$AAe?$AA?$AA@
	DD	039H
	DD	FLAT:??_C@_1M@CNJOFAK@?$AAt?$AAe?$AA?9?$AAi?$AAn?$AA?$AA@
	DD	081H
	DD	FLAT:??_C@_15CABMMOGH@?$AAt?$AAh?$AA?$AA@
	DD	01cH
	DD	FLAT:??_C@_1M@GNAECACD@?$AAt?$AAh?$AA?9?$AAt?$AAh?$AA?$AA@
	DD	05eH
	DD	FLAT:??_C@_1M@CHBIHOJO@?$AAt?$AAn?$AA?9?$AAz?$AAa?$AA?$AA@
	DD	06eH
	DD	FLAT:??_C@_15BPLIHJJM@?$AAt?$AAr?$AA?$AA@
	DD	01dH
	DD	FLAT:??_C@_1M@GCCMIGPJ@?$AAt?$AAr?$AA?9?$AAt?$AAr?$AA?$AA@
	DD	05fH
	DD	FLAT:??_C@_15DKNDCGEA@?$AAt?$AAt?$AA?$AA@
	DD	035H
	DD	FLAT:??_C@_1M@CELMCNBK@?$AAt?$AAt?$AA?9?$AAr?$AAu?$AA?$AA@
	DD	07cH
	DD	FLAT:??_C@_15PJPFLCCM@?$AAu?$AAk?$AA?$AA@
	DD	020H
	DD	FLAT:??_C@_1M@KLMCELGA@?$AAu?$AAk?$AA?9?$AAu?$AAa?$AA?$AA@
	DD	062H
	DD	FLAT:??_C@_15NEOEKKDJ@?$AAu?$AAr?$AA?$AA@
	DD	01eH
	DD	FLAT:??_C@_1M@EPAJJAJF@?$AAu?$AAr?$AA?9?$AAp?$AAk?$AA?$AA@
	DD	060H
	DD	FLAT:??_C@_15BBFAICNG@?$AAu?$AAz?$AA?$AA@
	DD	034H
	DD	FLAT:??_C@_1BG@GEGPMCDJ@?$AAu?$AAz?$AA?9?$AAu?$AAz?$AA?9?$AAc?$AAy?$AAr?$AAl?$AA?$AA@
	DD	09eH
	DD	FLAT:??_C@_1BG@EGGKJILM@?$AAu?$AAz?$AA?9?$AAu?$AAz?$AA?9?$AAl?$AAa?$AAt?$AAn?$AA?$AA@
	DD	07bH
	DD	FLAT:??_C@_15NFGIAIAJ@?$AAv?$AAi?$AA?$AA@
	DD	027H
	DD	FLAT:??_C@_1M@GFOCLFF@?$AAv?$AAi?$AA?9?$AAv?$AAn?$AA?$AA@
	DD	069H
	DD	FLAT:??_C@_1M@CPAMEDFI@?$AAx?$AAh?$AA?9?$AAz?$AAa?$AA?$AA@
	DD	06fH
	DD	FLAT:??_C@_1O@EBKIFIGN@?$AAz?$AAh?$AA?9?$AAc?$AAh?$AAs?$AA?$AA@
	DD	03H
	DD	FLAT:??_C@_1O@NMHPGANE@?$AAz?$AAh?$AA?9?$AAc?$AAh?$AAt?$AA?$AA@
	DD	0e2H
	DD	FLAT:??_C@_1M@LPINJOMC@?$AAz?$AAh?$AA?9?$AAc?$AAn?$AA?$AA@
	DD	090H
	DD	FLAT:??_C@_1M@OCJEJODD@?$AAz?$AAh?$AA?9?$AAh?$AAk?$AA?$AA@
	DD	0a1H
	DD	FLAT:??_C@_1M@DNDLJINH@?$AAz?$AAh?$AA?9?$AAm?$AAo?$AA?$AA@
	DD	0b2H
	DD	FLAT:??_C@_1M@MBFDNDND@?$AAz?$AAh?$AA?9?$AAs?$AAg?$AA?$AA@
	DD	0aaH
	DD	FLAT:??_C@_1M@IMEPLEPE@?$AAz?$AAh?$AA?9?$AAt?$AAw?$AA?$AA@
	DD	046H
	DD	FLAT:??_C@_1M@BBGHNHJP@?$AAz?$AAu?$AA?9?$AAz?$AAa?$AA?$AA@
	DD	070H
CONST	ENDS
;	COMDAT ??_C@_15CLNEJCE@?$AAs?$AAr?$AA?$AA@
CONST	SEGMENT
??_C@_15CLNEJCE@?$AAs?$AAr?$AA?$AA@ DB 's', 00H, 'r', 00H, 00H, 00H ; `string'
CONST	ENDS
;	COMDAT ??_C@_1O@ICJHKIIK@?$AAz?$AAh?$AA?9?$AAC?$AAH?$AAT?$AA?$AA@
CONST	SEGMENT
??_C@_1O@ICJHKIIK@?$AAz?$AAh?$AA?9?$AAC?$AAH?$AAT?$AA?$AA@ DB 'z', 00H, 'h'
	DB	00H, '-', 00H, 'C', 00H, 'H', 00H, 'T', 00H, 00H, 00H ; `string'
CONST	ENDS
;	COMDAT ??_C@_1M@CGFMKEEK@?$AAe?$AAs?$AA?9?$AAP?$AAR?$AA?$AA@
CONST	SEGMENT
??_C@_1M@CGFMKEEK@?$AAe?$AAs?$AA?9?$AAP?$AAR?$AA?$AA@ DB 'e', 00H, 's', 00H
	DB	'-', 00H, 'P', 00H, 'R', 00H, 00H, 00H	; `string'
CONST	ENDS
;	COMDAT ??_C@_1M@JIJIBHDP@?$AAe?$AAs?$AA?9?$AAN?$AAI?$AA?$AA@
CONST	SEGMENT
??_C@_1M@JIJIBHDP@?$AAe?$AAs?$AA?9?$AAN?$AAI?$AA?$AA@ DB 'e', 00H, 's', 00H
	DB	'-', 00H, 'N', 00H, 'I', 00H, 00H, 00H	; `string'
CONST	ENDS
;	COMDAT ??_C@_1M@NDBGMMJL@?$AAe?$AAs?$AA?9?$AAH?$AAN?$AA?$AA@
CONST	SEGMENT
??_C@_1M@NDBGMMJL@?$AAe?$AAs?$AA?9?$AAH?$AAN?$AA?$AA@ DB 'e', 00H, 's', 00H
	DB	'-', 00H, 'H', 00H, 'N', 00H, 00H, 00H	; `string'
CONST	ENDS
;	COMDAT ??_C@_1M@CPKKEBLD@?$AAe?$AAs?$AA?9?$AAS?$AAV?$AA?$AA@
CONST	SEGMENT
??_C@_1M@CPKKEBLD@?$AAe?$AAs?$AA?9?$AAS?$AAV?$AA?$AA@ DB 'e', 00H, 's', 00H
	DB	'-', 00H, 'S', 00H, 'V', 00H, 00H, 00H	; `string'
CONST	ENDS
;	COMDAT ??_C@_1M@MKDBIIJI@?$AAe?$AAs?$AA?9?$AAB?$AAO?$AA?$AA@
CONST	SEGMENT
??_C@_1M@MKDBIIJI@?$AAe?$AAs?$AA?9?$AAB?$AAO?$AA?$AA@ DB 'e', 00H, 's', 00H
	DB	'-', 00H, 'B', 00H, 'O', 00H, 00H, 00H	; `string'
CONST	ENDS
;	COMDAT ??_C@_1M@EDGINPNP@?$AAa?$AAr?$AA?9?$AAQ?$AAA?$AA?$AA@
CONST	SEGMENT
??_C@_1M@EDGINPNP@?$AAa?$AAr?$AA?9?$AAQ?$AAA?$AA?$AA@ DB 'a', 00H, 'r', 00H
	DB	'-', 00H, 'Q', 00H, 'A', 00H, 00H, 00H	; `string'
CONST	ENDS
;	COMDAT ??_C@_1M@PBFNCDEL@?$AAe?$AAs?$AA?9?$AAP?$AAY?$AA?$AA@
CONST	SEGMENT
??_C@_1M@PBFNCDEL@?$AAe?$AAs?$AA?9?$AAP?$AAY?$AA?$AA@ DB 'e', 00H, 's', 00H
	DB	'-', 00H, 'P', 00H, 'Y', 00H, 00H, 00H	; `string'
CONST	ENDS
;	COMDAT ??_C@_1M@LLCCOAGA@?$AAa?$AAr?$AA?9?$AAB?$AAH?$AA?$AA@
CONST	SEGMENT
??_C@_1M@LLCCOAGA@?$AAa?$AAr?$AA?9?$AAB?$AAH?$AA?$AA@ DB 'a', 00H, 'r', 00H
	DB	'-', 00H, 'B', 00H, 'H', 00H, 00H, 00H	; `string'
CONST	ENDS
;	COMDAT ??_C@_1M@KBJALCPI@?$AAe?$AAs?$AA?9?$AAU?$AAY?$AA?$AA@
CONST	SEGMENT
??_C@_1M@KBJALCPI@?$AAe?$AAs?$AA?9?$AAU?$AAY?$AA?$AA@ DB 'e', 00H, 's', 00H
	DB	'-', 00H, 'U', 00H, 'Y', 00H, 00H, 00H	; `string'
CONST	ENDS
;	COMDAT ??_C@_1M@MPNMEKBD@?$AAa?$AAr?$AA?9?$AAA?$AAE?$AA?$AA@
CONST	SEGMENT
??_C@_1M@MPNMEKBD@?$AAa?$AAr?$AA?9?$AAA?$AAE?$AA?$AA@ DB 'a', 00H, 'r', 00H
	DB	'-', 00H, 'A', 00H, 'E', 00H, 00H, 00H	; `string'
CONST	ENDS
;	COMDAT ??_C@_1M@BDNIPEND@?$AAe?$AAs?$AA?9?$AAC?$AAL?$AA?$AA@
CONST	SEGMENT
??_C@_1M@BDNIPEND@?$AAe?$AAs?$AA?9?$AAC?$AAL?$AA?$AA@ DB 'e', 00H, 's', 00H
	DB	'-', 00H, 'C', 00H, 'L', 00H, 00H, 00H	; `string'
CONST	ENDS
;	COMDAT ??_C@_1M@MLKIBJOJ@?$AAe?$AAn?$AA?9?$AAP?$AAH?$AA?$AA@
CONST	SEGMENT
??_C@_1M@MLKIBJOJ@?$AAe?$AAn?$AA?9?$AAP?$AAH?$AA?$AA@ DB 'e', 00H, 'n', 00H
	DB	'-', 00H, 'P', 00H, 'H', 00H, 00H, 00H	; `string'
CONST	ENDS
;	COMDAT ??_C@_1M@JEFHPGGB@?$AAa?$AAr?$AA?9?$AAK?$AAW?$AA?$AA@
CONST	SEGMENT
??_C@_1M@JEFHPGGB@?$AAa?$AAr?$AA?9?$AAK?$AAW?$AA?$AA@ DB 'a', 00H, 'r', 00H
	DB	'-', 00H, 'K', 00H, 'W', 00H, 00H, 00H	; `string'
CONST	ENDS
;	COMDAT ??_C@_1M@JNOCAHJI@?$AAe?$AAs?$AA?9?$AAE?$AAC?$AA?$AA@
CONST	SEGMENT
??_C@_1M@JNOCAHJI@?$AAe?$AAs?$AA?9?$AAE?$AAC?$AA?$AA@ DB 'e', 00H, 's', 00H
	DB	'-', 00H, 'E', 00H, 'C', 00H, 00H, 00H	; `string'
CONST	ENDS
;	COMDAT ??_C@_1M@GCEJHNEG@?$AAe?$AAn?$AA?9?$AAZ?$AAW?$AA?$AA@
CONST	SEGMENT
??_C@_1M@GCEJHNEG@?$AAe?$AAn?$AA?9?$AAZ?$AAW?$AA?$AA@ DB 'e', 00H, 'n', 00H
	DB	'-', 00H, 'Z', 00H, 'W', 00H, 00H, 00H	; `string'
CONST	ENDS
;	COMDAT ??_C@_1M@OOJFGBHE@?$AAa?$AAr?$AA?9?$AAL?$AAB?$AA?$AA@
CONST	SEGMENT
??_C@_1M@OOJFGBHE@?$AAa?$AAr?$AA?9?$AAL?$AAB?$AA?$AA@ DB 'a', 00H, 'r', 00H
	DB	'-', 00H, 'L', 00H, 'B', 00H, 00H, 00H	; `string'
CONST	ENDS
;	COMDAT ??_C@_1M@OONGHFHE@?$AAe?$AAs?$AA?9?$AAA?$AAR?$AA?$AA@
CONST	SEGMENT
??_C@_1M@OONGHFHE@?$AAe?$AAs?$AA?9?$AAA?$AAR?$AA?$AA@ DB 'e', 00H, 's', 00H
	DB	'-', 00H, 'A', 00H, 'R', 00H, 00H, 00H	; `string'
CONST	ENDS
;	COMDAT ??_C@_1M@EKPGLDNI@?$AAe?$AAn?$AA?9?$AAT?$AAT?$AA?$AA@
CONST	SEGMENT
??_C@_1M@EKPGLDNI@?$AAe?$AAn?$AA?9?$AAT?$AAT?$AA?$AA@ DB 'e', 00H, 'n', 00H
	DB	'-', 00H, 'T', 00H, 'T', 00H, 00H, 00H	; `string'
CONST	ENDS
;	COMDAT ??_C@_1M@MKKGFKLE@?$AAa?$AAr?$AA?9?$AAJ?$AAO?$AA?$AA@
CONST	SEGMENT
??_C@_1M@MKKGFKLE@?$AAa?$AAr?$AA?9?$AAJ?$AAO?$AA?$AA@ DB 'a', 00H, 'r', 00H
	DB	'-', 00H, 'J', 00H, 'O', 00H, 00H, 00H	; `string'
CONST	ENDS
;	COMDAT ??_C@_1M@OLJCMLGM@?$AAe?$AAs?$AA?9?$AAP?$AAE?$AA?$AA@
CONST	SEGMENT
??_C@_1M@OLJCMLGM@?$AAe?$AAs?$AA?9?$AAP?$AAE?$AA?$AA@ DB 'e', 00H, 's', 00H
	DB	'-', 00H, 'P', 00H, 'E', 00H, 00H, 00H	; `string'
CONST	ENDS
;	COMDAT ??_C@_1M@HPKGCFGN@?$AAe?$AAn?$AA?9?$AAB?$AAZ?$AA?$AA@
CONST	SEGMENT
??_C@_1M@HPKGCFGN@?$AAe?$AAn?$AA?9?$AAB?$AAZ?$AA?$AA@ DB 'e', 00H, 'n', 00H
	DB	'-', 00H, 'B', 00H, 'Z', 00H, 00H, 00H	; `string'
CONST	ENDS
;	COMDAT ??_C@_1M@JLANABKE@?$AAa?$AAr?$AA?9?$AAS?$AAY?$AA?$AA@
CONST	SEGMENT
??_C@_1M@JLANABKE@?$AAa?$AAr?$AA?9?$AAS?$AAY?$AA?$AA@ DB 'a', 00H, 'r', 00H
	DB	'-', 00H, 'S', 00H, 'Y', 00H, 00H, 00H	; `string'
CONST	ENDS
;	COMDAT ??_C@_0BC@PGMFNIFA@atlTraceException?$AA@
CONST	SEGMENT
??_C@_0BC@PGMFNIFA@atlTraceException?$AA@ DB 'atlTraceException', 00H ; `string'
CONST	ENDS
;	COMDAT ??_C@_1O@JMPHMAMC@?$AAs?$AAm?$AAn?$AA?9?$AAF?$AAI?$AA?$AA@
CONST	SEGMENT
??_C@_1O@JMPHMAMC@?$AAs?$AAm?$AAn?$AA?9?$AAF?$AAI?$AA?$AA@ DB 's', 00H, 'm'
	DB	00H, 'n', 00H, '-', 00H, 'F', 00H, 'I', 00H, 00H, 00H ; `string'
CONST	ENDS
;	COMDAT ??_C@_1M@BGNFLDN@?$AAe?$AAs?$AA?9?$AAC?$AAO?$AA?$AA@
CONST	SEGMENT
??_C@_1M@BGNFLDN@?$AAe?$AAs?$AA?9?$AAC?$AAO?$AA?$AA@ DB 'e', 00H, 's', 00H
	DB	'-', 00H, 'C', 00H, 'O', 00H, 00H, 00H	; `string'
CONST	ENDS
;	COMDAT ??_C@_1M@CBFHIJLI@?$AAe?$AAn?$AA?9?$AAC?$AAB?$AA?$AA@
CONST	SEGMENT
??_C@_1M@CBFHIJLI@?$AAe?$AAn?$AA?9?$AAC?$AAB?$AA?$AA@ DB 'e', 00H, 'n', 00H
	DB	'-', 00H, 'C', 00H, 'B', 00H, 00H, 00H	; `string'
CONST	ENDS
;	COMDAT ??_C@_1M@CAFJMKOF@?$AAa?$AAr?$AA?9?$AAY?$AAE?$AA?$AA@
CONST	SEGMENT
??_C@_1M@CAFJMKOF@?$AAa?$AAr?$AA?9?$AAY?$AAE?$AA?$AA@ DB 'a', 00H, 'r', 00H
	DB	'-', 00H, 'Y', 00H, 'E', 00H, 00H, 00H	; `string'
CONST	ENDS
;	COMDAT ??_C@_1O@EOKHMKJK@?$AAs?$AAm?$AAs?$AA?9?$AAF?$AAI?$AA?$AA@
CONST	SEGMENT
??_C@_1O@EOKHMKJK@?$AAs?$AAm?$AAs?$AA?9?$AAF?$AAI?$AA?$AA@ DB 's', 00H, 'm'
	DB	00H, 's', 00H, '-', 00H, 'F', 00H, 'I', 00H, 00H, 00H ; `string'
CONST	ENDS
;	COMDAT ??_C@_1M@DNMLCIHB@?$AAe?$AAs?$AA?9?$AAV?$AAE?$AA?$AA@
CONST	SEGMENT
??_C@_1M@DNMLCIHB@?$AAe?$AAs?$AA?9?$AAV?$AAE?$AA?$AA@ DB 'e', 00H, 's', 00H
	DB	'-', 00H, 'V', 00H, 'E', 00H, 00H, 00H	; `string'
CONST	ENDS
;	COMDAT ??_C@_1M@FODLMICG@?$AAe?$AAn?$AA?9?$AAJ?$AAM?$AA?$AA@
CONST	SEGMENT
??_C@_1M@FODLMICG@?$AAe?$AAn?$AA?9?$AAJ?$AAM?$AA?$AA@ DB 'e', 00H, 'n', 00H
	DB	'-', 00H, 'J', 00H, 'M', 00H, 00H, 00H	; `string'
CONST	ENDS
;	COMDAT ??_C@_1M@DAGCADIM@?$AAa?$AAr?$AA?9?$AAO?$AAM?$AA?$AA@
CONST	SEGMENT
??_C@_1M@DAGCADIM@?$AAa?$AAr?$AA?9?$AAO?$AAM?$AA?$AA@ DB 'a', 00H, 'r', 00H
	DB	'-', 00H, 'O', 00H, 'M', 00H, 00H, 00H	; `string'
CONST	ENDS
;	COMDAT ??_C@_1O@HEDBLHNP@?$AAs?$AAm?$AAa?$AA?9?$AAS?$AAE?$AA?$AA@
CONST	SEGMENT
??_C@_1O@HEDBLHNP@?$AAs?$AAm?$AAa?$AA?9?$AAS?$AAE?$AA?$AA@ DB 's', 00H, 'm'
	DB	00H, 'a', 00H, '-', 00H, 'S', 00H, 'E', 00H, 00H, 00H ; `string'
CONST	ENDS
;	COMDAT ??_C@_1BG@CMBHIPBE@?$AAs?$AAr?$AA?9?$AAB?$AAA?$AA?9?$AAC?$AAy?$AAr?$AAl?$AA?$AA@
CONST	SEGMENT
??_C@_1BG@CMBHIPBE@?$AAs?$AAr?$AA?9?$AAB?$AAA?$AA?9?$AAC?$AAy?$AAr?$AAl?$AA?$AA@ DB 's'
	DB	00H, 'r', 00H, '-', 00H, 'B', 00H, 'A', 00H, '-', 00H, 'C', 00H
	DB	'y', 00H, 'r', 00H, 'l', 00H, 00H, 00H	; `string'
CONST	ENDS
;	COMDAT ??_C@_1M@BMGIGLIF@?$AAe?$AAs?$AA?9?$AAD?$AAO?$AA?$AA@
CONST	SEGMENT
??_C@_1M@BMGIGLIF@?$AAe?$AAs?$AA?9?$AAD?$AAO?$AA?$AA@ DB 'e', 00H, 's', 00H
	DB	'-', 00H, 'D', 00H, 'O', 00H, 00H, 00H	; `string'
CONST	ENDS
;	COMDAT ??_C@_1M@BHDLHFAF@?$AAe?$AAn?$AA?9?$AAZ?$AAA?$AA?$AA@
CONST	SEGMENT
??_C@_1M@BHDLHFAF@?$AAe?$AAn?$AA?9?$AAZ?$AAA?$AA?$AA@ DB 'e', 00H, 'n', 00H
	DB	'-', 00H, 'Z', 00H, 'A', 00H, 00H, 00H	; `string'
CONST	ENDS
;	COMDAT ??_C@_1M@ELMGFODK@?$AAa?$AAr?$AA?9?$AAT?$AAN?$AA?$AA@
CONST	SEGMENT
??_C@_1M@ELMGFODK@?$AAa?$AAr?$AA?9?$AAT?$AAN?$AA?$AA@ DB 'a', 00H, 'r', 00H
	DB	'-', 00H, 'T', 00H, 'N', 00H, 00H, 00H	; `string'
CONST	ENDS
;	COMDAT ??_C@_1O@KEMEEGPO@?$AAs?$AAm?$AAa?$AA?9?$AAN?$AAO?$AA?$AA@
CONST	SEGMENT
??_C@_1O@KEMEEGPO@?$AAs?$AAm?$AAa?$AA?9?$AAN?$AAO?$AA?$AA@ DB 's', 00H, 'm'
	DB	00H, 'a', 00H, '-', 00H, 'N', 00H, 'O', 00H, 00H, 00H ; `string'
CONST	ENDS
;	COMDAT ??_C@_1BG@OBCNFJB@?$AAs?$AAr?$AA?9?$AAB?$AAA?$AA?9?$AAL?$AAa?$AAt?$AAn?$AA?$AA@
CONST	SEGMENT
??_C@_1BG@OBCNFJB@?$AAs?$AAr?$AA?9?$AAB?$AAA?$AA?9?$AAL?$AAa?$AAt?$AAn?$AA?$AA@ DB 's'
	DB	00H, 'r', 00H, '-', 00H, 'B', 00H, 'A', 00H, '-', 00H, 'L', 00H
	DB	'a', 00H, 't', 00H, 'n', 00H, 00H, 00H	; `string'
CONST	ENDS
;	COMDAT ??_C@_1M@OJONDMDL@?$AAf?$AAr?$AA?9?$AAM?$AAC?$AA?$AA@
CONST	SEGMENT
??_C@_1M@OJONDMDL@?$AAf?$AAr?$AA?9?$AAM?$AAC?$AA?$AA@ DB 'f', 00H, 'r', 00H
	DB	'-', 00H, 'M', 00H, 'C', 00H, 00H, 00H	; `string'
CONST	ENDS
;	COMDAT ??_C@_1M@GEPAFMDL@?$AAe?$AAs?$AA?9?$AAP?$AAA?$AA?$AA@
CONST	SEGMENT
??_C@_1M@GEPAFMDL@?$AAe?$AAs?$AA?9?$AAP?$AAA?$AA?$AA@ DB 'e', 00H, 's', 00H
	DB	'-', 00H, 'P', 00H, 'A', 00H, 00H, 00H	; `string'
CONST	ENDS
;	COMDAT ??_C@_1M@BNBLJCGH@?$AAe?$AAn?$AA?9?$AAI?$AAE?$AA?$AA@
CONST	SEGMENT
??_C@_1M@BNBLJCGH@?$AAe?$AAn?$AA?9?$AAI?$AAE?$AA?$AA@ DB 'e', 00H, 'n', 00H
	DB	'-', 00H, 'I', 00H, 'E', 00H, 00H, 00H	; `string'
CONST	ENDS
;	COMDAT ??_C@_1M@DHHMBNDP@?$AAa?$AAr?$AA?9?$AAM?$AAA?$AA?$AA@
CONST	SEGMENT
??_C@_1M@DHHMBNDP@?$AAa?$AAr?$AA?9?$AAM?$AAA?$AA?$AA@ DB 'a', 00H, 'r', 00H
	DB	'-', 00H, 'M', 00H, 'A', 00H, 00H, 00H	; `string'
CONST	ENDS
;	COMDAT ??_C@_1O@IMNBEMCI@?$AAs?$AAm?$AAj?$AA?9?$AAS?$AAE?$AA?$AA@
CONST	SEGMENT
??_C@_1O@IMNBEMCI@?$AAs?$AAm?$AAj?$AA?9?$AAS?$AAE?$AA?$AA@ DB 's', 00H, 'm'
	DB	00H, 'j', 00H, '-', 00H, 'S', 00H, 'E', 00H, 00H, 00H ; `string'
CONST	ENDS
;	COMDAT ??_C@_1BG@NFKKMAFG@?$AAb?$AAs?$AA?9?$AAB?$AAA?$AA?9?$AAL?$AAa?$AAt?$AAn?$AA?$AA@
CONST	SEGMENT
??_C@_1BG@NFKKMAFG@?$AAb?$AAs?$AA?9?$AAB?$AAA?$AA?9?$AAL?$AAa?$AAt?$AAn?$AA?$AA@ DB 'b'
	DB	00H, 's', 00H, '-', 00H, 'B', 00H, 'A', 00H, '-', 00H, 'L', 00H
	DB	'a', 00H, 't', 00H, 'n', 00H, 00H, 00H	; `string'
CONST	ENDS
;	COMDAT ??_C@_1M@FHMDOHNN@?$AAf?$AAr?$AA?9?$AAL?$AAU?$AA?$AA@
CONST	SEGMENT
??_C@_1M@FHMDOHNN@?$AAf?$AAr?$AA?9?$AAL?$AAU?$AA?$AA@ DB 'f', 00H, 'r', 00H
	DB	'-', 00H, 'L', 00H, 'U', 00H, 00H, 00H	; `string'
CONST	ENDS
;	COMDAT ??_C@_1M@KDBONEHP@?$AAe?$AAs?$AA?9?$AAC?$AAR?$AA?$AA@
CONST	SEGMENT
??_C@_1M@KDBONEHP@?$AAe?$AAs?$AA?9?$AAC?$AAR?$AA?$AA@ DB 'e', 00H, 's', 00H
	DB	'-', 00H, 'C', 00H, 'R', 00H, 00H, 00H	; `string'
CONST	ENDS
;	COMDAT ??_C@_1M@IGEOFBG@?$AAe?$AAn?$AA?9?$AAN?$AAZ?$AA?$AA@
CONST	SEGMENT
??_C@_1M@IGEOFBG@?$AAe?$AAn?$AA?9?$AAN?$AAZ?$AA?$AA@ DB 'e', 00H, 'n', 00H
	DB	'-', 00H, 'N', 00H, 'Z', 00H, 00H, 00H	; `string'
CONST	ENDS
;	COMDAT ??_C@_1M@GEEFALPE@?$AAd?$AAe?$AA?9?$AAL?$AAI?$AA?$AA@
CONST	SEGMENT
??_C@_1M@GEEFALPE@?$AAd?$AAe?$AA?9?$AAL?$AAI?$AA?$AA@ DB 'd', 00H, 'e', 00H
	DB	'-', 00H, 'L', 00H, 'I', 00H, 00H, 00H	; `string'
CONST	ENDS
;	COMDAT ??_C@_1M@JKKFDCNP@?$AAz?$AAh?$AA?9?$AAM?$AAO?$AA?$AA@
CONST	SEGMENT
??_C@_1M@JKKFDCNP@?$AAz?$AAh?$AA?9?$AAM?$AAO?$AA?$AA@ DB 'z', 00H, 'h', 00H
	DB	'-', 00H, 'M', 00H, 'O', 00H, 00H, 00H	; `string'
CONST	ENDS
;	COMDAT ??_C@_1M@JHGLJMGJ@?$AAa?$AAr?$AA?9?$AAD?$AAZ?$AA?$AA@
CONST	SEGMENT
??_C@_1M@JHGLJMGJ@?$AAa?$AAr?$AA?9?$AAD?$AAZ?$AA?$AA@ DB 'a', 00H, 'r', 00H
	DB	'-', 00H, 'D', 00H, 'Z', 00H, 00H, 00H	; `string'
CONST	ENDS
;	COMDAT ??_C@_1O@FMCELNAJ@?$AAs?$AAm?$AAj?$AA?9?$AAN?$AAO?$AA?$AA@
CONST	SEGMENT
??_C@_1O@FMCELNAJ@?$AAs?$AAm?$AAj?$AA?9?$AAN?$AAO?$AA?$AA@ DB 's', 00H, 'm'
	DB	00H, 'j', 00H, '-', 00H, 'N', 00H, 'O', 00H, 00H, 00H ; `string'
CONST	ENDS
;	COMDAT ??_C@_1M@FLIDJFHL@?$AAh?$AAr?$AA?9?$AAB?$AAA?$AA?$AA@
CONST	SEGMENT
??_C@_1M@FLIDJFHL@?$AAh?$AAr?$AA?9?$AAB?$AAA?$AA?$AA@ DB 'h', 00H, 'r', 00H
	DB	'-', 00H, 'B', 00H, 'A', 00H, 00H, 00H	; `string'
CONST	ENDS
;	COMDAT ??_C@_1M@EOGNKEK@?$AAf?$AAr?$AA?9?$AAC?$AAH?$AA?$AA@
CONST	SEGMENT
??_C@_1M@EOGNKEK@?$AAf?$AAr?$AA?9?$AAC?$AAH?$AA?$AA@ DB 'f', 00H, 'r', 00H
	DB	'-', 00H, 'C', 00H, 'H', 00H, 00H, 00H	; `string'
CONST	ENDS
;	COMDAT ??_C@_1M@BNOEMJLF@?$AAe?$AAs?$AA?9?$AAG?$AAT?$AA?$AA@
CONST	SEGMENT
??_C@_1M@BNOEMJLF@?$AAe?$AAs?$AA?9?$AAG?$AAT?$AA?$AA@ DB 'e', 00H, 's', 00H
	DB	'-', 00H, 'G', 00H, 'T', 00H, 00H, 00H	; `string'
CONST	ENDS
;	COMDAT ??_C@_1M@DDOCCGFG@?$AAe?$AAn?$AA?9?$AAC?$AAA?$AA?$AA@
CONST	SEGMENT
??_C@_1M@DDOCCGFG@?$AAe?$AAn?$AA?9?$AAC?$AAA?$AA?$AA@ DB 'e', 00H, 'n', 00H
	DB	'-', 00H, 'C', 00H, 'A', 00H, 00H, 00H	; `string'
CONST	ENDS
;	COMDAT ??_C@_1M@HOIKODND@?$AAd?$AAe?$AA?9?$AAL?$AAU?$AA?$AA@
CONST	SEGMENT
??_C@_1M@HOIKODND@?$AAd?$AAe?$AA?9?$AAL?$AAU?$AA?$AA@ DB 'd', 00H, 'e', 00H
	DB	'-', 00H, 'L', 00H, 'U', 00H, 00H, 00H	; `string'
CONST	ENDS
;	COMDAT ??_C@_1M@GGMNHJNL@?$AAz?$AAh?$AA?9?$AAS?$AAG?$AA?$AA@
CONST	SEGMENT
??_C@_1M@GGMNHJNL@?$AAz?$AAh?$AA?9?$AAS?$AAG?$AA?$AA@ DB 'z', 00H, 'h', 00H
	DB	'-', 00H, 'S', 00H, 'G', 00H, 00H, 00H	; `string'
CONST	ENDS
;	COMDAT ??_C@_1M@GJINLBOK@?$AAa?$AAr?$AA?9?$AAL?$AAY?$AA?$AA@
CONST	SEGMENT
??_C@_1M@GJINLBOK@?$AAa?$AAr?$AA?9?$AAL?$AAY?$AA?$AA@ DB 'a', 00H, 'r', 00H
	DB	'-', 00H, 'L', 00H, 'Y', 00H, 00H, 00H	; `string'
CONST	ENDS
;	COMDAT ??_C@_1O@MGJBOAMB@?$AAq?$AAu?$AAz?$AA?9?$AAP?$AAE?$AA?$AA@
CONST	SEGMENT
??_C@_1O@MGJBOAMB@?$AAq?$AAu?$AAz?$AA?9?$AAP?$AAE?$AA?$AA@ DB 'q', 00H, 'u'
	DB	00H, 'z', 00H, '-', 00H, 'P', 00H, 'E', 00H, 00H, 00H ; `string'
CONST	ENDS
;	COMDAT ??_C@_1M@LNFOCMOB@?$AAs?$AAe?$AA?9?$AAF?$AAI?$AA?$AA@
CONST	SEGMENT
??_C@_1M@LNFOCMOB@?$AAs?$AAe?$AA?9?$AAF?$AAI?$AA?$AA@ DB 's', 00H, 'e', 00H
	DB	'-', 00H, 'F', 00H, 'I', 00H, 00H, 00H	; `string'
CONST	ENDS
;	COMDAT ??_C@_1BG@JPOFPNAB@?$AAs?$AAr?$AA?9?$AAS?$AAP?$AA?9?$AAC?$AAy?$AAr?$AAl?$AA?$AA@
CONST	SEGMENT
??_C@_1BG@JPOFPNAB@?$AAs?$AAr?$AA?9?$AAS?$AAP?$AA?9?$AAC?$AAy?$AAr?$AAl?$AA?$AA@ DB 's'
	DB	00H, 'r', 00H, '-', 00H, 'S', 00H, 'P', 00H, '-', 00H, 'C', 00H
	DB	'y', 00H, 'r', 00H, 'l', 00H, 00H, 00H	; `string'
CONST	ENDS
;	COMDAT ??_C@_1M@HJOOJFMA@?$AAf?$AAr?$AA?9?$AAC?$AAA?$AA?$AA@
CONST	SEGMENT
??_C@_1M@HJOOJFMA@?$AAf?$AAr?$AA?9?$AAC?$AAA?$AA?$AA@ DB 'f', 00H, 'r', 00H
	DB	'-', 00H, 'C', 00H, 'A', 00H, 00H, 00H	; `string'
CONST	ENDS
;	COMDAT ??_C@_1M@MNPLFAAH@?$AAe?$AAs?$AA?9?$AAE?$AAS?$AA?$AA@
CONST	SEGMENT
??_C@_1M@MNPLFAAH@?$AAe?$AAs?$AA?9?$AAE?$AAS?$AA?$AA@ DB 'e', 00H, 's', 00H
	DB	'-', 00H, 'E', 00H, 'S', 00H, 00H, 00H	; `string'
CONST	ENDS
;	COMDAT ??_C@_1M@KBFBEHJF@?$AAe?$AAn?$AA?9?$AAA?$AAU?$AA?$AA@
CONST	SEGMENT
??_C@_1M@KBFBEHJF@?$AAe?$AAn?$AA?9?$AAA?$AAU?$AA?$AA@ DB 'e', 00H, 'n', 00H
	DB	'-', 00H, 'A', 00H, 'U', 00H, 00H, 00H	; `string'
CONST	ENDS
;	COMDAT ??_C@_1M@HKKIJHGI@?$AAd?$AAe?$AA?9?$AAA?$AAT?$AA?$AA@
CONST	SEGMENT
??_C@_1M@HKKIJHGI@?$AAd?$AAe?$AA?9?$AAA?$AAT?$AA?$AA@ DB 'd', 00H, 'e', 00H
	DB	'-', 00H, 'A', 00H, 'T', 00H, 00H, 00H	; `string'
CONST	ENDS
;	COMDAT _IID_IDocHostUIHandlerDispatch
CONST	SEGMENT
_IID_IDocHostUIHandlerDispatch DD 0425b5af0H
	DW	065f1H
	DW	011d1H
	DB	096H
	DB	011H
	DB	00H
	DB	00H
	DB	0f8H
	DB	01eH
	DB	0dH
	DB	0dH
CONST	ENDS
;	COMDAT ??_C@_1M@EFAKDEDL@?$AAz?$AAh?$AA?9?$AAH?$AAK?$AA?$AA@
CONST	SEGMENT
??_C@_1M@EFAKDEDL@?$AAz?$AAh?$AA?9?$AAH?$AAK?$AA?$AA@ DB 'z', 00H, 'h', 00H
	DB	'-', 00H, 'H', 00H, 'K', 00H, 00H, 00H	; `string'
CONST	ENDS
;	COMDAT ??_C@_1M@POEEMAIO@?$AAa?$AAr?$AA?9?$AAE?$AAG?$AA?$AA@
CONST	SEGMENT
??_C@_1M@POEEMAIO@?$AAa?$AAr?$AA?9?$AAE?$AAG?$AA?$AA@ DB 'a', 00H, 'r', 00H
	DB	'-', 00H, 'E', 00H, 'G', 00H, 00H, 00H	; `string'
CONST	ENDS
;	COMDAT ??_C@_1O@LAOBCMDF@?$AAq?$AAu?$AAz?$AA?9?$AAE?$AAC?$AA?$AA@
CONST	SEGMENT
??_C@_1O@LAOBCMDF@?$AAq?$AAu?$AAz?$AA?9?$AAE?$AAC?$AA?$AA@ DB 'q', 00H, 'u'
	DB	00H, 'z', 00H, '-', 00H, 'E', 00H, 'C', 00H, 00H, 00H ; `string'
CONST	ENDS
;	COMDAT ??_C@_1BG@PBGJMCEM@?$AAu?$AAz?$AA?9?$AAU?$AAZ?$AA?9?$AAC?$AAy?$AAr?$AAl?$AA?$AA@
CONST	SEGMENT
??_C@_1BG@PBGJMCEM@?$AAu?$AAz?$AA?9?$AAU?$AAZ?$AA?9?$AAC?$AAy?$AAr?$AAl?$AA?$AA@ DB 'u'
	DB	00H, 'z', 00H, '-', 00H, 'U', 00H, 'Z', 00H, '-', 00H, 'C', 00H
	DB	'y', 00H, 'r', 00H, 'l', 00H, 00H, 00H	; `string'
CONST	ENDS
;	COMDAT ??_C@_1M@HEIBJJAD@?$AAm?$AAs?$AA?9?$AAB?$AAN?$AA?$AA@
CONST	SEGMENT
??_C@_1M@HEIBJJAD@?$AAm?$AAs?$AA?9?$AAB?$AAN?$AA?$AA@ DB 'm', 00H, 's', 00H
	DB	'-', 00H, 'B', 00H, 'N', 00H, 00H, 00H	; `string'
CONST	ENDS
;	COMDAT ??_C@_0BD@PJPCCAKP@atlTraceAllocation?$AA@
CONST	SEGMENT
??_C@_0BD@PJPCCAKP@atlTraceAllocation?$AA@ DB 'atlTraceAllocation', 00H ; `string'
CONST	ENDS
;	COMDAT ??_C@_1M@KEJDAAHB@?$AAs?$AAe?$AA?9?$AAS?$AAE?$AA?$AA@
CONST	SEGMENT
??_C@_1M@KEJDAAHB@?$AAs?$AAe?$AA?9?$AAS?$AAE?$AA?$AA@ DB 's', 00H, 'e', 00H
	DB	'-', 00H, 'S', 00H, 'E', 00H, 00H, 00H	; `string'
CONST	ENDS
;	COMDAT ??_C@_1BG@DGCJGJBE@?$AAa?$AAz?$AA?9?$AAA?$AAZ?$AA?9?$AAC?$AAy?$AAr?$AAl?$AA?$AA@
CONST	SEGMENT
??_C@_1BG@DGCJGJBE@?$AAa?$AAz?$AA?9?$AAA?$AAZ?$AA?9?$AAC?$AAy?$AAr?$AAl?$AA?$AA@ DB 'a'
	DB	00H, 'z', 00H, '-', 00H, 'A', 00H, 'Z', 00H, '-', 00H, 'C', 00H
	DB	'y', 00H, 'r', 00H, 'l', 00H, 00H, 00H	; `string'
CONST	ENDS
;	COMDAT ??_C@_1M@HBMHBGAK@?$AAs?$AAv?$AA?9?$AAF?$AAI?$AA?$AA@
CONST	SEGMENT
??_C@_1M@HBMHBGAK@?$AAs?$AAv?$AA?9?$AAF?$AAI?$AA?$AA@ DB 's', 00H, 'v', 00H
	DB	'-', 00H, 'F', 00H, 'I', 00H, 00H, 00H	; `string'
CONST	ENDS
;	COMDAT _LIBID_ATLLib
CONST	SEGMENT
_LIBID_ATLLib DD 044ec0535H
	DW	0400fH
	DW	011d0H
	DB	09dH
	DB	0cdH
	DB	00H
	DB	0a0H
	DB	0c9H
	DB	03H
	DB	091H
	DB	0d3H
CONST	ENDS
;	COMDAT ??_C@_1BG@LNOAKHIE@?$AAs?$AAr?$AA?9?$AAS?$AAP?$AA?9?$AAL?$AAa?$AAt?$AAn?$AA?$AA@
CONST	SEGMENT
??_C@_1BG@LNOAKHIE@?$AAs?$AAr?$AA?9?$AAS?$AAP?$AA?9?$AAL?$AAa?$AAt?$AAn?$AA?$AA@ DB 's'
	DB	00H, 'r', 00H, '-', 00H, 'S', 00H, 'P', 00H, '-', 00H, 'L', 00H
	DB	'a', 00H, 't', 00H, 'n', 00H, 00H, 00H	; `string'
CONST	ENDS
;	COMDAT ??_C@_1M@HFFAHKAD@?$AAp?$AAt?$AA?9?$AAP?$AAT?$AA?$AA@
CONST	SEGMENT
??_C@_1M@HFFAHKAD@?$AAp?$AAt?$AA?9?$AAP?$AAT?$AA?$AA@ DB 'p', 00H, 't', 00H
	DB	'-', 00H, 'P', 00H, 'T', 00H, 00H, 00H	; `string'
CONST	ENDS
;	COMDAT ??_C@_1M@BODBOGLF@?$AAn?$AAn?$AA?9?$AAN?$AAO?$AA?$AA@
CONST	SEGMENT
??_C@_1M@BODBOGLF@?$AAn?$AAn?$AA?9?$AAN?$AAO?$AA?$AA@ DB 'n', 00H, 'n', 00H
	DB	'-', 00H, 'N', 00H, 'O', 00H, 00H, 00H	; `string'
CONST	ENDS
;	COMDAT ??_C@_1M@CLLBGJH@?$AAn?$AAl?$AA?9?$AAB?$AAE?$AA?$AA@
CONST	SEGMENT
??_C@_1M@CLLBGJH@?$AAn?$AAl?$AA?9?$AAB?$AAE?$AA?$AA@ DB 'n', 00H, 'l', 00H
	DB	'-', 00H, 'B', 00H, 'E', 00H, 00H, 00H	; `string'
CONST	ENDS
;	COMDAT ??_C@_1M@HLGMDFHM@?$AAi?$AAt?$AA?9?$AAC?$AAH?$AA?$AA@
CONST	SEGMENT
??_C@_1M@HLGMDFHM@?$AAi?$AAt?$AA?9?$AAC?$AAH?$AA?$AA@ DB 'i', 00H, 't', 00H
	DB	'-', 00H, 'C', 00H, 'H', 00H, 00H, 00H	; `string'
CONST	ENDS
;	COMDAT ??_C@_1M@DNNANBDC@?$AAf?$AAr?$AA?9?$AAB?$AAE?$AA?$AA@
CONST	SEGMENT
??_C@_1M@DNNANBDC@?$AAf?$AAr?$AA?9?$AAB?$AAE?$AA?$AA@ DB 'f', 00H, 'r', 00H
	DB	'-', 00H, 'B', 00H, 'E', 00H, 00H, 00H	; `string'
CONST	ENDS
;	COMDAT ??_C@_1M@PGKJFFGL@?$AAe?$AAs?$AA?9?$AAM?$AAX?$AA?$AA@
CONST	SEGMENT
??_C@_1M@PGKJFFGL@?$AAe?$AAs?$AA?9?$AAM?$AAX?$AA?$AA@ DB 'e', 00H, 's', 00H
	DB	'-', 00H, 'M', 00H, 'X', 00H, 00H, 00H	; `string'
CONST	ENDS
;	COMDAT ??_C@_1M@LKMGMLKO@?$AAe?$AAn?$AA?9?$AAG?$AAB?$AA?$AA@
CONST	SEGMENT
??_C@_1M@LKMGMLKO@?$AAe?$AAn?$AA?9?$AAG?$AAB?$AA?$AA@ DB 'e', 00H, 'n', 00H
	DB	'-', 00H, 'G', 00H, 'B', 00H, 00H, 00H	; `string'
CONST	ENDS
;	COMDAT ??_C@_1M@CNKPNOEE@?$AAd?$AAe?$AA?9?$AAC?$AAH?$AA?$AA@
CONST	SEGMENT
??_C@_1M@CNKPNOEE@?$AAd?$AAe?$AA?9?$AAC?$AAH?$AA?$AA@ DB 'd', 00H, 'e', 00H
	DB	'-', 00H, 'C', 00H, 'H', 00H, 00H, 00H	; `string'
CONST	ENDS
;	COMDAT ??_C@_1M@BIBDDEMK@?$AAz?$AAh?$AA?9?$AAC?$AAN?$AA?$AA@
CONST	SEGMENT
??_C@_1M@BIBDDEMK@?$AAz?$AAh?$AA?9?$AAC?$AAN?$AA?$AA@ DB 'z', 00H, 'h', 00H
	DB	'-', 00H, 'C', 00H, 'N', 00H, 00H, 00H	; `string'
CONST	ENDS
;	COMDAT ??_C@_1M@PMPEAILG@?$AAa?$AAr?$AA?9?$AAI?$AAQ?$AA?$AA@
CONST	SEGMENT
??_C@_1M@PMPEAILG@?$AAa?$AAr?$AA?9?$AAI?$AAQ?$AA?$AA@ DB 'a', 00H, 'r', 00H
	DB	'-', 00H, 'I', 00H, 'Q', 00H, 00H, 00H	; `string'
CONST	ENDS
;	COMDAT ??_C@_1M@OMLEIIJB@?$AAm?$AAi?$AA?9?$AAN?$AAZ?$AA?$AA@
CONST	SEGMENT
??_C@_1M@OMLEIIJB@?$AAm?$AAi?$AA?9?$AAN?$AAZ?$AA?$AA@ DB 'm', 00H, 'i', 00H
	DB	'-', 00H, 'N', 00H, 'Z', 00H, 00H, 00H	; `string'
CONST	ENDS
;	COMDAT ??_C@_1M@LEPJNLFD@?$AAn?$AAs?$AA?9?$AAZ?$AAA?$AA?$AA@
CONST	SEGMENT
??_C@_1M@LEPJNLFD@?$AAn?$AAs?$AA?9?$AAZ?$AAA?$AA?$AA@ DB 'n', 00H, 's', 00H
	DB	'-', 00H, 'Z', 00H, 'A', 00H, 00H, 00H	; `string'
CONST	ENDS
;	COMDAT ??_C@_1O@OHDCKDDF@?$AAq?$AAu?$AAz?$AA?9?$AAB?$AAO?$AA?$AA@
CONST	SEGMENT
??_C@_1O@OHDCKDDF@?$AAq?$AAu?$AAz?$AA?9?$AAB?$AAO?$AA?$AA@ DB 'q', 00H, 'u'
	DB	00H, 'z', 00H, '-', 00H, 'B', 00H, 'O', 00H, 00H, 00H ; `string'
CONST	ENDS
;	COMDAT ??_C@_1O@MKEKBLAH@?$AAd?$AAi?$AAv?$AA?9?$AAM?$AAV?$AA?$AA@
CONST	SEGMENT
??_C@_1O@MKEKBLAH@?$AAd?$AAi?$AAv?$AA?9?$AAM?$AAV?$AA?$AA@ DB 'd', 00H, 'i'
	DB	00H, 'v', 00H, '-', 00H, 'M', 00H, 'V', 00H, 00H, 00H ; `string'
CONST	ENDS
;	COMDAT ??_C@_1O@KNHJLDJA@?$AAs?$AAy?$AAr?$AA?9?$AAS?$AAY?$AA?$AA@
CONST	SEGMENT
??_C@_1O@KNHJLDJA@?$AAs?$AAy?$AAr?$AA?9?$AAS?$AAY?$AA?$AA@ DB 's', 00H, 'y'
	DB	00H, 'r', 00H, '-', 00H, 'S', 00H, 'Y', 00H, 00H, 00H ; `string'
CONST	ENDS
;	COMDAT ??_C@_1O@KPIPDNCP@?$AAk?$AAo?$AAk?$AA?9?$AAI?$AAN?$AA?$AA@
CONST	SEGMENT
??_C@_1O@KPIPDNCP@?$AAk?$AAo?$AAk?$AA?9?$AAI?$AAN?$AA?$AA@ DB 'k', 00H, 'o'
	DB	00H, 'k', 00H, '-', 00H, 'I', 00H, 'N', 00H, 00H, 00H ; `string'
CONST	ENDS
;	COMDAT ??_C@_1M@PHGFBEPN@?$AAg?$AAl?$AA?9?$AAE?$AAS?$AA?$AA@
CONST	SEGMENT
??_C@_1M@PHGFBEPN@?$AAg?$AAl?$AA?9?$AAE?$AAS?$AA?$AA@ DB 'g', 00H, 'l', 00H
	DB	'-', 00H, 'E', 00H, 'S', 00H, 00H, 00H	; `string'
CONST	ENDS
;	COMDAT ??_C@_1M@JAIJPENP@?$AAc?$AAy?$AA?9?$AAG?$AAB?$AA?$AA@
CONST	SEGMENT
??_C@_1M@JAIJPENP@?$AAc?$AAy?$AA?9?$AAG?$AAB?$AA?$AA@ DB 'c', 00H, 'y', 00H
	DB	'-', 00H, 'G', 00H, 'B', 00H, 00H, 00H	; `string'
CONST	ENDS
;	COMDAT ??_C@_1M@FHIHCBIO@?$AAm?$AAn?$AA?9?$AAM?$AAN?$AA?$AA@
CONST	SEGMENT
??_C@_1M@FHIHCBIO@?$AAm?$AAn?$AA?9?$AAM?$AAN?$AA?$AA@ DB 'm', 00H, 'n', 00H
	DB	'-', 00H, 'M', 00H, 'N', 00H, 00H, 00H	; `string'
CONST	ENDS
;	COMDAT ??_C@_1M@NIDEAGPH@?$AAs?$AAa?$AA?9?$AAI?$AAN?$AA?$AA@
CONST	SEGMENT
??_C@_1M@NIDEAGPH@?$AAs?$AAa?$AA?9?$AAI?$AAN?$AA?$AA@ DB 's', 00H, 'a', 00H
	DB	'-', 00H, 'I', 00H, 'N', 00H, 00H, 00H	; `string'
CONST	ENDS
;	COMDAT ??_C@_1M@PBIEACPO@?$AAm?$AAr?$AA?9?$AAI?$AAN?$AA?$AA@
CONST	SEGMENT
??_C@_1M@PBIEACPO@?$AAm?$AAr?$AA?9?$AAI?$AAN?$AA?$AA@ DB 'm', 00H, 'r', 00H
	DB	'-', 00H, 'I', 00H, 'N', 00H, 00H, 00H	; `string'
CONST	ENDS
;	COMDAT ??_C@_1M@MIODLDKF@?$AAm?$AAl?$AA?9?$AAI?$AAN?$AA?$AA@
CONST	SEGMENT
??_C@_1M@MIODLDKF@?$AAm?$AAl?$AA?9?$AAI?$AAN?$AA?$AA@ DB 'm', 00H, 'l', 00H
	DB	'-', 00H, 'I', 00H, 'N', 00H, 00H, 00H	; `string'
CONST	ENDS
;	COMDAT ??_C@_1M@CDCLMGHI@?$AAk?$AAn?$AA?9?$AAI?$AAN?$AA?$AA@
CONST	SEGMENT
??_C@_1M@CDCLMGHI@?$AAk?$AAn?$AA?9?$AAI?$AAN?$AA?$AA@ DB 'k', 00H, 'n', 00H
	DB	'-', 00H, 'I', 00H, 'N', 00H, 00H, 00H	; `string'
CONST	ENDS
;	COMDAT ??_C@_1M@KFEHEPAC@?$AAt?$AAe?$AA?9?$AAI?$AAN?$AA?$AA@
CONST	SEGMENT
??_C@_1M@KFEHEPAC@?$AAt?$AAe?$AA?9?$AAI?$AAN?$AA?$AA@ DB 't', 00H, 'e', 00H
	DB	'-', 00H, 'I', 00H, 'N', 00H, 00H, 00H	; `string'
CONST	ENDS
;	COMDAT ??_C@_1M@KMKMOPHI@?$AAt?$AAa?$AA?9?$AAI?$AAN?$AA?$AA@
CONST	SEGMENT
??_C@_1M@KMKMOPHI@?$AAt?$AAa?$AA?9?$AAI?$AAN?$AA?$AA@ DB 't', 00H, 'a', 00H
	DB	'-', 00H, 'I', 00H, 'N', 00H, 00H, 00H	; `string'
CONST	ENDS
;	COMDAT ??_C@_1M@PJGPPBOG@?$AAg?$AAu?$AA?9?$AAI?$AAN?$AA?$AA@
CONST	SEGMENT
??_C@_1M@PJGPPBOG@?$AAg?$AAu?$AA?9?$AAI?$AAN?$AA?$AA@ DB 'g', 00H, 'u', 00H
	DB	'-', 00H, 'I', 00H, 'N', 00H, 00H, 00H	; `string'
CONST	ENDS
;	COMDAT ??_C@_1M@KPKKNEAH@?$AAp?$AAa?$AA?9?$AAI?$AAN?$AA?$AA@
CONST	SEGMENT
??_C@_1M@KPKKNEAH@?$AAp?$AAa?$AA?9?$AAI?$AAN?$AA?$AA@ DB 'p', 00H, 'a', 00H
	DB	'-', 00H, 'I', 00H, 'N', 00H, 00H, 00H	; `string'
CONST	ENDS
;	COMDAT ??_C@_1M@LOICPMOJ@?$AAb?$AAn?$AA?9?$AAI?$AAN?$AA?$AA@
CONST	SEGMENT
??_C@_1M@LOICPMOJ@?$AAb?$AAn?$AA?9?$AAI?$AAN?$AA?$AA@ DB 'b', 00H, 'n', 00H
	DB	'-', 00H, 'I', 00H, 'N', 00H, 00H, 00H	; `string'
CONST	ENDS
;	COMDAT ??_C@_1M@IDCCIHBC@?$AAt?$AAt?$AA?9?$AAR?$AAU?$AA?$AA@
CONST	SEGMENT
??_C@_1M@IDCCIHBC@?$AAt?$AAt?$AA?9?$AAR?$AAU?$AA?$AA@ DB 't', 00H, 't', 00H
	DB	'-', 00H, 'R', 00H, 'U', 00H, 00H, 00H	; `string'
CONST	ENDS
;	COMDAT ??_C@_1BG@NDGMJIMJ@?$AAu?$AAz?$AA?9?$AAU?$AAZ?$AA?9?$AAL?$AAa?$AAt?$AAn?$AA?$AA@
CONST	SEGMENT
??_C@_1BG@NDGMJIMJ@?$AAu?$AAz?$AA?9?$AAU?$AAZ?$AA?9?$AAL?$AAa?$AAt?$AAn?$AA?$AA@ DB 'u'
	DB	00H, 'z', 00H, '-', 00H, 'U', 00H, 'Z', 00H, '-', 00H, 'L', 00H
	DB	'a', 00H, 't', 00H, 'n', 00H, 00H, 00H	; `string'
CONST	ENDS
;	COMDAT ??_C@_1M@GIENNBFC@?$AAs?$AAw?$AA?9?$AAK?$AAE?$AA?$AA@
CONST	SEGMENT
??_C@_1M@GIENNBFC@?$AAs?$AAw?$AA?9?$AAK?$AAE?$AA?$AA@ DB 's', 00H, 'w', 00H
	DB	'-', 00H, 'K', 00H, 'E', 00H, 00H, 00H	; `string'
CONST	ENDS
;	COMDAT ??_C@_1M@NGJJLCGI@?$AAk?$AAy?$AA?9?$AAK?$AAG?$AA?$AA@
CONST	SEGMENT
??_C@_1M@NGJJLCGI@?$AAk?$AAy?$AA?9?$AAK?$AAG?$AA?$AA@ DB 'k', 00H, 'y', 00H
	DB	'-', 00H, 'K', 00H, 'G', 00H, 00H, 00H	; `string'
CONST	ENDS
;	COMDAT ??_C@_1M@FHLBGMPP@?$AAk?$AAk?$AA?9?$AAK?$AAZ?$AA?$AA@
CONST	SEGMENT
??_C@_1M@FHLBGMPP@?$AAk?$AAk?$AA?9?$AAK?$AAZ?$AA?$AA@ DB 'k', 00H, 'k', 00H
	DB	'-', 00H, 'K', 00H, 'Z', 00H, 00H, 00H	; `string'
CONST	ENDS
;	COMDAT ??_C@_1M@EIBJEEPA@?$AAm?$AAs?$AA?9?$AAM?$AAY?$AA?$AA@
CONST	SEGMENT
??_C@_1M@EIBJEEPA@?$AAm?$AAs?$AA?9?$AAM?$AAY?$AA?$AA@ DB 'm', 00H, 's', 00H
	DB	'-', 00H, 'M', 00H, 'Y', 00H, 00H, 00H	; `string'
CONST	ENDS
;	COMDAT ??_C@_1M@HEGGPBFA@?$AAs?$AAe?$AA?9?$AAN?$AAO?$AA?$AA@
CONST	SEGMENT
??_C@_1M@HEGGPBFA@?$AAs?$AAe?$AA?9?$AAN?$AAO?$AA?$AA@ DB 's', 00H, 'e', 00H
	DB	'-', 00H, 'N', 00H, 'O', 00H, 00H, 00H	; `string'
CONST	ENDS
;	COMDAT ??_C@_1M@FIKPIHFE@?$AAm?$AAt?$AA?9?$AAM?$AAT?$AA?$AA@
CONST	SEGMENT
??_C@_1M@FIKPIHFE@?$AAm?$AAt?$AA?9?$AAM?$AAT?$AA?$AA@ DB 'm', 00H, 't', 00H
	DB	'-', 00H, 'M', 00H, 'T', 00H, 00H, 00H	; `string'
CONST	ENDS
;	COMDAT ??_C@_1M@LGGJAPPB@?$AAh?$AAi?$AA?9?$AAI?$AAN?$AA?$AA@
CONST	SEGMENT
??_C@_1M@LGGJAPPB@?$AAh?$AAi?$AA?9?$AAI?$AAN?$AA?$AA@ DB 'h', 00H, 'i', 00H
	DB	'-', 00H, 'I', 00H, 'N', 00H, 00H, 00H	; `string'
CONST	ENDS
;	COMDAT ??_C@_1M@BLKMHJBI@?$AAf?$AAo?$AA?9?$AAF?$AAO?$AA?$AA@
CONST	SEGMENT
??_C@_1M@BLKMHJBI@?$AAf?$AAo?$AA?9?$AAF?$AAO?$AA?$AA@ DB 'f', 00H, 'o', 00H
	DB	'-', 00H, 'F', 00H, 'O', 00H, 00H, 00H	; `string'
CONST	ENDS
;	COMDAT ??_C@_1M@DPCLHLIE@?$AAk?$AAa?$AA?9?$AAG?$AAE?$AA?$AA@
CONST	SEGMENT
??_C@_1M@DPCLHLIE@?$AAk?$AAa?$AA?9?$AAG?$AAE?$AA?$AA@ DB 'k', 00H, 'a', 00H
	DB	'-', 00H, 'G', 00H, 'E', 00H, 00H, 00H	; `string'
CONST	ENDS
;	COMDAT ??_C@_1M@HOKAOIO@?$AAa?$AAf?$AA?9?$AAZ?$AAA?$AA?$AA@
CONST	SEGMENT
??_C@_1M@HOKAOIO@?$AAa?$AAf?$AA?9?$AAZ?$AAA?$AA?$AA@ DB 'a', 00H, 'f', 00H
	DB	'-', 00H, 'Z', 00H, 'A', 00H, 00H, 00H	; `string'
CONST	ENDS
;	COMDAT ??_C@_1M@LGPJHNJH@?$AAz?$AAu?$AA?9?$AAZ?$AAA?$AA?$AA@
CONST	SEGMENT
??_C@_1M@LGPJHNJH@?$AAz?$AAu?$AA?9?$AAZ?$AAA?$AA?$AA@ DB 'z', 00H, 'u', 00H
	DB	'-', 00H, 'Z', 00H, 'A', 00H, 00H, 00H	; `string'
CONST	ENDS
;	COMDAT ??_C@_1M@IIJCOJFA@?$AAx?$AAh?$AA?9?$AAZ?$AAA?$AA?$AA@
CONST	SEGMENT
??_C@_1M@IIJCOJFA@?$AAx?$AAh?$AA?9?$AAZ?$AAA?$AA?$AA@ DB 'x', 00H, 'h', 00H
	DB	'-', 00H, 'Z', 00H, 'A', 00H, 00H, 00H	; `string'
CONST	ENDS
;	COMDAT ??_C@_1M@IAIGNEJG@?$AAt?$AAn?$AA?9?$AAZ?$AAA?$AA?$AA@
CONST	SEGMENT
??_C@_1M@IAIGNEJG@?$AAt?$AAn?$AA?9?$AAZ?$AAA?$AA?$AA@ DB 't', 00H, 'n', 00H
	DB	'-', 00H, 'Z', 00H, 'A', 00H, 00H, 00H	; `string'
CONST	ENDS
;	COMDAT ??_C@_0BA@MCBFIDIC@atlTraceNotImpl?$AA@
CONST	SEGMENT
??_C@_0BA@MCBFIDIC@atlTraceNotImpl?$AA@ DB 'atlTraceNotImpl', 00H ; `string'
CONST	ENDS
;	COMDAT ??_C@_1M@IGHABKPI@?$AAm?$AAk?$AA?9?$AAM?$AAK?$AA?$AA@
CONST	SEGMENT
??_C@_1M@IGHABKPI@?$AAm?$AAk?$AA?9?$AAM?$AAK?$AA?$AA@ DB 'm', 00H, 'k', 00H
	DB	'-', 00H, 'M', 00H, 'K', 00H, 00H, 00H	; `string'
CONST	ENDS
;	COMDAT ??_C@_1M@MAOFCAEA@?$AAe?$AAu?$AA?9?$AAE?$AAS?$AA?$AA@
CONST	SEGMENT
??_C@_1M@MAOFCAEA@?$AAe?$AAu?$AA?9?$AAE?$AAS?$AA?$AA@ DB 'e', 00H, 'u', 00H
	DB	'-', 00H, 'E', 00H, 'S', 00H, 00H, 00H	; `string'
CONST	ENDS
;	COMDAT ??_C@_1BG@BECMDDJB@?$AAa?$AAz?$AA?9?$AAA?$AAZ?$AA?9?$AAL?$AAa?$AAt?$AAn?$AA?$AA@
CONST	SEGMENT
??_C@_1BG@BECMDDJB@?$AAa?$AAz?$AA?9?$AAA?$AAZ?$AA?9?$AAL?$AAa?$AAt?$AAn?$AA?$AA@ DB 'a'
	DB	00H, 'z', 00H, '-', 00H, 'A', 00H, 'Z', 00H, '-', 00H, 'L', 00H
	DB	'a', 00H, 't', 00H, 'n', 00H, 00H, 00H	; `string'
CONST	ENDS
;	COMDAT ??_C@_1M@GPCBKDJK@?$AAh?$AAy?$AA?9?$AAA?$AAM?$AA?$AA@
CONST	SEGMENT
??_C@_1M@GPCBKDJK@?$AAh?$AAy?$AA?9?$AAA?$AAM?$AA?$AA@ DB 'h', 00H, 'y', 00H
	DB	'-', 00H, 'A', 00H, 'M', 00H, 00H, 00H	; `string'
CONST	ENDS
;	COMDAT ??_C@_1M@KBMAIBFN@?$AAv?$AAi?$AA?9?$AAV?$AAN?$AA?$AA@
CONST	SEGMENT
??_C@_1M@KBMAIBFN@?$AAv?$AAi?$AA?9?$AAV?$AAN?$AA?$AA@ DB 'v', 00H, 'i', 00H
	DB	'-', 00H, 'V', 00H, 'N', 00H, 00H, 00H	; `string'
CONST	ENDS
;	COMDAT ??_C@_1M@FGEAHEDM@?$AAf?$AAa?$AA?9?$AAI?$AAR?$AA?$AA@
CONST	SEGMENT
??_C@_1M@FGEAHEDM@?$AAf?$AAa?$AA?9?$AAI?$AAR?$AA?$AA@ DB 'f', 00H, 'a', 00H
	DB	'-', 00H, 'I', 00H, 'R', 00H, 00H, 00H	; `string'
CONST	ENDS
;	COMDAT ??_C@_1M@IFGBIJO@?$AAl?$AAt?$AA?9?$AAL?$AAT?$AA?$AA@
CONST	SEGMENT
??_C@_1M@IFGBIJO@?$AAl?$AAt?$AA?9?$AAL?$AAT?$AA?$AA@ DB 'l', 00H, 't', 00H
	DB	'-', 00H, 'L', 00H, 'T', 00H, 00H, 00H	; `string'
CONST	ENDS
;	COMDAT ??_C@_1M@KGKKAACI@?$AAl?$AAv?$AA?9?$AAL?$AAV?$AA?$AA@
CONST	SEGMENT
??_C@_1M@KGKKAACI@?$AAl?$AAv?$AA?9?$AAL?$AAV?$AA?$AA@ DB 'l', 00H, 'v', 00H
	DB	'-', 00H, 'L', 00H, 'V', 00H, 00H, 00H	; `string'
CONST	ENDS
;	COMDAT ??_C@_1M@FKFFEDDN@?$AAe?$AAt?$AA?9?$AAE?$AAE?$AA?$AA@
CONST	SEGMENT
??_C@_1M@FKFFEDDN@?$AAe?$AAt?$AA?9?$AAE?$AAE?$AA?$AA@ DB 'e', 00H, 't', 00H
	DB	'-', 00H, 'E', 00H, 'E', 00H, 00H, 00H	; `string'
CONST	ENDS
;	COMDAT ??_C@_1M@BCFAJEAD@?$AAs?$AAl?$AA?9?$AAS?$AAI?$AA?$AA@
CONST	SEGMENT
??_C@_1M@BCFAJEAD@?$AAs?$AAl?$AA?9?$AAS?$AAI?$AA?$AA@ DB 's', 00H, 'l', 00H
	DB	'-', 00H, 'S', 00H, 'I', 00H, 00H, 00H	; `string'
CONST	ENDS
;	COMDAT ??_C@_1M@OBGLJIPL@?$AAb?$AAe?$AA?9?$AAB?$AAY?$AA?$AA@
CONST	SEGMENT
??_C@_1M@OBGLJIPL@?$AAb?$AAe?$AA?9?$AAB?$AAY?$AA?$AA@ DB 'b', 00H, 'e', 00H
	DB	'-', 00H, 'B', 00H, 'Y', 00H, 00H, 00H	; `string'
CONST	ENDS
;	COMDAT ??_C@_1M@MFMOBGI@?$AAu?$AAk?$AA?9?$AAU?$AAA?$AA?$AA@
CONST	SEGMENT
??_C@_1M@MFMOBGI@?$AAu?$AAk?$AA?9?$AAU?$AAA?$AA?$AA@ DB 'u', 00H, 'k', 00H
	DB	'-', 00H, 'U', 00H, 'A', 00H, 00H, 00H	; `string'
CONST	ENDS
;	COMDAT ??_C@_1M@LHIPCIEK@?$AAi?$AAd?$AA?9?$AAI?$AAD?$AA?$AA@
CONST	SEGMENT
??_C@_1M@LHIPCIEK@?$AAi?$AAd?$AA?9?$AAI?$AAD?$AA?$AA@ DB 'i', 00H, 'd', 00H
	DB	'-', 00H, 'I', 00H, 'D', 00H, 00H, 00H	; `string'
CONST	ENDS
;	COMDAT ??_C@_1M@OIJHDKJN@?$AAu?$AAr?$AA?9?$AAP?$AAK?$AA?$AA@
CONST	SEGMENT
??_C@_1M@OIJHDKJN@?$AAu?$AAr?$AA?9?$AAP?$AAK?$AA?$AA@ DB 'u', 00H, 'r', 00H
	DB	'-', 00H, 'P', 00H, 'K', 00H, 00H, 00H	; `string'
CONST	ENDS
;	COMDAT ??_C@_1M@MFLCCMPB@?$AAt?$AAr?$AA?9?$AAT?$AAR?$AA?$AA@
CONST	SEGMENT
??_C@_1M@MFLCCMPB@?$AAt?$AAr?$AA?9?$AAT?$AAR?$AA?$AA@ DB 't', 00H, 'r', 00H
	DB	'-', 00H, 'T', 00H, 'R', 00H, 00H, 00H	; `string'
CONST	ENDS
;	COMDAT ??_C@_1M@MKJKIKCL@?$AAt?$AAh?$AA?9?$AAT?$AAH?$AA?$AA@
CONST	SEGMENT
??_C@_1M@MKJKIKCL@?$AAt?$AAh?$AA?9?$AAT?$AAH?$AA?$AA@ DB 't', 00H, 'h', 00H
	DB	'-', 00H, 'T', 00H, 'H', 00H, 00H, 00H	; `string'
CONST	ENDS
;	COMDAT ??_C@_1M@GIAKDKJK@?$AAs?$AAv?$AA?9?$AAS?$AAE?$AA?$AA@
CONST	SEGMENT
??_C@_1M@GIAKDKJK@?$AAs?$AAv?$AA?9?$AAS?$AAE?$AA?$AA@ DB 's', 00H, 'v', 00H
	DB	'-', 00H, 'S', 00H, 'E', 00H, 00H, 00H	; `string'
CONST	ENDS
;	COMDAT ??_C@_1M@LJMAMNPJ@?$AAs?$AAq?$AA?9?$AAA?$AAL?$AA?$AA@
CONST	SEGMENT
??_C@_1M@LJMAMNPJ@?$AAs?$AAq?$AA?9?$AAA?$AAL?$AA?$AA@ DB 's', 00H, 'q', 00H
	DB	'-', 00H, 'A', 00H, 'L', 00H, 00H, 00H	; `string'
CONST	ENDS
;	COMDAT ??_C@_1M@FKIFEHPB@?$AAs?$AAk?$AA?9?$AAS?$AAK?$AA?$AA@
CONST	SEGMENT
??_C@_1M@FKIFEHPB@?$AAs?$AAk?$AA?9?$AAS?$AAK?$AA?$AA@ DB 's', 00H, 'k', 00H
	DB	'-', 00H, 'S', 00H, 'K', 00H, 00H, 00H	; `string'
CONST	ENDS
;	COMDAT ??_C@_1M@LILEEOGM@?$AAh?$AAr?$AA?9?$AAH?$AAR?$AA?$AA@
CONST	SEGMENT
??_C@_1M@LILEEOGM@?$AAh?$AAr?$AA?9?$AAH?$AAR?$AA?$AA@ DB 'h', 00H, 'r', 00H
	DB	'-', 00H, 'H', 00H, 'R', 00H, 00H, 00H	; `string'
CONST	ENDS
;	COMDAT ??_C@_1M@IDNNEJMM@?$AAr?$AAu?$AA?9?$AAR?$AAU?$AA?$AA@
CONST	SEGMENT
??_C@_1M@IDNNEJMM@?$AAr?$AAu?$AA?9?$AAR?$AAU?$AA?$AA@ DB 'r', 00H, 'u', 00H
	DB	'-', 00H, 'R', 00H, 'U', 00H, 00H, 00H	; `string'
CONST	ENDS
;	COMDAT ??_C@_1M@IMPFOPBG@?$AAr?$AAo?$AA?9?$AAR?$AAO?$AA?$AA@
CONST	SEGMENT
??_C@_1M@IMPFOPBG@?$AAr?$AAo?$AA?9?$AAR?$AAO?$AA?$AA@ DB 'r', 00H, 'o', 00H
	DB	'-', 00H, 'R', 00H, 'O', 00H, 00H, 00H	; `string'
CONST	ENDS
;	COMDAT ??_C@_1M@BOCFIGEP@?$AAp?$AAt?$AA?9?$AAB?$AAR?$AA?$AA@
CONST	SEGMENT
??_C@_1M@BOCFIGEP@?$AAp?$AAt?$AA?9?$AAB?$AAR?$AA?$AA@ DB 'p', 00H, 't', 00H
	DB	'-', 00H, 'B', 00H, 'R', 00H, 00H, 00H	; `string'
CONST	ENDS
;	COMDAT ??_C@_1M@NEIEMEGP@?$AAp?$AAl?$AA?9?$AAP?$AAL?$AA?$AA@
CONST	SEGMENT
??_C@_1M@NEIEMEGP@?$AAp?$AAl?$AA?9?$AAP?$AAL?$AA?$AA@ DB 'p', 00H, 'l', 00H
	DB	'-', 00H, 'P', 00H, 'L', 00H, 00H, 00H	; `string'
CONST	ENDS
;	COMDAT ??_C@_1M@EANAGDL@?$AAn?$AAb?$AA?9?$AAN?$AAO?$AA?$AA@
CONST	SEGMENT
??_C@_1M@EANAGDL@?$AAn?$AAb?$AA?9?$AAN?$AAO?$AA?$AA@ DB 'n', 00H, 'b', 00H
	DB	'-', 00H, 'N', 00H, 'O', 00H, 00H, 00H	; `string'
CONST	ENDS
;	COMDAT ??_C@_1M@IHBJJGG@?$AAn?$AAl?$AA?9?$AAN?$AAL?$AA?$AA@
CONST	SEGMENT
??_C@_1M@IHBJJGG@?$AAn?$AAl?$AA?9?$AAN?$AAL?$AA?$AA@ DB 'n', 00H, 'l', 00H
	DB	'-', 00H, 'N', 00H, 'L', 00H, 00H, 00H	; `string'
CONST	ENDS
;	COMDAT ??_C@_1M@JLOOOEGK@?$AAk?$AAo?$AA?9?$AAK?$AAR?$AA?$AA@
CONST	SEGMENT
??_C@_1M@JLOOOEGK@?$AAk?$AAo?$AA?9?$AAK?$AAR?$AA?$AA@ DB 'k', 00H, 'o', 00H
	DB	'-', 00H, 'K', 00H, 'R', 00H, 00H, 00H	; `string'
CONST	ENDS
;	COMDAT ??_C@_1M@HPNHIDJI@?$AAj?$AAa?$AA?9?$AAJ?$AAP?$AA?$AA@
CONST	SEGMENT
??_C@_1M@HPNHIDJI@?$AAj?$AAa?$AA?9?$AAJ?$AAP?$AA?$AA@ DB 'j', 00H, 'a', 00H
	DB	'-', 00H, 'J', 00H, 'P', 00H, 00H, 00H	; `string'
CONST	ENDS
;	COMDAT ??_C@_1M@MADIPODN@?$AAi?$AAt?$AA?9?$AAI?$AAT?$AA?$AA@
CONST	SEGMENT
??_C@_1M@MADIPODN@?$AAi?$AAt?$AA?9?$AAI?$AAT?$AA?$AA@ DB 'i', 00H, 't', 00H
	DB	'-', 00H, 'I', 00H, 'T', 00H, 00H, 00H	; `string'
CONST	ENDS
;	COMDAT ??_C@_1M@LPDDNNPN@?$AAi?$AAs?$AA?9?$AAI?$AAS?$AA?$AA@
CONST	SEGMENT
??_C@_1M@LPDDNNPN@?$AAi?$AAs?$AA?9?$AAI?$AAS?$AA?$AA@ DB 'i', 00H, 's', 00H
	DB	'-', 00H, 'I', 00H, 'S', 00H, 00H, 00H	; `string'
CONST	ENDS
;	COMDAT ??_C@_1M@MHLPGNKM@?$AAh?$AAu?$AA?9?$AAH?$AAU?$AA?$AA@
CONST	SEGMENT
??_C@_1M@MHLPGNKM@?$AAh?$AAu?$AA?9?$AAH?$AAU?$AA?$AA@ DB 'h', 00H, 'u', 00H
	DB	'-', 00H, 'H', 00H, 'U', 00H, 00H, 00H	; `string'
CONST	ENDS
;	COMDAT ??_C@_1M@GFMCHPE@?$AAh?$AAe?$AA?9?$AAI?$AAL?$AA?$AA@
CONST	SEGMENT
??_C@_1M@GFMCHPE@?$AAh?$AAe?$AA?9?$AAI?$AAL?$AA?$AA@ DB 'h', 00H, 'e', 00H
	DB	'-', 00H, 'I', 00H, 'L', 00H, 00H, 00H	; `string'
CONST	ENDS
;	COMDAT ??_C@_1M@GLIPPMAC@?$AAf?$AAr?$AA?9?$AAF?$AAR?$AA?$AA@
CONST	SEGMENT
??_C@_1M@GLIPPMAC@?$AAf?$AAr?$AA?9?$AAF?$AAR?$AA?$AA@ DB 'f', 00H, 'r', 00H
	DB	'-', 00H, 'F', 00H, 'R', 00H, 00H, 00H	; `string'
CONST	ENDS
;	COMDAT ??_C@_1M@DDNJFGID@?$AAf?$AAi?$AA?9?$AAF?$AAI?$AA?$AA@
CONST	SEGMENT
??_C@_1M@DDNJFGID@?$AAf?$AAi?$AA?9?$AAF?$AAI?$AA?$AA@ DB 'f', 00H, 'i', 00H
	DB	'-', 00H, 'F', 00H, 'I', 00H, 00H, 00H	; `string'
CONST	ENDS
;	COMDAT ??_C@_1M@BMHNFIME@?$AAe?$AAn?$AA?9?$AAU?$AAS?$AA?$AA@
CONST	SEGMENT
??_C@_1M@BMHNFIME@?$AAe?$AAn?$AA?9?$AAU?$AAS?$AA?$AA@ DB 'e', 00H, 'n', 00H
	DB	'-', 00H, 'U', 00H, 'S', 00H, 00H, 00H	; `string'
CONST	ENDS
;	COMDAT ??_C@_1M@OOCKEMAM@?$AAe?$AAl?$AA?9?$AAG?$AAR?$AA?$AA@
CONST	SEGMENT
??_C@_1M@OOCKEMAM@?$AAe?$AAl?$AA?9?$AAG?$AAR?$AA?$AA@ DB 'e', 00H, 'l', 00H
	DB	'-', 00H, 'G', 00H, 'R', 00H, 00H, 00H	; `string'
CONST	ENDS
;	COMDAT ??_C@_1M@MCMADGCB@?$AAd?$AAe?$AA?9?$AAD?$AAE?$AA?$AA@
CONST	SEGMENT
??_C@_1M@MCMADGCB@?$AAd?$AAe?$AA?9?$AAD?$AAE?$AA?$AA@ DB 'd', 00H, 'e', 00H
	DB	'-', 00H, 'D', 00H, 'E', 00H, 00H, 00H	; `string'
CONST	ENDS
;	COMDAT ??_C@_1M@CLPEOBGI@?$AAd?$AAa?$AA?9?$AAD?$AAK?$AA?$AA@
CONST	SEGMENT
??_C@_1M@CLPEOBGI@?$AAd?$AAa?$AA?9?$AAD?$AAK?$AA?$AA@ DB 'd', 00H, 'a', 00H
	DB	'-', 00H, 'D', 00H, 'K', 00H, 00H, 00H	; `string'
CONST	ENDS
;	COMDAT ??_C@_1M@IJJHFJHA@?$AAc?$AAs?$AA?9?$AAC?$AAZ?$AA?$AA@
CONST	SEGMENT
??_C@_1M@IJJHFJHA@?$AAc?$AAs?$AA?9?$AAC?$AAZ?$AA?$AA@ DB 'c', 00H, 's', 00H
	DB	'-', 00H, 'C', 00H, 'Z', 00H, 00H, 00H	; `string'
CONST	ENDS
;	COMDAT ??_C@_1M@CLNBBOPM@?$AAz?$AAh?$AA?9?$AAT?$AAW?$AA?$AA@
CONST	SEGMENT
??_C@_1M@CLNBBOPM@?$AAz?$AAh?$AA?9?$AAT?$AAW?$AA?$AA@ DB 'z', 00H, 'h', 00H
	DB	'-', 00H, 'T', 00H, 'W', 00H, 00H, 00H	; `string'
CONST	ENDS
;	COMDAT ??_C@_1M@BJNKEDC@?$AAc?$AAa?$AA?9?$AAE?$AAS?$AA?$AA@
CONST	SEGMENT
??_C@_1M@BJNKEDC@?$AAc?$AAa?$AA?9?$AAE?$AAS?$AA?$AA@ DB 'c', 00H, 'a', 00H
	DB	'-', 00H, 'E', 00H, 'S', 00H, 00H, 00H	; `string'
CONST	ENDS
;	COMDAT ??_C@_1M@FFFIGIGK@?$AAb?$AAg?$AA?9?$AAB?$AAG?$AA?$AA@
CONST	SEGMENT
??_C@_1M@FFFIGIGK@?$AAb?$AAg?$AA?9?$AAB?$AAG?$AA?$AA@ DB 'b', 00H, 'g', 00H
	DB	'-', 00H, 'B', 00H, 'G', 00H, 00H, 00H	; `string'
CONST	ENDS
;	COMDAT ??_C@_1M@OKAHONE@?$AAa?$AAr?$AA?9?$AAS?$AAA?$AA?$AA@
CONST	SEGMENT
??_C@_1M@OKAHONE@?$AAa?$AAr?$AA?9?$AAS?$AAA?$AA?$AA@ DB 'a', 00H, 'r', 00H
	DB	'-', 00H, 'S', 00H, 'A', 00H, 00H, 00H	; `string'
CONST	ENDS
;	COMDAT ??_C@_11LOCGONAA@?$AA?$AA@
CONST	SEGMENT
??_C@_11LOCGONAA@?$AA?$AA@ DB 00H, 00H			; `string'
CONST	ENDS
;	COMDAT ??_C@_17KPNDCPAF@?$AAd?$AAi?$AAv?$AA?$AA@
CONST	SEGMENT
??_C@_17KPNDCPAF@?$AAd?$AAi?$AAv?$AA?$AA@ DB 'd', 00H, 'i', 00H, 'v', 00H
	DB	00H, 00H					; `string'
CONST	ENDS
;	COMDAT ??_C@_17FFBJICPL@?$AAs?$AAy?$AAr?$AA?$AA@
CONST	SEGMENT
??_C@_17FFBJICPL@?$AAs?$AAy?$AAr?$AA?$AA@ DB 's', 00H, 'y', 00H, 'r', 00H
	DB	00H, 00H					; `string'
CONST	ENDS
;	COMDAT ??_C@_17CNJFBPG@?$AAk?$AAo?$AAk?$AA?$AA@
CONST	SEGMENT
??_C@_17CNJFBPG@?$AAk?$AAo?$AAk?$AA?$AA@ DB 'k', 00H, 'o', 00H, 'k', 00H, 00H
	DB	00H						; `string'
CONST	ENDS
;	COMDAT ??_C@_0P@LNEGBOLO@atlTraceSnapin?$AA@
CONST	SEGMENT
??_C@_0P@LNEGBOLO@atlTraceSnapin?$AA@ DB 'atlTraceSnapin', 00H ; `string'
CONST	ENDS
;	COMDAT ??_C@_15CKDMCJAF@?$AAg?$AAl?$AA?$AA@
CONST	SEGMENT
??_C@_15CKDMCJAF@?$AAg?$AAl?$AA?$AA@ DB 'g', 00H, 'l', 00H, 00H, 00H ; `string'
CONST	ENDS
;	COMDAT ??_C@_15CBKOMCOI@?$AAm?$AAn?$AA?$AA@
CONST	SEGMENT
??_C@_15CBKOMCOI@?$AAm?$AAn?$AA?$AA@ DB 'm', 00H, 'n', 00H, 00H, 00H ; `string'
CONST	ENDS
;	COMDAT ??_C@_15EABBLBFF@?$AAs?$AAa?$AA?$AA@
CONST	SEGMENT
??_C@_15EABBLBFF@?$AAs?$AAa?$AA?$AA@ DB 's', 00H, 'a', 00H, 00H, 00H ; `string'
CONST	ENDS
;	COMDAT ??_C@_15DLGBCKMP@?$AAm?$AAr?$AA?$AA@
CONST	SEGMENT
??_C@_15DLGBCKMP@?$AAm?$AAr?$AA?$AA@ DB 'm', 00H, 'r', 00H, 00H, 00H ; `string'
CONST	ENDS
;	COMDAT ??_C@_15PHPHCBPF@?$AAk?$AAn?$AA?$AA@
CONST	SEGMENT
??_C@_15PHPHCBPF@?$AAk?$AAn?$AA?$AA@ DB 'k', 00H, 'n', 00H, 00H, 00H ; `string'
CONST	ENDS
;	COMDAT ??_C@_15NCHGBGLK@?$AAt?$AAe?$AA?$AA@
CONST	SEGMENT
??_C@_15NCHGBGLK@?$AAt?$AAe?$AA?$AA@ DB 't', 00H, 'e', 00H, 00H, 00H ; `string'
CONST	ENDS
;	COMDAT ??_C@_15FNBEIBON@?$AAt?$AAa?$AA?$AA@
CONST	SEGMENT
??_C@_15FNBEIBON@?$AAt?$AAa?$AA?$AA@ DB 't', 00H, 'a', 00H, 00H, 00H ; `string'
CONST	ENDS
;	COMDAT ??_C@_15HCNDBBA@?$AAg?$AAu?$AA?$AA@
CONST	SEGMENT
??_C@_15HCNDBBA@?$AAg?$AAu?$AA?$AA@ DB 'g', 00H, 'u', 00H, 00H, 00H ; `string'
CONST	ENDS
;	COMDAT ??_C@_15MGIFMDPL@?$AAp?$AAa?$AA?$AA@
CONST	SEGMENT
??_C@_15MGIFMDPL@?$AAp?$AAa?$AA?$AA@ DB 'p', 00H, 'a', 00H, 00H, 00H ; `string'
CONST	ENDS
;	COMDAT ??_C@_15DKNDCGEA@?$AAt?$AAt?$AA?$AA@
CONST	SEGMENT
??_C@_15DKNDCGEA@?$AAt?$AAt?$AA?$AA@ DB 't', 00H, 't', 00H, 00H, 00H ; `string'
CONST	ENDS
;	COMDAT ??_C@_15BBFAICNG@?$AAu?$AAz?$AA?$AA@
CONST	SEGMENT
??_C@_15BBFAICNG@?$AAu?$AAz?$AA?$AA@ DB 'u', 00H, 'z', 00H, 00H, 00H ; `string'
CONST	ENDS
;	COMDAT ??_C@_15DFGDLJBG@?$AAs?$AAw?$AA?$AA@
CONST	SEGMENT
??_C@_15DFGDLJBG@?$AAs?$AAw?$AA?$AA@ DB 's', 00H, 'w', 00H, 00H, 00H ; `string'
CONST	ENDS
;	COMDAT ??_C@_15DKDJEOND@?$AAk?$AAy?$AA?$AA@
CONST	SEGMENT
??_C@_15DKDJEOND@?$AAk?$AAy?$AA?$AA@ DB 'k', 00H, 'y', 00H, 00H, 00H ; `string'
CONST	ENDS
;	COMDAT ??_C@_15MACJNBMH@?$AAk?$AAk?$AA?$AA@
CONST	SEGMENT
??_C@_15MACJNBMH@?$AAk?$AAk?$AA?$AA@ DB 'k', 00H, 'k', 00H, 00H, 00H ; `string'
CONST	ENDS
;	COMDAT ??_C@_15IDNNENKK@?$AAm?$AAs?$AA?$AA@
CONST	SEGMENT
??_C@_15IDNNENKK@?$AAm?$AAs?$AA?$AA@ DB 'm', 00H, 's', 00H, 00H, 00H ; `string'
CONST	ENDS
;	COMDAT ??_C@_15OMLEGLOC@?$AAh?$AAi?$AA?$AA@
CONST	SEGMENT
??_C@_15OMLEGLOC@?$AAh?$AAi?$AA?$AA@ DB 'h', 00H, 'i', 00H, 00H, 00H ; `string'
CONST	ENDS
;	COMDAT ??_C@_15PDNFFFEO@?$AAf?$AAo?$AA?$AA@
CONST	SEGMENT
??_C@_15PDNFFFEO@?$AAf?$AAo?$AA?$AA@ DB 'f', 00H, 'o', 00H, 00H, 00H ; `string'
CONST	ENDS
;	COMDAT ??_C@_15KPJEDBKD@?$AAk?$AAa?$AA?$AA@
CONST	SEGMENT
??_C@_15KPJEDBKD@?$AAk?$AAa?$AA?$AA@ DB 'k', 00H, 'a', 00H, 00H, 00H ; `string'
CONST	ENDS
;	COMDAT ??_C@_15JDNICKHM@?$AAa?$AAf?$AA?$AA@
CONST	SEGMENT
??_C@_15JDNICKHM@?$AAa?$AAf?$AA?$AA@ DB 'a', 00H, 'f', 00H, 00H, 00H ; `string'
CONST	ENDS
;	COMDAT ??_C@_15BGHADCNK@?$AAm?$AAk?$AA?$AA@
CONST	SEGMENT
??_C@_15BGHADCNK@?$AAm?$AAk?$AA?$AA@ DB 'm', 00H, 'k', 00H, 00H, 00H ; `string'
CONST	ENDS
;	COMDAT ??_C@_15EKOFJABL@?$AAe?$AAu?$AA?$AA@
CONST	SEGMENT
??_C@_15EKOFJABL@?$AAe?$AAu?$AA?$AA@ DB 'e', 00H, 'u', 00H, 00H, 00H ; `string'
CONST	ENDS
;	COMDAT ??_C@_15IJBHMCFL@?$AAa?$AAz?$AA?$AA@
CONST	SEGMENT
??_C@_15IJBHMCFL@?$AAa?$AAz?$AA?$AA@ DB 'a', 00H, 'z', 00H, 00H, 00H ; `string'
CONST	ENDS
;	COMDAT ??_C@_15LMKNDMHN@?$AAh?$AAy?$AA?$AA@
CONST	SEGMENT
??_C@_15LMKNDMHN@?$AAh?$AAy?$AA?$AA@ DB 'h', 00H, 'y', 00H, 00H, 00H ; `string'
CONST	ENDS
;	COMDAT ??_C@_15NFGIAIAJ@?$AAv?$AAi?$AA?$AA@
CONST	SEGMENT
??_C@_15NFGIAIAJ@?$AAv?$AAi?$AA?$AA@ DB 'v', 00H, 'i', 00H, 00H, 00H ; `string'
CONST	ENDS
;	COMDAT ??_C@_15BDAKCCHN@?$AAf?$AAa?$AA?$AA@
CONST	SEGMENT
??_C@_15BDAKCCHN@?$AAf?$AAa?$AA?$AA@ DB 'f', 00H, 'a', 00H, 00H, 00H ; `string'
CONST	ENDS
;	COMDAT ??_C@_15NFFGKGLG@?$AAl?$AAt?$AA?$AA@
CONST	SEGMENT
??_C@_15NFFGKGLG@?$AAl?$AAt?$AA?$AA@ DB 'l', 00H, 't', 00H, 00H, 00H ; `string'
CONST	ENDS
;	COMDAT ??_C@_15HPFPGODN@?$AAl?$AAv?$AA?$AA@
CONST	SEGMENT
??_C@_15HPFPGODN@?$AAl?$AAv?$AA?$AA@ DB 'l', 00H, 'v', 00H, 00H, 00H ; `string'
CONST	ENDS
;	COMDAT _IID_IRegistrar
CONST	SEGMENT
_IID_IRegistrar DD 044ec053bH
	DW	0400fH
	DW	011d0H
	DB	09dH
	DB	0cdH
	DB	00H
	DB	0a0H
	DB	0c9H
	DB	03H
	DB	091H
	DB	0d3H
CONST	ENDS
;	COMDAT ??_C@_15PCFJPHHO@?$AAe?$AAt?$AA?$AA@
CONST	SEGMENT
??_C@_15PCFJPHHO@?$AAe?$AAt?$AA?$AA@ DB 'e', 00H, 't', 00H, 00H, 00H ; `string'
CONST	ENDS
;	COMDAT ??_C@_15LCHLGJII@?$AAs?$AAl?$AA?$AA@
CONST	SEGMENT
??_C@_15LCHLGJII@?$AAs?$AAl?$AA?$AA@ DB 's', 00H, 'l', 00H, 00H, 00H ; `string'
CONST	ENDS
;	COMDAT ??_C@_15HPJPHDM@?$AAb?$AAe?$AA?$AA@
CONST	SEGMENT
??_C@_15HPJPHDM@?$AAb?$AAe?$AA?$AA@ DB 'b', 00H, 'e', 00H, 00H, 00H ; `string'
CONST	ENDS
;	COMDAT ??_C@_15PJPFLCCM@?$AAu?$AAk?$AA?$AA@
CONST	SEGMENT
??_C@_15PJPFLCCM@?$AAu?$AAk?$AA?$AA@ DB 'u', 00H, 'k', 00H, 00H, 00H ; `string'
CONST	ENDS
;	COMDAT ??_C@_15NFICGAJK@?$AAi?$AAd?$AA?$AA@
CONST	SEGMENT
??_C@_15NFICGAJK@?$AAi?$AAd?$AA?$AA@ DB 'i', 00H, 'd', 00H, 00H, 00H ; `string'
CONST	ENDS
;	COMDAT ??_C@_15NEOEKKDJ@?$AAu?$AAr?$AA?$AA@
CONST	SEGMENT
??_C@_15NEOEKKDJ@?$AAu?$AAr?$AA?$AA@ DB 'u', 00H, 'r', 00H, 00H, 00H ; `string'
CONST	ENDS
;	COMDAT ??_C@_15BPLIHJJM@?$AAt?$AAr?$AA?$AA@
CONST	SEGMENT
??_C@_15BPLIHJJM@?$AAt?$AAr?$AA?$AA@ DB 't', 00H, 'r', 00H, 00H, 00H ; `string'
CONST	ENDS
;	COMDAT ??_C@_15CABMMOGH@?$AAt?$AAh?$AA?$AA@
CONST	SEGMENT
??_C@_15CABMMOGH@?$AAt?$AAh?$AA?$AA@ DB 't', 00H, 'h', 00H, 00H, 00H ; `string'
CONST	ENDS
;	COMDAT ??_C@_15INNPNOHD@?$AAs?$AAv?$AA?$AA@
CONST	SEGMENT
??_C@_15INNPNOHD@?$AAs?$AAv?$AA?$AA@ DB 's', 00H, 'v', 00H, 00H, 00H ; `string'
CONST	ENDS
;	COMDAT ??_C@_15BAAIOGMK@?$AAs?$AAq?$AA?$AA@
CONST	SEGMENT
??_C@_15BAAIOGMK@?$AAs?$AAq?$AA?$AA@ DB 's', 00H, 'q', 00H, 00H, 00H ; `string'
CONST	ENDS
;	COMDAT ??_C@_15CPKMFBDB@?$AAs?$AAk?$AA?$AA@
CONST	SEGMENT
??_C@_15CPKMFBDB@?$AAs?$AAk?$AA?$AA@ DB 's', 00H, 'k', 00H, 00H, 00H ; `string'
CONST	ENDS
;	COMDAT ??_C@_15GLKMLLHM@?$AAh?$AAr?$AA?$AA@
CONST	SEGMENT
??_C@_15GLKMLLHM@?$AAh?$AAr?$AA?$AA@ DB 'h', 00H, 'r', 00H, 00H, 00H ; `string'
CONST	ENDS
;	COMDAT ??_C@_15FEDGKCDI@?$AAr?$AAu?$AA?$AA@
CONST	SEGMENT
??_C@_15FEDGKCDI@?$AAr?$AAu?$AA?$AA@ DB 'r', 00H, 'u', 00H, 00H, 00H ; `string'
CONST	ENDS
;	COMDAT ??_C@_15GLJCBFMD@?$AAr?$AAo?$AA?$AA@
CONST	SEGMENT
??_C@_15GLJCBFMD@?$AAr?$AAo?$AA?$AA@ DB 'r', 00H, 'o', 00H, 00H, 00H ; `string'
CONST	ENDS
;	COMDAT ??_C@_15KBECGEFG@?$AAp?$AAt?$AA?$AA@
CONST	SEGMENT
??_C@_15KBECGEFG@?$AAp?$AAt?$AA?$AA@ DB 'p', 00H, 't', 00H, 00H, 00H ; `string'
CONST	ENDS
;	COMDAT ??_C@_15DEOPBLCG@?$AAp?$AAl?$AA?$AA@
CONST	SEGMENT
??_C@_15DEOPBLCG@?$AAp?$AAl?$AA?$AA@ DB 'p', 00H, 'l', 00H, 00H, 00H ; `string'
CONST	ENDS
;	COMDAT ??_C@_15BPIGNHCD@?$AAn?$AAo?$AA?$AA@
CONST	SEGMENT
??_C@_15BPIGNHCD@?$AAn?$AAo?$AA?$AA@ DB 'n', 00H, 'o', 00H, 00H, 00H ; `string'
CONST	ENDS
;	COMDAT ??_C@_15NDDHIMN@?$AAn?$AAl?$AA?$AA@
CONST	SEGMENT
??_C@_15NDDHIMN@?$AAn?$AAl?$AA?$AA@ DB 'n', 00H, 'l', 00H, 00H, 00H ; `string'
CONST	ENDS
;	COMDAT ??_C@_15EPELEGJA@?$AAk?$AAo?$AA?$AA@
CONST	SEGMENT
??_C@_15EPELEGJA@?$AAk?$AAo?$AA?$AA@ DB 'k', 00H, 'o', 00H, 00H, 00H ; `string'
CONST	ENDS
;	COMDAT ??_C@_15GEMIOCAG@?$AAj?$AAa?$AA?$AA@
CONST	SEGMENT
??_C@_15GEMIOCAG@?$AAj?$AAa?$AA?$AA@ DB 'j', 00H, 'a', 00H, 00H, 00H ; `string'
CONST	ENDS
;	COMDAT ??_C@_0BD@KOADKDIA@atlTraceDBProvider?$AA@
CONST	SEGMENT
??_C@_0BD@KOADKDIA@atlTraceDBProvider?$AA@ DB 'atlTraceDBProvider', 00H ; `string'
CONST	ENDS
;	COMDAT ??_C@_15IFJLDHAF@?$AAi?$AAt?$AA?$AA@
CONST	SEGMENT
??_C@_15IFJLDHAF@?$AAi?$AAt?$AA?$AA@ DB 'i', 00H, 't', 00H, 00H, 00H ; `string'
CONST	ENDS
;	COMDAT ??_C@_15BIEMAPLM@?$AAi?$AAs?$AA?$AA@
CONST	SEGMENT
??_C@_15BIEMAPLM@?$AAi?$AAs?$AA?$AA@ DB 'i', 00H, 's', 00H, 00H, 00H ; `string'
CONST	ENDS
;	COMDAT ??_C@_15PGHLIDMF@?$AAh?$AAu?$AA?$AA@
CONST	SEGMENT
??_C@_15PGHLIDMF@?$AAh?$AAu?$AA?$AA@ DB 'h', 00H, 'u', 00H, 00H, 00H ; `string'
CONST	ENDS
;	COMDAT ??_C@_15KGGCNEFK@?$AAh?$AAe?$AA?$AA@
CONST	SEGMENT
??_C@_15KGGCNEFK@?$AAh?$AAe?$AA?$AA@ DB 'h', 00H, 'e', 00H, 00H, 00H ; `string'
CONST	ENDS
;	COMDAT ??_C@_15FBKGNKAM@?$AAf?$AAr?$AA?$AA@
CONST	SEGMENT
??_C@_15FBKGNKAM@?$AAf?$AAr?$AA?$AA@ DB 'f', 00H, 'r', 00H, 00H, 00H ; `string'
CONST	ENDS
;	COMDAT ??_C@_15NGLOAKJC@?$AAf?$AAi?$AA?$AA@
CONST	SEGMENT
??_C@_15NGLOAKJC@?$AAf?$AAi?$AA?$AA@ DB 'f', 00H, 'i', 00H, 00H, 00H ; `string'
CONST	ENDS
;	COMDAT ??_C@_15GPIOMPMH@?$AAe?$AAs?$AA?$AA@
CONST	SEGMENT
??_C@_15GPIOMPMH@?$AAe?$AAs?$AA?$AA@ DB 'e', 00H, 's', 00H, 00H, 00H ; `string'
CONST	ENDS
;	COMDAT ??_C@_15MNPNEAIF@?$AAe?$AAn?$AA?$AA@
CONST	SEGMENT
??_C@_15MNPNEAIF@?$AAe?$AAn?$AA?$AA@ DB 'e', 00H, 'n', 00H, 00H, 00H ; `string'
CONST	ENDS
;	COMDAT ??_C@_15GHPEIIAO@?$AAe?$AAl?$AA?$AA@
CONST	SEGMENT
??_C@_15GHPEIIAO@?$AAe?$AAl?$AA?$AA@ DB 'e', 00H, 'l', 00H, 00H, 00H ; `string'
CONST	ENDS
;	COMDAT ??_C@_15NBKABECB@?$AAd?$AAe?$AA?$AA@
CONST	SEGMENT
??_C@_15NBKABECB@?$AAd?$AAe?$AA?$AA@ DB 'd', 00H, 'e', 00H, 00H, 00H ; `string'
CONST	ENDS
;	COMDAT ??_C@_15FOMCIDHG@?$AAd?$AAa?$AA?$AA@
CONST	SEGMENT
??_C@_15FOMCIDHG@?$AAd?$AAa?$AA?$AA@ DB 'd', 00H, 'a', 00H, 00H, 00H ; `string'
CONST	ENDS
;	COMDAT ??_C@_15LJNHCMNK@?$AAc?$AAs?$AA?$AA@
CONST	SEGMENT
??_C@_15LJNHCMNK@?$AAc?$AAs?$AA?$AA@ DB 'c', 00H, 's', 00H, 00H, 00H ; `string'
CONST	ENDS
;	COMDAT ??_C@_1O@BPEAJADD@?$AAz?$AAh?$AA?9?$AAC?$AAH?$AAS?$AA?$AA@
CONST	SEGMENT
??_C@_1O@BPEAJADD@?$AAz?$AAh?$AA?9?$AAC?$AAH?$AAS?$AA?$AA@ DB 'z', 00H, 'h'
	DB	00H, '-', 00H, 'C', 00H, 'H', 00H, 'S', 00H, 00H, 00H ; `string'
CONST	ENDS
;	COMDAT ??_C@_15EDMHLDMO@?$AAc?$AAa?$AA?$AA@
CONST	SEGMENT
??_C@_15EDMHLDMO@?$AAc?$AAa?$AA?$AA@ DB 'c', 00H, 'a', 00H, 00H, 00H ; `string'
CONST	ENDS
;	COMDAT ??_C@_15KNPADPLH@?$AAb?$AAg?$AA?$AA@
CONST	SEGMENT
??_C@_15KNPADPLH@?$AAb?$AAg?$AA?$AA@ DB 'b', 00H, 'g', 00H, 00H, 00H ; `string'
CONST	ENDS
;	COMDAT ??_C@_15EMKDOKLE@?$AAa?$AAr?$AA?$AA@
CONST	SEGMENT
??_C@_15EMKDOKLE@?$AAa?$AAr?$AA?$AA@ DB 'a', 00H, 'r', 00H, 00H, 00H ; `string'
CONST	ENDS
;	COMDAT __pAtlLcidToLocaleNameTable
CONST	SEGMENT
__pAtlLcidToLocaleNameTable DD 01H
	DD	FLAT:??_C@_15EMKDOKLE@?$AAa?$AAr?$AA?$AA@
	DD	02H
	DD	FLAT:??_C@_15KNPADPLH@?$AAb?$AAg?$AA?$AA@
	DD	03H
	DD	FLAT:??_C@_15EDMHLDMO@?$AAc?$AAa?$AA?$AA@
	DD	04H
	DD	FLAT:??_C@_1O@BPEAJADD@?$AAz?$AAh?$AA?9?$AAC?$AAH?$AAS?$AA?$AA@
	DD	05H
	DD	FLAT:??_C@_15LJNHCMNK@?$AAc?$AAs?$AA?$AA@
	DD	06H
	DD	FLAT:??_C@_15FOMCIDHG@?$AAd?$AAa?$AA?$AA@
	DD	07H
	DD	FLAT:??_C@_15NBKABECB@?$AAd?$AAe?$AA?$AA@
	DD	08H
	DD	FLAT:??_C@_15GHPEIIAO@?$AAe?$AAl?$AA?$AA@
	DD	09H
	DD	FLAT:??_C@_15MNPNEAIF@?$AAe?$AAn?$AA?$AA@
	DD	0aH
	DD	FLAT:??_C@_15GPIOMPMH@?$AAe?$AAs?$AA?$AA@
	DD	0bH
	DD	FLAT:??_C@_15NGLOAKJC@?$AAf?$AAi?$AA?$AA@
	DD	0cH
	DD	FLAT:??_C@_15FBKGNKAM@?$AAf?$AAr?$AA?$AA@
	DD	0dH
	DD	FLAT:??_C@_15KGGCNEFK@?$AAh?$AAe?$AA?$AA@
	DD	0eH
	DD	FLAT:??_C@_15PGHLIDMF@?$AAh?$AAu?$AA?$AA@
	DD	0fH
	DD	FLAT:??_C@_15BIEMAPLM@?$AAi?$AAs?$AA?$AA@
	DD	010H
	DD	FLAT:??_C@_15IFJLDHAF@?$AAi?$AAt?$AA?$AA@
	DD	011H
	DD	FLAT:??_C@_15GEMIOCAG@?$AAj?$AAa?$AA?$AA@
	DD	012H
	DD	FLAT:??_C@_15EPELEGJA@?$AAk?$AAo?$AA?$AA@
	DD	013H
	DD	FLAT:??_C@_15NDDHIMN@?$AAn?$AAl?$AA?$AA@
	DD	014H
	DD	FLAT:??_C@_15BPIGNHCD@?$AAn?$AAo?$AA?$AA@
	DD	015H
	DD	FLAT:??_C@_15DEOPBLCG@?$AAp?$AAl?$AA?$AA@
	DD	016H
	DD	FLAT:??_C@_15KBECGEFG@?$AAp?$AAt?$AA?$AA@
	DD	018H
	DD	FLAT:??_C@_15GLJCBFMD@?$AAr?$AAo?$AA?$AA@
	DD	019H
	DD	FLAT:??_C@_15FEDGKCDI@?$AAr?$AAu?$AA?$AA@
	DD	01aH
	DD	FLAT:??_C@_15GLKMLLHM@?$AAh?$AAr?$AA?$AA@
	DD	01bH
	DD	FLAT:??_C@_15CPKMFBDB@?$AAs?$AAk?$AA?$AA@
	DD	01cH
	DD	FLAT:??_C@_15BAAIOGMK@?$AAs?$AAq?$AA?$AA@
	DD	01dH
	DD	FLAT:??_C@_15INNPNOHD@?$AAs?$AAv?$AA?$AA@
	DD	01eH
	DD	FLAT:??_C@_15CABMMOGH@?$AAt?$AAh?$AA?$AA@
	DD	01fH
	DD	FLAT:??_C@_15BPLIHJJM@?$AAt?$AAr?$AA?$AA@
	DD	020H
	DD	FLAT:??_C@_15NEOEKKDJ@?$AAu?$AAr?$AA?$AA@
	DD	021H
	DD	FLAT:??_C@_15NFICGAJK@?$AAi?$AAd?$AA?$AA@
	DD	022H
	DD	FLAT:??_C@_15PJPFLCCM@?$AAu?$AAk?$AA?$AA@
	DD	023H
	DD	FLAT:??_C@_15HPJPHDM@?$AAb?$AAe?$AA?$AA@
	DD	024H
	DD	FLAT:??_C@_15LCHLGJII@?$AAs?$AAl?$AA?$AA@
	DD	025H
	DD	FLAT:??_C@_15PCFJPHHO@?$AAe?$AAt?$AA?$AA@
	DD	026H
	DD	FLAT:??_C@_15HPFPGODN@?$AAl?$AAv?$AA?$AA@
	DD	027H
	DD	FLAT:??_C@_15NFFGKGLG@?$AAl?$AAt?$AA?$AA@
	DD	029H
	DD	FLAT:??_C@_15BDAKCCHN@?$AAf?$AAa?$AA?$AA@
	DD	02aH
	DD	FLAT:??_C@_15NFGIAIAJ@?$AAv?$AAi?$AA?$AA@
	DD	02bH
	DD	FLAT:??_C@_15LMKNDMHN@?$AAh?$AAy?$AA?$AA@
	DD	02cH
	DD	FLAT:??_C@_15IJBHMCFL@?$AAa?$AAz?$AA?$AA@
	DD	02dH
	DD	FLAT:??_C@_15EKOFJABL@?$AAe?$AAu?$AA?$AA@
	DD	02fH
	DD	FLAT:??_C@_15BGHADCNK@?$AAm?$AAk?$AA?$AA@
	DD	036H
	DD	FLAT:??_C@_15JDNICKHM@?$AAa?$AAf?$AA?$AA@
	DD	037H
	DD	FLAT:??_C@_15KPJEDBKD@?$AAk?$AAa?$AA?$AA@
	DD	038H
	DD	FLAT:??_C@_15PDNFFFEO@?$AAf?$AAo?$AA?$AA@
	DD	039H
	DD	FLAT:??_C@_15OMLEGLOC@?$AAh?$AAi?$AA?$AA@
	DD	03eH
	DD	FLAT:??_C@_15IDNNENKK@?$AAm?$AAs?$AA?$AA@
	DD	03fH
	DD	FLAT:??_C@_15MACJNBMH@?$AAk?$AAk?$AA?$AA@
	DD	040H
	DD	FLAT:??_C@_15DKDJEOND@?$AAk?$AAy?$AA?$AA@
	DD	041H
	DD	FLAT:??_C@_15DFGDLJBG@?$AAs?$AAw?$AA?$AA@
	DD	043H
	DD	FLAT:??_C@_15BBFAICNG@?$AAu?$AAz?$AA?$AA@
	DD	044H
	DD	FLAT:??_C@_15DKNDCGEA@?$AAt?$AAt?$AA?$AA@
	DD	046H
	DD	FLAT:??_C@_15MGIFMDPL@?$AAp?$AAa?$AA?$AA@
	DD	047H
	DD	FLAT:??_C@_15HCNDBBA@?$AAg?$AAu?$AA?$AA@
	DD	049H
	DD	FLAT:??_C@_15FNBEIBON@?$AAt?$AAa?$AA?$AA@
	DD	04aH
	DD	FLAT:??_C@_15NCHGBGLK@?$AAt?$AAe?$AA?$AA@
	DD	04bH
	DD	FLAT:??_C@_15PHPHCBPF@?$AAk?$AAn?$AA?$AA@
	DD	04eH
	DD	FLAT:??_C@_15DLGBCKMP@?$AAm?$AAr?$AA?$AA@
	DD	04fH
	DD	FLAT:??_C@_15EABBLBFF@?$AAs?$AAa?$AA?$AA@
	DD	050H
	DD	FLAT:??_C@_15CBKOMCOI@?$AAm?$AAn?$AA?$AA@
	DD	056H
	DD	FLAT:??_C@_15CKDMCJAF@?$AAg?$AAl?$AA?$AA@
	DD	057H
	DD	FLAT:??_C@_17CNJFBPG@?$AAk?$AAo?$AAk?$AA?$AA@
	DD	05aH
	DD	FLAT:??_C@_17FFBJICPL@?$AAs?$AAy?$AAr?$AA?$AA@
	DD	065H
	DD	FLAT:??_C@_17KPNDCPAF@?$AAd?$AAi?$AAv?$AA?$AA@
	DD	07fH
	DD	FLAT:??_C@_11LOCGONAA@?$AA?$AA@
	DD	0401H
	DD	FLAT:??_C@_1M@OKAHONE@?$AAa?$AAr?$AA?9?$AAS?$AAA?$AA?$AA@
	DD	0402H
	DD	FLAT:??_C@_1M@FFFIGIGK@?$AAb?$AAg?$AA?9?$AAB?$AAG?$AA?$AA@
	DD	0403H
	DD	FLAT:??_C@_1M@BJNKEDC@?$AAc?$AAa?$AA?9?$AAE?$AAS?$AA?$AA@
	DD	0404H
	DD	FLAT:??_C@_1M@CLNBBOPM@?$AAz?$AAh?$AA?9?$AAT?$AAW?$AA?$AA@
	DD	0405H
	DD	FLAT:??_C@_1M@IJJHFJHA@?$AAc?$AAs?$AA?9?$AAC?$AAZ?$AA?$AA@
	DD	0406H
	DD	FLAT:??_C@_1M@CLPEOBGI@?$AAd?$AAa?$AA?9?$AAD?$AAK?$AA?$AA@
	DD	0407H
	DD	FLAT:??_C@_1M@MCMADGCB@?$AAd?$AAe?$AA?9?$AAD?$AAE?$AA?$AA@
	DD	0408H
	DD	FLAT:??_C@_1M@OOCKEMAM@?$AAe?$AAl?$AA?9?$AAG?$AAR?$AA?$AA@
	DD	0409H
	DD	FLAT:??_C@_1M@BMHNFIME@?$AAe?$AAn?$AA?9?$AAU?$AAS?$AA?$AA@
	DD	040bH
	DD	FLAT:??_C@_1M@DDNJFGID@?$AAf?$AAi?$AA?9?$AAF?$AAI?$AA?$AA@
	DD	040cH
	DD	FLAT:??_C@_1M@GLIPPMAC@?$AAf?$AAr?$AA?9?$AAF?$AAR?$AA?$AA@
	DD	040dH
	DD	FLAT:??_C@_1M@GFMCHPE@?$AAh?$AAe?$AA?9?$AAI?$AAL?$AA?$AA@
	DD	040eH
	DD	FLAT:??_C@_1M@MHLPGNKM@?$AAh?$AAu?$AA?9?$AAH?$AAU?$AA?$AA@
	DD	040fH
	DD	FLAT:??_C@_1M@LPDDNNPN@?$AAi?$AAs?$AA?9?$AAI?$AAS?$AA?$AA@
	DD	0410H
	DD	FLAT:??_C@_1M@MADIPODN@?$AAi?$AAt?$AA?9?$AAI?$AAT?$AA?$AA@
	DD	0411H
	DD	FLAT:??_C@_1M@HPNHIDJI@?$AAj?$AAa?$AA?9?$AAJ?$AAP?$AA?$AA@
	DD	0412H
	DD	FLAT:??_C@_1M@JLOOOEGK@?$AAk?$AAo?$AA?9?$AAK?$AAR?$AA?$AA@
	DD	0413H
	DD	FLAT:??_C@_1M@IHBJJGG@?$AAn?$AAl?$AA?9?$AAN?$AAL?$AA?$AA@
	DD	0414H
	DD	FLAT:??_C@_1M@EANAGDL@?$AAn?$AAb?$AA?9?$AAN?$AAO?$AA?$AA@
	DD	0415H
	DD	FLAT:??_C@_1M@NEIEMEGP@?$AAp?$AAl?$AA?9?$AAP?$AAL?$AA?$AA@
	DD	0416H
	DD	FLAT:??_C@_1M@BOCFIGEP@?$AAp?$AAt?$AA?9?$AAB?$AAR?$AA?$AA@
	DD	0418H
	DD	FLAT:??_C@_1M@IMPFOPBG@?$AAr?$AAo?$AA?9?$AAR?$AAO?$AA?$AA@
	DD	0419H
	DD	FLAT:??_C@_1M@IDNNEJMM@?$AAr?$AAu?$AA?9?$AAR?$AAU?$AA?$AA@
	DD	041aH
	DD	FLAT:??_C@_1M@LILEEOGM@?$AAh?$AAr?$AA?9?$AAH?$AAR?$AA?$AA@
	DD	041bH
	DD	FLAT:??_C@_1M@FKIFEHPB@?$AAs?$AAk?$AA?9?$AAS?$AAK?$AA?$AA@
	DD	041cH
	DD	FLAT:??_C@_1M@LJMAMNPJ@?$AAs?$AAq?$AA?9?$AAA?$AAL?$AA?$AA@
	DD	041dH
	DD	FLAT:??_C@_1M@GIAKDKJK@?$AAs?$AAv?$AA?9?$AAS?$AAE?$AA?$AA@
	DD	041eH
	DD	FLAT:??_C@_1M@MKJKIKCL@?$AAt?$AAh?$AA?9?$AAT?$AAH?$AA?$AA@
	DD	041fH
	DD	FLAT:??_C@_1M@MFLCCMPB@?$AAt?$AAr?$AA?9?$AAT?$AAR?$AA?$AA@
	DD	0420H
	DD	FLAT:??_C@_1M@OIJHDKJN@?$AAu?$AAr?$AA?9?$AAP?$AAK?$AA?$AA@
	DD	0421H
	DD	FLAT:??_C@_1M@LHIPCIEK@?$AAi?$AAd?$AA?9?$AAI?$AAD?$AA?$AA@
	DD	0422H
	DD	FLAT:??_C@_1M@MFMOBGI@?$AAu?$AAk?$AA?9?$AAU?$AAA?$AA?$AA@
	DD	0423H
	DD	FLAT:??_C@_1M@OBGLJIPL@?$AAb?$AAe?$AA?9?$AAB?$AAY?$AA?$AA@
	DD	0424H
	DD	FLAT:??_C@_1M@BCFAJEAD@?$AAs?$AAl?$AA?9?$AAS?$AAI?$AA?$AA@
	DD	0425H
	DD	FLAT:??_C@_1M@FKFFEDDN@?$AAe?$AAt?$AA?9?$AAE?$AAE?$AA?$AA@
	DD	0426H
	DD	FLAT:??_C@_1M@KGKKAACI@?$AAl?$AAv?$AA?9?$AAL?$AAV?$AA?$AA@
	DD	0427H
	DD	FLAT:??_C@_1M@IFGBIJO@?$AAl?$AAt?$AA?9?$AAL?$AAT?$AA?$AA@
	DD	0429H
	DD	FLAT:??_C@_1M@FGEAHEDM@?$AAf?$AAa?$AA?9?$AAI?$AAR?$AA?$AA@
	DD	042aH
	DD	FLAT:??_C@_1M@KBMAIBFN@?$AAv?$AAi?$AA?9?$AAV?$AAN?$AA?$AA@
	DD	042bH
	DD	FLAT:??_C@_1M@GPCBKDJK@?$AAh?$AAy?$AA?9?$AAA?$AAM?$AA?$AA@
	DD	042cH
	DD	FLAT:??_C@_1BG@BECMDDJB@?$AAa?$AAz?$AA?9?$AAA?$AAZ?$AA?9?$AAL?$AAa?$AAt?$AAn?$AA?$AA@
	DD	042dH
	DD	FLAT:??_C@_1M@MAOFCAEA@?$AAe?$AAu?$AA?9?$AAE?$AAS?$AA?$AA@
	DD	042fH
	DD	FLAT:??_C@_1M@IGHABKPI@?$AAm?$AAk?$AA?9?$AAM?$AAK?$AA?$AA@
	DD	0432H
	DD	FLAT:??_C@_1M@IAIGNEJG@?$AAt?$AAn?$AA?9?$AAZ?$AAA?$AA?$AA@
	DD	0434H
	DD	FLAT:??_C@_1M@IIJCOJFA@?$AAx?$AAh?$AA?9?$AAZ?$AAA?$AA?$AA@
	DD	0435H
	DD	FLAT:??_C@_1M@LGPJHNJH@?$AAz?$AAu?$AA?9?$AAZ?$AAA?$AA?$AA@
	DD	0436H
	DD	FLAT:??_C@_1M@HOKAOIO@?$AAa?$AAf?$AA?9?$AAZ?$AAA?$AA?$AA@
	DD	0437H
	DD	FLAT:??_C@_1M@DPCLHLIE@?$AAk?$AAa?$AA?9?$AAG?$AAE?$AA?$AA@
	DD	0438H
	DD	FLAT:??_C@_1M@BLKMHJBI@?$AAf?$AAo?$AA?9?$AAF?$AAO?$AA?$AA@
	DD	0439H
	DD	FLAT:??_C@_1M@LGGJAPPB@?$AAh?$AAi?$AA?9?$AAI?$AAN?$AA?$AA@
	DD	043aH
	DD	FLAT:??_C@_1M@FIKPIHFE@?$AAm?$AAt?$AA?9?$AAM?$AAT?$AA?$AA@
	DD	043bH
	DD	FLAT:??_C@_1M@HEGGPBFA@?$AAs?$AAe?$AA?9?$AAN?$AAO?$AA?$AA@
	DD	043eH
	DD	FLAT:??_C@_1M@EIBJEEPA@?$AAm?$AAs?$AA?9?$AAM?$AAY?$AA?$AA@
	DD	043fH
	DD	FLAT:??_C@_1M@FHLBGMPP@?$AAk?$AAk?$AA?9?$AAK?$AAZ?$AA?$AA@
	DD	0440H
	DD	FLAT:??_C@_1M@NGJJLCGI@?$AAk?$AAy?$AA?9?$AAK?$AAG?$AA?$AA@
	DD	0441H
	DD	FLAT:??_C@_1M@GIENNBFC@?$AAs?$AAw?$AA?9?$AAK?$AAE?$AA?$AA@
	DD	0443H
	DD	FLAT:??_C@_1BG@NDGMJIMJ@?$AAu?$AAz?$AA?9?$AAU?$AAZ?$AA?9?$AAL?$AAa?$AAt?$AAn?$AA?$AA@
	DD	0444H
	DD	FLAT:??_C@_1M@IDCCIHBC@?$AAt?$AAt?$AA?9?$AAR?$AAU?$AA?$AA@
	DD	0445H
	DD	FLAT:??_C@_1M@LOICPMOJ@?$AAb?$AAn?$AA?9?$AAI?$AAN?$AA?$AA@
	DD	0446H
	DD	FLAT:??_C@_1M@KPKKNEAH@?$AAp?$AAa?$AA?9?$AAI?$AAN?$AA?$AA@
	DD	0447H
	DD	FLAT:??_C@_1M@PJGPPBOG@?$AAg?$AAu?$AA?9?$AAI?$AAN?$AA?$AA@
	DD	0449H
	DD	FLAT:??_C@_1M@KMKMOPHI@?$AAt?$AAa?$AA?9?$AAI?$AAN?$AA?$AA@
	DD	044aH
	DD	FLAT:??_C@_1M@KFEHEPAC@?$AAt?$AAe?$AA?9?$AAI?$AAN?$AA?$AA@
	DD	044bH
	DD	FLAT:??_C@_1M@CDCLMGHI@?$AAk?$AAn?$AA?9?$AAI?$AAN?$AA?$AA@
	DD	044cH
	DD	FLAT:??_C@_1M@MIODLDKF@?$AAm?$AAl?$AA?9?$AAI?$AAN?$AA?$AA@
	DD	044eH
	DD	FLAT:??_C@_1M@PBIEACPO@?$AAm?$AAr?$AA?9?$AAI?$AAN?$AA?$AA@
	DD	044fH
	DD	FLAT:??_C@_1M@NIDEAGPH@?$AAs?$AAa?$AA?9?$AAI?$AAN?$AA?$AA@
	DD	0450H
	DD	FLAT:??_C@_1M@FHIHCBIO@?$AAm?$AAn?$AA?9?$AAM?$AAN?$AA?$AA@
	DD	0452H
	DD	FLAT:??_C@_1M@JAIJPENP@?$AAc?$AAy?$AA?9?$AAG?$AAB?$AA?$AA@
	DD	0456H
	DD	FLAT:??_C@_1M@PHGFBEPN@?$AAg?$AAl?$AA?9?$AAE?$AAS?$AA?$AA@
	DD	0457H
	DD	FLAT:??_C@_1O@KPIPDNCP@?$AAk?$AAo?$AAk?$AA?9?$AAI?$AAN?$AA?$AA@
	DD	045aH
	DD	FLAT:??_C@_1O@KNHJLDJA@?$AAs?$AAy?$AAr?$AA?9?$AAS?$AAY?$AA?$AA@
	DD	0465H
	DD	FLAT:??_C@_1O@MKEKBLAH@?$AAd?$AAi?$AAv?$AA?9?$AAM?$AAV?$AA?$AA@
	DD	046bH
	DD	FLAT:??_C@_1O@OHDCKDDF@?$AAq?$AAu?$AAz?$AA?9?$AAB?$AAO?$AA?$AA@
	DD	046cH
	DD	FLAT:??_C@_1M@LEPJNLFD@?$AAn?$AAs?$AA?9?$AAZ?$AAA?$AA?$AA@
	DD	0481H
	DD	FLAT:??_C@_1M@OMLEIIJB@?$AAm?$AAi?$AA?9?$AAN?$AAZ?$AA?$AA@
	DD	0801H
	DD	FLAT:??_C@_1M@PMPEAILG@?$AAa?$AAr?$AA?9?$AAI?$AAQ?$AA?$AA@
	DD	0804H
	DD	FLAT:??_C@_1M@BIBDDEMK@?$AAz?$AAh?$AA?9?$AAC?$AAN?$AA?$AA@
	DD	0807H
	DD	FLAT:??_C@_1M@CNKPNOEE@?$AAd?$AAe?$AA?9?$AAC?$AAH?$AA?$AA@
	DD	0809H
	DD	FLAT:??_C@_1M@LKMGMLKO@?$AAe?$AAn?$AA?9?$AAG?$AAB?$AA?$AA@
	DD	080aH
	DD	FLAT:??_C@_1M@PGKJFFGL@?$AAe?$AAs?$AA?9?$AAM?$AAX?$AA?$AA@
	DD	080cH
	DD	FLAT:??_C@_1M@DNNANBDC@?$AAf?$AAr?$AA?9?$AAB?$AAE?$AA?$AA@
	DD	0810H
	DD	FLAT:??_C@_1M@HLGMDFHM@?$AAi?$AAt?$AA?9?$AAC?$AAH?$AA?$AA@
	DD	0813H
	DD	FLAT:??_C@_1M@CLLBGJH@?$AAn?$AAl?$AA?9?$AAB?$AAE?$AA?$AA@
	DD	0814H
	DD	FLAT:??_C@_1M@BODBOGLF@?$AAn?$AAn?$AA?9?$AAN?$AAO?$AA?$AA@
	DD	0816H
	DD	FLAT:??_C@_1M@HFFAHKAD@?$AAp?$AAt?$AA?9?$AAP?$AAT?$AA?$AA@
	DD	081aH
	DD	FLAT:??_C@_1BG@LNOAKHIE@?$AAs?$AAr?$AA?9?$AAS?$AAP?$AA?9?$AAL?$AAa?$AAt?$AAn?$AA?$AA@
	DD	081dH
	DD	FLAT:??_C@_1M@HBMHBGAK@?$AAs?$AAv?$AA?9?$AAF?$AAI?$AA?$AA@
	DD	082cH
	DD	FLAT:??_C@_1BG@DGCJGJBE@?$AAa?$AAz?$AA?9?$AAA?$AAZ?$AA?9?$AAC?$AAy?$AAr?$AAl?$AA?$AA@
	DD	083bH
	DD	FLAT:??_C@_1M@KEJDAAHB@?$AAs?$AAe?$AA?9?$AAS?$AAE?$AA?$AA@
	DD	083eH
	DD	FLAT:??_C@_1M@HEIBJJAD@?$AAm?$AAs?$AA?9?$AAB?$AAN?$AA?$AA@
	DD	0843H
	DD	FLAT:??_C@_1BG@PBGJMCEM@?$AAu?$AAz?$AA?9?$AAU?$AAZ?$AA?9?$AAC?$AAy?$AAr?$AAl?$AA?$AA@
	DD	086bH
	DD	FLAT:??_C@_1O@LAOBCMDF@?$AAq?$AAu?$AAz?$AA?9?$AAE?$AAC?$AA?$AA@
	DD	0c01H
	DD	FLAT:??_C@_1M@POEEMAIO@?$AAa?$AAr?$AA?9?$AAE?$AAG?$AA?$AA@
	DD	0c04H
	DD	FLAT:??_C@_1M@EFAKDEDL@?$AAz?$AAh?$AA?9?$AAH?$AAK?$AA?$AA@
	DD	0c07H
	DD	FLAT:??_C@_1M@HKKIJHGI@?$AAd?$AAe?$AA?9?$AAA?$AAT?$AA?$AA@
	DD	0c09H
	DD	FLAT:??_C@_1M@KBFBEHJF@?$AAe?$AAn?$AA?9?$AAA?$AAU?$AA?$AA@
	DD	0c0aH
	DD	FLAT:??_C@_1M@MNPLFAAH@?$AAe?$AAs?$AA?9?$AAE?$AAS?$AA?$AA@
	DD	0c0cH
	DD	FLAT:??_C@_1M@HJOOJFMA@?$AAf?$AAr?$AA?9?$AAC?$AAA?$AA?$AA@
	DD	0c1aH
	DD	FLAT:??_C@_1BG@JPOFPNAB@?$AAs?$AAr?$AA?9?$AAS?$AAP?$AA?9?$AAC?$AAy?$AAr?$AAl?$AA?$AA@
	DD	0c3bH
	DD	FLAT:??_C@_1M@LNFOCMOB@?$AAs?$AAe?$AA?9?$AAF?$AAI?$AA?$AA@
	DD	0c6bH
	DD	FLAT:??_C@_1O@MGJBOAMB@?$AAq?$AAu?$AAz?$AA?9?$AAP?$AAE?$AA?$AA@
	DD	01001H
	DD	FLAT:??_C@_1M@GJINLBOK@?$AAa?$AAr?$AA?9?$AAL?$AAY?$AA?$AA@
	DD	01004H
	DD	FLAT:??_C@_1M@GGMNHJNL@?$AAz?$AAh?$AA?9?$AAS?$AAG?$AA?$AA@
	DD	01007H
	DD	FLAT:??_C@_1M@HOIKODND@?$AAd?$AAe?$AA?9?$AAL?$AAU?$AA?$AA@
	DD	01009H
	DD	FLAT:??_C@_1M@DDOCCGFG@?$AAe?$AAn?$AA?9?$AAC?$AAA?$AA?$AA@
	DD	0100aH
	DD	FLAT:??_C@_1M@BNOEMJLF@?$AAe?$AAs?$AA?9?$AAG?$AAT?$AA?$AA@
	DD	0100cH
	DD	FLAT:??_C@_1M@EOGNKEK@?$AAf?$AAr?$AA?9?$AAC?$AAH?$AA?$AA@
	DD	0101aH
	DD	FLAT:??_C@_1M@FLIDJFHL@?$AAh?$AAr?$AA?9?$AAB?$AAA?$AA?$AA@
	DD	0103bH
	DD	FLAT:??_C@_1O@FMCELNAJ@?$AAs?$AAm?$AAj?$AA?9?$AAN?$AAO?$AA?$AA@
	DD	01401H
	DD	FLAT:??_C@_1M@JHGLJMGJ@?$AAa?$AAr?$AA?9?$AAD?$AAZ?$AA?$AA@
	DD	01404H
	DD	FLAT:??_C@_1M@JKKFDCNP@?$AAz?$AAh?$AA?9?$AAM?$AAO?$AA?$AA@
	DD	01407H
	DD	FLAT:??_C@_1M@GEEFALPE@?$AAd?$AAe?$AA?9?$AAL?$AAI?$AA?$AA@
	DD	01409H
	DD	FLAT:??_C@_1M@IGEOFBG@?$AAe?$AAn?$AA?9?$AAN?$AAZ?$AA?$AA@
	DD	0140aH
	DD	FLAT:??_C@_1M@KDBONEHP@?$AAe?$AAs?$AA?9?$AAC?$AAR?$AA?$AA@
	DD	0140cH
	DD	FLAT:??_C@_1M@FHMDOHNN@?$AAf?$AAr?$AA?9?$AAL?$AAU?$AA?$AA@
	DD	0141aH
	DD	FLAT:??_C@_1BG@NFKKMAFG@?$AAb?$AAs?$AA?9?$AAB?$AAA?$AA?9?$AAL?$AAa?$AAt?$AAn?$AA?$AA@
	DD	0143bH
	DD	FLAT:??_C@_1O@IMNBEMCI@?$AAs?$AAm?$AAj?$AA?9?$AAS?$AAE?$AA?$AA@
	DD	01801H
	DD	FLAT:??_C@_1M@DHHMBNDP@?$AAa?$AAr?$AA?9?$AAM?$AAA?$AA?$AA@
	DD	01809H
	DD	FLAT:??_C@_1M@BNBLJCGH@?$AAe?$AAn?$AA?9?$AAI?$AAE?$AA?$AA@
	DD	0180aH
	DD	FLAT:??_C@_1M@GEPAFMDL@?$AAe?$AAs?$AA?9?$AAP?$AAA?$AA?$AA@
	DD	0180cH
	DD	FLAT:??_C@_1M@OJONDMDL@?$AAf?$AAr?$AA?9?$AAM?$AAC?$AA?$AA@
	DD	0181aH
	DD	FLAT:??_C@_1BG@OBCNFJB@?$AAs?$AAr?$AA?9?$AAB?$AAA?$AA?9?$AAL?$AAa?$AAt?$AAn?$AA?$AA@
	DD	0183bH
	DD	FLAT:??_C@_1O@KEMEEGPO@?$AAs?$AAm?$AAa?$AA?9?$AAN?$AAO?$AA?$AA@
	DD	01c01H
	DD	FLAT:??_C@_1M@ELMGFODK@?$AAa?$AAr?$AA?9?$AAT?$AAN?$AA?$AA@
	DD	01c09H
	DD	FLAT:??_C@_1M@BHDLHFAF@?$AAe?$AAn?$AA?9?$AAZ?$AAA?$AA?$AA@
	DD	01c0aH
	DD	FLAT:??_C@_1M@BMGIGLIF@?$AAe?$AAs?$AA?9?$AAD?$AAO?$AA?$AA@
	DD	01c1aH
	DD	FLAT:??_C@_1BG@CMBHIPBE@?$AAs?$AAr?$AA?9?$AAB?$AAA?$AA?9?$AAC?$AAy?$AAr?$AAl?$AA?$AA@
	DD	01c3bH
	DD	FLAT:??_C@_1O@HEDBLHNP@?$AAs?$AAm?$AAa?$AA?9?$AAS?$AAE?$AA?$AA@
	DD	02001H
	DD	FLAT:??_C@_1M@DAGCADIM@?$AAa?$AAr?$AA?9?$AAO?$AAM?$AA?$AA@
	DD	02009H
	DD	FLAT:??_C@_1M@FODLMICG@?$AAe?$AAn?$AA?9?$AAJ?$AAM?$AA?$AA@
	DD	0200aH
	DD	FLAT:??_C@_1M@DNMLCIHB@?$AAe?$AAs?$AA?9?$AAV?$AAE?$AA?$AA@
	DD	0203bH
	DD	FLAT:??_C@_1O@EOKHMKJK@?$AAs?$AAm?$AAs?$AA?9?$AAF?$AAI?$AA?$AA@
	DD	02401H
	DD	FLAT:??_C@_1M@CAFJMKOF@?$AAa?$AAr?$AA?9?$AAY?$AAE?$AA?$AA@
	DD	02409H
	DD	FLAT:??_C@_1M@CBFHIJLI@?$AAe?$AAn?$AA?9?$AAC?$AAB?$AA?$AA@
	DD	0240aH
	DD	FLAT:??_C@_1M@BGNFLDN@?$AAe?$AAs?$AA?9?$AAC?$AAO?$AA?$AA@
	DD	0243bH
	DD	FLAT:??_C@_1O@JMPHMAMC@?$AAs?$AAm?$AAn?$AA?9?$AAF?$AAI?$AA?$AA@
	DD	02801H
	DD	FLAT:??_C@_1M@JLANABKE@?$AAa?$AAr?$AA?9?$AAS?$AAY?$AA?$AA@
	DD	02809H
	DD	FLAT:??_C@_1M@HPKGCFGN@?$AAe?$AAn?$AA?9?$AAB?$AAZ?$AA?$AA@
	DD	0280aH
	DD	FLAT:??_C@_1M@OLJCMLGM@?$AAe?$AAs?$AA?9?$AAP?$AAE?$AA?$AA@
	DD	02c01H
	DD	FLAT:??_C@_1M@MKKGFKLE@?$AAa?$AAr?$AA?9?$AAJ?$AAO?$AA?$AA@
	DD	02c09H
	DD	FLAT:??_C@_1M@EKPGLDNI@?$AAe?$AAn?$AA?9?$AAT?$AAT?$AA?$AA@
	DD	02c0aH
	DD	FLAT:??_C@_1M@OONGHFHE@?$AAe?$AAs?$AA?9?$AAA?$AAR?$AA?$AA@
	DD	03001H
	DD	FLAT:??_C@_1M@OOJFGBHE@?$AAa?$AAr?$AA?9?$AAL?$AAB?$AA?$AA@
	DD	03009H
	DD	FLAT:??_C@_1M@GCEJHNEG@?$AAe?$AAn?$AA?9?$AAZ?$AAW?$AA?$AA@
	DD	0300aH
	DD	FLAT:??_C@_1M@JNOCAHJI@?$AAe?$AAs?$AA?9?$AAE?$AAC?$AA?$AA@
	DD	03401H
	DD	FLAT:??_C@_1M@JEFHPGGB@?$AAa?$AAr?$AA?9?$AAK?$AAW?$AA?$AA@
	DD	03409H
	DD	FLAT:??_C@_1M@MLKIBJOJ@?$AAe?$AAn?$AA?9?$AAP?$AAH?$AA?$AA@
	DD	0340aH
	DD	FLAT:??_C@_1M@BDNIPEND@?$AAe?$AAs?$AA?9?$AAC?$AAL?$AA?$AA@
	DD	03801H
	DD	FLAT:??_C@_1M@MPNMEKBD@?$AAa?$AAr?$AA?9?$AAA?$AAE?$AA?$AA@
	DD	0380aH
	DD	FLAT:??_C@_1M@KBJALCPI@?$AAe?$AAs?$AA?9?$AAU?$AAY?$AA?$AA@
	DD	03c01H
	DD	FLAT:??_C@_1M@LLCCOAGA@?$AAa?$AAr?$AA?9?$AAB?$AAH?$AA?$AA@
	DD	03c0aH
	DD	FLAT:??_C@_1M@PBFNCDEL@?$AAe?$AAs?$AA?9?$AAP?$AAY?$AA?$AA@
	DD	04001H
	DD	FLAT:??_C@_1M@EDGINPNP@?$AAa?$AAr?$AA?9?$AAQ?$AAA?$AA?$AA@
	DD	0400aH
	DD	FLAT:??_C@_1M@MKDBIIJI@?$AAe?$AAs?$AA?9?$AAB?$AAO?$AA?$AA@
	DD	0440aH
	DD	FLAT:??_C@_1M@CPKKEBLD@?$AAe?$AAs?$AA?9?$AAS?$AAV?$AA?$AA@
	DD	0480aH
	DD	FLAT:??_C@_1M@NDBGMMJL@?$AAe?$AAs?$AA?9?$AAH?$AAN?$AA?$AA@
	DD	04c0aH
	DD	FLAT:??_C@_1M@JIJIBHDP@?$AAe?$AAs?$AA?9?$AAN?$AAI?$AA?$AA@
	DD	0500aH
	DD	FLAT:??_C@_1M@CGFMKEEK@?$AAe?$AAs?$AA?9?$AAP?$AAR?$AA?$AA@
	DD	07c04H
	DD	FLAT:??_C@_1O@ICJHKIIK@?$AAz?$AAh?$AA?9?$AAC?$AAH?$AAT?$AA?$AA@
	DD	07c1aH
	DD	FLAT:??_C@_15CLNEJCE@?$AAs?$AAr?$AA?$AA@
CONST	ENDS
;	COMDAT _CLSID_Registrar
CONST	SEGMENT
_CLSID_Registrar DD 044ec053aH
	DW	0400fH
	DW	011d0H
	DB	09dH
	DB	0cdH
	DB	00H
	DB	0a0H
	DB	0c9H
	DB	03H
	DB	091H
	DB	0d3H
CONST	ENDS
;	COMDAT ??_C@_0BB@BEBMGMDO@atlTraceDBClient?$AA@
CONST	SEGMENT
??_C@_0BB@BEBMGMDO@atlTraceDBClient?$AA@ DB 'atlTraceDBClient', 00H ; `string'
CONST	ENDS
;	COMDAT ??_C@_0BA@DKOAAGGM@atlTraceHosting?$AA@
CONST	SEGMENT
??_C@_0BA@DKOAAGGM@atlTraceHosting?$AA@ DB 'atlTraceHosting', 00H ; `string'
CONST	ENDS
;	COMDAT ??_C@_0BB@GHKJKKIE@atlTraceControls?$AA@
CONST	SEGMENT
??_C@_0BB@GHKJKKIE@atlTraceControls?$AA@ DB 'atlTraceControls', 00H ; `string'
CONST	ENDS
;	COMDAT ??_C@_0BC@DGHHNKDC@atlTraceWindowing?$AA@
CONST	SEGMENT
??_C@_0BC@DGHHNKDC@atlTraceWindowing?$AA@ DB 'atlTraceWindowing', 00H ; `string'
CONST	ENDS
;	COMDAT _IID_IInternalConnection
CONST	SEGMENT
_IID_IInternalConnection DD 072ad0770H
	DW	06a9fH
	DW	011d1H
	DB	0bcH
	DB	0ecH
	DB	00H
	DB	060H
	DB	08H
	DB	08fH
	DB	044H
	DB	04eH
CONST	ENDS
;	COMDAT _IID_IAxWinAmbientDispatchEx
CONST	SEGMENT
_IID_IAxWinAmbientDispatchEx DD 0b2d0778bH
	DW	0ac99H
	DW	04c58H
	DB	0a5H
	DB	0c8H
	DB	0e7H
	DB	072H
	DB	04eH
	DB	053H
	DB	016H
	DB	0b5H
CONST	ENDS
;	COMDAT ??_C@_0BB@ILPPDKFL@atlTraceRefcount?$AA@
CONST	SEGMENT
??_C@_0BB@ILPPDKFL@atlTraceRefcount?$AA@ DB 'atlTraceRefcount', 00H ; `string'
CONST	ENDS
;	COMDAT ??_C@_0BC@MALHFBAO@atlTraceRegistrar?$AA@
CONST	SEGMENT
??_C@_0BC@MALHFBAO@atlTraceRegistrar?$AA@ DB 'atlTraceRegistrar', 00H ; `string'
CONST	ENDS
;	COMDAT ??_C@_0L@LHELAKBP@atlTraceQI?$AA@
CONST	SEGMENT
??_C@_0L@LHELAKBP@atlTraceQI?$AA@ DB 'atlTraceQI', 00H	; `string'
CONST	ENDS
;	COMDAT ??_C@_0M@DGPFJEBB@atlTraceCOM?$AA@
CONST	SEGMENT
??_C@_0M@DGPFJEBB@atlTraceCOM?$AA@ DB 'atlTraceCOM', 00H ; `string'
CONST	ENDS
;	COMDAT ??_C@_0BA@MKMIKKJB@atlTraceGeneral?$AA@
CONST	SEGMENT
??_C@_0BA@MKMIKKJB@atlTraceGeneral?$AA@ DB 'atlTraceGeneral', 00H ; `string'
CONST	ENDS
;	COMDAT ??_C@_06JBKGCNBB@Delete?$AA@
CONST	SEGMENT
??_C@_06JBKGCNBB@Delete?$AA@ DB 'Delete', 00H		; `string'
CONST	ENDS
;	COMDAT ?szDelete@ATL@@3QBDB
CONST	SEGMENT
?szDelete@ATL@@3QBDB DD FLAT:??_C@_06JBKGCNBB@Delete?$AA@ ; ATL::szDelete
CONST	ENDS
;	COMDAT ??_C@_08KAAPDIAN@NoRemove?$AA@
CONST	SEGMENT
??_C@_08KAAPDIAN@NoRemove?$AA@ DB 'NoRemove', 00H	; `string'
CONST	ENDS
;	COMDAT ?szNoRemove@ATL@@3QBDB
CONST	SEGMENT
?szNoRemove@ATL@@3QBDB DD FLAT:??_C@_08KAAPDIAN@NoRemove?$AA@ ; ATL::szNoRemove
CONST	ENDS
;	COMDAT ??_C@_0M@DBGDLGLL@ForceRemove?$AA@
CONST	SEGMENT
??_C@_0M@DBGDLGLL@ForceRemove?$AA@ DB 'ForceRemove', 00H ; `string'
CONST	ENDS
;	COMDAT ?szForceRemove@ATL@@3QBDB
CONST	SEGMENT
?szForceRemove@ATL@@3QBDB DD FLAT:??_C@_0M@DBGDLGLL@ForceRemove?$AA@ ; ATL::szForceRemove
CONST	ENDS
;	COMDAT ??_C@_0O@KHOBHOBJ@atlTraceISAPI?$AA@
CONST	SEGMENT
??_C@_0O@KHOBHOBJ@atlTraceISAPI?$AA@ DB 'atlTraceISAPI', 00H ; `string'
CONST	ENDS
;	COMDAT ??_C@_03LAIAPFCB@Val?$AA@
CONST	SEGMENT
??_C@_03LAIAPFCB@Val?$AA@ DB 'Val', 00H			; `string'
CONST	ENDS
;	COMDAT ?szValToken@ATL@@3QBDB
CONST	SEGMENT
?szValToken@ATL@@3QBDB DD FLAT:??_C@_03LAIAPFCB@Val?$AA@ ; ATL::szValToken
CONST	ENDS
;	COMDAT ??_C@_01HMGJMAIH@B?$AA@
CONST	SEGMENT
??_C@_01HMGJMAIH@B?$AA@ DB 'B', 00H			; `string'
CONST	ENDS
;	COMDAT ?szBinaryVal@ATL@@3QBDB
CONST	SEGMENT
?szBinaryVal@ATL@@3QBDB DD FLAT:??_C@_01HMGJMAIH@B?$AA@	; ATL::szBinaryVal
CONST	ENDS
;	COMDAT ??_C@_01CKDDGHAB@D?$AA@
CONST	SEGMENT
??_C@_01CKDDGHAB@D?$AA@ DB 'D', 00H			; `string'
CONST	ENDS
;	COMDAT ?szDwordVal@ATL@@3QBDB
CONST	SEGMENT
?szDwordVal@ATL@@3QBDB DD FLAT:??_C@_01CKDDGHAB@D?$AA@	; ATL::szDwordVal
CONST	ENDS
;	COMDAT ??_C@_01PLPBNMEI@M?$AA@
CONST	SEGMENT
??_C@_01PLPBNMEI@M?$AA@ DB 'M', 00H			; `string'
CONST	ENDS
;	COMDAT ?multiszStringVal@ATL@@3QBDB
CONST	SEGMENT
?multiszStringVal@ATL@@3QBDB DD FLAT:??_C@_01PLPBNMEI@M?$AA@ ; ATL::multiszStringVal
CONST	ENDS
;	COMDAT ??_C@_01CPLAODJH@S?$AA@
CONST	SEGMENT
??_C@_01CPLAODJH@S?$AA@ DB 'S', 00H			; `string'
CONST	ENDS
;	COMDAT ?szStringVal@ATL@@3QBDB
CONST	SEGMENT
?szStringVal@ATL@@3QBDB DD FLAT:??_C@_01CPLAODJH@S?$AA@	; ATL::szStringVal
CONST	ENDS
;	COMDAT ?chEquals@ATL@@3DB
CONST	SEGMENT
?chEquals@ATL@@3DB DB 03dH				; ATL::chEquals
CONST	ENDS
;	COMDAT ?chQuote@ATL@@3DB
CONST	SEGMENT
?chQuote@ATL@@3DB DB 027H				; ATL::chQuote
CONST	ENDS
;	COMDAT ?chLeftBracket@ATL@@3DB
CONST	SEGMENT
?chLeftBracket@ATL@@3DB DB 07bH				; ATL::chLeftBracket
CONST	ENDS
;	COMDAT ?chRightBracket@ATL@@3DB
CONST	SEGMENT
?chRightBracket@ATL@@3DB DB 07dH			; ATL::chRightBracket
CONST	ENDS
;	COMDAT ?chDirSep@ATL@@3DB
CONST	SEGMENT
?chDirSep@ATL@@3DB DB 05cH				; ATL::chDirSep
CONST	ENDS
;	COMDAT ??_C@_0N@KLPNCFEE@atlTraceSync?$AA@
CONST	SEGMENT
??_C@_0N@KLPNCFEE@atlTraceSync?$AA@ DB 'atlTraceSync', 00H ; `string'
CONST	ENDS
;	COMDAT _IID_IAxWinAmbientDispatch
CONST	SEGMENT
_IID_IAxWinAmbientDispatch DD 0b6ea2051H
	DW	048aH
	DW	011d1H
	DB	082H
	DB	0b9H
	DB	00H
	DB	0c0H
	DB	04fH
	DB	0b9H
	DB	094H
	DB	02eH
CONST	ENDS
;	COMDAT ??_C@_0BB@DNJDADMG@atlTraceSecurity?$AA@
CONST	SEGMENT
??_C@_0BB@DNJDADMG@atlTraceSecurity?$AA@ DB 'atlTraceSecurity', 00H ; `string'
CONST	ENDS
;	COMDAT _IID_IAxWinHostWindowLic
CONST	SEGMENT
_IID_IAxWinHostWindowLic DD 03935bda8H
	DW	04ed9H
	DW	0495cH
	DB	086H
	DB	050H
	DB	0e0H
	DB	01fH
	DB	0c1H
	DB	0e3H
	DB	08aH
	DB	04bH
CONST	ENDS
;	COMDAT ??_C@_0N@FEAAACHD@atlTraceUtil?$AA@
CONST	SEGMENT
??_C@_0N@FEAAACHD@atlTraceUtil?$AA@ DB 'atlTraceUtil', 00H ; `string'
CONST	ENDS
;	COMDAT ??_C@_0M@IOBBMAHG@atlTraceMap?$AA@
CONST	SEGMENT
??_C@_0M@IOBBMAHG@atlTraceMap?$AA@ DB 'atlTraceMap', 00H ; `string'
CONST	ENDS
;	COMDAT ??_C@_0P@MBNHGHMI@atlTraceString?$AA@
CONST	SEGMENT
??_C@_0P@MBNHGHMI@atlTraceString?$AA@ DB 'atlTraceString', 00H ; `string'
CONST	ENDS
;	COMDAT ??_C@_1M@BBGHNHJP@?$AAz?$AAu?$AA?9?$AAz?$AAa?$AA?$AA@
CONST	SEGMENT
??_C@_1M@BBGHNHJP@?$AAz?$AAu?$AA?9?$AAz?$AAa?$AA?$AA@ DB 'z', 00H, 'u', 00H
	DB	'-', 00H, 'z', 00H, 'a', 00H, 00H, 00H	; `string'
CONST	ENDS
;	COMDAT ??_C@_1M@IMEPLEPE@?$AAz?$AAh?$AA?9?$AAt?$AAw?$AA?$AA@
CONST	SEGMENT
??_C@_1M@IMEPLEPE@?$AAz?$AAh?$AA?9?$AAt?$AAw?$AA?$AA@ DB 'z', 00H, 'h', 00H
	DB	'-', 00H, 't', 00H, 'w', 00H, 00H, 00H	; `string'
CONST	ENDS
;	COMDAT ??_C@_1M@MBFDNDND@?$AAz?$AAh?$AA?9?$AAs?$AAg?$AA?$AA@
CONST	SEGMENT
??_C@_1M@MBFDNDND@?$AAz?$AAh?$AA?9?$AAs?$AAg?$AA?$AA@ DB 'z', 00H, 'h', 00H
	DB	'-', 00H, 's', 00H, 'g', 00H, 00H, 00H	; `string'
CONST	ENDS
;	COMDAT ??_C@_1M@DNDLJINH@?$AAz?$AAh?$AA?9?$AAm?$AAo?$AA?$AA@
CONST	SEGMENT
??_C@_1M@DNDLJINH@?$AAz?$AAh?$AA?9?$AAm?$AAo?$AA?$AA@ DB 'z', 00H, 'h', 00H
	DB	'-', 00H, 'm', 00H, 'o', 00H, 00H, 00H	; `string'
CONST	ENDS
;	COMDAT ??_C@_1M@OCJEJODD@?$AAz?$AAh?$AA?9?$AAh?$AAk?$AA?$AA@
CONST	SEGMENT
??_C@_1M@OCJEJODD@?$AAz?$AAh?$AA?9?$AAh?$AAk?$AA?$AA@ DB 'z', 00H, 'h', 00H
	DB	'-', 00H, 'h', 00H, 'k', 00H, 00H, 00H	; `string'
CONST	ENDS
;	COMDAT ??_C@_1M@LPINJOMC@?$AAz?$AAh?$AA?9?$AAc?$AAn?$AA?$AA@
CONST	SEGMENT
??_C@_1M@LPINJOMC@?$AAz?$AAh?$AA?9?$AAc?$AAn?$AA?$AA@ DB 'z', 00H, 'h', 00H
	DB	'-', 00H, 'c', 00H, 'n', 00H, 00H, 00H	; `string'
CONST	ENDS
;	COMDAT ??_C@_1O@NMHPGANE@?$AAz?$AAh?$AA?9?$AAc?$AAh?$AAt?$AA?$AA@
CONST	SEGMENT
??_C@_1O@NMHPGANE@?$AAz?$AAh?$AA?9?$AAc?$AAh?$AAt?$AA?$AA@ DB 'z', 00H, 'h'
	DB	00H, '-', 00H, 'c', 00H, 'h', 00H, 't', 00H, 00H, 00H ; `string'
CONST	ENDS
;	COMDAT ??_C@_1O@EBKIFIGN@?$AAz?$AAh?$AA?9?$AAc?$AAh?$AAs?$AA?$AA@
CONST	SEGMENT
??_C@_1O@EBKIFIGN@?$AAz?$AAh?$AA?9?$AAc?$AAh?$AAs?$AA?$AA@ DB 'z', 00H, 'h'
	DB	00H, '-', 00H, 'c', 00H, 'h', 00H, 's', 00H, 00H, 00H ; `string'
CONST	ENDS
;	COMDAT ??_C@_1M@CPAMEDFI@?$AAx?$AAh?$AA?9?$AAz?$AAa?$AA?$AA@
CONST	SEGMENT
??_C@_1M@CPAMEDFI@?$AAx?$AAh?$AA?9?$AAz?$AAa?$AA?$AA@ DB 'x', 00H, 'h', 00H
	DB	'-', 00H, 'z', 00H, 'a', 00H, 00H, 00H	; `string'
CONST	ENDS
;	COMDAT ??_C@_1M@GFOCLFF@?$AAv?$AAi?$AA?9?$AAv?$AAn?$AA?$AA@
CONST	SEGMENT
??_C@_1M@GFOCLFF@?$AAv?$AAi?$AA?9?$AAv?$AAn?$AA?$AA@ DB 'v', 00H, 'i', 00H
	DB	'-', 00H, 'v', 00H, 'n', 00H, 00H, 00H	; `string'
CONST	ENDS
;	COMDAT ??_C@_1BG@EGGKJILM@?$AAu?$AAz?$AA?9?$AAu?$AAz?$AA?9?$AAl?$AAa?$AAt?$AAn?$AA?$AA@
CONST	SEGMENT
??_C@_1BG@EGGKJILM@?$AAu?$AAz?$AA?9?$AAu?$AAz?$AA?9?$AAl?$AAa?$AAt?$AAn?$AA?$AA@ DB 'u'
	DB	00H, 'z', 00H, '-', 00H, 'u', 00H, 'z', 00H, '-', 00H, 'l', 00H
	DB	'a', 00H, 't', 00H, 'n', 00H, 00H, 00H	; `string'
CONST	ENDS
;	COMDAT ??_C@_1BG@GEGPMCDJ@?$AAu?$AAz?$AA?9?$AAu?$AAz?$AA?9?$AAc?$AAy?$AAr?$AAl?$AA?$AA@
CONST	SEGMENT
??_C@_1BG@GEGPMCDJ@?$AAu?$AAz?$AA?9?$AAu?$AAz?$AA?9?$AAc?$AAy?$AAr?$AAl?$AA?$AA@ DB 'u'
	DB	00H, 'z', 00H, '-', 00H, 'u', 00H, 'z', 00H, '-', 00H, 'c', 00H
	DB	'y', 00H, 'r', 00H, 'l', 00H, 00H, 00H	; `string'
CONST	ENDS
;	COMDAT ??_C@_1M@EPAJJAJF@?$AAu?$AAr?$AA?9?$AAp?$AAk?$AA?$AA@
CONST	SEGMENT
??_C@_1M@EPAJJAJF@?$AAu?$AAr?$AA?9?$AAp?$AAk?$AA?$AA@ DB 'u', 00H, 'r', 00H
	DB	'-', 00H, 'p', 00H, 'k', 00H, 00H, 00H	; `string'
CONST	ENDS
;	COMDAT _IID_IAxWinHostWindow
CONST	SEGMENT
_IID_IAxWinHostWindow DD 0b6ea2050H
	DW	048aH
	DW	011d1H
	DB	082H
	DB	0b9H
	DB	00H
	DB	0c0H
	DB	04fH
	DB	0b9H
	DB	094H
	DB	02eH
CONST	ENDS
;	COMDAT ??_C@_1M@KLMCELGA@?$AAu?$AAk?$AA?9?$AAu?$AAa?$AA?$AA@
CONST	SEGMENT
??_C@_1M@KLMCELGA@?$AAu?$AAk?$AA?9?$AAu?$AAa?$AA?$AA@ DB 'u', 00H, 'k', 00H
	DB	'-', 00H, 'u', 00H, 'a', 00H, 00H, 00H	; `string'
CONST	ENDS
;	COMDAT ??_C@_1M@CELMCNBK@?$AAt?$AAt?$AA?9?$AAr?$AAu?$AA?$AA@
CONST	SEGMENT
??_C@_1M@CELMCNBK@?$AAt?$AAt?$AA?9?$AAr?$AAu?$AA?$AA@ DB 't', 00H, 't', 00H
	DB	'-', 00H, 'r', 00H, 'u', 00H, 00H, 00H	; `string'
CONST	ENDS
;	COMDAT ??_C@_1M@GCCMIGPJ@?$AAt?$AAr?$AA?9?$AAt?$AAr?$AA?$AA@
CONST	SEGMENT
??_C@_1M@GCCMIGPJ@?$AAt?$AAr?$AA?9?$AAt?$AAr?$AA?$AA@ DB 't', 00H, 'r', 00H
	DB	'-', 00H, 't', 00H, 'r', 00H, 00H, 00H	; `string'
CONST	ENDS
;	COMDAT ??_C@_1M@CHBIHOJO@?$AAt?$AAn?$AA?9?$AAz?$AAa?$AA?$AA@
CONST	SEGMENT
??_C@_1M@CHBIHOJO@?$AAt?$AAn?$AA?9?$AAz?$AAa?$AA?$AA@ DB 't', 00H, 'n', 00H
	DB	'-', 00H, 'z', 00H, 'a', 00H, 00H, 00H	; `string'
CONST	ENDS
;	COMDAT ??_C@_1M@GNAECACD@?$AAt?$AAh?$AA?9?$AAt?$AAh?$AA?$AA@
CONST	SEGMENT
??_C@_1M@GNAECACD@?$AAt?$AAh?$AA?9?$AAt?$AAh?$AA?$AA@ DB 't', 00H, 'h', 00H
	DB	'-', 00H, 't', 00H, 'h', 00H, 00H, 00H	; `string'
CONST	ENDS
;	COMDAT ??_C@_1M@CNJOFAK@?$AAt?$AAe?$AA?9?$AAi?$AAn?$AA?$AA@
CONST	SEGMENT
??_C@_1M@CNJOFAK@?$AAt?$AAe?$AA?9?$AAi?$AAn?$AA?$AA@ DB 't', 00H, 'e', 00H
	DB	'-', 00H, 'i', 00H, 'n', 00H, 00H, 00H	; `string'
CONST	ENDS
;	COMDAT ??_C@_1M@LDCEFHA@?$AAt?$AAa?$AA?9?$AAi?$AAn?$AA?$AA@
CONST	SEGMENT
??_C@_1M@LDCEFHA@?$AAt?$AAa?$AA?9?$AAi?$AAn?$AA?$AA@ DB 't', 00H, 'a', 00H
	DB	'-', 00H, 'i', 00H, 'n', 00H, 00H, 00H	; `string'
CONST	ENDS
;	COMDAT ??_C@_1O@KOHBJJI@?$AAs?$AAy?$AAr?$AA?9?$AAs?$AAy?$AA?$AA@
CONST	SEGMENT
??_C@_1O@KOHBJJI@?$AAs?$AAy?$AAr?$AA?9?$AAs?$AAy?$AA?$AA@ DB 's', 00H, 'y'
	DB	00H, 'r', 00H, '-', 00H, 's', 00H, 'y', 00H, 00H, 00H ; `string'
CONST	ENDS
;	COMDAT ??_C@_1M@MPNDHLFK@?$AAs?$AAw?$AA?9?$AAk?$AAe?$AA?$AA@
CONST	SEGMENT
??_C@_1M@MPNDHLFK@?$AAs?$AAw?$AA?9?$AAk?$AAe?$AA?$AA@ DB 's', 00H, 'w', 00H
	DB	'-', 00H, 'k', 00H, 'e', 00H, 00H, 00H	; `string'
CONST	ENDS
;	COMDAT ??_C@_1M@MPJEJAJC@?$AAs?$AAv?$AA?9?$AAs?$AAe?$AA?$AA@
CONST	SEGMENT
??_C@_1M@MPJEJAJC@?$AAs?$AAv?$AA?9?$AAs?$AAe?$AA?$AA@ DB 's', 00H, 'v', 00H
	DB	'-', 00H, 's', 00H, 'e', 00H, 00H, 00H	; `string'
CONST	ENDS
;	COMDAT ??_C@_1M@NGFJLMAC@?$AAs?$AAv?$AA?9?$AAf?$AAi?$AA?$AA@
CONST	SEGMENT
??_C@_1M@NGFJLMAC@?$AAs?$AAv?$AA?9?$AAf?$AAi?$AA?$AA@ DB 's', 00H, 'v', 00H
	DB	'-', 00H, 'f', 00H, 'i', 00H, 00H, 00H	; `string'
CONST	ENDS
;	COMDAT ??_C@_1BG@CIOGKHPB@?$AAs?$AAr?$AA?9?$AAs?$AAp?$AA?9?$AAl?$AAa?$AAt?$AAn?$AA?$AA@
CONST	SEGMENT
??_C@_1BG@CIOGKHPB@?$AAs?$AAr?$AA?9?$AAs?$AAp?$AA?9?$AAl?$AAa?$AAt?$AAn?$AA?$AA@ DB 's'
	DB	00H, 'r', 00H, '-', 00H, 's', 00H, 'p', 00H, '-', 00H, 'l', 00H
	DB	'a', 00H, 't', 00H, 'n', 00H, 00H, 00H	; `string'
CONST	ENDS
;	COMDAT ??_C@_1BG@KODPNHE@?$AAs?$AAr?$AA?9?$AAs?$AAp?$AA?9?$AAc?$AAy?$AAr?$AAl?$AA?$AA@
CONST	SEGMENT
??_C@_1BG@KODPNHE@?$AAs?$AAr?$AA?9?$AAs?$AAp?$AA?9?$AAc?$AAy?$AAr?$AAl?$AA?$AA@ DB 's'
	DB	00H, 'r', 00H, '-', 00H, 's', 00H, 'p', 00H, '-', 00H, 'c', 00H
	DB	'y', 00H, 'r', 00H, 'l', 00H, 00H, 00H	; `string'
CONST	ENDS
;	COMDAT ??_C@_1BG@JLBENFOE@?$AAs?$AAr?$AA?9?$AAb?$AAa?$AA?9?$AAl?$AAa?$AAt?$AAn?$AA?$AA@
CONST	SEGMENT
??_C@_1BG@JLBENFOE@?$AAs?$AAr?$AA?9?$AAb?$AAa?$AA?9?$AAl?$AAa?$AAt?$AAn?$AA?$AA@ DB 's'
	DB	00H, 'r', 00H, '-', 00H, 'b', 00H, 'a', 00H, '-', 00H, 'l', 00H
	DB	'a', 00H, 't', 00H, 'n', 00H, 00H, 00H	; `string'
CONST	ENDS
;	COMDAT ??_C@_1BG@LJBBIPGB@?$AAs?$AAr?$AA?9?$AAb?$AAa?$AA?9?$AAc?$AAy?$AAr?$AAl?$AA?$AA@
CONST	SEGMENT
??_C@_1BG@LJBBIPGB@?$AAs?$AAr?$AA?9?$AAb?$AAa?$AA?9?$AAc?$AAy?$AAr?$AAl?$AA?$AA@ DB 's'
	DB	00H, 'r', 00H, '-', 00H, 'b', 00H, 'a', 00H, '-', 00H, 'c', 00H
	DB	'y', 00H, 'r', 00H, 'l', 00H, 00H, 00H	; `string'
CONST	ENDS
;	COMDAT ??_C@_1M@BOFOGHPB@?$AAs?$AAq?$AA?9?$AAa?$AAl?$AA?$AA@
CONST	SEGMENT
??_C@_1M@BOFOGHPB@?$AAs?$AAq?$AA?9?$AAa?$AAl?$AA?$AA@ DB 's', 00H, 'q', 00H
	DB	'-', 00H, 'a', 00H, 'l', 00H, 00H, 00H	; `string'
CONST	ENDS
;	COMDAT ??_C@_1O@OJDJGAJC@?$AAs?$AAm?$AAs?$AA?9?$AAf?$AAi?$AA?$AA@
CONST	SEGMENT
??_C@_1O@OJDJGAJC@?$AAs?$AAm?$AAs?$AA?9?$AAf?$AAi?$AA?$AA@ DB 's', 00H, 'm'
	DB	00H, 's', 00H, '-', 00H, 'f', 00H, 'i', 00H, 00H, 00H ; `string'
CONST	ENDS
;	COMDAT ??_C@_1O@DLGJGKMK@?$AAs?$AAm?$AAn?$AA?9?$AAf?$AAi?$AA?$AA@
CONST	SEGMENT
??_C@_1O@DLGJGKMK@?$AAs?$AAm?$AAn?$AA?9?$AAf?$AAi?$AA?$AA@ DB 's', 00H, 'm'
	DB	00H, 'n', 00H, '-', 00H, 'f', 00H, 'i', 00H, 00H, 00H ; `string'
CONST	ENDS
;	COMDAT ??_C@_1O@CLEPOGCA@?$AAs?$AAm?$AAj?$AA?9?$AAs?$AAe?$AA?$AA@
CONST	SEGMENT
??_C@_1O@CLEPOGCA@?$AAs?$AAm?$AAj?$AA?9?$AAs?$AAe?$AA?$AA@ DB 's', 00H, 'm'
	DB	00H, 'j', 00H, '-', 00H, 's', 00H, 'e', 00H, 00H, 00H ; `string'
CONST	ENDS
;	COMDAT ??_C@_1O@PLLKBHAB@?$AAs?$AAm?$AAj?$AA?9?$AAn?$AAo?$AA?$AA@
CONST	SEGMENT
??_C@_1O@PLLKBHAB@?$AAs?$AAm?$AAj?$AA?9?$AAn?$AAo?$AA?$AA@ DB 's', 00H, 'm'
	DB	00H, 'j', 00H, '-', 00H, 'n', 00H, 'o', 00H, 00H, 00H ; `string'
CONST	ENDS
;	COMDAT ??_C@_1O@NDKPBNNH@?$AAs?$AAm?$AAa?$AA?9?$AAs?$AAe?$AA?$AA@
CONST	SEGMENT
??_C@_1O@NDKPBNNH@?$AAs?$AAm?$AAa?$AA?9?$AAs?$AAe?$AA?$AA@ DB 's', 00H, 'm'
	DB	00H, 'a', 00H, '-', 00H, 's', 00H, 'e', 00H, 00H, 00H ; `string'
CONST	ENDS
;	COMDAT ??_C@_1O@DFKOMPG@?$AAs?$AAm?$AAa?$AA?9?$AAn?$AAo?$AA?$AA@
CONST	SEGMENT
??_C@_1O@DFKOMPG@?$AAs?$AAm?$AAa?$AA?9?$AAn?$AAo?$AA?$AA@ DB 's', 00H, 'm'
	DB	00H, 'a', 00H, '-', 00H, 'n', 00H, 'o', 00H, 00H, 00H ; `string'
CONST	ENDS
;	COMDAT ??_C@_1M@LFMODOAL@?$AAs?$AAl?$AA?9?$AAs?$AAi?$AA?$AA@
CONST	SEGMENT
??_C@_1M@LFMODOAL@?$AAs?$AAl?$AA?9?$AAs?$AAi?$AA?$AA@ DB 's', 00H, 'l', 00H
	DB	'-', 00H, 's', 00H, 'i', 00H, 00H, 00H	; `string'
CONST	ENDS
;	COMDAT ??_C@_1M@PNBLONPJ@?$AAs?$AAk?$AA?9?$AAs?$AAk?$AA?$AA@
CONST	SEGMENT
??_C@_1M@PNBLONPJ@?$AAs?$AAk?$AA?9?$AAs?$AAk?$AA?$AA@ DB 's', 00H, 'k', 00H
	DB	'-', 00H, 's', 00H, 'k', 00H, 00H, 00H	; `string'
CONST	ENDS
;	COMDAT ??_C@_1M@DANKKHJ@?$AAs?$AAe?$AA?9?$AAs?$AAe?$AA?$AA@
CONST	SEGMENT
??_C@_1M@DANKKHJ@?$AAs?$AAe?$AA?9?$AAs?$AAe?$AA?$AA@ DB 's', 00H, 'e', 00H
	DB	'-', 00H, 's', 00H, 'e', 00H, 00H, 00H	; `string'
CONST	ENDS
;	COMDAT ??_C@_1M@NDPIFLFI@?$AAs?$AAe?$AA?9?$AAn?$AAo?$AA?$AA@
CONST	SEGMENT
??_C@_1M@NDPIFLFI@?$AAs?$AAe?$AA?9?$AAn?$AAo?$AA?$AA@ DB 's', 00H, 'e', 00H
	DB	'-', 00H, 'n', 00H, 'o', 00H, 00H, 00H	; `string'
CONST	ENDS
;	COMDAT ??_C@_1M@BKMAIGOJ@?$AAs?$AAe?$AA?9?$AAf?$AAi?$AA?$AA@
CONST	SEGMENT
??_C@_1M@BKMAIGOJ@?$AAs?$AAe?$AA?9?$AAf?$AAi?$AA?$AA@ DB 's', 00H, 'e', 00H
	DB	'-', 00H, 'f', 00H, 'i', 00H, 00H, 00H	; `string'
CONST	ENDS
;	COMDAT ??_C@_1M@HPKKKMPP@?$AAs?$AAa?$AA?9?$AAi?$AAn?$AA?$AA@
CONST	SEGMENT
??_C@_1M@HPKKKMPP@?$AAs?$AAa?$AA?9?$AAi?$AAn?$AA?$AA@ DB 's', 00H, 'a', 00H
	DB	'-', 00H, 'i', 00H, 'n', 00H, 00H, 00H	; `string'
CONST	ENDS
;	COMDAT ??_C@_1M@CEEDODME@?$AAr?$AAu?$AA?9?$AAr?$AAu?$AA?$AA@
CONST	SEGMENT
??_C@_1M@CEEDODME@?$AAr?$AAu?$AA?9?$AAr?$AAu?$AA?$AA@ DB 'r', 00H, 'u', 00H
	DB	'-', 00H, 'r', 00H, 'u', 00H, 00H, 00H	; `string'
CONST	ENDS
;	COMDAT ??_C@_1M@CLGLEFBO@?$AAr?$AAo?$AA?9?$AAr?$AAo?$AA?$AA@
CONST	SEGMENT
??_C@_1M@CLGLEFBO@?$AAr?$AAo?$AA?9?$AAr?$AAo?$AA?$AA@ DB 'r', 00H, 'o', 00H
	DB	'-', 00H, 'r', 00H, 'o', 00H, 00H, 00H	; `string'
CONST	ENDS
;	COMDAT ??_C@_1O@GBAPEKMJ@?$AAq?$AAu?$AAz?$AA?9?$AAp?$AAe?$AA?$AA@
CONST	SEGMENT
??_C@_1O@GBAPEKMJ@?$AAq?$AAu?$AAz?$AA?9?$AAp?$AAe?$AA?$AA@ DB 'q', 00H, 'u'
	DB	00H, 'z', 00H, '-', 00H, 'p', 00H, 'e', 00H, 00H, 00H ; `string'
CONST	ENDS
;	COMDAT ??_C@_1O@BHHPIGDN@?$AAq?$AAu?$AAz?$AA?9?$AAe?$AAc?$AA?$AA@
CONST	SEGMENT
??_C@_1O@BHHPIGDN@?$AAq?$AAu?$AAz?$AA?9?$AAe?$AAc?$AA?$AA@ DB 'q', 00H, 'u'
	DB	00H, 'z', 00H, '-', 00H, 'e', 00H, 'c', 00H, 00H, 00H ; `string'
CONST	ENDS
;	COMDAT ??_C@_0BA@IDBKCKK@atlTraceStencil?$AA@
CONST	SEGMENT
??_C@_0BA@IDBKCKK@atlTraceStencil?$AA@ DB 'atlTraceStencil', 00H ; `string'
CONST	ENDS
;	COMDAT ??_C@_1O@EAKMAJDN@?$AAq?$AAu?$AAz?$AA?9?$AAb?$AAo?$AA?$AA@
CONST	SEGMENT
??_C@_1O@EAKMAJDN@?$AAq?$AAu?$AAz?$AA?9?$AAb?$AAo?$AA?$AA@ DB 'q', 00H, 'u'
	DB	00H, 'z', 00H, '-', 00H, 'b', 00H, 'o', 00H, 00H, 00H ; `string'
CONST	ENDS
;	COMDAT ??_C@_1M@NCMONAAL@?$AAp?$AAt?$AA?9?$AAp?$AAt?$AA?$AA@
CONST	SEGMENT
??_C@_1M@NCMONAAL@?$AAp?$AAt?$AA?9?$AAp?$AAt?$AA?$AA@ DB 'p', 00H, 't', 00H
	DB	'-', 00H, 'p', 00H, 't', 00H, 00H, 00H	; `string'
CONST	ENDS
;	COMDAT ??_C@_1M@LJLLCMEH@?$AAp?$AAt?$AA?9?$AAb?$AAr?$AA?$AA@
CONST	SEGMENT
??_C@_1M@LJLLCMEH@?$AAp?$AAt?$AA?9?$AAb?$AAr?$AA?$AA@ DB 'p', 00H, 't', 00H
	DB	'-', 00H, 'b', 00H, 'r', 00H, 00H, 00H	; `string'
CONST	ENDS
PUBLIC	___local_stdio_printf_options
PUBLIC	__snwprintf
PUBLIC	??$__vcrt_va_start_verify_argument_type@PB_W@@YAXXZ ; __vcrt_va_start_verify_argument_type<wchar_t const *>
PUBLIC	??$__vcrt_va_start_verify_argument_type@QBD@@YAXXZ ; __vcrt_va_start_verify_argument_type<char const * const>
PUBLIC	_sprintf_s
PUBLIC	??0exception@std@@QAE@ABV01@@Z			; std::exception::exception
PUBLIC	??1exception@std@@UAE@XZ			; std::exception::~exception
PUBLIC	?what@exception@std@@UBEPBDXZ			; std::exception::what
PUBLIC	??_Gexception@std@@UAEPAXI@Z			; std::exception::`scalar deleting destructor'
PUBLIC	??1bad_alloc@std@@UAE@XZ			; std::bad_alloc::~bad_alloc
PUBLIC	??0bad_alloc@std@@QAE@ABV01@@Z			; std::bad_alloc::bad_alloc
PUBLIC	??_Gbad_alloc@std@@UAEPAXI@Z			; std::bad_alloc::`scalar deleting destructor'
PUBLIC	??3@YAXPAX0@Z					; operator delete
PUBLIC	?compare@?$char_traits@D@std@@SAHPBD0I@Z	; std::char_traits<char>::compare
PUBLIC	?_Deallocate@std@@YAXPAXII@Z			; std::_Deallocate
PUBLIC	?deallocate@?$allocator@D@std@@QAEXPADI@Z	; std::allocator<char>::deallocate
PUBLIC	?allocate@?$allocator@D@std@@QAEPADI@Z		; std::allocator<char>::allocate
PUBLIC	?allocate@?$_Wrap_alloc@V?$allocator@D@std@@@std@@QAEPADI@Z ; std::_Wrap_alloc<std::allocator<char> >::allocate
PUBLIC	?deallocate@?$_Wrap_alloc@V?$allocator@D@std@@@std@@QAEXPADI@Z ; std::_Wrap_alloc<std::allocator<char> >::deallocate
PUBLIC	?_Myptr@?$_String_alloc@U?$_String_base_types@DV?$allocator@D@std@@@std@@@std@@QBEPBDXZ ; std::_String_alloc<std::_String_base_types<char,std::allocator<char> > >::_Myptr
PUBLIC	??0?$basic_string@DU?$char_traits@D@std@@V?$allocator@D@2@@std@@QAE@PBD@Z ; std::basic_string<char,std::char_traits<char>,std::allocator<char> >::basic_string<char,std::char_traits<char>,std::allocator<char> >
PUBLIC	??4?$basic_string@DU?$char_traits@D@std@@V?$allocator@D@2@@std@@QAEAAV01@$$QAV01@@Z ; std::basic_string<char,std::char_traits<char>,std::allocator<char> >::operator=
PUBLIC	?_Assign_rv@?$basic_string@DU?$char_traits@D@std@@V?$allocator@D@2@@std@@QAEX$$QAV12@@Z ; std::basic_string<char,std::char_traits<char>,std::allocator<char> >::_Assign_rv
PUBLIC	??1?$basic_string@DU?$char_traits@D@std@@V?$allocator@D@2@@std@@QAE@XZ ; std::basic_string<char,std::char_traits<char>,std::allocator<char> >::~basic_string<char,std::char_traits<char>,std::allocator<char> >
PUBLIC	??4?$basic_string@DU?$char_traits@D@std@@V?$allocator@D@2@@std@@QAEAAV01@PBD@Z ; std::basic_string<char,std::char_traits<char>,std::allocator<char> >::operator=
PUBLIC	??Y?$basic_string@DU?$char_traits@D@std@@V?$allocator@D@2@@std@@QAEAAV01@PBD@Z ; std::basic_string<char,std::char_traits<char>,std::allocator<char> >::operator+=
PUBLIC	?append@?$basic_string@DU?$char_traits@D@std@@V?$allocator@D@2@@std@@QAEAAV12@ABV12@II@Z ; std::basic_string<char,std::char_traits<char>,std::allocator<char> >::append
PUBLIC	?append@?$basic_string@DU?$char_traits@D@std@@V?$allocator@D@2@@std@@QAEAAV12@PBDI@Z ; std::basic_string<char,std::char_traits<char>,std::allocator<char> >::append
PUBLIC	?append@?$basic_string@DU?$char_traits@D@std@@V?$allocator@D@2@@std@@QAEAAV12@ID@Z ; std::basic_string<char,std::char_traits<char>,std::allocator<char> >::append
PUBLIC	?assign@?$basic_string@DU?$char_traits@D@std@@V?$allocator@D@2@@std@@QAEAAV12@ABV12@II@Z ; std::basic_string<char,std::char_traits<char>,std::allocator<char> >::assign
PUBLIC	?assign@?$basic_string@DU?$char_traits@D@std@@V?$allocator@D@2@@std@@QAEAAV12@PBDI@Z ; std::basic_string<char,std::char_traits<char>,std::allocator<char> >::assign
PUBLIC	?assign@?$basic_string@DU?$char_traits@D@std@@V?$allocator@D@2@@std@@QAEAAV12@ID@Z ; std::basic_string<char,std::char_traits<char>,std::allocator<char> >::assign
PUBLIC	?insert@?$basic_string@DU?$char_traits@D@std@@V?$allocator@D@2@@std@@QAEAAV12@IABV12@II@Z ; std::basic_string<char,std::char_traits<char>,std::allocator<char> >::insert
PUBLIC	?insert@?$basic_string@DU?$char_traits@D@std@@V?$allocator@D@2@@std@@QAEAAV12@IPBDI@Z ; std::basic_string<char,std::char_traits<char>,std::allocator<char> >::insert
PUBLIC	?insert@?$basic_string@DU?$char_traits@D@std@@V?$allocator@D@2@@std@@QAEAAV12@IID@Z ; std::basic_string<char,std::char_traits<char>,std::allocator<char> >::insert
PUBLIC	?erase@?$basic_string@DU?$char_traits@D@std@@V?$allocator@D@2@@std@@QAEAAV12@II@Z ; std::basic_string<char,std::char_traits<char>,std::allocator<char> >::erase
PUBLIC	?clear@?$basic_string@DU?$char_traits@D@std@@V?$allocator@D@2@@std@@QAEXXZ ; std::basic_string<char,std::char_traits<char>,std::allocator<char> >::clear
PUBLIC	?find@?$basic_string@DU?$char_traits@D@std@@V?$allocator@D@2@@std@@QBEIPBDII@Z ; std::basic_string<char,std::char_traits<char>,std::allocator<char> >::find
PUBLIC	?rfind@?$basic_string@DU?$char_traits@D@std@@V?$allocator@D@2@@std@@QBEIPBDII@Z ; std::basic_string<char,std::char_traits<char>,std::allocator<char> >::rfind
PUBLIC	?rfind@?$basic_string@DU?$char_traits@D@std@@V?$allocator@D@2@@std@@QBEIPBDI@Z ; std::basic_string<char,std::char_traits<char>,std::allocator<char> >::rfind
PUBLIC	?substr@?$basic_string@DU?$char_traits@D@std@@V?$allocator@D@2@@std@@QBE?AV12@II@Z ; std::basic_string<char,std::char_traits<char>,std::allocator<char> >::substr
PUBLIC	?_Chassign@?$basic_string@DU?$char_traits@D@std@@V?$allocator@D@2@@std@@QAEXIID@Z ; std::basic_string<char,std::char_traits<char>,std::allocator<char> >::_Chassign
PUBLIC	?_Copy@?$basic_string@DU?$char_traits@D@std@@V?$allocator@D@2@@std@@QAEXII@Z ; std::basic_string<char,std::char_traits<char>,std::allocator<char> >::_Copy
PUBLIC	?_Grow@?$basic_string@DU?$char_traits@D@std@@V?$allocator@D@2@@std@@QAE_NI_N@Z ; std::basic_string<char,std::char_traits<char>,std::allocator<char> >::_Grow
PUBLIC	?_Tidy@?$basic_string@DU?$char_traits@D@std@@V?$allocator@D@2@@std@@QAEX_NI@Z ; std::basic_string<char,std::char_traits<char>,std::allocator<char> >::_Tidy
PUBLIC	??1runtime_error@std@@UAE@XZ			; std::runtime_error::~runtime_error
PUBLIC	??0runtime_error@std@@QAE@ABV01@@Z		; std::runtime_error::runtime_error
PUBLIC	??_Gruntime_error@std@@UAEPAXI@Z		; std::runtime_error::`scalar deleting destructor'
PUBLIC	??1bad_cast@std@@UAE@XZ				; std::bad_cast::~bad_cast
PUBLIC	??0bad_cast@std@@QAE@ABV01@@Z			; std::bad_cast::bad_cast
PUBLIC	??_Gbad_cast@std@@UAEPAXI@Z			; std::bad_cast::`scalar deleting destructor'
PUBLIC	??0_Locinfo@std@@QAE@PBD@Z			; std::_Locinfo::_Locinfo
PUBLIC	??1_Locinfo@std@@QAE@XZ				; std::_Locinfo::~_Locinfo
PUBLIC	??1?$_Yarn@D@std@@QAE@XZ			; std::_Yarn<char>::~_Yarn<char>
PUBLIC	??1?$_Yarn@_W@std@@QAE@XZ			; std::_Yarn<wchar_t>::~_Yarn<wchar_t>
PUBLIC	??1_Facet_base@std@@UAE@XZ			; std::_Facet_base::~_Facet_base
PUBLIC	??_G_Facet_base@std@@UAEPAXI@Z			; std::_Facet_base::`scalar deleting destructor'
PUBLIC	?_Incref@facet@locale@std@@UAEXXZ		; std::locale::facet::_Incref
PUBLIC	?_Decref@facet@locale@std@@UAEPAV_Facet_base@3@XZ ; std::locale::facet::_Decref
PUBLIC	??1facet@locale@std@@MAE@XZ			; std::locale::facet::~facet
PUBLIC	??_Gfacet@locale@std@@MAEPAXI@Z			; std::locale::facet::`scalar deleting destructor'
PUBLIC	??1locale@std@@QAE@XZ				; std::locale::~locale
PUBLIC	??_Gctype_base@std@@UAEPAXI@Z			; std::ctype_base::`scalar deleting destructor'
PUBLIC	?_Getcat@?$ctype@D@std@@SAIPAPBVfacet@locale@2@PBV42@@Z ; std::ctype<char>::_Getcat
PUBLIC	??1?$ctype@D@std@@MAE@XZ			; std::ctype<char>::~ctype<char>
PUBLIC	?do_tolower@?$ctype@D@std@@MBEDD@Z		; std::ctype<char>::do_tolower
PUBLIC	?do_tolower@?$ctype@D@std@@MBEPBDPADPBD@Z	; std::ctype<char>::do_tolower
PUBLIC	?do_toupper@?$ctype@D@std@@MBEDD@Z		; std::ctype<char>::do_toupper
PUBLIC	?do_toupper@?$ctype@D@std@@MBEPBDPADPBD@Z	; std::ctype<char>::do_toupper
PUBLIC	?do_widen@?$ctype@D@std@@MBEDD@Z		; std::ctype<char>::do_widen
PUBLIC	?do_widen@?$ctype@D@std@@MBEPBDPBD0PAD@Z	; std::ctype<char>::do_widen
PUBLIC	?do_narrow@?$ctype@D@std@@MBEDDD@Z		; std::ctype<char>::do_narrow
PUBLIC	?do_narrow@?$ctype@D@std@@MBEPBDPBD0DPAD@Z	; std::ctype<char>::do_narrow
PUBLIC	??_G?$ctype@D@std@@MAEPAXI@Z			; std::ctype<char>::`scalar deleting destructor'
PUBLIC	??$use_facet@V?$ctype@D@std@@@std@@YAABV?$ctype@D@0@ABVlocale@0@@Z ; std::use_facet<std::ctype<char> >
PUBLIC	??0?$ctype@_W@std@@QAE@ABV_Locinfo@1@I@Z	; std::ctype<wchar_t>::ctype<wchar_t>
PUBLIC	?_Getcat@?$ctype@_W@std@@SAIPAPBVfacet@locale@2@PBV42@@Z ; std::ctype<wchar_t>::_Getcat
PUBLIC	??1?$ctype@_W@std@@MAE@XZ			; std::ctype<wchar_t>::~ctype<wchar_t>
PUBLIC	?do_is@?$ctype@_W@std@@MBE_NF_W@Z		; std::ctype<wchar_t>::do_is
PUBLIC	?do_is@?$ctype@_W@std@@MBEPB_WPB_W0PAF@Z	; std::ctype<wchar_t>::do_is
PUBLIC	?do_scan_is@?$ctype@_W@std@@MBEPB_WFPB_W0@Z	; std::ctype<wchar_t>::do_scan_is
PUBLIC	?do_scan_not@?$ctype@_W@std@@MBEPB_WFPB_W0@Z	; std::ctype<wchar_t>::do_scan_not
PUBLIC	?do_tolower@?$ctype@_W@std@@MBE_W_W@Z		; std::ctype<wchar_t>::do_tolower
PUBLIC	?do_tolower@?$ctype@_W@std@@MBEPB_WPA_WPB_W@Z	; std::ctype<wchar_t>::do_tolower
PUBLIC	?do_toupper@?$ctype@_W@std@@MBE_W_W@Z		; std::ctype<wchar_t>::do_toupper
PUBLIC	?do_toupper@?$ctype@_W@std@@MBEPB_WPA_WPB_W@Z	; std::ctype<wchar_t>::do_toupper
PUBLIC	?do_widen@?$ctype@_W@std@@MBE_WD@Z		; std::ctype<wchar_t>::do_widen
PUBLIC	?do_widen@?$ctype@_W@std@@MBEPBDPBD0PA_W@Z	; std::ctype<wchar_t>::do_widen
PUBLIC	?do_narrow@?$ctype@_W@std@@MBED_WD@Z		; std::ctype<wchar_t>::do_narrow
PUBLIC	?do_narrow@?$ctype@_W@std@@MBEPB_WPB_W0DPAD@Z	; std::ctype<wchar_t>::do_narrow
PUBLIC	??_G?$ctype@_W@std@@MAEPAXI@Z			; std::ctype<wchar_t>::`scalar deleting destructor'
PUBLIC	??1error_category@std@@UAE@XZ			; std::error_category::~error_category
PUBLIC	?default_error_condition@error_category@std@@UBE?AVerror_condition@2@H@Z ; std::error_category::default_error_condition
PUBLIC	?equivalent@error_category@std@@UBE_NHABVerror_condition@2@@Z ; std::error_category::equivalent
PUBLIC	?equivalent@error_category@std@@UBE_NABVerror_code@2@H@Z ; std::error_category::equivalent
PUBLIC	??_Gerror_category@std@@UAEPAXI@Z		; std::error_category::`scalar deleting destructor'
PUBLIC	?message@error_code@std@@QBE?AV?$basic_string@DU?$char_traits@D@std@@V?$allocator@D@2@@2@XZ ; std::error_code::message
PUBLIC	?_Makestr@_System_error@std@@CA?AV?$basic_string@DU?$char_traits@D@std@@V?$allocator@D@2@@2@Verror_code@2@V32@@Z ; std::_System_error::_Makestr
PUBLIC	??0_System_error@std@@IAE@Verror_code@1@ABV?$basic_string@DU?$char_traits@D@std@@V?$allocator@D@2@@1@@Z ; std::_System_error::_System_error
PUBLIC	??0_System_error@std@@QAE@ABV01@@Z		; std::_System_error::_System_error
PUBLIC	??_G_System_error@std@@UAEPAXI@Z		; std::_System_error::`scalar deleting destructor'
PUBLIC	??0system_error@std@@QAE@Verror_code@1@PBD@Z	; std::system_error::system_error
PUBLIC	??0system_error@std@@QAE@ABV01@@Z		; std::system_error::system_error
PUBLIC	??_Gsystem_error@std@@UAEPAXI@Z			; std::system_error::`scalar deleting destructor'
PUBLIC	?name@_Generic_error_category@std@@UBEPBDXZ	; std::_Generic_error_category::name
PUBLIC	?message@_Generic_error_category@std@@UBE?AV?$basic_string@DU?$char_traits@D@std@@V?$allocator@D@2@@2@H@Z ; std::_Generic_error_category::message
PUBLIC	??_G_Generic_error_category@std@@UAEPAXI@Z	; std::_Generic_error_category::`scalar deleting destructor'
PUBLIC	?name@_Iostream_error_category@std@@UBEPBDXZ	; std::_Iostream_error_category::name
PUBLIC	?message@_Iostream_error_category@std@@UBE?AV?$basic_string@DU?$char_traits@D@std@@V?$allocator@D@2@@2@H@Z ; std::_Iostream_error_category::message
PUBLIC	??_G_Iostream_error_category@std@@UAEPAXI@Z	; std::_Iostream_error_category::`scalar deleting destructor'
PUBLIC	??$_Immortalize@V_Iostream_error_category@std@@@std@@YAAAV_Iostream_error_category@0@XZ ; std::_Immortalize<std::_Iostream_error_category>
PUBLIC	??1failure@ios_base@std@@UAE@XZ			; std::ios_base::failure::~failure
PUBLIC	??0failure@ios_base@std@@QAE@ABV012@@Z		; std::ios_base::failure::failure
PUBLIC	??_Gfailure@ios_base@std@@UAEPAXI@Z		; std::ios_base::failure::`scalar deleting destructor'
PUBLIC	?clear@ios_base@std@@QAEXH@Z			; std::ios_base::clear
PUBLIC	?getloc@ios_base@std@@QBE?AVlocale@2@XZ		; std::ios_base::getloc
PUBLIC	??1ios_base@std@@UAE@XZ				; std::ios_base::~ios_base
PUBLIC	?_Init@ios_base@std@@IAEXXZ			; std::ios_base::_Init
PUBLIC	??_Gios_base@std@@UAEPAXI@Z			; std::ios_base::`scalar deleting destructor'
PUBLIC	?deallocate@?$allocator@_W@std@@QAEXPA_WI@Z	; std::allocator<wchar_t>::deallocate
PUBLIC	?allocate@?$allocator@_W@std@@QAEPA_WI@Z	; std::allocator<wchar_t>::allocate
PUBLIC	?deallocate@?$_Wrap_alloc@V?$allocator@_W@std@@@std@@QAEXPA_WI@Z ; std::_Wrap_alloc<std::allocator<wchar_t> >::deallocate
PUBLIC	??0?$basic_string@_WU?$char_traits@_W@std@@V?$allocator@_W@2@@std@@QAE@PB_W@Z ; std::basic_string<wchar_t,std::char_traits<wchar_t>,std::allocator<wchar_t> >::basic_string<wchar_t,std::char_traits<wchar_t>,std::allocator<wchar_t> >
PUBLIC	?_Assign_rv@?$basic_string@_WU?$char_traits@_W@std@@V?$allocator@_W@2@@std@@QAEX$$QAV12@@Z ; std::basic_string<wchar_t,std::char_traits<wchar_t>,std::allocator<wchar_t> >::_Assign_rv
PUBLIC	??1?$basic_string@_WU?$char_traits@_W@std@@V?$allocator@_W@2@@std@@QAE@XZ ; std::basic_string<wchar_t,std::char_traits<wchar_t>,std::allocator<wchar_t> >::~basic_string<wchar_t,std::char_traits<wchar_t>,std::allocator<wchar_t> >
PUBLIC	??4?$basic_string@_WU?$char_traits@_W@std@@V?$allocator@_W@2@@std@@QAEAAV01@PB_W@Z ; std::basic_string<wchar_t,std::char_traits<wchar_t>,std::allocator<wchar_t> >::operator=
PUBLIC	?append@?$basic_string@_WU?$char_traits@_W@std@@V?$allocator@_W@2@@std@@QAEAAV12@ABV12@II@Z ; std::basic_string<wchar_t,std::char_traits<wchar_t>,std::allocator<wchar_t> >::append
PUBLIC	?append@?$basic_string@_WU?$char_traits@_W@std@@V?$allocator@_W@2@@std@@QAEAAV12@PB_WI@Z ; std::basic_string<wchar_t,std::char_traits<wchar_t>,std::allocator<wchar_t> >::append
PUBLIC	?assign@?$basic_string@_WU?$char_traits@_W@std@@V?$allocator@_W@2@@std@@QAEAAV12@ABV12@II@Z ; std::basic_string<wchar_t,std::char_traits<wchar_t>,std::allocator<wchar_t> >::assign
PUBLIC	?assign@?$basic_string@_WU?$char_traits@_W@std@@V?$allocator@_W@2@@std@@QAEAAV12@PB_WI@Z ; std::basic_string<wchar_t,std::char_traits<wchar_t>,std::allocator<wchar_t> >::assign
PUBLIC	?insert@?$basic_string@_WU?$char_traits@_W@std@@V?$allocator@_W@2@@std@@QAEAAV12@IABV12@II@Z ; std::basic_string<wchar_t,std::char_traits<wchar_t>,std::allocator<wchar_t> >::insert
PUBLIC	?erase@?$basic_string@_WU?$char_traits@_W@std@@V?$allocator@_W@2@@std@@QAEAAV12@II@Z ; std::basic_string<wchar_t,std::char_traits<wchar_t>,std::allocator<wchar_t> >::erase
PUBLIC	?substr@?$basic_string@_WU?$char_traits@_W@std@@V?$allocator@_W@2@@std@@QBE?AV12@II@Z ; std::basic_string<wchar_t,std::char_traits<wchar_t>,std::allocator<wchar_t> >::substr
PUBLIC	?_Copy@?$basic_string@_WU?$char_traits@_W@std@@V?$allocator@_W@2@@std@@QAEXII@Z ; std::basic_string<wchar_t,std::char_traits<wchar_t>,std::allocator<wchar_t> >::_Copy
PUBLIC	?_Grow@?$basic_string@_WU?$char_traits@_W@std@@V?$allocator@_W@2@@std@@QAE_NI_N@Z ; std::basic_string<wchar_t,std::char_traits<wchar_t>,std::allocator<wchar_t> >::_Grow
PUBLIC	?_Tidy@?$basic_string@_WU?$char_traits@_W@std@@V?$allocator@_W@2@@std@@QAEX_NI@Z ; std::basic_string<wchar_t,std::char_traits<wchar_t>,std::allocator<wchar_t> >::_Tidy
PUBLIC	??1Container@ForEach@GostCrypt@@UAE@XZ		; GostCrypt::ForEach::Container::~Container
PUBLIC	??_GContainer@ForEach@GostCrypt@@UAEPAXI@Z	; GostCrypt::ForEach::Container::`scalar deleting destructor'
PUBLIC	?_AtlInitializeCriticalSectionEx@ATL@@YAHPAU_RTL_CRITICAL_SECTION@@KK@Z ; ATL::_AtlInitializeCriticalSectionEx
PUBLIC	??1_ATL_COM_MODULE70@ATL@@QAE@XZ		; ATL::_ATL_COM_MODULE70::~_ATL_COM_MODULE70
PUBLIC	?AtlWinModuleTerm@ATL@@YGJPAU_ATL_WIN_MODULE70@1@PAUHINSTANCE__@@@Z ; ATL::AtlWinModuleTerm
PUBLIC	?Term@CAtlComModule@ATL@@QAEXXZ			; ATL::CAtlComModule::Term
PUBLIC	??0CAtlWinModule@ATL@@QAE@XZ			; ATL::CAtlWinModule::CAtlWinModule
PUBLIC	??0Exception@GostCrypt@@QAE@ABU01@@Z		; GostCrypt::Exception::Exception
PUBLIC	?Show@SystemException@GostCrypt@@UBEXPAUHWND__@@@Z ; GostCrypt::SystemException::Show
PUBLIC	??0SystemException@GostCrypt@@QAE@ABU01@@Z	; GostCrypt::SystemException::SystemException
PUBLIC	?Show@ErrorException@GostCrypt@@UBEXPAUHWND__@@@Z ; GostCrypt::ErrorException::Show
PUBLIC	??1ErrorException@GostCrypt@@QAE@XZ		; GostCrypt::ErrorException::~ErrorException
PUBLIC	??0ErrorException@GostCrypt@@QAE@ABU01@@Z	; GostCrypt::ErrorException::ErrorException
PUBLIC	?Show@ParameterIncorrect@GostCrypt@@UBEXPAUHWND__@@@Z ; GostCrypt::ParameterIncorrect::Show
PUBLIC	??0ParameterIncorrect@GostCrypt@@QAE@ABU01@@Z	; GostCrypt::ParameterIncorrect::ParameterIncorrect
PUBLIC	??$?HDU?$char_traits@D@std@@V?$allocator@D@1@@std@@YA?AV?$basic_string@DU?$char_traits@D@std@@V?$allocator@D@2@@0@PBD$$QAV10@@Z ; std::operator+<char,std::char_traits<char>,std::allocator<char> >
PUBLIC	??$?HDU?$char_traits@D@std@@V?$allocator@D@1@@std@@YA?AV?$basic_string@DU?$char_traits@D@std@@V?$allocator@D@2@@0@$$QAV10@PBD@Z ; std::operator+<char,std::char_traits<char>,std::allocator<char> >
PUBLIC	??$?HDU?$char_traits@D@std@@V?$allocator@D@1@@std@@YA?AV?$basic_string@DU?$char_traits@D@std@@V?$allocator@D@2@@0@ABV10@PBD@Z ; std::operator+<char,std::char_traits<char>,std::allocator<char> >
PUBLIC	?Show@TimeOut@GostCrypt@@UBEXPAUHWND__@@@Z	; GostCrypt::TimeOut::Show
PUBLIC	??0TimeOut@GostCrypt@@QAE@ABU01@@Z		; GostCrypt::TimeOut::TimeOut
PUBLIC	??0File@GostCrypt@@QAE@V?$basic_string@DU?$char_traits@D@std@@V?$allocator@D@2@@std@@_N1@Z ; GostCrypt::File::File
PUBLIC	??1File@GostCrypt@@QAE@XZ			; GostCrypt::File::~File
PUBLIC	?Close@File@GostCrypt@@QAEXXZ			; GostCrypt::File::Close
PUBLIC	?Read@File@GostCrypt@@QAEKPAEK@Z		; GostCrypt::File::Read
PUBLIC	?Write@File@GostCrypt@@QAEXPAEK@Z		; GostCrypt::File::Write
PUBLIC	?SeekAt@File@GostCrypt@@QAEX_J@Z		; GostCrypt::File::SeekAt
PUBLIC	??0Device@GostCrypt@@QAE@V?$basic_string@DU?$char_traits@D@std@@V?$allocator@D@2@@std@@_N@Z ; GostCrypt::Device::Device
PUBLIC	??1Device@GostCrypt@@QAE@XZ			; GostCrypt::Device::~Device
PUBLIC	??1Buffer@GostCrypt@@QAE@XZ			; GostCrypt::Buffer::~Buffer
PUBLIC	??1Partition@GostCrypt@@QAE@XZ			; GostCrypt::Partition::~Partition
PUBLIC	??0Partition@GostCrypt@@QAE@ABU01@@Z		; GostCrypt::Partition::Partition
PUBLIC	??4Partition@GostCrypt@@QAEAAU01@ABU01@@Z	; GostCrypt::Partition::operator=
PUBLIC	?deallocate@?$allocator@U?$_List_node@UPartition@GostCrypt@@PAX@std@@@std@@QAEXPAU?$_List_node@UPartition@GostCrypt@@PAX@2@I@Z ; std::allocator<std::_List_node<GostCrypt::Partition,void *> >::deallocate
PUBLIC	?_Buynode0@?$_List_alloc@U?$_List_base_types@UPartition@GostCrypt@@V?$allocator@UPartition@GostCrypt@@@std@@@std@@@std@@QAEPAU?$_List_node@UPartition@GostCrypt@@PAX@2@PAU32@0@Z ; std::_List_alloc<std::_List_base_types<GostCrypt::Partition,std::allocator<GostCrypt::Partition> > >::_Buynode0
PUBLIC	??1?$_List_buy@UPartition@GostCrypt@@V?$allocator@UPartition@GostCrypt@@@std@@@std@@QAE@XZ ; std::_List_buy<GostCrypt::Partition,std::allocator<GostCrypt::Partition> >::~_List_buy<GostCrypt::Partition,std::allocator<GostCrypt::Partition> >
PUBLIC	??0?$list@UPartition@GostCrypt@@V?$allocator@UPartition@GostCrypt@@@std@@@std@@QAE@ABV01@@Z ; std::list<GostCrypt::Partition,std::allocator<GostCrypt::Partition> >::list<GostCrypt::Partition,std::allocator<GostCrypt::Partition> >
PUBLIC	??1?$list@UPartition@GostCrypt@@V?$allocator@UPartition@GostCrypt@@@std@@@std@@QAE@XZ ; std::list<GostCrypt::Partition,std::allocator<GostCrypt::Partition> >::~list<GostCrypt::Partition,std::allocator<GostCrypt::Partition> >
PUBLIC	?_Unchecked_erase@?$list@UPartition@GostCrypt@@V?$allocator@UPartition@GostCrypt@@@std@@@std@@QAEXV?$_List_unchecked_const_iterator@V?$_List_val@U?$_List_simple_types@UPartition@GostCrypt@@@std@@@std@@U_Iterator_base0@2@@2@@Z ; std::list<GostCrypt::Partition,std::allocator<GostCrypt::Partition> >::_Unchecked_erase
PUBLIC	?erase@?$list@UPartition@GostCrypt@@V?$allocator@UPartition@GostCrypt@@@std@@@std@@QAE?AV?$_List_iterator@V?$_List_val@U?$_List_simple_types@UPartition@GostCrypt@@@std@@@std@@@2@V?$_List_const_iterator@V?$_List_val@U?$_List_simple_types@UPartition@GostCrypt@@@std@@@std@@@2@0@Z ; std::list<GostCrypt::Partition,std::allocator<GostCrypt::Partition> >::erase
PUBLIC	?clear@?$list@UPartition@GostCrypt@@V?$allocator@UPartition@GostCrypt@@@std@@@std@@QAEXXZ ; std::list<GostCrypt::Partition,std::allocator<GostCrypt::Partition> >::clear
PUBLIC	??0SystemDriveConfiguration@GostCrypt@@QAE@XZ	; GostCrypt::SystemDriveConfiguration::SystemDriveConfiguration
PUBLIC	??1SystemDriveConfiguration@GostCrypt@@QAE@XZ	; GostCrypt::SystemDriveConfiguration::~SystemDriveConfiguration
PUBLIC	??0SystemDriveConfiguration@GostCrypt@@QAE@ABU01@@Z ; GostCrypt::SystemDriveConfiguration::SystemDriveConfiguration
PUBLIC	??4SystemDriveConfiguration@GostCrypt@@QAEAAU01@ABU01@@Z ; GostCrypt::SystemDriveConfiguration::operator=
PUBLIC	??0BootEncryption@GostCrypt@@QAE@PAUHWND__@@@Z	; GostCrypt::BootEncryption::BootEncryption
PUBLIC	??1BootEncryption@GostCrypt@@QAE@XZ		; GostCrypt::BootEncryption::~BootEncryption
PUBLIC	?CallDriver@BootEncryption@GostCrypt@@QAEXKPAXK0K@Z ; GostCrypt::BootEncryption::CallDriver
PUBLIC	?GetDriverServiceStartType@BootEncryption@GostCrypt@@QAEKXZ ; GostCrypt::BootEncryption::GetDriverServiceStartType
PUBLIC	?GetHiddenOSCreationPhase@BootEncryption@GostCrypt@@QAEIXZ ; GostCrypt::BootEncryption::GetHiddenOSCreationPhase
PUBLIC	?GetInstalledBootLoaderVersion@BootEncryption@GostCrypt@@QAEGXZ ; GostCrypt::BootEncryption::GetInstalledBootLoaderVersion
PUBLIC	?GetPartitionForHiddenOS@BootEncryption@GostCrypt@@QAE?AUPartition@2@XZ ; GostCrypt::BootEncryption::GetPartitionForHiddenOS
PUBLIC	?IsBootLoaderOnDrive@BootEncryption@GostCrypt@@QAE_NPAD@Z ; GostCrypt::BootEncryption::IsBootLoaderOnDrive
PUBLIC	?GetStatus@BootEncryption@GostCrypt@@QAE?AUBootEncryptionStatus@@XZ ; GostCrypt::BootEncryption::GetStatus
PUBLIC	?GetTempPathA@BootEncryption@GostCrypt@@QAE?AV?$basic_string@DU?$char_traits@D@std@@V?$allocator@D@2@@std@@XZ ; GostCrypt::BootEncryption::GetTempPathA
PUBLIC	?GetVolumeProperties@BootEncryption@GostCrypt@@QAEXPAUVOLUME_PROPERTIES_STRUCT@@@Z ; GostCrypt::BootEncryption::GetVolumeProperties
PUBLIC	?GetSystemDriveConfiguration@BootEncryption@GostCrypt@@QAE?AUSystemDriveConfiguration@2@XZ ; GostCrypt::BootEncryption::GetSystemDriveConfiguration
PUBLIC	?InstallBootLoader@BootEncryption@GostCrypt@@QAEX_N0@Z ; GostCrypt::BootEncryption::InstallBootLoader
PUBLIC	?InvalidateCachedSysDriveProperties@BootEncryption@GostCrypt@@QAEXXZ ; GostCrypt::BootEncryption::InvalidateCachedSysDriveProperties
PUBLIC	?IsCDDrivePresent@BootEncryption@GostCrypt@@QAE_NXZ ; GostCrypt::BootEncryption::IsCDDrivePresent
PUBLIC	?IsHiddenSystemRunning@BootEncryption@GostCrypt@@QAE_NXZ ; GostCrypt::BootEncryption::IsHiddenSystemRunning
PUBLIC	?ProbeRealSystemDriveSize@BootEncryption@GostCrypt@@QAEXXZ ; GostCrypt::BootEncryption::ProbeRealSystemDriveSize
PUBLIC	?ReadBootSectorConfig@BootEncryption@GostCrypt@@QAEXPAEI0PAV?$basic_string@DU?$char_traits@D@std@@V?$allocator@D@2@@std@@PAG@Z ; GostCrypt::BootEncryption::ReadBootSectorConfig
PUBLIC	?ReadDriverConfigurationFlags@BootEncryption@GostCrypt@@QAEIXZ ; GostCrypt::BootEncryption::ReadDriverConfigurationFlags
PUBLIC	?RegisterBootDriver@BootEncryption@GostCrypt@@QAEX_N@Z ; GostCrypt::BootEncryption::RegisterBootDriver
PUBLIC	?RegisterFilterDriver@BootEncryption@GostCrypt@@QAEX_NW4FilterType@12@@Z ; GostCrypt::BootEncryption::RegisterFilterDriver
PUBLIC	?RenameDeprecatedSystemLoaderBackup@BootEncryption@GostCrypt@@QAEXXZ ; GostCrypt::BootEncryption::RenameDeprecatedSystemLoaderBackup
PUBLIC	?RestartComputer@BootEncryption@GostCrypt@@QAE_NXZ ; GostCrypt::BootEncryption::RestartComputer
PUBLIC	?SetDriverServiceStartType@BootEncryption@GostCrypt@@QAEXK@Z ; GostCrypt::BootEncryption::SetDriverServiceStartType
PUBLIC	?SetHiddenOSCreationPhase@BootEncryption@GostCrypt@@QAEXI@Z ; GostCrypt::BootEncryption::SetHiddenOSCreationPhase
PUBLIC	?SystemDriveContainsPartitionType@BootEncryption@GostCrypt@@QAE_NE@Z ; GostCrypt::BootEncryption::SystemDriveContainsPartitionType
PUBLIC	?SystemDriveContainsExtendedPartition@BootEncryption@GostCrypt@@QAE_NXZ ; GostCrypt::BootEncryption::SystemDriveContainsExtendedPartition
PUBLIC	?SystemDriveContainsNonStandardPartitions@BootEncryption@GostCrypt@@QAE_NXZ ; GostCrypt::BootEncryption::SystemDriveContainsNonStandardPartitions
PUBLIC	?SystemPartitionCoversWholeDrive@BootEncryption@GostCrypt@@QAE_NXZ ; GostCrypt::BootEncryption::SystemPartitionCoversWholeDrive
PUBLIC	?SystemDriveIsDynamic@BootEncryption@GostCrypt@@QAE_NXZ ; GostCrypt::BootEncryption::SystemDriveIsDynamic
PUBLIC	?VerifyRescueDisk@BootEncryption@GostCrypt@@QAE_NXZ ; GostCrypt::BootEncryption::VerifyRescueDisk
PUBLIC	?WriteBootDriveSector@BootEncryption@GostCrypt@@QAEX_KPAE@Z ; GostCrypt::BootEncryption::WriteBootDriveSector
PUBLIC	?WriteBootSectorConfig@BootEncryption@GostCrypt@@QAEXQBE@Z ; GostCrypt::BootEncryption::WriteBootSectorConfig
PUBLIC	?WriteBootSectorUserConfig@BootEncryption@GostCrypt@@QAEXEABV?$basic_string@DU?$char_traits@D@std@@V?$allocator@D@2@@std@@@Z ; GostCrypt::BootEncryption::WriteBootSectorUserConfig
PUBLIC	?CreateBootLoaderInMemory@BootEncryption@GostCrypt@@IAEXPAEI_N1@Z ; GostCrypt::BootEncryption::CreateBootLoaderInMemory
PUBLIC	?GetSystemLoaderBackupPath@BootEncryption@GostCrypt@@IAE?AV?$basic_string@DU?$char_traits@D@std@@V?$allocator@D@2@@std@@XZ ; GostCrypt::BootEncryption::GetSystemLoaderBackupPath
PUBLIC	?GetChecksum@BootEncryption@GostCrypt@@IAEIPAEI@Z ; GostCrypt::BootEncryption::GetChecksum
PUBLIC	?GetDriveGeometry@BootEncryption@GostCrypt@@IAE?AU_DISK_GEOMETRY@@H@Z ; GostCrypt::BootEncryption::GetDriveGeometry
PUBLIC	?GetDrivePartitions@BootEncryption@GostCrypt@@IAE?AV?$list@UPartition@GostCrypt@@V?$allocator@UPartition@GostCrypt@@@std@@@std@@H@Z ; GostCrypt::BootEncryption::GetDrivePartitions
PUBLIC	?GetRemarksOnHiddenOS@BootEncryption@GostCrypt@@IAE?AV?$basic_string@_WU?$char_traits@_W@std@@V?$allocator@_W@2@@std@@XZ ; GostCrypt::BootEncryption::GetRemarksOnHiddenOS
PUBLIC	?GetWindowsDirectoryA@BootEncryption@GostCrypt@@IAE?AV?$basic_string@DU?$char_traits@D@std@@V?$allocator@D@2@@std@@XZ ; GostCrypt::BootEncryption::GetWindowsDirectoryA
PUBLIC	?RegisterFilter@BootEncryption@GostCrypt@@IAEX_NW4FilterType@12@PBU_GUID@@@Z ; GostCrypt::BootEncryption::RegisterFilter
PUBLIC	?CallDriver@Elevator@GostCrypt@@SAXKPAXK0K@Z	; GostCrypt::Elevator::CallDriver
PUBLIC	?RegisterFilterDriver@Elevator@GostCrypt@@SAX_NW4FilterType@BootEncryption@2@@Z ; GostCrypt::Elevator::RegisterFilterDriver
PUBLIC	?SetDriverServiceStartType@Elevator@GostCrypt@@SAXK@Z ; GostCrypt::Elevator::SetDriverServiceStartType
PUBLIC	?Show@GostCrypt@@YAXPAUHWND__@@ABV?$basic_string@DU?$char_traits@D@std@@V?$allocator@D@2@@std@@@Z ; GostCrypt::Show
PUBLIC	??$?HDU?$char_traits@D@std@@V?$allocator@D@1@@std@@YA?AV?$basic_string@DU?$char_traits@D@std@@V?$allocator@D@2@@0@$$QAV10@0@Z ; std::operator+<char,std::char_traits<char>,std::allocator<char> >
PUBLIC	??$?HDU?$char_traits@D@std@@V?$allocator@D@1@@std@@YA?AV?$basic_string@DU?$char_traits@D@std@@V?$allocator@D@2@@0@$$QAV10@ABV10@@Z ; std::operator+<char,std::char_traits<char>,std::allocator<char> >
PUBLIC	??$GetContainerForward@V?$list@UPartition@GostCrypt@@V?$allocator@UPartition@GostCrypt@@@std@@@std@@@ForEach@GostCrypt@@SA?AU?$ContainerForward@V?$list@UPartition@GostCrypt@@V?$allocator@UPartition@GostCrypt@@@std@@@std@@@01@ABV?$list@UPartition@GostCrypt@@V?$allocator@UPartition@GostCrypt@@@std@@@std@@@Z ; GostCrypt::ForEach::GetContainerForward<std::list<GostCrypt::Partition,std::allocator<GostCrypt::Partition> > >
PUBLIC	?IsNotEnd@?$ContainerForward@V?$list@UPartition@GostCrypt@@V?$allocator@UPartition@GostCrypt@@@std@@@std@@@ForEach@GostCrypt@@UBE_NXZ ; GostCrypt::ForEach::ContainerForward<std::list<GostCrypt::Partition,std::allocator<GostCrypt::Partition> > >::IsNotEnd
PUBLIC	?Next@?$ContainerForward@V?$list@UPartition@GostCrypt@@V?$allocator@UPartition@GostCrypt@@@std@@@std@@@ForEach@GostCrypt@@UBEXXZ ; GostCrypt::ForEach::ContainerForward<std::list<GostCrypt::Partition,std::allocator<GostCrypt::Partition> > >::Next
PUBLIC	??1?$ContainerForward@V?$list@UPartition@GostCrypt@@V?$allocator@UPartition@GostCrypt@@@std@@@std@@@ForEach@GostCrypt@@UAE@XZ ; GostCrypt::ForEach::ContainerForward<std::list<GostCrypt::Partition,std::allocator<GostCrypt::Partition> > >::~ContainerForward<std::list<GostCrypt::Partition,std::allocator<GostCrypt::Partition> > >
PUBLIC	??_G?$ContainerForward@V?$list@UPartition@GostCrypt@@V?$allocator@UPartition@GostCrypt@@@std@@@std@@@ForEach@GostCrypt@@UAEPAXI@Z ; GostCrypt::ForEach::ContainerForward<std::list<GostCrypt::Partition,std::allocator<GostCrypt::Partition> > >::`scalar deleting destructor'
PUBLIC	??$?H_WU?$char_traits@_W@std@@V?$allocator@_W@1@@std@@YA?AV?$basic_string@_WU?$char_traits@_W@std@@V?$allocator@_W@2@@0@$$QAV10@0@Z ; std::operator+<wchar_t,std::char_traits<wchar_t>,std::allocator<wchar_t> >
PUBLIC	??$?H_WU?$char_traits@_W@std@@V?$allocator@_W@1@@std@@YA?AV?$basic_string@_WU?$char_traits@_W@std@@V?$allocator@_W@2@@0@$$QAV10@PB_W@Z ; std::operator+<wchar_t,std::char_traits<wchar_t>,std::allocator<wchar_t> >
PUBLIC	??$?H_WU?$char_traits@_W@std@@V?$allocator@_W@1@@std@@YA?AV?$basic_string@_WU?$char_traits@_W@std@@V?$allocator@_W@2@@0@ABV10@PB_W@Z ; std::operator+<wchar_t,std::char_traits<wchar_t>,std::allocator<wchar_t> >
PUBLIC	??1?$basic_ios@DU?$char_traits@D@std@@@std@@UAE@XZ ; std::basic_ios<char,std::char_traits<char> >::~basic_ios<char,std::char_traits<char> >
PUBLIC	?init@?$basic_ios@DU?$char_traits@D@std@@@std@@IAEXPAV?$basic_streambuf@DU?$char_traits@D@std@@@2@_N@Z ; std::basic_ios<char,std::char_traits<char> >::init
PUBLIC	??_G?$basic_ios@DU?$char_traits@D@std@@@std@@UAEPAXI@Z ; std::basic_ios<char,std::char_traits<char> >::`scalar deleting destructor'
PUBLIC	??1?$basic_istream@DU?$char_traits@D@std@@@std@@UAE@XZ ; std::basic_istream<char,std::char_traits<char> >::~basic_istream<char,std::char_traits<char> >
PUBLIC	??_G?$basic_istream@DU?$char_traits@D@std@@@std@@UAEPAXI@Z ; std::basic_istream<char,std::char_traits<char> >::`scalar deleting destructor'
PUBLIC	??1?$basic_ostream@DU?$char_traits@D@std@@@std@@UAE@XZ ; std::basic_ostream<char,std::char_traits<char> >::~basic_ostream<char,std::char_traits<char> >
PUBLIC	?_Osfx@?$basic_ostream@DU?$char_traits@D@std@@@std@@QAEXXZ ; std::basic_ostream<char,std::char_traits<char> >::_Osfx
PUBLIC	??6?$basic_ostream@DU?$char_traits@D@std@@@std@@QAEAAV01@H@Z ; std::basic_ostream<char,std::char_traits<char> >::operator<<
PUBLIC	?flush@?$basic_ostream@DU?$char_traits@D@std@@@std@@QAEAAV12@XZ ; std::basic_ostream<char,std::char_traits<char> >::flush
PUBLIC	??_G?$basic_ostream@DU?$char_traits@D@std@@@std@@UAEPAXI@Z ; std::basic_ostream<char,std::char_traits<char> >::`scalar deleting destructor'
PUBLIC	??0?$basic_iostream@DU?$char_traits@D@std@@@std@@QAE@PAV?$basic_streambuf@DU?$char_traits@D@std@@@1@@Z ; std::basic_iostream<char,std::char_traits<char> >::basic_iostream<char,std::char_traits<char> >
PUBLIC	??1?$basic_iostream@DU?$char_traits@D@std@@@std@@UAE@XZ ; std::basic_iostream<char,std::char_traits<char> >::~basic_iostream<char,std::char_traits<char> >
PUBLIC	??_G?$basic_iostream@DU?$char_traits@D@std@@@std@@UAEPAXI@Z ; std::basic_iostream<char,std::char_traits<char> >::`scalar deleting destructor'
PUBLIC	??_D?$basic_iostream@DU?$char_traits@D@std@@@std@@QAEXXZ ; std::basic_iostream<char,std::char_traits<char> >::`vbase destructor'
PUBLIC	??0?$basic_stringstream@DU?$char_traits@D@std@@V?$allocator@D@2@@std@@QAE@H@Z ; std::basic_stringstream<char,std::char_traits<char>,std::allocator<char> >::basic_stringstream<char,std::char_traits<char>,std::allocator<char> >
PUBLIC	??1?$basic_stringstream@DU?$char_traits@D@std@@V?$allocator@D@2@@std@@UAE@XZ ; std::basic_stringstream<char,std::char_traits<char>,std::allocator<char> >::~basic_stringstream<char,std::char_traits<char>,std::allocator<char> >
PUBLIC	?str@?$basic_stringstream@DU?$char_traits@D@std@@V?$allocator@D@2@@std@@QBE?AV?$basic_string@DU?$char_traits@D@std@@V?$allocator@D@2@@2@XZ ; std::basic_stringstream<char,std::char_traits<char>,std::allocator<char> >::str
PUBLIC	??0?$basic_streambuf@DU?$char_traits@D@std@@@std@@IAE@XZ ; std::basic_streambuf<char,std::char_traits<char> >::basic_streambuf<char,std::char_traits<char> >
PUBLIC	??1?$basic_streambuf@DU?$char_traits@D@std@@@std@@UAE@XZ ; std::basic_streambuf<char,std::char_traits<char> >::~basic_streambuf<char,std::char_traits<char> >
PUBLIC	?_Lock@?$basic_streambuf@DU?$char_traits@D@std@@@std@@UAEXXZ ; std::basic_streambuf<char,std::char_traits<char> >::_Lock
PUBLIC	?_Unlock@?$basic_streambuf@DU?$char_traits@D@std@@@std@@UAEXXZ ; std::basic_streambuf<char,std::char_traits<char> >::_Unlock
PUBLIC	?_Gnavail@?$basic_streambuf@DU?$char_traits@D@std@@@std@@IBE_JXZ ; std::basic_streambuf<char,std::char_traits<char> >::_Gnavail
PUBLIC	?_Pnavail@?$basic_streambuf@DU?$char_traits@D@std@@@std@@IBE_JXZ ; std::basic_streambuf<char,std::char_traits<char> >::_Pnavail
PUBLIC	?overflow@?$basic_streambuf@DU?$char_traits@D@std@@@std@@MAEHH@Z ; std::basic_streambuf<char,std::char_traits<char> >::overflow
PUBLIC	?pbackfail@?$basic_streambuf@DU?$char_traits@D@std@@@std@@MAEHH@Z ; std::basic_streambuf<char,std::char_traits<char> >::pbackfail
PUBLIC	?showmanyc@?$basic_streambuf@DU?$char_traits@D@std@@@std@@MAE_JXZ ; std::basic_streambuf<char,std::char_traits<char> >::showmanyc
PUBLIC	?underflow@?$basic_streambuf@DU?$char_traits@D@std@@@std@@MAEHXZ ; std::basic_streambuf<char,std::char_traits<char> >::underflow
PUBLIC	?uflow@?$basic_streambuf@DU?$char_traits@D@std@@@std@@MAEHXZ ; std::basic_streambuf<char,std::char_traits<char> >::uflow
PUBLIC	?xsgetn@?$basic_streambuf@DU?$char_traits@D@std@@@std@@MAE_JPAD_J@Z ; std::basic_streambuf<char,std::char_traits<char> >::xsgetn
PUBLIC	?xsputn@?$basic_streambuf@DU?$char_traits@D@std@@@std@@MAE_JPBD_J@Z ; std::basic_streambuf<char,std::char_traits<char> >::xsputn
PUBLIC	?seekoff@?$basic_streambuf@DU?$char_traits@D@std@@@std@@MAE?AV?$fpos@U_Mbstatet@@@2@_JHH@Z ; std::basic_streambuf<char,std::char_traits<char> >::seekoff
PUBLIC	?seekpos@?$basic_streambuf@DU?$char_traits@D@std@@@std@@MAE?AV?$fpos@U_Mbstatet@@@2@V32@H@Z ; std::basic_streambuf<char,std::char_traits<char> >::seekpos
PUBLIC	?setbuf@?$basic_streambuf@DU?$char_traits@D@std@@@std@@MAEPAV12@PAD_J@Z ; std::basic_streambuf<char,std::char_traits<char> >::setbuf
PUBLIC	?sync@?$basic_streambuf@DU?$char_traits@D@std@@@std@@MAEHXZ ; std::basic_streambuf<char,std::char_traits<char> >::sync
PUBLIC	?imbue@?$basic_streambuf@DU?$char_traits@D@std@@@std@@MAEXABVlocale@2@@Z ; std::basic_streambuf<char,std::char_traits<char> >::imbue
PUBLIC	??_G?$basic_streambuf@DU?$char_traits@D@std@@@std@@UAEPAXI@Z ; std::basic_streambuf<char,std::char_traits<char> >::`scalar deleting destructor'
PUBLIC	??1?$basic_stringbuf@DU?$char_traits@D@std@@V?$allocator@D@2@@std@@UAE@XZ ; std::basic_stringbuf<char,std::char_traits<char>,std::allocator<char> >::~basic_stringbuf<char,std::char_traits<char>,std::allocator<char> >
PUBLIC	?str@?$basic_stringbuf@DU?$char_traits@D@std@@V?$allocator@D@2@@std@@QBE?AV?$basic_string@DU?$char_traits@D@std@@V?$allocator@D@2@@2@XZ ; std::basic_stringbuf<char,std::char_traits<char>,std::allocator<char> >::str
PUBLIC	?overflow@?$basic_stringbuf@DU?$char_traits@D@std@@V?$allocator@D@2@@std@@MAEHH@Z ; std::basic_stringbuf<char,std::char_traits<char>,std::allocator<char> >::overflow
PUBLIC	?pbackfail@?$basic_stringbuf@DU?$char_traits@D@std@@V?$allocator@D@2@@std@@MAEHH@Z ; std::basic_stringbuf<char,std::char_traits<char>,std::allocator<char> >::pbackfail
PUBLIC	?underflow@?$basic_stringbuf@DU?$char_traits@D@std@@V?$allocator@D@2@@std@@MAEHXZ ; std::basic_stringbuf<char,std::char_traits<char>,std::allocator<char> >::underflow
PUBLIC	?seekoff@?$basic_stringbuf@DU?$char_traits@D@std@@V?$allocator@D@2@@std@@MAE?AV?$fpos@U_Mbstatet@@@2@_JHH@Z ; std::basic_stringbuf<char,std::char_traits<char>,std::allocator<char> >::seekoff
PUBLIC	?seekpos@?$basic_stringbuf@DU?$char_traits@D@std@@V?$allocator@D@2@@std@@MAE?AV?$fpos@U_Mbstatet@@@2@V32@H@Z ; std::basic_stringbuf<char,std::char_traits<char>,std::allocator<char> >::seekpos
PUBLIC	?_Tidy@?$basic_stringbuf@DU?$char_traits@D@std@@V?$allocator@D@2@@std@@IAEXXZ ; std::basic_stringbuf<char,std::char_traits<char>,std::allocator<char> >::_Tidy
PUBLIC	??_G?$basic_stringbuf@DU?$char_traits@D@std@@V?$allocator@D@2@@std@@UAEPAXI@Z ; std::basic_stringbuf<char,std::char_traits<char>,std::allocator<char> >::`scalar deleting destructor'
PUBLIC	??_G?$basic_stringstream@DU?$char_traits@D@std@@V?$allocator@D@2@@std@@UAEPAXI@Z ; std::basic_stringstream<char,std::char_traits<char>,std::allocator<char> >::`scalar deleting destructor'
PUBLIC	??_D?$basic_stringstream@DU?$char_traits@D@std@@V?$allocator@D@2@@std@@QAEXXZ ; std::basic_stringstream<char,std::char_traits<char>,std::allocator<char> >::`vbase destructor'
PUBLIC	??$?6U?$char_traits@D@std@@@std@@YAAAV?$basic_ostream@DU?$char_traits@D@std@@@0@AAV10@PBD@Z ; std::operator<<<std::char_traits<char> >
PUBLIC	??1?$basic_ios@_WU?$char_traits@_W@std@@@std@@UAE@XZ ; std::basic_ios<wchar_t,std::char_traits<wchar_t> >::~basic_ios<wchar_t,std::char_traits<wchar_t> >
PUBLIC	?init@?$basic_ios@_WU?$char_traits@_W@std@@@std@@IAEXPAV?$basic_streambuf@_WU?$char_traits@_W@std@@@2@_N@Z ; std::basic_ios<wchar_t,std::char_traits<wchar_t> >::init
PUBLIC	??_G?$basic_ios@_WU?$char_traits@_W@std@@@std@@UAEPAXI@Z ; std::basic_ios<wchar_t,std::char_traits<wchar_t> >::`scalar deleting destructor'
PUBLIC	??1?$basic_istream@_WU?$char_traits@_W@std@@@std@@UAE@XZ ; std::basic_istream<wchar_t,std::char_traits<wchar_t> >::~basic_istream<wchar_t,std::char_traits<wchar_t> >
PUBLIC	??_G?$basic_istream@_WU?$char_traits@_W@std@@@std@@UAEPAXI@Z ; std::basic_istream<wchar_t,std::char_traits<wchar_t> >::`scalar deleting destructor'
PUBLIC	??1?$basic_ostream@_WU?$char_traits@_W@std@@@std@@UAE@XZ ; std::basic_ostream<wchar_t,std::char_traits<wchar_t> >::~basic_ostream<wchar_t,std::char_traits<wchar_t> >
PUBLIC	?_Osfx@?$basic_ostream@_WU?$char_traits@_W@std@@@std@@QAEXXZ ; std::basic_ostream<wchar_t,std::char_traits<wchar_t> >::_Osfx
PUBLIC	?flush@?$basic_ostream@_WU?$char_traits@_W@std@@@std@@QAEAAV12@XZ ; std::basic_ostream<wchar_t,std::char_traits<wchar_t> >::flush
PUBLIC	??_G?$basic_ostream@_WU?$char_traits@_W@std@@@std@@UAEPAXI@Z ; std::basic_ostream<wchar_t,std::char_traits<wchar_t> >::`scalar deleting destructor'
PUBLIC	??0?$basic_iostream@_WU?$char_traits@_W@std@@@std@@QAE@PAV?$basic_streambuf@_WU?$char_traits@_W@std@@@1@@Z ; std::basic_iostream<wchar_t,std::char_traits<wchar_t> >::basic_iostream<wchar_t,std::char_traits<wchar_t> >
PUBLIC	??1?$basic_iostream@_WU?$char_traits@_W@std@@@std@@UAE@XZ ; std::basic_iostream<wchar_t,std::char_traits<wchar_t> >::~basic_iostream<wchar_t,std::char_traits<wchar_t> >
PUBLIC	??_G?$basic_iostream@_WU?$char_traits@_W@std@@@std@@UAEPAXI@Z ; std::basic_iostream<wchar_t,std::char_traits<wchar_t> >::`scalar deleting destructor'
PUBLIC	??_D?$basic_iostream@_WU?$char_traits@_W@std@@@std@@QAEXXZ ; std::basic_iostream<wchar_t,std::char_traits<wchar_t> >::`vbase destructor'
PUBLIC	??1?$basic_stringstream@_WU?$char_traits@_W@std@@V?$allocator@_W@2@@std@@UAE@XZ ; std::basic_stringstream<wchar_t,std::char_traits<wchar_t>,std::allocator<wchar_t> >::~basic_stringstream<wchar_t,std::char_traits<wchar_t>,std::allocator<wchar_t> >
PUBLIC	?str@?$basic_stringstream@_WU?$char_traits@_W@std@@V?$allocator@_W@2@@std@@QBE?AV?$basic_string@_WU?$char_traits@_W@std@@V?$allocator@_W@2@@2@XZ ; std::basic_stringstream<wchar_t,std::char_traits<wchar_t>,std::allocator<wchar_t> >::str
PUBLIC	??0?$basic_streambuf@_WU?$char_traits@_W@std@@@std@@IAE@XZ ; std::basic_streambuf<wchar_t,std::char_traits<wchar_t> >::basic_streambuf<wchar_t,std::char_traits<wchar_t> >
PUBLIC	??1?$basic_streambuf@_WU?$char_traits@_W@std@@@std@@UAE@XZ ; std::basic_streambuf<wchar_t,std::char_traits<wchar_t> >::~basic_streambuf<wchar_t,std::char_traits<wchar_t> >
PUBLIC	?_Lock@?$basic_streambuf@_WU?$char_traits@_W@std@@@std@@UAEXXZ ; std::basic_streambuf<wchar_t,std::char_traits<wchar_t> >::_Lock
PUBLIC	?_Unlock@?$basic_streambuf@_WU?$char_traits@_W@std@@@std@@UAEXXZ ; std::basic_streambuf<wchar_t,std::char_traits<wchar_t> >::_Unlock
PUBLIC	?_Gnavail@?$basic_streambuf@_WU?$char_traits@_W@std@@@std@@IBE_JXZ ; std::basic_streambuf<wchar_t,std::char_traits<wchar_t> >::_Gnavail
PUBLIC	?_Pnavail@?$basic_streambuf@_WU?$char_traits@_W@std@@@std@@IBE_JXZ ; std::basic_streambuf<wchar_t,std::char_traits<wchar_t> >::_Pnavail
PUBLIC	?overflow@?$basic_streambuf@_WU?$char_traits@_W@std@@@std@@MAEGG@Z ; std::basic_streambuf<wchar_t,std::char_traits<wchar_t> >::overflow
PUBLIC	?pbackfail@?$basic_streambuf@_WU?$char_traits@_W@std@@@std@@MAEGG@Z ; std::basic_streambuf<wchar_t,std::char_traits<wchar_t> >::pbackfail
PUBLIC	?showmanyc@?$basic_streambuf@_WU?$char_traits@_W@std@@@std@@MAE_JXZ ; std::basic_streambuf<wchar_t,std::char_traits<wchar_t> >::showmanyc
PUBLIC	?underflow@?$basic_streambuf@_WU?$char_traits@_W@std@@@std@@MAEGXZ ; std::basic_streambuf<wchar_t,std::char_traits<wchar_t> >::underflow
PUBLIC	?uflow@?$basic_streambuf@_WU?$char_traits@_W@std@@@std@@MAEGXZ ; std::basic_streambuf<wchar_t,std::char_traits<wchar_t> >::uflow
PUBLIC	?xsgetn@?$basic_streambuf@_WU?$char_traits@_W@std@@@std@@MAE_JPA_W_J@Z ; std::basic_streambuf<wchar_t,std::char_traits<wchar_t> >::xsgetn
PUBLIC	?xsputn@?$basic_streambuf@_WU?$char_traits@_W@std@@@std@@MAE_JPB_W_J@Z ; std::basic_streambuf<wchar_t,std::char_traits<wchar_t> >::xsputn
PUBLIC	?seekoff@?$basic_streambuf@_WU?$char_traits@_W@std@@@std@@MAE?AV?$fpos@U_Mbstatet@@@2@_JHH@Z ; std::basic_streambuf<wchar_t,std::char_traits<wchar_t> >::seekoff
PUBLIC	?seekpos@?$basic_streambuf@_WU?$char_traits@_W@std@@@std@@MAE?AV?$fpos@U_Mbstatet@@@2@V32@H@Z ; std::basic_streambuf<wchar_t,std::char_traits<wchar_t> >::seekpos
PUBLIC	?setbuf@?$basic_streambuf@_WU?$char_traits@_W@std@@@std@@MAEPAV12@PA_W_J@Z ; std::basic_streambuf<wchar_t,std::char_traits<wchar_t> >::setbuf
PUBLIC	?sync@?$basic_streambuf@_WU?$char_traits@_W@std@@@std@@MAEHXZ ; std::basic_streambuf<wchar_t,std::char_traits<wchar_t> >::sync
PUBLIC	?imbue@?$basic_streambuf@_WU?$char_traits@_W@std@@@std@@MAEXABVlocale@2@@Z ; std::basic_streambuf<wchar_t,std::char_traits<wchar_t> >::imbue
PUBLIC	??_G?$basic_streambuf@_WU?$char_traits@_W@std@@@std@@UAEPAXI@Z ; std::basic_streambuf<wchar_t,std::char_traits<wchar_t> >::`scalar deleting destructor'
PUBLIC	??1?$basic_stringbuf@_WU?$char_traits@_W@std@@V?$allocator@_W@2@@std@@UAE@XZ ; std::basic_stringbuf<wchar_t,std::char_traits<wchar_t>,std::allocator<wchar_t> >::~basic_stringbuf<wchar_t,std::char_traits<wchar_t>,std::allocator<wchar_t> >
PUBLIC	?str@?$basic_stringbuf@_WU?$char_traits@_W@std@@V?$allocator@_W@2@@std@@QBE?AV?$basic_string@_WU?$char_traits@_W@std@@V?$allocator@_W@2@@2@XZ ; std::basic_stringbuf<wchar_t,std::char_traits<wchar_t>,std::allocator<wchar_t> >::str
PUBLIC	?overflow@?$basic_stringbuf@_WU?$char_traits@_W@std@@V?$allocator@_W@2@@std@@MAEGG@Z ; std::basic_stringbuf<wchar_t,std::char_traits<wchar_t>,std::allocator<wchar_t> >::overflow
PUBLIC	?pbackfail@?$basic_stringbuf@_WU?$char_traits@_W@std@@V?$allocator@_W@2@@std@@MAEGG@Z ; std::basic_stringbuf<wchar_t,std::char_traits<wchar_t>,std::allocator<wchar_t> >::pbackfail
PUBLIC	?underflow@?$basic_stringbuf@_WU?$char_traits@_W@std@@V?$allocator@_W@2@@std@@MAEGXZ ; std::basic_stringbuf<wchar_t,std::char_traits<wchar_t>,std::allocator<wchar_t> >::underflow
PUBLIC	?seekoff@?$basic_stringbuf@_WU?$char_traits@_W@std@@V?$allocator@_W@2@@std@@MAE?AV?$fpos@U_Mbstatet@@@2@_JHH@Z ; std::basic_stringbuf<wchar_t,std::char_traits<wchar_t>,std::allocator<wchar_t> >::seekoff
PUBLIC	?seekpos@?$basic_stringbuf@_WU?$char_traits@_W@std@@V?$allocator@_W@2@@std@@MAE?AV?$fpos@U_Mbstatet@@@2@V32@H@Z ; std::basic_stringbuf<wchar_t,std::char_traits<wchar_t>,std::allocator<wchar_t> >::seekpos
PUBLIC	?_Tidy@?$basic_stringbuf@_WU?$char_traits@_W@std@@V?$allocator@_W@2@@std@@IAEXXZ ; std::basic_stringbuf<wchar_t,std::char_traits<wchar_t>,std::allocator<wchar_t> >::_Tidy
PUBLIC	??_G?$basic_stringbuf@_WU?$char_traits@_W@std@@V?$allocator@_W@2@@std@@UAEPAXI@Z ; std::basic_stringbuf<wchar_t,std::char_traits<wchar_t>,std::allocator<wchar_t> >::`scalar deleting destructor'
PUBLIC	??_G?$basic_stringstream@_WU?$char_traits@_W@std@@V?$allocator@_W@2@@std@@UAEPAXI@Z ; std::basic_stringstream<wchar_t,std::char_traits<wchar_t>,std::allocator<wchar_t> >::`scalar deleting destructor'
PUBLIC	??_D?$basic_stringstream@_WU?$char_traits@_W@std@@V?$allocator@_W@2@@std@@QAEXXZ ; std::basic_stringstream<wchar_t,std::char_traits<wchar_t>,std::allocator<wchar_t> >::`vbase destructor'
PUBLIC	??$?6_WU?$char_traits@_W@std@@@std@@YAAAV?$basic_ostream@_WU?$char_traits@_W@std@@@0@AAV10@PBD@Z ; std::operator<<<wchar_t,std::char_traits<wchar_t> >
PUBLIC	??$?HDU?$char_traits@D@std@@V?$allocator@D@1@@std@@YA?AV?$basic_string@DU?$char_traits@D@std@@V?$allocator@D@2@@0@$$QAV10@D@Z ; std::operator+<char,std::char_traits<char>,std::allocator<char> >
PUBLIC	??$?HDU?$char_traits@D@std@@V?$allocator@D@1@@std@@YA?AV?$basic_string@DU?$char_traits@D@std@@V?$allocator@D@2@@0@ABV10@D@Z ; std::operator+<char,std::char_traits<char>,std::allocator<char> >
PUBLIC	??$assign@V?$_List_const_iterator@V?$_List_val@U?$_List_simple_types@UPartition@GostCrypt@@@std@@@std@@@std@@@?$list@UPartition@GostCrypt@@V?$allocator@UPartition@GostCrypt@@@std@@@std@@QAEXV?$_List_const_iterator@V?$_List_val@U?$_List_simple_types@UPartition@GostCrypt@@@std@@@std@@@1@0@Z ; std::list<GostCrypt::Partition,std::allocator<GostCrypt::Partition> >::assign<std::_List_const_iterator<std::_List_val<std::_List_simple_types<GostCrypt::Partition> > > >
PUBLIC	??1_Sentry_base@?$basic_ostream@DU?$char_traits@D@std@@@std@@QAE@XZ ; std::basic_ostream<char,std::char_traits<char> >::_Sentry_base::~_Sentry_base
PUBLIC	??0sentry@?$basic_ostream@DU?$char_traits@D@std@@@std@@QAE@AAV12@@Z ; std::basic_ostream<char,std::char_traits<char> >::sentry::sentry
PUBLIC	??1sentry@?$basic_ostream@DU?$char_traits@D@std@@@std@@QAE@XZ ; std::basic_ostream<char,std::char_traits<char> >::sentry::~sentry
PUBLIC	??$use_facet@V?$num_put@DV?$ostreambuf_iterator@DU?$char_traits@D@std@@@std@@@std@@@std@@YAABV?$num_put@DV?$ostreambuf_iterator@DU?$char_traits@D@std@@@std@@@0@ABVlocale@0@@Z ; std::use_facet<std::num_put<char,std::ostreambuf_iterator<char,std::char_traits<char> > > >
PUBLIC	?_Getcat@?$num_put@DV?$ostreambuf_iterator@DU?$char_traits@D@std@@@std@@@std@@SAIPAPBVfacet@locale@2@PBV42@@Z ; std::num_put<char,std::ostreambuf_iterator<char,std::char_traits<char> > >::_Getcat
PUBLIC	??1?$num_put@DV?$ostreambuf_iterator@DU?$char_traits@D@std@@@std@@@std@@MAE@XZ ; std::num_put<char,std::ostreambuf_iterator<char,std::char_traits<char> > >::~num_put<char,std::ostreambuf_iterator<char,std::char_traits<char> > >
PUBLIC	?do_put@?$num_put@DV?$ostreambuf_iterator@DU?$char_traits@D@std@@@std@@@std@@MBE?AV?$ostreambuf_iterator@DU?$char_traits@D@std@@@2@V32@AAVios_base@2@D_N@Z ; std::num_put<char,std::ostreambuf_iterator<char,std::char_traits<char> > >::do_put
PUBLIC	?do_put@?$num_put@DV?$ostreambuf_iterator@DU?$char_traits@D@std@@@std@@@std@@MBE?AV?$ostreambuf_iterator@DU?$char_traits@D@std@@@2@V32@AAVios_base@2@DJ@Z ; std::num_put<char,std::ostreambuf_iterator<char,std::char_traits<char> > >::do_put
PUBLIC	?do_put@?$num_put@DV?$ostreambuf_iterator@DU?$char_traits@D@std@@@std@@@std@@MBE?AV?$ostreambuf_iterator@DU?$char_traits@D@std@@@2@V32@AAVios_base@2@DK@Z ; std::num_put<char,std::ostreambuf_iterator<char,std::char_traits<char> > >::do_put
PUBLIC	?do_put@?$num_put@DV?$ostreambuf_iterator@DU?$char_traits@D@std@@@std@@@std@@MBE?AV?$ostreambuf_iterator@DU?$char_traits@D@std@@@2@V32@AAVios_base@2@D_J@Z ; std::num_put<char,std::ostreambuf_iterator<char,std::char_traits<char> > >::do_put
PUBLIC	?do_put@?$num_put@DV?$ostreambuf_iterator@DU?$char_traits@D@std@@@std@@@std@@MBE?AV?$ostreambuf_iterator@DU?$char_traits@D@std@@@2@V32@AAVios_base@2@D_K@Z ; std::num_put<char,std::ostreambuf_iterator<char,std::char_traits<char> > >::do_put
PUBLIC	?do_put@?$num_put@DV?$ostreambuf_iterator@DU?$char_traits@D@std@@@std@@@std@@MBE?AV?$ostreambuf_iterator@DU?$char_traits@D@std@@@2@V32@AAVios_base@2@DN@Z ; std::num_put<char,std::ostreambuf_iterator<char,std::char_traits<char> > >::do_put
PUBLIC	?do_put@?$num_put@DV?$ostreambuf_iterator@DU?$char_traits@D@std@@@std@@@std@@MBE?AV?$ostreambuf_iterator@DU?$char_traits@D@std@@@2@V32@AAVios_base@2@DO@Z ; std::num_put<char,std::ostreambuf_iterator<char,std::char_traits<char> > >::do_put
PUBLIC	?do_put@?$num_put@DV?$ostreambuf_iterator@DU?$char_traits@D@std@@@std@@@std@@MBE?AV?$ostreambuf_iterator@DU?$char_traits@D@std@@@2@V32@AAVios_base@2@DPBX@Z ; std::num_put<char,std::ostreambuf_iterator<char,std::char_traits<char> > >::do_put
PUBLIC	?_Ffmt@?$num_put@DV?$ostreambuf_iterator@DU?$char_traits@D@std@@@std@@@std@@ABAPADPADDH@Z ; std::num_put<char,std::ostreambuf_iterator<char,std::char_traits<char> > >::_Ffmt
PUBLIC	?_Fput@?$num_put@DV?$ostreambuf_iterator@DU?$char_traits@D@std@@@std@@@std@@ABA?AV?$ostreambuf_iterator@DU?$char_traits@D@std@@@2@V32@AAVios_base@2@DPBDI@Z ; std::num_put<char,std::ostreambuf_iterator<char,std::char_traits<char> > >::_Fput
PUBLIC	?_Ifmt@?$num_put@DV?$ostreambuf_iterator@DU?$char_traits@D@std@@@std@@@std@@ABAPADPADPBDH@Z ; std::num_put<char,std::ostreambuf_iterator<char,std::char_traits<char> > >::_Ifmt
PUBLIC	?_Iput@?$num_put@DV?$ostreambuf_iterator@DU?$char_traits@D@std@@@std@@@std@@ABA?AV?$ostreambuf_iterator@DU?$char_traits@D@std@@@2@V32@AAVios_base@2@DPADI@Z ; std::num_put<char,std::ostreambuf_iterator<char,std::char_traits<char> > >::_Iput
PUBLIC	?_Put@?$num_put@DV?$ostreambuf_iterator@DU?$char_traits@D@std@@@std@@@std@@ABA?AV?$ostreambuf_iterator@DU?$char_traits@D@std@@@2@V32@PBDI@Z ; std::num_put<char,std::ostreambuf_iterator<char,std::char_traits<char> > >::_Put
PUBLIC	?_Rep@?$num_put@DV?$ostreambuf_iterator@DU?$char_traits@D@std@@@std@@@std@@ABA?AV?$ostreambuf_iterator@DU?$char_traits@D@std@@@2@V32@DI@Z ; std::num_put<char,std::ostreambuf_iterator<char,std::char_traits<char> > >::_Rep
PUBLIC	??_G?$num_put@DV?$ostreambuf_iterator@DU?$char_traits@D@std@@@std@@@std@@MAEPAXI@Z ; std::num_put<char,std::ostreambuf_iterator<char,std::char_traits<char> > >::`scalar deleting destructor'
PUBLIC	??$use_facet@V?$numpunct@D@std@@@std@@YAABV?$numpunct@D@0@ABVlocale@0@@Z ; std::use_facet<std::numpunct<char> >
PUBLIC	?grouping@?$numpunct@D@std@@QBE?AV?$basic_string@DU?$char_traits@D@std@@V?$allocator@D@2@@2@XZ ; std::numpunct<char>::grouping
PUBLIC	?falsename@?$numpunct@D@std@@QBE?AV?$basic_string@DU?$char_traits@D@std@@V?$allocator@D@2@@2@XZ ; std::numpunct<char>::falsename
PUBLIC	?truename@?$numpunct@D@std@@QBE?AV?$basic_string@DU?$char_traits@D@std@@V?$allocator@D@2@@2@XZ ; std::numpunct<char>::truename
PUBLIC	?_Getcat@?$numpunct@D@std@@SAIPAPBVfacet@locale@2@PBV42@@Z ; std::numpunct<char>::_Getcat
PUBLIC	??1?$numpunct@D@std@@MAE@XZ			; std::numpunct<char>::~numpunct<char>
PUBLIC	?_Init@?$numpunct@D@std@@IAEXABV_Locinfo@2@_N@Z	; std::numpunct<char>::_Init
PUBLIC	?do_decimal_point@?$numpunct@D@std@@MBEDXZ	; std::numpunct<char>::do_decimal_point
PUBLIC	?do_thousands_sep@?$numpunct@D@std@@MBEDXZ	; std::numpunct<char>::do_thousands_sep
PUBLIC	?do_grouping@?$numpunct@D@std@@MBE?AV?$basic_string@DU?$char_traits@D@std@@V?$allocator@D@2@@2@XZ ; std::numpunct<char>::do_grouping
PUBLIC	?do_falsename@?$numpunct@D@std@@MBE?AV?$basic_string@DU?$char_traits@D@std@@V?$allocator@D@2@@2@XZ ; std::numpunct<char>::do_falsename
PUBLIC	?do_truename@?$numpunct@D@std@@MBE?AV?$basic_string@DU?$char_traits@D@std@@V?$allocator@D@2@@2@XZ ; std::numpunct<char>::do_truename
PUBLIC	?_Tidy@?$numpunct@D@std@@AAEXXZ			; std::numpunct<char>::_Tidy
PUBLIC	??_G?$numpunct@D@std@@MAEPAXI@Z			; std::numpunct<char>::`scalar deleting destructor'
PUBLIC	??$use_facet@V?$ctype@_W@std@@@std@@YAABV?$ctype@_W@0@ABVlocale@0@@Z ; std::use_facet<std::ctype<wchar_t> >
PUBLIC	??__F_Static@?1???$_Immortalize@V_Iostream_error_category@std@@@std@@YAAAV_Iostream_error_category@0@XZ@YAXXZ ; `std::_Immortalize<std::_Iostream_error_category>'::`2'::`dynamic atexit destructor for '_Static''
PUBLIC	??1_Sentry_base@?$basic_ostream@_WU?$char_traits@_W@std@@@std@@QAE@XZ ; std::basic_ostream<wchar_t,std::char_traits<wchar_t> >::_Sentry_base::~_Sentry_base
PUBLIC	??0sentry@?$basic_ostream@_WU?$char_traits@_W@std@@@std@@QAE@AAV12@@Z ; std::basic_ostream<wchar_t,std::char_traits<wchar_t> >::sentry::sentry
PUBLIC	??1sentry@?$basic_ostream@_WU?$char_traits@_W@std@@@std@@QAE@XZ ; std::basic_ostream<wchar_t,std::char_traits<wchar_t> >::sentry::~sentry
PUBLIC	??$_Buynode@ABUPartition@GostCrypt@@@?$_List_buy@UPartition@GostCrypt@@V?$allocator@UPartition@GostCrypt@@@std@@@std@@QAEPAU?$_List_node@UPartition@GostCrypt@@PAX@1@PAU21@0ABUPartition@GostCrypt@@@Z ; std::_List_buy<GostCrypt::Partition,std::allocator<GostCrypt::Partition> >::_Buynode<GostCrypt::Partition const &>
PUBLIC	??$_Reusenode@ABUPartition@GostCrypt@@@?$list@UPartition@GostCrypt@@V?$allocator@UPartition@GostCrypt@@@std@@@std@@QAEXV?$_List_iterator@V?$_List_val@U?$_List_simple_types@UPartition@GostCrypt@@@std@@@std@@@1@ABUPartition@GostCrypt@@@Z ; std::list<GostCrypt::Partition,std::allocator<GostCrypt::Partition> >::_Reusenode<GostCrypt::Partition const &>
PUBLIC	??$_Insert_range@V?$_List_const_iterator@V?$_List_val@U?$_List_simple_types@UPartition@GostCrypt@@@std@@@std@@@std@@@?$list@UPartition@GostCrypt@@V?$allocator@UPartition@GostCrypt@@@std@@@std@@QAEXV?$_List_unchecked_const_iterator@V?$_List_val@U?$_List_simple_types@UPartition@GostCrypt@@@std@@@std@@U_Iterator_base0@2@@1@V?$_List_const_iterator@V?$_List_val@U?$_List_simple_types@UPartition@GostCrypt@@@std@@@std@@@1@1Uforward_iterator_tag@1@@Z ; std::list<GostCrypt::Partition,std::allocator<GostCrypt::Partition> >::_Insert_range<std::_List_const_iterator<std::_List_val<std::_List_simple_types<GostCrypt::Partition> > > >
PUBLIC	??_E?$basic_istream@DU?$char_traits@D@std@@@std@@$4PPPPPPPM@A@AEPAXI@Z ; std::basic_istream<char,std::char_traits<char> >::`vector deleting destructor'
PUBLIC	??_E?$basic_ostream@DU?$char_traits@D@std@@@std@@$4PPPPPPPM@A@AEPAXI@Z ; std::basic_ostream<char,std::char_traits<char> >::`vector deleting destructor'
PUBLIC	??_E?$basic_iostream@DU?$char_traits@D@std@@@std@@$4PPPPPPPM@A@AEPAXI@Z ; std::basic_iostream<char,std::char_traits<char> >::`vector deleting destructor'
PUBLIC	??_E?$basic_stringstream@DU?$char_traits@D@std@@V?$allocator@D@2@@std@@$4PPPPPPPM@A@AEPAXI@Z ; std::basic_stringstream<char,std::char_traits<char>,std::allocator<char> >::`vector deleting destructor'
PUBLIC	??_E?$basic_istream@_WU?$char_traits@_W@std@@@std@@$4PPPPPPPM@A@AEPAXI@Z ; std::basic_istream<wchar_t,std::char_traits<wchar_t> >::`vector deleting destructor'
PUBLIC	??_E?$basic_ostream@_WU?$char_traits@_W@std@@@std@@$4PPPPPPPM@A@AEPAXI@Z ; std::basic_ostream<wchar_t,std::char_traits<wchar_t> >::`vector deleting destructor'
PUBLIC	??_E?$basic_iostream@_WU?$char_traits@_W@std@@@std@@$4PPPPPPPM@A@AEPAXI@Z ; std::basic_iostream<wchar_t,std::char_traits<wchar_t> >::`vector deleting destructor'
PUBLIC	??_E?$basic_stringstream@_WU?$char_traits@_W@std@@V?$allocator@_W@2@@std@@$4PPPPPPPM@A@AEPAXI@Z ; std::basic_stringstream<wchar_t,std::char_traits<wchar_t>,std::allocator<wchar_t> >::`vector deleting destructor'
PUBLIC	?_OptionsStorage@?1??__local_stdio_printf_options@@9@4_KA ; `__local_stdio_printf_options'::`2'::_OptionsStorage
PUBLIC	??_7exception@std@@6B@				; std::exception::`vftable'
PUBLIC	??_C@_0BC@EOODALEL@Unknown?5exception?$AA@	; `string'
PUBLIC	??_7bad_alloc@std@@6B@				; std::bad_alloc::`vftable'
PUBLIC	??_C@_0P@GHFPNOJB@bad?5allocation?$AA@		; `string'
PUBLIC	??_7runtime_error@std@@6B@			; std::runtime_error::`vftable'
PUBLIC	??_7bad_cast@std@@6B@				; std::bad_cast::`vftable'
PUBLIC	??_C@_08EPJLHIJG@bad?5cast?$AA@			; `string'
PUBLIC	__TI2?AVruntime_error@std@@
PUBLIC	__CTA2?AVruntime_error@std@@
PUBLIC	??_R0?AVruntime_error@std@@@8			; std::runtime_error `RTTI Type Descriptor'
PUBLIC	__CT??_R0?AVruntime_error@std@@@8??0runtime_error@std@@QAE@ABV01@@Z12
PUBLIC	??_R0?AVexception@std@@@8			; std::exception `RTTI Type Descriptor'
PUBLIC	__CT??_R0?AVexception@std@@@8??0exception@std@@QAE@ABV01@@Z12
PUBLIC	??_C@_0BA@ELKIONDK@bad?5locale?5name?$AA@	; `string'
PUBLIC	??_C@_05LAPONLG@false?$AA@			; `string'
PUBLIC	??_C@_04LOAJBDKD@true?$AA@			; `string'
PUBLIC	??_7_Facet_base@std@@6B@			; std::_Facet_base::`vftable'
PUBLIC	??_7facet@locale@std@@6B@			; std::locale::facet::`vftable'
PUBLIC	??_C@_00CNPNBAHC@?$AA@				; `string'
PUBLIC	??_7ctype_base@std@@6B@				; std::ctype_base::`vftable'
PUBLIC	??_7?$ctype@D@std@@6B@				; std::ctype<char>::`vftable'
PUBLIC	??_7?$ctype@_W@std@@6B@				; std::ctype<wchar_t>::`vftable'
PUBLIC	??_7error_category@std@@6B@			; std::error_category::`vftable'
PUBLIC	??_7_System_error@std@@6B@			; std::_System_error::`vftable'
PUBLIC	??_C@_02LMMGGCAJ@?3?5?$AA@			; `string'
PUBLIC	??_7system_error@std@@6B@			; std::system_error::`vftable'
PUBLIC	??_7_Generic_error_category@std@@6B@		; std::_Generic_error_category::`vftable'
PUBLIC	??_C@_07DCLBNMLN@generic?$AA@			; `string'
PUBLIC	??_7_Iostream_error_category@std@@6B@		; std::_Iostream_error_category::`vftable'
PUBLIC	??_C@_08LLGCOLLL@iostream?$AA@			; `string'
PUBLIC	??_C@_0BG@PADBLCHM@iostream?5stream?5error?$AA@	; `string'
PUBLIC	??_7failure@ios_base@std@@6B@			; std::ios_base::failure::`vftable'
PUBLIC	??_7ios_base@std@@6B@				; std::ios_base::`vftable'
PUBLIC	__TI5?AVfailure@ios_base@std@@
PUBLIC	__CTA5?AVfailure@ios_base@std@@
PUBLIC	??_R0?AVfailure@ios_base@std@@@8		; std::ios_base::failure `RTTI Type Descriptor'
PUBLIC	__CT??_R0?AVfailure@ios_base@std@@@8??0failure@ios_base@std@@QAE@ABV012@@Z20
PUBLIC	??_R0?AVsystem_error@std@@@8			; std::system_error `RTTI Type Descriptor'
PUBLIC	__CT??_R0?AVsystem_error@std@@@8??0system_error@std@@QAE@ABV01@@Z20
PUBLIC	??_R0?AV_System_error@std@@@8			; std::_System_error `RTTI Type Descriptor'
PUBLIC	__CT??_R0?AV_System_error@std@@@8??0_System_error@std@@QAE@ABV01@@Z20
PUBLIC	??_C@_0BF@PHHKMMFD@ios_base?3?3badbit?5set?$AA@	; `string'
PUBLIC	??_C@_0BG@FMKFHCIL@ios_base?3?3failbit?5set?$AA@ ; `string'
PUBLIC	??_C@_0BF@OOHOMBOF@ios_base?3?3eofbit?5set?$AA@	; `string'
PUBLIC	??_7Container@ForEach@GostCrypt@@6B@		; GostCrypt::ForEach::Container::`vftable'
PUBLIC	?atlTraceGeneral@ATL@@3V?$CTraceCategoryEx@$00$0A@@1@A ; ATL::atlTraceGeneral
PUBLIC	?atlTraceCOM@ATL@@3V?$CTraceCategoryEx@$01$0A@@1@A ; ATL::atlTraceCOM
PUBLIC	?atlTraceQI@ATL@@3V?$CTraceCategoryEx@$03$0A@@1@A ; ATL::atlTraceQI
PUBLIC	?atlTraceRegistrar@ATL@@3V?$CTraceCategoryEx@$07$0A@@1@A ; ATL::atlTraceRegistrar
PUBLIC	?atlTraceRefcount@ATL@@3V?$CTraceCategoryEx@$0BA@$0A@@1@A ; ATL::atlTraceRefcount
PUBLIC	?atlTraceWindowing@ATL@@3V?$CTraceCategoryEx@$0CA@$0A@@1@A ; ATL::atlTraceWindowing
PUBLIC	?atlTraceControls@ATL@@3V?$CTraceCategoryEx@$0EA@$0A@@1@A ; ATL::atlTraceControls
PUBLIC	?atlTraceHosting@ATL@@3V?$CTraceCategoryEx@$0IA@$0A@@1@A ; ATL::atlTraceHosting
PUBLIC	?atlTraceDBClient@ATL@@3V?$CTraceCategoryEx@$0BAA@$0A@@1@A ; ATL::atlTraceDBClient
PUBLIC	?atlTraceDBProvider@ATL@@3V?$CTraceCategoryEx@$0CAA@$0A@@1@A ; ATL::atlTraceDBProvider
PUBLIC	?atlTraceSnapin@ATL@@3V?$CTraceCategoryEx@$0EAA@$0A@@1@A ; ATL::atlTraceSnapin
PUBLIC	?atlTraceNotImpl@ATL@@3V?$CTraceCategoryEx@$0IAA@$0A@@1@A ; ATL::atlTraceNotImpl
PUBLIC	?atlTraceAllocation@ATL@@3V?$CTraceCategoryEx@$0BAAA@$0A@@1@A ; ATL::atlTraceAllocation
PUBLIC	?atlTraceException@ATL@@3V?$CTraceCategoryEx@$0CAAA@$0A@@1@A ; ATL::atlTraceException
PUBLIC	?atlTraceTime@ATL@@3V?$CTraceCategoryEx@$0EAAA@$0A@@1@A ; ATL::atlTraceTime
PUBLIC	?atlTraceCache@ATL@@3V?$CTraceCategoryEx@$0IAAA@$0A@@1@A ; ATL::atlTraceCache
PUBLIC	?atlTraceStencil@ATL@@3V?$CTraceCategoryEx@$0BAAAA@$0A@@1@A ; ATL::atlTraceStencil
PUBLIC	?atlTraceString@ATL@@3V?$CTraceCategoryEx@$0CAAAA@$0A@@1@A ; ATL::atlTraceString
PUBLIC	?atlTraceMap@ATL@@3V?$CTraceCategoryEx@$0EAAAA@$0A@@1@A ; ATL::atlTraceMap
PUBLIC	?atlTraceUtil@ATL@@3V?$CTraceCategoryEx@$0IAAAA@$0A@@1@A ; ATL::atlTraceUtil
PUBLIC	?atlTraceSecurity@ATL@@3V?$CTraceCategoryEx@$0BAAAAA@$0A@@1@A ; ATL::atlTraceSecurity
PUBLIC	?atlTraceSync@ATL@@3V?$CTraceCategoryEx@$0CAAAAA@$0A@@1@A ; ATL::atlTraceSync
PUBLIC	?atlTraceISAPI@ATL@@3V?$CTraceCategoryEx@$0EAAAAA@$0A@@1@A ; ATL::atlTraceISAPI
PUBLIC	?_AtlComModule@ATL@@3VCAtlComModule@1@A		; ATL::_AtlComModule
PUBLIC	?_AtlWinModule@ATL@@3VCAtlWinModule@1@A		; ATL::_AtlWinModule
PUBLIC	??_7Exception@GostCrypt@@6B@			; GostCrypt::Exception::`vftable'
PUBLIC	??_7SystemException@GostCrypt@@6B@		; GostCrypt::SystemException::`vftable'
PUBLIC	??_7ErrorException@GostCrypt@@6B@		; GostCrypt::ErrorException::`vftable'
PUBLIC	??_7ParameterIncorrect@GostCrypt@@6B@		; GostCrypt::ParameterIncorrect::`vftable'
PUBLIC	??_C@_01PKGAHCOL@?$CJ?$AA@			; `string'
PUBLIC	??_C@_0IM@CKBKFPJM@Parameter?5incorrect?4?6?6?6?$CIIf?5you?5r@ ; `string'
PUBLIC	??_C@_09NKHKFHLH@GostCrypt?$AA@			; `string'
PUBLIC	??_7TimeOut@GostCrypt@@6B@			; GostCrypt::TimeOut::`vftable'
PUBLIC	??_C@_1BA@BKONPLFM@?$AAT?$AAi?$AAm?$AAe?$AAo?$AAu?$AAt?$AA?$AA@ ; `string'
PUBLIC	__TI2?AVbad_alloc@std@@
PUBLIC	__CTA2?AVbad_alloc@std@@
PUBLIC	??_R0?AVbad_alloc@std@@@8			; std::bad_alloc `RTTI Type Descriptor'
PUBLIC	__CT??_R0?AVbad_alloc@std@@@8??0bad_alloc@std@@QAE@ABV01@@Z12
PUBLIC	__TI2?AUParameterIncorrect@GostCrypt@@
PUBLIC	__CTA2?AUParameterIncorrect@GostCrypt@@
PUBLIC	??_R0?AUParameterIncorrect@GostCrypt@@@8	; GostCrypt::ParameterIncorrect `RTTI Type Descriptor'
PUBLIC	__CT??_R0?AUParameterIncorrect@GostCrypt@@@8??0ParameterIncorrect@GostCrypt@@QAE@ABU01@@Z8
PUBLIC	??_R0?AUException@GostCrypt@@@8			; GostCrypt::Exception `RTTI Type Descriptor'
PUBLIC	__CT??_R0?AUException@GostCrypt@@@8??0Exception@GostCrypt@@QAE@ABU01@@Z4
PUBLIC	??_C@_0CE@FHEPOLFE@GostCrypt?3?3Elevator?3?3CallDriver?3@ ; `string'
PUBLIC	??_C@_0CH@PBPDDBGE@GostCrypt?3?3Elevator?3?3ReadWriteFi@ ; `string'
PUBLIC	??_C@_0CO@HKKIBGIK@GostCrypt?3?3Elevator?3?3RegisterFil@ ; `string'
PUBLIC	??_C@_0DD@BJABNKGK@GostCrypt?3?3Elevator?3?3SetDriverSe@ ; `string'
PUBLIC	__TI2?AUSystemException@GostCrypt@@
PUBLIC	__CTA2?AUSystemException@GostCrypt@@
PUBLIC	??_R0?AUSystemException@GostCrypt@@@8		; GostCrypt::SystemException `RTTI Type Descriptor'
PUBLIC	__CT??_R0?AUSystemException@GostCrypt@@@8??0SystemException@GostCrypt@@QAE@ABU01@@Z8
PUBLIC	??_C@_04GBDIODIA@?2?2?4?2?$AA@			; `string'
PUBLIC	??_7?$ContainerForward@V?$list@UPartition@GostCrypt@@V?$allocator@UPartition@GostCrypt@@@std@@@std@@@ForEach@GostCrypt@@6B@ ; GostCrypt::ForEach::ContainerForward<std::list<GostCrypt::Partition,std::allocator<GostCrypt::Partition> > >::`vftable'
PUBLIC	??_C@_0DH@GLGNINML@GostCrypt?3?3BootEncryption?3?3GetPa@ ; `string'
PUBLIC	__TI2?AUErrorException@GostCrypt@@
PUBLIC	__CTA2?AUErrorException@GostCrypt@@
PUBLIC	??_R0?AUErrorException@GostCrypt@@@8		; GostCrypt::ErrorException `RTTI Type Descriptor'
PUBLIC	__CT??_R0?AUErrorException@GostCrypt@@@8??0ErrorException@GostCrypt@@QAE@ABU01@@Z32
PUBLIC	??_C@_0BM@FBNGAMD@SYSTEM_PARTITION_NOT_ACTIVE?$AA@ ; `string'
PUBLIC	??_C@_0CE@MAHFALCP@NO_PARTITION_FOLLOWS_BOOT_PARTIT@ ; `string'
PUBLIC	??_C@_0CH@NLNOGBOO@PARTITION_TOO_SMALL_FOR_HIDDEN_O@ ; `string'
PUBLIC	??_C@_0CC@PECBFKPM@PARTITION_TOO_SMALL_FOR_HIDDEN_O@ ; `string'
PUBLIC	??_C@_05FHMJPCKA@Start?$AA@			; `string'
PUBLIC	??_C@_0CM@LCJDGIOL@SYSTEM?2CurrentControlSet?2Service@ ; `string'
PUBLIC	??_C@_0BM@DMJIFPGL@FOR_MORE_INFO_ON_PARTITIONS?$AA@ ; `string'
PUBLIC	??_C@_15IABLJNFO@?$AA?6?$AA?6?$AA?$AA@		; `string'
PUBLIC	??_C@_0CE@LDACPNCN@TWO_SYSTEMS_IN_ONE_PARTITION_REM@ ; `string'
PUBLIC	??_C@_09JCILFBFB@gostcrypt?$AA@			; `string'
PUBLIC	??_C@_0BH@EJBOALFB@?2drivers?2gostcrypt?4sys?$AA@ ; `string'
PUBLIC	??_C@_01KICIPPFI@?2?$AA@			; `string'
PUBLIC	??_C@_06IBDJIBGI@Filter?$AA@			; `string'
PUBLIC	??_C@_17LGGGMOOB@?$AA?$CF?$AAh?$AAs?$AA?$AA@	; `string'
PUBLIC	__TI2?AUTimeOut@GostCrypt@@
PUBLIC	__CTA2?AUTimeOut@GostCrypt@@
PUBLIC	??_R0?AUTimeOut@GostCrypt@@@8			; GostCrypt::TimeOut `RTTI Type Descriptor'
PUBLIC	__CT??_R0?AUTimeOut@GostCrypt@@@8??0TimeOut@GostCrypt@@QAE@ABU01@@Z4
PUBLIC	??_7?$basic_ios@DU?$char_traits@D@std@@@std@@6B@ ; std::basic_ios<char,std::char_traits<char> >::`vftable'
PUBLIC	??_7?$basic_istream@DU?$char_traits@D@std@@@std@@6B@ ; std::basic_istream<char,std::char_traits<char> >::`vftable'
PUBLIC	??_8?$basic_istream@DU?$char_traits@D@std@@@std@@7B@ ; std::basic_istream<char,std::char_traits<char> >::`vbtable'
PUBLIC	??_7?$basic_ostream@DU?$char_traits@D@std@@@std@@6B@ ; std::basic_ostream<char,std::char_traits<char> >::`vftable'
PUBLIC	??_8?$basic_ostream@DU?$char_traits@D@std@@@std@@7B@ ; std::basic_ostream<char,std::char_traits<char> >::`vbtable'
PUBLIC	??_7?$basic_iostream@DU?$char_traits@D@std@@@std@@6B@ ; std::basic_iostream<char,std::char_traits<char> >::`vftable'
PUBLIC	??_8?$basic_iostream@DU?$char_traits@D@std@@@std@@7B?$basic_istream@DU?$char_traits@D@std@@@1@@ ; std::basic_iostream<char,std::char_traits<char> >::`vbtable'
PUBLIC	??_8?$basic_iostream@DU?$char_traits@D@std@@@std@@7B?$basic_ostream@DU?$char_traits@D@std@@@1@@ ; std::basic_iostream<char,std::char_traits<char> >::`vbtable'
PUBLIC	??_7?$basic_streambuf@DU?$char_traits@D@std@@@std@@6B@ ; std::basic_streambuf<char,std::char_traits<char> >::`vftable'
PUBLIC	??_7?$basic_stringbuf@DU?$char_traits@D@std@@V?$allocator@D@2@@std@@6B@ ; std::basic_stringbuf<char,std::char_traits<char>,std::allocator<char> >::`vftable'
PUBLIC	??_7?$basic_stringstream@DU?$char_traits@D@std@@V?$allocator@D@2@@std@@6B@ ; std::basic_stringstream<char,std::char_traits<char>,std::allocator<char> >::`vftable'
PUBLIC	??_8?$basic_stringstream@DU?$char_traits@D@std@@V?$allocator@D@2@@std@@7B?$basic_istream@DU?$char_traits@D@std@@@1@@ ; std::basic_stringstream<char,std::char_traits<char>,std::allocator<char> >::`vbtable'
PUBLIC	??_8?$basic_stringstream@DU?$char_traits@D@std@@V?$allocator@D@2@@std@@7B?$basic_ostream@DU?$char_traits@D@std@@@1@@ ; std::basic_stringstream<char,std::char_traits<char>,std::allocator<char> >::`vbtable'
PUBLIC	??_7?$basic_ios@_WU?$char_traits@_W@std@@@std@@6B@ ; std::basic_ios<wchar_t,std::char_traits<wchar_t> >::`vftable'
PUBLIC	??_7?$basic_istream@_WU?$char_traits@_W@std@@@std@@6B@ ; std::basic_istream<wchar_t,std::char_traits<wchar_t> >::`vftable'
PUBLIC	??_8?$basic_istream@_WU?$char_traits@_W@std@@@std@@7B@ ; std::basic_istream<wchar_t,std::char_traits<wchar_t> >::`vbtable'
PUBLIC	??_7?$basic_ostream@_WU?$char_traits@_W@std@@@std@@6B@ ; std::basic_ostream<wchar_t,std::char_traits<wchar_t> >::`vftable'
PUBLIC	??_8?$basic_ostream@_WU?$char_traits@_W@std@@@std@@7B@ ; std::basic_ostream<wchar_t,std::char_traits<wchar_t> >::`vbtable'
PUBLIC	??_7?$basic_iostream@_WU?$char_traits@_W@std@@@std@@6B@ ; std::basic_iostream<wchar_t,std::char_traits<wchar_t> >::`vftable'
PUBLIC	??_8?$basic_iostream@_WU?$char_traits@_W@std@@@std@@7B?$basic_istream@_WU?$char_traits@_W@std@@@1@@ ; std::basic_iostream<wchar_t,std::char_traits<wchar_t> >::`vbtable'
PUBLIC	??_8?$basic_iostream@_WU?$char_traits@_W@std@@@std@@7B?$basic_ostream@_WU?$char_traits@_W@std@@@1@@ ; std::basic_iostream<wchar_t,std::char_traits<wchar_t> >::`vbtable'
PUBLIC	??_7?$basic_streambuf@_WU?$char_traits@_W@std@@@std@@6B@ ; std::basic_streambuf<wchar_t,std::char_traits<wchar_t> >::`vftable'
PUBLIC	??_7?$basic_stringbuf@_WU?$char_traits@_W@std@@V?$allocator@_W@2@@std@@6B@ ; std::basic_stringbuf<wchar_t,std::char_traits<wchar_t>,std::allocator<wchar_t> >::`vftable'
PUBLIC	??_7?$basic_stringstream@_WU?$char_traits@_W@std@@V?$allocator@_W@2@@std@@6B@ ; std::basic_stringstream<wchar_t,std::char_traits<wchar_t>,std::allocator<wchar_t> >::`vftable'
PUBLIC	??_8?$basic_stringstream@_WU?$char_traits@_W@std@@V?$allocator@_W@2@@std@@7B?$basic_istream@_WU?$char_traits@_W@std@@@1@@ ; std::basic_stringstream<wchar_t,std::char_traits<wchar_t>,std::allocator<wchar_t> >::`vbtable'
PUBLIC	??_8?$basic_stringstream@_WU?$char_traits@_W@std@@V?$allocator@_W@2@@std@@7B?$basic_ostream@_WU?$char_traits@_W@std@@@1@@ ; std::basic_stringstream<wchar_t,std::char_traits<wchar_t>,std::allocator<wchar_t> >::`vbtable'
PUBLIC	??_C@_0L@DPPABKKK@?2Partition?$AA@		; `string'
PUBLIC	??_C@_0BB@EPPOJBJL@?2Device?2Harddisk?$AA@	; `string'
PUBLIC	??_C@_01JLIPDDHJ@?3?$AA@			; `string'
PUBLIC	??_C@_0M@OJHKIMBP@?2Partition0?$AA@		; `string'
PUBLIC	??_C@_0CM@DPGIOOAH@GostCrypt?3?3BootEncryption?3?3GetTe@ ; `string'
PUBLIC	??_C@_0DE@GDHEKKMF@GostCrypt?3?3BootEncryption?3?3GetVo@ ; `string'
PUBLIC	??_C@_0EB@IGIFGEGG@GostCrypt?3?3BootEncryption?3?3Syste@ ; `string'
PUBLIC	??_C@_08OINNAHG@?2bootmgr?$AA@			; `string'
PUBLIC	??_C@_06JLGNLLFE@?2ntldr?$AA@			; `string'
PUBLIC	??_C@_1BC@EONGMCPP@?$AA?2?$AAb?$AAo?$AAo?$AAt?$AAm?$AAg?$AAr?$AA?$AA@ ; `string'
PUBLIC	??_C@_1O@MIGMNGND@?$AA?2?$AAn?$AAt?$AAl?$AAd?$AAr?$AA?$AA@ ; `string'
PUBLIC	??_C@_0O@ICNEBHDC@PhysicalDrive?$AA@		; `string'
PUBLIC	??_C@_0DM@GJCFGPE@GostCrypt?3?3BootEncryption?3?3GetSy@ ; `string'
PUBLIC	??_C@_0DJ@CDPMPNNL@GostCrypt?3?3BootEncryption?3?3Creat@ ; `string'
PUBLIC	??_C@_0DJ@EFNGIGIG@GostCrypt?3?3BootEncryption?3?3Creat@ ; `string'
PUBLIC	??_C@_03POBHGEJB@BIN?$AA@			; `string'
PUBLIC	??_C@_0DJ@BGMDDHIF@GostCrypt?3?3BootEncryption?3?3Creat@ ; `string'
PUBLIC	??_C@_0DJ@FLMEBPBL@GostCrypt?3?3BootEncryption?3?3Creat@ ; `string'
PUBLIC	??_C@_0DJ@LIDAMGNA@GostCrypt?3?3BootEncryption?3?3Creat@ ; `string'
PUBLIC	??_C@_0DJ@FAJIFICG@GostCrypt?3?3BootEncryption?3?3Creat@ ; `string'
PUBLIC	??_C@_0DF@DIDOGIKM@GostCrypt?3?3BootEncryption?3?3ReadB@ ; `string'
PUBLIC	??_C@_0BE@GPJOEGCF@ERROR_MBR_PROTECTED?$AA@	; `string'
PUBLIC	??_C@_0DK@IJCNHOPL@GostCrypt?3?3BootEncryption?3?3Write@ ; `string'
PUBLIC	??_C@_0L@CANDMBMO@?2GostCrypt?$AA@		; `string'
PUBLIC	??_C@_0BH@KENEBBHH@Original?5System?5Loader?$AA@ ; `string'
PUBLIC	??_C@_0BL@PPCBILBO@Original?5System?5Loader?4bak?$AA@ ; `string'
PUBLIC	??_C@_03OPPAHFLA@X?3?2?$AA@			; `string'
PUBLIC	??_C@_0DB@OACBJAHD@GostCrypt?3?3BootEncryption?3?3Verif@ ; `string'
PUBLIC	??_C@_02EHLIIHJM@X?3?$AA@			; `string'
PUBLIC	??_C@_0N@KPKBADH@UpperFilters?$AA@		; `string'
PUBLIC	??_C@_0O@IAPAHIFF@gostcrypt?4sys?$AA@		; `string'
PUBLIC	??_C@_0M@DBKHNNPD@DumpFilters?$AA@		; `string'
PUBLIC	??_C@_0CO@FIPMIJLN@SYSTEM?2CurrentControlSet?2Control@ ; `string'
PUBLIC	??_C@_0CP@GINHDNAC@GostCrypt?3?3BootEncryption?3?3Regis@ ; `string'
PUBLIC	??_C@_0BM@CLKNIPKP@?2gostcrypt_driver_setup?4inf?$AA@ ; `string'
PUBLIC	??_C@_03CGLHDMIP@?$CC?$AN?6?$AA@		; `string'
PUBLIC	??_C@_02JGFLNPEJ@?0?$CC?$AA@			; `string'
PUBLIC	??_C@_04FLCDBBKO@0008?$AA@			; `string'
PUBLIC	??_C@_04JBLMLCOF@8002?$AA@			; `string'
PUBLIC	??_C@_08OHAGLOJG@?$CC?00x0001?$AA@		; `string'
PUBLIC	??_C@_0CN@EJNJANKE@Reg?$DNgostcrypt_reg?$AN?6?$AN?6?$FLgostcrypt_@ ; `string'
PUBLIC	??_C@_03LDFMNCOE@Add?$AA@			; `string'
PUBLIC	??_C@_03ENJJMCOJ@Del?$AA@			; `string'
PUBLIC	??_C@_0O@MJBIBBDL@?$FLgostcrypt?$FN?$AN?6?$AA@	; `string'
PUBLIC	??_C@_0DF@CMODHHPM@GostCrypt?3?3BootEncryption?3?3Regis@ ; `string'
PUBLIC	??_C@_0BA@NANEHOFP@GostCryptConfig?$AA@		; `string'
PUBLIC	?id@?$num_put@DV?$ostreambuf_iterator@DU?$char_traits@D@std@@@std@@@std@@2V0locale@2@A ; std::num_put<char,std::ostreambuf_iterator<char,std::char_traits<char> > >::id
PUBLIC	??_7?$num_put@DV?$ostreambuf_iterator@DU?$char_traits@D@std@@@std@@@std@@6B@ ; std::num_put<char,std::ostreambuf_iterator<char,std::char_traits<char> > >::`vftable'
PUBLIC	??_C@_02BBAHNLBA@?$CFp?$AA@			; `string'
PUBLIC	??_C@_02CLHGNPPK@Lu?$AA@			; `string'
PUBLIC	??_C@_02HIKPPMOK@Ld?$AA@			; `string'
PUBLIC	??_C@_02BDDLJJBK@lu?$AA@			; `string'
PUBLIC	??_C@_02EAOCLKAK@ld?$AA@			; `string'
PUBLIC	?id@?$numpunct@D@std@@2V0locale@2@A		; std::numpunct<char>::id
PUBLIC	??_7?$numpunct@D@std@@6B@			; std::numpunct<char>::`vftable'
PUBLIC	??_C@_02MDKMJEGG@eE?$AA@			; `string'
PUBLIC	??_C@_02OOPEBDOJ@pP?$AA@			; `string'
PUBLIC	??_C@_01LFCBOECM@?4?$AA@			; `string'
PUBLIC	??_C@_0BA@JFNIOLAK@string?5too?5long?$AA@	; `string'
PUBLIC	??_C@_0BI@CFPLBAOH@invalid?5string?5position?$AA@ ; `string'
PUBLIC	?_Psave@?$_Facetptr@V?$ctype@D@std@@@std@@2PBVfacet@locale@2@B ; std::_Facetptr<std::ctype<char> >::_Psave
PUBLIC	__TI2?AVbad_cast@std@@
PUBLIC	__CTA2?AVbad_cast@std@@
PUBLIC	??_R0?AVbad_cast@std@@@8			; std::bad_cast `RTTI Type Descriptor'
PUBLIC	__CT??_R0?AVbad_cast@std@@@8??0bad_cast@std@@QAE@ABV01@@Z12
PUBLIC	?_Static@?1???$_Immortalize@V_Iostream_error_category@std@@@std@@YAAAV_Iostream_error_category@1@XZ@4U?$_Immortalizer@V_Iostream_error_category@std@@@1@A ; `std::_Immortalize<std::_Iostream_error_category>'::`2'::_Static
PUBLIC	?$TSS0@?1???$_Immortalize@V_Iostream_error_category@std@@@std@@YAAAV_Iostream_error_category@1@XZ@4HA ; TSS0<`template-parameter-2',unsigned int,std::V_Iostream_error_category::mortalize>
PUBLIC	?_Psave@?$_Facetptr@V?$num_put@DV?$ostreambuf_iterator@DU?$char_traits@D@std@@@std@@@std@@@std@@2PBVfacet@locale@2@B ; std::_Facetptr<std::num_put<char,std::ostreambuf_iterator<char,std::char_traits<char> > > >::_Psave
PUBLIC	?_Psave@?$_Facetptr@V?$numpunct@D@std@@@std@@2PBVfacet@locale@2@B ; std::_Facetptr<std::numpunct<char> >::_Psave
PUBLIC	?_Psave@?$_Facetptr@V?$ctype@_W@std@@@std@@2PBVfacet@locale@2@B ; std::_Facetptr<std::ctype<wchar_t> >::_Psave
PUBLIC	??_C@_0BB@MOGOBHAF@list?$DMT?$DO?5too?5long?$AA@ ; `string'
PUBLIC	??_R4exception@std@@6B@				; std::exception::`RTTI Complete Object Locator'
PUBLIC	??_R3exception@std@@8				; std::exception::`RTTI Class Hierarchy Descriptor'
PUBLIC	??_R2exception@std@@8				; std::exception::`RTTI Base Class Array'
PUBLIC	??_R1A@?0A@EA@exception@std@@8			; std::exception::`RTTI Base Class Descriptor at (0,-1,0,64)'
PUBLIC	??_R4bad_alloc@std@@6B@				; std::bad_alloc::`RTTI Complete Object Locator'
PUBLIC	??_R3bad_alloc@std@@8				; std::bad_alloc::`RTTI Class Hierarchy Descriptor'
PUBLIC	??_R2bad_alloc@std@@8				; std::bad_alloc::`RTTI Base Class Array'
PUBLIC	??_R1A@?0A@EA@bad_alloc@std@@8			; std::bad_alloc::`RTTI Base Class Descriptor at (0,-1,0,64)'
PUBLIC	??_R4ios_base@std@@6B@				; std::ios_base::`RTTI Complete Object Locator'
PUBLIC	??_R0?AVios_base@std@@@8			; std::ios_base `RTTI Type Descriptor'
PUBLIC	??_R3ios_base@std@@8				; std::ios_base::`RTTI Class Hierarchy Descriptor'
PUBLIC	??_R2ios_base@std@@8				; std::ios_base::`RTTI Base Class Array'
PUBLIC	??_R1A@?0A@EA@ios_base@std@@8			; std::ios_base::`RTTI Base Class Descriptor at (0,-1,0,64)'
PUBLIC	??_R17?0A@EA@?$_Iosb@H@std@@8			; std::_Iosb<int>::`RTTI Base Class Descriptor at (8,-1,0,64)'
PUBLIC	??_R0?AV?$_Iosb@H@std@@@8			; std::_Iosb<int> `RTTI Type Descriptor'
PUBLIC	??_R3?$_Iosb@H@std@@8				; std::_Iosb<int>::`RTTI Class Hierarchy Descriptor'
PUBLIC	??_R2?$_Iosb@H@std@@8				; std::_Iosb<int>::`RTTI Base Class Array'
PUBLIC	??_R1A@?0A@EA@?$_Iosb@H@std@@8			; std::_Iosb<int>::`RTTI Base Class Descriptor at (0,-1,0,64)'
PUBLIC	??_R4?$basic_ios@DU?$char_traits@D@std@@@std@@6B@ ; std::basic_ios<char,std::char_traits<char> >::`RTTI Complete Object Locator'
PUBLIC	??_R0?AV?$basic_ios@DU?$char_traits@D@std@@@std@@@8 ; std::basic_ios<char,std::char_traits<char> > `RTTI Type Descriptor'
PUBLIC	??_R3?$basic_ios@DU?$char_traits@D@std@@@std@@8	; std::basic_ios<char,std::char_traits<char> >::`RTTI Class Hierarchy Descriptor'
PUBLIC	??_R2?$basic_ios@DU?$char_traits@D@std@@@std@@8	; std::basic_ios<char,std::char_traits<char> >::`RTTI Base Class Array'
PUBLIC	??_R1A@?0A@EA@?$basic_ios@DU?$char_traits@D@std@@@std@@8 ; std::basic_ios<char,std::char_traits<char> >::`RTTI Base Class Descriptor at (0,-1,0,64)'
PUBLIC	??_R4?$basic_streambuf@DU?$char_traits@D@std@@@std@@6B@ ; std::basic_streambuf<char,std::char_traits<char> >::`RTTI Complete Object Locator'
PUBLIC	??_R0?AV?$basic_streambuf@DU?$char_traits@D@std@@@std@@@8 ; std::basic_streambuf<char,std::char_traits<char> > `RTTI Type Descriptor'
PUBLIC	??_R3?$basic_streambuf@DU?$char_traits@D@std@@@std@@8 ; std::basic_streambuf<char,std::char_traits<char> >::`RTTI Class Hierarchy Descriptor'
PUBLIC	??_R2?$basic_streambuf@DU?$char_traits@D@std@@@std@@8 ; std::basic_streambuf<char,std::char_traits<char> >::`RTTI Base Class Array'
PUBLIC	??_R1A@?0A@EA@?$basic_streambuf@DU?$char_traits@D@std@@@std@@8 ; std::basic_streambuf<char,std::char_traits<char> >::`RTTI Base Class Descriptor at (0,-1,0,64)'
PUBLIC	??_R4?$basic_istream@DU?$char_traits@D@std@@@std@@6B@ ; std::basic_istream<char,std::char_traits<char> >::`RTTI Complete Object Locator'
PUBLIC	??_R0?AV?$basic_istream@DU?$char_traits@D@std@@@std@@@8 ; std::basic_istream<char,std::char_traits<char> > `RTTI Type Descriptor'
PUBLIC	??_R3?$basic_istream@DU?$char_traits@D@std@@@std@@8 ; std::basic_istream<char,std::char_traits<char> >::`RTTI Class Hierarchy Descriptor'
PUBLIC	??_R2?$basic_istream@DU?$char_traits@D@std@@@std@@8 ; std::basic_istream<char,std::char_traits<char> >::`RTTI Base Class Array'
PUBLIC	??_R1A@?0A@EA@?$basic_istream@DU?$char_traits@D@std@@@std@@8 ; std::basic_istream<char,std::char_traits<char> >::`RTTI Base Class Descriptor at (0,-1,0,64)'
PUBLIC	??_R1A@A@3FA@?$basic_ios@DU?$char_traits@D@std@@@std@@8 ; std::basic_ios<char,std::char_traits<char> >::`RTTI Base Class Descriptor at (0,0,4,80)'
PUBLIC	??_R1A@A@3EA@ios_base@std@@8			; std::ios_base::`RTTI Base Class Descriptor at (0,0,4,64)'
PUBLIC	??_R17A@3EA@?$_Iosb@H@std@@8			; std::_Iosb<int>::`RTTI Base Class Descriptor at (8,0,4,64)'
PUBLIC	??_R4?$basic_ostream@DU?$char_traits@D@std@@@std@@6B@ ; std::basic_ostream<char,std::char_traits<char> >::`RTTI Complete Object Locator'
PUBLIC	??_R0?AV?$basic_ostream@DU?$char_traits@D@std@@@std@@@8 ; std::basic_ostream<char,std::char_traits<char> > `RTTI Type Descriptor'
PUBLIC	??_R3?$basic_ostream@DU?$char_traits@D@std@@@std@@8 ; std::basic_ostream<char,std::char_traits<char> >::`RTTI Class Hierarchy Descriptor'
PUBLIC	??_R2?$basic_ostream@DU?$char_traits@D@std@@@std@@8 ; std::basic_ostream<char,std::char_traits<char> >::`RTTI Base Class Array'
PUBLIC	??_R1A@?0A@EA@?$basic_ostream@DU?$char_traits@D@std@@@std@@8 ; std::basic_ostream<char,std::char_traits<char> >::`RTTI Base Class Descriptor at (0,-1,0,64)'
PUBLIC	??_R4?$basic_iostream@DU?$char_traits@D@std@@@std@@6B@ ; std::basic_iostream<char,std::char_traits<char> >::`RTTI Complete Object Locator'
PUBLIC	??_R0?AV?$basic_iostream@DU?$char_traits@D@std@@@std@@@8 ; std::basic_iostream<char,std::char_traits<char> > `RTTI Type Descriptor'
PUBLIC	??_R3?$basic_iostream@DU?$char_traits@D@std@@@std@@8 ; std::basic_iostream<char,std::char_traits<char> >::`RTTI Class Hierarchy Descriptor'
PUBLIC	??_R2?$basic_iostream@DU?$char_traits@D@std@@@std@@8 ; std::basic_iostream<char,std::char_traits<char> >::`RTTI Base Class Array'
PUBLIC	??_R1A@?0A@EA@?$basic_iostream@DU?$char_traits@D@std@@@std@@8 ; std::basic_iostream<char,std::char_traits<char> >::`RTTI Base Class Descriptor at (0,-1,0,64)'
PUBLIC	??_R1BA@?0A@EA@?$basic_ostream@DU?$char_traits@D@std@@@std@@8 ; std::basic_ostream<char,std::char_traits<char> >::`RTTI Base Class Descriptor at (16,-1,0,64)'
PUBLIC	??_R4?$basic_stringbuf@DU?$char_traits@D@std@@V?$allocator@D@2@@std@@6B@ ; std::basic_stringbuf<char,std::char_traits<char>,std::allocator<char> >::`RTTI Complete Object Locator'
PUBLIC	??_R0?AV?$basic_stringbuf@DU?$char_traits@D@std@@V?$allocator@D@2@@std@@@8 ; std::basic_stringbuf<char,std::char_traits<char>,std::allocator<char> > `RTTI Type Descriptor'
PUBLIC	??_R3?$basic_stringbuf@DU?$char_traits@D@std@@V?$allocator@D@2@@std@@8 ; std::basic_stringbuf<char,std::char_traits<char>,std::allocator<char> >::`RTTI Class Hierarchy Descriptor'
PUBLIC	??_R2?$basic_stringbuf@DU?$char_traits@D@std@@V?$allocator@D@2@@std@@8 ; std::basic_stringbuf<char,std::char_traits<char>,std::allocator<char> >::`RTTI Base Class Array'
PUBLIC	??_R1A@?0A@EA@?$basic_stringbuf@DU?$char_traits@D@std@@V?$allocator@D@2@@std@@8 ; std::basic_stringbuf<char,std::char_traits<char>,std::allocator<char> >::`RTTI Base Class Descriptor at (0,-1,0,64)'
PUBLIC	??_R4?$basic_stringstream@DU?$char_traits@D@std@@V?$allocator@D@2@@std@@6B@ ; std::basic_stringstream<char,std::char_traits<char>,std::allocator<char> >::`RTTI Complete Object Locator'
PUBLIC	??_R0?AV?$basic_stringstream@DU?$char_traits@D@std@@V?$allocator@D@2@@std@@@8 ; std::basic_stringstream<char,std::char_traits<char>,std::allocator<char> > `RTTI Type Descriptor'
PUBLIC	??_R3?$basic_stringstream@DU?$char_traits@D@std@@V?$allocator@D@2@@std@@8 ; std::basic_stringstream<char,std::char_traits<char>,std::allocator<char> >::`RTTI Class Hierarchy Descriptor'
PUBLIC	??_R2?$basic_stringstream@DU?$char_traits@D@std@@V?$allocator@D@2@@std@@8 ; std::basic_stringstream<char,std::char_traits<char>,std::allocator<char> >::`RTTI Base Class Array'
PUBLIC	??_R1A@?0A@EA@?$basic_stringstream@DU?$char_traits@D@std@@V?$allocator@D@2@@std@@8 ; std::basic_stringstream<char,std::char_traits<char>,std::allocator<char> >::`RTTI Base Class Descriptor at (0,-1,0,64)'
PUBLIC	??_R4?$basic_ios@_WU?$char_traits@_W@std@@@std@@6B@ ; std::basic_ios<wchar_t,std::char_traits<wchar_t> >::`RTTI Complete Object Locator'
PUBLIC	??_R0?AV?$basic_ios@_WU?$char_traits@_W@std@@@std@@@8 ; std::basic_ios<wchar_t,std::char_traits<wchar_t> > `RTTI Type Descriptor'
PUBLIC	??_R3?$basic_ios@_WU?$char_traits@_W@std@@@std@@8 ; std::basic_ios<wchar_t,std::char_traits<wchar_t> >::`RTTI Class Hierarchy Descriptor'
PUBLIC	??_R2?$basic_ios@_WU?$char_traits@_W@std@@@std@@8 ; std::basic_ios<wchar_t,std::char_traits<wchar_t> >::`RTTI Base Class Array'
PUBLIC	??_R1A@?0A@EA@?$basic_ios@_WU?$char_traits@_W@std@@@std@@8 ; std::basic_ios<wchar_t,std::char_traits<wchar_t> >::`RTTI Base Class Descriptor at (0,-1,0,64)'
PUBLIC	??_R4?$basic_streambuf@_WU?$char_traits@_W@std@@@std@@6B@ ; std::basic_streambuf<wchar_t,std::char_traits<wchar_t> >::`RTTI Complete Object Locator'
PUBLIC	??_R0?AV?$basic_streambuf@_WU?$char_traits@_W@std@@@std@@@8 ; std::basic_streambuf<wchar_t,std::char_traits<wchar_t> > `RTTI Type Descriptor'
PUBLIC	??_R3?$basic_streambuf@_WU?$char_traits@_W@std@@@std@@8 ; std::basic_streambuf<wchar_t,std::char_traits<wchar_t> >::`RTTI Class Hierarchy Descriptor'
PUBLIC	??_R2?$basic_streambuf@_WU?$char_traits@_W@std@@@std@@8 ; std::basic_streambuf<wchar_t,std::char_traits<wchar_t> >::`RTTI Base Class Array'
PUBLIC	??_R1A@?0A@EA@?$basic_streambuf@_WU?$char_traits@_W@std@@@std@@8 ; std::basic_streambuf<wchar_t,std::char_traits<wchar_t> >::`RTTI Base Class Descriptor at (0,-1,0,64)'
PUBLIC	??_R4?$basic_istream@_WU?$char_traits@_W@std@@@std@@6B@ ; std::basic_istream<wchar_t,std::char_traits<wchar_t> >::`RTTI Complete Object Locator'
PUBLIC	??_R0?AV?$basic_istream@_WU?$char_traits@_W@std@@@std@@@8 ; std::basic_istream<wchar_t,std::char_traits<wchar_t> > `RTTI Type Descriptor'
PUBLIC	??_R3?$basic_istream@_WU?$char_traits@_W@std@@@std@@8 ; std::basic_istream<wchar_t,std::char_traits<wchar_t> >::`RTTI Class Hierarchy Descriptor'
PUBLIC	??_R2?$basic_istream@_WU?$char_traits@_W@std@@@std@@8 ; std::basic_istream<wchar_t,std::char_traits<wchar_t> >::`RTTI Base Class Array'
PUBLIC	??_R1A@?0A@EA@?$basic_istream@_WU?$char_traits@_W@std@@@std@@8 ; std::basic_istream<wchar_t,std::char_traits<wchar_t> >::`RTTI Base Class Descriptor at (0,-1,0,64)'
PUBLIC	??_R1A@A@3FA@?$basic_ios@_WU?$char_traits@_W@std@@@std@@8 ; std::basic_ios<wchar_t,std::char_traits<wchar_t> >::`RTTI Base Class Descriptor at (0,0,4,80)'
PUBLIC	??_R4?$basic_ostream@_WU?$char_traits@_W@std@@@std@@6B@ ; std::basic_ostream<wchar_t,std::char_traits<wchar_t> >::`RTTI Complete Object Locator'
PUBLIC	??_R0?AV?$basic_ostream@_WU?$char_traits@_W@std@@@std@@@8 ; std::basic_ostream<wchar_t,std::char_traits<wchar_t> > `RTTI Type Descriptor'
PUBLIC	??_R3?$basic_ostream@_WU?$char_traits@_W@std@@@std@@8 ; std::basic_ostream<wchar_t,std::char_traits<wchar_t> >::`RTTI Class Hierarchy Descriptor'
PUBLIC	??_R2?$basic_ostream@_WU?$char_traits@_W@std@@@std@@8 ; std::basic_ostream<wchar_t,std::char_traits<wchar_t> >::`RTTI Base Class Array'
PUBLIC	??_R1A@?0A@EA@?$basic_ostream@_WU?$char_traits@_W@std@@@std@@8 ; std::basic_ostream<wchar_t,std::char_traits<wchar_t> >::`RTTI Base Class Descriptor at (0,-1,0,64)'
PUBLIC	??_R4?$basic_iostream@_WU?$char_traits@_W@std@@@std@@6B@ ; std::basic_iostream<wchar_t,std::char_traits<wchar_t> >::`RTTI Complete Object Locator'
PUBLIC	??_R0?AV?$basic_iostream@_WU?$char_traits@_W@std@@@std@@@8 ; std::basic_iostream<wchar_t,std::char_traits<wchar_t> > `RTTI Type Descriptor'
PUBLIC	??_R3?$basic_iostream@_WU?$char_traits@_W@std@@@std@@8 ; std::basic_iostream<wchar_t,std::char_traits<wchar_t> >::`RTTI Class Hierarchy Descriptor'
PUBLIC	??_R2?$basic_iostream@_WU?$char_traits@_W@std@@@std@@8 ; std::basic_iostream<wchar_t,std::char_traits<wchar_t> >::`RTTI Base Class Array'
PUBLIC	??_R1A@?0A@EA@?$basic_iostream@_WU?$char_traits@_W@std@@@std@@8 ; std::basic_iostream<wchar_t,std::char_traits<wchar_t> >::`RTTI Base Class Descriptor at (0,-1,0,64)'
PUBLIC	??_R1BA@?0A@EA@?$basic_ostream@_WU?$char_traits@_W@std@@@std@@8 ; std::basic_ostream<wchar_t,std::char_traits<wchar_t> >::`RTTI Base Class Descriptor at (16,-1,0,64)'
PUBLIC	??_R4?$basic_stringbuf@_WU?$char_traits@_W@std@@V?$allocator@_W@2@@std@@6B@ ; std::basic_stringbuf<wchar_t,std::char_traits<wchar_t>,std::allocator<wchar_t> >::`RTTI Complete Object Locator'
PUBLIC	??_R0?AV?$basic_stringbuf@_WU?$char_traits@_W@std@@V?$allocator@_W@2@@std@@@8 ; std::basic_stringbuf<wchar_t,std::char_traits<wchar_t>,std::allocator<wchar_t> > `RTTI Type Descriptor'
PUBLIC	??_R3?$basic_stringbuf@_WU?$char_traits@_W@std@@V?$allocator@_W@2@@std@@8 ; std::basic_stringbuf<wchar_t,std::char_traits<wchar_t>,std::allocator<wchar_t> >::`RTTI Class Hierarchy Descriptor'
PUBLIC	??_R2?$basic_stringbuf@_WU?$char_traits@_W@std@@V?$allocator@_W@2@@std@@8 ; std::basic_stringbuf<wchar_t,std::char_traits<wchar_t>,std::allocator<wchar_t> >::`RTTI Base Class Array'
PUBLIC	??_R1A@?0A@EA@?$basic_stringbuf@_WU?$char_traits@_W@std@@V?$allocator@_W@2@@std@@8 ; std::basic_stringbuf<wchar_t,std::char_traits<wchar_t>,std::allocator<wchar_t> >::`RTTI Base Class Descriptor at (0,-1,0,64)'
PUBLIC	??_R4?$basic_stringstream@_WU?$char_traits@_W@std@@V?$allocator@_W@2@@std@@6B@ ; std::basic_stringstream<wchar_t,std::char_traits<wchar_t>,std::allocator<wchar_t> >::`RTTI Complete Object Locator'
PUBLIC	??_R0?AV?$basic_stringstream@_WU?$char_traits@_W@std@@V?$allocator@_W@2@@std@@@8 ; std::basic_stringstream<wchar_t,std::char_traits<wchar_t>,std::allocator<wchar_t> > `RTTI Type Descriptor'
PUBLIC	??_R3?$basic_stringstream@_WU?$char_traits@_W@std@@V?$allocator@_W@2@@std@@8 ; std::basic_stringstream<wchar_t,std::char_traits<wchar_t>,std::allocator<wchar_t> >::`RTTI Class Hierarchy Descriptor'
PUBLIC	??_R2?$basic_stringstream@_WU?$char_traits@_W@std@@V?$allocator@_W@2@@std@@8 ; std::basic_stringstream<wchar_t,std::char_traits<wchar_t>,std::allocator<wchar_t> >::`RTTI Base Class Array'
PUBLIC	??_R1A@?0A@EA@?$basic_stringstream@_WU?$char_traits@_W@std@@V?$allocator@_W@2@@std@@8 ; std::basic_stringstream<wchar_t,std::char_traits<wchar_t>,std::allocator<wchar_t> >::`RTTI Base Class Descriptor at (0,-1,0,64)'
PUBLIC	??_R4runtime_error@std@@6B@			; std::runtime_error::`RTTI Complete Object Locator'
PUBLIC	??_R3runtime_error@std@@8			; std::runtime_error::`RTTI Class Hierarchy Descriptor'
PUBLIC	??_R2runtime_error@std@@8			; std::runtime_error::`RTTI Base Class Array'
PUBLIC	??_R1A@?0A@EA@runtime_error@std@@8		; std::runtime_error::`RTTI Base Class Descriptor at (0,-1,0,64)'
PUBLIC	??_R4bad_cast@std@@6B@				; std::bad_cast::`RTTI Complete Object Locator'
PUBLIC	??_R3bad_cast@std@@8				; std::bad_cast::`RTTI Class Hierarchy Descriptor'
PUBLIC	??_R2bad_cast@std@@8				; std::bad_cast::`RTTI Base Class Array'
PUBLIC	??_R1A@?0A@EA@bad_cast@std@@8			; std::bad_cast::`RTTI Base Class Descriptor at (0,-1,0,64)'
PUBLIC	??_R4_Facet_base@std@@6B@			; std::_Facet_base::`RTTI Complete Object Locator'
PUBLIC	??_R0?AV_Facet_base@std@@@8			; std::_Facet_base `RTTI Type Descriptor'
PUBLIC	??_R3_Facet_base@std@@8				; std::_Facet_base::`RTTI Class Hierarchy Descriptor'
PUBLIC	??_R2_Facet_base@std@@8				; std::_Facet_base::`RTTI Base Class Array'
PUBLIC	??_R1A@?0A@EA@_Facet_base@std@@8		; std::_Facet_base::`RTTI Base Class Descriptor at (0,-1,0,64)'
PUBLIC	??_R1A@?0A@EA@facet@locale@std@@8		; std::locale::facet::`RTTI Base Class Descriptor at (0,-1,0,64)'
PUBLIC	??_R0?AVfacet@locale@std@@@8			; std::locale::facet `RTTI Type Descriptor'
PUBLIC	??_R3facet@locale@std@@8			; std::locale::facet::`RTTI Class Hierarchy Descriptor'
PUBLIC	??_R2facet@locale@std@@8			; std::locale::facet::`RTTI Base Class Array'
PUBLIC	??_R13?0A@EA@_Crt_new_delete@std@@8		; std::_Crt_new_delete::`RTTI Base Class Descriptor at (4,-1,0,64)'
PUBLIC	??_R0?AU_Crt_new_delete@std@@@8			; std::_Crt_new_delete `RTTI Type Descriptor'
PUBLIC	??_R3_Crt_new_delete@std@@8			; std::_Crt_new_delete::`RTTI Class Hierarchy Descriptor'
PUBLIC	??_R2_Crt_new_delete@std@@8			; std::_Crt_new_delete::`RTTI Base Class Array'
PUBLIC	??_R1A@?0A@EA@_Crt_new_delete@std@@8		; std::_Crt_new_delete::`RTTI Base Class Descriptor at (0,-1,0,64)'
PUBLIC	??_R4facet@locale@std@@6B@			; std::locale::facet::`RTTI Complete Object Locator'
PUBLIC	??_R4ctype_base@std@@6B@			; std::ctype_base::`RTTI Complete Object Locator'
PUBLIC	??_R0?AUctype_base@std@@@8			; std::ctype_base `RTTI Type Descriptor'
PUBLIC	??_R3ctype_base@std@@8				; std::ctype_base::`RTTI Class Hierarchy Descriptor'
PUBLIC	??_R2ctype_base@std@@8				; std::ctype_base::`RTTI Base Class Array'
PUBLIC	??_R1A@?0A@EA@ctype_base@std@@8			; std::ctype_base::`RTTI Base Class Descriptor at (0,-1,0,64)'
PUBLIC	??_R4?$ctype@D@std@@6B@				; std::ctype<char>::`RTTI Complete Object Locator'
PUBLIC	??_R0?AV?$ctype@D@std@@@8			; std::ctype<char> `RTTI Type Descriptor'
PUBLIC	??_R3?$ctype@D@std@@8				; std::ctype<char>::`RTTI Class Hierarchy Descriptor'
PUBLIC	??_R2?$ctype@D@std@@8				; std::ctype<char>::`RTTI Base Class Array'
PUBLIC	??_R1A@?0A@EA@?$ctype@D@std@@8			; std::ctype<char>::`RTTI Base Class Descriptor at (0,-1,0,64)'
PUBLIC	??_R4?$ctype@_W@std@@6B@			; std::ctype<wchar_t>::`RTTI Complete Object Locator'
PUBLIC	??_R0?AV?$ctype@_W@std@@@8			; std::ctype<wchar_t> `RTTI Type Descriptor'
PUBLIC	??_R3?$ctype@_W@std@@8				; std::ctype<wchar_t>::`RTTI Class Hierarchy Descriptor'
PUBLIC	??_R2?$ctype@_W@std@@8				; std::ctype<wchar_t>::`RTTI Base Class Array'
PUBLIC	??_R1A@?0A@EA@?$ctype@_W@std@@8			; std::ctype<wchar_t>::`RTTI Base Class Descriptor at (0,-1,0,64)'
PUBLIC	??_R4error_category@std@@6B@			; std::error_category::`RTTI Complete Object Locator'
PUBLIC	??_R0?AVerror_category@std@@@8			; std::error_category `RTTI Type Descriptor'
PUBLIC	??_R3error_category@std@@8			; std::error_category::`RTTI Class Hierarchy Descriptor'
PUBLIC	??_R2error_category@std@@8			; std::error_category::`RTTI Base Class Array'
PUBLIC	??_R1A@?0A@EA@error_category@std@@8		; std::error_category::`RTTI Base Class Descriptor at (0,-1,0,64)'
