; Listing generated by Microsoft (R) Optimizing Compiler Version 19.00.24215.1 

	TITLE	C:\Users\Alexis\Desktop\Sources_GostCrypt_Windows_1.3.1_COMMENTED\Sources_GostCrypt_Windows_1.3.1é\Sources_GostCrypt_Windows_1.3.1\Setup\ComSetup.cpp
	.686P
	.XMM
	include listing.inc
	.model	flat

INCLUDELIB LIBCMT
INCLUDELIB OLDNAMES

PUBLIC	??_C@_0BC@PGMFNIFA@atlTraceException?$AA@	; `string'
PUBLIC	_IID_IAxWinHostWindowLic
PUBLIC	??_C@_0N@BNNILHBE@atlTraceTime?$AA@		; `string'
PUBLIC	?_pAtlModule@ATL@@3PAVCAtlModule@1@A		; ATL::_pAtlModule
PUBLIC	_IID_IAxWinAmbientDispatch
PUBLIC	??_C@_0O@MEOJAOKK@atlTraceCache?$AA@		; `string'
PUBLIC	??_C@_0BA@IDBKCKK@atlTraceStencil?$AA@		; `string'
PUBLIC	??_C@_0P@MBNHGHMI@atlTraceString?$AA@		; `string'
PUBLIC	??_C@_0M@IOBBMAHG@atlTraceMap?$AA@		; `string'
PUBLIC	??_C@_0N@FEAAACHD@atlTraceUtil?$AA@		; `string'
PUBLIC	_LIBID_ATLLib
PUBLIC	??_C@_0BB@DNJDADMG@atlTraceSecurity?$AA@	; `string'
PUBLIC	??_C@_0N@KLPNCFEE@atlTraceSync?$AA@		; `string'
PUBLIC	?_pModule@ATL@@3PAVCComModule@1@A		; ATL::_pModule
PUBLIC	??_C@_0O@KHOBHOBJ@atlTraceISAPI?$AA@		; `string'
PUBLIC	_IID_IAxWinAmbientDispatchEx
PUBLIC	??_C@_0BA@MKMIKKJB@atlTraceGeneral?$AA@		; `string'
PUBLIC	_IID_IInternalConnection
PUBLIC	___pobjMapEntryFirst
PUBLIC	___pobjMapEntryLast
PUBLIC	?_pPerfRegFunc@ATL@@3P6AJPAUHINSTANCE__@@@ZA	; ATL::_pPerfRegFunc
PUBLIC	?_pPerfUnRegFunc@ATL@@3P6AJXZA			; ATL::_pPerfUnRegFunc
PUBLIC	?_AtlRegisterPerUser@ATL@@3_NA			; ATL::_AtlRegisterPerUser
PUBLIC	??_C@_0M@DGPFJEBB@atlTraceCOM?$AA@		; `string'
PUBLIC	??_C@_0L@LHELAKBP@atlTraceQI?$AA@		; `string'
PUBLIC	??_C@_0BC@MALHFBAO@atlTraceRegistrar?$AA@	; `string'
PUBLIC	_CLSID_Registrar
PUBLIC	??_C@_0BB@ILPPDKFL@atlTraceRefcount?$AA@	; `string'
PUBLIC	_IID_IRegistrar
PUBLIC	??_C@_0BC@DGHHNKDC@atlTraceWindowing?$AA@	; `string'
PUBLIC	?chDirSep@ATL@@3DB				; ATL::chDirSep
PUBLIC	?chRightBracket@ATL@@3DB			; ATL::chRightBracket
PUBLIC	?chLeftBracket@ATL@@3DB				; ATL::chLeftBracket
PUBLIC	?chQuote@ATL@@3DB				; ATL::chQuote
PUBLIC	?chEquals@ATL@@3DB				; ATL::chEquals
PUBLIC	?szStringVal@ATL@@3QBDB				; ATL::szStringVal
PUBLIC	??_C@_01CPLAODJH@S?$AA@				; `string'
PUBLIC	?multiszStringVal@ATL@@3QBDB			; ATL::multiszStringVal
PUBLIC	??_C@_0BB@GHKJKKIE@atlTraceControls?$AA@	; `string'
PUBLIC	??_C@_01PLPBNMEI@M?$AA@				; `string'
PUBLIC	?szDwordVal@ATL@@3QBDB				; ATL::szDwordVal
PUBLIC	??_C@_01CKDDGHAB@D?$AA@				; `string'
PUBLIC	?szBinaryVal@ATL@@3QBDB				; ATL::szBinaryVal
PUBLIC	??_C@_01HMGJMAIH@B?$AA@				; `string'
PUBLIC	?szValToken@ATL@@3QBDB				; ATL::szValToken
PUBLIC	??_C@_03LAIAPFCB@Val?$AA@			; `string'
PUBLIC	?szForceRemove@ATL@@3QBDB			; ATL::szForceRemove
PUBLIC	??_C@_0M@DBGDLGLL@ForceRemove?$AA@		; `string'
PUBLIC	?szNoRemove@ATL@@3QBDB				; ATL::szNoRemove
PUBLIC	??_C@_08KAAPDIAN@NoRemove?$AA@			; `string'
PUBLIC	?szDelete@ATL@@3QBDB				; ATL::szDelete
PUBLIC	??_C@_06JBKGCNBB@Delete?$AA@			; `string'
PUBLIC	??_C@_0BA@DKOAAGGM@atlTraceHosting?$AA@		; `string'
PUBLIC	_IID_IDocHostUIHandlerDispatch
PUBLIC	??_C@_0BB@BEBMGMDO@atlTraceDBClient?$AA@	; `string'
PUBLIC	?_pAtlAutoThreadModule@ATL@@3PAUIAtlAutoThreadModule@1@A ; ATL::_pAtlAutoThreadModule
PUBLIC	??_C@_0BD@KOADKDIA@atlTraceDBProvider?$AA@	; `string'
PUBLIC	??_C@_0P@LNEGBOLO@atlTraceSnapin?$AA@		; `string'
PUBLIC	?m_bInitFailed@CAtlBaseModule@ATL@@2_NA		; ATL::CAtlBaseModule::m_bInitFailed
PUBLIC	??_C@_0BA@MCBFIDIC@atlTraceNotImpl?$AA@		; `string'
PUBLIC	_IID_IAxWinHostWindow
PUBLIC	??_C@_0BD@PJPCCAKP@atlTraceAllocation?$AA@	; `string'
EXTRN	___ImageBase:BYTE
EXTRN	?_AtlBaseModule@ATL@@3VCAtlBaseModule@1@A:BYTE	; ATL::_AtlBaseModule
;	COMDAT ?_pAtlModule@ATL@@3PAVCAtlModule@1@A
_BSS	SEGMENT
?_pAtlModule@ATL@@3PAVCAtlModule@1@A DD 01H DUP (?)	; ATL::_pAtlModule
_BSS	ENDS
;	COMDAT ?_pModule@ATL@@3PAVCComModule@1@A
_BSS	SEGMENT
?_pModule@ATL@@3PAVCComModule@1@A DD 01H DUP (?)	; ATL::_pModule
_BSS	ENDS
;	COMDAT ?_pPerfRegFunc@ATL@@3P6AJPAUHINSTANCE__@@@ZA
_BSS	SEGMENT
?_pPerfRegFunc@ATL@@3P6AJPAUHINSTANCE__@@@ZA DD 01H DUP (?) ; ATL::_pPerfRegFunc
_BSS	ENDS
;	COMDAT ?_pPerfUnRegFunc@ATL@@3P6AJXZA
_BSS	SEGMENT
?_pPerfUnRegFunc@ATL@@3P6AJXZA DD 01H DUP (?)		; ATL::_pPerfUnRegFunc
_BSS	ENDS
;	COMDAT ?_AtlRegisterPerUser@ATL@@3_NA
_BSS	SEGMENT
?_AtlRegisterPerUser@ATL@@3_NA DB 01H DUP (?)		; ATL::_AtlRegisterPerUser
_BSS	ENDS
;	COMDAT ?_pAtlAutoThreadModule@ATL@@3PAUIAtlAutoThreadModule@1@A
_BSS	SEGMENT
?_pAtlAutoThreadModule@ATL@@3PAUIAtlAutoThreadModule@1@A DD 01H DUP (?) ; ATL::_pAtlAutoThreadModule
_BSS	ENDS
;	COMDAT ?m_bInitFailed@CAtlBaseModule@ATL@@2_NA
_BSS	SEGMENT
?m_bInitFailed@CAtlBaseModule@ATL@@2_NA DB 01H DUP (?)	; ATL::CAtlBaseModule::m_bInitFailed
_BSS	ENDS
;	COMDAT ??_C@_0BD@PJPCCAKP@atlTraceAllocation?$AA@
CONST	SEGMENT
??_C@_0BD@PJPCCAKP@atlTraceAllocation?$AA@ DB 'atlTraceAllocation', 00H ; `string'
CONST	ENDS
;	COMDAT _IID_IAxWinHostWindow
CONST	SEGMENT
_IID_IAxWinHostWindow DD 0b6ea2050H
	DW	048aH
	DW	011d1H
	DB	082H
	DB	0b9H
	DB	00H
	DB	0c0H
	DB	04fH
	DB	0b9H
	DB	094H
	DB	02eH
CONST	ENDS
;	COMDAT ??_C@_0BA@MCBFIDIC@atlTraceNotImpl?$AA@
CONST	SEGMENT
??_C@_0BA@MCBFIDIC@atlTraceNotImpl?$AA@ DB 'atlTraceNotImpl', 00H ; `string'
CONST	ENDS
;	COMDAT ??_C@_0P@LNEGBOLO@atlTraceSnapin?$AA@
CONST	SEGMENT
??_C@_0P@LNEGBOLO@atlTraceSnapin?$AA@ DB 'atlTraceSnapin', 00H ; `string'
CONST	ENDS
;	COMDAT ??_C@_0BD@KOADKDIA@atlTraceDBProvider?$AA@
CONST	SEGMENT
??_C@_0BD@KOADKDIA@atlTraceDBProvider?$AA@ DB 'atlTraceDBProvider', 00H ; `string'
CONST	ENDS
;	COMDAT ??_C@_0BB@BEBMGMDO@atlTraceDBClient?$AA@
CONST	SEGMENT
??_C@_0BB@BEBMGMDO@atlTraceDBClient?$AA@ DB 'atlTraceDBClient', 00H ; `string'
CONST	ENDS
;	COMDAT _IID_IDocHostUIHandlerDispatch
CONST	SEGMENT
_IID_IDocHostUIHandlerDispatch DD 0425b5af0H
	DW	065f1H
	DW	011d1H
	DB	096H
	DB	011H
	DB	00H
	DB	00H
	DB	0f8H
	DB	01eH
	DB	0dH
	DB	0dH
CONST	ENDS
;	COMDAT ??_C@_0BA@DKOAAGGM@atlTraceHosting?$AA@
CONST	SEGMENT
??_C@_0BA@DKOAAGGM@atlTraceHosting?$AA@ DB 'atlTraceHosting', 00H ; `string'
CONST	ENDS
;	COMDAT ??_C@_06JBKGCNBB@Delete?$AA@
CONST	SEGMENT
??_C@_06JBKGCNBB@Delete?$AA@ DB 'Delete', 00H		; `string'
CONST	ENDS
;	COMDAT ?szDelete@ATL@@3QBDB
CONST	SEGMENT
?szDelete@ATL@@3QBDB DD FLAT:??_C@_06JBKGCNBB@Delete?$AA@ ; ATL::szDelete
CONST	ENDS
;	COMDAT ??_C@_08KAAPDIAN@NoRemove?$AA@
CONST	SEGMENT
??_C@_08KAAPDIAN@NoRemove?$AA@ DB 'NoRemove', 00H	; `string'
CONST	ENDS
;	COMDAT ?szNoRemove@ATL@@3QBDB
CONST	SEGMENT
?szNoRemove@ATL@@3QBDB DD FLAT:??_C@_08KAAPDIAN@NoRemove?$AA@ ; ATL::szNoRemove
CONST	ENDS
;	COMDAT ??_C@_0M@DBGDLGLL@ForceRemove?$AA@
CONST	SEGMENT
??_C@_0M@DBGDLGLL@ForceRemove?$AA@ DB 'ForceRemove', 00H ; `string'
CONST	ENDS
;	COMDAT ?szForceRemove@ATL@@3QBDB
CONST	SEGMENT
?szForceRemove@ATL@@3QBDB DD FLAT:??_C@_0M@DBGDLGLL@ForceRemove?$AA@ ; ATL::szForceRemove
CONST	ENDS
;	COMDAT ??_C@_03LAIAPFCB@Val?$AA@
CONST	SEGMENT
??_C@_03LAIAPFCB@Val?$AA@ DB 'Val', 00H			; `string'
CONST	ENDS
;	COMDAT ?szValToken@ATL@@3QBDB
CONST	SEGMENT
?szValToken@ATL@@3QBDB DD FLAT:??_C@_03LAIAPFCB@Val?$AA@ ; ATL::szValToken
CONST	ENDS
;	COMDAT ??_C@_01HMGJMAIH@B?$AA@
CONST	SEGMENT
??_C@_01HMGJMAIH@B?$AA@ DB 'B', 00H			; `string'
CONST	ENDS
;	COMDAT ?szBinaryVal@ATL@@3QBDB
CONST	SEGMENT
?szBinaryVal@ATL@@3QBDB DD FLAT:??_C@_01HMGJMAIH@B?$AA@	; ATL::szBinaryVal
CONST	ENDS
;	COMDAT ??_C@_01CKDDGHAB@D?$AA@
CONST	SEGMENT
??_C@_01CKDDGHAB@D?$AA@ DB 'D', 00H			; `string'
CONST	ENDS
;	COMDAT ?szDwordVal@ATL@@3QBDB
CONST	SEGMENT
?szDwordVal@ATL@@3QBDB DD FLAT:??_C@_01CKDDGHAB@D?$AA@	; ATL::szDwordVal
CONST	ENDS
;	COMDAT ??_C@_01PLPBNMEI@M?$AA@
CONST	SEGMENT
??_C@_01PLPBNMEI@M?$AA@ DB 'M', 00H			; `string'
CONST	ENDS
;	COMDAT ??_C@_0BB@GHKJKKIE@atlTraceControls?$AA@
CONST	SEGMENT
??_C@_0BB@GHKJKKIE@atlTraceControls?$AA@ DB 'atlTraceControls', 00H ; `string'
CONST	ENDS
;	COMDAT ?multiszStringVal@ATL@@3QBDB
CONST	SEGMENT
?multiszStringVal@ATL@@3QBDB DD FLAT:??_C@_01PLPBNMEI@M?$AA@ ; ATL::multiszStringVal
CONST	ENDS
;	COMDAT ??_C@_01CPLAODJH@S?$AA@
CONST	SEGMENT
??_C@_01CPLAODJH@S?$AA@ DB 'S', 00H			; `string'
CONST	ENDS
;	COMDAT ?szStringVal@ATL@@3QBDB
CONST	SEGMENT
?szStringVal@ATL@@3QBDB DD FLAT:??_C@_01CPLAODJH@S?$AA@	; ATL::szStringVal
CONST	ENDS
;	COMDAT ?chEquals@ATL@@3DB
CONST	SEGMENT
?chEquals@ATL@@3DB DB 03dH				; ATL::chEquals
CONST	ENDS
;	COMDAT ?chQuote@ATL@@3DB
CONST	SEGMENT
?chQuote@ATL@@3DB DB 027H				; ATL::chQuote
CONST	ENDS
;	COMDAT ?chLeftBracket@ATL@@3DB
CONST	SEGMENT
?chLeftBracket@ATL@@3DB DB 07bH				; ATL::chLeftBracket
CONST	ENDS
;	COMDAT ?chRightBracket@ATL@@3DB
CONST	SEGMENT
?chRightBracket@ATL@@3DB DB 07dH			; ATL::chRightBracket
CONST	ENDS
;	COMDAT ?chDirSep@ATL@@3DB
CONST	SEGMENT
?chDirSep@ATL@@3DB DB 05cH				; ATL::chDirSep
CONST	ENDS
;	COMDAT ??_C@_0BC@DGHHNKDC@atlTraceWindowing?$AA@
CONST	SEGMENT
??_C@_0BC@DGHHNKDC@atlTraceWindowing?$AA@ DB 'atlTraceWindowing', 00H ; `string'
CONST	ENDS
;	COMDAT _IID_IRegistrar
CONST	SEGMENT
_IID_IRegistrar DD 044ec053bH
	DW	0400fH
	DW	011d0H
	DB	09dH
	DB	0cdH
	DB	00H
	DB	0a0H
	DB	0c9H
	DB	03H
	DB	091H
	DB	0d3H
CONST	ENDS
;	COMDAT ??_C@_0BB@ILPPDKFL@atlTraceRefcount?$AA@
CONST	SEGMENT
??_C@_0BB@ILPPDKFL@atlTraceRefcount?$AA@ DB 'atlTraceRefcount', 00H ; `string'
CONST	ENDS
;	COMDAT _CLSID_Registrar
CONST	SEGMENT
_CLSID_Registrar DD 044ec053aH
	DW	0400fH
	DW	011d0H
	DB	09dH
	DB	0cdH
	DB	00H
	DB	0a0H
	DB	0c9H
	DB	03H
	DB	091H
	DB	0d3H
CONST	ENDS
;	COMDAT ??_C@_0BC@MALHFBAO@atlTraceRegistrar?$AA@
CONST	SEGMENT
??_C@_0BC@MALHFBAO@atlTraceRegistrar?$AA@ DB 'atlTraceRegistrar', 00H ; `string'
CONST	ENDS
;	COMDAT ??_C@_0L@LHELAKBP@atlTraceQI?$AA@
CONST	SEGMENT
??_C@_0L@LHELAKBP@atlTraceQI?$AA@ DB 'atlTraceQI', 00H	; `string'
CONST	ENDS
;	COMDAT ??_C@_0M@DGPFJEBB@atlTraceCOM?$AA@
CONST	SEGMENT
??_C@_0M@DGPFJEBB@atlTraceCOM?$AA@ DB 'atlTraceCOM', 00H ; `string'
CONST	ENDS
;	COMDAT ___pobjMapEntryLast
ATL$__z	SEGMENT
___pobjMapEntryLast DD 00H
ATL$__z	ENDS
;	COMDAT ___pobjMapEntryFirst
ATL$__a	SEGMENT
___pobjMapEntryFirst DD 00H
ATL$__a	ENDS
;	COMDAT _IID_IInternalConnection
CONST	SEGMENT
_IID_IInternalConnection DD 072ad0770H
	DW	06a9fH
	DW	011d1H
	DB	0bcH
	DB	0ecH
	DB	00H
	DB	060H
	DB	08H
	DB	08fH
	DB	044H
	DB	04eH
CONST	ENDS
;	COMDAT ??_C@_0BA@MKMIKKJB@atlTraceGeneral?$AA@
CONST	SEGMENT
??_C@_0BA@MKMIKKJB@atlTraceGeneral?$AA@ DB 'atlTraceGeneral', 00H ; `string'
CONST	ENDS
;	COMDAT _IID_IAxWinAmbientDispatchEx
CONST	SEGMENT
_IID_IAxWinAmbientDispatchEx DD 0b2d0778bH
	DW	0ac99H
	DW	04c58H
	DB	0a5H
	DB	0c8H
	DB	0e7H
	DB	072H
	DB	04eH
	DB	053H
	DB	016H
	DB	0b5H
CONST	ENDS
;	COMDAT ??_C@_0O@KHOBHOBJ@atlTraceISAPI?$AA@
CONST	SEGMENT
??_C@_0O@KHOBHOBJ@atlTraceISAPI?$AA@ DB 'atlTraceISAPI', 00H ; `string'
CONST	ENDS
;	COMDAT ??_C@_0N@KLPNCFEE@atlTraceSync?$AA@
CONST	SEGMENT
??_C@_0N@KLPNCFEE@atlTraceSync?$AA@ DB 'atlTraceSync', 00H ; `string'
CONST	ENDS
;	COMDAT ??_C@_0BB@DNJDADMG@atlTraceSecurity?$AA@
CONST	SEGMENT
??_C@_0BB@DNJDADMG@atlTraceSecurity?$AA@ DB 'atlTraceSecurity', 00H ; `string'
CONST	ENDS
;	COMDAT _LIBID_ATLLib
CONST	SEGMENT
_LIBID_ATLLib DD 044ec0535H
	DW	0400fH
	DW	011d0H
	DB	09dH
	DB	0cdH
	DB	00H
	DB	0a0H
	DB	0c9H
	DB	03H
	DB	091H
	DB	0d3H
CONST	ENDS
;	COMDAT ??_C@_0N@FEAAACHD@atlTraceUtil?$AA@
CONST	SEGMENT
??_C@_0N@FEAAACHD@atlTraceUtil?$AA@ DB 'atlTraceUtil', 00H ; `string'
CONST	ENDS
;	COMDAT ??_C@_0M@IOBBMAHG@atlTraceMap?$AA@
CONST	SEGMENT
??_C@_0M@IOBBMAHG@atlTraceMap?$AA@ DB 'atlTraceMap', 00H ; `string'
CONST	ENDS
;	COMDAT ??_C@_0P@MBNHGHMI@atlTraceString?$AA@
CONST	SEGMENT
??_C@_0P@MBNHGHMI@atlTraceString?$AA@ DB 'atlTraceString', 00H ; `string'
CONST	ENDS
;	COMDAT ??_C@_0BA@IDBKCKK@atlTraceStencil?$AA@
CONST	SEGMENT
??_C@_0BA@IDBKCKK@atlTraceStencil?$AA@ DB 'atlTraceStencil', 00H ; `string'
CONST	ENDS
;	COMDAT ??_C@_0O@MEOJAOKK@atlTraceCache?$AA@
CONST	SEGMENT
??_C@_0O@MEOJAOKK@atlTraceCache?$AA@ DB 'atlTraceCache', 00H ; `string'
CONST	ENDS
;	COMDAT _IID_IAxWinAmbientDispatch
CONST	SEGMENT
_IID_IAxWinAmbientDispatch DD 0b6ea2051H
	DW	048aH
	DW	011d1H
	DB	082H
	DB	0b9H
	DB	00H
	DB	0c0H
	DB	04fH
	DB	0b9H
	DB	094H
	DB	02eH
CONST	ENDS
;	COMDAT ??_C@_0N@BNNILHBE@atlTraceTime?$AA@
CONST	SEGMENT
??_C@_0N@BNNILHBE@atlTraceTime?$AA@ DB 'atlTraceTime', 00H ; `string'
CONST	ENDS
;	COMDAT _IID_IAxWinHostWindowLic
CONST	SEGMENT
_IID_IAxWinHostWindowLic DD 03935bda8H
	DW	04ed9H
	DW	0495cH
	DB	086H
	DB	050H
	DB	0e0H
	DB	01fH
	DB	0c1H
	DB	0e3H
	DB	08aH
	DB	04bH
CONST	ENDS
;	COMDAT ??_C@_0BC@PGMFNIFA@atlTraceException?$AA@
CONST	SEGMENT
??_C@_0BC@PGMFNIFA@atlTraceException?$AA@ DB 'atlTraceException', 00H ; `string'
CONST	ENDS
CONST	SEGMENT
_LIBID_GostCryptMainCom DD 01770f56cH
	DW	07881H
	DW	04591H
	DB	0a1H
	DB	079H
	DB	079H
	DB	0b8H
	DB	00H
	DB	01cH
	DB	07dH
	DB	042H
_LIBID_GostCryptFormatCom DD 0a7df958cH
	DW	0716H
	DW	049e9H
	DB	08cH
	DB	03eH
	DB	053H
	DB	0a7H
	DB	075H
	DB	079H
	DB	075H
	DB	076H
CONST	ENDS
PUBLIC	??$AtlMultiply@H@ATL@@YAJPAHHH@Z		; ATL::AtlMultiply<int>
PUBLIC	?memcpy_s@Checked@ATL@@YAXPAXIPBXI@Z		; ATL::Checked::memcpy_s
PUBLIC	?_AtlVerifyStackAvailable@_ATL_SAFE_ALLOCA_IMPL@ATL@@YA_NK@Z ; ATL::_ATL_SAFE_ALLOCA_IMPL::_AtlVerifyStackAvailable
PUBLIC	??$AtlAdd@K@ATL@@YAJPAKKK@Z			; ATL::AtlAdd<unsigned long>
PUBLIC	?AtlA2WHelper@@YGPA_WPA_WPBDHI@Z		; AtlA2WHelper
PUBLIC	?AtlW2AHelper@@YGPADPADPB_WHI@Z			; AtlW2AHelper
PUBLIC	?Allocate@?$CAtlSafeAllocBufferManager@VCCRTAllocator@ATL@@@_ATL_SAFE_ALLOCA_IMPL@ATL@@QAEPAXK@Z ; ATL::_ATL_SAFE_ALLOCA_IMPL::CAtlSafeAllocBufferManager<ATL::CCRTAllocator>::Allocate
PUBLIC	??1?$CAtlSafeAllocBufferManager@VCCRTAllocator@ATL@@@_ATL_SAFE_ALLOCA_IMPL@ATL@@QAE@XZ ; ATL::_ATL_SAFE_ALLOCA_IMPL::CAtlSafeAllocBufferManager<ATL::CCRTAllocator>::~CAtlSafeAllocBufferManager<ATL::CCRTAllocator>
PUBLIC	___local_stdio_printf_options
PUBLIC	??$__vcrt_va_start_verify_argument_type@QBD@@YAXXZ ; __vcrt_va_start_verify_argument_type<char const * const>
PUBLIC	_sprintf_s
PUBLIC	?AtlThrowImpl@ATL@@YGXJ@Z			; ATL::AtlThrowImpl
PUBLIC	?AtlCrtErrorCheck@ATL@@YAHH@Z			; ATL::AtlCrtErrorCheck
PUBLIC	?_AtlInitializeCriticalSectionEx@ATL@@YAHPAU_RTL_CRITICAL_SECTION@@KK@Z ; ATL::_AtlInitializeCriticalSectionEx
PUBLIC	?AtlHresultFromLastError@ATL@@YAJXZ		; ATL::AtlHresultFromLastError
PUBLIC	?AtlHresultFromWin32@ATL@@YAJK@Z		; ATL::AtlHresultFromWin32
PUBLIC	??1_ATL_COM_MODULE70@ATL@@QAE@XZ		; ATL::_ATL_COM_MODULE70::~_ATL_COM_MODULE70
PUBLIC	?AtlWinModuleTerm@ATL@@YGJPAU_ATL_WIN_MODULE70@1@PAUHINSTANCE__@@@Z ; ATL::AtlWinModuleTerm
PUBLIC	?Term@CAtlComModule@ATL@@QAEXXZ			; ATL::CAtlComModule::Term
PUBLIC	??0CAtlWinModule@ATL@@QAE@XZ			; ATL::CAtlWinModule::CAtlWinModule
PUBLIC	??1CRegKey@ATL@@QAE@XZ				; ATL::CRegKey::~CRegKey
PUBLIC	?SetDWORDValue@CRegKey@ATL@@QAEJPBDK@Z		; ATL::CRegKey::SetDWORDValue
PUBLIC	?SetStringValue@CRegKey@ATL@@QAEJPBD0K@Z	; ATL::CRegKey::SetStringValue
PUBLIC	?SetMultiStringValue@CRegKey@ATL@@QAEJPBD0@Z	; ATL::CRegKey::SetMultiStringValue
PUBLIC	?Create@CRegKey@ATL@@QAEJPAUHKEY__@@PBDPADKKPAU_SECURITY_ATTRIBUTES@@PAK@Z ; ATL::CRegKey::Create
PUBLIC	?Open@CRegKey@ATL@@QAEJPAUHKEY__@@PBDK@Z	; ATL::CRegKey::Open
PUBLIC	?DeleteSubKey@CRegKey@ATL@@QAEJPBD@Z		; ATL::CRegKey::DeleteSubKey
PUBLIC	?RecurseDeleteKey@CRegKey@ATL@@QAEJPBD@Z	; ATL::CRegKey::RecurseDeleteKey
PUBLIC	?Add@?$CSimpleMap@PADPA_WVCExpansionVectorEqualHelper@ATL@@@ATL@@QAEHABQADABQA_W@Z ; ATL::CSimpleMap<char *,wchar_t *,ATL::CExpansionVectorEqualHelper>::Add
PUBLIC	?Lookup@?$CSimpleMap@PADPA_WVCExpansionVectorEqualHelper@ATL@@@ATL@@QBEPA_WABQAD@Z ; ATL::CSimpleMap<char *,wchar_t *,ATL::CExpansionVectorEqualHelper>::Lookup
PUBLIC	?Add@CExpansionVector@ATL@@QAEHPBDPB_W@Z	; ATL::CExpansionVector::Add
PUBLIC	?ClearReplacements@CExpansionVector@ATL@@QAEJXZ	; ATL::CExpansionVector::ClearReplacements
PUBLIC	??1?$CAutoVectorPtr@D@ATL@@QAE@XZ		; ATL::CAutoVectorPtr<char>::~CAutoVectorPtr<char>
PUBLIC	??1?$CAutoVectorPtr@_W@ATL@@QAE@XZ		; ATL::CAutoVectorPtr<wchar_t>::~CAutoVectorPtr<wchar_t>
PUBLIC	?PreProcessBuffer@CRegParser@ATL@@QAEJPADPAPAD@Z ; ATL::CRegParser::PreProcessBuffer
PUBLIC	?RegisterBuffer@CRegParser@ATL@@QAEJPADH@Z	; ATL::CRegParser::RegisterBuffer
PUBLIC	?SkipWhiteSpace@CRegParser@ATL@@IAEXXZ		; ATL::CRegParser::SkipWhiteSpace
PUBLIC	?NextToken@CRegParser@ATL@@IAEJPAD@Z		; ATL::CRegParser::NextToken
PUBLIC	?AddValue@CRegParser@ATL@@IAEJAAVCRegKey@2@PBDPAD@Z ; ATL::CRegParser::AddValue
PUBLIC	?CanForceRemoveKey@CRegParser@ATL@@IAEHPBD@Z	; ATL::CRegParser::CanForceRemoveKey
PUBLIC	?HasSubKeys@CRegParser@ATL@@IAEHPAUHKEY__@@@Z	; ATL::CRegParser::HasSubKeys
PUBLIC	?RegisterSubkeys@CRegParser@ATL@@IAEJPADPAUHKEY__@@HH@Z ; ATL::CRegParser::RegisterSubkeys
PUBLIC	?SkipAssignment@CRegParser@ATL@@IAEJPAD@Z	; ATL::CRegParser::SkipAssignment
PUBLIC	?StrChrA@CRegParser@ATL@@KAPADPADD@Z		; ATL::CRegParser::StrChrA
PUBLIC	?ChToByte@CRegParser@ATL@@KAED@Z		; ATL::CRegParser::ChToByte
PUBLIC	?VTFromRegType@CRegParser@ATL@@KAHPBDAAG@Z	; ATL::CRegParser::VTFromRegType
PUBLIC	??1CParseBuffer@CRegParser@ATL@@QAE@XZ		; ATL::CRegParser::CParseBuffer::~CParseBuffer
PUBLIC	?Append@CParseBuffer@CRegParser@ATL@@QAEHPBDH@Z	; ATL::CRegParser::CParseBuffer::Append
PUBLIC	?AddString@CParseBuffer@CRegParser@ATL@@QAEHPB_W@Z ; ATL::CRegParser::CParseBuffer::AddString
PUBLIC	?QueryInterface@CRegObject@ATL@@UAGJABU_GUID@@PAPAX@Z ; ATL::CRegObject::QueryInterface
PUBLIC	?AddRef@CRegObject@ATL@@UAGKXZ			; ATL::CRegObject::AddRef
PUBLIC	?Release@CRegObject@ATL@@UAGKXZ			; ATL::CRegObject::Release
PUBLIC	??1CRegObject@ATL@@UAE@XZ			; ATL::CRegObject::~CRegObject
PUBLIC	?AddReplacement@CRegObject@ATL@@UAGJPB_W0@Z	; ATL::CRegObject::AddReplacement
PUBLIC	?ClearReplacements@CRegObject@ATL@@UAGJXZ	; ATL::CRegObject::ClearReplacements
PUBLIC	?ResourceRegister@CRegObject@ATL@@QAGJPB_WI0@Z	; ATL::CRegObject::ResourceRegister
PUBLIC	?ResourceUnregister@CRegObject@ATL@@QAGJPB_WI0@Z ; ATL::CRegObject::ResourceUnregister
PUBLIC	?RegisterFromResource@CRegObject@ATL@@IAEJPB_WPBD1H@Z ; ATL::CRegObject::RegisterFromResource
PUBLIC	??_GCRegObject@ATL@@UAEPAXI@Z			; ATL::CRegObject::`scalar deleting destructor'
PUBLIC	??1?$CTempBuffer@D$0EAA@VCCRTAllocator@ATL@@@ATL@@QAE@XZ ; ATL::CTempBuffer<char,1024,ATL::CCRTAllocator>::~CTempBuffer<char,1024,ATL::CCRTAllocator>
PUBLIC	?Allocate@?$CTempBuffer@D$0EAA@VCCRTAllocator@ATL@@@ATL@@QAEPADI@Z ; ATL::CTempBuffer<char,1024,ATL::CCRTAllocator>::Allocate
PUBLIC	?AllocateHeap@?$CTempBuffer@D$0EAA@VCCRTAllocator@ATL@@@ATL@@AAEXI@Z ; ATL::CTempBuffer<char,1024,ATL::CCRTAllocator>::AllocateHeap
PUBLIC	?FreeHeap@?$CTempBuffer@D$0EAA@VCCRTAllocator@ATL@@@ATL@@AAEXXZ ; ATL::CTempBuffer<char,1024,ATL::CCRTAllocator>::FreeHeap
PUBLIC	??1?$CTempBuffer@D$0BAA@VCCRTAllocator@ATL@@@ATL@@QAE@XZ ; ATL::CTempBuffer<char,256,ATL::CCRTAllocator>::~CTempBuffer<char,256,ATL::CCRTAllocator>
PUBLIC	?Allocate@?$CTempBuffer@D$0BAA@VCCRTAllocator@ATL@@@ATL@@QAEPADI@Z ; ATL::CTempBuffer<char,256,ATL::CCRTAllocator>::Allocate
PUBLIC	?AllocateHeap@?$CTempBuffer@D$0BAA@VCCRTAllocator@ATL@@@ATL@@AAEXI@Z ; ATL::CTempBuffer<char,256,ATL::CCRTAllocator>::AllocateHeap
PUBLIC	?FreeHeap@?$CTempBuffer@D$0BAA@VCCRTAllocator@ATL@@@ATL@@AAEXXZ ; ATL::CTempBuffer<char,256,ATL::CCRTAllocator>::FreeHeap
PUBLIC	??1?$CTempBuffer@E$0BAA@VCCRTAllocator@ATL@@@ATL@@QAE@XZ ; ATL::CTempBuffer<unsigned char,256,ATL::CCRTAllocator>::~CTempBuffer<unsigned char,256,ATL::CCRTAllocator>
PUBLIC	?Allocate@?$CTempBuffer@E$0BAA@VCCRTAllocator@ATL@@@ATL@@QAEPAEI@Z ; ATL::CTempBuffer<unsigned char,256,ATL::CCRTAllocator>::Allocate
PUBLIC	?AllocateHeap@?$CTempBuffer@E$0BAA@VCCRTAllocator@ATL@@@ATL@@AAEXI@Z ; ATL::CTempBuffer<unsigned char,256,ATL::CCRTAllocator>::AllocateHeap
PUBLIC	?FreeHeap@?$CTempBuffer@E$0BAA@VCCRTAllocator@ATL@@@ATL@@AAEXXZ ; ATL::CTempBuffer<unsigned char,256,ATL::CCRTAllocator>::FreeHeap
PUBLIC	??1_com_error@@UAE@XZ				; _com_error::~_com_error
PUBLIC	?ErrorMessage@_com_error@@QBEPBDXZ		; _com_error::ErrorMessage
PUBLIC	??_G_com_error@@UAEPAXI@Z			; _com_error::`scalar deleting destructor'
PUBLIC	_RegisterComServers
PUBLIC	_UnregisterComServers
PUBLIC	?_OptionsStorage@?1??__local_stdio_printf_options@@9@4_KA ; `__local_stdio_printf_options'::`2'::_OptionsStorage
PUBLIC	?atlTraceGeneral@ATL@@3V?$CTraceCategoryEx@$00$0A@@1@A ; ATL::atlTraceGeneral
PUBLIC	?atlTraceCOM@ATL@@3V?$CTraceCategoryEx@$01$0A@@1@A ; ATL::atlTraceCOM
PUBLIC	?atlTraceQI@ATL@@3V?$CTraceCategoryEx@$03$0A@@1@A ; ATL::atlTraceQI
PUBLIC	?atlTraceRegistrar@ATL@@3V?$CTraceCategoryEx@$07$0A@@1@A ; ATL::atlTraceRegistrar
PUBLIC	?atlTraceRefcount@ATL@@3V?$CTraceCategoryEx@$0BA@$0A@@1@A ; ATL::atlTraceRefcount
PUBLIC	?atlTraceWindowing@ATL@@3V?$CTraceCategoryEx@$0CA@$0A@@1@A ; ATL::atlTraceWindowing
PUBLIC	?atlTraceControls@ATL@@3V?$CTraceCategoryEx@$0EA@$0A@@1@A ; ATL::atlTraceControls
PUBLIC	?atlTraceHosting@ATL@@3V?$CTraceCategoryEx@$0IA@$0A@@1@A ; ATL::atlTraceHosting
PUBLIC	?atlTraceDBClient@ATL@@3V?$CTraceCategoryEx@$0BAA@$0A@@1@A ; ATL::atlTraceDBClient
PUBLIC	?atlTraceDBProvider@ATL@@3V?$CTraceCategoryEx@$0CAA@$0A@@1@A ; ATL::atlTraceDBProvider
PUBLIC	?atlTraceSnapin@ATL@@3V?$CTraceCategoryEx@$0EAA@$0A@@1@A ; ATL::atlTraceSnapin
PUBLIC	?atlTraceNotImpl@ATL@@3V?$CTraceCategoryEx@$0IAA@$0A@@1@A ; ATL::atlTraceNotImpl
PUBLIC	?atlTraceAllocation@ATL@@3V?$CTraceCategoryEx@$0BAAA@$0A@@1@A ; ATL::atlTraceAllocation
PUBLIC	?atlTraceException@ATL@@3V?$CTraceCategoryEx@$0CAAA@$0A@@1@A ; ATL::atlTraceException
PUBLIC	?atlTraceTime@ATL@@3V?$CTraceCategoryEx@$0EAAA@$0A@@1@A ; ATL::atlTraceTime
PUBLIC	?atlTraceCache@ATL@@3V?$CTraceCategoryEx@$0IAAA@$0A@@1@A ; ATL::atlTraceCache
PUBLIC	?atlTraceStencil@ATL@@3V?$CTraceCategoryEx@$0BAAAA@$0A@@1@A ; ATL::atlTraceStencil
PUBLIC	?atlTraceString@ATL@@3V?$CTraceCategoryEx@$0CAAAA@$0A@@1@A ; ATL::atlTraceString
PUBLIC	?atlTraceMap@ATL@@3V?$CTraceCategoryEx@$0EAAAA@$0A@@1@A ; ATL::atlTraceMap
PUBLIC	?atlTraceUtil@ATL@@3V?$CTraceCategoryEx@$0IAAAA@$0A@@1@A ; ATL::atlTraceUtil
PUBLIC	?atlTraceSecurity@ATL@@3V?$CTraceCategoryEx@$0BAAAAA@$0A@@1@A ; ATL::atlTraceSecurity
PUBLIC	?atlTraceSync@ATL@@3V?$CTraceCategoryEx@$0CAAAAA@$0A@@1@A ; ATL::atlTraceSync
PUBLIC	?atlTraceISAPI@ATL@@3V?$CTraceCategoryEx@$0EAAAAA@$0A@@1@A ; ATL::atlTraceISAPI
PUBLIC	__TI1?AVCAtlException@ATL@@
PUBLIC	__CTA1?AVCAtlException@ATL@@
PUBLIC	??_R0?AVCAtlException@ATL@@@8			; ATL::CAtlException `RTTI Type Descriptor'
PUBLIC	__CT??_R0?AVCAtlException@ATL@@@84
PUBLIC	??_C@_0N@DOHINHCI@Advapi32?4dll?$AA@		; `string'
PUBLIC	??_C@_0BG@FGMNHMFJ@RegOpenKeyTransactedA?$AA@	; `string'
PUBLIC	??_C@_0BI@NBLNJKIN@RegCreateKeyTransactedA?$AA@	; `string'
PUBLIC	??_C@_0BI@GMDDFLLI@RegDeleteKeyTransactedA?$AA@	; `string'
PUBLIC	?_AtlComModule@ATL@@3VCAtlComModule@1@A		; ATL::_AtlComModule
PUBLIC	?_AtlWinModule@ATL@@3VCAtlWinModule@1@A		; ATL::_AtlWinModule
PUBLIC	?pfnRegDeleteKeyEx@?1??DeleteSubKey@CRegKey@ATL@@QAEJPBD@Z@4P6GJPAUHKEY__@@0KK@ZA ; `ATL::CRegKey::DeleteSubKey'::`2'::pfnRegDeleteKeyEx
PUBLIC	?bInitialized@?1??DeleteSubKey@CRegKey@ATL@@QAEJPBD@Z@4_NA ; `ATL::CRegKey::DeleteSubKey'::`2'::bInitialized
PUBLIC	??_C@_0BA@KECIECLD@RegDeleteKeyExA?$AA@		; `string'
PUBLIC	??_C@_05GIBEAPNE@CLSID?$AA@			; `string'
PUBLIC	??_C@_05PDIKPLII@AppID?$AA@			; `string'
PUBLIC	?rgszNeverDelete@CRegParser@ATL@@1QBQBDB	; ATL::CRegParser::rgszNeverDelete
PUBLIC	??_7CRegObject@ATL@@6B@				; ATL::CRegObject::`vftable'
PUBLIC	??_C@_0BF@HDDNNDFH@Component?5Categories?$AA@	; `string'
PUBLIC	??_C@_08PICKODJL@FileType?$AA@			; `string'
PUBLIC	??_C@_09JKPGEJCH@Interface?$AA@			; `string'
PUBLIC	??_C@_08PPIOJEA@Hardware?$AA@			; `string'
PUBLIC	??_C@_04IHBFOLAC@Mime?$AA@			; `string'
PUBLIC	??_C@_03DDIMFGBA@SAM?$AA@			; `string'
PUBLIC	??_C@_08LOPHEHKG@SECURITY?$AA@			; `string'
PUBLIC	??_C@_06FDHFNJBJ@SYSTEM?$AA@			; `string'
PUBLIC	??_C@_08KEKAJNJI@Software?$AA@			; `string'
PUBLIC	??_C@_07KJLOKDKB@TypeLib?$AA@			; `string'
PUBLIC	?map@?1??VTFromRegType@CRegParser@ATL@@KAHPBDAAG@Z@4QBUtypemap@?1??123@KAH01@Z@B ; `ATL::CRegParser::VTFromRegType'::`2'::map
PUBLIC	?$TSS0@?1??VTFromRegType@CRegParser@ATL@@KAHPBDAAG@Z@4HA ; TSS0<`template-parameter-2',ATL::CRegParser::TFromRegType,unsigned long,int,char const *,unsigned short &>
PUBLIC	?map@?1??HKeyFromString@CRegParser@ATL@@KAPAUHKEY__@@PAD@Z@4QBUkeymap@?1??123@KAPAU4@0@Z@B ; `ATL::CRegParser::HKeyFromString'::`2'::map
PUBLIC	??_C@_04OHBKMIBJ@HKCR?$AA@			; `string'
PUBLIC	??_C@_04KIFLFONO@HKCU?$AA@			; `string'
PUBLIC	??_C@_04CBBMIBLK@HKLM?$AA@			; `string'
PUBLIC	??_C@_03DLBIJLAB@HKU?$AA@			; `string'
PUBLIC	??_C@_04OFOCGAOH@HKPD?$AA@			; `string'
PUBLIC	??_C@_04POMNGLEL@HKDD?$AA@			; `string'
PUBLIC	??_C@_04LEMDOLAJ@HKCC?$AA@			; `string'
PUBLIC	??_C@_0BC@JBJOLKMF@HKEY_CLASSES_ROOT?$AA@	; `string'
PUBLIC	??_C@_0BC@GMMMKLBI@HKEY_CURRENT_USER?$AA@	; `string'
PUBLIC	??_C@_0BD@GIIFIKDM@HKEY_LOCAL_MACHINE?$AA@	; `string'
PUBLIC	??_C@_0L@OEMMANAM@HKEY_USERS?$AA@		; `string'
PUBLIC	??_C@_0BG@IDBEHNDO@HKEY_PERFORMANCE_DATA?$AA@	; `string'
PUBLIC	??_C@_0O@MJDLIIGK@HKEY_DYN_DATA?$AA@		; `string'
PUBLIC	??_C@_0BE@NLNNHLLF@HKEY_CURRENT_CONFIG?$AA@	; `string'
PUBLIC	??_C@_1EA@NHKLICFA@?$AAH?$AAK?$AAC?$AAU?$AA?$AN?$AA?6?$AA?$HL?$AA?7?$AAS?$AAo?$AAf?$AAt?$AAw?$AAa?$AAr?$AAe?$AA?$AN?$AA?6?$AA?7?$AA?$HL?$AA?$AN?$AA?6?$AA?7?$AA?7?$AAC?$AAl?$AAa?$AAs?$AAs?$AAe?$AAs?$AA?$AA@ ; `string'
PUBLIC	??_C@_1BE@LJOLIMEM@?$AA?$AN?$AA?6?$AA?7?$AA?$HN?$AA?$AN?$AA?6?$AA?$HN?$AA?$AN?$AA?6?$AA?$AA@ ; `string'
PUBLIC	??_C@_1BC@KAILKFFG@?$AAR?$AAE?$AAG?$AAI?$AAS?$AAT?$AAR?$AAY?$AA?$AA@ ; `string'
PUBLIC	??_7_com_error@@6B@				; _com_error::`vftable'
PUBLIC	??_C@_0BE@NNIJINN@IDispatch?5error?5?$CD?$CFd?$AA@ ; `string'
PUBLIC	??_C@_0BF@IPPGFENJ@Unknown?5error?50x?$CF0lX?$AA@ ; `string'
PUBLIC	??_C@_1CC@HOFAEMLD@?$AA?$CF?$AAh?$AAs?$AAG?$AAo?$AAs?$AAt?$AAC?$AAr?$AAy?$AAp?$AAt?$AA?4?$AAe?$AAx?$AAe?$AA?$AA@ ; `string'
PUBLIC	??_C@_1DA@NKIHIBKI@?$AA?$CF?$AAh?$AAs?$AAG?$AAo?$AAs?$AAt?$AAC?$AAr?$AAy?$AAp?$AAt?$AA?5?$AAF?$AAo?$AAr?$AAm?$AAa?$AAt?$AA?4?$AAe?$AAx?$AAe?$AA?$AA@ ; `string'
PUBLIC	??_C@_1BI@FPIOFILF@?$AAM?$AAA?$AAI?$AAN?$AA_?$AAM?$AAO?$AAD?$AAU?$AAL?$AAE?$AA?$AA@ ; `string'
PUBLIC	??_C@_1BM@IFKNBDBK@?$AAF?$AAO?$AAR?$AAM?$AAA?$AAT?$AA_?$AAM?$AAO?$AAD?$AAU?$AAL?$AAE?$AA?$AA@ ; `string'
PUBLIC	??_C@_09NKHKFHLH@GostCrypt?$AA@			; `string'
PUBLIC	??_R0?AUIUnknown@@@8				; IUnknown `RTTI Type Descriptor'
PUBLIC	??_R3IUnknown@@8				; IUnknown::`RTTI Class Hierarchy Descriptor'
PUBLIC	??_R2IUnknown@@8				; IUnknown::`RTTI Base Class Array'
PUBLIC	??_R1A@?0A@EA@IUnknown@@8			; IUnknown::`RTTI Base Class Descriptor at (0,-1,0,64)'
PUBLIC	??_R0?AUIRegistrarBase@@@8			; IRegistrarBase `RTTI Type Descriptor'
PUBLIC	??_R3IRegistrarBase@@8				; IRegistrarBase::`RTTI Class Hierarchy Descriptor'
PUBLIC	??_R2IRegistrarBase@@8				; IRegistrarBase::`RTTI Base Class Array'
PUBLIC	??_R1A@?0A@EA@IRegistrarBase@@8			; IRegistrarBase::`RTTI Base Class Descriptor at (0,-1,0,64)'
PUBLIC	??_R4CRegObject@ATL@@6B@			; ATL::CRegObject::`RTTI Complete Object Locator'
PUBLIC	??_R0?AVCRegObject@ATL@@@8			; ATL::CRegObject `RTTI Type Descriptor'
PUBLIC	??_R3CRegObject@ATL@@8				; ATL::CRegObject::`RTTI Class Hierarchy Descriptor'
PUBLIC	??_R2CRegObject@ATL@@8				; ATL::CRegObject::`RTTI Base Class Array'
PUBLIC	??_R1A@?0A@EA@CRegObject@ATL@@8			; ATL::CRegObject::`RTTI Base Class Descriptor at (0,-1,0,64)'
PUBLIC	??_R4_com_error@@6B@				; _com_error::`RTTI Complete Object Locator'
PUBLIC	??_R0?AV_com_error@@@8				; _com_error `RTTI Type Descriptor'
PUBLIC	??_R3_com_error@@8				; _com_error::`RTTI Class Hierarchy Descriptor'
PUBLIC	??_R2_com_error@@8				; _com_error::`RTTI Base Class Array'
PUBLIC	??_R1A@?0A@EA@_com_error@@8			; _com_error::`RTTI Base Class Descriptor at (0,-1,0,64)'
EXTRN	??3@YAXPAXI@Z:PROC				; operator delete
EXTRN	??_V@YAXPAX@Z:PROC				; operator delete[]
EXTRN	_atexit:PROC
EXTRN	__Init_thread_header:PROC
EXTRN	__Init_thread_footer:PROC
EXTRN	___std_terminate:PROC
EXTRN	__invalid_parameter_noinfo:PROC
EXTRN	__errno:PROC
EXTRN	_free:PROC
EXTRN	_malloc:PROC
EXTRN	__recalloc:PROC
EXTRN	??_U@YAPAXIABUnothrow_t@std@@@Z:PROC		; operator new[]
EXTRN	__resetstkoflw:PROC
EXTRN	__imp__DecodePointer@4:PROC
EXTRN	__imp__RaiseException@16:PROC
EXTRN	__imp__GetLastError@0:PROC
EXTRN	__imp__EnterCriticalSection@4:PROC
EXTRN	__imp__LeaveCriticalSection@4:PROC
EXTRN	__imp__InitializeCriticalSectionEx@12:PROC
EXTRN	__imp__DeleteCriticalSection@4:PROC
EXTRN	__imp__FreeLibrary@4:PROC
EXTRN	__imp__GetModuleFileNameW@12:PROC
EXTRN	__imp__GetModuleHandleA@4:PROC
EXTRN	__imp__GetProcAddress@8:PROC
EXTRN	__imp__LoadLibraryExA@12:PROC
EXTRN	__imp__LoadResource@8:PROC
EXTRN	__imp__SizeofResource@8:PROC
EXTRN	__imp__LocalAlloc@8:PROC
EXTRN	__imp__LocalFree@4:PROC
EXTRN	__imp__FormatMessageA@28:PROC
EXTRN	__imp__lstrcmpiA@8:PROC
EXTRN	__imp__FindResourceA@12:PROC
EXTRN	__imp__wsprintfW:PROC
EXTRN	__imp__UnregisterClassA@8:PROC
EXTRN	__imp__CharNextA@4:PROC
EXTRN	__imp__MessageBoxA@16:PROC
EXTRN	__imp__MultiByteToWideChar@24:PROC
EXTRN	__imp__WideCharToMultiByte@32:PROC
EXTRN	__imp__IsDBCSLeadByte@4:PROC
EXTRN	__imp__RegCloseKey@4:PROC
EXTRN	__imp__RegCreateKeyExA@36:PROC
EXTRN	__imp__RegDeleteKeyA@8:PROC
EXTRN	__imp__RegDeleteValueA@8:PROC
EXTRN	__imp__RegEnumKeyExA@32:PROC
EXTRN	__imp__RegOpenKeyExA@20:PROC
EXTRN	__imp__RegQueryInfoKeyW@48:PROC
EXTRN	__imp__RegSetValueExA@24:PROC
EXTRN	__imp__CoTaskMemAlloc@4:PROC
EXTRN	__imp__CoTaskMemRealloc@8:PROC
EXTRN	__imp__CoTaskMemFree@4:PROC
EXTRN	__imp__VarUI4FromStr@16:PROC
EXTRN	__imp__LoadTypeLib@8:PROC
EXTRN	__imp__RegisterTypeLib@12:PROC
EXTRN	__imp__UnRegisterTypeLib@20:PROC
EXTRN	__mbsnbcpy_s:PROC
EXTRN	__mbsstr:PROC
EXTRN	___stdio_common_vsprintf_s:PROC
EXTRN	??_ECRegObject@ATL@@UAEPAXI@Z:PROC		; ATL::CRegObject::`vector deleting destructor'
EXTRN	??_E_com_error@@UAEPAXI@Z:PROC			; _com_error::`vector deleting destructor'
EXTRN	@__security_check_cookie@4:PROC
EXTRN	__CxxThrowException@8:PROC
EXTRN	___CxxFrameHandler3:PROC
EXTRN	__alloca_probe_16:PROC
EXTRN	__chkstk:PROC
EXTRN	__except_handler4:PROC
EXTRN	_memcpy:PROC
EXTRN	_memset:PROC
EXTRN	__Init_thread_epoch:DWORD
EXTRN	?nothrow@std@@3Unothrow_t@1@B:BYTE		; std::nothrow
EXTRN	??_7type_info@@6B@:QWORD			; type_info::`vftable'
EXTRN	_MainDlg:DWORD
EXTRN	___security_cookie:DWORD
EXTRN	__tls_array:DWORD
EXTRN	__tls_index:DWORD
;	COMDAT ?_OptionsStorage@?1??__local_stdio_printf_options@@9@4_KA
_BSS	SEGMENT
?_OptionsStorage@?1??__local_stdio_printf_options@@9@4_KA DQ 01H DUP (?) ; `__local_stdio_printf_options'::`2'::_OptionsStorage
_BSS	ENDS
;	COMDAT ?atlTraceGeneral@ATL@@3V?$CTraceCategoryEx@$00$0A@@1@A
_BSS	SEGMENT
?atlTraceGeneral@ATL@@3V?$CTraceCategoryEx@$00$0A@@1@A DD 01H DUP (?) ; ATL::atlTraceGeneral
_BSS	ENDS
;	COMDAT ?atlTraceCOM@ATL@@3V?$CTraceCategoryEx@$01$0A@@1@A
_BSS	SEGMENT
?atlTraceCOM@ATL@@3V?$CTraceCategoryEx@$01$0A@@1@A DD 01H DUP (?) ; ATL::atlTraceCOM
_BSS	ENDS
;	COMDAT ?atlTraceQI@ATL@@3V?$CTraceCategoryEx@$03$0A@@1@A
_BSS	SEGMENT
?atlTraceQI@ATL@@3V?$CTraceCategoryEx@$03$0A@@1@A DD 01H DUP (?) ; ATL::atlTraceQI
_BSS	ENDS
;	COMDAT ?atlTraceRegistrar@ATL@@3V?$CTraceCategoryEx@$07$0A@@1@A
_BSS	SEGMENT
?atlTraceRegistrar@ATL@@3V?$CTraceCategoryEx@$07$0A@@1@A DD 01H DUP (?) ; ATL::atlTraceRegistrar
_BSS	ENDS
;	COMDAT ?atlTraceRefcount@ATL@@3V?$CTraceCategoryEx@$0BA@$0A@@1@A
_BSS	SEGMENT
?atlTraceRefcount@ATL@@3V?$CTraceCategoryEx@$0BA@$0A@@1@A DD 01H DUP (?) ; ATL::atlTraceRefcount
_BSS	ENDS
;	COMDAT ?atlTraceWindowing@ATL@@3V?$CTraceCategoryEx@$0CA@$0A@@1@A
_BSS	SEGMENT
?atlTraceWindowing@ATL@@3V?$CTraceCategoryEx@$0CA@$0A@@1@A DD 01H DUP (?) ; ATL::atlTraceWindowing
_BSS	ENDS
;	COMDAT ?atlTraceControls@ATL@@3V?$CTraceCategoryEx@$0EA@$0A@@1@A
_BSS	SEGMENT
?atlTraceControls@ATL@@3V?$CTraceCategoryEx@$0EA@$0A@@1@A DD 01H DUP (?) ; ATL::atlTraceControls
_BSS	ENDS
;	COMDAT ?atlTraceHosting@ATL@@3V?$CTraceCategoryEx@$0IA@$0A@@1@A
_BSS	SEGMENT
?atlTraceHosting@ATL@@3V?$CTraceCategoryEx@$0IA@$0A@@1@A DD 01H DUP (?) ; ATL::atlTraceHosting
_BSS	ENDS
;	COMDAT ?atlTraceDBClient@ATL@@3V?$CTraceCategoryEx@$0BAA@$0A@@1@A
_BSS	SEGMENT
?atlTraceDBClient@ATL@@3V?$CTraceCategoryEx@$0BAA@$0A@@1@A DD 01H DUP (?) ; ATL::atlTraceDBClient
_BSS	ENDS
;	COMDAT ?atlTraceDBProvider@ATL@@3V?$CTraceCategoryEx@$0CAA@$0A@@1@A
_BSS	SEGMENT
?atlTraceDBProvider@ATL@@3V?$CTraceCategoryEx@$0CAA@$0A@@1@A DD 01H DUP (?) ; ATL::atlTraceDBProvider
_BSS	ENDS
;	COMDAT ?atlTraceSnapin@ATL@@3V?$CTraceCategoryEx@$0EAA@$0A@@1@A
_BSS	SEGMENT
?atlTraceSnapin@ATL@@3V?$CTraceCategoryEx@$0EAA@$0A@@1@A DD 01H DUP (?) ; ATL::atlTraceSnapin
_BSS	ENDS
;	COMDAT ?atlTraceNotImpl@ATL@@3V?$CTraceCategoryEx@$0IAA@$0A@@1@A
_BSS	SEGMENT
?atlTraceNotImpl@ATL@@3V?$CTraceCategoryEx@$0IAA@$0A@@1@A DD 01H DUP (?) ; ATL::atlTraceNotImpl
_BSS	ENDS
;	COMDAT ?atlTraceAllocation@ATL@@3V?$CTraceCategoryEx@$0BAAA@$0A@@1@A
_BSS	SEGMENT
?atlTraceAllocation@ATL@@3V?$CTraceCategoryEx@$0BAAA@$0A@@1@A DD 01H DUP (?) ; ATL::atlTraceAllocation
_BSS	ENDS
;	COMDAT ?atlTraceException@ATL@@3V?$CTraceCategoryEx@$0CAAA@$0A@@1@A
_BSS	SEGMENT
?atlTraceException@ATL@@3V?$CTraceCategoryEx@$0CAAA@$0A@@1@A DD 01H DUP (?) ; ATL::atlTraceException
_BSS	ENDS
;	COMDAT ?atlTraceTime@ATL@@3V?$CTraceCategoryEx@$0EAAA@$0A@@1@A
_BSS	SEGMENT
?atlTraceTime@ATL@@3V?$CTraceCategoryEx@$0EAAA@$0A@@1@A DD 01H DUP (?) ; ATL::atlTraceTime
_BSS	ENDS
;	COMDAT ?atlTraceCache@ATL@@3V?$CTraceCategoryEx@$0IAAA@$0A@@1@A
_BSS	SEGMENT
?atlTraceCache@ATL@@3V?$CTraceCategoryEx@$0IAAA@$0A@@1@A DD 01H DUP (?) ; ATL::atlTraceCache
_BSS	ENDS
;	COMDAT ?atlTraceStencil@ATL@@3V?$CTraceCategoryEx@$0BAAAA@$0A@@1@A
_BSS	SEGMENT
?atlTraceStencil@ATL@@3V?$CTraceCategoryEx@$0BAAAA@$0A@@1@A DD 01H DUP (?) ; ATL::atlTraceStencil
_BSS	ENDS
;	COMDAT ?atlTraceString@ATL@@3V?$CTraceCategoryEx@$0CAAAA@$0A@@1@A
_BSS	SEGMENT
?atlTraceString@ATL@@3V?$CTraceCategoryEx@$0CAAAA@$0A@@1@A DD 01H DUP (?) ; ATL::atlTraceString
_BSS	ENDS
;	COMDAT ?atlTraceMap@ATL@@3V?$CTraceCategoryEx@$0EAAAA@$0A@@1@A
_BSS	SEGMENT
?atlTraceMap@ATL@@3V?$CTraceCategoryEx@$0EAAAA@$0A@@1@A DD 01H DUP (?) ; ATL::atlTraceMap
_BSS	ENDS
;	COMDAT ?atlTraceUtil@ATL@@3V?$CTraceCategoryEx@$0IAAAA@$0A@@1@A
_BSS	SEGMENT
?atlTraceUtil@ATL@@3V?$CTraceCategoryEx@$0IAAAA@$0A@@1@A DD 01H DUP (?) ; ATL::atlTraceUtil
_BSS	ENDS
;	COMDAT ?atlTraceSecurity@ATL@@3V?$CTraceCategoryEx@$0BAAAAA@$0A@@1@A
_BSS	SEGMENT
?atlTraceSecurity@ATL@@3V?$CTraceCategoryEx@$0BAAAAA@$0A@@1@A DD 01H DUP (?) ; ATL::atlTraceSecurity
_BSS	ENDS
;	COMDAT ?atlTraceSync@ATL@@3V?$CTraceCategoryEx@$0CAAAAA@$0A@@1@A
_BSS	SEGMENT
?atlTraceSync@ATL@@3V?$CTraceCategoryEx@$0CAAAAA@$0A@@1@A DD 01H DUP (?) ; ATL::atlTraceSync
_BSS	ENDS
;	COMDAT ?atlTraceISAPI@ATL@@3V?$CTraceCategoryEx@$0EAAAAA@$0A@@1@A
_BSS	SEGMENT
?atlTraceISAPI@ATL@@3V?$CTraceCategoryEx@$0EAAAAA@$0A@@1@A DD 01H DUP (?) ; ATL::atlTraceISAPI
_BSS	ENDS
;	COMDAT ?_AtlWinModule@ATL@@3VCAtlWinModule@1@A
_BSS	SEGMENT
?_AtlWinModule@ATL@@3VCAtlWinModule@1@A DB 02cH DUP (?)	; ATL::_AtlWinModule
_BSS	ENDS
;	COMDAT ?pfnRegDeleteKeyEx@?1??DeleteSubKey@CRegKey@ATL@@QAEJPBD@Z@4P6GJPAUHKEY__@@0KK@ZA
_BSS	SEGMENT
?pfnRegDeleteKeyEx@?1??DeleteSubKey@CRegKey@ATL@@QAEJPBD@Z@4P6GJPAUHKEY__@@0KK@ZA DD 01H DUP (?) ; `ATL::CRegKey::DeleteSubKey'::`2'::pfnRegDeleteKeyEx
_BSS	ENDS
;	COMDAT ?bInitialized@?1??DeleteSubKey@CRegKey@ATL@@QAEJPBD@Z@4_NA
_BSS	SEGMENT
?bInitialized@?1??DeleteSubKey@CRegKey@ATL@@QAEJPBD@Z@4_NA DB 01H DUP (?) ; `ATL::CRegKey::DeleteSubKey'::`2'::bInitialized
_BSS	ENDS
;	COMDAT ?map@?1??VTFromRegType@CRegParser@ATL@@KAHPBDAAG@Z@4QBUtypemap@?1??123@KAH01@Z@B
_BSS	SEGMENT
?map@?1??VTFromRegType@CRegParser@ATL@@KAHPBDAAG@Z@4QBUtypemap@?1??123@KAH01@Z@B DQ 04H DUP (?) ; `ATL::CRegParser::VTFromRegType'::`2'::map
_BSS	ENDS
;	COMDAT ?$TSS0@?1??VTFromRegType@CRegParser@ATL@@KAHPBDAAG@Z@4HA
_BSS	SEGMENT
?$TSS0@?1??VTFromRegType@CRegParser@ATL@@KAHPBDAAG@Z@4HA DD 01H DUP (?) ; TSS0<`template-parameter-2',ATL::CRegParser::TFromRegType,unsigned long,int,char const *,unsigned short &>
_BSS	ENDS
;	COMDAT CRT$XCU
CRT$XCU	SEGMENT
?_AtlComModule$initializer$@ATL@@3P6AXXZA DD FLAT:??__E_AtlComModule@ATL@@YAXXZ ; ATL::_AtlComModule$initializer$
CRT$XCU	ENDS
;	COMDAT ??_R1A@?0A@EA@_com_error@@8
rdata$r	SEGMENT
??_R1A@?0A@EA@_com_error@@8 DD FLAT:??_R0?AV_com_error@@@8 ; _com_error::`RTTI Base Class Descriptor at (0,-1,0,64)'
	DD	00H
	DD	00H
	DD	0ffffffffH
	DD	00H
	DD	040H
	DD	FLAT:??_R3_com_error@@8
rdata$r	ENDS
;	COMDAT ??_R2_com_error@@8
rdata$r	SEGMENT
??_R2_com_error@@8 DD FLAT:??_R1A@?0A@EA@_com_error@@8	; _com_error::`RTTI Base Class Array'
rdata$r	ENDS
;	COMDAT ??_R3_com_error@@8
rdata$r	SEGMENT
??_R3_com_error@@8 DD 00H				; _com_error::`RTTI Class Hierarchy Descriptor'
	DD	00H
	DD	01H
	DD	FLAT:??_R2_com_error@@8
rdata$r	ENDS
;	COMDAT ??_R0?AV_com_error@@@8
data$r	SEGMENT
??_R0?AV_com_error@@@8 DD FLAT:??_7type_info@@6B@	; _com_error `RTTI Type Descriptor'
	DD	00H
	DB	'.?AV_com_error@@', 00H
data$r	ENDS
;	COMDAT ??_R4_com_error@@6B@
rdata$r	SEGMENT
??_R4_com_error@@6B@ DD 00H				; _com_error::`RTTI Complete Object Locator'
	DD	00H
	DD	00H
	DD	FLAT:??_R0?AV_com_error@@@8
	DD	FLAT:??_R3_com_error@@8
rdata$r	ENDS
;	COMDAT ??_R1A@?0A@EA@CRegObject@ATL@@8
rdata$r	SEGMENT
??_R1A@?0A@EA@CRegObject@ATL@@8 DD FLAT:??_R0?AVCRegObject@ATL@@@8 ; ATL::CRegObject::`RTTI Base Class Descriptor at (0,-1,0,64)'
	DD	02H
	DD	00H
	DD	0ffffffffH
	DD	00H
	DD	040H
	DD	FLAT:??_R3CRegObject@ATL@@8
rdata$r	ENDS
;	COMDAT ??_R2CRegObject@ATL@@8
rdata$r	SEGMENT
??_R2CRegObject@ATL@@8 DD FLAT:??_R1A@?0A@EA@CRegObject@ATL@@8 ; ATL::CRegObject::`RTTI Base Class Array'
	DD	FLAT:??_R1A@?0A@EA@IRegistrarBase@@8
	DD	FLAT:??_R1A@?0A@EA@IUnknown@@8
rdata$r	ENDS
;	COMDAT ??_R3CRegObject@ATL@@8
rdata$r	SEGMENT
??_R3CRegObject@ATL@@8 DD 00H				; ATL::CRegObject::`RTTI Class Hierarchy Descriptor'
	DD	00H
	DD	03H
	DD	FLAT:??_R2CRegObject@ATL@@8
rdata$r	ENDS
;	COMDAT ??_R0?AVCRegObject@ATL@@@8
data$r	SEGMENT
??_R0?AVCRegObject@ATL@@@8 DD FLAT:??_7type_info@@6B@	; ATL::CRegObject `RTTI Type Descriptor'
	DD	00H
	DB	'.?AVCRegObject@ATL@@', 00H
data$r	ENDS
;	COMDAT ??_R4CRegObject@ATL@@6B@
rdata$r	SEGMENT
??_R4CRegObject@ATL@@6B@ DD 00H				; ATL::CRegObject::`RTTI Complete Object Locator'
	DD	00H
	DD	00H
	DD	FLAT:??_R0?AVCRegObject@ATL@@@8
	DD	FLAT:??_R3CRegObject@ATL@@8
rdata$r	ENDS
;	COMDAT ??_R1A@?0A@EA@IRegistrarBase@@8
rdata$r	SEGMENT
??_R1A@?0A@EA@IRegistrarBase@@8 DD FLAT:??_R0?AUIRegistrarBase@@@8 ; IRegistrarBase::`RTTI Base Class Descriptor at (0,-1,0,64)'
	DD	01H
	DD	00H
	DD	0ffffffffH
	DD	00H
	DD	040H
	DD	FLAT:??_R3IRegistrarBase@@8
rdata$r	ENDS
;	COMDAT ??_R2IRegistrarBase@@8
rdata$r	SEGMENT
??_R2IRegistrarBase@@8 DD FLAT:??_R1A@?0A@EA@IRegistrarBase@@8 ; IRegistrarBase::`RTTI Base Class Array'
	DD	FLAT:??_R1A@?0A@EA@IUnknown@@8
rdata$r	ENDS
;	COMDAT ??_R3IRegistrarBase@@8
rdata$r	SEGMENT
??_R3IRegistrarBase@@8 DD 00H				; IRegistrarBase::`RTTI Class Hierarchy Descriptor'
	DD	00H
	DD	02H
	DD	FLAT:??_R2IRegistrarBase@@8
rdata$r	ENDS
;	COMDAT ??_R0?AUIRegistrarBase@@@8
data$r	SEGMENT
??_R0?AUIRegistrarBase@@@8 DD FLAT:??_7type_info@@6B@	; IRegistrarBase `RTTI Type Descriptor'
	DD	00H
	DB	'.?AUIRegistrarBase@@', 00H
data$r	ENDS
;	COMDAT ??_R1A@?0A@EA@IUnknown@@8
rdata$r	SEGMENT
??_R1A@?0A@EA@IUnknown@@8 DD FLAT:??_R0?AUIUnknown@@@8	; IUnknown::`RTTI Base Class Descriptor at (0,-1,0,64)'
	DD	00H
	DD	00H
	DD	0ffffffffH
	DD	00H
	DD	040H
	DD	FLAT:??_R3IUnknown@@8
rdata$r	ENDS
;	COMDAT ??_R2IUnknown@@8
rdata$r	SEGMENT
??_R2IUnknown@@8 DD FLAT:??_R1A@?0A@EA@IUnknown@@8	; IUnknown::`RTTI Base Class Array'
rdata$r	ENDS
;	COMDAT ??_R3IUnknown@@8
rdata$r	SEGMENT
??_R3IUnknown@@8 DD 00H					; IUnknown::`RTTI Class Hierarchy Descriptor'
	DD	00H
	DD	01H
	DD	FLAT:??_R2IUnknown@@8
rdata$r	ENDS
;	COMDAT ??_R0?AUIUnknown@@@8
data$r	SEGMENT
??_R0?AUIUnknown@@@8 DD FLAT:??_7type_info@@6B@		; IUnknown `RTTI Type Descriptor'
	DD	00H
	DB	'.?AUIUnknown@@', 00H
data$r	ENDS
;	COMDAT ??_C@_09NKHKFHLH@GostCrypt?$AA@
CONST	SEGMENT
??_C@_09NKHKFHLH@GostCrypt?$AA@ DB 'GostCrypt', 00H	; `string'
CONST	ENDS
;	COMDAT ??_C@_1BM@IFKNBDBK@?$AAF?$AAO?$AAR?$AAM?$AAA?$AAT?$AA_?$AAM?$AAO?$AAD?$AAU?$AAL?$AAE?$AA?$AA@
CONST	SEGMENT
??_C@_1BM@IFKNBDBK@?$AAF?$AAO?$AAR?$AAM?$AAA?$AAT?$AA_?$AAM?$AAO?$AAD?$AAU?$AAL?$AAE?$AA?$AA@ DB 'F'
	DB	00H, 'O', 00H, 'R', 00H, 'M', 00H, 'A', 00H, 'T', 00H, '_', 00H
	DB	'M', 00H, 'O', 00H, 'D', 00H, 'U', 00H, 'L', 00H, 'E', 00H, 00H
	DB	00H						; `string'
CONST	ENDS
;	COMDAT ??_C@_1BI@FPIOFILF@?$AAM?$AAA?$AAI?$AAN?$AA_?$AAM?$AAO?$AAD?$AAU?$AAL?$AAE?$AA?$AA@
CONST	SEGMENT
??_C@_1BI@FPIOFILF@?$AAM?$AAA?$AAI?$AAN?$AA_?$AAM?$AAO?$AAD?$AAU?$AAL?$AAE?$AA?$AA@ DB 'M'
	DB	00H, 'A', 00H, 'I', 00H, 'N', 00H, '_', 00H, 'M', 00H, 'O', 00H
	DB	'D', 00H, 'U', 00H, 'L', 00H, 'E', 00H, 00H, 00H ; `string'
CONST	ENDS
;	COMDAT ??_C@_1DA@NKIHIBKI@?$AA?$CF?$AAh?$AAs?$AAG?$AAo?$AAs?$AAt?$AAC?$AAr?$AAy?$AAp?$AAt?$AA?5?$AAF?$AAo?$AAr?$AAm?$AAa?$AAt?$AA?4?$AAe?$AAx?$AAe?$AA?$AA@
CONST	SEGMENT
??_C@_1DA@NKIHIBKI@?$AA?$CF?$AAh?$AAs?$AAG?$AAo?$AAs?$AAt?$AAC?$AAr?$AAy?$AAp?$AAt?$AA?5?$AAF?$AAo?$AAr?$AAm?$AAa?$AAt?$AA?4?$AAe?$AAx?$AAe?$AA?$AA@ DB '%'
	DB	00H, 'h', 00H, 's', 00H, 'G', 00H, 'o', 00H, 's', 00H, 't', 00H
	DB	'C', 00H, 'r', 00H, 'y', 00H, 'p', 00H, 't', 00H, ' ', 00H, 'F'
	DB	00H, 'o', 00H, 'r', 00H, 'm', 00H, 'a', 00H, 't', 00H, '.', 00H
	DB	'e', 00H, 'x', 00H, 'e', 00H, 00H, 00H	; `string'
CONST	ENDS
;	COMDAT ??_C@_1CC@HOFAEMLD@?$AA?$CF?$AAh?$AAs?$AAG?$AAo?$AAs?$AAt?$AAC?$AAr?$AAy?$AAp?$AAt?$AA?4?$AAe?$AAx?$AAe?$AA?$AA@
CONST	SEGMENT
??_C@_1CC@HOFAEMLD@?$AA?$CF?$AAh?$AAs?$AAG?$AAo?$AAs?$AAt?$AAC?$AAr?$AAy?$AAp?$AAt?$AA?4?$AAe?$AAx?$AAe?$AA?$AA@ DB '%'
	DB	00H, 'h', 00H, 's', 00H, 'G', 00H, 'o', 00H, 's', 00H, 't', 00H
	DB	'C', 00H, 'r', 00H, 'y', 00H, 'p', 00H, 't', 00H, '.', 00H, 'e'
	DB	00H, 'x', 00H, 'e', 00H, 00H, 00H		; `string'
CONST	ENDS
;	COMDAT ??_C@_0BF@IPPGFENJ@Unknown?5error?50x?$CF0lX?$AA@
CONST	SEGMENT
??_C@_0BF@IPPGFENJ@Unknown?5error?50x?$CF0lX?$AA@ DB 'Unknown error 0x%0l'
	DB	'X', 00H					; `string'
CONST	ENDS
;	COMDAT ??_C@_0BE@NNIJINN@IDispatch?5error?5?$CD?$CFd?$AA@
CONST	SEGMENT
??_C@_0BE@NNIJINN@IDispatch?5error?5?$CD?$CFd?$AA@ DB 'IDispatch error #%'
	DB	'd', 00H					; `string'
CONST	ENDS
;	COMDAT ??_7_com_error@@6B@
CONST	SEGMENT
??_7_com_error@@6B@ DD FLAT:??_R4_com_error@@6B@	; _com_error::`vftable'
	DD	FLAT:??_E_com_error@@UAEPAXI@Z
CONST	ENDS
;	COMDAT ??_C@_1BC@KAILKFFG@?$AAR?$AAE?$AAG?$AAI?$AAS?$AAT?$AAR?$AAY?$AA?$AA@
CONST	SEGMENT
??_C@_1BC@KAILKFFG@?$AAR?$AAE?$AAG?$AAI?$AAS?$AAT?$AAR?$AAY?$AA?$AA@ DB 'R'
	DB	00H, 'E', 00H, 'G', 00H, 'I', 00H, 'S', 00H, 'T', 00H, 'R', 00H
	DB	'Y', 00H, 00H, 00H				; `string'
CONST	ENDS
;	COMDAT ??_C@_1BE@LJOLIMEM@?$AA?$AN?$AA?6?$AA?7?$AA?$HN?$AA?$AN?$AA?6?$AA?$HN?$AA?$AN?$AA?6?$AA?$AA@
CONST	SEGMENT
??_C@_1BE@LJOLIMEM@?$AA?$AN?$AA?6?$AA?7?$AA?$HN?$AA?$AN?$AA?6?$AA?$HN?$AA?$AN?$AA?6?$AA?$AA@ DB 0dH
	DB	00H, 0aH, 00H, 09H, 00H, '}', 00H, 0dH, 00H, 0aH, 00H, '}', 00H
	DB	0dH, 00H, 0aH, 00H, 00H, 00H			; `string'
CONST	ENDS
;	COMDAT ??_C@_1EA@NHKLICFA@?$AAH?$AAK?$AAC?$AAU?$AA?$AN?$AA?6?$AA?$HL?$AA?7?$AAS?$AAo?$AAf?$AAt?$AAw?$AAa?$AAr?$AAe?$AA?$AN?$AA?6?$AA?7?$AA?$HL?$AA?$AN?$AA?6?$AA?7?$AA?7?$AAC?$AAl?$AAa?$AAs?$AAs?$AAe?$AAs?$AA?$AA@
CONST	SEGMENT
??_C@_1EA@NHKLICFA@?$AAH?$AAK?$AAC?$AAU?$AA?$AN?$AA?6?$AA?$HL?$AA?7?$AAS?$AAo?$AAf?$AAt?$AAw?$AAa?$AAr?$AAe?$AA?$AN?$AA?6?$AA?7?$AA?$HL?$AA?$AN?$AA?6?$AA?7?$AA?7?$AAC?$AAl?$AAa?$AAs?$AAs?$AAe?$AAs?$AA?$AA@ DB 'H'
	DB	00H, 'K', 00H, 'C', 00H, 'U', 00H, 0dH, 00H, 0aH, 00H, '{', 00H
	DB	09H, 00H, 'S', 00H, 'o', 00H, 'f', 00H, 't', 00H, 'w', 00H, 'a'
	DB	00H, 'r', 00H, 'e', 00H, 0dH, 00H, 0aH, 00H, 09H, 00H, '{', 00H
	DB	0dH, 00H, 0aH, 00H, 09H, 00H, 09H, 00H, 'C', 00H, 'l', 00H, 'a'
	DB	00H, 's', 00H, 's', 00H, 'e', 00H, 's', 00H, 00H, 00H ; `string'
CONST	ENDS
;	COMDAT ??_C@_0BE@NLNNHLLF@HKEY_CURRENT_CONFIG?$AA@
CONST	SEGMENT
??_C@_0BE@NLNNHLLF@HKEY_CURRENT_CONFIG?$AA@ DB 'HKEY_CURRENT_CONFIG', 00H ; `string'
CONST	ENDS
;	COMDAT ??_C@_0O@MJDLIIGK@HKEY_DYN_DATA?$AA@
CONST	SEGMENT
??_C@_0O@MJDLIIGK@HKEY_DYN_DATA?$AA@ DB 'HKEY_DYN_DATA', 00H ; `string'
CONST	ENDS
;	COMDAT ??_C@_0BG@IDBEHNDO@HKEY_PERFORMANCE_DATA?$AA@
CONST	SEGMENT
??_C@_0BG@IDBEHNDO@HKEY_PERFORMANCE_DATA?$AA@ DB 'HKEY_PERFORMANCE_DATA', 00H ; `string'
CONST	ENDS
;	COMDAT ??_C@_0L@OEMMANAM@HKEY_USERS?$AA@
CONST	SEGMENT
??_C@_0L@OEMMANAM@HKEY_USERS?$AA@ DB 'HKEY_USERS', 00H	; `string'
CONST	ENDS
;	COMDAT ??_C@_0BD@GIIFIKDM@HKEY_LOCAL_MACHINE?$AA@
CONST	SEGMENT
??_C@_0BD@GIIFIKDM@HKEY_LOCAL_MACHINE?$AA@ DB 'HKEY_LOCAL_MACHINE', 00H ; `string'
CONST	ENDS
;	COMDAT ??_C@_0BC@GMMMKLBI@HKEY_CURRENT_USER?$AA@
CONST	SEGMENT
??_C@_0BC@GMMMKLBI@HKEY_CURRENT_USER?$AA@ DB 'HKEY_CURRENT_USER', 00H ; `string'
CONST	ENDS
;	COMDAT ??_C@_0BC@JBJOLKMF@HKEY_CLASSES_ROOT?$AA@
CONST	SEGMENT
??_C@_0BC@JBJOLKMF@HKEY_CLASSES_ROOT?$AA@ DB 'HKEY_CLASSES_ROOT', 00H ; `string'
CONST	ENDS
;	COMDAT ??_C@_04LEMDOLAJ@HKCC?$AA@
CONST	SEGMENT
??_C@_04LEMDOLAJ@HKCC?$AA@ DB 'HKCC', 00H		; `string'
CONST	ENDS
;	COMDAT ??_C@_04POMNGLEL@HKDD?$AA@
CONST	SEGMENT
??_C@_04POMNGLEL@HKDD?$AA@ DB 'HKDD', 00H		; `string'
CONST	ENDS
;	COMDAT ??_C@_04OFOCGAOH@HKPD?$AA@
CONST	SEGMENT
??_C@_04OFOCGAOH@HKPD?$AA@ DB 'HKPD', 00H		; `string'
CONST	ENDS
;	COMDAT ??_C@_03DLBIJLAB@HKU?$AA@
CONST	SEGMENT
??_C@_03DLBIJLAB@HKU?$AA@ DB 'HKU', 00H			; `string'
CONST	ENDS
;	COMDAT ??_C@_04CBBMIBLK@HKLM?$AA@
CONST	SEGMENT
??_C@_04CBBMIBLK@HKLM?$AA@ DB 'HKLM', 00H		; `string'
CONST	ENDS
;	COMDAT ??_C@_04KIFLFONO@HKCU?$AA@
CONST	SEGMENT
??_C@_04KIFLFONO@HKCU?$AA@ DB 'HKCU', 00H		; `string'
CONST	ENDS
;	COMDAT ??_C@_04OHBKMIBJ@HKCR?$AA@
CONST	SEGMENT
??_C@_04OHBKMIBJ@HKCR?$AA@ DB 'HKCR', 00H		; `string'
CONST	ENDS
;	COMDAT ?map@?1??HKeyFromString@CRegParser@ATL@@KAPAUHKEY__@@PAD@Z@4QBUkeymap@?1??123@KAPAU4@0@Z@B
CONST	SEGMENT
?map@?1??HKeyFromString@CRegParser@ATL@@KAPAUHKEY__@@PAD@Z@4QBUkeymap@?1??123@KAPAU4@0@Z@B DD FLAT:??_C@_04OHBKMIBJ@HKCR?$AA@ ; `ATL::CRegParser::HKeyFromString'::`2'::map
	DD	080000000H
	DD	FLAT:??_C@_04KIFLFONO@HKCU?$AA@
	DD	080000001H
	DD	FLAT:??_C@_04CBBMIBLK@HKLM?$AA@
	DD	080000002H
	DD	FLAT:??_C@_03DLBIJLAB@HKU?$AA@
	DD	080000003H
	DD	FLAT:??_C@_04OFOCGAOH@HKPD?$AA@
	DD	080000004H
	DD	FLAT:??_C@_04POMNGLEL@HKDD?$AA@
	DD	080000006H
	DD	FLAT:??_C@_04LEMDOLAJ@HKCC?$AA@
	DD	080000005H
	DD	FLAT:??_C@_0BC@JBJOLKMF@HKEY_CLASSES_ROOT?$AA@
	DD	080000000H
	DD	FLAT:??_C@_0BC@GMMMKLBI@HKEY_CURRENT_USER?$AA@
	DD	080000001H
	DD	FLAT:??_C@_0BD@GIIFIKDM@HKEY_LOCAL_MACHINE?$AA@
	DD	080000002H
	DD	FLAT:??_C@_0L@OEMMANAM@HKEY_USERS?$AA@
	DD	080000003H
	DD	FLAT:??_C@_0BG@IDBEHNDO@HKEY_PERFORMANCE_DATA?$AA@
	DD	080000004H
	DD	FLAT:??_C@_0O@MJDLIIGK@HKEY_DYN_DATA?$AA@
	DD	080000006H
	DD	FLAT:??_C@_0BE@NLNNHLLF@HKEY_CURRENT_CONFIG?$AA@
	DD	080000005H
CONST	ENDS
;	COMDAT ??_C@_07KJLOKDKB@TypeLib?$AA@
CONST	SEGMENT
??_C@_07KJLOKDKB@TypeLib?$AA@ DB 'TypeLib', 00H		; `string'
CONST	ENDS
;	COMDAT ??_C@_08KEKAJNJI@Software?$AA@
CONST	SEGMENT
??_C@_08KEKAJNJI@Software?$AA@ DB 'Software', 00H	; `string'
CONST	ENDS
;	COMDAT ??_C@_06FDHFNJBJ@SYSTEM?$AA@
CONST	SEGMENT
??_C@_06FDHFNJBJ@SYSTEM?$AA@ DB 'SYSTEM', 00H		; `string'
CONST	ENDS
;	COMDAT ??_C@_08LOPHEHKG@SECURITY?$AA@
CONST	SEGMENT
??_C@_08LOPHEHKG@SECURITY?$AA@ DB 'SECURITY', 00H	; `string'
CONST	ENDS
;	COMDAT ??_C@_03DDIMFGBA@SAM?$AA@
CONST	SEGMENT
??_C@_03DDIMFGBA@SAM?$AA@ DB 'SAM', 00H			; `string'
CONST	ENDS
;	COMDAT ??_C@_04IHBFOLAC@Mime?$AA@
CONST	SEGMENT
??_C@_04IHBFOLAC@Mime?$AA@ DB 'Mime', 00H		; `string'
CONST	ENDS
;	COMDAT ??_C@_08PPIOJEA@Hardware?$AA@
CONST	SEGMENT
??_C@_08PPIOJEA@Hardware?$AA@ DB 'Hardware', 00H	; `string'
CONST	ENDS
;	COMDAT ??_C@_09JKPGEJCH@Interface?$AA@
CONST	SEGMENT
??_C@_09JKPGEJCH@Interface?$AA@ DB 'Interface', 00H	; `string'
CONST	ENDS
;	COMDAT ??_C@_08PICKODJL@FileType?$AA@
CONST	SEGMENT
??_C@_08PICKODJL@FileType?$AA@ DB 'FileType', 00H	; `string'
CONST	ENDS
;	COMDAT ??_C@_0BF@HDDNNDFH@Component?5Categories?$AA@
CONST	SEGMENT
??_C@_0BF@HDDNNDFH@Component?5Categories?$AA@ DB 'Component Categories', 00H ; `string'
CONST	ENDS
;	COMDAT ??_7CRegObject@ATL@@6B@
CONST	SEGMENT
??_7CRegObject@ATL@@6B@ DD FLAT:??_R4CRegObject@ATL@@6B@ ; ATL::CRegObject::`vftable'
	DD	FLAT:?QueryInterface@CRegObject@ATL@@UAGJABU_GUID@@PAPAX@Z
	DD	FLAT:?AddRef@CRegObject@ATL@@UAGKXZ
	DD	FLAT:?Release@CRegObject@ATL@@UAGKXZ
	DD	FLAT:?AddReplacement@CRegObject@ATL@@UAGJPB_W0@Z
	DD	FLAT:?ClearReplacements@CRegObject@ATL@@UAGJXZ
	DD	FLAT:??_ECRegObject@ATL@@UAEPAXI@Z
CONST	ENDS
;	COMDAT ?rgszNeverDelete@CRegParser@ATL@@1QBQBDB
CONST	SEGMENT
?rgszNeverDelete@CRegParser@ATL@@1QBQBDB DD FLAT:??_C@_05PDIKPLII@AppID?$AA@ ; ATL::CRegParser::rgszNeverDelete
	DD	FLAT:??_C@_05GIBEAPNE@CLSID?$AA@
	DD	FLAT:??_C@_0BF@HDDNNDFH@Component?5Categories?$AA@
	DD	FLAT:??_C@_08PICKODJL@FileType?$AA@
	DD	FLAT:??_C@_09JKPGEJCH@Interface?$AA@
	DD	FLAT:??_C@_08PPIOJEA@Hardware?$AA@
	DD	FLAT:??_C@_04IHBFOLAC@Mime?$AA@
	DD	FLAT:??_C@_03DDIMFGBA@SAM?$AA@
	DD	FLAT:??_C@_08LOPHEHKG@SECURITY?$AA@
	DD	FLAT:??_C@_06FDHFNJBJ@SYSTEM?$AA@
	DD	FLAT:??_C@_08KEKAJNJI@Software?$AA@
	DD	FLAT:??_C@_07KJLOKDKB@TypeLib?$AA@
CONST	ENDS
;	COMDAT ??_C@_05PDIKPLII@AppID?$AA@
CONST	SEGMENT
??_C@_05PDIKPLII@AppID?$AA@ DB 'AppID', 00H		; `string'
CONST	ENDS
;	COMDAT ??_C@_05GIBEAPNE@CLSID?$AA@
CONST	SEGMENT
??_C@_05GIBEAPNE@CLSID?$AA@ DB 'CLSID', 00H		; `string'
CONST	ENDS
;	COMDAT ??_C@_0BA@KECIECLD@RegDeleteKeyExA?$AA@
CONST	SEGMENT
??_C@_0BA@KECIECLD@RegDeleteKeyExA?$AA@ DB 'RegDeleteKeyExA', 00H ; `string'
CONST	ENDS
;	COMDAT ?_AtlComModule@ATL@@3VCAtlComModule@1@A
_DATA	SEGMENT
?_AtlComModule@ATL@@3VCAtlComModule@1@A DB 04H DUP (?)
	DD	FLAT:___ImageBase			; ATL::_AtlComModule
	DD	FLAT:___pobjMapEntryFirst+4
	DD	FLAT:___pobjMapEntryLast
_DATA	ENDS
;	COMDAT ??_C@_0BI@GMDDFLLI@RegDeleteKeyTransactedA?$AA@
CONST	SEGMENT
??_C@_0BI@GMDDFLLI@RegDeleteKeyTransactedA?$AA@ DB 'RegDeleteKeyTransacte'
	DB	'dA', 00H					; `string'
CONST	ENDS
;	COMDAT ??_C@_0BI@NBLNJKIN@RegCreateKeyTransactedA?$AA@
CONST	SEGMENT
??_C@_0BI@NBLNJKIN@RegCreateKeyTransactedA?$AA@ DB 'RegCreateKeyTransacte'
	DB	'dA', 00H					; `string'
CONST	ENDS
;	COMDAT ??_C@_0BG@FGMNHMFJ@RegOpenKeyTransactedA?$AA@
CONST	SEGMENT
??_C@_0BG@FGMNHMFJ@RegOpenKeyTransactedA?$AA@ DB 'RegOpenKeyTransactedA', 00H ; `string'
CONST	ENDS
;	COMDAT ??_C@_0N@DOHINHCI@Advapi32?4dll?$AA@
CONST	SEGMENT
??_C@_0N@DOHINHCI@Advapi32?4dll?$AA@ DB 'Advapi32.dll', 00H ; `string'
CONST	ENDS
;	COMDAT __CT??_R0?AVCAtlException@ATL@@@84
xdata$x	SEGMENT
__CT??_R0?AVCAtlException@ATL@@@84 DD 00H
	DD	FLAT:??_R0?AVCAtlException@ATL@@@8
	DD	00H
	DD	0ffffffffH
	ORG $+4
	DD	04H
	DD	00H
xdata$x	ENDS
;	COMDAT ??_R0?AVCAtlException@ATL@@@8
data$r	SEGMENT
??_R0?AVCAtlException@ATL@@@8 DD FLAT:??_7type_info@@6B@ ; ATL::CAtlException `RTTI Type Descriptor'
	DD	00H
	DB	'.?AVCAtlException@ATL@@', 00H
data$r	ENDS
;	COMDAT __CTA1?AVCAtlException@ATL@@
xdata$x	SEGMENT
__CTA1?AVCAtlException@ATL@@ DD 01H
	DD	FLAT:__CT??_R0?AVCAtlException@ATL@@@84
xdata$x	ENDS
;	COMDAT __TI1?AVCAtlException@ATL@@
xdata$x	SEGMENT
__TI1?AVCAtlException@ATL@@ DD 00H
	DD	00H
	DD	00H
	DD	FLAT:__CTA1?AVCAtlException@ATL@@
xdata$x	ENDS
;	COMDAT xdata$x
xdata$x	SEGMENT
__ehfuncinfo$??1?$CComPtr@UITypeLib@@@ATL@@QAE@XZ DD 019930522H
	DD	00H
	DD	00H
	DD	2 DUP(00H)
	DD	2 DUP(00H)
	DD	00H
	DD	05H
xdata$x	ENDS
;	COMDAT xdata$x
xdata$x	SEGMENT
__catchsym$?RegisterFromResource@CRegObject@ATL@@IAEJPB_WPBD1H@Z$11 DD 040H
	DD	00H
	DD	00H
	DD	FLAT:__catch$?RegisterFromResource@CRegObject@ATL@@IAEJPB_WPBD1H@Z$4
__tryblocktable$?RegisterFromResource@CRegObject@ATL@@IAEJPB_WPBD1H@Z DD 02H
	DD	02H
	DD	03H
	DD	01H
	DD	FLAT:__catchsym$?RegisterFromResource@CRegObject@ATL@@IAEJPB_WPBD1H@Z$11
__unwindtable$?RegisterFromResource@CRegObject@ATL@@IAEJPB_WPBD1H@Z DD 0ffffffffH
	DD	FLAT:__unwindfunclet$?RegisterFromResource@CRegObject@ATL@@IAEJPB_WPBD1H@Z$7
	DD	00H
	DD	FLAT:__unwindfunclet$?RegisterFromResource@CRegObject@ATL@@IAEJPB_WPBD1H@Z$8
	DD	01H
	DD	00H
	DD	01H
	DD	00H
__ehfuncinfo$?RegisterFromResource@CRegObject@ATL@@IAEJPB_WPBD1H@Z DD 019930522H
	DD	04H
	DD	FLAT:__unwindtable$?RegisterFromResource@CRegObject@ATL@@IAEJPB_WPBD1H@Z
	DD	01H
	DD	FLAT:__tryblocktable$?RegisterFromResource@CRegObject@ATL@@IAEJPB_WPBD1H@Z
	DD	2 DUP(00H)
	DD	00H
	DD	01H
xdata$x	ENDS
;	COMDAT xdata$x
xdata$x	SEGMENT
__unwindtable$?ResourceUnregister@CRegObject@ATL@@QAGJPB_WI0@Z DD 0ffffffffH
	DD	FLAT:__unwindfunclet$?ResourceUnregister@CRegObject@ATL@@QAGJPB_WI0@Z$0
__ehfuncinfo$?ResourceUnregister@CRegObject@ATL@@QAGJPB_WI0@Z DD 019930522H
	DD	01H
	DD	FLAT:__unwindtable$?ResourceUnregister@CRegObject@ATL@@QAGJPB_WI0@Z
	DD	2 DUP(00H)
	DD	2 DUP(00H)
	DD	00H
	DD	01H
xdata$x	ENDS
;	COMDAT xdata$x
xdata$x	SEGMENT
__unwindtable$?ResourceRegister@CRegObject@ATL@@QAGJPB_WI0@Z DD 0ffffffffH
	DD	FLAT:__unwindfunclet$?ResourceRegister@CRegObject@ATL@@QAGJPB_WI0@Z$0
__ehfuncinfo$?ResourceRegister@CRegObject@ATL@@QAGJPB_WI0@Z DD 019930522H
	DD	01H
	DD	FLAT:__unwindtable$?ResourceRegister@CRegObject@ATL@@QAGJPB_WI0@Z
	DD	2 DUP(00H)
	DD	2 DUP(00H)
	DD	00H
	DD	01H
xdata$x	ENDS
;	COMDAT xdata$x
xdata$x	SEGMENT
__unwindtable$?AddReplacement@CRegObject@ATL@@UAGJPB_W0@Z DD 0ffffffffH
	DD	FLAT:__unwindfunclet$?AddReplacement@CRegObject@ATL@@UAGJPB_W0@Z$0
__ehfuncinfo$?AddReplacement@CRegObject@ATL@@UAGJPB_W0@Z DD 019930522H
	DD	01H
	DD	FLAT:__unwindtable$?AddReplacement@CRegObject@ATL@@UAGJPB_W0@Z
	DD	2 DUP(00H)
	DD	2 DUP(00H)
	DD	00H
	DD	01H
xdata$x	ENDS
;	COMDAT xdata$x
xdata$x	SEGMENT
__unwindtable$?AddString@CParseBuffer@CRegParser@ATL@@QAEHPB_W@Z DD 0ffffffffH
	DD	FLAT:__unwindfunclet$?AddString@CParseBuffer@CRegParser@ATL@@QAEHPB_W@Z$0
__ehfuncinfo$?AddString@CParseBuffer@CRegParser@ATL@@QAEHPB_W@Z DD 019930522H
	DD	01H
	DD	FLAT:__unwindtable$?AddString@CParseBuffer@CRegParser@ATL@@QAEHPB_W@Z
	DD	2 DUP(00H)
	DD	2 DUP(00H)
	DD	00H
	DD	01H
xdata$x	ENDS
;	COMDAT xdata$x
xdata$x	SEGMENT
__unwindtable$?RegisterSubkeys@CRegParser@ATL@@IAEJPADPAUHKEY__@@HH@Z DD 0ffffffffH
	DD	FLAT:__unwindfunclet$?RegisterSubkeys@CRegParser@ATL@@IAEJPADPAUHKEY__@@HH@Z$2
	DD	00H
	DD	FLAT:__unwindfunclet$?RegisterSubkeys@CRegParser@ATL@@IAEJPADPAUHKEY__@@HH@Z$4
__ehfuncinfo$?RegisterSubkeys@CRegParser@ATL@@IAEJPADPAUHKEY__@@HH@Z DD 019930522H
	DD	02H
	DD	FLAT:__unwindtable$?RegisterSubkeys@CRegParser@ATL@@IAEJPADPAUHKEY__@@HH@Z
	DD	2 DUP(00H)
	DD	2 DUP(00H)
	DD	00H
	DD	01H
xdata$x	ENDS
;	COMDAT xdata$x
xdata$x	SEGMENT
__catchsym$?AddValue@CRegParser@ATL@@IAEJAAVCRegKey@2@PBDPAD@Z$8 DD 040H
	DD	00H
	DD	00H
	DD	FLAT:__catch$?AddValue@CRegParser@ATL@@IAEJAAVCRegKey@2@PBDPAD@Z$2
__catchsym$?AddValue@CRegParser@ATL@@IAEJAAVCRegKey@2@PBDPAD@Z$7 DD 040H
	DD	00H
	DD	00H
	DD	FLAT:__catch$?AddValue@CRegParser@ATL@@IAEJAAVCRegKey@2@PBDPAD@Z$0
__ehfuncinfo$?AddValue@CRegParser@ATL@@IAEJAAVCRegKey@2@PBDPAD@Z DD 019930522H
	DD	07H
	DD	FLAT:__unwindtable$?AddValue@CRegParser@ATL@@IAEJAAVCRegKey@2@PBDPAD@Z
	DD	02H
	DD	FLAT:__tryblocktable$?AddValue@CRegParser@ATL@@IAEJAAVCRegKey@2@PBDPAD@Z
	DD	2 DUP(00H)
	DD	00H
	DD	01H
__tryblocktable$?AddValue@CRegParser@ATL@@IAEJAAVCRegKey@2@PBDPAD@Z DD 01H
	DD	01H
	DD	02H
	DD	01H
	DD	FLAT:__catchsym$?AddValue@CRegParser@ATL@@IAEJAAVCRegKey@2@PBDPAD@Z$7
	DD	05H
	DD	05H
	DD	06H
	DD	01H
	DD	FLAT:__catchsym$?AddValue@CRegParser@ATL@@IAEJAAVCRegKey@2@PBDPAD@Z$8
__unwindtable$?AddValue@CRegParser@ATL@@IAEJAAVCRegKey@2@PBDPAD@Z DD 0ffffffffH
	DD	FLAT:__unwindfunclet$?AddValue@CRegParser@ATL@@IAEJAAVCRegKey@2@PBDPAD@Z$4
	DD	00H
	DD	00H
	DD	00H
	DD	00H
	DD	0ffffffffH
	DD	FLAT:__unwindfunclet$?AddValue@CRegParser@ATL@@IAEJAAVCRegKey@2@PBDPAD@Z$5
	DD	0ffffffffH
	DD	FLAT:__unwindfunclet$?AddValue@CRegParser@ATL@@IAEJAAVCRegKey@2@PBDPAD@Z$6
	DD	04H
	DD	00H
	DD	04H
	DD	00H
xdata$x	ENDS
;	COMDAT xdata$x
xdata$x	SEGMENT
__unwindtable$?PreProcessBuffer@CRegParser@ATL@@QAEJPADPAPAD@Z DD 0ffffffffH
	DD	FLAT:__unwindfunclet$?PreProcessBuffer@CRegParser@ATL@@QAEJPADPAPAD@Z$0
__ehfuncinfo$?PreProcessBuffer@CRegParser@ATL@@QAEJPADPAPAD@Z DD 019930522H
	DD	01H
	DD	FLAT:__unwindtable$?PreProcessBuffer@CRegParser@ATL@@QAEJPADPAPAD@Z
	DD	2 DUP(00H)
	DD	2 DUP(00H)
	DD	00H
	DD	01H
xdata$x	ENDS
;	COMDAT xdata$x
xdata$x	SEGMENT
__unwindtable$?Add@CExpansionVector@ATL@@QAEHPBDPB_W@Z DD 0ffffffffH
	DD	FLAT:__unwindfunclet$?Add@CExpansionVector@ATL@@QAEHPBDPB_W@Z$0
	DD	00H
	DD	FLAT:__unwindfunclet$?Add@CExpansionVector@ATL@@QAEHPBDPB_W@Z$1
__ehfuncinfo$?Add@CExpansionVector@ATL@@QAEHPBDPB_W@Z DD 019930522H
	DD	02H
	DD	FLAT:__unwindtable$?Add@CExpansionVector@ATL@@QAEHPBDPB_W@Z
	DD	2 DUP(00H)
	DD	2 DUP(00H)
	DD	00H
	DD	01H
xdata$x	ENDS
;	COMDAT xdata$x
xdata$x	SEGMENT
__unwindtable$??__F_AtlComModule@ATL@@YAXXZ DD 0ffffffffH
	DD	FLAT:__unwindfunclet$??__F_AtlComModule@ATL@@YAXXZ$0
__ehfuncinfo$??__F_AtlComModule@ATL@@YAXXZ DD 019930522H
	DD	01H
	DD	FLAT:__unwindtable$??__F_AtlComModule@ATL@@YAXXZ
	DD	2 DUP(00H)
	DD	2 DUP(00H)
	DD	00H
	DD	01H
xdata$x	ENDS
;	COMDAT xdata$x
xdata$x	SEGMENT
__ehfuncinfo$??1CAtlComModule@ATL@@QAE@XZ DD 019930522H
	DD	00H
	DD	00H
	DD	2 DUP(00H)
	DD	2 DUP(00H)
	DD	00H
	DD	05H
xdata$x	ENDS
;	COMDAT xdata$x
xdata$x	SEGMENT
__sehtable$?_AtlVerifyStackAvailable@_ATL_SAFE_ALLOCA_IMPL@ATL@@YA_NK@Z DD 0ffffffe4H
	DD	00H
	DD	0ffffffccH
	DD	00H
	DD	0fffffffeH
	DD	FLAT:$LN7@AtlVerifyS
	DD	FLAT:$LN8@AtlVerifyS
xdata$x	ENDS
;	COMDAT CRT$XCU
CRT$XCU	SEGMENT
?_AtlWinModule$initializer$@ATL@@3P6AXXZA DD FLAT:??__E_AtlWinModule@ATL@@YAXXZ ; ATL::_AtlWinModule$initializer$
CRT$XCU	ENDS
; Function compile flags: /Ogtp
; File c:\program files (x86)\microsoft visual studio 14.0\vc\atlmfc\include\atlsimpcoll.h
;	COMDAT ??$?3PA_W@?$Wrapper@PA_W@?$CSimpleMap@PADPA_WVCExpansionVectorEqualHelper@ATL@@@ATL@@SAXPAXPAPA_W@Z
_TEXT	SEGMENT
___formal$ = 8						; size = 4
___formal$ = 12						; size = 4
??$?3PA_W@?$Wrapper@PA_W@?$CSimpleMap@PADPA_WVCExpansionVectorEqualHelper@ATL@@@ATL@@SAXPAXPAPA_W@Z PROC ; ATL::CSimpleMap<char *,wchar_t *,ATL::CExpansionVectorEqualHelper>::Wrapper<wchar_t *>::operator delete<wchar_t *>, COMDAT

; 506  : 		}

  00000	c3		 ret	 0
??$?3PA_W@?$Wrapper@PA_W@?$CSimpleMap@PADPA_WVCExpansionVectorEqualHelper@ATL@@@ATL@@SAXPAXPAPA_W@Z ENDP ; ATL::CSimpleMap<char *,wchar_t *,ATL::CExpansionVectorEqualHelper>::Wrapper<wchar_t *>::operator delete<wchar_t *>
_TEXT	ENDS
; Function compile flags: /Ogtp
; File c:\program files (x86)\microsoft visual studio 14.0\vc\atlmfc\include\atlsimpcoll.h
;	COMDAT ??$?2PA_W@?$Wrapper@PA_W@?$CSimpleMap@PADPA_WVCExpansionVectorEqualHelper@ATL@@@ATL@@SAPAXIPAPA_W@Z
_TEXT	SEGMENT
___formal$ = 8						; size = 4
_p$ = 12						; size = 4
??$?2PA_W@?$Wrapper@PA_W@?$CSimpleMap@PADPA_WVCExpansionVectorEqualHelper@ATL@@@ATL@@SAPAXIPAPA_W@Z PROC ; ATL::CSimpleMap<char *,wchar_t *,ATL::CExpansionVectorEqualHelper>::Wrapper<wchar_t *>::operator new<wchar_t *>, COMDAT

; 498  : 		{

  00000	55		 push	 ebp
  00001	8b ec		 mov	 ebp, esp

; 499  : 			return p;

  00003	8b 45 0c	 mov	 eax, DWORD PTR _p$[ebp]

; 500  : 		}

  00006	5d		 pop	 ebp
  00007	c3		 ret	 0
??$?2PA_W@?$Wrapper@PA_W@?$CSimpleMap@PADPA_WVCExpansionVectorEqualHelper@ATL@@@ATL@@SAPAXIPAPA_W@Z ENDP ; ATL::CSimpleMap<char *,wchar_t *,ATL::CExpansionVectorEqualHelper>::Wrapper<wchar_t *>::operator new<wchar_t *>
_TEXT	ENDS
; Function compile flags: /Ogtp
; File c:\program files (x86)\microsoft visual studio 14.0\vc\atlmfc\include\atlsimpcoll.h
;	COMDAT ??0?$Wrapper@PA_W@?$CSimpleMap@PADPA_WVCExpansionVectorEqualHelper@ATL@@@ATL@@QAE@ABQA_W@Z
_TEXT	SEGMENT
__t$ = 8						; size = 4
??0?$Wrapper@PA_W@?$CSimpleMap@PADPA_WVCExpansionVectorEqualHelper@ATL@@@ATL@@QAE@ABQA_W@Z PROC ; ATL::CSimpleMap<char *,wchar_t *,ATL::CExpansionVectorEqualHelper>::Wrapper<wchar_t *>::Wrapper<wchar_t *>, COMDAT
; _this$ = ecx

; 492  : 		{

  00000	55		 push	 ebp
  00001	8b ec		 mov	 ebp, esp

; 491  : 		Wrapper(_In_ const T& _t) : t(_t)

  00003	8b 45 08	 mov	 eax, DWORD PTR __t$[ebp]
  00006	8b 00		 mov	 eax, DWORD PTR [eax]
  00008	89 01		 mov	 DWORD PTR [ecx], eax

; 493  : 		}

  0000a	8b c1		 mov	 eax, ecx
  0000c	5d		 pop	 ebp
  0000d	c2 04 00	 ret	 4
??0?$Wrapper@PA_W@?$CSimpleMap@PADPA_WVCExpansionVectorEqualHelper@ATL@@@ATL@@QAE@ABQA_W@Z ENDP ; ATL::CSimpleMap<char *,wchar_t *,ATL::CExpansionVectorEqualHelper>::Wrapper<wchar_t *>::Wrapper<wchar_t *>
_TEXT	ENDS
; Function compile flags: /Ogtp
; File c:\program files (x86)\microsoft visual studio 14.0\vc\atlmfc\include\atlsimpcoll.h
;	COMDAT ??$?3PAD@?$Wrapper@PAD@?$CSimpleMap@PADPA_WVCExpansionVectorEqualHelper@ATL@@@ATL@@SAXPAXPAPAD@Z
_TEXT	SEGMENT
___formal$ = 8						; size = 4
___formal$ = 12						; size = 4
??$?3PAD@?$Wrapper@PAD@?$CSimpleMap@PADPA_WVCExpansionVectorEqualHelper@ATL@@@ATL@@SAXPAXPAPAD@Z PROC ; ATL::CSimpleMap<char *,wchar_t *,ATL::CExpansionVectorEqualHelper>::Wrapper<char *>::operator delete<char *>, COMDAT

; 506  : 		}

  00000	c3		 ret	 0
??$?3PAD@?$Wrapper@PAD@?$CSimpleMap@PADPA_WVCExpansionVectorEqualHelper@ATL@@@ATL@@SAXPAXPAPAD@Z ENDP ; ATL::CSimpleMap<char *,wchar_t *,ATL::CExpansionVectorEqualHelper>::Wrapper<char *>::operator delete<char *>
_TEXT	ENDS
; Function compile flags: /Ogtp
; File c:\program files (x86)\microsoft visual studio 14.0\vc\atlmfc\include\atlsimpcoll.h
;	COMDAT ??$?2PAD@?$Wrapper@PAD@?$CSimpleMap@PADPA_WVCExpansionVectorEqualHelper@ATL@@@ATL@@SAPAXIPAPAD@Z
_TEXT	SEGMENT
___formal$ = 8						; size = 4
_p$ = 12						; size = 4
??$?2PAD@?$Wrapper@PAD@?$CSimpleMap@PADPA_WVCExpansionVectorEqualHelper@ATL@@@ATL@@SAPAXIPAPAD@Z PROC ; ATL::CSimpleMap<char *,wchar_t *,ATL::CExpansionVectorEqualHelper>::Wrapper<char *>::operator new<char *>, COMDAT

; 498  : 		{

  00000	55		 push	 ebp
  00001	8b ec		 mov	 ebp, esp

; 499  : 			return p;

  00003	8b 45 0c	 mov	 eax, DWORD PTR _p$[ebp]

; 500  : 		}

  00006	5d		 pop	 ebp
  00007	c3		 ret	 0
??$?2PAD@?$Wrapper@PAD@?$CSimpleMap@PADPA_WVCExpansionVectorEqualHelper@ATL@@@ATL@@SAPAXIPAPAD@Z ENDP ; ATL::CSimpleMap<char *,wchar_t *,ATL::CExpansionVectorEqualHelper>::Wrapper<char *>::operator new<char *>
_TEXT	ENDS
; Function compile flags: /Ogtp
; File c:\program files (x86)\microsoft visual studio 14.0\vc\atlmfc\include\atlsimpcoll.h
;	COMDAT ??0?$Wrapper@PAD@?$CSimpleMap@PADPA_WVCExpansionVectorEqualHelper@ATL@@@ATL@@QAE@ABQAD@Z
_TEXT	SEGMENT
__t$ = 8						; size = 4
??0?$Wrapper@PAD@?$CSimpleMap@PADPA_WVCExpansionVectorEqualHelper@ATL@@@ATL@@QAE@ABQAD@Z PROC ; ATL::CSimpleMap<char *,wchar_t *,ATL::CExpansionVectorEqualHelper>::Wrapper<char *>::Wrapper<char *>, COMDAT
; _this$ = ecx

; 492  : 		{

  00000	55		 push	 ebp
  00001	8b ec		 mov	 ebp, esp

; 491  : 		Wrapper(_In_ const T& _t) : t(_t)

  00003	8b 45 08	 mov	 eax, DWORD PTR __t$[ebp]
  00006	8b 00		 mov	 eax, DWORD PTR [eax]
  00008	89 01		 mov	 DWORD PTR [ecx], eax

; 493  : 		}

  0000a	8b c1		 mov	 eax, ecx
  0000c	5d		 pop	 ebp
  0000d	c2 04 00	 ret	 4
??0?$Wrapper@PAD@?$CSimpleMap@PADPA_WVCExpansionVectorEqualHelper@ATL@@@ATL@@QAE@ABQAD@Z ENDP ; ATL::CSimpleMap<char *,wchar_t *,ATL::CExpansionVectorEqualHelper>::Wrapper<char *>::Wrapper<char *>
_TEXT	ENDS
; Function compile flags: /Ogtp
; File c:\program files (x86)\microsoft visual studio 14.0\vc\atlmfc\include\atlalloc.h
;	COMDAT ??$AtlAddThrow@K@ATL@@YAKKK@Z
_TEXT	SEGMENT
_tLeft$ = 8						; size = 4
_tRight$ = 12						; size = 4
??$AtlAddThrow@K@ATL@@YAKKK@Z PROC			; ATL::AtlAddThrow<unsigned long>, COMDAT

; 208  : {

  00000	55		 push	 ebp
  00001	8b ec		 mov	 ebp, esp

; 209  : 	T tResult;
; 210  : 	HRESULT hr=AtlAdd(&tResult, tLeft, tRight);

  00003	8b 4d 08	 mov	 ecx, DWORD PTR _tLeft$[ebp]
  00006	8b c1		 mov	 eax, ecx
  00008	8b 55 0c	 mov	 edx, DWORD PTR _tRight$[ebp]
  0000b	f7 d0		 not	 eax
  0000d	3b c2		 cmp	 eax, edx
  0000f	72 05		 jb	 SHORT $LN13@AtlAddThro
  00011	8d 04 11	 lea	 eax, DWORD PTR [ecx+edx]

; 214  : 	}
; 215  : 	return tResult;
; 216  : }

  00014	5d		 pop	 ebp
  00015	c3		 ret	 0
$LN13@AtlAddThro:

; 211  : 	if(FAILED(hr))
; 212  : 	{
; 213  : 		AtlThrow(hr);

  00016	68 16 02 07 80	 push	 -2147024362		; 80070216H
  0001b	e8 00 00 00 00	 call	 ?AtlThrowImpl@ATL@@YGXJ@Z ; ATL::AtlThrowImpl
$LN14@AtlAddThro:
$LN12@AtlAddThro:
  00020	cc		 int	 3
??$AtlAddThrow@K@ATL@@YAKKK@Z ENDP			; ATL::AtlAddThrow<unsigned long>
_TEXT	ENDS
; Function compile flags: /Ogtp
; File c:\program files (x86)\microsoft visual studio 14.0\vc\atlmfc\include\atlalloc.h
;	COMDAT ?GetData@CAtlSafeAllocBufferNode@?$CAtlSafeAllocBufferManager@VCCRTAllocator@ATL@@@_ATL_SAFE_ALLOCA_IMPL@ATL@@QAEPAXXZ
_TEXT	SEGMENT
?GetData@CAtlSafeAllocBufferNode@?$CAtlSafeAllocBufferManager@VCCRTAllocator@ATL@@@_ATL_SAFE_ALLOCA_IMPL@ATL@@QAEPAXXZ PROC ; ATL::_ATL_SAFE_ALLOCA_IMPL::CAtlSafeAllocBufferManager<ATL::CCRTAllocator>::CAtlSafeAllocBufferNode::GetData, COMDAT
; _this$ = ecx

; 689  : 			return (this + 1);

  00000	8d 41 08	 lea	 eax, DWORD PTR [ecx+8]

; 690  : 		}

  00003	c3		 ret	 0
?GetData@CAtlSafeAllocBufferNode@?$CAtlSafeAllocBufferManager@VCCRTAllocator@ATL@@@_ATL_SAFE_ALLOCA_IMPL@ATL@@QAEPAXXZ ENDP ; ATL::_ATL_SAFE_ALLOCA_IMPL::CAtlSafeAllocBufferManager<ATL::CCRTAllocator>::CAtlSafeAllocBufferNode::GetData
_TEXT	ENDS
; Function compile flags: /Ogtp
; File c:\program files (x86)\microsoft visual studio 14.0\vc\atlmfc\include\atlalloc.h
;	COMDAT ??$AtlMultiplyThrow@I@ATL@@YAIII@Z
_TEXT	SEGMENT
_tLeft$ = 8						; size = 4
_tRight$ = 12						; size = 4
??$AtlMultiplyThrow@I@ATL@@YAIII@Z PROC			; ATL::AtlMultiplyThrow<unsigned int>, COMDAT

; 194  : {

  00000	55		 push	 ebp
  00001	8b ec		 mov	 ebp, esp

; 195  : 	T tResult;
; 196  : 	HRESULT hr=AtlMultiply(&tResult, tLeft, tRight);

  00003	8b 45 08	 mov	 eax, DWORD PTR _tLeft$[ebp]
  00006	f7 65 0c	 mul	 DWORD PTR _tRight$[ebp]
  00009	85 d2		 test	 edx, edx
  0000b	75 07		 jne	 SHORT $LN14@AtlMultipl
  0000d	83 f8 ff	 cmp	 eax, -1
  00010	77 02		 ja	 SHORT $LN14@AtlMultipl

; 200  : 	}
; 201  : 	return tResult;
; 202  : }

  00012	5d		 pop	 ebp
  00013	c3		 ret	 0
$LN14@AtlMultipl:

; 197  : 	if(FAILED(hr))
; 198  : 	{
; 199  : 		AtlThrow(hr);

  00014	68 16 02 07 80	 push	 -2147024362		; 80070216H
  00019	e8 00 00 00 00	 call	 ?AtlThrowImpl@ATL@@YGXJ@Z ; ATL::AtlThrowImpl
$LN16@AtlMultipl:
$LN13@AtlMultipl:
  0001e	cc		 int	 3
??$AtlMultiplyThrow@I@ATL@@YAIII@Z ENDP			; ATL::AtlMultiplyThrow<unsigned int>
_TEXT	ENDS
; Function compile flags: /Ogtp
; File c:\users\alexis\desktop\sources_gostcrypt_windows_1.3.1_commented\sources_gostcrypt_windows_1.3.1é\sources_gostcrypt_windows_1.3.1\setup\comsetup.cpp
;	COMDAT _UnregisterComServers
_TEXT	SEGMENT
_ro$ = -2616						; size = 44
_module$ = -2572					; size = 2048
_setupModule$ = -524					; size = 520
__$ArrayPad$ = -4					; size = 4
_modulePath$ = 8					; size = 4
_UnregisterComServers PROC				; COMDAT

; 88   : {

  00000	55		 push	 ebp
  00001	8b ec		 mov	 ebp, esp
  00003	81 ec 38 0a 00
	00		 sub	 esp, 2616		; 00000a38H
  00009	a1 00 00 00 00	 mov	 eax, DWORD PTR ___security_cookie
  0000e	33 c5		 xor	 eax, ebp
  00010	89 45 fc	 mov	 DWORD PTR __$ArrayPad$[ebp], eax
  00013	56		 push	 esi

; 89   : 	BOOL ret;
; 90   : 
; 91   : 	if (UnRegisterTypeLib (LIBID_GostCryptMainCom, GST_MAIN_COM_VERSION_MAJOR, GST_MAIN_COM_VERSION_MINOR, 0, SYS_WIN32) != S_OK)

  00014	8b 35 00 00 00
	00		 mov	 esi, DWORD PTR __imp__UnRegisterTypeLib@20
  0001a	57		 push	 edi
  0001b	8b 7d 08	 mov	 edi, DWORD PTR _modulePath$[ebp]
  0001e	6a 01		 push	 1
  00020	6a 00		 push	 0
  00022	6a 04		 push	 4
  00024	6a 02		 push	 2
  00026	68 00 00 00 00	 push	 OFFSET _LIBID_GostCryptMainCom
  0002b	ff d6		 call	 esi
  0002d	85 c0		 test	 eax, eax
  0002f	74 12		 je	 SHORT $LN2@Unregister
$LN35@Unregister:
  00031	5f		 pop	 edi

; 92   : 		return FALSE;

  00032	33 c0		 xor	 eax, eax
  00034	5e		 pop	 esi

; 113  : }

  00035	8b 4d fc	 mov	 ecx, DWORD PTR __$ArrayPad$[ebp]
  00038	33 cd		 xor	 ecx, ebp
  0003a	e8 00 00 00 00	 call	 @__security_check_cookie@4
  0003f	8b e5		 mov	 esp, ebp
  00041	5d		 pop	 ebp
  00042	c3		 ret	 0
$LN2@Unregister:

; 93   : 	if (UnRegisterTypeLib (LIBID_GostCryptFormatCom, GST_FORMAT_COM_VERSION_MAJOR, GST_FORMAT_COM_VERSION_MINOR, 0, SYS_WIN32) != S_OK)

  00043	6a 01		 push	 1
  00045	6a 00		 push	 0
  00047	6a 04		 push	 4
  00049	6a 02		 push	 2
  0004b	68 00 00 00 00	 push	 OFFSET _LIBID_GostCryptFormatCom
  00050	ff d6		 call	 esi
  00052	85 c0		 test	 eax, eax
  00054	75 db		 jne	 SHORT $LN35@Unregister

; 94   : 		return FALSE;
; 95   : 
; 96   : 	wchar_t module[1024];
; 97   : 	CRegObject ro;
; 98   : 	ro.FinalConstruct ();

  00056	50		 push	 eax
  00057	50		 push	 eax
  00058	89 85 cc f5 ff
	ff		 mov	 DWORD PTR _ro$[ebp+4], eax
  0005e	0f 57 c0	 xorps	 xmm0, xmm0
  00061	89 85 d0 f5 ff
	ff		 mov	 DWORD PTR _ro$[ebp+8], eax
  00067	89 85 d4 f5 ff
	ff		 mov	 DWORD PTR _ro$[ebp+12], eax
  0006d	88 85 f0 f5 ff
	ff		 mov	 BYTE PTR _ro$[ebp+40], al
  00073	8d 85 d8 f5 ff
	ff		 lea	 eax, DWORD PTR _ro$[ebp+16]
  00079	50		 push	 eax
  0007a	c7 85 c8 f5 ff
	ff 00 00 00 00	 mov	 DWORD PTR _ro$[ebp], OFFSET ??_7CRegObject@ATL@@6B@
  00084	0f 11 85 d8 f5
	ff ff		 movups	 XMMWORD PTR _ro$[ebp+16], xmm0
  0008b	66 0f d6 85 e8
	f5 ff ff	 movq	 QWORD PTR _ro$[ebp+32], xmm0
  00093	ff 15 00 00 00
	00		 call	 DWORD PTR __imp__InitializeCriticalSectionEx@12
  00099	85 c0		 test	 eax, eax
  0009b	75 16		 jne	 SHORT $LN33@Unregister
  0009d	ff 15 00 00 00
	00		 call	 DWORD PTR __imp__GetLastError@0
  000a3	85 c0		 test	 eax, eax
  000a5	7e 0a		 jle	 SHORT $LN34@Unregister
  000a7	0f b7 c0	 movzx	 eax, ax
  000aa	0d 00 00 07 80	 or	 eax, -2147024896	; 80070000H
  000af	85 c0		 test	 eax, eax
$LN34@Unregister:
  000b1	78 07		 js	 SHORT $LN20@Unregister
$LN33@Unregister:
  000b3	c6 85 f0 f5 ff
	ff 01		 mov	 BYTE PTR _ro$[ebp+40], 1
$LN20@Unregister:

; 99   : 
; 100  : 	wsprintfW (module, L"%hsGostCrypt.exe", modulePath);

  000ba	8b 35 00 00 00
	00		 mov	 esi, DWORD PTR __imp__wsprintfW
  000c0	8d 85 f4 f5 ff
	ff		 lea	 eax, DWORD PTR _module$[ebp]
  000c6	57		 push	 edi
  000c7	68 00 00 00 00	 push	 OFFSET ??_C@_1CC@HOFAEMLD@?$AA?$CF?$AAh?$AAs?$AAG?$AAo?$AAs?$AAt?$AAC?$AAr?$AAy?$AAp?$AAt?$AA?4?$AAe?$AAx?$AAe?$AA?$AA@
  000cc	50		 push	 eax
  000cd	ff d6		 call	 esi
  000cf	83 c4 0c	 add	 esp, 12			; 0000000cH

; 101  : 	ro.AddReplacement (L"MAIN_MODULE", module);

  000d2	8d 85 f4 f5 ff
	ff		 lea	 eax, DWORD PTR _module$[ebp]
  000d8	50		 push	 eax
  000d9	68 00 00 00 00	 push	 OFFSET ??_C@_1BI@FPIOFILF@?$AAM?$AAA?$AAI?$AAN?$AA_?$AAM?$AAO?$AAD?$AAU?$AAL?$AAE?$AA?$AA@
  000de	8d 85 c8 f5 ff
	ff		 lea	 eax, DWORD PTR _ro$[ebp]
  000e4	50		 push	 eax
  000e5	e8 00 00 00 00	 call	 ?AddReplacement@CRegObject@ATL@@UAGJPB_W0@Z ; ATL::CRegObject::AddReplacement

; 102  : 
; 103  : 	wsprintfW (module, L"%hsGostCrypt Format.exe", modulePath);

  000ea	57		 push	 edi
  000eb	8d 85 f4 f5 ff
	ff		 lea	 eax, DWORD PTR _module$[ebp]
  000f1	68 00 00 00 00	 push	 OFFSET ??_C@_1DA@NKIHIBKI@?$AA?$CF?$AAh?$AAs?$AAG?$AAo?$AAs?$AAt?$AAC?$AAr?$AAy?$AAp?$AAt?$AA?5?$AAF?$AAo?$AAr?$AAm?$AAa?$AAt?$AA?4?$AAe?$AAx?$AAe?$AA?$AA@
  000f6	50		 push	 eax
  000f7	ff d6		 call	 esi
  000f9	83 c4 0c	 add	 esp, 12			; 0000000cH

; 104  : 	ro.AddReplacement (L"FORMAT_MODULE", module);

  000fc	8d 85 f4 f5 ff
	ff		 lea	 eax, DWORD PTR _module$[ebp]
  00102	50		 push	 eax
  00103	68 00 00 00 00	 push	 OFFSET ??_C@_1BM@IFKNBDBK@?$AAF?$AAO?$AAR?$AAM?$AAA?$AAT?$AA_?$AAM?$AAO?$AAD?$AAU?$AAL?$AAE?$AA?$AA@
  00108	8d 85 c8 f5 ff
	ff		 lea	 eax, DWORD PTR _ro$[ebp]
  0010e	50		 push	 eax
  0010f	e8 00 00 00 00	 call	 ?AddReplacement@CRegObject@ATL@@UAGJPB_W0@Z ; ATL::CRegObject::AddReplacement

; 105  : 
; 106  : 	wchar_t setupModule[MAX_PATH];
; 107  : 	GetModuleFileNameW (NULL, setupModule, sizeof (setupModule) / sizeof (setupModule[0]));

  00114	68 04 01 00 00	 push	 260			; 00000104H
  00119	8d 85 f4 fd ff
	ff		 lea	 eax, DWORD PTR _setupModule$[ebp]
  0011f	50		 push	 eax
  00120	6a 00		 push	 0
  00122	ff 15 00 00 00
	00		 call	 DWORD PTR __imp__GetModuleFileNameW@12

; 108  : 
; 109  : 	ret = ro.ResourceUnregister (setupModule, IDR_COMREG, L"REGISTRY") == S_OK;

  00128	68 00 00 00 00	 push	 OFFSET ??_C@_1BC@KAILKFFG@?$AAR?$AAE?$AAG?$AAI?$AAS?$AAT?$AAR?$AAY?$AA?$AA@
  0012d	6a 0a		 push	 10			; 0000000aH
  0012f	8d 85 f4 fd ff
	ff		 lea	 eax, DWORD PTR _setupModule$[ebp]
  00135	50		 push	 eax
  00136	8d 85 c8 f5 ff
	ff		 lea	 eax, DWORD PTR _ro$[ebp]
  0013c	50		 push	 eax
  0013d	e8 00 00 00 00	 call	 ?ResourceUnregister@CRegObject@ATL@@QAGJPB_WI0@Z ; ATL::CRegObject::ResourceUnregister
  00142	f7 d8		 neg	 eax

; 110  : 
; 111  : 	ro.FinalRelease ();
; 112  : 	return ret;

  00144	8d 8d c8 f5 ff
	ff		 lea	 ecx, DWORD PTR _ro$[ebp]
  0014a	1b f6		 sbb	 esi, esi
  0014c	e8 00 00 00 00	 call	 ??1CRegObject@ATL@@UAE@XZ ; ATL::CRegObject::~CRegObject

; 113  : }

  00151	8b 4d fc	 mov	 ecx, DWORD PTR __$ArrayPad$[ebp]
  00154	8d 46 01	 lea	 eax, DWORD PTR [esi+1]
  00157	5f		 pop	 edi
  00158	33 cd		 xor	 ecx, ebp
  0015a	5e		 pop	 esi
  0015b	e8 00 00 00 00	 call	 @__security_check_cookie@4
  00160	8b e5		 mov	 esp, ebp
  00162	5d		 pop	 ebp
  00163	c3		 ret	 0
_UnregisterComServers ENDP
_TEXT	ENDS
; Function compile flags: /Ogtp
; File c:\users\alexis\desktop\sources_gostcrypt_windows_1.3.1_commented\sources_gostcrypt_windows_1.3.1é\sources_gostcrypt_windows_1.3.1\setup\comsetup.cpp
;	COMDAT _RegisterComServers
_TEXT	SEGMENT
_ro$ = -4688						; size = 44
$T1 = -4644						; size = 16
_tl$ = -4628						; size = 4
_tl2$ = -4624						; size = 4
_formatModule$ = -4620					; size = 2048
_mainModule$ = -2572					; size = 2048
_setupModule$ = -524					; size = 520
__$ArrayPad$ = -4					; size = 4
_modulePath$ = 8					; size = 4
_RegisterComServers PROC				; COMDAT

; 44   : {

  00000	55		 push	 ebp
  00001	8b ec		 mov	 ebp, esp
  00003	b8 50 12 00 00	 mov	 eax, 4688		; 00001250H
  00008	e8 00 00 00 00	 call	 __chkstk
  0000d	a1 00 00 00 00	 mov	 eax, DWORD PTR ___security_cookie
  00012	33 c5		 xor	 eax, ebp
  00014	89 45 fc	 mov	 DWORD PTR __$ArrayPad$[ebp], eax
  00017	53		 push	 ebx
  00018	56		 push	 esi

; 45   : 	BOOL ret = TRUE;
; 46   : 	wchar_t mainModule[1024], formatModule[1024];
; 47   : 	CComPtr<ITypeLib> tl, tl2;
; 48   : 
; 49   : 	wsprintfW (mainModule, L"%hsGostCrypt.exe", modulePath);

  00019	8b 35 00 00 00
	00		 mov	 esi, DWORD PTR __imp__wsprintfW
  0001f	8d 85 f4 f5 ff
	ff		 lea	 eax, DWORD PTR _mainModule$[ebp]
  00025	57		 push	 edi
  00026	8b 7d 08	 mov	 edi, DWORD PTR _modulePath$[ebp]
  00029	bb 01 00 00 00	 mov	 ebx, 1
  0002e	57		 push	 edi
  0002f	68 00 00 00 00	 push	 OFFSET ??_C@_1CC@HOFAEMLD@?$AA?$CF?$AAh?$AAs?$AAG?$AAo?$AAs?$AAt?$AAC?$AAr?$AAy?$AAp?$AAt?$AA?4?$AAe?$AAx?$AAe?$AA?$AA@
  00034	50		 push	 eax
  00035	c7 85 ec ed ff
	ff 00 00 00 00	 mov	 DWORD PTR _tl$[ebp], 0
  0003f	c7 85 f0 ed ff
	ff 00 00 00 00	 mov	 DWORD PTR _tl2$[ebp], 0
  00049	ff d6		 call	 esi

; 50   : 	wsprintfW (formatModule, L"%hsGostCrypt Format.exe", modulePath);

  0004b	57		 push	 edi
  0004c	8d 85 f4 ed ff
	ff		 lea	 eax, DWORD PTR _formatModule$[ebp]
  00052	68 00 00 00 00	 push	 OFFSET ??_C@_1DA@NKIHIBKI@?$AA?$CF?$AAh?$AAs?$AAG?$AAo?$AAs?$AAt?$AAC?$AAr?$AAy?$AAp?$AAt?$AA?5?$AAF?$AAo?$AAr?$AAm?$AAa?$AAt?$AA?4?$AAe?$AAx?$AAe?$AA?$AA@
  00057	50		 push	 eax
  00058	ff d6		 call	 esi

; 51   : 
; 52   : 	UnRegisterTypeLib (LIBID_GostCryptMainCom, GST_MAIN_COM_VERSION_MAJOR, GST_MAIN_COM_VERSION_MINOR, 0, SYS_WIN32);

  0005a	8b 35 00 00 00
	00		 mov	 esi, DWORD PTR __imp__UnRegisterTypeLib@20
  00060	83 c4 18	 add	 esp, 24			; 00000018H
  00063	53		 push	 ebx
  00064	6a 00		 push	 0
  00066	6a 04		 push	 4
  00068	6a 02		 push	 2
  0006a	68 00 00 00 00	 push	 OFFSET _LIBID_GostCryptMainCom
  0006f	ff d6		 call	 esi

; 53   : 	UnRegisterTypeLib (LIBID_GostCryptFormatCom, GST_FORMAT_COM_VERSION_MAJOR, GST_FORMAT_COM_VERSION_MINOR, 0, SYS_WIN32);

  00071	53		 push	 ebx
  00072	6a 00		 push	 0
  00074	6a 04		 push	 4
  00076	6a 02		 push	 2
  00078	68 00 00 00 00	 push	 OFFSET _LIBID_GostCryptFormatCom
  0007d	ff d6		 call	 esi

; 54   : 
; 55   : 	wchar_t setupModule[MAX_PATH];
; 56   : 	GetModuleFileNameW (NULL, setupModule, sizeof (setupModule) / sizeof (setupModule[0]));

  0007f	68 04 01 00 00	 push	 260			; 00000104H
  00084	8d 85 f4 fd ff
	ff		 lea	 eax, DWORD PTR _setupModule$[ebp]
  0008a	50		 push	 eax
  0008b	6a 00		 push	 0
  0008d	ff 15 00 00 00
	00		 call	 DWORD PTR __imp__GetModuleFileNameW@12

; 57   : 
; 58   : 	CRegObject ro;
; 59   : 	HRESULT r;
; 60   : 
; 61   : 	if (!SUCCEEDED (r = ro.FinalConstruct ())
; 62   : 		|| !SUCCEEDED (r = ro.AddReplacement (L"MAIN_MODULE", mainModule))
; 63   : 		|| !SUCCEEDED (r = ro.AddReplacement (L"FORMAT_MODULE", formatModule))
; 64   : 		|| !SUCCEEDED (r = ro.ResourceRegister (setupModule, IDR_COMREG, L"REGISTRY"))
; 65   : 		|| !SUCCEEDED (r = LoadTypeLib (mainModule, &tl))
; 66   : 		|| !SUCCEEDED (r = RegisterTypeLib (tl, mainModule, 0))
; 67   : 		|| !SUCCEEDED (r = LoadTypeLib (formatModule, &tl2))
; 68   : 		|| !SUCCEEDED (r = RegisterTypeLib (tl2, formatModule, 0)))

  00093	33 f6		 xor	 esi, esi
  00095	c7 85 b0 ed ff
	ff 00 00 00 00	 mov	 DWORD PTR _ro$[ebp], OFFSET ??_7CRegObject@ATL@@6B@
  0009f	56		 push	 esi
  000a0	0f 57 c0	 xorps	 xmm0, xmm0
  000a3	c7 85 b4 ed ff
	ff 00 00 00 00	 mov	 DWORD PTR _ro$[ebp+4], 0
  000ad	56		 push	 esi
  000ae	8d 85 c0 ed ff
	ff		 lea	 eax, DWORD PTR _ro$[ebp+16]
  000b4	c7 85 b8 ed ff
	ff 00 00 00 00	 mov	 DWORD PTR _ro$[ebp+8], 0
  000be	50		 push	 eax
  000bf	c7 85 bc ed ff
	ff 00 00 00 00	 mov	 DWORD PTR _ro$[ebp+12], 0
  000c9	0f 11 85 c0 ed
	ff ff		 movups	 XMMWORD PTR _ro$[ebp+16], xmm0
  000d0	c6 85 d8 ed ff
	ff 00		 mov	 BYTE PTR _ro$[ebp+40], 0
  000d7	66 0f d6 85 d0
	ed ff ff	 movq	 QWORD PTR _ro$[ebp+32], xmm0
  000df	ff 15 00 00 00
	00		 call	 DWORD PTR __imp__InitializeCriticalSectionEx@12
  000e5	85 c0		 test	 eax, eax
  000e7	75 19		 jne	 SHORT $LN68@RegisterCo
  000e9	ff 15 00 00 00
	00		 call	 DWORD PTR __imp__GetLastError@0
  000ef	8b f0		 mov	 esi, eax
  000f1	85 f6		 test	 esi, esi
  000f3	7e 0b		 jle	 SHORT $LN70@RegisterCo
  000f5	0f b7 f6	 movzx	 esi, si
  000f8	81 ce 00 00 07
	80		 or	 esi, -2147024896	; 80070000H
  000fe	85 f6		 test	 esi, esi
$LN70@RegisterCo:
  00100	78 06		 js	 SHORT $LN28@RegisterCo
$LN68@RegisterCo:
  00102	88 9d d8 ed ff
	ff		 mov	 BYTE PTR _ro$[ebp+40], bl
$LN28@RegisterCo:
  00108	85 f6		 test	 esi, esi
  0010a	0f 88 cc 00 00
	00		 js	 $LN3@RegisterCo
  00110	8d 85 f4 f5 ff
	ff		 lea	 eax, DWORD PTR _mainModule$[ebp]
  00116	50		 push	 eax
  00117	68 00 00 00 00	 push	 OFFSET ??_C@_1BI@FPIOFILF@?$AAM?$AAA?$AAI?$AAN?$AA_?$AAM?$AAO?$AAD?$AAU?$AAL?$AAE?$AA?$AA@
  0011c	8d 85 b0 ed ff
	ff		 lea	 eax, DWORD PTR _ro$[ebp]
  00122	50		 push	 eax
  00123	e8 00 00 00 00	 call	 ?AddReplacement@CRegObject@ATL@@UAGJPB_W0@Z ; ATL::CRegObject::AddReplacement
  00128	8b f0		 mov	 esi, eax
  0012a	85 f6		 test	 esi, esi
  0012c	0f 88 aa 00 00
	00		 js	 $LN3@RegisterCo
  00132	8d 85 f4 ed ff
	ff		 lea	 eax, DWORD PTR _formatModule$[ebp]
  00138	50		 push	 eax
  00139	68 00 00 00 00	 push	 OFFSET ??_C@_1BM@IFKNBDBK@?$AAF?$AAO?$AAR?$AAM?$AAA?$AAT?$AA_?$AAM?$AAO?$AAD?$AAU?$AAL?$AAE?$AA?$AA@
  0013e	8d 85 b0 ed ff
	ff		 lea	 eax, DWORD PTR _ro$[ebp]
  00144	50		 push	 eax
  00145	e8 00 00 00 00	 call	 ?AddReplacement@CRegObject@ATL@@UAGJPB_W0@Z ; ATL::CRegObject::AddReplacement
  0014a	8b f0		 mov	 esi, eax
  0014c	85 f6		 test	 esi, esi
  0014e	0f 88 88 00 00
	00		 js	 $LN3@RegisterCo
  00154	68 00 00 00 00	 push	 OFFSET ??_C@_1BC@KAILKFFG@?$AAR?$AAE?$AAG?$AAI?$AAS?$AAT?$AAR?$AAY?$AA?$AA@
  00159	6a 0a		 push	 10			; 0000000aH
  0015b	8d 85 f4 fd ff
	ff		 lea	 eax, DWORD PTR _setupModule$[ebp]
  00161	50		 push	 eax
  00162	8d 85 b0 ed ff
	ff		 lea	 eax, DWORD PTR _ro$[ebp]
  00168	50		 push	 eax
  00169	e8 00 00 00 00	 call	 ?ResourceRegister@CRegObject@ATL@@QAGJPB_WI0@Z ; ATL::CRegObject::ResourceRegister
  0016e	8b f0		 mov	 esi, eax
  00170	85 f6		 test	 esi, esi
  00172	78 68		 js	 SHORT $LN3@RegisterCo
  00174	8b 3d 00 00 00
	00		 mov	 edi, DWORD PTR __imp__LoadTypeLib@8
  0017a	8d 85 ec ed ff
	ff		 lea	 eax, DWORD PTR _tl$[ebp]
  00180	50		 push	 eax
  00181	8d 85 f4 f5 ff
	ff		 lea	 eax, DWORD PTR _mainModule$[ebp]
  00187	50		 push	 eax
  00188	ff d7		 call	 edi
  0018a	8b f0		 mov	 esi, eax
  0018c	85 f6		 test	 esi, esi
  0018e	78 4c		 js	 SHORT $LN3@RegisterCo
  00190	6a 00		 push	 0
  00192	8d 85 f4 f5 ff
	ff		 lea	 eax, DWORD PTR _mainModule$[ebp]
  00198	50		 push	 eax
  00199	ff b5 ec ed ff
	ff		 push	 DWORD PTR _tl$[ebp]
  0019f	ff 15 00 00 00
	00		 call	 DWORD PTR __imp__RegisterTypeLib@12
  001a5	8b f0		 mov	 esi, eax
  001a7	85 f6		 test	 esi, esi
  001a9	78 31		 js	 SHORT $LN3@RegisterCo
  001ab	8d 85 f0 ed ff
	ff		 lea	 eax, DWORD PTR _tl2$[ebp]
  001b1	50		 push	 eax
  001b2	8d 85 f4 ed ff
	ff		 lea	 eax, DWORD PTR _formatModule$[ebp]
  001b8	50		 push	 eax
  001b9	ff d7		 call	 edi
  001bb	8b f0		 mov	 esi, eax
  001bd	85 f6		 test	 esi, esi
  001bf	78 1b		 js	 SHORT $LN3@RegisterCo
  001c1	6a 00		 push	 0
  001c3	8d 85 f4 ed ff
	ff		 lea	 eax, DWORD PTR _formatModule$[ebp]
  001c9	50		 push	 eax
  001ca	ff b5 f0 ed ff
	ff		 push	 DWORD PTR _tl2$[ebp]
  001d0	ff 15 00 00 00
	00		 call	 DWORD PTR __imp__RegisterTypeLib@12
  001d6	8b f0		 mov	 esi, eax
  001d8	85 f6		 test	 esi, esi
  001da	79 70		 jns	 SHORT $LN2@RegisterCo
$LN3@RegisterCo:

; 69   : 	{
; 70   : 		MessageBox (MainDlg, _com_error (r).ErrorMessage(), GST_APP_NAME, MB_ICONERROR);

  001dc	6a 10		 push	 16			; 00000010H
  001de	68 00 00 00 00	 push	 OFFSET ??_C@_09NKHKFHLH@GostCrypt?$AA@
  001e3	8d 8d dc ed ff
	ff		 lea	 ecx, DWORD PTR $T1[ebp]
  001e9	c7 85 dc ed ff
	ff 00 00 00 00	 mov	 DWORD PTR $T1[ebp], OFFSET ??_7_com_error@@6B@
  001f3	89 b5 e0 ed ff
	ff		 mov	 DWORD PTR $T1[ebp+4], esi
  001f9	c7 85 e4 ed ff
	ff 00 00 00 00	 mov	 DWORD PTR $T1[ebp+8], 0
  00203	c7 85 e8 ed ff
	ff 00 00 00 00	 mov	 DWORD PTR $T1[ebp+12], 0
  0020d	e8 00 00 00 00	 call	 ?ErrorMessage@_com_error@@QBEPBDXZ ; _com_error::ErrorMessage
  00212	50		 push	 eax
  00213	ff 35 00 00 00
	00		 push	 DWORD PTR _MainDlg
  00219	ff 15 00 00 00
	00		 call	 DWORD PTR __imp__MessageBoxA@16
  0021f	8b 8d e4 ed ff
	ff		 mov	 ecx, DWORD PTR $T1[ebp+8]
  00225	c7 85 dc ed ff
	ff 00 00 00 00	 mov	 DWORD PTR $T1[ebp], OFFSET ??_7_com_error@@6B@
  0022f	85 c9		 test	 ecx, ecx
  00231	74 06		 je	 SHORT $LN51@RegisterCo
  00233	8b 01		 mov	 eax, DWORD PTR [ecx]
  00235	51		 push	 ecx
  00236	ff 50 08	 call	 DWORD PTR [eax+8]
$LN51@RegisterCo:
  00239	8b 85 e8 ed ff
	ff		 mov	 eax, DWORD PTR $T1[ebp+12]
  0023f	85 c0		 test	 eax, eax
  00241	74 07		 je	 SHORT $LN52@RegisterCo
  00243	50		 push	 eax
  00244	ff 15 00 00 00
	00		 call	 DWORD PTR __imp__LocalFree@4
$LN52@RegisterCo:

; 71   : 		ret = FALSE;

  0024a	33 db		 xor	 ebx, ebx
$LN2@RegisterCo:

; 72   : 	}
; 73   : 
; 74   : 	ro.FinalRelease ();
; 75   : 	return ret;

  0024c	8d 8d b0 ed ff
	ff		 lea	 ecx, DWORD PTR _ro$[ebp]
  00252	e8 00 00 00 00	 call	 ??1CRegObject@ATL@@UAE@XZ ; ATL::CRegObject::~CRegObject
  00257	8b 85 f0 ed ff
	ff		 mov	 eax, DWORD PTR _tl2$[ebp]
  0025d	85 c0		 test	 eax, eax
  0025f	74 06		 je	 SHORT $LN60@RegisterCo
  00261	8b 08		 mov	 ecx, DWORD PTR [eax]
  00263	50		 push	 eax
  00264	ff 51 08	 call	 DWORD PTR [ecx+8]
$LN60@RegisterCo:
  00267	8b 8d ec ed ff
	ff		 mov	 ecx, DWORD PTR _tl$[ebp]
  0026d	85 c9		 test	 ecx, ecx
  0026f	74 06		 je	 SHORT $LN69@RegisterCo
  00271	8b 11		 mov	 edx, DWORD PTR [ecx]
  00273	51		 push	 ecx
  00274	ff 52 08	 call	 DWORD PTR [edx+8]
$LN69@RegisterCo:

; 76   : }

  00277	8b 4d fc	 mov	 ecx, DWORD PTR __$ArrayPad$[ebp]
  0027a	8b c3		 mov	 eax, ebx
  0027c	5f		 pop	 edi
  0027d	5e		 pop	 esi
  0027e	33 cd		 xor	 ecx, ebp
  00280	5b		 pop	 ebx
  00281	e8 00 00 00 00	 call	 @__security_check_cookie@4
  00286	8b e5		 mov	 esp, ebp
  00288	5d		 pop	 ebp
  00289	c3		 ret	 0
_RegisterComServers ENDP
_TEXT	ENDS
; Function compile flags: /Ogtp
;	COMDAT ??_G_com_error@@UAEPAXI@Z
_TEXT	SEGMENT
___flags$ = 8						; size = 4
??_G_com_error@@UAEPAXI@Z PROC				; _com_error::`scalar deleting destructor', COMDAT
; _this$ = ecx
  00000	55		 push	 ebp
  00001	8b ec		 mov	 ebp, esp
  00003	56		 push	 esi
  00004	8b f1		 mov	 esi, ecx
  00006	8b 4e 08	 mov	 ecx, DWORD PTR [esi+8]
  00009	c7 06 00 00 00
	00		 mov	 DWORD PTR [esi], OFFSET ??_7_com_error@@6B@
  0000f	85 c9		 test	 ecx, ecx
  00011	74 06		 je	 SHORT $LN5@scalar
  00013	8b 01		 mov	 eax, DWORD PTR [ecx]
  00015	51		 push	 ecx
  00016	ff 50 08	 call	 DWORD PTR [eax+8]
$LN5@scalar:
  00019	8b 46 0c	 mov	 eax, DWORD PTR [esi+12]
  0001c	85 c0		 test	 eax, eax
  0001e	74 07		 je	 SHORT $LN6@scalar
  00020	50		 push	 eax
  00021	ff 15 00 00 00
	00		 call	 DWORD PTR __imp__LocalFree@4
$LN6@scalar:
  00027	f6 45 08 01	 test	 BYTE PTR ___flags$[ebp], 1
  0002b	74 0b		 je	 SHORT $LN8@scalar
  0002d	6a 10		 push	 16			; 00000010H
  0002f	56		 push	 esi
  00030	e8 00 00 00 00	 call	 ??3@YAXPAXI@Z		; operator delete
  00035	83 c4 08	 add	 esp, 8
$LN8@scalar:
  00038	8b c6		 mov	 eax, esi
  0003a	5e		 pop	 esi
  0003b	5d		 pop	 ebp
  0003c	c2 04 00	 ret	 4
??_G_com_error@@UAEPAXI@Z ENDP				; _com_error::`scalar deleting destructor'
_TEXT	ENDS
; Function compile flags: /Ogtp
; File c:\program files (x86)\microsoft visual studio 14.0\vc\include\comdef.h
;	COMDAT ?HRESULTToWCode@_com_error@@SAGJ@Z
_TEXT	SEGMENT
_hr$ = 8						; size = 4
?HRESULTToWCode@_com_error@@SAGJ@Z PROC			; _com_error::HRESULTToWCode, COMDAT

; 454  : {

  00000	55		 push	 ebp
  00001	8b ec		 mov	 ebp, esp

; 455  :     return (hr >= WCODE_HRESULT_FIRST && hr <= WCODE_HRESULT_LAST)

  00003	8b 4d 08	 mov	 ecx, DWORD PTR _hr$[ebp]
  00006	8d 81 00 fe fb
	7f		 lea	 eax, DWORD PTR [ecx+2147220992]
  0000c	3d ff fd 00 00	 cmp	 eax, 65023		; 0000fdffH
  00011	77 0b		 ja	 SHORT $LN3@HRESULTToW
  00013	8d 81 00 fe ff
	ff		 lea	 eax, DWORD PTR [ecx-512]
  00019	0f b7 c0	 movzx	 eax, ax

; 456  :         ? WORD(hr - WCODE_HRESULT_FIRST)
; 457  :         : 0;
; 458  : }

  0001c	5d		 pop	 ebp
  0001d	c3		 ret	 0
$LN3@HRESULTToW:

; 455  :     return (hr >= WCODE_HRESULT_FIRST && hr <= WCODE_HRESULT_LAST)

  0001e	33 c0		 xor	 eax, eax

; 456  :         ? WORD(hr - WCODE_HRESULT_FIRST)
; 457  :         : 0;
; 458  : }

  00020	5d		 pop	 ebp
  00021	c3		 ret	 0
?HRESULTToWCode@_com_error@@SAGJ@Z ENDP			; _com_error::HRESULTToWCode
_TEXT	ENDS
; Function compile flags: /Ogtp
; File c:\program files (x86)\microsoft visual studio 14.0\vc\include\comdef.h
;	COMDAT ?ErrorMessage@_com_error@@QBEPBDXZ
_TEXT	SEGMENT
?ErrorMessage@_com_error@@QBEPBDXZ PROC			; _com_error::ErrorMessage, COMDAT
; _this$ = ecx

; 408  : {

  00000	56		 push	 esi
  00001	57		 push	 edi
  00002	8b f9		 mov	 edi, ecx

; 409  :     if (m_pszMsg == NULL) {

  00004	83 7f 0c 00	 cmp	 DWORD PTR [edi+12], 0
  00008	8d 77 0c	 lea	 esi, DWORD PTR [edi+12]
  0000b	0f 85 ad 00 00
	00		 jne	 $LN19@ErrorMessa

; 410  :         FormatMessage(FORMAT_MESSAGE_ALLOCATE_BUFFER|

  00011	6a 00		 push	 0
  00013	6a 00		 push	 0
  00015	56		 push	 esi
  00016	68 00 04 00 00	 push	 1024			; 00000400H
  0001b	ff 77 04	 push	 DWORD PTR [edi+4]
  0001e	6a 00		 push	 0
  00020	68 00 13 00 00	 push	 4864			; 00001300H
  00025	ff 15 00 00 00
	00		 call	 DWORD PTR __imp__FormatMessageA@28

; 411  :                           FORMAT_MESSAGE_FROM_SYSTEM|
; 412  :                           FORMAT_MESSAGE_IGNORE_INSERTS,
; 413  :                       NULL,
; 414  :                       m_hresult,
; 415  :                       MAKELANGID(LANG_NEUTRAL, SUBLANG_DEFAULT),
; 416  :                       (LPTSTR)&m_pszMsg,
; 417  :                       0,
; 418  :                       NULL);
; 419  :         if (m_pszMsg != NULL) {

  0002b	8b 0e		 mov	 ecx, DWORD PTR [esi]
  0002d	85 c9		 test	 ecx, ecx
  0002f	74 35		 je	 SHORT $LN3@ErrorMessa

; 420  :             #ifdef UNICODE
; 421  :             size_t const nLen = wcslen(m_pszMsg);
; 422  :             #else
; 423  :             size_t const nLen = strlen(m_pszMsg);

  00031	8b d1		 mov	 edx, ecx
  00033	8d 7a 01	 lea	 edi, DWORD PTR [edx+1]
$LL17@ErrorMessa:
  00036	8a 02		 mov	 al, BYTE PTR [edx]
  00038	42		 inc	 edx
  00039	84 c0		 test	 al, al
  0003b	75 f9		 jne	 SHORT $LL17@ErrorMessa
  0003d	2b d7		 sub	 edx, edi

; 424  :             #endif
; 425  :             if (nLen > 1 && m_pszMsg[nLen - 1] == '\n') {

  0003f	83 fa 01	 cmp	 edx, 1
  00042	76 1d		 jbe	 SHORT $LN20@ErrorMessa
  00044	80 7c 11 ff 0a	 cmp	 BYTE PTR [ecx+edx-1], 10 ; 0000000aH
  00049	75 16		 jne	 SHORT $LN20@ErrorMessa

; 426  :                 m_pszMsg[nLen - 1] = 0;

  0004b	88 44 11 ff	 mov	 BYTE PTR [ecx+edx-1], al

; 427  :                 if (m_pszMsg[nLen - 2] == '\r') {

  0004f	8b 0e		 mov	 ecx, DWORD PTR [esi]
  00051	80 7c 0a fe 0d	 cmp	 BYTE PTR [edx+ecx-2], 13 ; 0000000dH
  00056	75 09		 jne	 SHORT $LN20@ErrorMessa

; 428  :                         m_pszMsg[nLen - 2] = 0;

  00058	88 44 0a fe	 mov	 BYTE PTR [edx+ecx-2], al

; 441  :                 }
; 442  :             }
; 443  :         }
; 444  :     }
; 445  :     return m_pszMsg;

  0005c	8b 06		 mov	 eax, DWORD PTR [esi]
  0005e	5f		 pop	 edi
  0005f	5e		 pop	 esi

; 446  : }

  00060	c3		 ret	 0
$LN20@ErrorMessa:
  00061	5f		 pop	 edi

; 441  :                 }
; 442  :             }
; 443  :         }
; 444  :     }
; 445  :     return m_pszMsg;

  00062	8b c1		 mov	 eax, ecx
  00064	5e		 pop	 esi

; 446  : }

  00065	c3		 ret	 0
$LN3@ErrorMessa:

; 429  :                 }
; 430  :             }
; 431  :         } 
; 432  :         else {
; 433  :             m_pszMsg = (LPTSTR)LocalAlloc(0, 32 * sizeof(TCHAR));

  00066	6a 20		 push	 32			; 00000020H
  00068	6a 00		 push	 0
  0006a	ff 15 00 00 00
	00		 call	 DWORD PTR __imp__LocalAlloc@8
  00070	8b d0		 mov	 edx, eax
  00072	89 16		 mov	 DWORD PTR [esi], edx

; 434  :             if (m_pszMsg != NULL) {

  00074	85 d2		 test	 edx, edx
  00076	74 48		 je	 SHORT $LN9@ErrorMessa

; 435  :                 WORD wCode = WCode();

  00078	8b 7f 04	 mov	 edi, DWORD PTR [edi+4]
  0007b	8d 8f 00 fe fb
	7f		 lea	 ecx, DWORD PTR [edi+2147220992]
  00081	81 f9 ff fd 00
	00		 cmp	 ecx, 65023		; 0000fdffH
  00087	77 24		 ja	 SHORT $LN8@ErrorMessa
  00089	8d 87 00 fe ff
	ff		 lea	 eax, DWORD PTR [edi-512]
  0008f	0f b7 c0	 movzx	 eax, ax

; 436  :                 if (wCode != 0) {

  00092	66 85 c0	 test	 ax, ax
  00095	74 16		 je	 SHORT $LN8@ErrorMessa

; 437  :                     _COM_PRINTF_S_1(m_pszMsg, 32, TEXT("IDispatch error #%d"), (int)wCode);

  00097	50		 push	 eax
  00098	68 00 00 00 00	 push	 OFFSET ??_C@_0BE@NNIJINN@IDispatch?5error?5?$CD?$CFd?$AA@

; 438  :                 } 
; 439  :                 else {
; 440  :                     _COM_PRINTF_S_1(m_pszMsg, 32, TEXT("Unknown error 0x%0lX"), m_hresult);

  0009d	6a 20		 push	 32			; 00000020H
  0009f	52		 push	 edx
  000a0	e8 00 00 00 00	 call	 _sprintf_s

; 441  :                 }
; 442  :             }
; 443  :         }
; 444  :     }
; 445  :     return m_pszMsg;

  000a5	8b 06		 mov	 eax, DWORD PTR [esi]
  000a7	83 c4 10	 add	 esp, 16			; 00000010H
  000aa	5f		 pop	 edi
  000ab	5e		 pop	 esi

; 446  : }

  000ac	c3		 ret	 0
$LN8@ErrorMessa:

; 438  :                 } 
; 439  :                 else {
; 440  :                     _COM_PRINTF_S_1(m_pszMsg, 32, TEXT("Unknown error 0x%0lX"), m_hresult);

  000ad	57		 push	 edi
  000ae	68 00 00 00 00	 push	 OFFSET ??_C@_0BF@IPPGFENJ@Unknown?5error?50x?$CF0lX?$AA@
  000b3	6a 20		 push	 32			; 00000020H
  000b5	52		 push	 edx
  000b6	e8 00 00 00 00	 call	 _sprintf_s
  000bb	83 c4 10	 add	 esp, 16			; 00000010H
$LN19@ErrorMessa:

; 441  :                 }
; 442  :             }
; 443  :         }
; 444  :     }
; 445  :     return m_pszMsg;

  000be	8b 06		 mov	 eax, DWORD PTR [esi]
$LN9@ErrorMessa:
  000c0	5f		 pop	 edi
  000c1	5e		 pop	 esi

; 446  : }

  000c2	c3		 ret	 0
?ErrorMessage@_com_error@@QBEPBDXZ ENDP			; _com_error::ErrorMessage
_TEXT	ENDS
; Function compile flags: /Ogtp
; File c:\program files (x86)\microsoft visual studio 14.0\vc\include\comdef.h
;	COMDAT ?WCode@_com_error@@QBEGXZ
_TEXT	SEGMENT
?WCode@_com_error@@QBEGXZ PROC				; _com_error::WCode, COMDAT
; _this$ = ecx

; 341  :     return HRESULTToWCode(m_hresult);

  00000	8b 49 04	 mov	 ecx, DWORD PTR [ecx+4]
  00003	8d 81 00 fe fb
	7f		 lea	 eax, DWORD PTR [ecx+2147220992]
  00009	3d ff fd 00 00	 cmp	 eax, 65023		; 0000fdffH
  0000e	77 0a		 ja	 SHORT $LN5@WCode
  00010	8d 81 00 fe ff
	ff		 lea	 eax, DWORD PTR [ecx-512]
  00016	0f b7 c0	 movzx	 eax, ax

; 342  : }

  00019	c3		 ret	 0

; 341  :     return HRESULTToWCode(m_hresult);

$LN5@WCode:
  0001a	33 c0		 xor	 eax, eax

; 342  : }

  0001c	c3		 ret	 0
?WCode@_com_error@@QBEGXZ ENDP				; _com_error::WCode
_TEXT	ENDS
; Function compile flags: /Ogtp
; File c:\program files (x86)\microsoft visual studio 14.0\vc\include\comdef.h
;	COMDAT ??1_com_error@@UAE@XZ
_TEXT	SEGMENT
??1_com_error@@UAE@XZ PROC				; _com_error::~_com_error, COMDAT
; _this$ = ecx

; 316  : {

  00000	56		 push	 esi
  00001	8b f1		 mov	 esi, ecx

; 317  :     if (m_perrinfo != NULL) {

  00003	8b 4e 08	 mov	 ecx, DWORD PTR [esi+8]
  00006	c7 06 00 00 00
	00		 mov	 DWORD PTR [esi], OFFSET ??_7_com_error@@6B@
  0000c	85 c9		 test	 ecx, ecx
  0000e	74 06		 je	 SHORT $LN2@com_error

; 318  :         m_perrinfo->Release();

  00010	8b 01		 mov	 eax, DWORD PTR [ecx]
  00012	51		 push	 ecx
  00013	ff 50 08	 call	 DWORD PTR [eax+8]
$LN2@com_error:

; 319  :     }
; 320  :     if (m_pszMsg != NULL) {

  00016	8b 46 0c	 mov	 eax, DWORD PTR [esi+12]
  00019	5e		 pop	 esi
  0001a	85 c0		 test	 eax, eax
  0001c	74 07		 je	 SHORT $LN3@com_error

; 321  :         LocalFree((HLOCAL)m_pszMsg);

  0001e	50		 push	 eax
  0001f	ff 15 00 00 00
	00		 call	 DWORD PTR __imp__LocalFree@4
$LN3@com_error:

; 322  :     }
; 323  : }

  00025	c3		 ret	 0
??1_com_error@@UAE@XZ ENDP				; _com_error::~_com_error
_TEXT	ENDS
; Function compile flags: /Ogtp
; File c:\program files (x86)\microsoft visual studio 14.0\vc\include\comdef.h
;	COMDAT ??0_com_error@@QAE@JPAUIErrorInfo@@_N@Z
_TEXT	SEGMENT
_hr$ = 8						; size = 4
_perrinfo$ = 12						; size = 4
_fAddRef$ = 16						; size = 1
??0_com_error@@QAE@JPAUIErrorInfo@@_N@Z PROC		; _com_error::_com_error, COMDAT
; _this$ = ecx

; 301  : {

  00000	55		 push	 ebp
  00001	8b ec		 mov	 ebp, esp

; 300  :     : m_hresult(hr), m_perrinfo(perrinfo), m_pszMsg(NULL)

  00003	8b 45 08	 mov	 eax, DWORD PTR _hr$[ebp]
  00006	56		 push	 esi
  00007	8b f1		 mov	 esi, ecx
  00009	8b 4d 0c	 mov	 ecx, DWORD PTR _perrinfo$[ebp]
  0000c	c7 06 00 00 00
	00		 mov	 DWORD PTR [esi], OFFSET ??_7_com_error@@6B@
  00012	89 46 04	 mov	 DWORD PTR [esi+4], eax
  00015	89 4e 08	 mov	 DWORD PTR [esi+8], ecx
  00018	c7 46 0c 00 00
	00 00		 mov	 DWORD PTR [esi+12], 0

; 302  :     if (m_perrinfo != NULL && fAddRef) {

  0001f	85 c9		 test	 ecx, ecx
  00021	74 0c		 je	 SHORT $LN4@com_error
  00023	80 7d 10 00	 cmp	 BYTE PTR _fAddRef$[ebp], 0
  00027	74 06		 je	 SHORT $LN4@com_error

; 303  :         m_perrinfo->AddRef();

  00029	8b 01		 mov	 eax, DWORD PTR [ecx]
  0002b	51		 push	 ecx
  0002c	ff 50 04	 call	 DWORD PTR [eax+4]
$LN4@com_error:

; 304  :     }
; 305  : }

  0002f	8b c6		 mov	 eax, esi
  00031	5e		 pop	 esi
  00032	5d		 pop	 ebp
  00033	c2 0c 00	 ret	 12			; 0000000cH
??0_com_error@@QAE@JPAUIErrorInfo@@_N@Z ENDP		; _com_error::_com_error
_TEXT	ENDS
; Function compile flags: /Ogtp
;	COMDAT ??1?$CComPtr@UITypeLib@@@ATL@@QAE@XZ
_TEXT	SEGMENT
__$EHRec$ = -12						; size = 12
??1?$CComPtr@UITypeLib@@@ATL@@QAE@XZ PROC		; ATL::CComPtr<ITypeLib>::~CComPtr<ITypeLib>, COMDAT
; _this$ = ecx
  00000	55		 push	 ebp
  00001	8b ec		 mov	 ebp, esp
  00003	6a ff		 push	 -1
  00005	68 00 00 00 00	 push	 __ehhandler$??1?$CComPtr@UITypeLib@@@ATL@@QAE@XZ
  0000a	64 a1 00 00 00
	00		 mov	 eax, DWORD PTR fs:0
  00010	50		 push	 eax
  00011	a1 00 00 00 00	 mov	 eax, DWORD PTR ___security_cookie
  00016	33 c5		 xor	 eax, ebp
  00018	50		 push	 eax
  00019	8d 45 f4	 lea	 eax, DWORD PTR __$EHRec$[ebp]
  0001c	64 a3 00 00 00
	00		 mov	 DWORD PTR fs:0, eax
  00022	8b 09		 mov	 ecx, DWORD PTR [ecx]
  00024	85 c9		 test	 ecx, ecx
  00026	74 06		 je	 SHORT $LN4@CComPtr
  00028	8b 01		 mov	 eax, DWORD PTR [ecx]
  0002a	51		 push	 ecx
  0002b	ff 50 08	 call	 DWORD PTR [eax+8]
$LN4@CComPtr:
  0002e	8b 4d f4	 mov	 ecx, DWORD PTR __$EHRec$[ebp]
  00031	64 89 0d 00 00
	00 00		 mov	 DWORD PTR fs:0, ecx
  00038	59		 pop	 ecx
  00039	8b e5		 mov	 esp, ebp
  0003b	5d		 pop	 ebp
  0003c	c3		 ret	 0
_TEXT	ENDS
;	COMDAT text$x
text$x	SEGMENT
__ehhandler$??1?$CComPtr@UITypeLib@@@ATL@@QAE@XZ:
  00000	8b 54 24 08	 mov	 edx, DWORD PTR [esp+8]
  00004	8d 42 0c	 lea	 eax, DWORD PTR [edx+12]
  00007	8b 4a fc	 mov	 ecx, DWORD PTR [edx-4]
  0000a	33 c8		 xor	 ecx, eax
  0000c	e8 00 00 00 00	 call	 @__security_check_cookie@4
  00011	b8 00 00 00 00	 mov	 eax, OFFSET __ehfuncinfo$??1?$CComPtr@UITypeLib@@@ATL@@QAE@XZ
  00016	e9 00 00 00 00	 jmp	 ___CxxFrameHandler3
text$x	ENDS
??1?$CComPtr@UITypeLib@@@ATL@@QAE@XZ ENDP		; ATL::CComPtr<ITypeLib>::~CComPtr<ITypeLib>
; Function compile flags: /Ogtp
; File c:\program files (x86)\microsoft visual studio 14.0\vc\atlmfc\include\atlcomcli.h
;	COMDAT ??0?$CComPtr@UITypeLib@@@ATL@@QAE@XZ
_TEXT	SEGMENT
??0?$CComPtr@UITypeLib@@@ATL@@QAE@XZ PROC		; ATL::CComPtr<ITypeLib>::CComPtr<ITypeLib>, COMDAT
; _this$ = ecx

; 320  :     {

  00000	c7 01 00 00 00
	00		 mov	 DWORD PTR [ecx], 0

; 321  :     }

  00006	8b c1		 mov	 eax, ecx
  00008	c3		 ret	 0
??0?$CComPtr@UITypeLib@@@ATL@@QAE@XZ ENDP		; ATL::CComPtr<ITypeLib>::CComPtr<ITypeLib>
_TEXT	ENDS
; Function compile flags: /Ogtp
; File c:\program files (x86)\microsoft visual studio 14.0\vc\atlmfc\include\atlcomcli.h
;	COMDAT ??I?$CComPtrBase@UITypeLib@@@ATL@@QAEPAPAUITypeLib@@XZ
_TEXT	SEGMENT
??I?$CComPtrBase@UITypeLib@@@ATL@@QAEPAPAUITypeLib@@XZ PROC ; ATL::CComPtrBase<ITypeLib>::operator&, COMDAT
; _this$ = ecx

; 192  :         ATLASSERT(p==NULL);
; 193  :         return &p;

  00000	8b c1		 mov	 eax, ecx

; 194  :     }

  00002	c3		 ret	 0
??I?$CComPtrBase@UITypeLib@@@ATL@@QAEPAPAUITypeLib@@XZ ENDP ; ATL::CComPtrBase<ITypeLib>::operator&
_TEXT	ENDS
; Function compile flags: /Ogtp
; File c:\program files (x86)\microsoft visual studio 14.0\vc\atlmfc\include\atlcomcli.h
;	COMDAT ??B?$CComPtrBase@UITypeLib@@@ATL@@QBEPAUITypeLib@@XZ
_TEXT	SEGMENT
??B?$CComPtrBase@UITypeLib@@@ATL@@QBEPAUITypeLib@@XZ PROC ; ATL::CComPtrBase<ITypeLib>::operator ITypeLib *, COMDAT
; _this$ = ecx

; 181  :         return p;

  00000	8b 01		 mov	 eax, DWORD PTR [ecx]

; 182  :     }

  00002	c3		 ret	 0
??B?$CComPtrBase@UITypeLib@@@ATL@@QBEPAUITypeLib@@XZ ENDP ; ATL::CComPtrBase<ITypeLib>::operator ITypeLib *
_TEXT	ENDS
; Function compile flags: /Ogtp
; File c:\program files (x86)\microsoft visual studio 14.0\vc\atlmfc\include\atlcomcli.h
;	COMDAT ??1?$CComPtrBase@UITypeLib@@@ATL@@QAE@XZ
_TEXT	SEGMENT
??1?$CComPtrBase@UITypeLib@@@ATL@@QAE@XZ PROC		; ATL::CComPtrBase<ITypeLib>::~CComPtrBase<ITypeLib>, COMDAT
; _this$ = ecx

; 176  :         if (p)

  00000	8b 09		 mov	 ecx, DWORD PTR [ecx]
  00002	85 c9		 test	 ecx, ecx
  00004	74 06		 je	 SHORT $LN2@CComPtrBas

; 177  :             p->Release();

  00006	8b 01		 mov	 eax, DWORD PTR [ecx]
  00008	51		 push	 ecx
  00009	ff 50 08	 call	 DWORD PTR [eax+8]
$LN2@CComPtrBas:

; 178  :     }

  0000c	c3		 ret	 0
??1?$CComPtrBase@UITypeLib@@@ATL@@QAE@XZ ENDP		; ATL::CComPtrBase<ITypeLib>::~CComPtrBase<ITypeLib>
_TEXT	ENDS
; Function compile flags: /Ogtp
; File c:\program files (x86)\microsoft visual studio 14.0\vc\atlmfc\include\atlcomcli.h
;	COMDAT ??0?$CComPtrBase@UITypeLib@@@ATL@@IAE@XZ
_TEXT	SEGMENT
??0?$CComPtrBase@UITypeLib@@@ATL@@IAE@XZ PROC		; ATL::CComPtrBase<ITypeLib>::CComPtrBase<ITypeLib>, COMDAT
; _this$ = ecx

; 157  :     {
; 158  :         p = NULL;

  00000	c7 01 00 00 00
	00		 mov	 DWORD PTR [ecx], 0

; 159  :     }

  00006	8b c1		 mov	 eax, ecx
  00008	c3		 ret	 0
??0?$CComPtrBase@UITypeLib@@@ATL@@IAE@XZ ENDP		; ATL::CComPtrBase<ITypeLib>::CComPtrBase<ITypeLib>
_TEXT	ENDS
; Function compile flags: /Ogtp
; File c:\program files (x86)\microsoft visual studio 14.0\vc\atlmfc\include\atlalloc.h
;	COMDAT ?FreeHeap@?$CTempBuffer@E$0BAA@VCCRTAllocator@ATL@@@ATL@@AAEXXZ
_TEXT	SEGMENT
?FreeHeap@?$CTempBuffer@E$0BAA@VCCRTAllocator@ATL@@@ATL@@AAEXXZ PROC ; ATL::CTempBuffer<unsigned char,256,ATL::CCRTAllocator>::FreeHeap, COMDAT
; _this$ = ecx

; 604  : 		Allocator::Free( m_p );

  00000	ff 31		 push	 DWORD PTR [ecx]
  00002	e8 00 00 00 00	 call	 _free
  00007	59		 pop	 ecx

; 605  : 	}

  00008	c3		 ret	 0
?FreeHeap@?$CTempBuffer@E$0BAA@VCCRTAllocator@ATL@@@ATL@@AAEXXZ ENDP ; ATL::CTempBuffer<unsigned char,256,ATL::CCRTAllocator>::FreeHeap
_TEXT	ENDS
; Function compile flags: /Ogtp
; File c:\program files (x86)\microsoft visual studio 14.0\vc\atlmfc\include\atlalloc.h
;	COMDAT ?AllocateHeap@?$CTempBuffer@E$0BAA@VCCRTAllocator@ATL@@@ATL@@AAEXI@Z
_TEXT	SEGMENT
_nBytes$ = 8						; size = 4
?AllocateHeap@?$CTempBuffer@E$0BAA@VCCRTAllocator@ATL@@@ATL@@AAEXI@Z PROC ; ATL::CTempBuffer<unsigned char,256,ATL::CCRTAllocator>::AllocateHeap, COMDAT
; _this$ = ecx

; 583  : 	{

  00000	55		 push	 ebp
  00001	8b ec		 mov	 ebp, esp
  00003	56		 push	 esi

; 584  : 		T* p = static_cast< T* >( Allocator::Allocate( nBytes ) );

  00004	ff 75 08	 push	 DWORD PTR _nBytes$[ebp]
  00007	8b f1		 mov	 esi, ecx
  00009	e8 00 00 00 00	 call	 _malloc
  0000e	83 c4 04	 add	 esp, 4

; 585  : 		if( p == NULL )

  00011	85 c0		 test	 eax, eax
  00013	74 07		 je	 SHORT $LN7@AllocateHe

; 588  : 		}
; 589  : 		m_p = p;

  00015	89 06		 mov	 DWORD PTR [esi], eax
  00017	5e		 pop	 esi

; 590  : 	}

  00018	5d		 pop	 ebp
  00019	c2 04 00	 ret	 4
$LN7@AllocateHe:

; 586  : 		{
; 587  : 			AtlThrow( E_OUTOFMEMORY );

  0001c	68 0e 00 07 80	 push	 -2147024882		; 8007000eH
  00021	e8 00 00 00 00	 call	 ?AtlThrowImpl@ATL@@YGXJ@Z ; ATL::AtlThrowImpl
$LN9@AllocateHe:
$LN6@AllocateHe:
  00026	cc		 int	 3
?AllocateHeap@?$CTempBuffer@E$0BAA@VCCRTAllocator@ATL@@@ATL@@AAEXI@Z ENDP ; ATL::CTempBuffer<unsigned char,256,ATL::CCRTAllocator>::AllocateHeap
_TEXT	ENDS
; Function compile flags: /Ogtp
; File c:\program files (x86)\microsoft visual studio 14.0\vc\atlmfc\include\atlalloc.h
;	COMDAT ?AllocateBytes@?$CTempBuffer@E$0BAA@VCCRTAllocator@ATL@@@ATL@@QAEPAEI@Z
_TEXT	SEGMENT
_nBytes$ = 8						; size = 4
?AllocateBytes@?$CTempBuffer@E$0BAA@VCCRTAllocator@ATL@@@ATL@@QAEPAEI@Z PROC ; ATL::CTempBuffer<unsigned char,256,ATL::CCRTAllocator>::AllocateBytes, COMDAT
; _this$ = ecx

; 567  : 	{

  00000	55		 push	 ebp
  00001	8b ec		 mov	 ebp, esp

; 568  : 		ATLASSERT( m_p == NULL );
; 569  : 		if( nBytes > t_nFixedBytes )

  00003	8b 45 08	 mov	 eax, DWORD PTR _nBytes$[ebp]
  00006	56		 push	 esi
  00007	8b f1		 mov	 esi, ecx
  00009	3d 00 01 00 00	 cmp	 eax, 256		; 00000100H
  0000e	76 0d		 jbe	 SHORT $LN2@AllocateBy

; 570  : 		{
; 571  : 			AllocateHeap( nBytes );

  00010	50		 push	 eax
  00011	e8 00 00 00 00	 call	 ?AllocateHeap@?$CTempBuffer@E$0BAA@VCCRTAllocator@ATL@@@ATL@@AAEXI@Z ; ATL::CTempBuffer<unsigned char,256,ATL::CCRTAllocator>::AllocateHeap

; 576  : 		}
; 577  : 
; 578  : 		return( m_p );

  00016	8b 06		 mov	 eax, DWORD PTR [esi]
  00018	5e		 pop	 esi

; 579  : 	}

  00019	5d		 pop	 ebp
  0001a	c2 04 00	 ret	 4
$LN2@AllocateBy:

; 572  : 		}
; 573  : 		else
; 574  : 		{
; 575  : 			m_p = reinterpret_cast< T* >( m_abFixedBuffer );

  0001d	8d 46 04	 lea	 eax, DWORD PTR [esi+4]
  00020	89 06		 mov	 DWORD PTR [esi], eax
  00022	5e		 pop	 esi

; 579  : 	}

  00023	5d		 pop	 ebp
  00024	c2 04 00	 ret	 4
?AllocateBytes@?$CTempBuffer@E$0BAA@VCCRTAllocator@ATL@@@ATL@@QAEPAEI@Z ENDP ; ATL::CTempBuffer<unsigned char,256,ATL::CCRTAllocator>::AllocateBytes
_TEXT	ENDS
; Function compile flags: /Ogtp
; File c:\program files (x86)\microsoft visual studio 14.0\vc\atlmfc\include\atlalloc.h
;	COMDAT ?Allocate@?$CTempBuffer@E$0BAA@VCCRTAllocator@ATL@@@ATL@@QAEPAEI@Z
_TEXT	SEGMENT
_nElements$ = 8						; size = 4
?Allocate@?$CTempBuffer@E$0BAA@VCCRTAllocator@ATL@@@ATL@@QAEPAEI@Z PROC ; ATL::CTempBuffer<unsigned char,256,ATL::CCRTAllocator>::Allocate, COMDAT
; _this$ = ecx

; 527  : 	{

  00000	55		 push	 ebp
  00001	8b ec		 mov	 ebp, esp

; 528  : 		return( AllocateBytes( ::ATL::AtlMultiplyThrow(nElements,sizeof( T )) ) );

  00003	8b 45 08	 mov	 eax, DWORD PTR _nElements$[ebp]
  00006	56		 push	 esi
  00007	8b f1		 mov	 esi, ecx
  00009	33 c9		 xor	 ecx, ecx
  0000b	77 25		 ja	 SHORT $LN21@Allocate
  0000d	83 f8 ff	 cmp	 eax, -1
  00010	77 20		 ja	 SHORT $LN21@Allocate
  00012	3d 00 01 00 00	 cmp	 eax, 256		; 00000100H
  00017	76 0f		 jbe	 SHORT $LN15@Allocate
  00019	50		 push	 eax
  0001a	8b ce		 mov	 ecx, esi
  0001c	e8 00 00 00 00	 call	 ?AllocateHeap@?$CTempBuffer@E$0BAA@VCCRTAllocator@ATL@@@ATL@@AAEXI@Z ; ATL::CTempBuffer<unsigned char,256,ATL::CCRTAllocator>::AllocateHeap
  00021	8b 06		 mov	 eax, DWORD PTR [esi]
  00023	5e		 pop	 esi

; 529  : 	}

  00024	5d		 pop	 ebp
  00025	c2 04 00	 ret	 4

; 528  : 		return( AllocateBytes( ::ATL::AtlMultiplyThrow(nElements,sizeof( T )) ) );

$LN15@Allocate:
  00028	8d 46 04	 lea	 eax, DWORD PTR [esi+4]
  0002b	89 06		 mov	 DWORD PTR [esi], eax
  0002d	5e		 pop	 esi

; 529  : 	}

  0002e	5d		 pop	 ebp
  0002f	c2 04 00	 ret	 4
$LN21@Allocate:

; 528  : 		return( AllocateBytes( ::ATL::AtlMultiplyThrow(nElements,sizeof( T )) ) );

  00032	68 16 02 07 80	 push	 -2147024362		; 80070216H
  00037	e8 00 00 00 00	 call	 ?AtlThrowImpl@ATL@@YGXJ@Z ; ATL::AtlThrowImpl
$LN22@Allocate:
$LN20@Allocate:
  0003c	cc		 int	 3
?Allocate@?$CTempBuffer@E$0BAA@VCCRTAllocator@ATL@@@ATL@@QAEPAEI@Z ENDP ; ATL::CTempBuffer<unsigned char,256,ATL::CCRTAllocator>::Allocate
_TEXT	ENDS
; Function compile flags: /Ogtp
; File c:\program files (x86)\microsoft visual studio 14.0\vc\atlmfc\include\atlalloc.h
;	COMDAT ??B?$CTempBuffer@E$0BAA@VCCRTAllocator@ATL@@@ATL@@QBEPAEXZ
_TEXT	SEGMENT
??B?$CTempBuffer@E$0BAA@VCCRTAllocator@ATL@@@ATL@@QBEPAEXZ PROC ; ATL::CTempBuffer<unsigned char,256,ATL::CCRTAllocator>::operator unsigned char *, COMDAT
; _this$ = ecx

; 517  : 		return( m_p );

  00000	8b 01		 mov	 eax, DWORD PTR [ecx]

; 518  : 	}

  00002	c3		 ret	 0
??B?$CTempBuffer@E$0BAA@VCCRTAllocator@ATL@@@ATL@@QBEPAEXZ ENDP ; ATL::CTempBuffer<unsigned char,256,ATL::CCRTAllocator>::operator unsigned char *
_TEXT	ENDS
; Function compile flags: /Ogtp
; File c:\program files (x86)\microsoft visual studio 14.0\vc\atlmfc\include\atlalloc.h
;	COMDAT ??1?$CTempBuffer@E$0BAA@VCCRTAllocator@ATL@@@ATL@@QAE@XZ
_TEXT	SEGMENT
??1?$CTempBuffer@E$0BAA@VCCRTAllocator@ATL@@@ATL@@QAE@XZ PROC ; ATL::CTempBuffer<unsigned char,256,ATL::CCRTAllocator>::~CTempBuffer<unsigned char,256,ATL::CCRTAllocator>, COMDAT
; _this$ = ecx

; 509  : 		if( m_p != reinterpret_cast< T* >( m_abFixedBuffer ) )

  00000	8d 41 04	 lea	 eax, DWORD PTR [ecx+4]
  00003	39 01		 cmp	 DWORD PTR [ecx], eax
  00005	0f 85 00 00 00
	00		 jne	 ?FreeHeap@?$CTempBuffer@E$0BAA@VCCRTAllocator@ATL@@@ATL@@AAEXXZ ; ATL::CTempBuffer<unsigned char,256,ATL::CCRTAllocator>::FreeHeap

; 510  : 		{
; 511  : 			FreeHeap();
; 512  : 		}
; 513  : 	}

  0000b	c3		 ret	 0
??1?$CTempBuffer@E$0BAA@VCCRTAllocator@ATL@@@ATL@@QAE@XZ ENDP ; ATL::CTempBuffer<unsigned char,256,ATL::CCRTAllocator>::~CTempBuffer<unsigned char,256,ATL::CCRTAllocator>
_TEXT	ENDS
; Function compile flags: /Ogtp
; File c:\program files (x86)\microsoft visual studio 14.0\vc\atlmfc\include\atlalloc.h
;	COMDAT ??0?$CTempBuffer@E$0BAA@VCCRTAllocator@ATL@@@ATL@@QAE@XZ
_TEXT	SEGMENT
??0?$CTempBuffer@E$0BAA@VCCRTAllocator@ATL@@@ATL@@QAE@XZ PROC ; ATL::CTempBuffer<unsigned char,256,ATL::CCRTAllocator>::CTempBuffer<unsigned char,256,ATL::CCRTAllocator>, COMDAT
; _this$ = ecx

; 496  : 		m_p( NULL )

  00000	c7 01 00 00 00
	00		 mov	 DWORD PTR [ecx], 0

; 498  : 	}

  00006	8b c1		 mov	 eax, ecx
  00008	c3		 ret	 0
??0?$CTempBuffer@E$0BAA@VCCRTAllocator@ATL@@@ATL@@QAE@XZ ENDP ; ATL::CTempBuffer<unsigned char,256,ATL::CCRTAllocator>::CTempBuffer<unsigned char,256,ATL::CCRTAllocator>
_TEXT	ENDS
; Function compile flags: /Ogtp
; File c:\program files (x86)\microsoft visual studio 14.0\vc\atlmfc\include\atlalloc.h
;	COMDAT ?FreeHeap@?$CTempBuffer@D$0BAA@VCCRTAllocator@ATL@@@ATL@@AAEXXZ
_TEXT	SEGMENT
?FreeHeap@?$CTempBuffer@D$0BAA@VCCRTAllocator@ATL@@@ATL@@AAEXXZ PROC ; ATL::CTempBuffer<char,256,ATL::CCRTAllocator>::FreeHeap, COMDAT
; _this$ = ecx

; 604  : 		Allocator::Free( m_p );

  00000	ff 31		 push	 DWORD PTR [ecx]
  00002	e8 00 00 00 00	 call	 _free
  00007	59		 pop	 ecx

; 605  : 	}

  00008	c3		 ret	 0
?FreeHeap@?$CTempBuffer@D$0BAA@VCCRTAllocator@ATL@@@ATL@@AAEXXZ ENDP ; ATL::CTempBuffer<char,256,ATL::CCRTAllocator>::FreeHeap
_TEXT	ENDS
; Function compile flags: /Ogtp
; File c:\program files (x86)\microsoft visual studio 14.0\vc\atlmfc\include\atlalloc.h
;	COMDAT ?AllocateHeap@?$CTempBuffer@D$0BAA@VCCRTAllocator@ATL@@@ATL@@AAEXI@Z
_TEXT	SEGMENT
_nBytes$ = 8						; size = 4
?AllocateHeap@?$CTempBuffer@D$0BAA@VCCRTAllocator@ATL@@@ATL@@AAEXI@Z PROC ; ATL::CTempBuffer<char,256,ATL::CCRTAllocator>::AllocateHeap, COMDAT
; _this$ = ecx

; 583  : 	{

  00000	55		 push	 ebp
  00001	8b ec		 mov	 ebp, esp
  00003	56		 push	 esi

; 584  : 		T* p = static_cast< T* >( Allocator::Allocate( nBytes ) );

  00004	ff 75 08	 push	 DWORD PTR _nBytes$[ebp]
  00007	8b f1		 mov	 esi, ecx
  00009	e8 00 00 00 00	 call	 _malloc
  0000e	83 c4 04	 add	 esp, 4

; 585  : 		if( p == NULL )

  00011	85 c0		 test	 eax, eax
  00013	74 07		 je	 SHORT $LN7@AllocateHe

; 588  : 		}
; 589  : 		m_p = p;

  00015	89 06		 mov	 DWORD PTR [esi], eax
  00017	5e		 pop	 esi

; 590  : 	}

  00018	5d		 pop	 ebp
  00019	c2 04 00	 ret	 4
$LN7@AllocateHe:

; 586  : 		{
; 587  : 			AtlThrow( E_OUTOFMEMORY );

  0001c	68 0e 00 07 80	 push	 -2147024882		; 8007000eH
  00021	e8 00 00 00 00	 call	 ?AtlThrowImpl@ATL@@YGXJ@Z ; ATL::AtlThrowImpl
$LN9@AllocateHe:
$LN6@AllocateHe:
  00026	cc		 int	 3
?AllocateHeap@?$CTempBuffer@D$0BAA@VCCRTAllocator@ATL@@@ATL@@AAEXI@Z ENDP ; ATL::CTempBuffer<char,256,ATL::CCRTAllocator>::AllocateHeap
_TEXT	ENDS
; Function compile flags: /Ogtp
; File c:\program files (x86)\microsoft visual studio 14.0\vc\atlmfc\include\atlalloc.h
;	COMDAT ?AllocateBytes@?$CTempBuffer@D$0BAA@VCCRTAllocator@ATL@@@ATL@@QAEPADI@Z
_TEXT	SEGMENT
_nBytes$ = 8						; size = 4
?AllocateBytes@?$CTempBuffer@D$0BAA@VCCRTAllocator@ATL@@@ATL@@QAEPADI@Z PROC ; ATL::CTempBuffer<char,256,ATL::CCRTAllocator>::AllocateBytes, COMDAT
; _this$ = ecx

; 567  : 	{

  00000	55		 push	 ebp
  00001	8b ec		 mov	 ebp, esp

; 568  : 		ATLASSERT( m_p == NULL );
; 569  : 		if( nBytes > t_nFixedBytes )

  00003	8b 45 08	 mov	 eax, DWORD PTR _nBytes$[ebp]
  00006	56		 push	 esi
  00007	8b f1		 mov	 esi, ecx
  00009	3d 00 01 00 00	 cmp	 eax, 256		; 00000100H
  0000e	76 0d		 jbe	 SHORT $LN2@AllocateBy

; 570  : 		{
; 571  : 			AllocateHeap( nBytes );

  00010	50		 push	 eax
  00011	e8 00 00 00 00	 call	 ?AllocateHeap@?$CTempBuffer@D$0BAA@VCCRTAllocator@ATL@@@ATL@@AAEXI@Z ; ATL::CTempBuffer<char,256,ATL::CCRTAllocator>::AllocateHeap

; 576  : 		}
; 577  : 
; 578  : 		return( m_p );

  00016	8b 06		 mov	 eax, DWORD PTR [esi]
  00018	5e		 pop	 esi

; 579  : 	}

  00019	5d		 pop	 ebp
  0001a	c2 04 00	 ret	 4
$LN2@AllocateBy:

; 572  : 		}
; 573  : 		else
; 574  : 		{
; 575  : 			m_p = reinterpret_cast< T* >( m_abFixedBuffer );

  0001d	8d 46 04	 lea	 eax, DWORD PTR [esi+4]
  00020	89 06		 mov	 DWORD PTR [esi], eax
  00022	5e		 pop	 esi

; 579  : 	}

  00023	5d		 pop	 ebp
  00024	c2 04 00	 ret	 4
?AllocateBytes@?$CTempBuffer@D$0BAA@VCCRTAllocator@ATL@@@ATL@@QAEPADI@Z ENDP ; ATL::CTempBuffer<char,256,ATL::CCRTAllocator>::AllocateBytes
_TEXT	ENDS
; Function compile flags: /Ogtp
; File c:\program files (x86)\microsoft visual studio 14.0\vc\atlmfc\include\atlalloc.h
;	COMDAT ?Allocate@?$CTempBuffer@D$0BAA@VCCRTAllocator@ATL@@@ATL@@QAEPADI@Z
_TEXT	SEGMENT
_nElements$ = 8						; size = 4
?Allocate@?$CTempBuffer@D$0BAA@VCCRTAllocator@ATL@@@ATL@@QAEPADI@Z PROC ; ATL::CTempBuffer<char,256,ATL::CCRTAllocator>::Allocate, COMDAT
; _this$ = ecx

; 527  : 	{

  00000	55		 push	 ebp
  00001	8b ec		 mov	 ebp, esp

; 528  : 		return( AllocateBytes( ::ATL::AtlMultiplyThrow(nElements,sizeof( T )) ) );

  00003	8b 45 08	 mov	 eax, DWORD PTR _nElements$[ebp]
  00006	56		 push	 esi
  00007	8b f1		 mov	 esi, ecx
  00009	33 c9		 xor	 ecx, ecx
  0000b	77 25		 ja	 SHORT $LN21@Allocate
  0000d	83 f8 ff	 cmp	 eax, -1
  00010	77 20		 ja	 SHORT $LN21@Allocate
  00012	3d 00 01 00 00	 cmp	 eax, 256		; 00000100H
  00017	76 0f		 jbe	 SHORT $LN15@Allocate
  00019	50		 push	 eax
  0001a	8b ce		 mov	 ecx, esi
  0001c	e8 00 00 00 00	 call	 ?AllocateHeap@?$CTempBuffer@D$0BAA@VCCRTAllocator@ATL@@@ATL@@AAEXI@Z ; ATL::CTempBuffer<char,256,ATL::CCRTAllocator>::AllocateHeap
  00021	8b 06		 mov	 eax, DWORD PTR [esi]
  00023	5e		 pop	 esi

; 529  : 	}

  00024	5d		 pop	 ebp
  00025	c2 04 00	 ret	 4

; 528  : 		return( AllocateBytes( ::ATL::AtlMultiplyThrow(nElements,sizeof( T )) ) );

$LN15@Allocate:
  00028	8d 46 04	 lea	 eax, DWORD PTR [esi+4]
  0002b	89 06		 mov	 DWORD PTR [esi], eax
  0002d	5e		 pop	 esi

; 529  : 	}

  0002e	5d		 pop	 ebp
  0002f	c2 04 00	 ret	 4
$LN21@Allocate:

; 528  : 		return( AllocateBytes( ::ATL::AtlMultiplyThrow(nElements,sizeof( T )) ) );

  00032	68 16 02 07 80	 push	 -2147024362		; 80070216H
  00037	e8 00 00 00 00	 call	 ?AtlThrowImpl@ATL@@YGXJ@Z ; ATL::AtlThrowImpl
$LN22@Allocate:
$LN20@Allocate:
  0003c	cc		 int	 3
?Allocate@?$CTempBuffer@D$0BAA@VCCRTAllocator@ATL@@@ATL@@QAEPADI@Z ENDP ; ATL::CTempBuffer<char,256,ATL::CCRTAllocator>::Allocate
_TEXT	ENDS
; Function compile flags: /Ogtp
; File c:\program files (x86)\microsoft visual studio 14.0\vc\atlmfc\include\atlalloc.h
;	COMDAT ??B?$CTempBuffer@D$0BAA@VCCRTAllocator@ATL@@@ATL@@QBEPADXZ
_TEXT	SEGMENT
??B?$CTempBuffer@D$0BAA@VCCRTAllocator@ATL@@@ATL@@QBEPADXZ PROC ; ATL::CTempBuffer<char,256,ATL::CCRTAllocator>::operator char *, COMDAT
; _this$ = ecx

; 517  : 		return( m_p );

  00000	8b 01		 mov	 eax, DWORD PTR [ecx]

; 518  : 	}

  00002	c3		 ret	 0
??B?$CTempBuffer@D$0BAA@VCCRTAllocator@ATL@@@ATL@@QBEPADXZ ENDP ; ATL::CTempBuffer<char,256,ATL::CCRTAllocator>::operator char *
_TEXT	ENDS
; Function compile flags: /Ogtp
; File c:\program files (x86)\microsoft visual studio 14.0\vc\atlmfc\include\atlalloc.h
;	COMDAT ??1?$CTempBuffer@D$0BAA@VCCRTAllocator@ATL@@@ATL@@QAE@XZ
_TEXT	SEGMENT
??1?$CTempBuffer@D$0BAA@VCCRTAllocator@ATL@@@ATL@@QAE@XZ PROC ; ATL::CTempBuffer<char,256,ATL::CCRTAllocator>::~CTempBuffer<char,256,ATL::CCRTAllocator>, COMDAT
; _this$ = ecx

; 509  : 		if( m_p != reinterpret_cast< T* >( m_abFixedBuffer ) )

  00000	8d 41 04	 lea	 eax, DWORD PTR [ecx+4]
  00003	39 01		 cmp	 DWORD PTR [ecx], eax
  00005	0f 85 00 00 00
	00		 jne	 ?FreeHeap@?$CTempBuffer@D$0BAA@VCCRTAllocator@ATL@@@ATL@@AAEXXZ ; ATL::CTempBuffer<char,256,ATL::CCRTAllocator>::FreeHeap

; 510  : 		{
; 511  : 			FreeHeap();
; 512  : 		}
; 513  : 	}

  0000b	c3		 ret	 0
??1?$CTempBuffer@D$0BAA@VCCRTAllocator@ATL@@@ATL@@QAE@XZ ENDP ; ATL::CTempBuffer<char,256,ATL::CCRTAllocator>::~CTempBuffer<char,256,ATL::CCRTAllocator>
_TEXT	ENDS
; Function compile flags: /Ogtp
; File c:\program files (x86)\microsoft visual studio 14.0\vc\atlmfc\include\atlalloc.h
;	COMDAT ??0?$CTempBuffer@D$0BAA@VCCRTAllocator@ATL@@@ATL@@QAE@XZ
_TEXT	SEGMENT
??0?$CTempBuffer@D$0BAA@VCCRTAllocator@ATL@@@ATL@@QAE@XZ PROC ; ATL::CTempBuffer<char,256,ATL::CCRTAllocator>::CTempBuffer<char,256,ATL::CCRTAllocator>, COMDAT
; _this$ = ecx

; 496  : 		m_p( NULL )

  00000	c7 01 00 00 00
	00		 mov	 DWORD PTR [ecx], 0

; 498  : 	}

  00006	8b c1		 mov	 eax, ecx
  00008	c3		 ret	 0
??0?$CTempBuffer@D$0BAA@VCCRTAllocator@ATL@@@ATL@@QAE@XZ ENDP ; ATL::CTempBuffer<char,256,ATL::CCRTAllocator>::CTempBuffer<char,256,ATL::CCRTAllocator>
_TEXT	ENDS
; Function compile flags: /Ogtp
; File c:\program files (x86)\microsoft visual studio 14.0\vc\atlmfc\include\atlalloc.h
;	COMDAT ?FreeHeap@?$CTempBuffer@D$0EAA@VCCRTAllocator@ATL@@@ATL@@AAEXXZ
_TEXT	SEGMENT
?FreeHeap@?$CTempBuffer@D$0EAA@VCCRTAllocator@ATL@@@ATL@@AAEXXZ PROC ; ATL::CTempBuffer<char,1024,ATL::CCRTAllocator>::FreeHeap, COMDAT
; _this$ = ecx

; 604  : 		Allocator::Free( m_p );

  00000	ff 31		 push	 DWORD PTR [ecx]
  00002	e8 00 00 00 00	 call	 _free
  00007	59		 pop	 ecx

; 605  : 	}

  00008	c3		 ret	 0
?FreeHeap@?$CTempBuffer@D$0EAA@VCCRTAllocator@ATL@@@ATL@@AAEXXZ ENDP ; ATL::CTempBuffer<char,1024,ATL::CCRTAllocator>::FreeHeap
_TEXT	ENDS
; Function compile flags: /Ogtp
; File c:\program files (x86)\microsoft visual studio 14.0\vc\atlmfc\include\atlalloc.h
;	COMDAT ?AllocateHeap@?$CTempBuffer@D$0EAA@VCCRTAllocator@ATL@@@ATL@@AAEXI@Z
_TEXT	SEGMENT
_nBytes$ = 8						; size = 4
?AllocateHeap@?$CTempBuffer@D$0EAA@VCCRTAllocator@ATL@@@ATL@@AAEXI@Z PROC ; ATL::CTempBuffer<char,1024,ATL::CCRTAllocator>::AllocateHeap, COMDAT
; _this$ = ecx

; 583  : 	{

  00000	55		 push	 ebp
  00001	8b ec		 mov	 ebp, esp
  00003	56		 push	 esi

; 584  : 		T* p = static_cast< T* >( Allocator::Allocate( nBytes ) );

  00004	ff 75 08	 push	 DWORD PTR _nBytes$[ebp]
  00007	8b f1		 mov	 esi, ecx
  00009	e8 00 00 00 00	 call	 _malloc
  0000e	83 c4 04	 add	 esp, 4

; 585  : 		if( p == NULL )

  00011	85 c0		 test	 eax, eax
  00013	74 07		 je	 SHORT $LN7@AllocateHe

; 588  : 		}
; 589  : 		m_p = p;

  00015	89 06		 mov	 DWORD PTR [esi], eax
  00017	5e		 pop	 esi

; 590  : 	}

  00018	5d		 pop	 ebp
  00019	c2 04 00	 ret	 4
$LN7@AllocateHe:

; 586  : 		{
; 587  : 			AtlThrow( E_OUTOFMEMORY );

  0001c	68 0e 00 07 80	 push	 -2147024882		; 8007000eH
  00021	e8 00 00 00 00	 call	 ?AtlThrowImpl@ATL@@YGXJ@Z ; ATL::AtlThrowImpl
$LN9@AllocateHe:
$LN6@AllocateHe:
  00026	cc		 int	 3
?AllocateHeap@?$CTempBuffer@D$0EAA@VCCRTAllocator@ATL@@@ATL@@AAEXI@Z ENDP ; ATL::CTempBuffer<char,1024,ATL::CCRTAllocator>::AllocateHeap
_TEXT	ENDS
; Function compile flags: /Ogtp
; File c:\program files (x86)\microsoft visual studio 14.0\vc\atlmfc\include\atlalloc.h
;	COMDAT ?AllocateBytes@?$CTempBuffer@D$0EAA@VCCRTAllocator@ATL@@@ATL@@QAEPADI@Z
_TEXT	SEGMENT
_nBytes$ = 8						; size = 4
?AllocateBytes@?$CTempBuffer@D$0EAA@VCCRTAllocator@ATL@@@ATL@@QAEPADI@Z PROC ; ATL::CTempBuffer<char,1024,ATL::CCRTAllocator>::AllocateBytes, COMDAT
; _this$ = ecx

; 567  : 	{

  00000	55		 push	 ebp
  00001	8b ec		 mov	 ebp, esp

; 568  : 		ATLASSERT( m_p == NULL );
; 569  : 		if( nBytes > t_nFixedBytes )

  00003	8b 45 08	 mov	 eax, DWORD PTR _nBytes$[ebp]
  00006	56		 push	 esi
  00007	8b f1		 mov	 esi, ecx
  00009	3d 00 04 00 00	 cmp	 eax, 1024		; 00000400H
  0000e	76 0d		 jbe	 SHORT $LN2@AllocateBy

; 570  : 		{
; 571  : 			AllocateHeap( nBytes );

  00010	50		 push	 eax
  00011	e8 00 00 00 00	 call	 ?AllocateHeap@?$CTempBuffer@D$0EAA@VCCRTAllocator@ATL@@@ATL@@AAEXI@Z ; ATL::CTempBuffer<char,1024,ATL::CCRTAllocator>::AllocateHeap

; 576  : 		}
; 577  : 
; 578  : 		return( m_p );

  00016	8b 06		 mov	 eax, DWORD PTR [esi]
  00018	5e		 pop	 esi

; 579  : 	}

  00019	5d		 pop	 ebp
  0001a	c2 04 00	 ret	 4
$LN2@AllocateBy:

; 572  : 		}
; 573  : 		else
; 574  : 		{
; 575  : 			m_p = reinterpret_cast< T* >( m_abFixedBuffer );

  0001d	8d 46 04	 lea	 eax, DWORD PTR [esi+4]
  00020	89 06		 mov	 DWORD PTR [esi], eax
  00022	5e		 pop	 esi

; 579  : 	}

  00023	5d		 pop	 ebp
  00024	c2 04 00	 ret	 4
?AllocateBytes@?$CTempBuffer@D$0EAA@VCCRTAllocator@ATL@@@ATL@@QAEPADI@Z ENDP ; ATL::CTempBuffer<char,1024,ATL::CCRTAllocator>::AllocateBytes
_TEXT	ENDS
; Function compile flags: /Ogtp
; File c:\program files (x86)\microsoft visual studio 14.0\vc\atlmfc\include\atlalloc.h
;	COMDAT ?Allocate@?$CTempBuffer@D$0EAA@VCCRTAllocator@ATL@@@ATL@@QAEPADI@Z
_TEXT	SEGMENT
_nElements$ = 8						; size = 4
?Allocate@?$CTempBuffer@D$0EAA@VCCRTAllocator@ATL@@@ATL@@QAEPADI@Z PROC ; ATL::CTempBuffer<char,1024,ATL::CCRTAllocator>::Allocate, COMDAT
; _this$ = ecx

; 527  : 	{

  00000	55		 push	 ebp
  00001	8b ec		 mov	 ebp, esp

; 528  : 		return( AllocateBytes( ::ATL::AtlMultiplyThrow(nElements,sizeof( T )) ) );

  00003	8b 45 08	 mov	 eax, DWORD PTR _nElements$[ebp]
  00006	56		 push	 esi
  00007	8b f1		 mov	 esi, ecx
  00009	33 c9		 xor	 ecx, ecx
  0000b	77 25		 ja	 SHORT $LN21@Allocate
  0000d	83 f8 ff	 cmp	 eax, -1
  00010	77 20		 ja	 SHORT $LN21@Allocate
  00012	3d 00 04 00 00	 cmp	 eax, 1024		; 00000400H
  00017	76 0f		 jbe	 SHORT $LN15@Allocate
  00019	50		 push	 eax
  0001a	8b ce		 mov	 ecx, esi
  0001c	e8 00 00 00 00	 call	 ?AllocateHeap@?$CTempBuffer@D$0EAA@VCCRTAllocator@ATL@@@ATL@@AAEXI@Z ; ATL::CTempBuffer<char,1024,ATL::CCRTAllocator>::AllocateHeap
  00021	8b 06		 mov	 eax, DWORD PTR [esi]
  00023	5e		 pop	 esi

; 529  : 	}

  00024	5d		 pop	 ebp
  00025	c2 04 00	 ret	 4

; 528  : 		return( AllocateBytes( ::ATL::AtlMultiplyThrow(nElements,sizeof( T )) ) );

$LN15@Allocate:
  00028	8d 46 04	 lea	 eax, DWORD PTR [esi+4]
  0002b	89 06		 mov	 DWORD PTR [esi], eax
  0002d	5e		 pop	 esi

; 529  : 	}

  0002e	5d		 pop	 ebp
  0002f	c2 04 00	 ret	 4
$LN21@Allocate:

; 528  : 		return( AllocateBytes( ::ATL::AtlMultiplyThrow(nElements,sizeof( T )) ) );

  00032	68 16 02 07 80	 push	 -2147024362		; 80070216H
  00037	e8 00 00 00 00	 call	 ?AtlThrowImpl@ATL@@YGXJ@Z ; ATL::AtlThrowImpl
$LN22@Allocate:
$LN20@Allocate:
  0003c	cc		 int	 3
?Allocate@?$CTempBuffer@D$0EAA@VCCRTAllocator@ATL@@@ATL@@QAEPADI@Z ENDP ; ATL::CTempBuffer<char,1024,ATL::CCRTAllocator>::Allocate
_TEXT	ENDS
; Function compile flags: /Ogtp
; File c:\program files (x86)\microsoft visual studio 14.0\vc\atlmfc\include\atlalloc.h
;	COMDAT ??B?$CTempBuffer@D$0EAA@VCCRTAllocator@ATL@@@ATL@@QBEPADXZ
_TEXT	SEGMENT
??B?$CTempBuffer@D$0EAA@VCCRTAllocator@ATL@@@ATL@@QBEPADXZ PROC ; ATL::CTempBuffer<char,1024,ATL::CCRTAllocator>::operator char *, COMDAT
; _this$ = ecx

; 517  : 		return( m_p );

  00000	8b 01		 mov	 eax, DWORD PTR [ecx]

; 518  : 	}

  00002	c3		 ret	 0
??B?$CTempBuffer@D$0EAA@VCCRTAllocator@ATL@@@ATL@@QBEPADXZ ENDP ; ATL::CTempBuffer<char,1024,ATL::CCRTAllocator>::operator char *
_TEXT	ENDS
; Function compile flags: /Ogtp
; File c:\program files (x86)\microsoft visual studio 14.0\vc\atlmfc\include\atlalloc.h
;	COMDAT ??1?$CTempBuffer@D$0EAA@VCCRTAllocator@ATL@@@ATL@@QAE@XZ
_TEXT	SEGMENT
??1?$CTempBuffer@D$0EAA@VCCRTAllocator@ATL@@@ATL@@QAE@XZ PROC ; ATL::CTempBuffer<char,1024,ATL::CCRTAllocator>::~CTempBuffer<char,1024,ATL::CCRTAllocator>, COMDAT
; _this$ = ecx

; 509  : 		if( m_p != reinterpret_cast< T* >( m_abFixedBuffer ) )

  00000	8d 41 04	 lea	 eax, DWORD PTR [ecx+4]
  00003	39 01		 cmp	 DWORD PTR [ecx], eax
  00005	0f 85 00 00 00
	00		 jne	 ?FreeHeap@?$CTempBuffer@D$0EAA@VCCRTAllocator@ATL@@@ATL@@AAEXXZ ; ATL::CTempBuffer<char,1024,ATL::CCRTAllocator>::FreeHeap

; 510  : 		{
; 511  : 			FreeHeap();
; 512  : 		}
; 513  : 	}

  0000b	c3		 ret	 0
??1?$CTempBuffer@D$0EAA@VCCRTAllocator@ATL@@@ATL@@QAE@XZ ENDP ; ATL::CTempBuffer<char,1024,ATL::CCRTAllocator>::~CTempBuffer<char,1024,ATL::CCRTAllocator>
_TEXT	ENDS
; Function compile flags: /Ogtp
; File c:\program files (x86)\microsoft visual studio 14.0\vc\atlmfc\include\atlalloc.h
;	COMDAT ??0?$CTempBuffer@D$0EAA@VCCRTAllocator@ATL@@@ATL@@QAE@XZ
_TEXT	SEGMENT
??0?$CTempBuffer@D$0EAA@VCCRTAllocator@ATL@@@ATL@@QAE@XZ PROC ; ATL::CTempBuffer<char,1024,ATL::CCRTAllocator>::CTempBuffer<char,1024,ATL::CCRTAllocator>, COMDAT
; _this$ = ecx

; 496  : 		m_p( NULL )

  00000	c7 01 00 00 00
	00		 mov	 DWORD PTR [ecx], 0

; 498  : 	}

  00006	8b c1		 mov	 eax, ecx
  00008	c3		 ret	 0
??0?$CTempBuffer@D$0EAA@VCCRTAllocator@ATL@@@ATL@@QAE@XZ ENDP ; ATL::CTempBuffer<char,1024,ATL::CCRTAllocator>::CTempBuffer<char,1024,ATL::CCRTAllocator>
_TEXT	ENDS
; Function compile flags: /Ogtp
;	COMDAT ??_GCRegObject@ATL@@UAEPAXI@Z
_TEXT	SEGMENT
___flags$ = 8						; size = 4
??_GCRegObject@ATL@@UAEPAXI@Z PROC			; ATL::CRegObject::`scalar deleting destructor', COMDAT
; _this$ = ecx
  00000	55		 push	 ebp
  00001	8b ec		 mov	 ebp, esp
  00003	56		 push	 esi
  00004	8b f1		 mov	 esi, ecx
  00006	e8 00 00 00 00	 call	 ??1CRegObject@ATL@@UAE@XZ ; ATL::CRegObject::~CRegObject
  0000b	f6 45 08 01	 test	 BYTE PTR ___flags$[ebp], 1
  0000f	74 0b		 je	 SHORT $LN4@scalar
  00011	6a 2c		 push	 44			; 0000002cH
  00013	56		 push	 esi
  00014	e8 00 00 00 00	 call	 ??3@YAXPAXI@Z		; operator delete
  00019	83 c4 08	 add	 esp, 8
$LN4@scalar:
  0001c	8b c6		 mov	 eax, esi
  0001e	5e		 pop	 esi
  0001f	5d		 pop	 ebp
  00020	c2 04 00	 ret	 4
??_GCRegObject@ATL@@UAEPAXI@Z ENDP			; ATL::CRegObject::`scalar deleting destructor'
_TEXT	ENDS
; Function compile flags: /Ogtp
;	COMDAT ??0CRegObject@ATL@@QAE@XZ
_TEXT	SEGMENT
_this$ = -4						; size = 4
??0CRegObject@ATL@@QAE@XZ PROC				; ATL::CRegObject::CRegObject, COMDAT
; _this$ = ecx
  00000	55		 push	 ebp
  00001	8b ec		 mov	 ebp, esp
  00003	51		 push	 ecx
  00004	c7 01 00 00 00
	00		 mov	 DWORD PTR [ecx], OFFSET ??_7CRegObject@ATL@@6B@
  0000a	0f 57 c0	 xorps	 xmm0, xmm0
  0000d	c7 41 04 00 00
	00 00		 mov	 DWORD PTR [ecx+4], 0
  00014	8b c1		 mov	 eax, ecx
  00016	c7 41 08 00 00
	00 00		 mov	 DWORD PTR [ecx+8], 0
  0001d	c7 41 0c 00 00
	00 00		 mov	 DWORD PTR [ecx+12], 0
  00024	0f 11 41 10	 movups	 XMMWORD PTR [ecx+16], xmm0
  00028	89 4d fc	 mov	 DWORD PTR _this$[ebp], ecx
  0002b	66 0f d6 41 20	 movq	 QWORD PTR [ecx+32], xmm0
  00030	c6 41 28 00	 mov	 BYTE PTR [ecx+40], 0
  00034	8b e5		 mov	 esp, ebp
  00036	5d		 pop	 ebp
  00037	c3		 ret	 0
??0CRegObject@ATL@@QAE@XZ ENDP				; ATL::CRegObject::CRegObject
_TEXT	ENDS
; Function compile flags: /Ogtp
; File c:\program files (x86)\microsoft visual studio 14.0\vc\atlmfc\include\statreg.h
;	COMDAT ?RegisterFromResource@CRegObject@ATL@@IAEJPB_WPBD1H@Z
_TEXT	SEGMENT
tv437 = -1080						; size = 8
_parser$ = -1072					; size = 8
__AtlSafeAllocaManager$ = -1064				; size = 4
_szID$GSCopy$1$ = -1060					; size = 4
_dwSize$ = -1060					; size = 4
_szType$GSCopy$1$ = -1056				; size = 4
_hReg$ = -1056						; size = 4
_bstrFileName$GSCopy$1$ = -1052				; size = 4
_hInstResDll$ = -1052					; size = 4
_szReg$ = -1048						; size = 1028
__$ArrayPad$ = -20					; size = 4
__$EHRec$ = -16						; size = 16
_bstrFileName$ = 8					; size = 4
_szID$ = 12						; size = 4
_szType$ = 16						; size = 4
_bRegister$ = 20					; size = 4
?RegisterFromResource@CRegObject@ATL@@IAEJPB_WPBD1H@Z PROC ; ATL::CRegObject::RegisterFromResource, COMDAT
; _this$ = ecx

; 443  : {

  00000	55		 push	 ebp
  00001	8b ec		 mov	 ebp, esp
  00003	6a ff		 push	 -1
  00005	68 00 00 00 00	 push	 __ehhandler$?RegisterFromResource@CRegObject@ATL@@IAEJPB_WPBD1H@Z
  0000a	64 a1 00 00 00
	00		 mov	 eax, DWORD PTR fs:0
  00010	50		 push	 eax
  00011	81 ec 2c 04 00
	00		 sub	 esp, 1068		; 0000042cH
  00017	a1 00 00 00 00	 mov	 eax, DWORD PTR ___security_cookie
  0001c	33 c5		 xor	 eax, ebp
  0001e	89 45 ec	 mov	 DWORD PTR __$ArrayPad$[ebp], eax
  00021	53		 push	 ebx
  00022	56		 push	 esi
  00023	57		 push	 edi
  00024	50		 push	 eax
  00025	8d 45 f4	 lea	 eax, DWORD PTR __$EHRec$[ebp+4]
  00028	64 a3 00 00 00
	00		 mov	 DWORD PTR fs:0, eax
  0002e	89 65 f0	 mov	 DWORD PTR __$EHRec$[ebp], esp
  00031	8b 55 0c	 mov	 edx, DWORD PTR _szID$[ebp]

; 444  : 	USES_CONVERSION_EX;

  00034	33 f6		 xor	 esi, esi
  00036	8b 45 08	 mov	 eax, DWORD PTR _bstrFileName$[ebp]
  00039	89 95 dc fb ff
	ff		 mov	 DWORD PTR _szID$GSCopy$1$[ebp], edx
  0003f	8b 55 10	 mov	 edx, DWORD PTR _szType$[ebp]
  00042	89 85 e4 fb ff
	ff		 mov	 DWORD PTR _bstrFileName$GSCopy$1$[ebp], eax
  00048	89 95 e0 fb ff
	ff		 mov	 DWORD PTR _szType$GSCopy$1$[ebp], edx
  0004e	89 b5 d8 fb ff
	ff		 mov	 DWORD PTR __AtlSafeAllocaManager$[ebp], esi
  00054	89 75 fc	 mov	 DWORD PTR __$EHRec$[ebp+12], esi

; 445  : 
; 446  : 	HRESULT     hr;
; 447  : 	CRegParser  parser(this);

  00057	89 8d d4 fb ff
	ff		 mov	 DWORD PTR _parser$[ebp+4], ecx
  0005d	89 b5 d0 fb ff
	ff		 mov	 DWORD PTR _parser$[ebp], esi

; 448  : 	HINSTANCE   hInstResDll;
; 449  : 	HRSRC       hrscReg;
; 450  : 	HGLOBAL     hReg;
; 451  : 	DWORD       dwSize;
; 452  : 	LPSTR       szRegA;
; 453  : 	CTempBuffer<TCHAR, 1024> szReg;

  00063	89 b5 e8 fb ff
	ff		 mov	 DWORD PTR _szReg$[ebp], esi
  00069	c6 45 fc 01	 mov	 BYTE PTR __$EHRec$[ebp+12], 1

; 454  : 
; 455  : 	LPCTSTR lpszBSTRFileName = OLE2CT_EX(bstrFileName, _ATL_SAFE_ALLOCA_DEF_THRESHOLD);

  0006d	85 c0		 test	 eax, eax
  0006f	0f 84 10 02 00
	00		 je	 $LN105@RegisterFr
  00075	8b c8		 mov	 ecx, eax
  00077	8d 51 02	 lea	 edx, DWORD PTR [ecx+2]
  0007a	66 0f 1f 44 00
	00		 npad	 6
$LL108@RegisterFr:
  00080	66 8b 01	 mov	 ax, WORD PTR [ecx]
  00083	83 c1 02	 add	 ecx, 2
  00086	66 85 c0	 test	 ax, ax
  00089	75 f5		 jne	 SHORT $LL108@RegisterFr
  0008b	2b ca		 sub	 ecx, edx
  0008d	d1 f9		 sar	 ecx, 1
  0008f	8d 41 01	 lea	 eax, DWORD PTR [ecx+1]
  00092	b9 02 00 00 00	 mov	 ecx, 2
  00097	f7 e9		 imul	 ecx
  00099	8b f8		 mov	 edi, eax
  0009b	05 00 00 00 80	 add	 eax, -2147483648	; 80000000H
  000a0	83 d2 00	 adc	 edx, 0
  000a3	89 95 cc fb ff
	ff		 mov	 DWORD PTR tv437[ebp+4], edx
  000a9	0f 85 84 00 00
	00		 jne	 $LN109@RegisterFr
  000af	83 f8 ff	 cmp	 eax, -1
  000b2	77 7f		 ja	 SHORT $LN109@RegisterFr
  000b4	81 ff 00 04 00
	00		 cmp	 edi, 1024		; 00000400H
  000ba	7f 1b		 jg	 SHORT $LN17@RegisterFr
  000bc	57		 push	 edi
  000bd	e8 00 00 00 00	 call	 ?_AtlVerifyStackAvailable@_ATL_SAFE_ALLOCA_IMPL@ATL@@YA_NK@Z ; ATL::_ATL_SAFE_ALLOCA_IMPL::_AtlVerifyStackAvailable
  000c2	83 c4 04	 add	 esp, 4
  000c5	84 c0		 test	 al, al
  000c7	74 0e		 je	 SHORT $LN17@RegisterFr
  000c9	8b c7		 mov	 eax, edi
  000cb	e8 00 00 00 00	 call	 __alloca_probe_16
  000d0	89 65 f0	 mov	 DWORD PTR __$EHRec$[ebp], esp
  000d3	8b dc		 mov	 ebx, esp
  000d5	eb 2a		 jmp	 SHORT $LN45@RegisterFr
$LN17@RegisterFr:
  000d7	8b c7		 mov	 eax, edi
  000d9	f7 d0		 not	 eax
  000db	83 f8 08	 cmp	 eax, 8
  000de	72 49		 jb	 SHORT $LN106@RegisterFr
  000e0	8d 47 08	 lea	 eax, DWORD PTR [edi+8]
  000e3	50		 push	 eax
  000e4	e8 00 00 00 00	 call	 _malloc
  000e9	83 c4 04	 add	 esp, 4
  000ec	85 c0		 test	 eax, eax
  000ee	74 43		 je	 SHORT $LN109@RegisterFr
  000f0	8b f0		 mov	 esi, eax
  000f2	c7 00 00 00 00
	00		 mov	 DWORD PTR [eax], 0
  000f8	89 b5 d8 fb ff
	ff		 mov	 DWORD PTR __AtlSafeAllocaManager$[ebp], esi
  000fe	8d 58 08	 lea	 ebx, DWORD PTR [eax+8]
$LN45@RegisterFr:
  00101	85 db		 test	 ebx, ebx
  00103	74 2e		 je	 SHORT $LN109@RegisterFr
  00105	6a 00		 push	 0
  00107	6a 00		 push	 0
  00109	57		 push	 edi
  0010a	53		 push	 ebx
  0010b	6a ff		 push	 -1
  0010d	ff b5 e4 fb ff
	ff		 push	 DWORD PTR _bstrFileName$GSCopy$1$[ebp]
  00113	c6 03 00	 mov	 BYTE PTR [ebx], 0
  00116	6a 00		 push	 0
  00118	6a 03		 push	 3
  0011a	ff 15 00 00 00
	00		 call	 DWORD PTR __imp__WideCharToMultiByte@32
  00120	33 c9		 xor	 ecx, ecx
  00122	85 c0		 test	 eax, eax
  00124	0f 44 d9	 cmove	 ebx, ecx
  00127	eb 0c		 jmp	 SHORT $LN64@RegisterFr
$LN106@RegisterFr:
  00129	68 16 02 07 80	 push	 -2147024362		; 80070216H
  0012e	e8 00 00 00 00	 call	 ?AtlThrowImpl@ATL@@YGXJ@Z ; ATL::AtlThrowImpl
$LN114@RegisterFr:
$LN109@RegisterFr:
  00133	33 db		 xor	 ebx, ebx
$LN64@RegisterFr:

; 456  : #ifndef _UNICODE
; 457  : 	if (lpszBSTRFileName == NULL)

  00135	85 db		 test	 ebx, ebx
  00137	0f 84 48 01 00
	00		 je	 $LN105@RegisterFr

; 460  : 	}
; 461  : #endif // _UNICODE
; 462  : 
; 463  : 	hInstResDll = LoadLibraryEx(lpszBSTRFileName, NULL, LOAD_LIBRARY_AS_DATAFILE_EXCLUSIVE | LOAD_LIBRARY_AS_IMAGE_RESOURCE);

  0013d	6a 60		 push	 96			; 00000060H
  0013f	6a 00		 push	 0
  00141	53		 push	 ebx
  00142	ff 15 00 00 00
	00		 call	 DWORD PTR __imp__LoadLibraryExA@12
  00148	8b f8		 mov	 edi, eax
  0014a	89 bd e4 fb ff
	ff		 mov	 DWORD PTR _hInstResDll$[ebp], edi

; 464  : 
; 465  : 	if (NULL == hInstResDll)

  00150	85 ff		 test	 edi, edi
  00152	75 22		 jne	 SHORT $LN4@RegisterFr

; 466  : 	{
; 467  : 		// if library load failed using flags only valid on Vista+, fall back to using flags valid on XP
; 468  : 		hInstResDll = LoadLibraryEx(lpszBSTRFileName, NULL, LOAD_LIBRARY_AS_DATAFILE);

  00154	6a 02		 push	 2
  00156	50		 push	 eax
  00157	53		 push	 ebx
  00158	ff 15 00 00 00
	00		 call	 DWORD PTR __imp__LoadLibraryExA@12
  0015e	8b f8		 mov	 edi, eax
  00160	89 85 e4 fb ff
	ff		 mov	 DWORD PTR _hInstResDll$[ebp], eax

; 469  : 	}
; 470  : 
; 471  : 	if (NULL == hInstResDll)

  00166	85 ff		 test	 edi, edi
  00168	75 0c		 jne	 SHORT $LN4@RegisterFr

; 472  : 	{
; 473  : 		ATLTRACE(atlTraceRegistrar, 0, _T("Failed to LoadLibrary on %Ts\n"), bstrFileName);
; 474  : 		hr = AtlHresultFromLastError();

  0016a	e8 00 00 00 00	 call	 ?AtlHresultFromLastError@ATL@@YAJXZ ; ATL::AtlHresultFromLastError
  0016f	8b d8		 mov	 ebx, eax

; 475  : 		goto ReturnHR;

  00171	e9 df 00 00 00	 jmp	 $LN15@RegisterFr
$LN4@RegisterFr:

; 476  : 	}
; 477  : 
; 478  : 	hrscReg =FindResource((HMODULE)hInstResDll, szID, szType);

  00176	ff b5 e0 fb ff
	ff		 push	 DWORD PTR _szType$GSCopy$1$[ebp]
  0017c	ff b5 dc fb ff
	ff		 push	 DWORD PTR _szID$GSCopy$1$[ebp]
  00182	57		 push	 edi
  00183	ff 15 00 00 00
	00		 call	 DWORD PTR __imp__FindResourceA@12
  00189	8b d8		 mov	 ebx, eax

; 479  : 
; 480  : 	if (NULL == hrscReg)

  0018b	85 db		 test	 ebx, ebx
  0018d	75 0a		 jne	 SHORT $LN6@RegisterFr

; 481  : 	{
; 482  : 		ATLTRACE(atlTraceRegistrar, 0, (HIWORD(szID) == 0) ?
; 483  : 			_T("Failed to FindResource on ID:%d TYPE:%Ts\n") :
; 484  : 			_T("Failed to FindResource on ID:%Ts TYPE:%Ts\n"),
; 485  : 			szID, szType);
; 486  : 		hr = AtlHresultFromLastError();

  0018f	e8 00 00 00 00	 call	 ?AtlHresultFromLastError@ATL@@YAJXZ ; ATL::AtlHresultFromLastError

; 487  : 		goto ReturnHR;

  00194	e9 af 00 00 00	 jmp	 $LN112@RegisterFr
$LN6@RegisterFr:

; 488  : 	}
; 489  : 	hReg = LoadResource((HMODULE)hInstResDll, hrscReg);

  00199	53		 push	 ebx
  0019a	57		 push	 edi
  0019b	ff 15 00 00 00
	00		 call	 DWORD PTR __imp__LoadResource@8
  001a1	89 85 e0 fb ff
	ff		 mov	 DWORD PTR _hReg$[ebp], eax

; 490  : 
; 491  : 	if (NULL == hReg)

  001a7	85 c0		 test	 eax, eax
  001a9	75 0a		 jne	 SHORT $LN8@RegisterFr

; 492  : 	{
; 493  : 		ATLTRACE(atlTraceRegistrar, 0, _T("Failed to LoadResource\n"));
; 494  : 		hr = AtlHresultFromLastError();

  001ab	e8 00 00 00 00	 call	 ?AtlHresultFromLastError@ATL@@YAJXZ ; ATL::AtlHresultFromLastError

; 495  : 		goto ReturnHR;

  001b0	e9 93 00 00 00	 jmp	 $LN112@RegisterFr
$LN8@RegisterFr:

; 496  : 	}
; 497  : 
; 498  : 	dwSize = SizeofResource((HMODULE)hInstResDll, hrscReg);

  001b5	53		 push	 ebx
  001b6	57		 push	 edi
  001b7	ff 15 00 00 00
	00		 call	 DWORD PTR __imp__SizeofResource@8
  001bd	8b d8		 mov	 ebx, eax
  001bf	89 9d dc fb ff
	ff		 mov	 DWORD PTR _dwSize$[ebp], ebx

; 499  : 	szRegA = (LPSTR)hReg;
; 500  : 
; 501  : 	// Allocate extra space for NULL.
; 502  : 	if (dwSize + 1 < dwSize)

  001c5	8d 43 01	 lea	 eax, DWORD PTR [ebx+1]
  001c8	3b c3		 cmp	 eax, ebx
  001ca	73 07		 jae	 SHORT $LN10@RegisterFr

; 503  : 	{
; 504  : 		hr = E_OUTOFMEMORY;

  001cc	bb 0e 00 07 80	 mov	 ebx, -2147024882	; 8007000eH

; 505  : 		goto ReturnHR;

  001d1	eb 77		 jmp	 SHORT $ReturnHR$115
$LN10@RegisterFr:

; 506  : 	}
; 507  : 
; 508  : 	ATLTRY(szReg.Allocate(dwSize + 1));

  001d3	50		 push	 eax
  001d4	8d 8d e8 fb ff
	ff		 lea	 ecx, DWORD PTR _szReg$[ebp]
  001da	c6 45 fc 02	 mov	 BYTE PTR __$EHRec$[ebp+12], 2
  001de	e8 00 00 00 00	 call	 ?Allocate@?$CTempBuffer@D$0EAA@VCCRTAllocator@ATL@@@ATL@@QAEPADI@Z ; ATL::CTempBuffer<char,1024,ATL::CCRTAllocator>::Allocate
  001e3	eb 18		 jmp	 SHORT $LN113@RegisterFr
__catch$?RegisterFromResource@CRegObject@ATL@@IAEJPB_WPBD1H@Z$4:
  001e5	b8 00 00 00 00	 mov	 eax, $LN28@RegisterFr
  001ea	c3		 ret	 0
$LN28@RegisterFr:
  001eb	8b b5 d8 fb ff
	ff		 mov	 esi, DWORD PTR __AtlSafeAllocaManager$[ebp]
  001f1	8b bd e4 fb ff
	ff		 mov	 edi, DWORD PTR _hInstResDll$[ebp]
  001f7	8b 9d dc fb ff
	ff		 mov	 ebx, DWORD PTR _dwSize$[ebp]
$LN113@RegisterFr:

; 509  : 	if (szReg == NULL)

  001fd	83 bd e8 fb ff
	ff 00		 cmp	 DWORD PTR _szReg$[ebp], 0
  00204	c7 45 fc 01 00
	00 00		 mov	 DWORD PTR __$EHRec$[ebp+12], 1
  0020b	75 07		 jne	 SHORT $LN13@RegisterFr

; 510  : 	{
; 511  : 		hr = E_OUTOFMEMORY;

  0020d	bb 0e 00 07 80	 mov	 ebx, -2147024882	; 8007000eH

; 512  : 		goto ReturnHR;

  00212	eb 36		 jmp	 SHORT $ReturnHR$115
$LN13@RegisterFr:

; 513  : 	}
; 514  : 
; 515  : #ifdef _UNICODE
; 516  : 	DWORD uniSize = ::MultiByteToWideChar(_AtlGetConversionACP(), 0, szRegA, dwSize, szReg, dwSize);
; 517  : 	if (uniSize == 0)
; 518  : 	{
; 519  : 		hr = AtlHresultFromLastError();
; 520  : 		goto ReturnHR;
; 521  : 	}
; 522  : 	// Append a NULL at the end.
; 523  : 	szReg[uniSize] = _T('\0');
; 524  : #else
; 525  : 	Checked::memcpy_s(szReg, dwSize, szRegA, dwSize);

  00214	53		 push	 ebx
  00215	ff b5 e0 fb ff
	ff		 push	 DWORD PTR _hReg$[ebp]
  0021b	53		 push	 ebx
  0021c	ff b5 e8 fb ff
	ff		 push	 DWORD PTR _szReg$[ebp]
  00222	e8 00 00 00 00	 call	 ?memcpy_s@Checked@ATL@@YAXPAXIPBXI@Z ; ATL::Checked::memcpy_s

; 526  : 	// Append a NULL at the end.
; 527  :    	szReg[dwSize] = _T('\0');

  00227	8b 85 e8 fb ff
	ff		 mov	 eax, DWORD PTR _szReg$[ebp]

; 528  : #endif
; 529  : 
; 530  : 	hr = parser.RegisterBuffer(szReg, bRegister);

  0022d	8d 8d d0 fb ff
	ff		 lea	 ecx, DWORD PTR _parser$[ebp]
  00233	83 c4 10	 add	 esp, 16			; 00000010H
  00236	c6 04 18 00	 mov	 BYTE PTR [eax+ebx], 0
  0023a	ff 75 14	 push	 DWORD PTR _bRegister$[ebp]
  0023d	ff b5 e8 fb ff
	ff		 push	 DWORD PTR _szReg$[ebp]
  00243	e8 00 00 00 00	 call	 ?RegisterBuffer@CRegParser@ATL@@QAEJPADH@Z ; ATL::CRegParser::RegisterBuffer
$LN112@RegisterFr:
  00248	8b d8		 mov	 ebx, eax
$ReturnHR$115:

; 531  : 
; 532  : ReturnHR:
; 533  : 
; 534  : 	if (NULL != hInstResDll)

  0024a	85 ff		 test	 edi, edi
  0024c	74 07		 je	 SHORT $LN15@RegisterFr

; 535  : 		FreeLibrary((HMODULE)hInstResDll);

  0024e	57		 push	 edi
  0024f	ff 15 00 00 00
	00		 call	 DWORD PTR __imp__FreeLibrary@4
$LN15@RegisterFr:

; 536  : 	return hr;

  00255	8d 85 ec fb ff
	ff		 lea	 eax, DWORD PTR _szReg$[ebp+4]
  0025b	39 85 e8 fb ff
	ff		 cmp	 DWORD PTR _szReg$[ebp], eax
  00261	74 0b		 je	 SHORT $LN88@RegisterFr
  00263	8d 8d e8 fb ff
	ff		 lea	 ecx, DWORD PTR _szReg$[ebp]
  00269	e8 00 00 00 00	 call	 ?FreeHeap@?$CTempBuffer@D$0EAA@VCCRTAllocator@ATL@@@ATL@@AAEXXZ ; ATL::CTempBuffer<char,1024,ATL::CCRTAllocator>::FreeHeap
$LN88@RegisterFr:
  0026e	85 f6		 test	 esi, esi
  00270	74 0f		 je	 SHORT $LN92@RegisterFr
$LL91@RegisterFr:
  00272	56		 push	 esi
  00273	8b 36		 mov	 esi, DWORD PTR [esi]
  00275	e8 00 00 00 00	 call	 _free
  0027a	83 c4 04	 add	 esp, 4
  0027d	85 f6		 test	 esi, esi
  0027f	75 f1		 jne	 SHORT $LL91@RegisterFr
$LN92@RegisterFr:
  00281	8b c3		 mov	 eax, ebx
  00283	eb 31		 jmp	 SHORT $LN1@RegisterFr
$LN105@RegisterFr:

; 458  : 	{
; 459  : 		return E_OUTOFMEMORY;

  00285	8d 85 ec fb ff
	ff		 lea	 eax, DWORD PTR _szReg$[ebp+4]
  0028b	39 85 e8 fb ff
	ff		 cmp	 DWORD PTR _szReg$[ebp], eax
  00291	74 0b		 je	 SHORT $LN70@RegisterFr
  00293	8d 8d e8 fb ff
	ff		 lea	 ecx, DWORD PTR _szReg$[ebp]
  00299	e8 00 00 00 00	 call	 ?FreeHeap@?$CTempBuffer@D$0EAA@VCCRTAllocator@ATL@@@ATL@@AAEXXZ ; ATL::CTempBuffer<char,1024,ATL::CCRTAllocator>::FreeHeap
$LN70@RegisterFr:
  0029e	85 f6		 test	 esi, esi
  002a0	74 0f		 je	 SHORT $LN74@RegisterFr
$LL73@RegisterFr:
  002a2	56		 push	 esi
  002a3	8b 36		 mov	 esi, DWORD PTR [esi]
  002a5	e8 00 00 00 00	 call	 _free
  002aa	83 c4 04	 add	 esp, 4
  002ad	85 f6		 test	 esi, esi
  002af	75 f1		 jne	 SHORT $LL73@RegisterFr
$LN74@RegisterFr:
  002b1	b8 0e 00 07 80	 mov	 eax, -2147024882	; 8007000eH
$LN1@RegisterFr:

; 537  : }

  002b6	8d a5 b8 fb ff
	ff		 lea	 esp, DWORD PTR [ebp-1096]
  002bc	8b 4d f4	 mov	 ecx, DWORD PTR __$EHRec$[ebp+4]
  002bf	64 89 0d 00 00
	00 00		 mov	 DWORD PTR fs:0, ecx
  002c6	59		 pop	 ecx
  002c7	5f		 pop	 edi
  002c8	5e		 pop	 esi
  002c9	5b		 pop	 ebx
  002ca	8b 4d ec	 mov	 ecx, DWORD PTR __$ArrayPad$[ebp]
  002cd	33 cd		 xor	 ecx, ebp
  002cf	e8 00 00 00 00	 call	 @__security_check_cookie@4
  002d4	8b e5		 mov	 esp, ebp
  002d6	5d		 pop	 ebp
  002d7	c2 10 00	 ret	 16			; 00000010H
$LN111@RegisterFr:
_TEXT	ENDS
;	COMDAT text$x
text$x	SEGMENT
__unwindfunclet$?RegisterFromResource@CRegObject@ATL@@IAEJPB_WPBD1H@Z$7:
  00000	8d 8d d8 fb ff
	ff		 lea	 ecx, DWORD PTR __AtlSafeAllocaManager$[ebp]
  00006	e9 00 00 00 00	 jmp	 ??1?$CAtlSafeAllocBufferManager@VCCRTAllocator@ATL@@@_ATL_SAFE_ALLOCA_IMPL@ATL@@QAE@XZ ; ATL::_ATL_SAFE_ALLOCA_IMPL::CAtlSafeAllocBufferManager<ATL::CCRTAllocator>::~CAtlSafeAllocBufferManager<ATL::CCRTAllocator>
__unwindfunclet$?RegisterFromResource@CRegObject@ATL@@IAEJPB_WPBD1H@Z$8:
  0000b	8d 8d e8 fb ff
	ff		 lea	 ecx, DWORD PTR _szReg$[ebp]
  00011	e9 00 00 00 00	 jmp	 ??1?$CTempBuffer@D$0EAA@VCCRTAllocator@ATL@@@ATL@@QAE@XZ ; ATL::CTempBuffer<char,1024,ATL::CCRTAllocator>::~CTempBuffer<char,1024,ATL::CCRTAllocator>
__ehhandler$?RegisterFromResource@CRegObject@ATL@@IAEJPB_WPBD1H@Z:
  00016	8b 54 24 08	 mov	 edx, DWORD PTR [esp+8]
  0001a	8d 42 0c	 lea	 eax, DWORD PTR [edx+12]
  0001d	8b 8a c4 fb ff
	ff		 mov	 ecx, DWORD PTR [edx-1084]
  00023	33 c8		 xor	 ecx, eax
  00025	e8 00 00 00 00	 call	 @__security_check_cookie@4
  0002a	8b 4a f8	 mov	 ecx, DWORD PTR [edx-8]
  0002d	33 c8		 xor	 ecx, eax
  0002f	e8 00 00 00 00	 call	 @__security_check_cookie@4
  00034	b8 00 00 00 00	 mov	 eax, OFFSET __ehfuncinfo$?RegisterFromResource@CRegObject@ATL@@IAEJPB_WPBD1H@Z
  00039	e9 00 00 00 00	 jmp	 ___CxxFrameHandler3
text$x	ENDS
?RegisterFromResource@CRegObject@ATL@@IAEJPB_WPBD1H@Z ENDP ; ATL::CRegObject::RegisterFromResource
; Function compile flags: /Ogtp
; File c:\program files (x86)\microsoft visual studio 14.0\vc\atlmfc\include\statreg.h
;	COMDAT ?ResourceUnregister@CRegObject@ATL@@QAGJPB_WI0@Z
_TEXT	SEGMENT
tv262 = -28						; size = 8
__AtlSafeAllocaManager$ = -20				; size = 4
__$ArrayPad$ = -16					; size = 4
__$EHRec$ = -12						; size = 12
_this$ = 8						; size = 4
_szFileName$ = 12					; size = 4
_nID$ = 16						; size = 4
_szType$ = 20						; size = 4
?ResourceUnregister@CRegObject@ATL@@QAGJPB_WI0@Z PROC	; ATL::CRegObject::ResourceUnregister, COMDAT

; 581  : {

  00000	55		 push	 ebp
  00001	8b ec		 mov	 ebp, esp
  00003	6a ff		 push	 -1
  00005	68 00 00 00 00	 push	 __ehhandler$?ResourceUnregister@CRegObject@ATL@@QAGJPB_WI0@Z
  0000a	64 a1 00 00 00
	00		 mov	 eax, DWORD PTR fs:0
  00010	50		 push	 eax
  00011	83 ec 10	 sub	 esp, 16			; 00000010H
  00014	a1 00 00 00 00	 mov	 eax, DWORD PTR ___security_cookie
  00019	33 c5		 xor	 eax, ebp
  0001b	89 45 f0	 mov	 DWORD PTR __$ArrayPad$[ebp], eax
  0001e	53		 push	 ebx
  0001f	56		 push	 esi
  00020	57		 push	 edi
  00021	50		 push	 eax
  00022	8d 45 f4	 lea	 eax, DWORD PTR __$EHRec$[ebp]
  00025	64 a3 00 00 00
	00		 mov	 DWORD PTR fs:0, eax

; 582  : 	USES_CONVERSION_EX;

  0002b	33 f6		 xor	 esi, esi
  0002d	89 75 ec	 mov	 DWORD PTR __AtlSafeAllocaManager$[ebp], esi

; 583  : 
; 584  : 	LPCTSTR lpszT = OLE2CT_EX(szType, _ATL_SAFE_ALLOCA_DEF_THRESHOLD);

  00030	8b 45 14	 mov	 eax, DWORD PTR _szType$[ebp]
  00033	89 75 fc	 mov	 DWORD PTR __$EHRec$[ebp+8], esi
  00036	85 c0		 test	 eax, eax
  00038	0f 84 c4 00 00
	00		 je	 $LN59@ResourceUn
  0003e	8b c8		 mov	 ecx, eax
  00040	8d 51 02	 lea	 edx, DWORD PTR [ecx+2]
$LL62@ResourceUn:
  00043	66 8b 01	 mov	 ax, WORD PTR [ecx]
  00046	83 c1 02	 add	 ecx, 2
  00049	66 85 c0	 test	 ax, ax
  0004c	75 f5		 jne	 SHORT $LL62@ResourceUn
  0004e	2b ca		 sub	 ecx, edx
  00050	d1 f9		 sar	 ecx, 1
  00052	8d 41 01	 lea	 eax, DWORD PTR [ecx+1]
  00055	b9 02 00 00 00	 mov	 ecx, 2
  0005a	f7 e9		 imul	 ecx
  0005c	8b f8		 mov	 edi, eax
  0005e	05 00 00 00 80	 add	 eax, -2147483648	; 80000000H
  00063	83 d2 00	 adc	 edx, 0
  00066	89 55 e8	 mov	 DWORD PTR tv262[ebp+4], edx
  00069	75 7a		 jne	 SHORT $LN63@ResourceUn
  0006b	83 f8 ff	 cmp	 eax, -1
  0006e	77 75		 ja	 SHORT $LN63@ResourceUn
  00070	81 ff 00 04 00
	00		 cmp	 edi, 1024		; 00000400H
  00076	7f 18		 jg	 SHORT $LN4@ResourceUn
  00078	57		 push	 edi
  00079	e8 00 00 00 00	 call	 ?_AtlVerifyStackAvailable@_ATL_SAFE_ALLOCA_IMPL@ATL@@YA_NK@Z ; ATL::_ATL_SAFE_ALLOCA_IMPL::_AtlVerifyStackAvailable
  0007e	83 c4 04	 add	 esp, 4
  00081	84 c0		 test	 al, al
  00083	74 0b		 je	 SHORT $LN4@ResourceUn
  00085	8b c7		 mov	 eax, edi
  00087	e8 00 00 00 00	 call	 __alloca_probe_16
  0008c	8b dc		 mov	 ebx, esp
  0008e	eb 27		 jmp	 SHORT $LN24@ResourceUn
$LN4@ResourceUn:
  00090	8b c7		 mov	 eax, edi
  00092	f7 d0		 not	 eax
  00094	83 f8 08	 cmp	 eax, 8
  00097	72 42		 jb	 SHORT $LN60@ResourceUn
  00099	8d 47 08	 lea	 eax, DWORD PTR [edi+8]
  0009c	50		 push	 eax
  0009d	e8 00 00 00 00	 call	 _malloc
  000a2	83 c4 04	 add	 esp, 4
  000a5	85 c0		 test	 eax, eax
  000a7	74 3c		 je	 SHORT $LN63@ResourceUn
  000a9	8b f0		 mov	 esi, eax
  000ab	c7 00 00 00 00
	00		 mov	 DWORD PTR [eax], 0
  000b1	89 75 ec	 mov	 DWORD PTR __AtlSafeAllocaManager$[ebp], esi
  000b4	8d 58 08	 lea	 ebx, DWORD PTR [eax+8]
$LN24@ResourceUn:
  000b7	85 db		 test	 ebx, ebx
  000b9	74 2a		 je	 SHORT $LN63@ResourceUn
  000bb	6a 00		 push	 0
  000bd	6a 00		 push	 0
  000bf	57		 push	 edi
  000c0	53		 push	 ebx
  000c1	6a ff		 push	 -1
  000c3	ff 75 14	 push	 DWORD PTR _szType$[ebp]
  000c6	c6 03 00	 mov	 BYTE PTR [ebx], 0
  000c9	6a 00		 push	 0
  000cb	6a 03		 push	 3
  000cd	ff 15 00 00 00
	00		 call	 DWORD PTR __imp__WideCharToMultiByte@32
  000d3	f7 d8		 neg	 eax
  000d5	1b c0		 sbb	 eax, eax
  000d7	23 c3		 and	 eax, ebx
  000d9	eb 0c		 jmp	 SHORT $LN43@ResourceUn
$LN60@ResourceUn:
  000db	68 16 02 07 80	 push	 -2147024362		; 80070216H
  000e0	e8 00 00 00 00	 call	 ?AtlThrowImpl@ATL@@YGXJ@Z ; ATL::AtlThrowImpl
$LN66@ResourceUn:
$LN63@ResourceUn:
  000e5	33 c0		 xor	 eax, eax
$LN43@ResourceUn:

; 585  : #ifndef _UNICODE
; 586  : 	if (lpszT == NULL)

  000e7	85 c0		 test	 eax, eax
  000e9	74 17		 je	 SHORT $LN59@ResourceUn

; 587  : 	{
; 588  : 		return E_OUTOFMEMORY;
; 589  : 	}
; 590  : #endif // _UNICODE
; 591  : 	return RegisterFromResource(szFileName, MAKEINTRESOURCE(nID), lpszT, FALSE);

  000eb	8b 4d 08	 mov	 ecx, DWORD PTR _this$[ebp]
  000ee	6a 00		 push	 0
  000f0	50		 push	 eax
  000f1	0f b7 45 10	 movzx	 eax, WORD PTR _nID$[ebp]
  000f5	50		 push	 eax
  000f6	ff 75 0c	 push	 DWORD PTR _szFileName$[ebp]
  000f9	e8 00 00 00 00	 call	 ?RegisterFromResource@CRegObject@ATL@@IAEJPB_WPBD1H@Z ; ATL::CRegObject::RegisterFromResource
  000fe	8b f8		 mov	 edi, eax
  00100	eb 05		 jmp	 SHORT $LN11@ResourceUn
$LN59@ResourceUn:
  00102	bf 0e 00 07 80	 mov	 edi, -2147024882	; 8007000eH
$LN11@ResourceUn:
  00107	85 f6		 test	 esi, esi
  00109	74 14		 je	 SHORT $LN50@ResourceUn
  0010b	0f 1f 44 00 00	 npad	 5
$LL49@ResourceUn:
  00110	56		 push	 esi
  00111	8b 36		 mov	 esi, DWORD PTR [esi]
  00113	e8 00 00 00 00	 call	 _free
  00118	83 c4 04	 add	 esp, 4
  0011b	85 f6		 test	 esi, esi
  0011d	75 f1		 jne	 SHORT $LL49@ResourceUn
$LN50@ResourceUn:
  0011f	8b c7		 mov	 eax, edi

; 592  : }

  00121	8d 65 d4	 lea	 esp, DWORD PTR [ebp-44]
  00124	8b 4d f4	 mov	 ecx, DWORD PTR __$EHRec$[ebp]
  00127	64 89 0d 00 00
	00 00		 mov	 DWORD PTR fs:0, ecx
  0012e	59		 pop	 ecx
  0012f	5f		 pop	 edi
  00130	5e		 pop	 esi
  00131	5b		 pop	 ebx
  00132	8b 4d f0	 mov	 ecx, DWORD PTR __$ArrayPad$[ebp]
  00135	33 cd		 xor	 ecx, ebp
  00137	e8 00 00 00 00	 call	 @__security_check_cookie@4
  0013c	8b e5		 mov	 esp, ebp
  0013e	5d		 pop	 ebp
  0013f	c2 10 00	 ret	 16			; 00000010H
$LN65@ResourceUn:
_TEXT	ENDS
;	COMDAT text$x
text$x	SEGMENT
__unwindfunclet$?ResourceUnregister@CRegObject@ATL@@QAGJPB_WI0@Z$0:
  00000	8d 4d ec	 lea	 ecx, DWORD PTR __AtlSafeAllocaManager$[ebp]
  00003	e9 00 00 00 00	 jmp	 ??1?$CAtlSafeAllocBufferManager@VCCRTAllocator@ATL@@@_ATL_SAFE_ALLOCA_IMPL@ATL@@QAE@XZ ; ATL::_ATL_SAFE_ALLOCA_IMPL::CAtlSafeAllocBufferManager<ATL::CCRTAllocator>::~CAtlSafeAllocBufferManager<ATL::CCRTAllocator>
__ehhandler$?ResourceUnregister@CRegObject@ATL@@QAGJPB_WI0@Z:
  00008	8b 54 24 08	 mov	 edx, DWORD PTR [esp+8]
  0000c	8d 42 0c	 lea	 eax, DWORD PTR [edx+12]
  0000f	8b 4a e0	 mov	 ecx, DWORD PTR [edx-32]
  00012	33 c8		 xor	 ecx, eax
  00014	e8 00 00 00 00	 call	 @__security_check_cookie@4
  00019	8b 4a fc	 mov	 ecx, DWORD PTR [edx-4]
  0001c	33 c8		 xor	 ecx, eax
  0001e	e8 00 00 00 00	 call	 @__security_check_cookie@4
  00023	b8 00 00 00 00	 mov	 eax, OFFSET __ehfuncinfo$?ResourceUnregister@CRegObject@ATL@@QAGJPB_WI0@Z
  00028	e9 00 00 00 00	 jmp	 ___CxxFrameHandler3
text$x	ENDS
?ResourceUnregister@CRegObject@ATL@@QAGJPB_WI0@Z ENDP	; ATL::CRegObject::ResourceUnregister
; Function compile flags: /Ogtp
; File c:\program files (x86)\microsoft visual studio 14.0\vc\atlmfc\include\statreg.h
;	COMDAT ?ResourceRegister@CRegObject@ATL@@QAGJPB_WI0@Z
_TEXT	SEGMENT
tv262 = -28						; size = 8
__AtlSafeAllocaManager$ = -20				; size = 4
__$ArrayPad$ = -16					; size = 4
__$EHRec$ = -12						; size = 12
_this$ = 8						; size = 4
_szFileName$ = 12					; size = 4
_nID$ = 16						; size = 4
_szType$ = 20						; size = 4
?ResourceRegister@CRegObject@ATL@@QAGJPB_WI0@Z PROC	; ATL::CRegObject::ResourceRegister, COMDAT

; 543  : {

  00000	55		 push	 ebp
  00001	8b ec		 mov	 ebp, esp
  00003	6a ff		 push	 -1
  00005	68 00 00 00 00	 push	 __ehhandler$?ResourceRegister@CRegObject@ATL@@QAGJPB_WI0@Z
  0000a	64 a1 00 00 00
	00		 mov	 eax, DWORD PTR fs:0
  00010	50		 push	 eax
  00011	83 ec 10	 sub	 esp, 16			; 00000010H
  00014	a1 00 00 00 00	 mov	 eax, DWORD PTR ___security_cookie
  00019	33 c5		 xor	 eax, ebp
  0001b	89 45 f0	 mov	 DWORD PTR __$ArrayPad$[ebp], eax
  0001e	53		 push	 ebx
  0001f	56		 push	 esi
  00020	57		 push	 edi
  00021	50		 push	 eax
  00022	8d 45 f4	 lea	 eax, DWORD PTR __$EHRec$[ebp]
  00025	64 a3 00 00 00
	00		 mov	 DWORD PTR fs:0, eax

; 544  : 	USES_CONVERSION_EX;

  0002b	33 f6		 xor	 esi, esi
  0002d	89 75 ec	 mov	 DWORD PTR __AtlSafeAllocaManager$[ebp], esi

; 545  : 
; 546  : 	LPCTSTR lpszT = OLE2CT_EX(szType, _ATL_SAFE_ALLOCA_DEF_THRESHOLD);

  00030	8b 45 14	 mov	 eax, DWORD PTR _szType$[ebp]
  00033	89 75 fc	 mov	 DWORD PTR __$EHRec$[ebp+8], esi
  00036	85 c0		 test	 eax, eax
  00038	0f 84 c4 00 00
	00		 je	 $LN59@ResourceRe
  0003e	8b c8		 mov	 ecx, eax
  00040	8d 51 02	 lea	 edx, DWORD PTR [ecx+2]
$LL62@ResourceRe:
  00043	66 8b 01	 mov	 ax, WORD PTR [ecx]
  00046	83 c1 02	 add	 ecx, 2
  00049	66 85 c0	 test	 ax, ax
  0004c	75 f5		 jne	 SHORT $LL62@ResourceRe
  0004e	2b ca		 sub	 ecx, edx
  00050	d1 f9		 sar	 ecx, 1
  00052	8d 41 01	 lea	 eax, DWORD PTR [ecx+1]
  00055	b9 02 00 00 00	 mov	 ecx, 2
  0005a	f7 e9		 imul	 ecx
  0005c	8b f8		 mov	 edi, eax
  0005e	05 00 00 00 80	 add	 eax, -2147483648	; 80000000H
  00063	83 d2 00	 adc	 edx, 0
  00066	89 55 e8	 mov	 DWORD PTR tv262[ebp+4], edx
  00069	75 7a		 jne	 SHORT $LN63@ResourceRe
  0006b	83 f8 ff	 cmp	 eax, -1
  0006e	77 75		 ja	 SHORT $LN63@ResourceRe
  00070	81 ff 00 04 00
	00		 cmp	 edi, 1024		; 00000400H
  00076	7f 18		 jg	 SHORT $LN4@ResourceRe
  00078	57		 push	 edi
  00079	e8 00 00 00 00	 call	 ?_AtlVerifyStackAvailable@_ATL_SAFE_ALLOCA_IMPL@ATL@@YA_NK@Z ; ATL::_ATL_SAFE_ALLOCA_IMPL::_AtlVerifyStackAvailable
  0007e	83 c4 04	 add	 esp, 4
  00081	84 c0		 test	 al, al
  00083	74 0b		 je	 SHORT $LN4@ResourceRe
  00085	8b c7		 mov	 eax, edi
  00087	e8 00 00 00 00	 call	 __alloca_probe_16
  0008c	8b dc		 mov	 ebx, esp
  0008e	eb 27		 jmp	 SHORT $LN24@ResourceRe
$LN4@ResourceRe:
  00090	8b c7		 mov	 eax, edi
  00092	f7 d0		 not	 eax
  00094	83 f8 08	 cmp	 eax, 8
  00097	72 42		 jb	 SHORT $LN60@ResourceRe
  00099	8d 47 08	 lea	 eax, DWORD PTR [edi+8]
  0009c	50		 push	 eax
  0009d	e8 00 00 00 00	 call	 _malloc
  000a2	83 c4 04	 add	 esp, 4
  000a5	85 c0		 test	 eax, eax
  000a7	74 3c		 je	 SHORT $LN63@ResourceRe
  000a9	8b f0		 mov	 esi, eax
  000ab	c7 00 00 00 00
	00		 mov	 DWORD PTR [eax], 0
  000b1	89 75 ec	 mov	 DWORD PTR __AtlSafeAllocaManager$[ebp], esi
  000b4	8d 58 08	 lea	 ebx, DWORD PTR [eax+8]
$LN24@ResourceRe:
  000b7	85 db		 test	 ebx, ebx
  000b9	74 2a		 je	 SHORT $LN63@ResourceRe
  000bb	6a 00		 push	 0
  000bd	6a 00		 push	 0
  000bf	57		 push	 edi
  000c0	53		 push	 ebx
  000c1	6a ff		 push	 -1
  000c3	ff 75 14	 push	 DWORD PTR _szType$[ebp]
  000c6	c6 03 00	 mov	 BYTE PTR [ebx], 0
  000c9	6a 00		 push	 0
  000cb	6a 03		 push	 3
  000cd	ff 15 00 00 00
	00		 call	 DWORD PTR __imp__WideCharToMultiByte@32
  000d3	f7 d8		 neg	 eax
  000d5	1b c0		 sbb	 eax, eax
  000d7	23 c3		 and	 eax, ebx
  000d9	eb 0c		 jmp	 SHORT $LN43@ResourceRe
$LN60@ResourceRe:
  000db	68 16 02 07 80	 push	 -2147024362		; 80070216H
  000e0	e8 00 00 00 00	 call	 ?AtlThrowImpl@ATL@@YGXJ@Z ; ATL::AtlThrowImpl
$LN66@ResourceRe:
$LN63@ResourceRe:
  000e5	33 c0		 xor	 eax, eax
$LN43@ResourceRe:

; 547  : #ifndef _UNICODE
; 548  : 	if (lpszT == NULL)

  000e7	85 c0		 test	 eax, eax
  000e9	74 17		 je	 SHORT $LN59@ResourceRe

; 549  : 	{
; 550  : 		return E_OUTOFMEMORY;
; 551  : 	}
; 552  : #endif // _UNICODE
; 553  : 
; 554  : 	return RegisterFromResource(szFileName, MAKEINTRESOURCE(nID), lpszT, TRUE);

  000eb	8b 4d 08	 mov	 ecx, DWORD PTR _this$[ebp]
  000ee	6a 01		 push	 1
  000f0	50		 push	 eax
  000f1	0f b7 45 10	 movzx	 eax, WORD PTR _nID$[ebp]
  000f5	50		 push	 eax
  000f6	ff 75 0c	 push	 DWORD PTR _szFileName$[ebp]
  000f9	e8 00 00 00 00	 call	 ?RegisterFromResource@CRegObject@ATL@@IAEJPB_WPBD1H@Z ; ATL::CRegObject::RegisterFromResource
  000fe	8b f8		 mov	 edi, eax
  00100	eb 05		 jmp	 SHORT $LN11@ResourceRe
$LN59@ResourceRe:
  00102	bf 0e 00 07 80	 mov	 edi, -2147024882	; 8007000eH
$LN11@ResourceRe:
  00107	85 f6		 test	 esi, esi
  00109	74 14		 je	 SHORT $LN50@ResourceRe
  0010b	0f 1f 44 00 00	 npad	 5
$LL49@ResourceRe:
  00110	56		 push	 esi
  00111	8b 36		 mov	 esi, DWORD PTR [esi]
  00113	e8 00 00 00 00	 call	 _free
  00118	83 c4 04	 add	 esp, 4
  0011b	85 f6		 test	 esi, esi
  0011d	75 f1		 jne	 SHORT $LL49@ResourceRe
$LN50@ResourceRe:
  0011f	8b c7		 mov	 eax, edi

; 555  : }

  00121	8d 65 d4	 lea	 esp, DWORD PTR [ebp-44]
  00124	8b 4d f4	 mov	 ecx, DWORD PTR __$EHRec$[ebp]
  00127	64 89 0d 00 00
	00 00		 mov	 DWORD PTR fs:0, ecx
  0012e	59		 pop	 ecx
  0012f	5f		 pop	 edi
  00130	5e		 pop	 esi
  00131	5b		 pop	 ebx
  00132	8b 4d f0	 mov	 ecx, DWORD PTR __$ArrayPad$[ebp]
  00135	33 cd		 xor	 ecx, ebp
  00137	e8 00 00 00 00	 call	 @__security_check_cookie@4
  0013c	8b e5		 mov	 esp, ebp
  0013e	5d		 pop	 ebp
  0013f	c2 10 00	 ret	 16			; 00000010H
$LN65@ResourceRe:
_TEXT	ENDS
;	COMDAT text$x
text$x	SEGMENT
__unwindfunclet$?ResourceRegister@CRegObject@ATL@@QAGJPB_WI0@Z$0:
  00000	8d 4d ec	 lea	 ecx, DWORD PTR __AtlSafeAllocaManager$[ebp]
  00003	e9 00 00 00 00	 jmp	 ??1?$CAtlSafeAllocBufferManager@VCCRTAllocator@ATL@@@_ATL_SAFE_ALLOCA_IMPL@ATL@@QAE@XZ ; ATL::_ATL_SAFE_ALLOCA_IMPL::CAtlSafeAllocBufferManager<ATL::CCRTAllocator>::~CAtlSafeAllocBufferManager<ATL::CCRTAllocator>
__ehhandler$?ResourceRegister@CRegObject@ATL@@QAGJPB_WI0@Z:
  00008	8b 54 24 08	 mov	 edx, DWORD PTR [esp+8]
  0000c	8d 42 0c	 lea	 eax, DWORD PTR [edx+12]
  0000f	8b 4a e0	 mov	 ecx, DWORD PTR [edx-32]
  00012	33 c8		 xor	 ecx, eax
  00014	e8 00 00 00 00	 call	 @__security_check_cookie@4
  00019	8b 4a fc	 mov	 ecx, DWORD PTR [edx-4]
  0001c	33 c8		 xor	 ecx, eax
  0001e	e8 00 00 00 00	 call	 @__security_check_cookie@4
  00023	b8 00 00 00 00	 mov	 eax, OFFSET __ehfuncinfo$?ResourceRegister@CRegObject@ATL@@QAGJPB_WI0@Z
  00028	e9 00 00 00 00	 jmp	 ___CxxFrameHandler3
text$x	ENDS
?ResourceRegister@CRegObject@ATL@@QAGJPB_WI0@Z ENDP	; ATL::CRegObject::ResourceRegister
; Function compile flags: /Ogtp
; File c:\program files (x86)\microsoft visual studio 14.0\vc\atlmfc\include\statreg.h
;	COMDAT ?StrFromMap@CRegObject@ATL@@QAEPB_WPAD@Z
_TEXT	SEGMENT
_lpszKey$ = 8						; size = 4
?StrFromMap@CRegObject@ATL@@QAEPB_WPAD@Z PROC		; ATL::CRegObject::StrFromMap, COMDAT
; _this$ = ecx

; 645  : {

  00000	55		 push	 ebp
  00001	8b ec		 mov	 ebp, esp
  00003	56		 push	 esi
  00004	8b f1		 mov	 esi, ecx
  00006	57		 push	 edi

; 646  : 	m_csMap.Lock();

  00007	8d 7e 10	 lea	 edi, DWORD PTR [esi+16]
  0000a	57		 push	 edi
  0000b	ff 15 00 00 00
	00		 call	 DWORD PTR __imp__EnterCriticalSection@4

; 647  : 	LPCOLESTR lpsz = m_RepMap.Lookup(lpszKey);

  00011	8d 45 08	 lea	 eax, DWORD PTR _lpszKey$[ebp]
  00014	50		 push	 eax
  00015	8d 4e 04	 lea	 ecx, DWORD PTR [esi+4]
  00018	e8 00 00 00 00	 call	 ?Lookup@?$CSimpleMap@PADPA_WVCExpansionVectorEqualHelper@ATL@@@ATL@@QBEPA_WABQAD@Z ; ATL::CSimpleMap<char *,wchar_t *,ATL::CExpansionVectorEqualHelper>::Lookup

; 648  : 	if (lpsz == NULL) // not found!!
; 649  : 		ATLTRACE(atlTraceRegistrar, 0, _T("Map Entry not found\n"));
; 650  : 	m_csMap.Unlock();

  0001d	57		 push	 edi
  0001e	8b f0		 mov	 esi, eax
  00020	ff 15 00 00 00
	00		 call	 DWORD PTR __imp__LeaveCriticalSection@4
  00026	5f		 pop	 edi

; 651  : 	return lpsz;

  00027	8b c6		 mov	 eax, esi
  00029	5e		 pop	 esi

; 652  : }

  0002a	5d		 pop	 ebp
  0002b	c2 04 00	 ret	 4
?StrFromMap@CRegObject@ATL@@QAEPB_WPAD@Z ENDP		; ATL::CRegObject::StrFromMap
_TEXT	ENDS
; Function compile flags: /Ogtp
; File c:\program files (x86)\microsoft visual studio 14.0\vc\atlmfc\include\statreg.h
;	COMDAT ?ClearReplacements@CRegObject@ATL@@UAGJXZ
_TEXT	SEGMENT
_this$ = 8						; size = 4
?ClearReplacements@CRegObject@ATL@@UAGJXZ PROC		; ATL::CRegObject::ClearReplacements, COMDAT

; 636  : {

  00000	55		 push	 ebp
  00001	8b ec		 mov	 ebp, esp
  00003	56		 push	 esi

; 637  : 	m_csMap.Lock();

  00004	8b 75 08	 mov	 esi, DWORD PTR _this$[ebp]
  00007	57		 push	 edi
  00008	8d 7e 10	 lea	 edi, DWORD PTR [esi+16]
  0000b	57		 push	 edi
  0000c	ff 15 00 00 00
	00		 call	 DWORD PTR __imp__EnterCriticalSection@4

; 638  : 	HRESULT hr = m_RepMap.ClearReplacements();

  00012	8d 4e 04	 lea	 ecx, DWORD PTR [esi+4]
  00015	e8 00 00 00 00	 call	 ?ClearReplacements@CExpansionVector@ATL@@QAEJXZ ; ATL::CExpansionVector::ClearReplacements

; 639  : 	m_csMap.Unlock();

  0001a	57		 push	 edi
  0001b	8b f0		 mov	 esi, eax
  0001d	ff 15 00 00 00
	00		 call	 DWORD PTR __imp__LeaveCriticalSection@4
  00023	5f		 pop	 edi

; 640  : 	return hr;

  00024	8b c6		 mov	 eax, esi
  00026	5e		 pop	 esi

; 641  : }

  00027	5d		 pop	 ebp
  00028	c2 04 00	 ret	 4
?ClearReplacements@CRegObject@ATL@@UAGJXZ ENDP		; ATL::CRegObject::ClearReplacements
_TEXT	ENDS
; Function compile flags: /Ogtp
; File c:\program files (x86)\microsoft visual studio 14.0\vc\atlmfc\include\statreg.h
;	COMDAT ?AddReplacement@CRegObject@ATL@@UAGJPB_W0@Z
_TEXT	SEGMENT
tv200 = -24						; size = 4
__AtlSafeAllocaManager$ = -20				; size = 4
__$ArrayPad$ = -16					; size = 4
__$EHRec$ = -12						; size = 12
_this$ = 8						; size = 4
_lpszKey$ = 12						; size = 4
_lpszItem$ = 16						; size = 4
?AddReplacement@CRegObject@ATL@@UAGJPB_W0@Z PROC	; ATL::CRegObject::AddReplacement, COMDAT

; 419  : {

  00000	55		 push	 ebp
  00001	8b ec		 mov	 ebp, esp
  00003	6a ff		 push	 -1
  00005	68 00 00 00 00	 push	 __ehhandler$?AddReplacement@CRegObject@ATL@@UAGJPB_W0@Z
  0000a	64 a1 00 00 00
	00		 mov	 eax, DWORD PTR fs:0
  00010	50		 push	 eax
  00011	83 ec 0c	 sub	 esp, 12			; 0000000cH
  00014	a1 00 00 00 00	 mov	 eax, DWORD PTR ___security_cookie
  00019	33 c5		 xor	 eax, ebp
  0001b	89 45 f0	 mov	 DWORD PTR __$ArrayPad$[ebp], eax
  0001e	53		 push	 ebx
  0001f	56		 push	 esi
  00020	57		 push	 edi
  00021	50		 push	 eax
  00022	8d 45 f4	 lea	 eax, DWORD PTR __$EHRec$[ebp]
  00025	64 a3 00 00 00
	00		 mov	 DWORD PTR fs:0, eax

; 420  : 	if (lpszKey == NULL || lpszItem == NULL)

  0002b	8b 5d 0c	 mov	 ebx, DWORD PTR _lpszKey$[ebp]
  0002e	85 db		 test	 ebx, ebx
  00030	0f 84 dd 00 00
	00		 je	 $LN3@AddReplace
  00036	83 7d 10 00	 cmp	 DWORD PTR _lpszItem$[ebp], 0
  0003a	0f 84 d3 00 00
	00		 je	 $LN3@AddReplace

; 422  : 	m_csMap.Lock();

  00040	8b 45 08	 mov	 eax, DWORD PTR _this$[ebp]
  00043	83 c0 10	 add	 eax, 16			; 00000010H
  00046	50		 push	 eax
  00047	89 45 e8	 mov	 DWORD PTR tv200[ebp], eax
  0004a	ff 15 00 00 00
	00		 call	 DWORD PTR __imp__EnterCriticalSection@4

; 423  : 	USES_CONVERSION_EX;

  00050	33 f6		 xor	 esi, esi
  00052	89 75 ec	 mov	 DWORD PTR __AtlSafeAllocaManager$[ebp], esi

; 424  : 
; 425  : 	LPCTSTR lpszT = OLE2CT_EX(lpszKey, _ATL_SAFE_ALLOCA_DEF_THRESHOLD);

  00055	8b cb		 mov	 ecx, ebx
  00057	89 75 fc	 mov	 DWORD PTR __$EHRec$[ebp+8], esi
  0005a	8d 51 02	 lea	 edx, DWORD PTR [ecx+2]
  0005d	0f 1f 00	 npad	 3
$LL48@AddReplace:
  00060	66 8b 01	 mov	 ax, WORD PTR [ecx]
  00063	83 c1 02	 add	 ecx, 2
  00066	66 85 c0	 test	 ax, ax
  00069	75 f5		 jne	 SHORT $LL48@AddReplace
  0006b	2b ca		 sub	 ecx, edx
  0006d	d1 f9		 sar	 ecx, 1
  0006f	8d 41 01	 lea	 eax, DWORD PTR [ecx+1]
  00072	b9 02 00 00 00	 mov	 ecx, 2
  00077	f7 e9		 imul	 ecx
  00079	8b f8		 mov	 edi, eax
  0007b	05 00 00 00 80	 add	 eax, -2147483648	; 80000000H
  00080	83 d2 00	 adc	 edx, 0
  00083	85 d2		 test	 edx, edx
  00085	77 69		 ja	 SHORT $LN47@AddReplace
  00087	72 05		 jb	 SHORT $LN49@AddReplace
  00089	83 f8 ff	 cmp	 eax, -1
  0008c	77 62		 ja	 SHORT $LN47@AddReplace
$LN49@AddReplace:
  0008e	81 ff 00 04 00
	00		 cmp	 edi, 1024		; 00000400H
  00094	7f 18		 jg	 SHORT $LN6@AddReplace
  00096	57		 push	 edi
  00097	e8 00 00 00 00	 call	 ?_AtlVerifyStackAvailable@_ATL_SAFE_ALLOCA_IMPL@ATL@@YA_NK@Z ; ATL::_ATL_SAFE_ALLOCA_IMPL::_AtlVerifyStackAvailable
  0009c	83 c4 04	 add	 esp, 4
  0009f	84 c0		 test	 al, al
  000a1	74 0b		 je	 SHORT $LN6@AddReplace
  000a3	8b c7		 mov	 eax, edi
  000a5	e8 00 00 00 00	 call	 __alloca_probe_16
  000aa	8b c4		 mov	 eax, esp
  000ac	eb 0c		 jmp	 SHORT $LN7@AddReplace
$LN6@AddReplace:
  000ae	57		 push	 edi
  000af	8d 4d ec	 lea	 ecx, DWORD PTR __AtlSafeAllocaManager$[ebp]
  000b2	e8 00 00 00 00	 call	 ?Allocate@?$CAtlSafeAllocBufferManager@VCCRTAllocator@ATL@@@_ATL_SAFE_ALLOCA_IMPL@ATL@@QAEPAXK@Z ; ATL::_ATL_SAFE_ALLOCA_IMPL::CAtlSafeAllocBufferManager<ATL::CCRTAllocator>::Allocate
  000b7	8b 75 ec	 mov	 esi, DWORD PTR __AtlSafeAllocaManager$[ebp]
$LN7@AddReplace:
  000ba	6a 03		 push	 3
  000bc	57		 push	 edi
  000bd	53		 push	 ebx
  000be	50		 push	 eax
  000bf	e8 00 00 00 00	 call	 ?AtlW2AHelper@@YGPADPADPB_WHI@Z ; AtlW2AHelper

; 426  : 
; 427  : #ifndef _UNICODE
; 428  : 	if(lpszT == NULL)

  000c4	85 c0		 test	 eax, eax
  000c6	74 28		 je	 SHORT $LN47@AddReplace

; 429  : 		return E_OUTOFMEMORY;
; 430  : #endif
; 431  : 
; 432  : 	BOOL bRet = m_RepMap.Add(lpszT, lpszItem);

  000c8	8b 4d 08	 mov	 ecx, DWORD PTR _this$[ebp]
  000cb	ff 75 10	 push	 DWORD PTR _lpszItem$[ebp]
  000ce	50		 push	 eax
  000cf	8d 49 04	 lea	 ecx, DWORD PTR [ecx+4]
  000d2	e8 00 00 00 00	 call	 ?Add@CExpansionVector@ATL@@QAEHPBDPB_W@Z ; ATL::CExpansionVector::Add

; 433  : 	m_csMap.Unlock();

  000d7	ff 75 e8	 push	 DWORD PTR tv200[ebp]
  000da	8b f8		 mov	 edi, eax
  000dc	ff 15 00 00 00
	00		 call	 DWORD PTR __imp__LeaveCriticalSection@4

; 434  : 	return bRet ? S_OK : E_OUTOFMEMORY;

  000e2	33 c0		 xor	 eax, eax
  000e4	bb 0e 00 07 80	 mov	 ebx, -2147024882	; 8007000eH
  000e9	85 ff		 test	 edi, edi
  000eb	0f 45 d8	 cmovne	 ebx, eax
  000ee	eb 05		 jmp	 SHORT $LN13@AddReplace
$LN47@AddReplace:
  000f0	bb 0e 00 07 80	 mov	 ebx, -2147024882	; 8007000eH
$LN13@AddReplace:
  000f5	85 f6		 test	 esi, esi
  000f7	74 16		 je	 SHORT $LN37@AddReplace
  000f9	0f 1f 80 00 00
	00 00		 npad	 7
$LL36@AddReplace:
  00100	56		 push	 esi
  00101	8b 36		 mov	 esi, DWORD PTR [esi]
  00103	e8 00 00 00 00	 call	 _free
  00108	83 c4 04	 add	 esp, 4
  0010b	85 f6		 test	 esi, esi
  0010d	75 f1		 jne	 SHORT $LL36@AddReplace
$LN37@AddReplace:
  0010f	8b c3		 mov	 eax, ebx
  00111	eb 05		 jmp	 SHORT $LN1@AddReplace
$LN3@AddReplace:

; 421  : 		return E_INVALIDARG;

  00113	b8 57 00 07 80	 mov	 eax, -2147024809	; 80070057H
$LN1@AddReplace:

; 435  : }

  00118	8d 65 d8	 lea	 esp, DWORD PTR [ebp-40]
  0011b	8b 4d f4	 mov	 ecx, DWORD PTR __$EHRec$[ebp]
  0011e	64 89 0d 00 00
	00 00		 mov	 DWORD PTR fs:0, ecx
  00125	59		 pop	 ecx
  00126	5f		 pop	 edi
  00127	5e		 pop	 esi
  00128	5b		 pop	 ebx
  00129	8b 4d f0	 mov	 ecx, DWORD PTR __$ArrayPad$[ebp]
  0012c	33 cd		 xor	 ecx, ebp
  0012e	e8 00 00 00 00	 call	 @__security_check_cookie@4
  00133	8b e5		 mov	 esp, ebp
  00135	5d		 pop	 ebp
  00136	c2 0c 00	 ret	 12			; 0000000cH
_TEXT	ENDS
;	COMDAT text$x
text$x	SEGMENT
__unwindfunclet$?AddReplacement@CRegObject@ATL@@UAGJPB_W0@Z$0:
  00000	8d 4d ec	 lea	 ecx, DWORD PTR __AtlSafeAllocaManager$[ebp]
  00003	e9 00 00 00 00	 jmp	 ??1?$CAtlSafeAllocBufferManager@VCCRTAllocator@ATL@@@_ATL_SAFE_ALLOCA_IMPL@ATL@@QAE@XZ ; ATL::_ATL_SAFE_ALLOCA_IMPL::CAtlSafeAllocBufferManager<ATL::CCRTAllocator>::~CAtlSafeAllocBufferManager<ATL::CCRTAllocator>
__ehhandler$?AddReplacement@CRegObject@ATL@@UAGJPB_W0@Z:
  00008	8b 54 24 08	 mov	 edx, DWORD PTR [esp+8]
  0000c	8d 42 0c	 lea	 eax, DWORD PTR [edx+12]
  0000f	8b 4a e4	 mov	 ecx, DWORD PTR [edx-28]
  00012	33 c8		 xor	 ecx, eax
  00014	e8 00 00 00 00	 call	 @__security_check_cookie@4
  00019	8b 4a fc	 mov	 ecx, DWORD PTR [edx-4]
  0001c	33 c8		 xor	 ecx, eax
  0001e	e8 00 00 00 00	 call	 @__security_check_cookie@4
  00023	b8 00 00 00 00	 mov	 eax, OFFSET __ehfuncinfo$?AddReplacement@CRegObject@ATL@@UAGJPB_W0@Z
  00028	e9 00 00 00 00	 jmp	 ___CxxFrameHandler3
text$x	ENDS
?AddReplacement@CRegObject@ATL@@UAGJPB_W0@Z ENDP	; ATL::CRegObject::AddReplacement
; Function compile flags: /Ogtp
; File c:\program files (x86)\microsoft visual studio 14.0\vc\atlmfc\include\statreg.h
;	COMDAT ?FinalRelease@CRegObject@ATL@@QAEXXZ
_TEXT	SEGMENT
?FinalRelease@CRegObject@ATL@@QAEXXZ PROC		; ATL::CRegObject::FinalRelease, COMDAT
; _this$ = ecx

; 343  : 	void FinalRelease() {}

  00000	c3		 ret	 0
?FinalRelease@CRegObject@ATL@@QAEXXZ ENDP		; ATL::CRegObject::FinalRelease
_TEXT	ENDS
; Function compile flags: /Ogtp
; File c:\program files (x86)\microsoft visual studio 14.0\vc\atlmfc\include\statreg.h
;	COMDAT ?FinalConstruct@CRegObject@ATL@@QAEJXZ
_TEXT	SEGMENT
?FinalConstruct@CRegObject@ATL@@QAEJXZ PROC		; ATL::CRegObject::FinalConstruct, COMDAT
; _this$ = ecx

; 340  : 	{

  00000	56		 push	 esi
  00001	57		 push	 edi

; 341  : 		return m_csMap.Init();

  00002	33 f6		 xor	 esi, esi
  00004	8d 79 10	 lea	 edi, DWORD PTR [ecx+16]
  00007	56		 push	 esi
  00008	56		 push	 esi
  00009	57		 push	 edi
  0000a	ff 15 00 00 00
	00		 call	 DWORD PTR __imp__InitializeCriticalSectionEx@12
  00010	85 c0		 test	 eax, eax
  00012	75 19		 jne	 SHORT $LN15@FinalConst
  00014	ff 15 00 00 00
	00		 call	 DWORD PTR __imp__GetLastError@0
  0001a	8b f0		 mov	 esi, eax
  0001c	85 f6		 test	 esi, esi
  0001e	7e 0b		 jle	 SHORT $LN17@FinalConst
  00020	0f b7 f6	 movzx	 esi, si
  00023	81 ce 00 00 07
	80		 or	 esi, -2147024896	; 80070000H
  00029	85 f6		 test	 esi, esi
$LN17@FinalConst:
  0002b	78 04		 js	 SHORT $LN18@FinalConst
$LN15@FinalConst:
  0002d	c6 47 18 01	 mov	 BYTE PTR [edi+24], 1
$LN18@FinalConst:
  00031	5f		 pop	 edi
  00032	8b c6		 mov	 eax, esi
  00034	5e		 pop	 esi

; 342  : 	}

  00035	c3		 ret	 0
?FinalConstruct@CRegObject@ATL@@QAEJXZ ENDP		; ATL::CRegObject::FinalConstruct
_TEXT	ENDS
; Function compile flags: /Ogtp
; File c:\program files (x86)\microsoft visual studio 14.0\vc\atlmfc\include\statreg.h
;	COMDAT ??1CRegObject@ATL@@UAE@XZ
_TEXT	SEGMENT
??1CRegObject@ATL@@UAE@XZ PROC				; ATL::CRegObject::~CRegObject, COMDAT
; _this$ = ecx

; 336  : 	{

  00000	56		 push	 esi
  00001	8b f1		 mov	 esi, ecx
  00003	57		 push	 edi

; 337  : 		ClearReplacements();

  00004	8d 7e 10	 lea	 edi, DWORD PTR [esi+16]
  00007	c7 06 00 00 00
	00		 mov	 DWORD PTR [esi], OFFSET ??_7CRegObject@ATL@@6B@
  0000d	57		 push	 edi
  0000e	ff 15 00 00 00
	00		 call	 DWORD PTR __imp__EnterCriticalSection@4
  00014	8d 4e 04	 lea	 ecx, DWORD PTR [esi+4]
  00017	e8 00 00 00 00	 call	 ?ClearReplacements@CExpansionVector@ATL@@QAEJXZ ; ATL::CExpansionVector::ClearReplacements
  0001c	57		 push	 edi
  0001d	ff 15 00 00 00
	00		 call	 DWORD PTR __imp__LeaveCriticalSection@4

; 338  : 	}

  00023	80 7f 18 00	 cmp	 BYTE PTR [edi+24], 0
  00027	74 0b		 je	 SHORT $LN17@CRegObject
  00029	57		 push	 edi
  0002a	c6 47 18 00	 mov	 BYTE PTR [edi+24], 0
  0002e	ff 15 00 00 00
	00		 call	 DWORD PTR __imp__DeleteCriticalSection@4
$LN17@CRegObject:
  00034	8d 4e 04	 lea	 ecx, DWORD PTR [esi+4]
  00037	e8 00 00 00 00	 call	 ?ClearReplacements@CExpansionVector@ATL@@QAEJXZ ; ATL::CExpansionVector::ClearReplacements
  0003c	8b 46 04	 mov	 eax, DWORD PTR [esi+4]
  0003f	85 c0		 test	 eax, eax
  00041	74 10		 je	 SHORT $LN35@CRegObject
  00043	50		 push	 eax
  00044	e8 00 00 00 00	 call	 _free
  00049	83 c4 04	 add	 esp, 4
  0004c	c7 46 04 00 00
	00 00		 mov	 DWORD PTR [esi+4], 0
$LN35@CRegObject:
  00053	8b 46 08	 mov	 eax, DWORD PTR [esi+8]
  00056	85 c0		 test	 eax, eax
  00058	74 10		 je	 SHORT $LN42@CRegObject
  0005a	50		 push	 eax
  0005b	e8 00 00 00 00	 call	 _free
  00060	83 c4 04	 add	 esp, 4
  00063	c7 46 08 00 00
	00 00		 mov	 DWORD PTR [esi+8], 0
$LN42@CRegObject:
  0006a	5f		 pop	 edi
  0006b	c7 46 0c 00 00
	00 00		 mov	 DWORD PTR [esi+12], 0
  00072	5e		 pop	 esi
  00073	c3		 ret	 0
??1CRegObject@ATL@@UAE@XZ ENDP				; ATL::CRegObject::~CRegObject
_TEXT	ENDS
; Function compile flags: /Ogtp
; File c:\program files (x86)\microsoft visual studio 14.0\vc\atlmfc\include\statreg.h
;	COMDAT ?Release@CRegObject@ATL@@UAGKXZ
_TEXT	SEGMENT
_this$ = 8						; size = 4
?Release@CRegObject@ATL@@UAGKXZ PROC			; ATL::CRegObject::Release, COMDAT

; 331  : 		ATLASSERT(_T("statically linked in CRegObject is not a com object. Do not callthis function"));
; 332  : 		return 0;

  00000	33 c0		 xor	 eax, eax

; 333  : 	}

  00002	c2 04 00	 ret	 4
?Release@CRegObject@ATL@@UAGKXZ ENDP			; ATL::CRegObject::Release
_TEXT	ENDS
; Function compile flags: /Ogtp
; File c:\program files (x86)\microsoft visual studio 14.0\vc\atlmfc\include\statreg.h
;	COMDAT ?AddRef@CRegObject@ATL@@UAGKXZ
_TEXT	SEGMENT
_this$ = 8						; size = 4
?AddRef@CRegObject@ATL@@UAGKXZ PROC			; ATL::CRegObject::AddRef, COMDAT

; 326  : 		ATLASSERT(_T("statically linked in CRegObject is not a com object. Do not callthis function"));
; 327  : 		return 1;

  00000	b8 01 00 00 00	 mov	 eax, 1

; 328  : 	}

  00005	c2 04 00	 ret	 4
?AddRef@CRegObject@ATL@@UAGKXZ ENDP			; ATL::CRegObject::AddRef
_TEXT	ENDS
; Function compile flags: /Ogtp
; File c:\program files (x86)\microsoft visual studio 14.0\vc\atlmfc\include\statreg.h
;	COMDAT ?QueryInterface@CRegObject@ATL@@UAGJABU_GUID@@PAPAX@Z
_TEXT	SEGMENT
_this$ = 8						; size = 4
___formal$ = 12						; size = 4
___formal$ = 16						; size = 4
?QueryInterface@CRegObject@ATL@@UAGJABU_GUID@@PAPAX@Z PROC ; ATL::CRegObject::QueryInterface, COMDAT

; 320  : 		ATLASSERT(_T("statically linked in CRegObject is not a com object. Do not callthis function"));
; 321  : 		return E_NOTIMPL;

  00000	b8 01 40 00 80	 mov	 eax, -2147467263	; 80004001H

; 322  : 	}

  00005	c2 0c 00	 ret	 12			; 0000000cH
?QueryInterface@CRegObject@ATL@@UAGJABU_GUID@@PAPAX@Z ENDP ; ATL::CRegObject::QueryInterface
_TEXT	ENDS
; Function compile flags: /Ogtp
; File c:\program files (x86)\microsoft visual studio 14.0\vc\atlmfc\include\statreg.h
;	COMDAT ?Detach@CParseBuffer@CRegParser@ATL@@QAEPADXZ
_TEXT	SEGMENT
?Detach@CParseBuffer@CRegParser@ATL@@QAEPADXZ PROC	; ATL::CRegParser::CParseBuffer::Detach, COMDAT
; _this$ = ecx

; 303  : 			LPTSTR lp = p;

  00000	8b 41 08	 mov	 eax, DWORD PTR [ecx+8]

; 304  : 			p = NULL;

  00003	c7 41 08 00 00
	00 00		 mov	 DWORD PTR [ecx+8], 0

; 305  : 			nSize = nPos = 0;

  0000a	c7 01 00 00 00
	00		 mov	 DWORD PTR [ecx], 0
  00010	c7 41 04 00 00
	00 00		 mov	 DWORD PTR [ecx+4], 0

; 306  : 			return lp;
; 307  : 		}

  00017	c3		 ret	 0
?Detach@CParseBuffer@CRegParser@ATL@@QAEPADXZ ENDP	; ATL::CRegParser::CParseBuffer::Detach
_TEXT	ENDS
; Function compile flags: /Ogtp
; File c:\program files (x86)\microsoft visual studio 14.0\vc\atlmfc\include\statreg.h
;	COMDAT ?AddString@CParseBuffer@CRegParser@ATL@@QAEHPB_W@Z
_TEXT	SEGMENT
_this$1$ = -24						; size = 4
__AtlSafeAllocaManager$ = -20				; size = 4
__$ArrayPad$ = -16					; size = 4
__$EHRec$ = -12						; size = 12
_lpsz$ = 8						; size = 4
?AddString@CParseBuffer@CRegParser@ATL@@QAEHPB_W@Z PROC	; ATL::CRegParser::CParseBuffer::AddString, COMDAT
; _this$ = ecx

; 288  : 		{

  00000	55		 push	 ebp
  00001	8b ec		 mov	 ebp, esp
  00003	6a ff		 push	 -1
  00005	68 00 00 00 00	 push	 __ehhandler$?AddString@CParseBuffer@CRegParser@ATL@@QAEHPB_W@Z
  0000a	64 a1 00 00 00
	00		 mov	 eax, DWORD PTR fs:0
  00010	50		 push	 eax
  00011	83 ec 0c	 sub	 esp, 12			; 0000000cH
  00014	a1 00 00 00 00	 mov	 eax, DWORD PTR ___security_cookie
  00019	33 c5		 xor	 eax, ebp
  0001b	89 45 f0	 mov	 DWORD PTR __$ArrayPad$[ebp], eax
  0001e	53		 push	 ebx
  0001f	56		 push	 esi
  00020	57		 push	 edi
  00021	50		 push	 eax
  00022	8d 45 f4	 lea	 eax, DWORD PTR __$EHRec$[ebp]
  00025	64 a3 00 00 00
	00		 mov	 DWORD PTR fs:0, eax
  0002b	89 4d e8	 mov	 DWORD PTR _this$1$[ebp], ecx

; 289  : 			if (lpsz == NULL)

  0002e	8b 5d 08	 mov	 ebx, DWORD PTR _lpsz$[ebp]
  00031	85 db		 test	 ebx, ebx
  00033	75 07		 jne	 SHORT $LN2@AddString

; 290  : 			{
; 291  : 				return FALSE;

  00035	33 c0		 xor	 eax, eax
  00037	e9 b5 00 00 00	 jmp	 $LN1@AddString
$LN2@AddString:

; 292  : 			}
; 293  : 			USES_CONVERSION_EX;

  0003c	33 f6		 xor	 esi, esi
  0003e	89 75 ec	 mov	 DWORD PTR __AtlSafeAllocaManager$[ebp], esi

; 294  : 			LPCTSTR lpszT = OLE2CT_EX(lpsz, _ATL_SAFE_ALLOCA_DEF_THRESHOLD);

  00041	8b cb		 mov	 ecx, ebx
  00043	89 75 fc	 mov	 DWORD PTR __$EHRec$[ebp+8], esi
  00046	8d 51 02	 lea	 edx, DWORD PTR [ecx+2]
  00049	0f 1f 80 00 00
	00 00		 npad	 7
$LL38@AddString:
  00050	66 8b 01	 mov	 ax, WORD PTR [ecx]
  00053	83 c1 02	 add	 ecx, 2
  00056	66 85 c0	 test	 ax, ax
  00059	75 f5		 jne	 SHORT $LL38@AddString
  0005b	2b ca		 sub	 ecx, edx
  0005d	d1 f9		 sar	 ecx, 1
  0005f	8d 41 01	 lea	 eax, DWORD PTR [ecx+1]
  00062	b9 02 00 00 00	 mov	 ecx, 2
  00067	f7 e9		 imul	 ecx
  00069	8b f8		 mov	 edi, eax
  0006b	05 00 00 00 80	 add	 eax, -2147483648	; 80000000H
  00070	83 d2 00	 adc	 edx, 0
  00073	85 d2		 test	 edx, edx
  00075	77 60		 ja	 SHORT $LN37@AddString
  00077	72 05		 jb	 SHORT $LN39@AddString
  00079	83 f8 ff	 cmp	 eax, -1
  0007c	77 59		 ja	 SHORT $LN37@AddString
$LN39@AddString:
  0007e	81 ff 00 04 00
	00		 cmp	 edi, 1024		; 00000400H
  00084	7f 18		 jg	 SHORT $LN5@AddString
  00086	57		 push	 edi
  00087	e8 00 00 00 00	 call	 ?_AtlVerifyStackAvailable@_ATL_SAFE_ALLOCA_IMPL@ATL@@YA_NK@Z ; ATL::_ATL_SAFE_ALLOCA_IMPL::_AtlVerifyStackAvailable
  0008c	83 c4 04	 add	 esp, 4
  0008f	84 c0		 test	 al, al
  00091	74 0b		 je	 SHORT $LN5@AddString
  00093	8b c7		 mov	 eax, edi
  00095	e8 00 00 00 00	 call	 __alloca_probe_16
  0009a	8b c4		 mov	 eax, esp
  0009c	eb 0c		 jmp	 SHORT $LN6@AddString
$LN5@AddString:
  0009e	57		 push	 edi
  0009f	8d 4d ec	 lea	 ecx, DWORD PTR __AtlSafeAllocaManager$[ebp]
  000a2	e8 00 00 00 00	 call	 ?Allocate@?$CAtlSafeAllocBufferManager@VCCRTAllocator@ATL@@@_ATL_SAFE_ALLOCA_IMPL@ATL@@QAEPAXK@Z ; ATL::_ATL_SAFE_ALLOCA_IMPL::CAtlSafeAllocBufferManager<ATL::CCRTAllocator>::Allocate
  000a7	8b 75 ec	 mov	 esi, DWORD PTR __AtlSafeAllocaManager$[ebp]
$LN6@AddString:
  000aa	6a 03		 push	 3
  000ac	57		 push	 edi
  000ad	53		 push	 ebx
  000ae	50		 push	 eax
  000af	e8 00 00 00 00	 call	 ?AtlW2AHelper@@YGPADPADPB_WHI@Z ; AtlW2AHelper
  000b4	8b d0		 mov	 edx, eax

; 295  : 			if (lpszT == NULL)

  000b6	85 d2		 test	 edx, edx
  000b8	74 1d		 je	 SHORT $LN37@AddString

; 296  : 			{
; 297  : 				return FALSE;
; 298  : 			}
; 299  : 			return Append(lpszT, (int)_tcslen(lpszT));

  000ba	8b ca		 mov	 ecx, edx
  000bc	8d 79 01	 lea	 edi, DWORD PTR [ecx+1]
  000bf	90		 npad	 1
$LL40@AddString:
  000c0	8a 01		 mov	 al, BYTE PTR [ecx]
  000c2	41		 inc	 ecx
  000c3	84 c0		 test	 al, al
  000c5	75 f9		 jne	 SHORT $LL40@AddString
  000c7	2b cf		 sub	 ecx, edi
  000c9	51		 push	 ecx
  000ca	8b 4d e8	 mov	 ecx, DWORD PTR _this$1$[ebp]
  000cd	52		 push	 edx
  000ce	e8 00 00 00 00	 call	 ?Append@CParseBuffer@CRegParser@ATL@@QAEHPBDH@Z ; ATL::CRegParser::CParseBuffer::Append
  000d3	8b f8		 mov	 edi, eax
  000d5	eb 02		 jmp	 SHORT $LN12@AddString
$LN37@AddString:
  000d7	33 ff		 xor	 edi, edi
$LN12@AddString:
  000d9	85 f6		 test	 esi, esi
  000db	74 12		 je	 SHORT $LN27@AddString
  000dd	0f 1f 00	 npad	 3
$LL26@AddString:
  000e0	56		 push	 esi
  000e1	8b 36		 mov	 esi, DWORD PTR [esi]
  000e3	e8 00 00 00 00	 call	 _free
  000e8	83 c4 04	 add	 esp, 4
  000eb	85 f6		 test	 esi, esi
  000ed	75 f1		 jne	 SHORT $LL26@AddString
$LN27@AddString:
  000ef	8b c7		 mov	 eax, edi
$LN1@AddString:

; 300  : 		}

  000f1	8d 65 d8	 lea	 esp, DWORD PTR [ebp-40]
  000f4	8b 4d f4	 mov	 ecx, DWORD PTR __$EHRec$[ebp]
  000f7	64 89 0d 00 00
	00 00		 mov	 DWORD PTR fs:0, ecx
  000fe	59		 pop	 ecx
  000ff	5f		 pop	 edi
  00100	5e		 pop	 esi
  00101	5b		 pop	 ebx
  00102	8b 4d f0	 mov	 ecx, DWORD PTR __$ArrayPad$[ebp]
  00105	33 cd		 xor	 ecx, ebp
  00107	e8 00 00 00 00	 call	 @__security_check_cookie@4
  0010c	8b e5		 mov	 esp, ebp
  0010e	5d		 pop	 ebp
  0010f	c2 04 00	 ret	 4
_TEXT	ENDS
;	COMDAT text$x
text$x	SEGMENT
__unwindfunclet$?AddString@CParseBuffer@CRegParser@ATL@@QAEHPB_W@Z$0:
  00000	8d 4d ec	 lea	 ecx, DWORD PTR __AtlSafeAllocaManager$[ebp]
  00003	e9 00 00 00 00	 jmp	 ??1?$CAtlSafeAllocBufferManager@VCCRTAllocator@ATL@@@_ATL_SAFE_ALLOCA_IMPL@ATL@@QAE@XZ ; ATL::_ATL_SAFE_ALLOCA_IMPL::CAtlSafeAllocBufferManager<ATL::CCRTAllocator>::~CAtlSafeAllocBufferManager<ATL::CCRTAllocator>
__ehhandler$?AddString@CParseBuffer@CRegParser@ATL@@QAEHPB_W@Z:
  00008	8b 54 24 08	 mov	 edx, DWORD PTR [esp+8]
  0000c	8d 42 0c	 lea	 eax, DWORD PTR [edx+12]
  0000f	8b 4a e4	 mov	 ecx, DWORD PTR [edx-28]
  00012	33 c8		 xor	 ecx, eax
  00014	e8 00 00 00 00	 call	 @__security_check_cookie@4
  00019	8b 4a fc	 mov	 ecx, DWORD PTR [edx-4]
  0001c	33 c8		 xor	 ecx, eax
  0001e	e8 00 00 00 00	 call	 @__security_check_cookie@4
  00023	b8 00 00 00 00	 mov	 eax, OFFSET __ehfuncinfo$?AddString@CParseBuffer@CRegParser@ATL@@QAEHPB_W@Z
  00028	e9 00 00 00 00	 jmp	 ___CxxFrameHandler3
text$x	ENDS
?AddString@CParseBuffer@CRegParser@ATL@@QAEHPB_W@Z ENDP	; ATL::CRegParser::CParseBuffer::AddString
; Function compile flags: /Ogtp
; File c:\program files (x86)\microsoft visual studio 14.0\vc\atlmfc\include\statreg.h
;	COMDAT ?AddChar@CParseBuffer@CRegParser@ATL@@QAEHPBD@Z
_TEXT	SEGMENT
_pch$ = 8						; size = 4
?AddChar@CParseBuffer@CRegParser@ATL@@QAEHPBD@Z PROC	; ATL::CRegParser::CParseBuffer::AddChar, COMDAT
; _this$ = ecx

; 278  : 		{

  00000	55		 push	 ebp
  00001	8b ec		 mov	 ebp, esp
  00003	56		 push	 esi

; 279  : #ifndef _UNICODE
; 280  : 			int nChars = int(CharNext(pch) - pch);

  00004	8b 75 08	 mov	 esi, DWORD PTR _pch$[ebp]
  00007	57		 push	 edi
  00008	56		 push	 esi
  00009	8b f9		 mov	 edi, ecx
  0000b	ff 15 00 00 00
	00		 call	 DWORD PTR __imp__CharNextA@4
  00011	2b c6		 sub	 eax, esi

; 281  : #else
; 282  : 			int nChars = 1;
; 283  : #endif
; 284  : 			return Append(pch, nChars);

  00013	8b cf		 mov	 ecx, edi
  00015	50		 push	 eax
  00016	56		 push	 esi
  00017	e8 00 00 00 00	 call	 ?Append@CParseBuffer@CRegParser@ATL@@QAEHPBDH@Z ; ATL::CRegParser::CParseBuffer::Append
  0001c	5f		 pop	 edi
  0001d	5e		 pop	 esi

; 285  : 
; 286  : 		}

  0001e	5d		 pop	 ebp
  0001f	c2 04 00	 ret	 4
?AddChar@CParseBuffer@CRegParser@ATL@@QAEHPBD@Z ENDP	; ATL::CRegParser::CParseBuffer::AddChar
_TEXT	ENDS
; Function compile flags: /Ogtp
; File c:\program files (x86)\microsoft visual studio 14.0\vc\atlmfc\include\statreg.h
;	COMDAT ?Append@CParseBuffer@CRegParser@ATL@@QAEHPBDH@Z
_TEXT	SEGMENT
_pch$ = 8						; size = 4
_nChars$ = 12						; size = 4
?Append@CParseBuffer@CRegParser@ATL@@QAEHPBDH@Z PROC	; ATL::CRegParser::CParseBuffer::Append, COMDAT
; _this$ = ecx

; 245  : 		{

  00000	55		 push	 ebp
  00001	8b ec		 mov	 ebp, esp
  00003	56		 push	 esi
  00004	57		 push	 edi

; 246  : 			ATLASSERT(p != NULL);
; 247  : 			ATLASSUME(p != NULL);
; 248  : 			int newSize = nPos + nChars + 1;

  00005	8b 7d 0c	 mov	 edi, DWORD PTR _nChars$[ebp]
  00008	8b f1		 mov	 esi, ecx
  0000a	8d 4f 01	 lea	 ecx, DWORD PTR [edi+1]
  0000d	03 0e		 add	 ecx, DWORD PTR [esi]

; 249  : 			if ((newSize <= nPos) || (newSize <= nChars))

  0000f	3b 0e		 cmp	 ecx, DWORD PTR [esi]
  00011	7e 7a		 jle	 SHORT $LN8@Append
  00013	3b cf		 cmp	 ecx, edi
  00015	7e 76		 jle	 SHORT $LN8@Append

; 251  : 
; 252  : 			if (newSize >= nSize)

  00017	3b 4e 04	 cmp	 ecx, DWORD PTR [esi+4]
  0001a	7c 33		 jl	 SHORT $LN9@Append
  0001c	0f 1f 40 00	 npad	 4
$LL5@Append:

; 253  : 			{
; 254  : 				while (newSize >= nSize) {
; 255  : 					if (nSize > INT_MAX / 2)

  00020	8b 46 04	 mov	 eax, DWORD PTR [esi+4]
  00023	3d ff ff ff 3f	 cmp	 eax, 1073741823		; 3fffffffH
  00028	7f 63		 jg	 SHORT $LN8@Append

; 256  : 					return FALSE;
; 257  : 					nSize *= 2;

  0002a	03 c0		 add	 eax, eax
  0002c	89 46 04	 mov	 DWORD PTR [esi+4], eax
  0002f	3b c8		 cmp	 ecx, eax
  00031	7d ed		 jge	 SHORT $LL5@Append

; 258  : 				}
; 259  : 				LPTSTR pTemp = (LPTSTR)::ATL::AtlCoTaskMemRecalloc(p, nSize, sizeof(TCHAR));

  00033	33 c9		 xor	 ecx, ecx
  00035	77 56		 ja	 SHORT $LN8@Append
  00037	72 05		 jb	 SHORT $LN32@Append
  00039	83 f8 ff	 cmp	 eax, -1
  0003c	77 4f		 ja	 SHORT $LN8@Append
$LN32@Append:
  0003e	50		 push	 eax
  0003f	ff 76 08	 push	 DWORD PTR [esi+8]
  00042	ff 15 00 00 00
	00		 call	 DWORD PTR __imp__CoTaskMemRealloc@8

; 260  : 				if (pTemp == NULL)

  00048	85 c0		 test	 eax, eax
  0004a	74 41		 je	 SHORT $LN8@Append

; 261  : 					return FALSE;
; 262  : 				p = pTemp;

  0004c	89 46 08	 mov	 DWORD PTR [esi+8], eax
$LN9@Append:

; 263  : 			}
; 264  : 			if ((nPos < 0) || (nPos >= nSize) || nSize - nPos > nSize)

  0004f	8b 0e		 mov	 ecx, DWORD PTR [esi]
  00051	85 c9		 test	 ecx, ecx
  00053	78 38		 js	 SHORT $LN8@Append
  00055	8b 56 04	 mov	 edx, DWORD PTR [esi+4]
  00058	3b ca		 cmp	 ecx, edx
  0005a	7d 31		 jge	 SHORT $LN8@Append
  0005c	8b c2		 mov	 eax, edx
  0005e	2b c1		 sub	 eax, ecx
  00060	3b c2		 cmp	 eax, edx
  00062	7f 29		 jg	 SHORT $LN8@Append

; 265  : 				return FALSE;
; 266  : 
; 267  : #pragma warning(push)
; 268  : #pragma warning(disable: 22008)
; 269  : 			/* Prefast false warning is fired here despite the all above checks */
; 270  : 			Checked::memcpy_s(p + nPos, (nSize-nPos) * sizeof(TCHAR), pch, nChars * sizeof(TCHAR));

  00064	57		 push	 edi
  00065	ff 75 08	 push	 DWORD PTR _pch$[ebp]
  00068	50		 push	 eax
  00069	8b 46 08	 mov	 eax, DWORD PTR [esi+8]
  0006c	03 c1		 add	 eax, ecx
  0006e	50		 push	 eax
  0006f	e8 00 00 00 00	 call	 ?memcpy_s@Checked@ATL@@YAXPAXIPBXI@Z ; ATL::Checked::memcpy_s

; 271  : 			nPos += nChars;
; 272  : 			*(p + nPos) = _T('\0');

  00074	8b 46 08	 mov	 eax, DWORD PTR [esi+8]
  00077	83 c4 10	 add	 esp, 16			; 00000010H
  0007a	01 3e		 add	 DWORD PTR [esi], edi
  0007c	8b 0e		 mov	 ecx, DWORD PTR [esi]
  0007e	5f		 pop	 edi
  0007f	5e		 pop	 esi
  00080	c6 04 01 00	 mov	 BYTE PTR [ecx+eax], 0

; 273  : #pragma warning(pop)
; 274  : 			return TRUE;

  00084	b8 01 00 00 00	 mov	 eax, 1

; 275  : 		}

  00089	5d		 pop	 ebp
  0008a	c2 08 00	 ret	 8
$LN8@Append:
  0008d	5f		 pop	 edi

; 250  : 				return FALSE;

  0008e	33 c0		 xor	 eax, eax
  00090	5e		 pop	 esi

; 275  : 		}

  00091	5d		 pop	 ebp
  00092	c2 08 00	 ret	 8
?Append@CParseBuffer@CRegParser@ATL@@QAEHPBDH@Z ENDP	; ATL::CRegParser::CParseBuffer::Append
_TEXT	ENDS
; Function compile flags: /Ogtp
; File c:\program files (x86)\microsoft visual studio 14.0\vc\atlmfc\include\statreg.h
;	COMDAT ??1CParseBuffer@CRegParser@ATL@@QAE@XZ
_TEXT	SEGMENT
??1CParseBuffer@CRegParser@ATL@@QAE@XZ PROC		; ATL::CRegParser::CParseBuffer::~CParseBuffer, COMDAT
; _this$ = ecx

; 240  : 			CoTaskMemFree(p);

  00000	ff 71 08	 push	 DWORD PTR [ecx+8]
  00003	ff 15 00 00 00
	00		 call	 DWORD PTR __imp__CoTaskMemFree@4

; 241  : 		}

  00009	c3		 ret	 0
??1CParseBuffer@CRegParser@ATL@@QAE@XZ ENDP		; ATL::CRegParser::CParseBuffer::~CParseBuffer
_TEXT	ENDS
; Function compile flags: /Ogtp
; File c:\program files (x86)\microsoft visual studio 14.0\vc\atlmfc\include\statreg.h
;	COMDAT ??0CParseBuffer@CRegParser@ATL@@QAE@H@Z
_TEXT	SEGMENT
_nInitial$ = 8						; size = 4
??0CParseBuffer@CRegParser@ATL@@QAE@H@Z PROC		; ATL::CRegParser::CParseBuffer::CParseBuffer, COMDAT
; _this$ = ecx

; 228  : 		CParseBuffer(_In_ int nInitial)

  00000	55		 push	 ebp
  00001	8b ec		 mov	 ebp, esp
  00003	83 7d 08 64	 cmp	 DWORD PTR _nInitial$[ebp], 100 ; 00000064H
  00007	56		 push	 esi
  00008	8b f1		 mov	 esi, ecx
  0000a	b9 e8 03 00 00	 mov	 ecx, 1000		; 000003e8H
  0000f	0f 4d 4d 08	 cmovge	 ecx, DWORD PTR _nInitial$[ebp]

; 229  : 		{
; 230  : 			if (nInitial < 100)
; 231  : 				nInitial = 1000;
; 232  : 			nPos = 0;
; 233  : 			nSize = nInitial;
; 234  : 			p = (LPTSTR) ::ATL::AtlCoTaskMemCAlloc(nSize,static_cast<ULONG>(sizeof(TCHAR)));

  00013	33 c0		 xor	 eax, eax
  00015	c7 06 00 00 00
	00		 mov	 DWORD PTR [esi], 0
  0001b	89 4e 04	 mov	 DWORD PTR [esi+4], ecx
  0001e	77 0e		 ja	 SHORT $LN16@CParseBuff
  00020	83 f9 ff	 cmp	 ecx, -1
  00023	77 09		 ja	 SHORT $LN16@CParseBuff
  00025	51		 push	 ecx
  00026	ff 15 00 00 00
	00		 call	 DWORD PTR __imp__CoTaskMemAlloc@4
  0002c	eb 02		 jmp	 SHORT $LN5@CParseBuff
$LN16@CParseBuff:
  0002e	33 c0		 xor	 eax, eax
$LN5@CParseBuff:
  00030	89 46 08	 mov	 DWORD PTR [esi+8], eax

; 235  : 			if (p != NULL)

  00033	85 c0		 test	 eax, eax
  00035	74 03		 je	 SHORT $LN17@CParseBuff

; 236  : 				*p = _T('\0');

  00037	c6 00 00	 mov	 BYTE PTR [eax], 0
$LN17@CParseBuff:

; 237  : 		}

  0003a	8b c6		 mov	 eax, esi
  0003c	5e		 pop	 esi
  0003d	5d		 pop	 ebp
  0003e	c2 04 00	 ret	 4
??0CParseBuffer@CRegParser@ATL@@QAE@H@Z ENDP		; ATL::CRegParser::CParseBuffer::CParseBuffer
_TEXT	ENDS
; Function compile flags: /Ogtp
; File c:\program files (x86)\microsoft visual studio 14.0\vc\atlmfc\include\statreg.h
;	COMDAT ?VTFromRegType@CRegParser@ATL@@KAHPBDAAG@Z
_TEXT	SEGMENT
_szValueType$ = 8					; size = 4
_vt$ = 12						; size = 4
?VTFromRegType@CRegParser@ATL@@KAHPBDAAG@Z PROC		; ATL::CRegParser::VTFromRegType, COMDAT

; 754  : {

  00000	55		 push	 ebp
  00001	8b ec		 mov	 ebp, esp

; 755  : 	struct typemap
; 756  : 	{
; 757  : 		LPCTSTR lpsz;
; 758  : 		VARTYPE vt;
; 759  : 	};
; 760  : #pragma warning (push)
; 761  : #pragma warning (disable : 4640)	// construction of local static object is not thread-safe
; 762  : 
; 763  : 	static const typemap map[] = {

  00003	64 a1 00 00 00
	00		 mov	 eax, DWORD PTR fs:__tls_array
  00009	8b 0d 00 00 00
	00		 mov	 ecx, DWORD PTR __tls_index
  0000f	8b 0c 88	 mov	 ecx, DWORD PTR [eax+ecx*4]
  00012	a1 00 00 00 00	 mov	 eax, DWORD PTR ?$TSS0@?1??VTFromRegType@CRegParser@ATL@@KAHPBDAAG@Z@4HA ; TSS0<`template-parameter-2',ATL::CRegParser::TFromRegType,unsigned long,int,char const *,unsigned short &>
  00017	3b 81 00 00 00
	00		 cmp	 eax, DWORD PTR __Init_thread_epoch[ecx]
  0001d	7f 44		 jg	 SHORT $LN13@VTFromRegT
$LN2@VTFromRegT:
  0001f	53		 push	 ebx

; 768  : 	};
; 769  : 
; 770  : #pragma warning (pop)
; 771  : 
; 772  : 	for (int i=0;i<sizeof(map)/sizeof(typemap);i++)

  00020	8b 1d 00 00 00
	00		 mov	 ebx, DWORD PTR __imp__lstrcmpiA@8
  00026	56		 push	 esi
  00027	57		 push	 edi
  00028	8b 7d 08	 mov	 edi, DWORD PTR _szValueType$[ebp]
  0002b	33 f6		 xor	 esi, esi
  0002d	0f 1f 00	 npad	 3
$LL5@VTFromRegT:

; 773  : 	{
; 774  : 		if (!lstrcmpi(szValueType, map[i].lpsz))

  00030	ff 34 f5 00 00
	00 00		 push	 DWORD PTR ?map@?1??VTFromRegType@CRegParser@ATL@@KAHPBDAAG@Z@4QBUtypemap@?1??123@KAH01@Z@B[esi*8]
  00037	57		 push	 edi
  00038	ff d3		 call	 ebx
  0003a	85 c0		 test	 eax, eax
  0003c	74 0d		 je	 SHORT $LN9@VTFromRegT

; 768  : 	};
; 769  : 
; 770  : #pragma warning (pop)
; 771  : 
; 772  : 	for (int i=0;i<sizeof(map)/sizeof(typemap);i++)

  0003e	46		 inc	 esi
  0003f	83 fe 04	 cmp	 esi, 4
  00042	72 ec		 jb	 SHORT $LL5@VTFromRegT

; 778  : 		}
; 779  : 	}
; 780  : 
; 781  : 	return FALSE;

  00044	5f		 pop	 edi
  00045	5e		 pop	 esi
  00046	33 c0		 xor	 eax, eax
  00048	5b		 pop	 ebx

; 782  : }

  00049	5d		 pop	 ebp
  0004a	c3		 ret	 0
$LN9@VTFromRegT:

; 775  : 		{
; 776  : 			vt = map[i].vt;

  0004b	8b 45 0c	 mov	 eax, DWORD PTR _vt$[ebp]
  0004e	66 8b 0c f5 04
	00 00 00	 mov	 cx, WORD PTR ?map@?1??VTFromRegType@CRegParser@ATL@@KAHPBDAAG@Z@4QBUtypemap@?1??123@KAH01@Z@B[esi*8+4]
  00056	5f		 pop	 edi
  00057	5e		 pop	 esi
  00058	66 89 08	 mov	 WORD PTR [eax], cx

; 777  : 			return TRUE;

  0005b	b8 01 00 00 00	 mov	 eax, 1
  00060	5b		 pop	 ebx

; 782  : }

  00061	5d		 pop	 ebp
  00062	c3		 ret	 0
$LN13@VTFromRegT:

; 755  : 	struct typemap
; 756  : 	{
; 757  : 		LPCTSTR lpsz;
; 758  : 		VARTYPE vt;
; 759  : 	};
; 760  : #pragma warning (push)
; 761  : #pragma warning (disable : 4640)	// construction of local static object is not thread-safe
; 762  : 
; 763  : 	static const typemap map[] = {

  00063	68 00 00 00 00	 push	 OFFSET ?$TSS0@?1??VTFromRegType@CRegParser@ATL@@KAHPBDAAG@Z@4HA ; TSS0<`template-parameter-2',ATL::CRegParser::TFromRegType,unsigned long,int,char const *,unsigned short &>
  00068	e8 00 00 00 00	 call	 __Init_thread_header
  0006d	83 c4 04	 add	 esp, 4
  00070	83 3d 00 00 00
	00 ff		 cmp	 DWORD PTR ?$TSS0@?1??VTFromRegType@CRegParser@ATL@@KAHPBDAAG@Z@4HA, -1 ; TSS0<`template-parameter-2',ATL::CRegParser::TFromRegType,unsigned long,int,char const *,unsigned short &>
  00077	75 a6		 jne	 SHORT $LN2@VTFromRegT

; 764  : 		{szStringVal, VT_BSTR},

  00079	b8 08 00 00 00	 mov	 eax, 8
  0007e	c7 05 00 00 00
	00 00 00 00 00	 mov	 DWORD PTR ?map@?1??VTFromRegType@CRegParser@ATL@@KAHPBDAAG@Z@4QBUtypemap@?1??123@KAH01@Z@B, OFFSET ??_C@_01CPLAODJH@S?$AA@
  00088	66 a3 04 00 00
	00		 mov	 WORD PTR ?map@?1??VTFromRegType@CRegParser@ATL@@KAHPBDAAG@Z@4QBUtypemap@?1??123@KAH01@Z@B+4, ax

; 765  : 		{multiszStringVal, VT_BSTR | VT_BYREF},

  0008e	b8 08 40 00 00	 mov	 eax, 16392		; 00004008H
  00093	66 a3 0c 00 00
	00		 mov	 WORD PTR ?map@?1??VTFromRegType@CRegParser@ATL@@KAHPBDAAG@Z@4QBUtypemap@?1??123@KAH01@Z@B+12, ax

; 766  : 		{szDwordVal,  VT_UI4},

  00099	b8 13 00 00 00	 mov	 eax, 19			; 00000013H
  0009e	66 a3 14 00 00
	00		 mov	 WORD PTR ?map@?1??VTFromRegType@CRegParser@ATL@@KAHPBDAAG@Z@4QBUtypemap@?1??123@KAH01@Z@B+20, ax

; 767  : 		{szBinaryVal, VT_UI1}

  000a4	b8 11 00 00 00	 mov	 eax, 17			; 00000011H
  000a9	68 00 00 00 00	 push	 OFFSET ?$TSS0@?1??VTFromRegType@CRegParser@ATL@@KAHPBDAAG@Z@4HA ; TSS0<`template-parameter-2',ATL::CRegParser::TFromRegType,unsigned long,int,char const *,unsigned short &>
  000ae	c7 05 08 00 00
	00 00 00 00 00	 mov	 DWORD PTR ?map@?1??VTFromRegType@CRegParser@ATL@@KAHPBDAAG@Z@4QBUtypemap@?1??123@KAH01@Z@B+8, OFFSET ??_C@_01PLPBNMEI@M?$AA@
  000b8	c7 05 10 00 00
	00 00 00 00 00	 mov	 DWORD PTR ?map@?1??VTFromRegType@CRegParser@ATL@@KAHPBDAAG@Z@4QBUtypemap@?1??123@KAH01@Z@B+16, OFFSET ??_C@_01CKDDGHAB@D?$AA@
  000c2	c7 05 18 00 00
	00 00 00 00 00	 mov	 DWORD PTR ?map@?1??VTFromRegType@CRegParser@ATL@@KAHPBDAAG@Z@4QBUtypemap@?1??123@KAH01@Z@B+24, OFFSET ??_C@_01HMGJMAIH@B?$AA@
  000cc	66 a3 1c 00 00
	00		 mov	 WORD PTR ?map@?1??VTFromRegType@CRegParser@ATL@@KAHPBDAAG@Z@4QBUtypemap@?1??123@KAH01@Z@B+28, ax
  000d2	e8 00 00 00 00	 call	 __Init_thread_footer
  000d7	83 c4 04	 add	 esp, 4
  000da	e9 40 ff ff ff	 jmp	 $LN2@VTFromRegT
?VTFromRegType@CRegParser@ATL@@KAHPBDAAG@Z ENDP		; ATL::CRegParser::VTFromRegType
_TEXT	ENDS
; Function compile flags: /Ogtp
; File c:\program files (x86)\microsoft visual studio 14.0\vc\atlmfc\include\statreg.h
;	COMDAT ?ChToByte@CRegParser@ATL@@KAED@Z
_TEXT	SEGMENT
_ch$ = 8						; size = 1
?ChToByte@CRegParser@ATL@@KAED@Z PROC			; ATL::CRegParser::ChToByte, COMDAT

; 785  : {

  00000	55		 push	 ebp
  00001	8b ec		 mov	 ebp, esp

; 786  : 	switch (ch)

  00003	8a 55 08	 mov	 dl, BYTE PTR _ch$[ebp]
  00006	0f be c2	 movsx	 eax, dl
  00009	83 c0 d0	 add	 eax, -48		; ffffffd0H
  0000c	83 f8 36	 cmp	 eax, 54			; 00000036H
  0000f	77 1d		 ja	 SHORT $LN7@ChToByte
  00011	0f b6 88 00 00
	00 00		 movzx	 ecx, BYTE PTR $LN9@ChToByte[eax]
  00018	ff 24 8d 00 00
	00 00		 jmp	 DWORD PTR $LN11@ChToByte[ecx*4]
$LN4@ChToByte:

; 787  : 	{
; 788  : 		case '0':
; 789  : 		case '1':
; 790  : 		case '2':
; 791  : 		case '3':
; 792  : 		case '4':
; 793  : 		case '5':
; 794  : 		case '6':
; 795  : 		case '7':
; 796  : 		case '8':
; 797  : 		case '9':
; 798  : 				return (BYTE) (ch - '0');

  0001f	8d 42 d0	 lea	 eax, DWORD PTR [edx-48]

; 817  : 	}
; 818  : }

  00022	5d		 pop	 ebp
  00023	c3		 ret	 0
$LN5@ChToByte:

; 799  : 		case 'A':
; 800  : 		case 'B':
; 801  : 		case 'C':
; 802  : 		case 'D':
; 803  : 		case 'E':
; 804  : 		case 'F':
; 805  : 				return (BYTE) (10 + (ch - 'A'));

  00024	8d 42 c9	 lea	 eax, DWORD PTR [edx-55]

; 817  : 	}
; 818  : }

  00027	5d		 pop	 ebp
  00028	c3		 ret	 0
$LN6@ChToByte:

; 806  : 		case 'a':
; 807  : 		case 'b':
; 808  : 		case 'c':
; 809  : 		case 'd':
; 810  : 		case 'e':
; 811  : 		case 'f':
; 812  : 				return (BYTE) (10 + (ch - 'a'));

  00029	8d 42 a9	 lea	 eax, DWORD PTR [edx-87]

; 817  : 	}
; 818  : }

  0002c	5d		 pop	 ebp
  0002d	c3		 ret	 0
$LN7@ChToByte:

; 813  : 		default:
; 814  : 				ATLASSERT(FALSE);
; 815  : 				ATLTRACE(atlTraceRegistrar, 0, _T("Bogus value %Tc passed as binary Hex value\n"), ch);
; 816  : 				return 0;

  0002e	32 c0		 xor	 al, al

; 817  : 	}
; 818  : }

  00030	5d		 pop	 ebp
  00031	c3		 ret	 0
  00032	66 90		 npad	 2
$LN11@ChToByte:
  00034	00 00 00 00	 DD	 $LN4@ChToByte
  00038	00 00 00 00	 DD	 $LN5@ChToByte
  0003c	00 00 00 00	 DD	 $LN6@ChToByte
  00040	00 00 00 00	 DD	 $LN7@ChToByte
$LN9@ChToByte:
  00044	00		 DB	 0
  00045	00		 DB	 0
  00046	00		 DB	 0
  00047	00		 DB	 0
  00048	00		 DB	 0
  00049	00		 DB	 0
  0004a	00		 DB	 0
  0004b	00		 DB	 0
  0004c	00		 DB	 0
  0004d	00		 DB	 0
  0004e	03		 DB	 3
  0004f	03		 DB	 3
  00050	03		 DB	 3
  00051	03		 DB	 3
  00052	03		 DB	 3
  00053	03		 DB	 3
  00054	03		 DB	 3
  00055	01		 DB	 1
  00056	01		 DB	 1
  00057	01		 DB	 1
  00058	01		 DB	 1
  00059	01		 DB	 1
  0005a	01		 DB	 1
  0005b	03		 DB	 3
  0005c	03		 DB	 3
  0005d	03		 DB	 3
  0005e	03		 DB	 3
  0005f	03		 DB	 3
  00060	03		 DB	 3
  00061	03		 DB	 3
  00062	03		 DB	 3
  00063	03		 DB	 3
  00064	03		 DB	 3
  00065	03		 DB	 3
  00066	03		 DB	 3
  00067	03		 DB	 3
  00068	03		 DB	 3
  00069	03		 DB	 3
  0006a	03		 DB	 3
  0006b	03		 DB	 3
  0006c	03		 DB	 3
  0006d	03		 DB	 3
  0006e	03		 DB	 3
  0006f	03		 DB	 3
  00070	03		 DB	 3
  00071	03		 DB	 3
  00072	03		 DB	 3
  00073	03		 DB	 3
  00074	03		 DB	 3
  00075	02		 DB	 2
  00076	02		 DB	 2
  00077	02		 DB	 2
  00078	02		 DB	 2
  00079	02		 DB	 2
  0007a	02		 DB	 2
?ChToByte@CRegParser@ATL@@KAED@Z ENDP			; ATL::CRegParser::ChToByte
_TEXT	ENDS
; Function compile flags: /Ogtp
; File c:\program files (x86)\microsoft visual studio 14.0\vc\atlmfc\include\statreg.h
;	COMDAT ?HKeyFromString@CRegParser@ATL@@KAPAUHKEY__@@PAD@Z
_TEXT	SEGMENT
_szToken$ = 8						; size = 4
?HKeyFromString@CRegParser@ATL@@KAPAUHKEY__@@PAD@Z PROC	; ATL::CRegParser::HKeyFromString, COMDAT

; 821  : {

  00000	55		 push	 ebp
  00001	8b ec		 mov	 ebp, esp
  00003	53		 push	 ebx

; 822  : 	struct keymap
; 823  : 	{
; 824  : 		LPCTSTR lpsz;
; 825  : 		HKEY hkey;
; 826  : 	};
; 827  : 	static const keymap map[] = {
; 828  : 		{_T("HKCR"), HKEY_CLASSES_ROOT},
; 829  : 		{_T("HKCU"), HKEY_CURRENT_USER},
; 830  : 		{_T("HKLM"), HKEY_LOCAL_MACHINE},
; 831  : 		{_T("HKU"),  HKEY_USERS},
; 832  : 		{_T("HKPD"), HKEY_PERFORMANCE_DATA},
; 833  : 		{_T("HKDD"), HKEY_DYN_DATA},
; 834  : 		{_T("HKCC"), HKEY_CURRENT_CONFIG},
; 835  : 		{_T("HKEY_CLASSES_ROOT"), HKEY_CLASSES_ROOT},
; 836  : 		{_T("HKEY_CURRENT_USER"), HKEY_CURRENT_USER},
; 837  : 		{_T("HKEY_LOCAL_MACHINE"), HKEY_LOCAL_MACHINE},
; 838  : 		{_T("HKEY_USERS"), HKEY_USERS},
; 839  : 		{_T("HKEY_PERFORMANCE_DATA"), HKEY_PERFORMANCE_DATA},
; 840  : 		{_T("HKEY_DYN_DATA"), HKEY_DYN_DATA},
; 841  : 		{_T("HKEY_CURRENT_CONFIG"), HKEY_CURRENT_CONFIG}
; 842  : 	};
; 843  : 
; 844  : 	for (int i=0;i<sizeof(map)/sizeof(keymap);i++)

  00004	8b 1d 00 00 00
	00		 mov	 ebx, DWORD PTR __imp__lstrcmpiA@8
  0000a	56		 push	 esi
  0000b	57		 push	 edi
  0000c	8b 7d 08	 mov	 edi, DWORD PTR _szToken$[ebp]
  0000f	33 f6		 xor	 esi, esi
$LL4@HKeyFromSt:

; 845  : 	{
; 846  : 		if (!lstrcmpi(szToken, map[i].lpsz))

  00011	ff 34 f5 00 00
	00 00		 push	 DWORD PTR ?map@?1??HKeyFromString@CRegParser@ATL@@KAPAUHKEY__@@PAD@Z@4QBUkeymap@?1??123@KAPAU4@0@Z@B[esi*8]
  00018	57		 push	 edi
  00019	ff d3		 call	 ebx
  0001b	85 c0		 test	 eax, eax
  0001d	74 0d		 je	 SHORT $LN8@HKeyFromSt

; 822  : 	struct keymap
; 823  : 	{
; 824  : 		LPCTSTR lpsz;
; 825  : 		HKEY hkey;
; 826  : 	};
; 827  : 	static const keymap map[] = {
; 828  : 		{_T("HKCR"), HKEY_CLASSES_ROOT},
; 829  : 		{_T("HKCU"), HKEY_CURRENT_USER},
; 830  : 		{_T("HKLM"), HKEY_LOCAL_MACHINE},
; 831  : 		{_T("HKU"),  HKEY_USERS},
; 832  : 		{_T("HKPD"), HKEY_PERFORMANCE_DATA},
; 833  : 		{_T("HKDD"), HKEY_DYN_DATA},
; 834  : 		{_T("HKCC"), HKEY_CURRENT_CONFIG},
; 835  : 		{_T("HKEY_CLASSES_ROOT"), HKEY_CLASSES_ROOT},
; 836  : 		{_T("HKEY_CURRENT_USER"), HKEY_CURRENT_USER},
; 837  : 		{_T("HKEY_LOCAL_MACHINE"), HKEY_LOCAL_MACHINE},
; 838  : 		{_T("HKEY_USERS"), HKEY_USERS},
; 839  : 		{_T("HKEY_PERFORMANCE_DATA"), HKEY_PERFORMANCE_DATA},
; 840  : 		{_T("HKEY_DYN_DATA"), HKEY_DYN_DATA},
; 841  : 		{_T("HKEY_CURRENT_CONFIG"), HKEY_CURRENT_CONFIG}
; 842  : 	};
; 843  : 
; 844  : 	for (int i=0;i<sizeof(map)/sizeof(keymap);i++)

  0001f	46		 inc	 esi
  00020	83 fe 0e	 cmp	 esi, 14			; 0000000eH
  00023	72 ec		 jb	 SHORT $LL4@HKeyFromSt

; 848  : 	}
; 849  : 	return NULL;

  00025	5f		 pop	 edi
  00026	5e		 pop	 esi
  00027	33 c0		 xor	 eax, eax
  00029	5b		 pop	 ebx

; 850  : }

  0002a	5d		 pop	 ebp
  0002b	c3		 ret	 0
$LN8@HKeyFromSt:

; 847  : 			return map[i].hkey;

  0002c	8b 04 f5 04 00
	00 00		 mov	 eax, DWORD PTR ?map@?1??HKeyFromString@CRegParser@ATL@@KAPAUHKEY__@@PAD@Z@4QBUkeymap@?1??123@KAPAU4@0@Z@B[esi*8+4]
  00033	5f		 pop	 edi
  00034	5e		 pop	 esi
  00035	5b		 pop	 ebx

; 850  : }

  00036	5d		 pop	 ebp
  00037	c3		 ret	 0
?HKeyFromString@CRegParser@ATL@@KAPAUHKEY__@@PAD@Z ENDP	; ATL::CRegParser::HKeyFromString
_TEXT	ENDS
; Function compile flags: /Ogtp
; File c:\program files (x86)\microsoft visual studio 14.0\vc\atlmfc\include\statreg.h
;	COMDAT ?StrChrA@CRegParser@ATL@@KAPADPADD@Z
_TEXT	SEGMENT
_lpsz$ = 8						; size = 4
_ch$ = 12						; size = 1
?StrChrA@CRegParser@ATL@@KAPADPADD@Z PROC		; ATL::CRegParser::StrChrA, COMDAT

; 855  : {

  00000	55		 push	 ebp
  00001	8b ec		 mov	 ebp, esp

; 856  : 	LPTSTR p = NULL;
; 857  : 
; 858  : 	if (lpsz == NULL)

  00003	8b 45 08	 mov	 eax, DWORD PTR _lpsz$[ebp]
  00006	56		 push	 esi
  00007	33 f6		 xor	 esi, esi
  00009	85 c0		 test	 eax, eax
  0000b	75 03		 jne	 SHORT $LN7@StrChrA
  0000d	5e		 pop	 esi

; 871  : }

  0000e	5d		 pop	 ebp
  0000f	c3		 ret	 0
$LN7@StrChrA:

; 859  : 		return NULL;
; 860  : 
; 861  : 	while (*lpsz)

  00010	8a 08		 mov	 cl, BYTE PTR [eax]
  00012	84 c9		 test	 cl, cl
  00014	74 23		 je	 SHORT $LN3@StrChrA
  00016	53		 push	 ebx
  00017	8a 5d 0c	 mov	 bl, BYTE PTR _ch$[ebp]
  0001a	57		 push	 edi
  0001b	8b 3d 00 00 00
	00		 mov	 edi, DWORD PTR __imp__CharNextA@4
$LL2@StrChrA:

; 862  : 	{
; 863  : 		if (*lpsz == ch)

  00021	3a cb		 cmp	 cl, bl
  00023	74 10		 je	 SHORT $LN8@StrChrA

; 866  : 			break;
; 867  : 		}
; 868  : 		lpsz = CharNext(lpsz);

  00025	50		 push	 eax
  00026	ff d7		 call	 edi
  00028	8a 08		 mov	 cl, BYTE PTR [eax]
  0002a	84 c9		 test	 cl, cl
  0002c	75 f3		 jne	 SHORT $LL2@StrChrA

; 869  : 	}
; 870  : 	return p;

  0002e	5f		 pop	 edi
  0002f	5b		 pop	 ebx
  00030	8b c6		 mov	 eax, esi
  00032	5e		 pop	 esi

; 871  : }

  00033	5d		 pop	 ebp
  00034	c3		 ret	 0
$LN8@StrChrA:
  00035	5f		 pop	 edi

; 864  : 		{
; 865  : 			p = lpsz;

  00036	8b f0		 mov	 esi, eax
  00038	5b		 pop	 ebx
$LN3@StrChrA:

; 869  : 	}
; 870  : 	return p;

  00039	8b c6		 mov	 eax, esi
  0003b	5e		 pop	 esi

; 871  : }

  0003c	5d		 pop	 ebp
  0003d	c3		 ret	 0
?StrChrA@CRegParser@ATL@@KAPADPADD@Z ENDP		; ATL::CRegParser::StrChrA
_TEXT	ENDS
; Function compile flags: /Ogtp
; File c:\program files (x86)\microsoft visual studio 14.0\vc\atlmfc\include\statreg.h
;	COMDAT ?EndOfVar@CRegParser@ATL@@IAEHXZ
_TEXT	SEGMENT
?EndOfVar@CRegParser@ATL@@IAEHXZ PROC			; ATL::CRegParser::EndOfVar, COMDAT
; _this$ = ecx

; 210  : 		return chQuote == *m_pchCur && chQuote != *CharNext(m_pchCur);

  00000	8b 01		 mov	 eax, DWORD PTR [ecx]
  00002	80 38 27	 cmp	 BYTE PTR [eax], 39	; 00000027H
  00005	75 12		 jne	 SHORT $LN3@EndOfVar
  00007	50		 push	 eax
  00008	ff 15 00 00 00
	00		 call	 DWORD PTR __imp__CharNextA@4
  0000e	80 38 27	 cmp	 BYTE PTR [eax], 39	; 00000027H
  00011	74 06		 je	 SHORT $LN3@EndOfVar
  00013	b8 01 00 00 00	 mov	 eax, 1

; 211  : 	}

  00018	c3		 ret	 0
$LN3@EndOfVar:

; 210  : 		return chQuote == *m_pchCur && chQuote != *CharNext(m_pchCur);

  00019	33 c0		 xor	 eax, eax

; 211  : 	}

  0001b	c3		 ret	 0
?EndOfVar@CRegParser@ATL@@IAEHXZ ENDP			; ATL::CRegParser::EndOfVar
_TEXT	ENDS
; Function compile flags: /Ogtp
; File c:\program files (x86)\microsoft visual studio 14.0\vc\atlmfc\include\statreg.h
;	COMDAT ?SkipAssignment@CRegParser@ATL@@IAEJPAD@Z
_TEXT	SEGMENT
_szValue$ = -4100					; size = 4096
__$ArrayPad$ = -4					; size = 4
_szToken$ = 8						; size = 4
?SkipAssignment@CRegParser@ATL@@IAEJPAD@Z PROC		; ATL::CRegParser::SkipAssignment, COMDAT
; _this$ = ecx

; 1151 : {

  00000	55		 push	 ebp
  00001	8b ec		 mov	 ebp, esp
  00003	b8 04 10 00 00	 mov	 eax, 4100		; 00001004H
  00008	e8 00 00 00 00	 call	 __chkstk
  0000d	a1 00 00 00 00	 mov	 eax, DWORD PTR ___security_cookie
  00012	33 c5		 xor	 eax, ebp
  00014	89 45 fc	 mov	 DWORD PTR __$ArrayPad$[ebp], eax
  00017	56		 push	 esi
  00018	57		 push	 edi
  00019	8b 7d 08	 mov	 edi, DWORD PTR _szToken$[ebp]
  0001c	8b f1		 mov	 esi, ecx

; 1152 : 	HRESULT hr;
; 1153 : 	TCHAR szValue[MAX_VALUE];
; 1154 : 
; 1155 : 	if (*szToken == chEquals)

  0001e	80 3f 3d	 cmp	 BYTE PTR [edi], 61	; 0000003dH
  00021	75 2f		 jne	 SHORT $LN5@SkipAssign

; 1156 : 	{
; 1157 : 		if (FAILED(hr = NextToken(szToken)))

  00023	57		 push	 edi
  00024	e8 00 00 00 00	 call	 ?NextToken@CRegParser@ATL@@IAEJPAD@Z ; ATL::CRegParser::NextToken
  00029	85 c0		 test	 eax, eax
  0002b	78 27		 js	 SHORT $LN1@SkipAssign

; 1158 : 			return hr;
; 1159 : 		// Skip assignment
; 1160 : 		SkipWhiteSpace();

  0002d	8b ce		 mov	 ecx, esi
  0002f	e8 00 00 00 00	 call	 ?SkipWhiteSpace@CRegParser@ATL@@IAEXXZ ; ATL::CRegParser::SkipWhiteSpace

; 1161 : 		if (FAILED(hr = NextToken(szValue)))

  00034	8d 85 fc ef ff
	ff		 lea	 eax, DWORD PTR _szValue$[ebp]
  0003a	8b ce		 mov	 ecx, esi
  0003c	50		 push	 eax
  0003d	e8 00 00 00 00	 call	 ?NextToken@CRegParser@ATL@@IAEJPAD@Z ; ATL::CRegParser::NextToken
  00042	85 c0		 test	 eax, eax
  00044	78 0e		 js	 SHORT $LN1@SkipAssign

; 1162 : 			return hr;
; 1163 : 		if (FAILED(hr = NextToken(szToken)))

  00046	57		 push	 edi
  00047	8b ce		 mov	 ecx, esi
  00049	e8 00 00 00 00	 call	 ?NextToken@CRegParser@ATL@@IAEJPAD@Z ; ATL::CRegParser::NextToken
  0004e	85 c0		 test	 eax, eax
  00050	78 02		 js	 SHORT $LN1@SkipAssign
$LN5@SkipAssign:

; 1164 : 			return hr;
; 1165 : 	}
; 1166 : 
; 1167 : 	return S_OK;

  00052	33 c0		 xor	 eax, eax
$LN1@SkipAssign:

; 1168 : }

  00054	8b 4d fc	 mov	 ecx, DWORD PTR __$ArrayPad$[ebp]
  00057	5f		 pop	 edi
  00058	33 cd		 xor	 ecx, ebp
  0005a	5e		 pop	 esi
  0005b	e8 00 00 00 00	 call	 @__security_check_cookie@4
  00060	8b e5		 mov	 esp, ebp
  00062	5d		 pop	 ebp
  00063	c2 04 00	 ret	 4
?SkipAssignment@CRegParser@ATL@@IAEJPAD@Z ENDP		; ATL::CRegParser::SkipAssignment
_TEXT	ENDS
; Function compile flags: /Ogtp
; File c:\program files (x86)\microsoft visual studio 14.0\vc\atlmfc\include\statreg.h
;	COMDAT ?GenerateError@CRegParser@ATL@@IAEJI@Z
_TEXT	SEGMENT
___formal$ = 8						; size = 4
?GenerateError@CRegParser@ATL@@IAEJI@Z PROC		; ATL::CRegParser::GenerateError, COMDAT
; _this$ = ecx

; 203  : 		return DISP_E_EXCEPTION;

  00000	b8 09 00 02 80	 mov	 eax, -2147352567	; 80020009H

; 204  : 	}

  00005	c2 04 00	 ret	 4
?GenerateError@CRegParser@ATL@@IAEJI@Z ENDP		; ATL::CRegParser::GenerateError
_TEXT	ENDS
; Function compile flags: /Ogtp
; File c:\program files (x86)\microsoft visual studio 14.0\vc\atlmfc\include\statreg.h
;	COMDAT ?IsSpace@CRegParser@ATL@@IAEHD@Z
_TEXT	SEGMENT
_ch$ = 8						; size = 1
?IsSpace@CRegParser@ATL@@IAEHD@Z PROC			; ATL::CRegParser::IsSpace, COMDAT
; _this$ = ecx

; 880  : {

  00000	55		 push	 ebp
  00001	8b ec		 mov	 ebp, esp

; 881  : 	switch (ch)

  00003	0f be 45 08	 movsx	 eax, BYTE PTR _ch$[ebp]
  00007	83 c0 f7	 add	 eax, -9			; fffffff7H
  0000a	83 f8 17	 cmp	 eax, 23			; 00000017H
  0000d	77 17		 ja	 SHORT $LN2@IsSpace
  0000f	0f b6 80 00 00
	00 00		 movzx	 eax, BYTE PTR $LN6@IsSpace[eax]
  00016	ff 24 85 00 00
	00 00		 jmp	 DWORD PTR $LN8@IsSpace[eax*4]
$LN4@IsSpace:

; 882  : 	{
; 883  : 		case _T(' '):
; 884  : 		case _T('\t'):
; 885  : 		case _T('\r'):
; 886  : 		case _T('\n'):
; 887  : 				return TRUE;

  0001d	b8 01 00 00 00	 mov	 eax, 1

; 891  : }

  00022	5d		 pop	 ebp
  00023	c2 04 00	 ret	 4
$LN2@IsSpace:

; 888  : 	}
; 889  : 
; 890  : 	return FALSE;

  00026	33 c0		 xor	 eax, eax

; 891  : }

  00028	5d		 pop	 ebp
  00029	c2 04 00	 ret	 4
$LN8@IsSpace:
  0002c	00 00 00 00	 DD	 $LN4@IsSpace
  00030	00 00 00 00	 DD	 $LN2@IsSpace
$LN6@IsSpace:
  00034	00		 DB	 0
  00035	00		 DB	 0
  00036	01		 DB	 1
  00037	01		 DB	 1
  00038	00		 DB	 0
  00039	01		 DB	 1
  0003a	01		 DB	 1
  0003b	01		 DB	 1
  0003c	01		 DB	 1
  0003d	01		 DB	 1
  0003e	01		 DB	 1
  0003f	01		 DB	 1
  00040	01		 DB	 1
  00041	01		 DB	 1
  00042	01		 DB	 1
  00043	01		 DB	 1
  00044	01		 DB	 1
  00045	01		 DB	 1
  00046	01		 DB	 1
  00047	01		 DB	 1
  00048	01		 DB	 1
  00049	01		 DB	 1
  0004a	01		 DB	 1
  0004b	00		 DB	 0
?IsSpace@CRegParser@ATL@@IAEHD@Z ENDP			; ATL::CRegParser::IsSpace
_TEXT	ENDS
; Function compile flags: /Ogtp
; File c:\program files (x86)\microsoft visual studio 14.0\vc\atlmfc\include\statreg.h
;	COMDAT ?RegisterSubkeys@CRegParser@ATL@@IAEJPADPAUHKEY__@@HH@Z
_TEXT	SEGMENT
_rkParent$2 = -4448					; size = 12
_rkParent$3 = -4436					; size = 12
_rk$4 = -4424						; size = 12
_bRecover$3$ = -4412					; size = 4
_rkForceRemove$5 = -4408				; size = 12
_bDelete$1$ = -4396					; size = 4
_keyCur$ = -4392					; size = 12
_hkParent$GSCopy$1$ = -4380				; size = 4
_this$GSCopy$1$ = -4376					; size = 4
_szValueName$6 = -4372					; size = 4096
_szKey$ = -276						; size = 260
__$ArrayPad$ = -16					; size = 4
__$EHRec$ = -12						; size = 12
_szToken$ = 8						; size = 4
_hkParent$ = 12						; size = 4
_bRegister$ = 16					; size = 4
_bRecover$ = 20						; size = 4
?RegisterSubkeys@CRegParser@ATL@@IAEJPADPAUHKEY__@@HH@Z PROC ; ATL::CRegParser::RegisterSubkeys, COMDAT
; _this$ = ecx

; 1411 : {

  00000	55		 push	 ebp
  00001	8b ec		 mov	 ebp, esp
  00003	6a ff		 push	 -1
  00005	68 00 00 00 00	 push	 __ehhandler$?RegisterSubkeys@CRegParser@ATL@@IAEJPADPAUHKEY__@@HH@Z
  0000a	64 a1 00 00 00
	00		 mov	 eax, DWORD PTR fs:0
  00010	50		 push	 eax
  00011	b8 54 11 00 00	 mov	 eax, 4436		; 00001154H
  00016	e8 00 00 00 00	 call	 __chkstk
  0001b	a1 00 00 00 00	 mov	 eax, DWORD PTR ___security_cookie
  00020	33 c5		 xor	 eax, ebp
  00022	89 45 f0	 mov	 DWORD PTR __$ArrayPad$[ebp], eax
  00025	53		 push	 ebx
  00026	56		 push	 esi
  00027	57		 push	 edi
  00028	50		 push	 eax
  00029	8d 45 f4	 lea	 eax, DWORD PTR __$EHRec$[ebp]
  0002c	64 a3 00 00 00
	00		 mov	 DWORD PTR fs:0, eax
  00032	8b c1		 mov	 eax, ecx
  00034	89 85 e8 ee ff
	ff		 mov	 DWORD PTR _this$GSCopy$1$[ebp], eax
  0003a	8b 4d 0c	 mov	 ecx, DWORD PTR _hkParent$[ebp]
  0003d	8b 7d 08	 mov	 edi, DWORD PTR _szToken$[ebp]
  00040	89 8d e4 ee ff
	ff		 mov	 DWORD PTR _hkParent$GSCopy$1$[ebp], ecx

; 1412 : 	CRegKey keyCur;

  00046	c7 85 d8 ee ff
	ff 00 00 00 00	 mov	 DWORD PTR _keyCur$[ebp], 0
  00050	c7 85 dc ee ff
	ff 00 00 00 00	 mov	 DWORD PTR _keyCur$[ebp+4], 0
  0005a	c7 85 e0 ee ff
	ff 00 00 00 00	 mov	 DWORD PTR _keyCur$[ebp+8], 0

; 1413 : 	LONG    lRes;
; 1414 : 	TCHAR  szKey[_MAX_PATH];
; 1415 : 	BOOL    bDelete = TRUE;
; 1416 : 	BOOL    bInRecovery = bRecover;
; 1417 : 	HRESULT hr = S_OK;
; 1418 : 
; 1419 : 	ATLTRACE(atlTraceRegistrar, 2, _T("Num Els = %d\n"), cbNeverDelete);
; 1420 : 	if (FAILED(hr = NextToken(szToken)))

  00064	57		 push	 edi
  00065	8b c8		 mov	 ecx, eax
  00067	c7 45 fc 00 00
	00 00		 mov	 DWORD PTR __$EHRec$[ebp+8], 0
  0006e	e8 00 00 00 00	 call	 ?NextToken@CRegParser@ATL@@IAEJPAD@Z ; ATL::CRegParser::NextToken
  00073	8b f0		 mov	 esi, eax
  00075	85 f6		 test	 esi, esi
  00077	0f 88 72 06 00
	00		 js	 $LN167@RegisterSu

; 1421 : 		return hr;
; 1422 : 
; 1423 : 	while (*szToken != chRightBracket) // Continue till we see a }

  0007d	80 3f 7d	 cmp	 BYTE PTR [edi], 125	; 0000007dH
  00080	0f 84 56 06 00
	00		 je	 $LN217@RegisterSu
  00086	66 66 0f 1f 84
	00 00 00 00 00	 npad	 10
$LL2@RegisterSu:

; 1424 : 	{
; 1425 : 		bDelete = TRUE;
; 1426 : 		BOOL bTokenDelete = !lstrcmpi(szToken, szDelete);

  00090	68 00 00 00 00	 push	 OFFSET ??_C@_06JBKGCNBB@Delete?$AA@
  00095	57		 push	 edi
  00096	c7 85 d4 ee ff
	ff 01 00 00 00	 mov	 DWORD PTR _bDelete$1$[ebp], 1
  000a0	ff 15 00 00 00
	00		 call	 DWORD PTR __imp__lstrcmpiA@8
  000a6	f7 d8		 neg	 eax

; 1427 : 
; 1428 : 		if (!lstrcmpi(szToken, szForceRemove) || bTokenDelete)

  000a8	68 00 00 00 00	 push	 OFFSET ??_C@_0M@DBGDLGLL@ForceRemove?$AA@
  000ad	1b db		 sbb	 ebx, ebx
  000af	57		 push	 edi
  000b0	43		 inc	 ebx
  000b1	ff 15 00 00 00
	00		 call	 DWORD PTR __imp__lstrcmpiA@8
  000b7	85 c0		 test	 eax, eax
  000b9	74 08		 je	 SHORT $LN6@RegisterSu
  000bb	85 db		 test	 ebx, ebx
  000bd	0f 84 18 01 00
	00		 je	 $LN8@RegisterSu
$LN6@RegisterSu:

; 1429 : 		{
; 1430 : 			if (FAILED(hr = NextToken(szToken)))

  000c3	8b 8d e8 ee ff
	ff		 mov	 ecx, DWORD PTR _this$GSCopy$1$[ebp]
  000c9	57		 push	 edi
  000ca	e8 00 00 00 00	 call	 ?NextToken@CRegParser@ATL@@IAEJPAD@Z ; ATL::CRegParser::NextToken
  000cf	8b f0		 mov	 esi, eax
  000d1	85 f6		 test	 esi, esi
  000d3	0f 88 03 06 00
	00		 js	 $LN217@RegisterSu

; 1431 : 				break;
; 1432 : 
; 1433 : 			if (bRegister)

  000d9	83 7d 10 00	 cmp	 DWORD PTR _bRegister$[ebp], 0
  000dd	0f 84 f8 00 00
	00		 je	 $LN8@RegisterSu

; 1434 : 			{
; 1435 : 				CRegKey rkForceRemove;
; 1436 : 
; 1437 : 				if (StrChr(szToken, chDirSep) != NULL)

  000e3	8a 07		 mov	 al, BYTE PTR [edi]
  000e5	8b cf		 mov	 ecx, edi
  000e7	c7 85 c8 ee ff
	ff 00 00 00 00	 mov	 DWORD PTR _rkForceRemove$5[ebp], 0
  000f1	c7 85 cc ee ff
	ff 00 00 00 00	 mov	 DWORD PTR _rkForceRemove$5[ebp+4], 0
  000fb	c7 85 d0 ee ff
	ff 00 00 00 00	 mov	 DWORD PTR _rkForceRemove$5[ebp+8], 0
  00105	84 c0		 test	 al, al
  00107	74 24		 je	 SHORT $LN214@RegisterSu
  00109	0f 1f 80 00 00
	00 00		 npad	 7
$LL78@RegisterSu:
  00110	3c 5c		 cmp	 al, 92			; 0000005cH
  00112	74 11		 je	 SHORT $LN177@RegisterSu
  00114	51		 push	 ecx
  00115	ff 15 00 00 00
	00		 call	 DWORD PTR __imp__CharNextA@4
  0011b	8b c8		 mov	 ecx, eax
  0011d	8a 01		 mov	 al, BYTE PTR [ecx]
  0011f	84 c0		 test	 al, al
  00121	75 ed		 jne	 SHORT $LL78@RegisterSu

; 1655 : 					break;
; 1656 : 				if (FAILED(hr = NextToken(szToken)))

  00123	eb 08		 jmp	 SHORT $LN214@RegisterSu
$LN177@RegisterSu:

; 1434 : 			{
; 1435 : 				CRegKey rkForceRemove;
; 1436 : 
; 1437 : 				if (StrChr(szToken, chDirSep) != NULL)

  00125	85 c9		 test	 ecx, ecx
  00127	0f 85 48 05 00
	00		 jne	 $LN181@RegisterSu
$LN214@RegisterSu:

; 1439 : 
; 1440 : 				if (CanForceRemoveKey(szToken))

  0012d	be 00 00 00 00	 mov	 esi, OFFSET ?rgszNeverDelete@CRegParser@ATL@@1QBQBDB ; ATL::CRegParser::rgszNeverDelete
$LL88@RegisterSu:
  00132	ff 36		 push	 DWORD PTR [esi]
  00134	57		 push	 edi
  00135	ff 15 00 00 00
	00		 call	 DWORD PTR __imp__lstrcmpiA@8
  0013b	85 c0		 test	 eax, eax
  0013d	74 55		 je	 SHORT $LN10@RegisterSu
  0013f	83 c6 04	 add	 esi, 4
  00142	81 fe 30 00 00
	00		 cmp	 esi, OFFSET ?rgszNeverDelete@CRegParser@ATL@@1QBQBDB+48
  00148	7c e8		 jl	 SHORT $LL88@RegisterSu

; 1441 : 				{
; 1442 : 					rkForceRemove.Attach(hkParent);

  0014a	8b 85 e4 ee ff
	ff		 mov	 eax, DWORD PTR _hkParent$GSCopy$1$[ebp]

; 1443 : 					// Error not returned. We will overwrite the values any way.
; 1444 : 					rkForceRemove.RecurseDeleteKey(szToken);

  00150	8d 8d c8 ee ff
	ff		 lea	 ecx, DWORD PTR _rkForceRemove$5[ebp]
  00156	57		 push	 edi
  00157	89 85 c8 ee ff
	ff		 mov	 DWORD PTR _rkForceRemove$5[ebp], eax
  0015d	c7 85 cc ee ff
	ff 00 00 00 00	 mov	 DWORD PTR _rkForceRemove$5[ebp+4], 0
  00167	c7 85 d0 ee ff
	ff 00 00 00 00	 mov	 DWORD PTR _rkForceRemove$5[ebp+8], 0
  00171	e8 00 00 00 00	 call	 ?RecurseDeleteKey@CRegKey@ATL@@QAEJPBD@Z ; ATL::CRegKey::RecurseDeleteKey

; 1445 : 					rkForceRemove.Detach();

  00176	c7 85 c8 ee ff
	ff 00 00 00 00	 mov	 DWORD PTR _rkForceRemove$5[ebp], 0
  00180	c7 85 cc ee ff
	ff 00 00 00 00	 mov	 DWORD PTR _rkForceRemove$5[ebp+4], 0
  0018a	c7 85 d0 ee ff
	ff 00 00 00 00	 mov	 DWORD PTR _rkForceRemove$5[ebp+8], 0
$LN10@RegisterSu:
  00194	85 db		 test	 ebx, ebx

; 1446 : 				}
; 1447 : 				if (bTokenDelete)

  00196	74 39		 je	 SHORT $LN106@RegisterSu

; 1448 : 				{
; 1449 : 					if (FAILED(hr = NextToken(szToken)))

  00198	8b 9d e8 ee ff
	ff		 mov	 ebx, DWORD PTR _this$GSCopy$1$[ebp]
  0019e	8b cb		 mov	 ecx, ebx
  001a0	57		 push	 edi
  001a1	e8 00 00 00 00	 call	 ?NextToken@CRegParser@ATL@@IAEJPAD@Z ; ATL::CRegParser::NextToken
  001a6	8b f0		 mov	 esi, eax
  001a8	85 f6		 test	 esi, esi
  001aa	0f 88 d7 04 00
	00		 js	 $LN183@RegisterSu

; 1450 : 						break;
; 1451 : 					if (FAILED(hr = SkipAssignment(szToken)))

  001b0	57		 push	 edi
  001b1	8b cb		 mov	 ecx, ebx
  001b3	e8 00 00 00 00	 call	 ?SkipAssignment@CRegParser@ATL@@IAEJPAD@Z ; ATL::CRegParser::SkipAssignment
  001b8	8b f0		 mov	 esi, eax
  001ba	85 f6		 test	 esi, esi
  001bc	0f 88 c5 04 00
	00		 js	 $LN183@RegisterSu

; 1646 : 		}
; 1647 : 
; 1648 : EndCheck:

  001c2	c7 85 cc ee ff
	ff 00 00 00 00	 mov	 DWORD PTR _rkForceRemove$5[ebp+4], 0

; 1453 : 					goto EndCheck;

  001cc	e9 5c 02 00 00	 jmp	 $EndCheck$228

; 1454 : 				}
; 1455 : 			}

$LN106@RegisterSu:
  001d1	c7 85 cc ee ff
	ff 00 00 00 00	 mov	 DWORD PTR _rkForceRemove$5[ebp+4], 0
$LN8@RegisterSu:

; 1456 : 		}
; 1457 : 
; 1458 : 		if (!lstrcmpi(szToken, szNoRemove))

  001db	68 00 00 00 00	 push	 OFFSET ??_C@_08KAAPDIAN@NoRemove?$AA@
  001e0	57		 push	 edi
  001e1	ff 15 00 00 00
	00		 call	 DWORD PTR __imp__lstrcmpiA@8

; 1459 : 		{
; 1460 : 			bDelete = FALSE;    // set even for register
; 1461 : 			if (FAILED(hr = NextToken(szToken)))

  001e7	8b 9d e8 ee ff
	ff		 mov	 ebx, DWORD PTR _this$GSCopy$1$[ebp]
  001ed	85 c0		 test	 eax, eax
  001ef	75 18		 jne	 SHORT $LN16@RegisterSu
  001f1	57		 push	 edi
  001f2	8b cb		 mov	 ecx, ebx
  001f4	89 85 d4 ee ff
	ff		 mov	 DWORD PTR _bDelete$1$[ebp], eax
  001fa	e8 00 00 00 00	 call	 ?NextToken@CRegParser@ATL@@IAEJPAD@Z ; ATL::CRegParser::NextToken
  001ff	8b f0		 mov	 esi, eax
  00201	85 f6		 test	 esi, esi
  00203	0f 88 d3 04 00
	00		 js	 $LN217@RegisterSu
$LN16@RegisterSu:

; 1462 : 				break;
; 1463 : 		}
; 1464 : 
; 1465 : 		if (!lstrcmpi(szToken, szValToken)) // need to add a value to hkParent

  00209	68 00 00 00 00	 push	 OFFSET ??_C@_03LAIAPFCB@Val?$AA@
  0020e	57		 push	 edi
  0020f	ff 15 00 00 00
	00		 call	 DWORD PTR __imp__lstrcmpiA@8
  00215	85 c0		 test	 eax, eax
  00217	0f 85 56 01 00
	00		 jne	 $LN22@RegisterSu

; 1466 : 		{
; 1467 : 			TCHAR  szValueName[MAX_VALUE];
; 1468 : 
; 1469 : 			if (FAILED(hr = NextToken(szValueName)))

  0021d	8d 85 ec ee ff
	ff		 lea	 eax, DWORD PTR _szValueName$6[ebp]
  00223	8b cb		 mov	 ecx, ebx
  00225	50		 push	 eax
  00226	e8 00 00 00 00	 call	 ?NextToken@CRegParser@ATL@@IAEJPAD@Z ; ATL::CRegParser::NextToken
  0022b	8b f0		 mov	 esi, eax
  0022d	85 f6		 test	 esi, esi
  0022f	0f 88 a7 04 00
	00		 js	 $LN217@RegisterSu

; 1470 : 				break;
; 1471 : 			if (FAILED(hr = NextToken(szToken)))

  00235	57		 push	 edi
  00236	8b cb		 mov	 ecx, ebx
  00238	e8 00 00 00 00	 call	 ?NextToken@CRegParser@ATL@@IAEJPAD@Z ; ATL::CRegParser::NextToken
  0023d	8b f0		 mov	 esi, eax
  0023f	85 f6		 test	 esi, esi
  00241	0f 88 95 04 00
	00		 js	 $LN217@RegisterSu

; 1472 : 				break;
; 1473 : 
; 1474 : 			if (*szToken != chEquals)

  00247	80 3f 3d	 cmp	 BYTE PTR [edi], 61	; 0000003dH
  0024a	0f 85 30 04 00
	00		 jne	 $LN187@RegisterSu

; 1475 : 				return GenerateError(E_ATL_EXPECTING_EQUAL);
; 1476 : 
; 1477 : 			if (bRegister)

  00250	83 7d 10 00	 cmp	 DWORD PTR _bRegister$[ebp], 0
  00254	74 75		 je	 SHORT $LN21@RegisterSu

; 1478 : 			{
; 1479 : 				CRegKey rk;
; 1480 : 
; 1481 : 				rk.Attach(hkParent);

  00256	8b 85 e4 ee ff
	ff		 mov	 eax, DWORD PTR _hkParent$GSCopy$1$[ebp]

; 1482 : 				hr = AddValue(rk, szValueName, szToken);

  0025c	8b cb		 mov	 ecx, ebx
  0025e	89 85 b8 ee ff
	ff		 mov	 DWORD PTR _rk$4[ebp], eax
  00264	8d 85 ec ee ff
	ff		 lea	 eax, DWORD PTR _szValueName$6[ebp]
  0026a	57		 push	 edi
  0026b	50		 push	 eax
  0026c	8d 85 b8 ee ff
	ff		 lea	 eax, DWORD PTR _rk$4[ebp]
  00272	c6 45 fc 01	 mov	 BYTE PTR __$EHRec$[ebp+8], 1
  00276	50		 push	 eax
  00277	c7 85 bc ee ff
	ff 00 00 00 00	 mov	 DWORD PTR _rk$4[ebp+4], 0
  00281	c7 85 c0 ee ff
	ff 00 00 00 00	 mov	 DWORD PTR _rk$4[ebp+8], 0
  0028b	e8 00 00 00 00	 call	 ?AddValue@CRegParser@ATL@@IAEJAAVCRegKey@2@PBDPAD@Z ; ATL::CRegParser::AddValue
  00290	8b f0		 mov	 esi, eax

; 1483 : 				rk.Detach();

  00292	c7 85 b8 ee ff
	ff 00 00 00 00	 mov	 DWORD PTR _rk$4[ebp], 0
  0029c	c7 85 bc ee ff
	ff 00 00 00 00	 mov	 DWORD PTR _rk$4[ebp+4], 0
  002a6	c7 85 c0 ee ff
	ff 00 00 00 00	 mov	 DWORD PTR _rk$4[ebp+8], 0

; 1484 : 
; 1485 : 				if (FAILED(hr))

  002b0	85 f6		 test	 esi, esi
  002b2	0f 88 dc 03 00
	00		 js	 $LN188@RegisterSu

; 1646 : 		}
; 1647 : 
; 1648 : EndCheck:

  002b8	c6 45 fc 00	 mov	 BYTE PTR __$EHRec$[ebp+8], 0
  002bc	c7 85 bc ee ff
	ff 00 00 00 00	 mov	 DWORD PTR _rk$4[ebp+4], 0
  002c6	e9 62 01 00 00	 jmp	 $EndCheck$228
$LN21@RegisterSu:

; 1487 : 
; 1488 : 				goto EndCheck;
; 1489 : 			}
; 1490 : 			else
; 1491 : 			{
; 1492 : 				if (!bRecover && bDelete)

  002cb	83 7d 14 00	 cmp	 DWORD PTR _bRecover$[ebp], 0
  002cf	0f 85 87 00 00
	00		 jne	 $LN25@RegisterSu
  002d5	83 bd d4 ee ff
	ff 00		 cmp	 DWORD PTR _bDelete$1$[ebp], 0
  002dc	74 7e		 je	 SHORT $LN25@RegisterSu

; 1493 : 				{
; 1494 : 					ATLTRACE(atlTraceRegistrar, 1, _T("Deleting %Ts\n"), szValueName);
; 1495 : 					// We have to open the key for write to be able to delete.
; 1496 : 					CRegKey rkParent;
; 1497 : 					lRes = rkParent.Open(hkParent, NULL, KEY_WRITE);

  002de	68 06 00 02 00	 push	 131078			; 00020006H
  002e3	6a 00		 push	 0
  002e5	ff b5 e4 ee ff
	ff		 push	 DWORD PTR _hkParent$GSCopy$1$[ebp]
  002eb	8d 8d ac ee ff
	ff		 lea	 ecx, DWORD PTR _rkParent$3[ebp]
  002f1	c7 85 ac ee ff
	ff 00 00 00 00	 mov	 DWORD PTR _rkParent$3[ebp], 0
  002fb	c7 85 b0 ee ff
	ff 00 00 00 00	 mov	 DWORD PTR _rkParent$3[ebp+4], 0
  00305	c7 85 b4 ee ff
	ff 00 00 00 00	 mov	 DWORD PTR _rkParent$3[ebp+8], 0
  0030f	e8 00 00 00 00	 call	 ?Open@CRegKey@ATL@@QAEJPAUHKEY__@@PBDK@Z ; ATL::CRegKey::Open

; 1498 : 					if (lRes == ERROR_SUCCESS)

  00314	85 c0		 test	 eax, eax
  00316	0f 85 85 03 00
	00		 jne	 $LN26@RegisterSu

; 1499 : 					{
; 1500 : 						lRes = rkParent.DeleteValue(szValueName);

  0031c	8b b5 ac ee ff
	ff		 mov	 esi, DWORD PTR _rkParent$3[ebp]
  00322	8d 85 ec ee ff
	ff		 lea	 eax, DWORD PTR _szValueName$6[ebp]
  00328	50		 push	 eax
  00329	56		 push	 esi
  0032a	ff 15 00 00 00
	00		 call	 DWORD PTR __imp__RegDeleteValueA@8

; 1501 : 						if (lRes != ERROR_SUCCESS && lRes != ERROR_FILE_NOT_FOUND)

  00330	85 c0		 test	 eax, eax
  00332	74 09		 je	 SHORT $LN28@RegisterSu
  00334	83 f8 02	 cmp	 eax, 2
  00337	0f 85 64 03 00
	00		 jne	 $LN26@RegisterSu
$LN28@RegisterSu:

; 1512 : 					}
; 1513 : 				}

  0033d	85 f6		 test	 esi, esi
  0033f	74 11		 je	 SHORT $LN134@RegisterSu
  00341	56		 push	 esi
  00342	ff 15 00 00 00
	00		 call	 DWORD PTR __imp__RegCloseKey@4
  00348	c7 85 ac ee ff
	ff 00 00 00 00	 mov	 DWORD PTR _rkParent$3[ebp], 0
$LN134@RegisterSu:
  00352	c7 85 b0 ee ff
	ff 00 00 00 00	 mov	 DWORD PTR _rkParent$3[ebp+4], 0
$LN25@RegisterSu:

; 1514 : 				if (FAILED(hr = SkipAssignment(szToken)))

  0035c	57		 push	 edi
  0035d	8b cb		 mov	 ecx, ebx
  0035f	e8 00 00 00 00	 call	 ?SkipAssignment@CRegParser@ATL@@IAEJPAD@Z ; ATL::CRegParser::SkipAssignment
  00364	8b f0		 mov	 esi, eax
  00366	85 f6		 test	 esi, esi
  00368	0f 88 6e 03 00
	00		 js	 $LN217@RegisterSu

; 1515 : 					break;
; 1516 : 				continue;  // can never have a subkey

  0036e	e9 f7 02 00 00	 jmp	 $LN59@RegisterSu
$LN22@RegisterSu:

; 1517 : 			}
; 1518 : 		}
; 1519 : 
; 1520 : 		if (StrChr(szToken, chDirSep) != NULL)

  00373	8a 07		 mov	 al, BYTE PTR [edi]
  00375	8b cf		 mov	 ecx, edi
  00377	84 c0		 test	 al, al
  00379	74 22		 je	 SHORT $LN216@RegisterSu
  0037b	0f 1f 44 00 00	 npad	 5
$LL137@RegisterSu:
  00380	3c 5c		 cmp	 al, 92			; 0000005cH
  00382	74 11		 je	 SHORT $LN179@RegisterSu
  00384	51		 push	 ecx
  00385	ff 15 00 00 00
	00		 call	 DWORD PTR __imp__CharNextA@4
  0038b	8b c8		 mov	 ecx, eax
  0038d	8a 01		 mov	 al, BYTE PTR [ecx]
  0038f	84 c0		 test	 al, al
  00391	75 ed		 jne	 SHORT $LL137@RegisterSu

; 1655 : 					break;
; 1656 : 				if (FAILED(hr = NextToken(szToken)))

  00393	eb 08		 jmp	 SHORT $LN216@RegisterSu
$LN179@RegisterSu:

; 1517 : 			}
; 1518 : 		}
; 1519 : 
; 1520 : 		if (StrChr(szToken, chDirSep) != NULL)

  00395	85 c9		 test	 ecx, ecx
  00397	0f 85 e3 02 00
	00		 jne	 $LN187@RegisterSu
$LN216@RegisterSu:

; 1521 : 			return GenerateError(E_ATL_COMPOUND_KEY);
; 1522 : 
; 1523 : 		if (bRegister)

  0039d	83 7d 10 00	 cmp	 DWORD PTR _bRegister$[ebp], 0
  003a1	0f 84 df 00 00
	00		 je	 $LN31@RegisterSu

; 1524 : 		{
; 1525 : 			lRes = keyCur.Open(hkParent, szToken, KEY_READ | KEY_WRITE);

  003a7	8b b5 e4 ee ff
	ff		 mov	 esi, DWORD PTR _hkParent$GSCopy$1$[ebp]
  003ad	8d 8d d8 ee ff
	ff		 lea	 ecx, DWORD PTR _keyCur$[ebp]
  003b3	68 1f 00 02 00	 push	 131103			; 0002001fH
  003b8	57		 push	 edi
  003b9	56		 push	 esi
  003ba	e8 00 00 00 00	 call	 ?Open@CRegKey@ATL@@QAEJPAUHKEY__@@PBDK@Z ; ATL::CRegKey::Open

; 1526 : 			if (ERROR_SUCCESS != lRes)

  003bf	85 c0		 test	 eax, eax
  003c1	74 38		 je	 SHORT $LN35@RegisterSu

; 1527 : 			{
; 1528 : 				// Failed all access try read only
; 1529 : 				lRes = keyCur.Open(hkParent, szToken, KEY_READ);

  003c3	68 19 00 02 00	 push	 131097			; 00020019H
  003c8	57		 push	 edi
  003c9	56		 push	 esi
  003ca	8d 8d d8 ee ff
	ff		 lea	 ecx, DWORD PTR _keyCur$[ebp]
  003d0	e8 00 00 00 00	 call	 ?Open@CRegKey@ATL@@QAEJPAUHKEY__@@PBDK@Z ; ATL::CRegKey::Open

; 1530 : 				if (ERROR_SUCCESS != lRes)

  003d5	85 c0		 test	 eax, eax
  003d7	74 22		 je	 SHORT $LN35@RegisterSu

; 1531 : 				{
; 1532 : 					// Finally try creating it
; 1533 : 					ATLTRACE(atlTraceRegistrar, 2, _T("Creating key %Ts\n"), szToken);
; 1534 : 					lRes = keyCur.Create(hkParent, szToken, REG_NONE, REG_OPTION_NON_VOLATILE, KEY_READ | KEY_WRITE);

  003d9	6a 00		 push	 0
  003db	6a 00		 push	 0
  003dd	68 1f 00 02 00	 push	 131103			; 0002001fH
  003e2	6a 00		 push	 0
  003e4	6a 00		 push	 0
  003e6	57		 push	 edi
  003e7	56		 push	 esi
  003e8	8d 8d d8 ee ff
	ff		 lea	 ecx, DWORD PTR _keyCur$[ebp]
  003ee	e8 00 00 00 00	 call	 ?Create@CRegKey@ATL@@QAEJPAUHKEY__@@PBDPADKKPAU_SECURITY_ATTRIBUTES@@PAK@Z ; ATL::CRegKey::Create

; 1535 : 					if (lRes != ERROR_SUCCESS)

  003f3	85 c0		 test	 eax, eax
  003f5	0f 85 d6 02 00
	00		 jne	 $LN199@RegisterSu
$LN35@RegisterSu:

; 1536 : 						return AtlHresultFromWin32(lRes);
; 1537 : 				}
; 1538 : 			}
; 1539 : 
; 1540 : 			if (FAILED(hr = NextToken(szToken)))

  003fb	57		 push	 edi
  003fc	8b cb		 mov	 ecx, ebx
  003fe	e8 00 00 00 00	 call	 ?NextToken@CRegParser@ATL@@IAEJPAD@Z ; ATL::CRegParser::NextToken
  00403	8b f0		 mov	 esi, eax
  00405	85 f6		 test	 esi, esi
  00407	0f 88 cf 02 00
	00		 js	 $LN217@RegisterSu

; 1541 : 				break;
; 1542 : 
; 1543 : 
; 1544 : 			if (*szToken == chEquals)

  0040d	80 3f 3d	 cmp	 BYTE PTR [edi], 61	; 0000003dH
  00410	75 1b		 jne	 SHORT $EndCheck$228

; 1545 : 			{
; 1546 : 				if (FAILED(hr = AddValue(keyCur, NULL, szToken))) // NULL == default

  00412	57		 push	 edi
  00413	6a 00		 push	 0
  00415	8d 85 d8 ee ff
	ff		 lea	 eax, DWORD PTR _keyCur$[ebp]
  0041b	8b cb		 mov	 ecx, ebx
  0041d	50		 push	 eax
  0041e	e8 00 00 00 00	 call	 ?AddValue@CRegParser@ATL@@IAEJAAVCRegKey@2@PBDPAD@Z ; ATL::CRegParser::AddValue
  00423	8b f0		 mov	 esi, eax
  00425	85 f6		 test	 esi, esi
  00427	0f 88 af 02 00
	00		 js	 $LN217@RegisterSu
$EndCheck$228:

; 1649 : 
; 1650 : 		if (bRegister)
; 1651 : 		{
; 1652 : 			if (*szToken == chLeftBracket && _tcslen(szToken) == 1)

  0042d	80 3f 7b	 cmp	 BYTE PTR [edi], 123	; 0000007bH
  00430	0f 85 34 02 00
	00		 jne	 $LN59@RegisterSu
  00436	8b cf		 mov	 ecx, edi
  00438	8d 51 01	 lea	 edx, DWORD PTR [ecx+1]
  0043b	0f 1f 44 00 00	 npad	 5
$LL218@RegisterSu:
  00440	8a 01		 mov	 al, BYTE PTR [ecx]
  00442	41		 inc	 ecx
  00443	84 c0		 test	 al, al
  00445	75 f9		 jne	 SHORT $LL218@RegisterSu
  00447	2b ca		 sub	 ecx, edx
  00449	83 f9 01	 cmp	 ecx, 1
  0044c	0f 85 18 02 00
	00		 jne	 $LN59@RegisterSu

; 1653 : 			{
; 1654 : 				if (FAILED(hr = RegisterSubkeys(szToken, keyCur.m_hKey, bRegister, FALSE)))

  00452	6a 00		 push	 0
  00454	ff 75 10	 push	 DWORD PTR _bRegister$[ebp]
  00457	8b cb		 mov	 ecx, ebx
  00459	ff b5 d8 ee ff
	ff		 push	 DWORD PTR _keyCur$[ebp]
  0045f	57		 push	 edi
  00460	e8 00 00 00 00	 call	 ?RegisterSubkeys@CRegParser@ATL@@IAEJPADPAUHKEY__@@HH@Z ; ATL::CRegParser::RegisterSubkeys
  00465	8b f0		 mov	 esi, eax
  00467	85 f6		 test	 esi, esi
  00469	0f 88 6d 02 00
	00		 js	 $LN217@RegisterSu

; 1655 : 					break;
; 1656 : 				if (FAILED(hr = NextToken(szToken)))

  0046f	57		 push	 edi
  00470	8b cb		 mov	 ecx, ebx
  00472	e8 00 00 00 00	 call	 ?NextToken@CRegParser@ATL@@IAEJPAD@Z ; ATL::CRegParser::NextToken
  00477	8b f0		 mov	 esi, eax
  00479	85 f6		 test	 esi, esi
  0047b	0f 88 5b 02 00
	00		 js	 $LN217@RegisterSu
  00481	e9 e4 01 00 00	 jmp	 $LN59@RegisterSu
$LN31@RegisterSu:

; 1547 : 					break;
; 1548 : 			}
; 1549 : 		}
; 1550 : 		else //Unregister
; 1551 : 		{
; 1552 : 			if (!bRecover)

  00486	8b 75 14	 mov	 esi, DWORD PTR _bRecover$[ebp]
  00489	85 f6		 test	 esi, esi
  0048b	75 1b		 jne	 SHORT $LN39@RegisterSu

; 1553 : 			{
; 1554 :  				lRes = keyCur.Open(hkParent, szToken, KEY_READ);

  0048d	68 19 00 02 00	 push	 131097			; 00020019H
  00492	57		 push	 edi
  00493	ff b5 e4 ee ff
	ff		 push	 DWORD PTR _hkParent$GSCopy$1$[ebp]
  00499	8d 8d d8 ee ff
	ff		 lea	 ecx, DWORD PTR _keyCur$[ebp]
  0049f	e8 00 00 00 00	 call	 ?Open@CRegKey@ATL@@QAEJPAUHKEY__@@PBDK@Z ; ATL::CRegKey::Open
  004a4	8b d8		 mov	 ebx, eax

; 1555 : 
; 1556 : 			}
; 1557 : 			else

  004a6	eb 05		 jmp	 SHORT $LN40@RegisterSu
$LN39@RegisterSu:

; 1558 : 				lRes = ERROR_FILE_NOT_FOUND;

  004a8	bb 02 00 00 00	 mov	 ebx, 2
$LN40@RegisterSu:

; 1559 : 
; 1560 : 
; 1561 : 			// Open failed set recovery mode
; 1562 : 			if (lRes != ERROR_SUCCESS)

  004ad	85 db		 test	 ebx, ebx
  004af	b9 01 00 00 00	 mov	 ecx, 1

; 1563 : 				bRecover = true;
; 1564 : 
; 1565 : 			// TRACE out Key open status and if in recovery mode
; 1566 : #ifdef _DEBUG
; 1567 : 			if (!bRecover)
; 1568 : 				ATLTRACE(atlTraceRegistrar, 1, _T("Opened Key %Ts\n"), szToken);
; 1569 : 			else
; 1570 : 				ATLTRACE(atlTraceRegistrar, 0, _T("Ignoring Open key on %Ts : In Recovery mode\n"), szToken);
; 1571 : #endif //_DEBUG
; 1572 : 
; 1573 : 			// Remember Subkey
; 1574 : 			Checked::tcsncpy_s(szKey, _countof(szKey), szToken, _TRUNCATE);

  004b4	6a ff		 push	 -1
  004b6	8b c6		 mov	 eax, esi
  004b8	0f 45 c1	 cmovne	 eax, ecx
  004bb	57		 push	 edi
  004bc	89 85 c4 ee ff
	ff		 mov	 DWORD PTR _bRecover$3$[ebp], eax
  004c2	8d 85 ec fe ff
	ff		 lea	 eax, DWORD PTR _szKey$[ebp]
  004c8	68 04 01 00 00	 push	 260			; 00000104H
  004cd	50		 push	 eax
  004ce	e8 00 00 00 00	 call	 __mbsnbcpy_s
  004d3	50		 push	 eax
  004d4	e8 00 00 00 00	 call	 ?AtlCrtErrorCheck@ATL@@YAHH@Z ; ATL::AtlCrtErrorCheck

; 1575 : 
; 1576 : 			if (FAILED(hr = NextToken(szToken)))

  004d9	8b 8d e8 ee ff
	ff		 mov	 ecx, DWORD PTR _this$GSCopy$1$[ebp]
  004df	83 c4 14	 add	 esp, 20			; 00000014H
  004e2	57		 push	 edi
  004e3	e8 00 00 00 00	 call	 ?NextToken@CRegParser@ATL@@IAEJPAD@Z ; ATL::CRegParser::NextToken
  004e8	8b f0		 mov	 esi, eax
  004ea	85 f6		 test	 esi, esi
  004ec	0f 88 ea 01 00
	00		 js	 $LN217@RegisterSu

; 1577 : 				break;
; 1578 : 			if (FAILED(hr = SkipAssignment(szToken)))

  004f2	8b 8d e8 ee ff
	ff		 mov	 ecx, DWORD PTR _this$GSCopy$1$[ebp]
  004f8	57		 push	 edi
  004f9	e8 00 00 00 00	 call	 ?SkipAssignment@CRegParser@ATL@@IAEJPAD@Z ; ATL::CRegParser::SkipAssignment
  004fe	8b f0		 mov	 esi, eax
  00500	85 f6		 test	 esi, esi
  00502	0f 88 d4 01 00
	00		 js	 $LN217@RegisterSu

; 1579 : 				break;
; 1580 : 
; 1581 : 			if (*szToken == chLeftBracket && _tcslen(szToken) == 1)

  00508	80 3f 7b	 cmp	 BYTE PTR [edi], 123	; 0000007bH
  0050b	75 56		 jne	 SHORT $LN46@RegisterSu
  0050d	8b cf		 mov	 ecx, edi
  0050f	8d 51 01	 lea	 edx, DWORD PTR [ecx+1]
$LL219@RegisterSu:
  00512	8a 01		 mov	 al, BYTE PTR [ecx]
  00514	41		 inc	 ecx
  00515	84 c0		 test	 al, al
  00517	75 f9		 jne	 SHORT $LL219@RegisterSu
  00519	2b ca		 sub	 ecx, edx
  0051b	83 f9 01	 cmp	 ecx, 1
  0051e	75 43		 jne	 SHORT $LN46@RegisterSu

; 1582 : 			{
; 1583 : 				hr = RegisterSubkeys(szToken, keyCur.m_hKey, bRegister, bRecover);

  00520	ff b5 c4 ee ff
	ff		 push	 DWORD PTR _bRecover$3$[ebp]
  00526	8b 8d e8 ee ff
	ff		 mov	 ecx, DWORD PTR _this$GSCopy$1$[ebp]
  0052c	6a 00		 push	 0
  0052e	ff b5 d8 ee ff
	ff		 push	 DWORD PTR _keyCur$[ebp]
  00534	57		 push	 edi
  00535	e8 00 00 00 00	 call	 ?RegisterSubkeys@CRegParser@ATL@@IAEJPADPAUHKEY__@@HH@Z ; ATL::CRegParser::RegisterSubkeys
  0053a	8b f0		 mov	 esi, eax

; 1584 : 				// In recover mode ignore error
; 1585 : 				if (FAILED(hr) && !bRecover)

  0053c	85 f6		 test	 esi, esi
  0053e	79 0d		 jns	 SHORT $LN45@RegisterSu
  00540	83 bd c4 ee ff
	ff 00		 cmp	 DWORD PTR _bRecover$3$[ebp], 0
  00547	0f 84 8f 01 00
	00		 je	 $LN217@RegisterSu
$LN45@RegisterSu:

; 1586 : 					break;
; 1587 : 				// Skip the }
; 1588 : 				if (FAILED(hr = NextToken(szToken)))

  0054d	8b 8d e8 ee ff
	ff		 mov	 ecx, DWORD PTR _this$GSCopy$1$[ebp]
  00553	57		 push	 edi
  00554	e8 00 00 00 00	 call	 ?NextToken@CRegParser@ATL@@IAEJPAD@Z ; ATL::CRegParser::NextToken
  00559	8b f0		 mov	 esi, eax
  0055b	85 f6		 test	 esi, esi
  0055d	0f 88 79 01 00
	00		 js	 $LN217@RegisterSu
$LN46@RegisterSu:

; 1589 : 					break;
; 1590 : 			}
; 1591 : 
; 1592 : #ifdef _DEBUG
; 1593 : 			if (bRecover != bInRecovery)
; 1594 : 				ATLTRACE(atlTraceRegistrar, 0, _T("Ending Recovery Mode\n"));
; 1595 : #endif
; 1596 : 			bRecover = bInRecovery;
; 1597 : 
; 1598 : 			if (lRes == ERROR_FILE_NOT_FOUND)

  00563	83 fb 02	 cmp	 ebx, 2
  00566	0f 84 fe 00 00
	00		 je	 $LN59@RegisterSu

; 1599 : 				// Key already not present so not an error.
; 1600 : 				continue;
; 1601 : 
; 1602 : 			if (lRes != ERROR_SUCCESS)

  0056c	85 db		 test	 ebx, ebx
  0056e	74 10		 je	 SHORT $LN50@RegisterSu

; 1603 : 			{
; 1604 : 				// We are recovery mode continue on errors else break
; 1605 : 				if (bRecover)

  00570	83 7d 14 00	 cmp	 DWORD PTR _bRecover$[ebp], 0
  00574	0f 85 f0 00 00
	00		 jne	 $LN59@RegisterSu

; 1606 : 					continue;
; 1607 : 				else
; 1608 : 				{
; 1609 : 					hr = AtlHresultFromWin32(lRes);

  0057a	53		 push	 ebx

; 1610 : 					break;

  0057b	e9 52 01 00 00	 jmp	 $LN227@RegisterSu
$LN50@RegisterSu:

; 1611 : 				}
; 1612 : 			}
; 1613 : 
; 1614 : 			// If in recovery mode
; 1615 : 			if (bRecover && HasSubKeys(keyCur))

  00580	83 7d 14 00	 cmp	 DWORD PTR _bRecover$[ebp], 0
  00584	8b 9d e8 ee ff
	ff		 mov	 ebx, DWORD PTR _this$GSCopy$1$[ebp]
  0058a	74 4b		 je	 SHORT $LN51@RegisterSu
  0058c	ff b5 d8 ee ff
	ff		 push	 DWORD PTR _keyCur$[ebp]
  00592	8b cb		 mov	 ecx, ebx
  00594	e8 00 00 00 00	 call	 ?HasSubKeys@CRegParser@ATL@@IAEHPAUHKEY__@@@Z ; ATL::CRegParser::HasSubKeys
  00599	85 c0		 test	 eax, eax
  0059b	74 3a		 je	 SHORT $LN51@RegisterSu

; 1616 : 			{
; 1617 : 				// See if the KEY is in the NeverDelete list and if so, don't
; 1618 : 				if (CanForceRemoveKey(szKey) && bDelete)

  0059d	8d 85 ec fe ff
	ff		 lea	 eax, DWORD PTR _szKey$[ebp]
  005a3	8b cb		 mov	 ecx, ebx
  005a5	50		 push	 eax
  005a6	e8 00 00 00 00	 call	 ?CanForceRemoveKey@CRegParser@ATL@@IAEHPBD@Z ; ATL::CRegParser::CanForceRemoveKey
  005ab	85 c0		 test	 eax, eax
  005ad	0f 84 b7 00 00
	00		 je	 $LN59@RegisterSu
  005b3	83 bd d4 ee ff
	ff 00		 cmp	 DWORD PTR _bDelete$1$[ebp], 0
  005ba	0f 84 aa 00 00
	00		 je	 $LN59@RegisterSu

; 1619 : 				{
; 1620 : 					ATLTRACE(atlTraceRegistrar, 0, _T("Deleting non-empty subkey %Ts by force\n"), szKey);
; 1621 : 					// Error not returned since we are in recovery mode. The error that caused recovery mode is returned
; 1622 : 					keyCur.RecurseDeleteKey(szKey);

  005c0	8d 85 ec fe ff
	ff		 lea	 eax, DWORD PTR _szKey$[ebp]
  005c6	50		 push	 eax
  005c7	8d 8d d8 ee ff
	ff		 lea	 ecx, DWORD PTR _keyCur$[ebp]
  005cd	e8 00 00 00 00	 call	 ?RecurseDeleteKey@CRegKey@ATL@@QAEJPBD@Z ; ATL::CRegKey::RecurseDeleteKey

; 1623 : 				}
; 1624 : 				continue;

  005d2	e9 93 00 00 00	 jmp	 $LN59@RegisterSu
$LN51@RegisterSu:

; 1625 : 			}
; 1626 : 
; 1627 : 			BOOL bHasSubKeys=HasSubKeys(keyCur);

  005d7	ff b5 d8 ee ff
	ff		 push	 DWORD PTR _keyCur$[ebp]
  005dd	8b cb		 mov	 ecx, ebx
  005df	e8 00 00 00 00	 call	 ?HasSubKeys@CRegParser@ATL@@IAEHPAUHKEY__@@@Z ; ATL::CRegParser::HasSubKeys

; 1628 : 			lRes = keyCur.Close();

  005e4	8b 8d d8 ee ff
	ff		 mov	 ecx, DWORD PTR _keyCur$[ebp]
  005ea	8b d8		 mov	 ebx, eax
  005ec	33 c0		 xor	 eax, eax
  005ee	85 c9		 test	 ecx, ecx
  005f0	74 0f		 je	 SHORT $LN153@RegisterSu
  005f2	51		 push	 ecx
  005f3	ff 15 00 00 00
	00		 call	 DWORD PTR __imp__RegCloseKey@4
  005f9	33 c9		 xor	 ecx, ecx
  005fb	89 8d d8 ee ff
	ff		 mov	 DWORD PTR _keyCur$[ebp], ecx
$LN153@RegisterSu:
  00601	c7 85 dc ee ff
	ff 00 00 00 00	 mov	 DWORD PTR _keyCur$[ebp+4], 0

; 1629 : 			if (lRes != ERROR_SUCCESS)

  0060b	85 c0		 test	 eax, eax
  0060d	0f 85 be 00 00
	00		 jne	 $LN199@RegisterSu
  00613	39 85 d4 ee ff
	ff		 cmp	 DWORD PTR _bDelete$1$[ebp], eax

; 1631 : 
; 1632 : 			if (bDelete&& !bHasSubKeys)

  00619	74 4f		 je	 SHORT $LN59@RegisterSu
  0061b	85 db		 test	 ebx, ebx
  0061d	75 4b		 jne	 SHORT $LN59@RegisterSu

; 1633 : 			{
; 1634 : 				ATLTRACE(atlTraceRegistrar, 0, _T("Deleting Key %Ts\n"), szKey);
; 1635 : 				CRegKey rkParent;
; 1636 : 				rkParent.Attach(hkParent);

  0061f	8b 85 e4 ee ff
	ff		 mov	 eax, DWORD PTR _hkParent$GSCopy$1$[ebp]

; 1637 : 				lRes = rkParent.DeleteSubKey(szKey);

  00625	8d 8d a0 ee ff
	ff		 lea	 ecx, DWORD PTR _rkParent$2[ebp]
  0062b	89 85 a0 ee ff
	ff		 mov	 DWORD PTR _rkParent$2[ebp], eax
  00631	8d 85 ec fe ff
	ff		 lea	 eax, DWORD PTR _szKey$[ebp]
  00637	50		 push	 eax
  00638	89 9d a4 ee ff
	ff		 mov	 DWORD PTR _rkParent$2[ebp+4], ebx
  0063e	89 9d a8 ee ff
	ff		 mov	 DWORD PTR _rkParent$2[ebp+8], ebx
  00644	e8 00 00 00 00	 call	 ?DeleteSubKey@CRegKey@ATL@@QAEJPBD@Z ; ATL::CRegKey::DeleteSubKey

; 1638 : 				rkParent.Detach();

  00649	89 9d a0 ee ff
	ff		 mov	 DWORD PTR _rkParent$2[ebp], ebx
  0064f	89 9d a4 ee ff
	ff		 mov	 DWORD PTR _rkParent$2[ebp+4], ebx
  00655	89 9d a8 ee ff
	ff		 mov	 DWORD PTR _rkParent$2[ebp+8], ebx

; 1639 : 				if (lRes != ERROR_SUCCESS)

  0065b	85 c0		 test	 eax, eax
  0065d	75 5a		 jne	 SHORT $LN200@RegisterSu

; 1644 : 				}
; 1645 : 			}

  0065f	8d 8d a0 ee ff
	ff		 lea	 ecx, DWORD PTR _rkParent$2[ebp]
  00665	e8 00 00 00 00	 call	 ??1CRegKey@ATL@@QAE@XZ	; ATL::CRegKey::~CRegKey
$LN59@RegisterSu:

; 1421 : 		return hr;
; 1422 : 
; 1423 : 	while (*szToken != chRightBracket) // Continue till we see a }

  0066a	80 3f 7d	 cmp	 BYTE PTR [edi], 125	; 0000007dH
  0066d	0f 85 1d fa ff
	ff		 jne	 $LL2@RegisterSu
  00673	eb 67		 jmp	 SHORT $LN217@RegisterSu
$LN181@RegisterSu:

; 1438 : 					return GenerateError(E_ATL_COMPOUND_KEY);

  00675	8d 8d c8 ee ff
	ff		 lea	 ecx, DWORD PTR _rkForceRemove$5[ebp]
  0067b	e8 00 00 00 00	 call	 ??1CRegKey@ATL@@QAE@XZ	; ATL::CRegKey::~CRegKey
$LN187@RegisterSu:
  00680	be 09 00 02 80	 mov	 esi, -2147352567	; 80020009H
  00685	eb 55		 jmp	 SHORT $LN217@RegisterSu
$LN183@RegisterSu:

; 1452 : 						break;

  00687	8d 8d c8 ee ff
	ff		 lea	 ecx, DWORD PTR _rkForceRemove$5[ebp]
  0068d	e8 00 00 00 00	 call	 ??1CRegKey@ATL@@QAE@XZ	; ATL::CRegKey::~CRegKey
  00692	eb 48		 jmp	 SHORT $LN217@RegisterSu
$LN188@RegisterSu:

; 1486 : 					return hr;

  00694	8d 8d b8 ee ff
	ff		 lea	 ecx, DWORD PTR _rk$4[ebp]
  0069a	e8 00 00 00 00	 call	 ??1CRegKey@ATL@@QAE@XZ	; ATL::CRegKey::~CRegKey
  0069f	eb 3b		 jmp	 SHORT $LN217@RegisterSu
$LN26@RegisterSu:

; 1502 : 						{
; 1503 : 							// Key not present is not an error
; 1504 : 							hr = AtlHresultFromWin32(lRes);
; 1505 : 							break;
; 1506 : 						}
; 1507 : 					}
; 1508 : 					else
; 1509 : 					{
; 1510 : 						hr = AtlHresultFromWin32(lRes);

  006a1	50		 push	 eax
  006a2	e8 00 00 00 00	 call	 ?AtlHresultFromWin32@ATL@@YAJK@Z ; ATL::AtlHresultFromWin32
  006a7	83 c4 04	 add	 esp, 4

; 1511 : 						break;

  006aa	8d 8d ac ee ff
	ff		 lea	 ecx, DWORD PTR _rkParent$3[ebp]
  006b0	8b f0		 mov	 esi, eax
  006b2	e8 00 00 00 00	 call	 ??1CRegKey@ATL@@QAE@XZ	; ATL::CRegKey::~CRegKey
  006b7	eb 23		 jmp	 SHORT $LN217@RegisterSu
$LN200@RegisterSu:

; 1640 : 				{
; 1641 : 
; 1642 : 					hr = AtlHresultFromWin32(lRes);

  006b9	50		 push	 eax
  006ba	e8 00 00 00 00	 call	 ?AtlHresultFromWin32@ATL@@YAJK@Z ; ATL::AtlHresultFromWin32
  006bf	83 c4 04	 add	 esp, 4

; 1643 : 					break;

  006c2	8d 8d a0 ee ff
	ff		 lea	 ecx, DWORD PTR _rkParent$2[ebp]
  006c8	8b f0		 mov	 esi, eax
  006ca	e8 00 00 00 00	 call	 ??1CRegKey@ATL@@QAE@XZ	; ATL::CRegKey::~CRegKey
  006cf	eb 0b		 jmp	 SHORT $LN217@RegisterSu
$LN199@RegisterSu:

; 1630 : 			return AtlHresultFromWin32(lRes);

  006d1	50		 push	 eax
$LN227@RegisterSu:
  006d2	e8 00 00 00 00	 call	 ?AtlHresultFromWin32@ATL@@YAJK@Z ; ATL::AtlHresultFromWin32
  006d7	83 c4 04	 add	 esp, 4
  006da	8b f0		 mov	 esi, eax
$LN217@RegisterSu:

; 1657 : 					break;
; 1658 : 			}
; 1659 : 		}
; 1660 : 	}
; 1661 : 
; 1662 : 	return hr;

  006dc	8b 85 d8 ee ff
	ff		 mov	 eax, DWORD PTR _keyCur$[ebp]
  006e2	85 c0		 test	 eax, eax
  006e4	74 07		 je	 SHORT $LN220@RegisterSu
  006e6	50		 push	 eax
  006e7	ff 15 00 00 00
	00		 call	 DWORD PTR __imp__RegCloseKey@4
$LN220@RegisterSu:
  006ed	8b c6		 mov	 eax, esi
$LN167@RegisterSu:

; 1663 : }

  006ef	8b 4d f4	 mov	 ecx, DWORD PTR __$EHRec$[ebp]
  006f2	64 89 0d 00 00
	00 00		 mov	 DWORD PTR fs:0, ecx
  006f9	59		 pop	 ecx
  006fa	5f		 pop	 edi
  006fb	5e		 pop	 esi
  006fc	5b		 pop	 ebx
  006fd	8b 4d f0	 mov	 ecx, DWORD PTR __$ArrayPad$[ebp]
  00700	33 cd		 xor	 ecx, ebp
  00702	e8 00 00 00 00	 call	 @__security_check_cookie@4
  00707	8b e5		 mov	 esp, ebp
  00709	5d		 pop	 ebp
  0070a	c2 10 00	 ret	 16			; 00000010H
_TEXT	ENDS
;	COMDAT text$x
text$x	SEGMENT
__unwindfunclet$?RegisterSubkeys@CRegParser@ATL@@IAEJPADPAUHKEY__@@HH@Z$2:
  00000	8d 8d d8 ee ff
	ff		 lea	 ecx, DWORD PTR _keyCur$[ebp]
  00006	e9 00 00 00 00	 jmp	 ??1CRegKey@ATL@@QAE@XZ	; ATL::CRegKey::~CRegKey
__unwindfunclet$?RegisterSubkeys@CRegParser@ATL@@IAEJPADPAUHKEY__@@HH@Z$4:
  0000b	8d 8d b8 ee ff
	ff		 lea	 ecx, DWORD PTR _rk$4[ebp]
  00011	e9 00 00 00 00	 jmp	 ??1CRegKey@ATL@@QAE@XZ	; ATL::CRegKey::~CRegKey
__ehhandler$?RegisterSubkeys@CRegParser@ATL@@IAEJPADPAUHKEY__@@HH@Z:
  00016	8b 54 24 08	 mov	 edx, DWORD PTR [esp+8]
  0001a	8d 42 0c	 lea	 eax, DWORD PTR [edx+12]
  0001d	8b 8a 9c ee ff
	ff		 mov	 ecx, DWORD PTR [edx-4452]
  00023	33 c8		 xor	 ecx, eax
  00025	e8 00 00 00 00	 call	 @__security_check_cookie@4
  0002a	8b 4a fc	 mov	 ecx, DWORD PTR [edx-4]
  0002d	33 c8		 xor	 ecx, eax
  0002f	e8 00 00 00 00	 call	 @__security_check_cookie@4
  00034	b8 00 00 00 00	 mov	 eax, OFFSET __ehfuncinfo$?RegisterSubkeys@CRegParser@ATL@@IAEJPADPAUHKEY__@@HH@Z
  00039	e9 00 00 00 00	 jmp	 ___CxxFrameHandler3
text$x	ENDS
?RegisterSubkeys@CRegParser@ATL@@IAEJPADPAUHKEY__@@HH@Z ENDP ; ATL::CRegParser::RegisterSubkeys
; Function compile flags: /Ogtp
; File c:\program files (x86)\microsoft visual studio 14.0\vc\atlmfc\include\statreg.h
;	COMDAT ?HasSubKeys@CRegParser@ATL@@IAEHPAUHKEY__@@@Z
_TEXT	SEGMENT
_cSubKeys$ = -4						; size = 4
_hkey$ = 8						; size = 4
?HasSubKeys@CRegParser@ATL@@IAEHPAUHKEY__@@@Z PROC	; ATL::CRegParser::HasSubKeys, COMDAT
; _this$ = ecx

; 1111 : {

  00000	55		 push	 ebp
  00001	8b ec		 mov	 ebp, esp
  00003	51		 push	 ecx

; 1112 : 	DWORD cSubKeys = 0;
; 1113 : 
; 1114 : 	if (RegQueryInfoKeyW(hkey, NULL, NULL, NULL,
; 1115 : 							   &cSubKeys, NULL, NULL,
; 1116 : 							   NULL, NULL, NULL, NULL, NULL) != ERROR_SUCCESS)

  00004	6a 00		 push	 0
  00006	6a 00		 push	 0
  00008	6a 00		 push	 0
  0000a	6a 00		 push	 0
  0000c	6a 00		 push	 0
  0000e	6a 00		 push	 0
  00010	6a 00		 push	 0
  00012	8d 45 fc	 lea	 eax, DWORD PTR _cSubKeys$[ebp]
  00015	c7 45 fc 00 00
	00 00		 mov	 DWORD PTR _cSubKeys$[ebp], 0
  0001c	50		 push	 eax
  0001d	6a 00		 push	 0
  0001f	6a 00		 push	 0
  00021	6a 00		 push	 0
  00023	ff 75 08	 push	 DWORD PTR _hkey$[ebp]
  00026	ff 15 00 00 00
	00		 call	 DWORD PTR __imp__RegQueryInfoKeyW@48
  0002c	85 c0		 test	 eax, eax
  0002e	74 08		 je	 SHORT $LN2@HasSubKeys

; 1117 : 	{
; 1118 : 		ATLTRACE(atlTraceRegistrar, 0, _T("Should not be here!!\n"));
; 1119 : 		ATLASSERT(FALSE);
; 1120 : 		return FALSE;

  00030	33 c0		 xor	 eax, eax

; 1124 : }

  00032	8b e5		 mov	 esp, ebp
  00034	5d		 pop	 ebp
  00035	c2 04 00	 ret	 4
$LN2@HasSubKeys:

; 1121 : 	}
; 1122 : 
; 1123 : 	return cSubKeys > 0;

  00038	33 c0		 xor	 eax, eax
  0003a	3b 45 fc	 cmp	 eax, DWORD PTR _cSubKeys$[ebp]
  0003d	1b c0		 sbb	 eax, eax
  0003f	f7 d8		 neg	 eax

; 1124 : }

  00041	8b e5		 mov	 esp, ebp
  00043	5d		 pop	 ebp
  00044	c2 04 00	 ret	 4
?HasSubKeys@CRegParser@ATL@@IAEHPAUHKEY__@@@Z ENDP	; ATL::CRegParser::HasSubKeys
_TEXT	ENDS
; Function compile flags: /Ogtp
; File c:\program files (x86)\microsoft visual studio 14.0\vc\atlmfc\include\statreg.h
;	COMDAT ?CanForceRemoveKey@CRegParser@ATL@@IAEHPBD@Z
_TEXT	SEGMENT
_szKey$ = 8						; size = 4
?CanForceRemoveKey@CRegParser@ATL@@IAEHPBD@Z PROC	; ATL::CRegParser::CanForceRemoveKey, COMDAT
; _this$ = ecx

; 1102 : {

  00000	55		 push	 ebp
  00001	8b ec		 mov	 ebp, esp
