; Listing generated by Microsoft (R) Optimizing Compiler Version 19.00.24215.1 

	TITLE	C:\Users\Alexis\Desktop\Sources_GostCrypt_Windows_1.3.1_COMMENTED\Sources_GostCrypt_Windows_1.3.1é\Sources_GostCrypt_Windows_1.3.1\Setup\Setup.c
	.686P
	.XMM
	include listing.inc
	.model	flat

INCLUDELIB LIBCMT
INCLUDELIB OLDNAMES

PUBLIC	?UninstallBatch@@3PADA				; UninstallBatch
PUBLIC	?InstalledVersion@@3JA				; InstalledVersion
PUBLIC	?bUninstall@@3HA				; bUninstall
PUBLIC	?bMakePackage@@3HA				; bMakePackage
PUBLIC	?bDone@@3HA					; bDone
PUBLIC	?bDowngrade@@3HA				; bDowngrade
PUBLIC	?PortableMode@@3HA				; PortableMode
PUBLIC	?bChangeMode@@3HA				; bChangeMode
PUBLIC	?bUninstallInProgress@@3HA			; bUninstallInProgress
PUBLIC	?UnloadDriver@@3HA				; UnloadDriver
PUBLIC	_bDevm
PUBLIC	_Rollback
PUBLIC	_bUpgrade
PUBLIC	_bPossiblyFirstTimeInstall
PUBLIC	_bRepairMode
PUBLIC	_bSystemRestore
PUBLIC	_bDisableSwapFiles
PUBLIC	_bForAllUsers
PUBLIC	_bRegisterFileExt
PUBLIC	_bAddToStartMenu
PUBLIC	_bDesktopIcon
PUBLIC	_bDesktopIconStatusDetermined
PUBLIC	_SystemEncryptionUpdate
PUBLIC	_bRestartRequired
PUBLIC	_SystemRestoreDll
PUBLIC	_InstallationPath
PUBLIC	_SetupFilesDir
_BSS	SEGMENT
?UninstallBatch@@3PADA DB 0104H DUP (?)			; UninstallBatch
?InstalledVersion@@3JA DD 01H DUP (?)			; InstalledVersion
?bUninstall@@3HA DD 01H DUP (?)				; bUninstall
?bMakePackage@@3HA DD 01H DUP (?)			; bMakePackage
?bDone@@3HA DD	01H DUP (?)				; bDone
?bDowngrade@@3HA DD 01H DUP (?)				; bDowngrade
?PortableMode@@3HA DD 01H DUP (?)			; PortableMode
?bChangeMode@@3HA DD 01H DUP (?)			; bChangeMode
?bUninstallInProgress@@3HA DD 01H DUP (?)		; bUninstallInProgress
_bDevm	DD	01H DUP (?)
_Rollback DD	01H DUP (?)
_bUpgrade DD	01H DUP (?)
_bPossiblyFirstTimeInstall DD 01H DUP (?)
_bRepairMode DD	01H DUP (?)
_bDisableSwapFiles DD 01H DUP (?)
_bDesktopIconStatusDetermined DD 01H DUP (?)
_SystemEncryptionUpdate DD 01H DUP (?)
_bRestartRequired DD 01H DUP (?)
_SystemRestoreDll DD 01H DUP (?)
_InstallationPath DB 0104H DUP (?)
_SetupFilesDir DB 0104H DUP (?)
_BSS	ENDS
_DATA	SEGMENT
?UnloadDriver@@3HA DD 01H				; UnloadDriver
_bSystemRestore DD 01H
_bForAllUsers DD 01H
_bRegisterFileExt DD 01H
_bAddToStartMenu DD 01H
_bDesktopIcon DD 01H
_DATA	ENDS
PUBLIC	_WinMain@16
PUBLIC	___local_stdio_printf_options
PUBLIC	??$__vcrt_va_start_verify_argument_type@QB_W@@YAXXZ ; __vcrt_va_start_verify_argument_type<wchar_t const * const>
PUBLIC	?swprintf@@YAHQA_WQB_WZZ			; swprintf
PUBLIC	_fprintf
PUBLIC	??$__vcrt_va_start_verify_argument_type@QBD@@YAXXZ ; __vcrt_va_start_verify_argument_type<char const * const>
PUBLIC	_sprintf
PUBLIC	__snprintf
PUBLIC	?compare@?$char_traits@D@std@@SAHPBD0I@Z	; std::char_traits<char>::compare
PUBLIC	?allocate@?$_Wrap_alloc@V?$allocator@D@std@@@std@@QAEPADI@Z ; std::_Wrap_alloc<std::allocator<char> >::allocate
PUBLIC	?deallocate@?$_Wrap_alloc@V?$allocator@D@std@@@std@@QAEXPADI@Z ; std::_Wrap_alloc<std::allocator<char> >::deallocate
PUBLIC	??0?$basic_string@DU?$char_traits@D@std@@V?$allocator@D@2@@std@@QAE@PBD@Z ; std::basic_string<char,std::char_traits<char>,std::allocator<char> >::basic_string<char,std::char_traits<char>,std::allocator<char> >
PUBLIC	??4?$basic_string@DU?$char_traits@D@std@@V?$allocator@D@2@@std@@QAEAAV01@$$QAV01@@Z ; std::basic_string<char,std::char_traits<char>,std::allocator<char> >::operator=
PUBLIC	?_Assign_rv@?$basic_string@DU?$char_traits@D@std@@V?$allocator@D@2@@std@@QAEX$$QAV12@@Z ; std::basic_string<char,std::char_traits<char>,std::allocator<char> >::_Assign_rv
PUBLIC	??1?$basic_string@DU?$char_traits@D@std@@V?$allocator@D@2@@std@@QAE@XZ ; std::basic_string<char,std::char_traits<char>,std::allocator<char> >::~basic_string<char,std::char_traits<char>,std::allocator<char> >
PUBLIC	?append@?$basic_string@DU?$char_traits@D@std@@V?$allocator@D@2@@std@@QAEAAV12@ABV12@II@Z ; std::basic_string<char,std::char_traits<char>,std::allocator<char> >::append
PUBLIC	?append@?$basic_string@DU?$char_traits@D@std@@V?$allocator@D@2@@std@@QAEAAV12@PBDI@Z ; std::basic_string<char,std::char_traits<char>,std::allocator<char> >::append
PUBLIC	?append@?$basic_string@DU?$char_traits@D@std@@V?$allocator@D@2@@std@@QAEAAV12@ID@Z ; std::basic_string<char,std::char_traits<char>,std::allocator<char> >::append
PUBLIC	?assign@?$basic_string@DU?$char_traits@D@std@@V?$allocator@D@2@@std@@QAEAAV12@ABV12@II@Z ; std::basic_string<char,std::char_traits<char>,std::allocator<char> >::assign
PUBLIC	?assign@?$basic_string@DU?$char_traits@D@std@@V?$allocator@D@2@@std@@QAEAAV12@PBDI@Z ; std::basic_string<char,std::char_traits<char>,std::allocator<char> >::assign
PUBLIC	?insert@?$basic_string@DU?$char_traits@D@std@@V?$allocator@D@2@@std@@QAEAAV12@IABV12@II@Z ; std::basic_string<char,std::char_traits<char>,std::allocator<char> >::insert
PUBLIC	?insert@?$basic_string@DU?$char_traits@D@std@@V?$allocator@D@2@@std@@QAEAAV12@IPBDI@Z ; std::basic_string<char,std::char_traits<char>,std::allocator<char> >::insert
PUBLIC	?insert@?$basic_string@DU?$char_traits@D@std@@V?$allocator@D@2@@std@@QAEAAV12@IPBD@Z ; std::basic_string<char,std::char_traits<char>,std::allocator<char> >::insert
PUBLIC	?erase@?$basic_string@DU?$char_traits@D@std@@V?$allocator@D@2@@std@@QAEAAV12@II@Z ; std::basic_string<char,std::char_traits<char>,std::allocator<char> >::erase
PUBLIC	?find@?$basic_string@DU?$char_traits@D@std@@V?$allocator@D@2@@std@@QBEIPBDII@Z ; std::basic_string<char,std::char_traits<char>,std::allocator<char> >::find
PUBLIC	?find@?$basic_string@DU?$char_traits@D@std@@V?$allocator@D@2@@std@@QBEIPBDI@Z ; std::basic_string<char,std::char_traits<char>,std::allocator<char> >::find
PUBLIC	?substr@?$basic_string@DU?$char_traits@D@std@@V?$allocator@D@2@@std@@QBE?AV12@II@Z ; std::basic_string<char,std::char_traits<char>,std::allocator<char> >::substr
PUBLIC	?_Chassign@?$basic_string@DU?$char_traits@D@std@@V?$allocator@D@2@@std@@QAEXIID@Z ; std::basic_string<char,std::char_traits<char>,std::allocator<char> >::_Chassign
PUBLIC	?_Copy@?$basic_string@DU?$char_traits@D@std@@V?$allocator@D@2@@std@@QAEXII@Z ; std::basic_string<char,std::char_traits<char>,std::allocator<char> >::_Copy
PUBLIC	??$?HDU?$char_traits@D@std@@V?$allocator@D@1@@std@@YA?AV?$basic_string@DU?$char_traits@D@std@@V?$allocator@D@2@@0@$$QAV10@PBD@Z ; std::operator+<char,std::char_traits<char>,std::allocator<char> >
PUBLIC	_localcleanup
PUBLIC	_StatDeleteFile
PUBLIC	_StatRemoveDirectory
PUBLIC	_CreateLink
PUBLIC	_GetProgramPath
PUBLIC	_StatusMessage
PUBLIC	_StatusMessageParam
PUBLIC	_ClearLogWindow
PUBLIC	_RegMessage
PUBLIC	_CopyMessage
PUBLIC	_RemoveMessage
PUBLIC	_IconMessage
PUBLIC	_DetermineUpgradeDowngradeStatus
PUBLIC	_DoFilesInstall
PUBLIC	_DoRegInstall
PUBLIC	_DoRegUninstall
PUBLIC	_DoServiceUninstall
PUBLIC	_DoDriverUnload
PUBLIC	_DoShortcutsInstall
PUBLIC	_DoShortcutsUninstall
PUBLIC	_OutcomePrompt
PUBLIC	_DoUninstall
PUBLIC	_DoInstall
PUBLIC	_SetInstallationPath
PUBLIC	_UpgradeBootLoader
PUBLIC	??$IID_PPV_ARGS_Helper@UIPropertyStore@@@@YAPAPAXPAPAUIPropertyStore@@@Z ; IID_PPV_ARGS_Helper<IPropertyStore>
PUBLIC	?DoApplicationDataUninstall@@YAHPAUHWND__@@@Z	; DoApplicationDataUninstall
PUBLIC	??$?HDU?$char_traits@D@std@@V?$allocator@D@1@@std@@YA?AV?$basic_string@DU?$char_traits@D@std@@V?$allocator@D@2@@0@$$QAV10@D@Z ; std::operator+<char,std::char_traits<char>,std::allocator<char> >
PUBLIC	?UninstallDlgProc@@YGHPAUHWND__@@IIJ@Z		; UninstallDlgProc
PUBLIC	?_OptionsStorage@?1??__local_stdio_printf_options@@9@4_KA ; `__local_stdio_printf_options'::`2'::_OptionsStorage
PUBLIC	??_C@_00CNPNBAHC@?$AA@				; `string'
PUBLIC	??_C@_09NKHKFHLH@GostCrypt?$AA@			; `string'
PUBLIC	??_C@_0BK@COLMIOEI@AGostCrypt?5User?5Guide?4pdf?$AA@ ; `string'
PUBLIC	??_C@_0N@GJIBBNGF@ALicense?4txt?$AA@		; `string'
PUBLIC	??_C@_0P@BPIJAOEL@AGostCrypt?4exe?$AA@		; `string'
PUBLIC	??_C@_0BG@PFOLNHIK@AGostCrypt?5Format?4exe?$AA@	; `string'
PUBLIC	??_C@_0P@PFJIKCOA@Agostcrypt?4sys?$AA@		; `string'
PUBLIC	??_C@_0BD@OEHMDGJN@Agostcrypt?9x64?4sys?$AA@	; `string'
PUBLIC	??_C@_0P@MGBPBMGL@Dgostcrypt?4sys?$AA@		; `string'
PUBLIC	??_C@_0BF@CJCNGML@AGostCrypt?5Setup?4exe?$AA@	; `string'
PUBLIC	??_C@_0O@GKOBNEPO@GostCrypt?4exe?$AA@		; `string'
PUBLIC	??_C@_0BF@MBKAOEOG@GostCrypt?5Format?4exe?$AA@	; `string'
PUBLIC	??_C@_0BC@MDIFFMMP@gostcrypt?9x64?4sys?$AA@	; `string'
PUBLIC	__GUID_886d8eeb_8cf2_4446_8d02_cdba1dbdcf99
PUBLIC	??_C@_1DM@PACGJHBK@?$AAG?$AAo?$AAs?$AAt?$AAC?$AAr?$AAy?$AAp?$AAt?$AAF?$AAo?$AAu?$AAn?$AAd?$AAa?$AAt?$AAi?$AAo?$AAn?$AA?4?$AAG?$AAo?$AAs?$AAt?$AAC?$AAr?$AAy?$AAp?$AAt?$AA?$AA@ ; `string'
PUBLIC	??_C@_1O@FHLBCOCO@?$AA?$CF?$AAs?$AA?5?$AA?$CF?$AAh?$AAs?$AA?$AA@ ; `string'
PUBLIC	??_C@_0L@LFAEJJAB@ADDING_REG?$AA@		; `string'
PUBLIC	??_C@_0L@HHILBMI@INSTALLING?$AA@		; `string'
PUBLIC	??_C@_08GLIOLGPM@REMOVING?$AA@			; `string'
PUBLIC	??_C@_0M@CFAAPOHD@ADDING_ICON?$AA@		; `string'
PUBLIC	??_C@_01KICIPPFI@?2?$AA@			; `string'
PUBLIC	??_C@_0BA@IEENJPHG@GostCrypt?5Setup?$AA@	; `string'
PUBLIC	??_C@_08GHPFJMCG@Drivers?2?$AA@			; `string'
PUBLIC	??_C@_04HDOCAJNK@?$CFs?$CFs?$AA@		; `string'
PUBLIC	??_C@_0BP@KPLJJAIG@System32?2drivers?2gostcrypt?4sys?$AA@ ; `string'
PUBLIC	??_C@_09JMMKOPDJ@ImagePath?$AA@			; `string'
PUBLIC	??_C@_0CM@LCJDGIOL@SYSTEM?2CurrentControlSet?2Service@ ; `string'
PUBLIC	??_C@_0BC@MNFHJDAJ@INSTALL_OF_FAILED?$AA@	; `string'
PUBLIC	??_C@_0BE@ICFIOGFL@UNINSTALL_OF_FAILED?$AA@	; `string'
PUBLIC	??_C@_0P@GPPOMBKF@Language?4?$CK?4xml?$AA@	; `string'
PUBLIC	??_C@_0M@LJEGBCFM@Setup?5files?$AA@		; `string'
PUBLIC	??_C@_0BL@HCDNBGHG@GostCrypt?5User?5Guide?4?$CK?4pdf?$AA@ ; `string'
PUBLIC	??_C@_0DO@MNMIDBOE@Software?2Microsoft?2Windows?2Curre@ ; `string'
PUBLIC	??_C@_05OJPKCACG@1?43?41?$AA@			; `string'
PUBLIC	??_C@_0P@BNDLMAIF@DisplayVersion?$AA@		; `string'
PUBLIC	??_C@_0BK@EMBCECD@http?3?1?1www?4gostcrypt?4org?1?$AA@ ; `string'
PUBLIC	??_C@_0N@CIJCJNDA@URLInfoAbout?$AA@		; `string'
PUBLIC	??_C@_0CB@HIFIENIE@Software?2Classes?2GostCryptVolume@ ; `string'
PUBLIC	??_C@_0BB@BGKFOGNF@GostCrypt?5Volume?$AA@	; `string'
PUBLIC	??_C@_03BMPLCLAP@?$CFws?$AA@			; `string'
PUBLIC	??_C@_0P@LGELIEHB@AppUserModelID?$AA@		; `string'
PUBLIC	??_C@_0CN@HFACCAPK@Software?2Classes?2GostCryptVolume@ ; `string'
PUBLIC	??_C@_0BC@PJLJMABB@?$CFsGostCrypt?4exe?01?$AA@	; `string'
PUBLIC	??_C@_0DE@GDKMHJIK@Software?2Classes?2GostCryptVolume@ ; `string'
PUBLIC	??_C@_0BL@OEOIONON@?$CC?$CFsGostCrypt?4exe?$CC?5?1v?5?$CC?$CF?$CF1?$CC?$AA@ ; `string'
PUBLIC	??_C@_0BG@HDBIFFFP@Software?2Classes?2?4gst?$AA@ ; `string'
PUBLIC	??_C@_0BA@OIGBKMHJ@GostCryptVolume?$AA@		; `string'
PUBLIC	??_C@_0BL@FHBMAFAG@?$CC?$CFsGostCrypt?5Setup?4exe?$CC?5?1u?$AA@ ; `string'
PUBLIC	??_C@_0BA@OJMJCMCH@UninstallString?$AA@		; `string'
PUBLIC	??_C@_0BL@ELIELANB@?$CC?$CFsGostCrypt?5Setup?4exe?$CC?5?1c?$AA@ ; `string'
PUBLIC	??_C@_0L@OGHNHFGG@ModifyPath?$AA@		; `string'
PUBLIC	??_C@_0BI@BBPBNAKG@?$CC?$CFsGostCrypt?5Setup?4exe?$CC?$AA@ ; `string'
PUBLIC	??_C@_0M@DDCGOGKB@DisplayIcon?$AA@		; `string'
PUBLIC	??_C@_0M@MLHPPPJP@DisplayName?$AA@		; `string'
PUBLIC	??_C@_0BF@JOANFFGE@GostCrypt?5Developers?$AA@	; `string'
PUBLIC	??_C@_09PNIDBPNC@Publisher?$AA@			; `string'
PUBLIC	??_C@_0BD@HFNFAFOP@REG_INSTALL_FAILED?$AA@	; `string'
PUBLIC	??_C@_0P@LLMHDMAL@COM_REG_FAILED?$AA@		; `string'
PUBLIC	??_C@_0BB@EKLCNMAG@REMOVING_APPDATA?$AA@	; `string'
PUBLIC	??_C@_0M@GKPCCOCO@?2GostCrypt?2?$AA@		; `string'
PUBLIC	??_C@_0BF@EGBOIEGJ@Favorite?5Volumes?4xml?$AA@	; `string'
PUBLIC	??_C@_0BF@CEDLNBLM@Default?5Keyfiles?4xml?$AA@	; `string'
PUBLIC	??_C@_0M@COMBLGLD@History?4xml?$AA@		; `string'
PUBLIC	??_C@_0BC@FNANDAA@Configuration?4xml?$AA@	; `string'
PUBLIC	??_C@_0BG@NJOIKHOP@System?5Encryption?4xml?$AA@	; `string'
PUBLIC	??_C@_0L@CANDMBMO@?2GostCrypt?$AA@		; `string'
PUBLIC	??_C@_0BB@OBMIEKIN@COM_DEREG_FAILED?$AA@	; `string'
PUBLIC	??_C@_0N@GACNCPHC@REMOVING_REG?$AA@		; `string'
PUBLIC	??_C@_0CM@GDILNLIK@Software?2Classes?2GostCryptVolume@ ; `string'
PUBLIC	??_C@_0CH@DCEJAAFL@Software?2Classes?2GostCryptVolume@ ; `string'
PUBLIC	??_C@_0BD@EEKEPCFI@Software?2GostCrypt?$AA@	; `string'
PUBLIC	??_C@_09JCILFBFB@gostcrypt?$AA@			; `string'
PUBLIC	??_C@_0BA@HLDEBKOH@STOPPING_DRIVER?$AA@		; `string'
PUBLIC	??_C@_08CGLLMHMN@STOPPING?$AA@			; `string'
PUBLIC	??_C@_0BA@LFOBNNHD@REMOVING_DRIVER?$AA@		; `string'
PUBLIC	??_C@_0BH@BJNFCLGM@DRIVER_UINSTALL_FAILED?$AA@	; `string'
PUBLIC	??_C@_08ELEAABKI@NODRIVER?$AA@			; `string'
PUBLIC	??_C@_0BN@CJLOPMOH@UPDATE_GST_IN_DECOY_OS_FIRST?$AA@ ; `string'
PUBLIC	??_C@_0CM@LPOONFIE@SETUP_FAILED_BOOT_DRIVE_ENCRYPTE@ ; `string'
PUBLIC	??_C@_0CC@MKLHADEI@SETUP_FAILED_BOOT_DRIVE_ENCRYPTE@ ; `string'
PUBLIC	??_C@_0DA@EDIMDHJI@SYS_ENCRYPTION_UPGRADE_UNSUPPORT@ ; `string'
PUBLIC	??_C@_0BD@OMJBKKEL@DISMOUNT_ALL_FIRST?$AA@	; `string'
PUBLIC	??_C@_0BA@BFJEMMFA@CLOSE_GST_FIRST?$AA@		; `string'
PUBLIC	??_C@_0BP@LJKCMEDG@INSTALLER_UPDATING_BOOT_LOADER?$AA@ ; `string'
PUBLIC	??_C@_0CB@JHJCAANH@BOOT_LOADER_UPGRADE_OK_HIDDEN_OS@ ; `string'
PUBLIC	??_C@_0BH@FCKJHOEL@BOOT_LOADER_UPGRADE_OK?$AA@	; `string'
PUBLIC	??_R0?AUException@GostCrypt@@@8			; GostCrypt::Exception `RTTI Type Descriptor'
PUBLIC	??_C@_0BL@LKLMNDDM@BOOT_LOADER_UPGRADE_FAILED?$AA@ ; `string'
PUBLIC	??_C@_0P@FMMFFOMO@?2GostCrypt?4lnk?$AA@		; `string'
PUBLIC	??_C@_0BH@BKNACPBJ@?2GostCrypt?5Website?4url?$AA@ ; `string'
PUBLIC	??_C@_0BJ@JDKCCNOL@?2Uninstall?5GostCrypt?4lnk?$AA@ ; `string'
PUBLIC	??_C@_0BM@PHNJDCEJ@?2GostCrypt?5User?8s?5Guide?4lnk?$AA@ ; `string'
PUBLIC	??_C@_0BD@KJOFIBFE@CANT_CREATE_FOLDER?$AA@	; `string'
PUBLIC	??_C@_01NOFIACDB@w?$AA@				; `string'
PUBLIC	??_C@_0BL@MKLFJBBF@?$FLInternetShortcut?$FN?6URL?$DN?$CFs?6?$AA@ ; `string'
PUBLIC	??_C@_0BE@CHHIEGKC@GostCrypt?5Setup?4exe?$AA@	; `string'
PUBLIC	??_C@_02GBOHKKID@?1u?$AA@			; `string'
PUBLIC	??_C@_0L@NPHNJMLA@INSTALL_OK?$AA@		; `string'
PUBLIC	??_C@_0BA@GIHLNOHP@SETUP_UPDATE_OK?$AA@		; `string'
PUBLIC	??_C@_0N@HGHJILFC@UNINSTALL_OK?$AA@		; `string'
PUBLIC	??_C@_0P@DHOALJNC@INSTALL_FAILED?$AA@		; `string'
PUBLIC	??_C@_0BB@JJJJFLNM@UNINSTALL_FAILED?$AA@	; `string'
PUBLIC	??_C@_0BD@BOLGBJDG@SRSetRestorePointA?$AA@	; `string'
PUBLIC	??_C@_0BF@DPJDLMKG@CREATING_SYS_RESTORE?$AA@	; `string'
PUBLIC	??_C@_0BJ@GJGJKNIO@GostCrypt?5uninstallation?$AA@ ; `string'
PUBLIC	??_C@_0BH@GKFFIALD@GostCrypt?5installation?$AA@	; `string'
PUBLIC	??_C@_0BD@EKOFOABK@FAILED_SYS_RESTORE?$AA@	; `string'
PUBLIC	??_C@_0BB@CILIJECC@GostCryptService?$AA@	; `string'
PUBLIC	??_C@_0BL@NBOCNBBF@?$CFs?2GostCrypt?9Uninstall?4bat?$AA@ ; `string'
PUBLIC	??_C@_0DP@MNNFDDNO@?3loop?6del?5?$CC?$CFs?$CFs?$CC?6if?5exist?5?$CC?$CFs?$CFs?$CC@ ; `string'
PUBLIC	??_C@_0BP@JGNDMOPD@FAILED_TO_DISABLE_PAGING_FILES?$AA@ ; `string'
PUBLIC	??_C@_07LMLHFMEG@Service?$AA@			; `string'
PUBLIC	??_C@_0EL@MKLMKGDH@SYSTEM?2CurrentControlSet?2Control@ ; `string'
PUBLIC	??_C@_0EL@ELDIGJGM@SYSTEM?2CurrentControlSet?2Control@ ; `string'
PUBLIC	??_C@_0BG@IDCDKCEI@MountFavoritesOnLogon?$AA@	; `string'
PUBLIC	??_C@_0BN@JJNCGBDA@OpenExplorerWindowAfterMount?$AA@ ; `string'
PUBLIC	??_C@_08JKOCNOKF@?$DMvolume?5?$AA@		; `string'
PUBLIC	??_C@_0BC@JBHLDJCD@mountOnLogOn?$DN?$CC1?$CC?5?$AA@ ; `string'
PUBLIC	??_C@_0BI@DLANKHNO@openExplorerWindow?$DN?$CC1?$CC?5?$AA@ ; `string'
PUBLIC	??_C@_09OAMOHPIB@favorites?$AA@			; `string'
PUBLIC	??_C@_09KHMMGKKB@?5?1a?5logon?$AA@		; `string'
PUBLIC	??_C@_0BF@OBKHEKHE@?2GostCrypt?5Setup?4exe?$AA@	; `string'
PUBLIC	??_C@_0CG@KHDBJKEN@GostCrypt?5System?5Favorite?5Volume@ ; `string'
PUBLIC	??_C@_0BM@IAAIJFIC@System?5Favorite?5Volumes?4xml?$AA@ ; `string'
PUBLIC	??_C@_0BC@KNJLNLNB@INSTALL_COMPLETED?$AA@	; `string'
PUBLIC	??_C@_08COBEBGNM@ROLLBACK?$AA@			; `string'
PUBLIC	??_C@_0BH@FAKCOHIL@SYS_ENC_UPGRADE_FAILED?$AA@	; `string'
PUBLIC	??_C@_0BM@IFDMFKIM@UNINSTALL_OLD_VERSION_FIRST?$AA@ ; `string'
PUBLIC	??_C@_04PMOCAHAA@open?$AA@			; `string'
PUBLIC	??_C@_06NOEMODMP@?5?$CIx86?$CJ?$AA@		; `string'
PUBLIC	??_C@_0BJ@CCHDLBFE@GST_INSTALLER_IS_RUNNING?$AA@ ; `string'
PUBLIC	??_C@_08MFKGCNCO@FINALIZE?$AA@			; `string'
PUBLIC	??_C@_0BH@KAHGPAJO@CONFIRM_EXIT_UNIVERSAL?$AA@	; `string'
PUBLIC	??_C@_1CA@DBLADCOC@?$AAG?$AAo?$AAs?$AAt?$AAC?$AAr?$AAy?$AAp?$AAt?$AA?5?$AAS?$AAe?$AAt?$AAu?$AAp?$AA?$AA@ ; `string'
PUBLIC	??_C@_0M@HBOJDPDG@SETUP_ADMIN?$AA@		; `string'
PUBLIC	??_C@_0LE@HOLFPDAN@Error?3?5This?5installer?5file?5does?5@ ; `string'
PUBLIC	??_C@_0BB@FLPPPJPG@SELECT_AN_ACTION?$AA@	; `string'
PUBLIC	??_C@_0BB@OFECFCBP@REPAIR_REINSTALL?$AA@	; `string'
PUBLIC	??_C@_09DGJDINFF@UNINSTALL?$AA@			; `string'
PUBLIC	??_C@_04GOLNGIJ@EXIT?$AA@			; `string'
PUBLIC	??_C@_0N@FMOIKEAK@srclient?4dll?$AA@		; `string'
PUBLIC	??_C@_0BA@JFNIOLAK@string?5too?5long?$AA@	; `string'
PUBLIC	??_C@_0BI@CFPLBAOH@invalid?5string?5position?$AA@ ; `string'
EXTRN	??2@YAPAXI@Z:PROC				; operator new
EXTRN	??3@YAXPAX@Z:PROC				; operator delete
EXTRN	_atexit:PROC
EXTRN	___report_rangecheckfailure:PROC
EXTRN	__invalid_parameter_noinfo_noreturn:PROC
EXTRN	_memchr:PROC
EXTRN	_memmove:PROC
EXTRN	_strrchr:PROC
EXTRN	_strstr:PROC
EXTRN	_strcpy_s:PROC
EXTRN	_strcat_s:PROC
EXTRN	_strncat:PROC
EXTRN	_strncmp:PROC
EXTRN	_strncpy:PROC
EXTRN	__imp__SetCurrentDirectoryA@4:PROC
EXTRN	__imp__CreateFileA@28:PROC
EXTRN	__imp__DeleteFileA@4:PROC
EXTRN	__imp__FindClose@4:PROC
EXTRN	__imp__FindFirstFileA@8:PROC
EXTRN	__imp__RemoveDirectoryA@4:PROC
EXTRN	__imp__CloseHandle@4:PROC
EXTRN	__imp__GetLastError@0:PROC
EXTRN	__imp__DeviceIoControl@32:PROC
EXTRN	__imp__Sleep@4:PROC
EXTRN	__imp__CreateProcessA@40:PROC
EXTRN	__imp__GetSystemDirectoryA@8:PROC
EXTRN	__imp__GetWindowsDirectoryA@8:PROC
EXTRN	__imp__FreeLibrary@4:PROC
EXTRN	__imp__GetModuleFileNameA@12:PROC
EXTRN	__imp__GetProcAddress@8:PROC
EXTRN	__imp__LoadLibraryExA@12:PROC
EXTRN	__imp__LocalFree@4:PROC
EXTRN	__imp__FormatMessageA@28:PROC
EXTRN	__imp__GetTempPathA@8:PROC
EXTRN	__imp__CopyFileA@12:PROC
EXTRN	__imp__MoveFileA@8:PROC
EXTRN	__imp__wsprintfW:PROC
EXTRN	__imp__SendMessageA@16:PROC
EXTRN	__imp__SendMessageW@16:PROC
EXTRN	__imp__PostMessageA@16:PROC
EXTRN	__imp__DialogBoxParamW@20:PROC
EXTRN	__imp__EndDialog@8:PROC
EXTRN	__imp__GetDlgItem@8:PROC
EXTRN	__imp__SendDlgItemMessageA@20:PROC
EXTRN	__imp__SetFocus@4:PROC
EXTRN	__imp__EnableWindow@8:PROC
EXTRN	__imp__InvalidateRect@12:PROC
EXTRN	__imp__SetWindowTextW@8:PROC
EXTRN	__imp__MessageBoxA@16:PROC
EXTRN	__imp__MessageBoxW@16:PROC
EXTRN	__imp__EnumWindows@8:PROC
EXTRN	__imp__MultiByteToWideChar@24:PROC
EXTRN	__imp__RegCloseKey@4:PROC
EXTRN	__imp__RegCreateKeyExA@36:PROC
EXTRN	__imp__RegDeleteKeyA@8:PROC
EXTRN	__imp__RegOpenKeyExA@20:PROC
EXTRN	__imp__RegQueryValueExA@24:PROC
EXTRN	__imp__RegSetValueExA@24:PROC
EXTRN	__imp__ShellExecuteA@24:PROC
EXTRN	_free:PROC
EXTRN	_exit:PROC
EXTRN	__imp__CoCreateInstance@20:PROC
EXTRN	__imp__PropVariantClear@4:PROC
EXTRN	__imp__OleInitialize@4:PROC
EXTRN	__imp__OleUninitialize@0:PROC
EXTRN	__imp__CloseServiceHandle@4:PROC
EXTRN	__imp__ControlService@12:PROC
EXTRN	__imp__DeleteService@4:PROC
EXTRN	__imp__OpenSCManagerA@12:PROC
EXTRN	__imp__OpenServiceA@12:PROC
EXTRN	__imp__QueryServiceStatus@8:PROC
EXTRN	__imp__InitCommonControls@0:PROC
EXTRN	__beginthread:PROC
EXTRN	___stdio_common_vswprintf:PROC
EXTRN	_fclose:PROC
EXTRN	_fopen:PROC
EXTRN	___stdio_common_vfprintf:PROC
EXTRN	___stdio_common_vsprintf:PROC
EXTRN	__access:PROC
EXTRN	__imp__SHStrDupW@8:PROC
EXTRN	__stat64i32:PROC
EXTRN	__stat64:PROC
EXTRN	_cleanup:PROC
EXTRN	_AbortProcess:PROC
EXTRN	_AbortProcessSilent:PROC
EXTRN	_handleWin32Error:PROC
EXTRN	_AboutDlgProc@16:PROC
EXTRN	_IsButtonChecked:PROC
EXTRN	_InitDialog:PROC
EXTRN	_WaitCursor:PROC
EXTRN	_NormalCursor:PROC
EXTRN	_CreateAppSetupMutex:PROC
EXTRN	_CloseAppSetupMutex:PROC
EXTRN	_ReadDriverConfigurationFlags:PROC
EXTRN	_SavePostInstallTasksSettings:PROC
EXTRN	_InitApp:PROC
EXTRN	_DriverAttach:PROC
EXTRN	_handleError:PROC
EXTRN	_CheckFileStreamWriteErrors:PROC
EXTRN	_LocalizeDialog:PROC
EXTRN	_IsAdmin:PROC
EXTRN	_FileExists:PROC
EXTRN	_GSTCopyFile:PROC
EXTRN	_SaveBufferToFile:PROC
EXTRN	_IsNonInstallMode:PROC
EXTRN	_SetCheckBox:PROC
EXTRN	_LoadFile:PROC
EXTRN	_GetConfigPath:PROC
EXTRN	_GetProgramConfigPath:PROC
EXTRN	_Info:PROC
EXTRN	_Warning:PROC
EXTRN	_Error:PROC
EXTRN	_AskNoYes:PROC
EXTRN	_AskWarnNoYes:PROC
EXTRN	_AskMultiChoice:PROC
EXTRN	_ConfigReadInt:PROC
EXTRN	_IsOSAtLeast:PROC
EXTRN	_Is64BitOs:PROC
EXTRN	_IsHiddenOSRunning:PROC
EXTRN	_EnableWow64FsRedirection:PROC
EXTRN	_CloseGSTWindowsEnum@8:PROC
EXTRN	_DoDriverInstall:PROC
EXTRN	_IsPagingFileActive:PROC
EXTRN	_DisablePagingFile:PROC
EXTRN	?_Xbad_alloc@std@@YAXXZ:PROC			; std::_Xbad_alloc
EXTRN	?_Xlength_error@std@@YAXPBD@Z:PROC		; std::_Xlength_error
EXTRN	?_Xout_of_range@std@@YAXPBD@Z:PROC		; std::_Xout_of_range
EXTRN	?GetServiceConfigPath@@YA?AV?$basic_string@DU?$char_traits@D@std@@V?$allocator@D@2@@std@@PBD@Z:PROC ; GetServiceConfigPath
EXTRN	??0BootEncryption@GostCrypt@@QAE@PAUHWND__@@@Z:PROC ; GostCrypt::BootEncryption::BootEncryption
EXTRN	??1BootEncryption@GostCrypt@@QAE@XZ:PROC	; GostCrypt::BootEncryption::~BootEncryption
EXTRN	?GetDriverServiceStartType@BootEncryption@GostCrypt@@QAEKXZ:PROC ; GostCrypt::BootEncryption::GetDriverServiceStartType
EXTRN	?GetInstalledBootLoaderVersion@BootEncryption@GostCrypt@@QAEGXZ:PROC ; GostCrypt::BootEncryption::GetInstalledBootLoaderVersion
EXTRN	?GetStatus@BootEncryption@GostCrypt@@QAE?AUBootEncryptionStatus@@XZ:PROC ; GostCrypt::BootEncryption::GetStatus
EXTRN	?InstallBootLoader@BootEncryption@GostCrypt@@QAEX_N0@Z:PROC ; GostCrypt::BootEncryption::InstallBootLoader
EXTRN	?RegisterFilterDriver@BootEncryption@GostCrypt@@QAEX_NW4FilterType@12@@Z:PROC ; GostCrypt::BootEncryption::RegisterFilterDriver
EXTRN	?RenameDeprecatedSystemLoaderBackup@BootEncryption@GostCrypt@@QAEXXZ:PROC ; GostCrypt::BootEncryption::RenameDeprecatedSystemLoaderBackup
EXTRN	?SetDriverServiceStartType@BootEncryption@GostCrypt@@QAEXK@Z:PROC ; GostCrypt::BootEncryption::SetDriverServiceStartType
EXTRN	_RegisterComServers:PROC
EXTRN	_UnregisterComServers:PROC
EXTRN	_GetString:PROC
EXTRN	_ReadLocalMachineRegistryString:PROC
EXTRN	_ReadRegistryString:PROC
EXTRN	_WriteLocalMachineRegistryString:PROC
EXTRN	_WriteRegistryString:PROC
EXTRN	_DeleteRegistryValue:PROC
EXTRN	_GetStartupRegKeyName:PROC
EXTRN	_mkfulldir:PROC
EXTRN	_SelfExtractStartupInit:PROC
EXTRN	_SelfExtractInMemory:PROC
EXTRN	_MakeSelfExtractingPackage:PROC
EXTRN	_VerifyPackageIntegrity:PROC
EXTRN	_IsSelfExtractingPackage:PROC
EXTRN	_UpdateProgressBarProc:PROC
EXTRN	_localcleanupwiz:PROC
EXTRN	_MainDialogProc@16:PROC
EXTRN	__imp__SHGetPathFromIDListA@8:PROC
EXTRN	__imp__SHGetSpecialFolderLocation@12:PROC
EXTRN	__imp__SHGetSpecialFolderPathA@16:PROC
EXTRN	__imp__SHGetFolderPathA@20:PROC
EXTRN	__imp__SHChangeNotify@16:PROC
EXTRN	@__security_check_cookie@4:PROC
EXTRN	__CxxThrowException@8:PROC
EXTRN	___CxxFrameHandler3:PROC
EXTRN	__chkstk:PROC
EXTRN	_memcpy:PROC
EXTRN	_memset:PROC
EXTRN	_IID_IPersistFile:BYTE
EXTRN	_PKEY_AppUserModel_ID:BYTE
EXTRN	_MainDlg:DWORD
EXTRN	_Silent:DWORD
EXTRN	_lpszTitle:DWORD
EXTRN	_CurrentOSMajor:DWORD
EXTRN	_CurrentOSMinor:DWORD
EXTRN	_CurrentOSServicePack:DWORD
EXTRN	_hDriver:DWORD
EXTRN	_hInst:DWORD
EXTRN	??_7type_info@@6B@:QWORD			; type_info::`vftable'
EXTRN	_Decompressed_Files:BYTE
EXTRN	_bPromptTutorial:DWORD
EXTRN	_bPromptReleaseNotes:DWORD
EXTRN	_IID_IShellLinkA:BYTE
EXTRN	_CLSID_ShellLink:BYTE
EXTRN	___security_cookie:DWORD
;	COMDAT ?_OptionsStorage@?1??__local_stdio_printf_options@@9@4_KA
_BSS	SEGMENT
?_OptionsStorage@?1??__local_stdio_printf_options@@9@4_KA DQ 01H DUP (?) ; `__local_stdio_printf_options'::`2'::_OptionsStorage
_BSS	ENDS
;	COMDAT ?RestPtInfo@?1??SetSystemRestorePoint@@YAXPAUHWND__@@H@Z@4U_RESTOREPTINFOA@@A
_BSS	SEGMENT
?RestPtInfo@?1??SetSystemRestorePoint@@YAXPAUHWND__@@H@Z@4U_RESTOREPTINFOA@@A DB 050H DUP (?) ; `SetSystemRestorePoint'::`2'::RestPtInfo
_BSS	ENDS
;	COMDAT ?SMgrStatus@?1??SetSystemRestorePoint@@YAXPAUHWND__@@H@Z@4U_SMGRSTATUS@@A
_BSS	SEGMENT
?SMgrStatus@?1??SetSystemRestorePoint@@YAXPAUHWND__@@H@Z@4U_SMGRSTATUS@@A DB 0cH DUP (?) ; `SetSystemRestorePoint'::`2'::SMgrStatus
_BSS	ENDS
;	COMDAT ?failed@?1??SetSystemRestorePoint@@YAXPAUHWND__@@H@Z@4HA
_BSS	SEGMENT
?failed@?1??SetSystemRestorePoint@@YAXPAUHWND__@@H@Z@4HA DD 01H DUP (?) ; `SetSystemRestorePoint'::`2'::failed
_BSS	ENDS
;	COMDAT ?_SRSetRestorePoint@?1??SetSystemRestorePoint@@YAXPAUHWND__@@H@Z@4P6GHPAU_RESTOREPTINFOA@@PAU_SMGRSTATUS@@@ZA
_BSS	SEGMENT
?_SRSetRestorePoint@?1??SetSystemRestorePoint@@YAXPAUHWND__@@H@Z@4P6GHPAU_RESTOREPTINFOA@@PAU_SMGRSTATUS@@@ZA DD 01H DUP (?) ; `SetSystemRestorePoint'::`2'::_SRSetRestorePoint
_BSS	ENDS
;	COMDAT ??_C@_0BI@CFPLBAOH@invalid?5string?5position?$AA@
CONST	SEGMENT
??_C@_0BI@CFPLBAOH@invalid?5string?5position?$AA@ DB 'invalid string posi'
	DB	'tion', 00H					; `string'
CONST	ENDS
;	COMDAT ??_C@_0BA@JFNIOLAK@string?5too?5long?$AA@
CONST	SEGMENT
??_C@_0BA@JFNIOLAK@string?5too?5long?$AA@ DB 'string too long', 00H ; `string'
CONST	ENDS
;	COMDAT ??_C@_0N@FMOIKEAK@srclient?4dll?$AA@
CONST	SEGMENT
??_C@_0N@FMOIKEAK@srclient?4dll?$AA@ DB 'srclient.dll', 00H ; `string'
CONST	ENDS
;	COMDAT ??_C@_04GOLNGIJ@EXIT?$AA@
CONST	SEGMENT
??_C@_04GOLNGIJ@EXIT?$AA@ DB 'EXIT', 00H		; `string'
CONST	ENDS
;	COMDAT ??_C@_09DGJDINFF@UNINSTALL?$AA@
CONST	SEGMENT
??_C@_09DGJDINFF@UNINSTALL?$AA@ DB 'UNINSTALL', 00H	; `string'
CONST	ENDS
;	COMDAT ??_C@_0BB@OFECFCBP@REPAIR_REINSTALL?$AA@
CONST	SEGMENT
??_C@_0BB@OFECFCBP@REPAIR_REINSTALL?$AA@ DB 'REPAIR_REINSTALL', 00H ; `string'
CONST	ENDS
;	COMDAT ??_C@_0BB@FLPPPJPG@SELECT_AN_ACTION?$AA@
CONST	SEGMENT
??_C@_0BB@FLPPPJPG@SELECT_AN_ACTION?$AA@ DB 'SELECT_AN_ACTION', 00H ; `string'
CONST	ENDS
;	COMDAT ??_C@_0LE@HOLFPDAN@Error?3?5This?5installer?5file?5does?5@
CONST	SEGMENT
??_C@_0LE@HOLFPDAN@Error?3?5This?5installer?5file?5does?5@ DB 'Error: Thi'
	DB	's installer file does not contain any compressed files.', 0aH
	DB	0aH, 'To create a self-extracting installation package (with e'
	DB	'mbedded compressed files), run:', 0aH, '"GostCrypt Setup.exe"'
	DB	' /p', 00H					; `string'
CONST	ENDS
;	COMDAT ??_C@_0M@HBOJDPDG@SETUP_ADMIN?$AA@
CONST	SEGMENT
??_C@_0M@HBOJDPDG@SETUP_ADMIN?$AA@ DB 'SETUP_ADMIN', 00H ; `string'
CONST	ENDS
;	COMDAT ??_C@_1CA@DBLADCOC@?$AAG?$AAo?$AAs?$AAt?$AAC?$AAr?$AAy?$AAp?$AAt?$AA?5?$AAS?$AAe?$AAt?$AAu?$AAp?$AA?$AA@
CONST	SEGMENT
??_C@_1CA@DBLADCOC@?$AAG?$AAo?$AAs?$AAt?$AAC?$AAr?$AAy?$AAp?$AAt?$AA?5?$AAS?$AAe?$AAt?$AAu?$AAp?$AA?$AA@ DB 'G'
	DB	00H, 'o', 00H, 's', 00H, 't', 00H, 'C', 00H, 'r', 00H, 'y', 00H
	DB	'p', 00H, 't', 00H, ' ', 00H, 'S', 00H, 'e', 00H, 't', 00H, 'u'
	DB	00H, 'p', 00H, 00H, 00H			; `string'
CONST	ENDS
;	COMDAT ??_C@_0BH@KAHGPAJO@CONFIRM_EXIT_UNIVERSAL?$AA@
CONST	SEGMENT
??_C@_0BH@KAHGPAJO@CONFIRM_EXIT_UNIVERSAL?$AA@ DB 'CONFIRM_EXIT_UNIVERSAL'
	DB	00H						; `string'
CONST	ENDS
;	COMDAT ??_C@_08MFKGCNCO@FINALIZE?$AA@
CONST	SEGMENT
??_C@_08MFKGCNCO@FINALIZE?$AA@ DB 'FINALIZE', 00H	; `string'
CONST	ENDS
;	COMDAT ??_C@_0BJ@CCHDLBFE@GST_INSTALLER_IS_RUNNING?$AA@
CONST	SEGMENT
??_C@_0BJ@CCHDLBFE@GST_INSTALLER_IS_RUNNING?$AA@ DB 'GST_INSTALLER_IS_RUN'
	DB	'NING', 00H					; `string'
CONST	ENDS
;	COMDAT ??_C@_06NOEMODMP@?5?$CIx86?$CJ?$AA@
CONST	SEGMENT
??_C@_06NOEMODMP@?5?$CIx86?$CJ?$AA@ DB ' (x86)', 00H	; `string'
CONST	ENDS
;	COMDAT ??_C@_04PMOCAHAA@open?$AA@
CONST	SEGMENT
??_C@_04PMOCAHAA@open?$AA@ DB 'open', 00H		; `string'
CONST	ENDS
;	COMDAT ??_C@_0BM@IFDMFKIM@UNINSTALL_OLD_VERSION_FIRST?$AA@
CONST	SEGMENT
??_C@_0BM@IFDMFKIM@UNINSTALL_OLD_VERSION_FIRST?$AA@ DB 'UNINSTALL_OLD_VER'
	DB	'SION_FIRST', 00H				; `string'
CONST	ENDS
;	COMDAT ??_C@_0BH@FAKCOHIL@SYS_ENC_UPGRADE_FAILED?$AA@
CONST	SEGMENT
??_C@_0BH@FAKCOHIL@SYS_ENC_UPGRADE_FAILED?$AA@ DB 'SYS_ENC_UPGRADE_FAILED'
	DB	00H						; `string'
CONST	ENDS
;	COMDAT ??_C@_08COBEBGNM@ROLLBACK?$AA@
CONST	SEGMENT
??_C@_08COBEBGNM@ROLLBACK?$AA@ DB 'ROLLBACK', 00H	; `string'
CONST	ENDS
;	COMDAT ??_C@_0BC@KNJLNLNB@INSTALL_COMPLETED?$AA@
CONST	SEGMENT
??_C@_0BC@KNJLNLNB@INSTALL_COMPLETED?$AA@ DB 'INSTALL_COMPLETED', 00H ; `string'
CONST	ENDS
;	COMDAT ??_C@_0BM@IAAIJFIC@System?5Favorite?5Volumes?4xml?$AA@
CONST	SEGMENT
??_C@_0BM@IAAIJFIC@System?5Favorite?5Volumes?4xml?$AA@ DB 'System Favorit'
	DB	'e Volumes.xml', 00H				; `string'
CONST	ENDS
;	COMDAT ??_C@_0CG@KHDBJKEN@GostCrypt?5System?5Favorite?5Volume@
CONST	SEGMENT
??_C@_0CG@KHDBJKEN@GostCrypt?5System?5Favorite?5Volume@ DB 'GostCrypt Sys'
	DB	'tem Favorite Volumes.xml', 00H		; `string'
CONST	ENDS
;	COMDAT ??_C@_0BF@OBKHEKHE@?2GostCrypt?5Setup?4exe?$AA@
CONST	SEGMENT
??_C@_0BF@OBKHEKHE@?2GostCrypt?5Setup?4exe?$AA@ DB '\GostCrypt Setup.exe', 00H ; `string'
CONST	ENDS
;	COMDAT ??_C@_09KHMMGKKB@?5?1a?5logon?$AA@
CONST	SEGMENT
??_C@_09KHMMGKKB@?5?1a?5logon?$AA@ DB ' /a logon', 00H	; `string'
CONST	ENDS
;	COMDAT ??_C@_09OAMOHPIB@favorites?$AA@
CONST	SEGMENT
??_C@_09OAMOHPIB@favorites?$AA@ DB 'favorites', 00H	; `string'
CONST	ENDS
;	COMDAT ??_C@_0BI@DLANKHNO@openExplorerWindow?$DN?$CC1?$CC?5?$AA@
CONST	SEGMENT
??_C@_0BI@DLANKHNO@openExplorerWindow?$DN?$CC1?$CC?5?$AA@ DB 'openExplore'
	DB	'rWindow="1" ', 00H				; `string'
CONST	ENDS
;	COMDAT ??_C@_0BC@JBHLDJCD@mountOnLogOn?$DN?$CC1?$CC?5?$AA@
CONST	SEGMENT
??_C@_0BC@JBHLDJCD@mountOnLogOn?$DN?$CC1?$CC?5?$AA@ DB 'mountOnLogOn="1" '
	DB	00H						; `string'
CONST	ENDS
;	COMDAT ??_C@_08JKOCNOKF@?$DMvolume?5?$AA@
CONST	SEGMENT
??_C@_08JKOCNOKF@?$DMvolume?5?$AA@ DB '<volume ', 00H	; `string'
CONST	ENDS
;	COMDAT ??_C@_0BN@JJNCGBDA@OpenExplorerWindowAfterMount?$AA@
CONST	SEGMENT
??_C@_0BN@JJNCGBDA@OpenExplorerWindowAfterMount?$AA@ DB 'OpenExplorerWind'
	DB	'owAfterMount', 00H				; `string'
CONST	ENDS
;	COMDAT ??_C@_0BG@IDCDKCEI@MountFavoritesOnLogon?$AA@
CONST	SEGMENT
??_C@_0BG@IDCDKCEI@MountFavoritesOnLogon?$AA@ DB 'MountFavoritesOnLogon', 00H ; `string'
CONST	ENDS
;	COMDAT ??_C@_0EL@ELDIGJGM@SYSTEM?2CurrentControlSet?2Control@
CONST	SEGMENT
??_C@_0EL@ELDIGJGM@SYSTEM?2CurrentControlSet?2Control@ DB 'SYSTEM\Current'
	DB	'ControlSet\Control\SafeBoot\Network\GostCryptSystemFavorites', 00H ; `string'
CONST	ENDS
;	COMDAT ??_C@_0EL@MKLMKGDH@SYSTEM?2CurrentControlSet?2Control@
CONST	SEGMENT
??_C@_0EL@MKLMKGDH@SYSTEM?2CurrentControlSet?2Control@ DB 'SYSTEM\Current'
	DB	'ControlSet\Control\SafeBoot\Minimal\GostCryptSystemFavorites', 00H ; `string'
CONST	ENDS
;	COMDAT ??_C@_07LMLHFMEG@Service?$AA@
CONST	SEGMENT
??_C@_07LMLHFMEG@Service?$AA@ DB 'Service', 00H		; `string'
CONST	ENDS
;	COMDAT ??_C@_0BP@JGNDMOPD@FAILED_TO_DISABLE_PAGING_FILES?$AA@
CONST	SEGMENT
??_C@_0BP@JGNDMOPD@FAILED_TO_DISABLE_PAGING_FILES?$AA@ DB 'FAILED_TO_DISA'
	DB	'BLE_PAGING_FILES', 00H			; `string'
CONST	ENDS
;	COMDAT ??_C@_0DP@MNNFDDNO@?3loop?6del?5?$CC?$CFs?$CFs?$CC?6if?5exist?5?$CC?$CFs?$CFs?$CC@
CONST	SEGMENT
??_C@_0DP@MNNFDDNO@?3loop?6del?5?$CC?$CFs?$CFs?$CC?6if?5exist?5?$CC?$CFs?$CFs?$CC@ DB ':'
	DB	'loop', 0aH, 'del "%s%s"', 0aH, 'if exist "%s%s" goto loop', 0aH
	DB	'rmdir "%s"', 0aH, 'del "%s"', 00H		; `string'
CONST	ENDS
;	COMDAT ??_C@_0BL@NBOCNBBF@?$CFs?2GostCrypt?9Uninstall?4bat?$AA@
CONST	SEGMENT
??_C@_0BL@NBOCNBBF@?$CFs?2GostCrypt?9Uninstall?4bat?$AA@ DB '%s\GostCrypt'
	DB	'-Uninstall.bat', 00H			; `string'
CONST	ENDS
;	COMDAT ??_C@_0BB@CILIJECC@GostCryptService?$AA@
CONST	SEGMENT
??_C@_0BB@CILIJECC@GostCryptService?$AA@ DB 'GostCryptService', 00H ; `string'
CONST	ENDS
;	COMDAT ??_C@_0BD@EKOFOABK@FAILED_SYS_RESTORE?$AA@
CONST	SEGMENT
??_C@_0BD@EKOFOABK@FAILED_SYS_RESTORE?$AA@ DB 'FAILED_SYS_RESTORE', 00H ; `string'
CONST	ENDS
;	COMDAT ??_C@_0BH@GKFFIALD@GostCrypt?5installation?$AA@
CONST	SEGMENT
??_C@_0BH@GKFFIALD@GostCrypt?5installation?$AA@ DB 'GostCrypt installatio'
	DB	'n', 00H					; `string'
CONST	ENDS
;	COMDAT ??_C@_0BJ@GJGJKNIO@GostCrypt?5uninstallation?$AA@
CONST	SEGMENT
??_C@_0BJ@GJGJKNIO@GostCrypt?5uninstallation?$AA@ DB 'GostCrypt uninstall'
	DB	'ation', 00H					; `string'
CONST	ENDS
;	COMDAT ??_C@_0BF@DPJDLMKG@CREATING_SYS_RESTORE?$AA@
CONST	SEGMENT
??_C@_0BF@DPJDLMKG@CREATING_SYS_RESTORE?$AA@ DB 'CREATING_SYS_RESTORE', 00H ; `string'
CONST	ENDS
;	COMDAT ??_C@_0BD@BOLGBJDG@SRSetRestorePointA?$AA@
CONST	SEGMENT
??_C@_0BD@BOLGBJDG@SRSetRestorePointA?$AA@ DB 'SRSetRestorePointA', 00H ; `string'
CONST	ENDS
;	COMDAT ??_C@_0BB@JJJJFLNM@UNINSTALL_FAILED?$AA@
CONST	SEGMENT
??_C@_0BB@JJJJFLNM@UNINSTALL_FAILED?$AA@ DB 'UNINSTALL_FAILED', 00H ; `string'
CONST	ENDS
;	COMDAT ??_C@_0P@DHOALJNC@INSTALL_FAILED?$AA@
CONST	SEGMENT
??_C@_0P@DHOALJNC@INSTALL_FAILED?$AA@ DB 'INSTALL_FAILED', 00H ; `string'
CONST	ENDS
;	COMDAT ??_C@_0N@HGHJILFC@UNINSTALL_OK?$AA@
CONST	SEGMENT
??_C@_0N@HGHJILFC@UNINSTALL_OK?$AA@ DB 'UNINSTALL_OK', 00H ; `string'
CONST	ENDS
;	COMDAT ??_C@_0BA@GIHLNOHP@SETUP_UPDATE_OK?$AA@
CONST	SEGMENT
??_C@_0BA@GIHLNOHP@SETUP_UPDATE_OK?$AA@ DB 'SETUP_UPDATE_OK', 00H ; `string'
CONST	ENDS
;	COMDAT ??_C@_0L@NPHNJMLA@INSTALL_OK?$AA@
CONST	SEGMENT
??_C@_0L@NPHNJMLA@INSTALL_OK?$AA@ DB 'INSTALL_OK', 00H	; `string'
CONST	ENDS
;	COMDAT ??_C@_02GBOHKKID@?1u?$AA@
CONST	SEGMENT
??_C@_02GBOHKKID@?1u?$AA@ DB '/u', 00H			; `string'
CONST	ENDS
;	COMDAT ??_C@_0BE@CHHIEGKC@GostCrypt?5Setup?4exe?$AA@
CONST	SEGMENT
??_C@_0BE@CHHIEGKC@GostCrypt?5Setup?4exe?$AA@ DB 'GostCrypt Setup.exe', 00H ; `string'
CONST	ENDS
;	COMDAT ??_C@_0BL@MKLFJBBF@?$FLInternetShortcut?$FN?6URL?$DN?$CFs?6?$AA@
CONST	SEGMENT
??_C@_0BL@MKLFJBBF@?$FLInternetShortcut?$FN?6URL?$DN?$CFs?6?$AA@ DB '[Int'
	DB	'ernetShortcut]', 0aH, 'URL=%s', 0aH, 00H	; `string'
CONST	ENDS
;	COMDAT ??_C@_01NOFIACDB@w?$AA@
CONST	SEGMENT
??_C@_01NOFIACDB@w?$AA@ DB 'w', 00H			; `string'
CONST	ENDS
;	COMDAT ??_C@_0BD@KJOFIBFE@CANT_CREATE_FOLDER?$AA@
CONST	SEGMENT
??_C@_0BD@KJOFIBFE@CANT_CREATE_FOLDER?$AA@ DB 'CANT_CREATE_FOLDER', 00H ; `string'
CONST	ENDS
;	COMDAT ??_C@_0BM@PHNJDCEJ@?2GostCrypt?5User?8s?5Guide?4lnk?$AA@
CONST	SEGMENT
??_C@_0BM@PHNJDCEJ@?2GostCrypt?5User?8s?5Guide?4lnk?$AA@ DB '\GostCrypt U'
	DB	'ser''s Guide.lnk', 00H			; `string'
CONST	ENDS
;	COMDAT ??_C@_0BJ@JDKCCNOL@?2Uninstall?5GostCrypt?4lnk?$AA@
CONST	SEGMENT
??_C@_0BJ@JDKCCNOL@?2Uninstall?5GostCrypt?4lnk?$AA@ DB '\Uninstall GostCr'
	DB	'ypt.lnk', 00H				; `string'
CONST	ENDS
;	COMDAT ??_C@_0BH@BKNACPBJ@?2GostCrypt?5Website?4url?$AA@
CONST	SEGMENT
??_C@_0BH@BKNACPBJ@?2GostCrypt?5Website?4url?$AA@ DB '\GostCrypt Website.'
	DB	'url', 00H					; `string'
CONST	ENDS
;	COMDAT ??_C@_0P@FMMFFOMO@?2GostCrypt?4lnk?$AA@
CONST	SEGMENT
??_C@_0P@FMMFFOMO@?2GostCrypt?4lnk?$AA@ DB '\GostCrypt.lnk', 00H ; `string'
CONST	ENDS
;	COMDAT ??_C@_0BL@LKLMNDDM@BOOT_LOADER_UPGRADE_FAILED?$AA@
CONST	SEGMENT
??_C@_0BL@LKLMNDDM@BOOT_LOADER_UPGRADE_FAILED?$AA@ DB 'BOOT_LOADER_UPGRAD'
	DB	'E_FAILED', 00H				; `string'
CONST	ENDS
;	COMDAT ??_R0?AUException@GostCrypt@@@8
data$r	SEGMENT
??_R0?AUException@GostCrypt@@@8 DD FLAT:??_7type_info@@6B@ ; GostCrypt::Exception `RTTI Type Descriptor'
	DD	00H
	DB	'.?AUException@GostCrypt@@', 00H
data$r	ENDS
;	COMDAT ??_C@_0BH@FCKJHOEL@BOOT_LOADER_UPGRADE_OK?$AA@
CONST	SEGMENT
??_C@_0BH@FCKJHOEL@BOOT_LOADER_UPGRADE_OK?$AA@ DB 'BOOT_LOADER_UPGRADE_OK'
	DB	00H						; `string'
CONST	ENDS
;	COMDAT ??_C@_0CB@JHJCAANH@BOOT_LOADER_UPGRADE_OK_HIDDEN_OS@
CONST	SEGMENT
??_C@_0CB@JHJCAANH@BOOT_LOADER_UPGRADE_OK_HIDDEN_OS@ DB 'BOOT_LOADER_UPGR'
	DB	'ADE_OK_HIDDEN_OS', 00H			; `string'
CONST	ENDS
;	COMDAT ??_C@_0BP@LJKCMEDG@INSTALLER_UPDATING_BOOT_LOADER?$AA@
CONST	SEGMENT
??_C@_0BP@LJKCMEDG@INSTALLER_UPDATING_BOOT_LOADER?$AA@ DB 'INSTALLER_UPDA'
	DB	'TING_BOOT_LOADER', 00H			; `string'
CONST	ENDS
;	COMDAT ??_C@_0BA@BFJEMMFA@CLOSE_GST_FIRST?$AA@
CONST	SEGMENT
??_C@_0BA@BFJEMMFA@CLOSE_GST_FIRST?$AA@ DB 'CLOSE_GST_FIRST', 00H ; `string'
CONST	ENDS
;	COMDAT ??_C@_0BD@OMJBKKEL@DISMOUNT_ALL_FIRST?$AA@
CONST	SEGMENT
??_C@_0BD@OMJBKKEL@DISMOUNT_ALL_FIRST?$AA@ DB 'DISMOUNT_ALL_FIRST', 00H ; `string'
CONST	ENDS
;	COMDAT ??_C@_0DA@EDIMDHJI@SYS_ENCRYPTION_UPGRADE_UNSUPPORT@
CONST	SEGMENT
??_C@_0DA@EDIMDHJI@SYS_ENCRYPTION_UPGRADE_UNSUPPORT@ DB 'SYS_ENCRYPTION_U'
	DB	'PGRADE_UNSUPPORTED_ON_VISTA_SP0', 00H	; `string'
CONST	ENDS
;	COMDAT ??_C@_0CC@MKLHADEI@SETUP_FAILED_BOOT_DRIVE_ENCRYPTE@
CONST	SEGMENT
??_C@_0CC@MKLHADEI@SETUP_FAILED_BOOT_DRIVE_ENCRYPTE@ DB 'SETUP_FAILED_BOO'
	DB	'T_DRIVE_ENCRYPTED', 00H			; `string'
CONST	ENDS
;	COMDAT ??_C@_0CM@LPOONFIE@SETUP_FAILED_BOOT_DRIVE_ENCRYPTE@
CONST	SEGMENT
??_C@_0CM@LPOONFIE@SETUP_FAILED_BOOT_DRIVE_ENCRYPTE@ DB 'SETUP_FAILED_BOO'
	DB	'T_DRIVE_ENCRYPTED_DOWNGRADE', 00H		; `string'
CONST	ENDS
;	COMDAT ??_C@_0BN@CJLOPMOH@UPDATE_GST_IN_DECOY_OS_FIRST?$AA@
CONST	SEGMENT
??_C@_0BN@CJLOPMOH@UPDATE_GST_IN_DECOY_OS_FIRST?$AA@ DB 'UPDATE_GST_IN_DE'
	DB	'COY_OS_FIRST', 00H				; `string'
CONST	ENDS
;	COMDAT ??_C@_08ELEAABKI@NODRIVER?$AA@
CONST	SEGMENT
??_C@_08ELEAABKI@NODRIVER?$AA@ DB 'NODRIVER', 00H	; `string'
CONST	ENDS
;	COMDAT ??_C@_0BH@BJNFCLGM@DRIVER_UINSTALL_FAILED?$AA@
CONST	SEGMENT
??_C@_0BH@BJNFCLGM@DRIVER_UINSTALL_FAILED?$AA@ DB 'DRIVER_UINSTALL_FAILED'
	DB	00H						; `string'
CONST	ENDS
;	COMDAT ??_C@_0BA@LFOBNNHD@REMOVING_DRIVER?$AA@
CONST	SEGMENT
??_C@_0BA@LFOBNNHD@REMOVING_DRIVER?$AA@ DB 'REMOVING_DRIVER', 00H ; `string'
CONST	ENDS
;	COMDAT ??_C@_08CGLLMHMN@STOPPING?$AA@
CONST	SEGMENT
??_C@_08CGLLMHMN@STOPPING?$AA@ DB 'STOPPING', 00H	; `string'
CONST	ENDS
;	COMDAT ??_C@_0BA@HLDEBKOH@STOPPING_DRIVER?$AA@
CONST	SEGMENT
??_C@_0BA@HLDEBKOH@STOPPING_DRIVER?$AA@ DB 'STOPPING_DRIVER', 00H ; `string'
CONST	ENDS
;	COMDAT ??_C@_09JCILFBFB@gostcrypt?$AA@
CONST	SEGMENT
??_C@_09JCILFBFB@gostcrypt?$AA@ DB 'gostcrypt', 00H	; `string'
CONST	ENDS
;	COMDAT ??_C@_0BD@EEKEPCFI@Software?2GostCrypt?$AA@
CONST	SEGMENT
??_C@_0BD@EEKEPCFI@Software?2GostCrypt?$AA@ DB 'Software\GostCrypt', 00H ; `string'
CONST	ENDS
;	COMDAT ??_C@_0CH@DCEJAAFL@Software?2Classes?2GostCryptVolume@
CONST	SEGMENT
??_C@_0CH@DCEJAAFL@Software?2Classes?2GostCryptVolume@ DB 'Software\Class'
	DB	'es\GostCryptVolume\Shell', 00H		; `string'
CONST	ENDS
;	COMDAT ??_C@_0CM@GDILNLIK@Software?2Classes?2GostCryptVolume@
CONST	SEGMENT
??_C@_0CM@GDILNLIK@Software?2Classes?2GostCryptVolume@ DB 'Software\Class'
	DB	'es\GostCryptVolume\Shell\open', 00H		; `string'
CONST	ENDS
;	COMDAT ??_C@_0N@GACNCPHC@REMOVING_REG?$AA@
CONST	SEGMENT
??_C@_0N@GACNCPHC@REMOVING_REG?$AA@ DB 'REMOVING_REG', 00H ; `string'
CONST	ENDS
;	COMDAT ??_C@_0BB@OBMIEKIN@COM_DEREG_FAILED?$AA@
CONST	SEGMENT
??_C@_0BB@OBMIEKIN@COM_DEREG_FAILED?$AA@ DB 'COM_DEREG_FAILED', 00H ; `string'
CONST	ENDS
;	COMDAT ??_C@_0L@CANDMBMO@?2GostCrypt?$AA@
CONST	SEGMENT
??_C@_0L@CANDMBMO@?2GostCrypt?$AA@ DB '\GostCrypt', 00H	; `string'
CONST	ENDS
;	COMDAT ??_C@_0BG@NJOIKHOP@System?5Encryption?4xml?$AA@
CONST	SEGMENT
??_C@_0BG@NJOIKHOP@System?5Encryption?4xml?$AA@ DB 'System Encryption.xml'
	DB	00H						; `string'
CONST	ENDS
;	COMDAT ??_C@_0BC@FNANDAA@Configuration?4xml?$AA@
CONST	SEGMENT
??_C@_0BC@FNANDAA@Configuration?4xml?$AA@ DB 'Configuration.xml', 00H ; `string'
CONST	ENDS
;	COMDAT ??_C@_0M@COMBLGLD@History?4xml?$AA@
CONST	SEGMENT
??_C@_0M@COMBLGLD@History?4xml?$AA@ DB 'History.xml', 00H ; `string'
CONST	ENDS
;	COMDAT ??_C@_0BF@CEDLNBLM@Default?5Keyfiles?4xml?$AA@
CONST	SEGMENT
??_C@_0BF@CEDLNBLM@Default?5Keyfiles?4xml?$AA@ DB 'Default Keyfiles.xml', 00H ; `string'
CONST	ENDS
;	COMDAT ??_C@_0BF@EGBOIEGJ@Favorite?5Volumes?4xml?$AA@
CONST	SEGMENT
??_C@_0BF@EGBOIEGJ@Favorite?5Volumes?4xml?$AA@ DB 'Favorite Volumes.xml', 00H ; `string'
CONST	ENDS
;	COMDAT ??_C@_0M@GKPCCOCO@?2GostCrypt?2?$AA@
CONST	SEGMENT
??_C@_0M@GKPCCOCO@?2GostCrypt?2?$AA@ DB '\GostCrypt\', 00H ; `string'
CONST	ENDS
;	COMDAT ??_C@_0BB@EKLCNMAG@REMOVING_APPDATA?$AA@
CONST	SEGMENT
??_C@_0BB@EKLCNMAG@REMOVING_APPDATA?$AA@ DB 'REMOVING_APPDATA', 00H ; `string'
CONST	ENDS
;	COMDAT ??_C@_0P@LLMHDMAL@COM_REG_FAILED?$AA@
CONST	SEGMENT
??_C@_0P@LLMHDMAL@COM_REG_FAILED?$AA@ DB 'COM_REG_FAILED', 00H ; `string'
CONST	ENDS
;	COMDAT ??_C@_0BD@HFNFAFOP@REG_INSTALL_FAILED?$AA@
CONST	SEGMENT
??_C@_0BD@HFNFAFOP@REG_INSTALL_FAILED?$AA@ DB 'REG_INSTALL_FAILED', 00H ; `string'
CONST	ENDS
;	COMDAT ??_C@_09PNIDBPNC@Publisher?$AA@
CONST	SEGMENT
??_C@_09PNIDBPNC@Publisher?$AA@ DB 'Publisher', 00H	; `string'
CONST	ENDS
;	COMDAT ??_C@_0BF@JOANFFGE@GostCrypt?5Developers?$AA@
CONST	SEGMENT
??_C@_0BF@JOANFFGE@GostCrypt?5Developers?$AA@ DB 'GostCrypt Developers', 00H ; `string'
CONST	ENDS
;	COMDAT ??_C@_0M@MLHPPPJP@DisplayName?$AA@
CONST	SEGMENT
??_C@_0M@MLHPPPJP@DisplayName?$AA@ DB 'DisplayName', 00H ; `string'
CONST	ENDS
;	COMDAT ??_C@_0M@DDCGOGKB@DisplayIcon?$AA@
CONST	SEGMENT
??_C@_0M@DDCGOGKB@DisplayIcon?$AA@ DB 'DisplayIcon', 00H ; `string'
CONST	ENDS
;	COMDAT ??_C@_0BI@BBPBNAKG@?$CC?$CFsGostCrypt?5Setup?4exe?$CC?$AA@
CONST	SEGMENT
??_C@_0BI@BBPBNAKG@?$CC?$CFsGostCrypt?5Setup?4exe?$CC?$AA@ DB '"%sGostCry'
	DB	'pt Setup.exe"', 00H				; `string'
CONST	ENDS
;	COMDAT ??_C@_0L@OGHNHFGG@ModifyPath?$AA@
CONST	SEGMENT
??_C@_0L@OGHNHFGG@ModifyPath?$AA@ DB 'ModifyPath', 00H	; `string'
CONST	ENDS
;	COMDAT ??_C@_0BL@ELIELANB@?$CC?$CFsGostCrypt?5Setup?4exe?$CC?5?1c?$AA@
CONST	SEGMENT
??_C@_0BL@ELIELANB@?$CC?$CFsGostCrypt?5Setup?4exe?$CC?5?1c?$AA@ DB '"%sGo'
	DB	'stCrypt Setup.exe" /c', 00H			; `string'
CONST	ENDS
;	COMDAT ??_C@_0BA@OJMJCMCH@UninstallString?$AA@
CONST	SEGMENT
??_C@_0BA@OJMJCMCH@UninstallString?$AA@ DB 'UninstallString', 00H ; `string'
CONST	ENDS
;	COMDAT ??_C@_0BL@FHBMAFAG@?$CC?$CFsGostCrypt?5Setup?4exe?$CC?5?1u?$AA@
CONST	SEGMENT
??_C@_0BL@FHBMAFAG@?$CC?$CFsGostCrypt?5Setup?4exe?$CC?5?1u?$AA@ DB '"%sGo'
	DB	'stCrypt Setup.exe" /u', 00H			; `string'
CONST	ENDS
;	COMDAT ??_C@_0BA@OIGBKMHJ@GostCryptVolume?$AA@
CONST	SEGMENT
??_C@_0BA@OIGBKMHJ@GostCryptVolume?$AA@ DB 'GostCryptVolume', 00H ; `string'
CONST	ENDS
;	COMDAT ??_C@_0BG@HDBIFFFP@Software?2Classes?2?4gst?$AA@
CONST	SEGMENT
??_C@_0BG@HDBIFFFP@Software?2Classes?2?4gst?$AA@ DB 'Software\Classes\.gs'
	DB	't', 00H					; `string'
CONST	ENDS
;	COMDAT ??_C@_0BL@OEOIONON@?$CC?$CFsGostCrypt?4exe?$CC?5?1v?5?$CC?$CF?$CF1?$CC?$AA@
CONST	SEGMENT
??_C@_0BL@OEOIONON@?$CC?$CFsGostCrypt?4exe?$CC?5?1v?5?$CC?$CF?$CF1?$CC?$AA@ DB '"'
	DB	'%sGostCrypt.exe" /v "%%1"', 00H		; `string'
CONST	ENDS
;	COMDAT ??_C@_0DE@GDKMHJIK@Software?2Classes?2GostCryptVolume@
CONST	SEGMENT
??_C@_0DE@GDKMHJIK@Software?2Classes?2GostCryptVolume@ DB 'Software\Class'
	DB	'es\GostCryptVolume\Shell\open\command', 00H	; `string'
CONST	ENDS
;	COMDAT ??_C@_0BC@PJLJMABB@?$CFsGostCrypt?4exe?01?$AA@
CONST	SEGMENT
??_C@_0BC@PJLJMABB@?$CFsGostCrypt?4exe?01?$AA@ DB '%sGostCrypt.exe,1', 00H ; `string'
CONST	ENDS
;	COMDAT ??_C@_0CN@HFACCAPK@Software?2Classes?2GostCryptVolume@
CONST	SEGMENT
??_C@_0CN@HFACCAPK@Software?2Classes?2GostCryptVolume@ DB 'Software\Class'
	DB	'es\GostCryptVolume\DefaultIcon', 00H	; `string'
CONST	ENDS
;	COMDAT ??_C@_0P@LGELIEHB@AppUserModelID?$AA@
CONST	SEGMENT
??_C@_0P@LGELIEHB@AppUserModelID?$AA@ DB 'AppUserModelID', 00H ; `string'
CONST	ENDS
;	COMDAT ??_C@_03BMPLCLAP@?$CFws?$AA@
CONST	SEGMENT
??_C@_03BMPLCLAP@?$CFws?$AA@ DB '%ws', 00H		; `string'
CONST	ENDS
;	COMDAT ??_C@_0BB@BGKFOGNF@GostCrypt?5Volume?$AA@
CONST	SEGMENT
??_C@_0BB@BGKFOGNF@GostCrypt?5Volume?$AA@ DB 'GostCrypt Volume', 00H ; `string'
CONST	ENDS
;	COMDAT ??_C@_0CB@HIFIENIE@Software?2Classes?2GostCryptVolume@
CONST	SEGMENT
??_C@_0CB@HIFIENIE@Software?2Classes?2GostCryptVolume@ DB 'Software\Class'
	DB	'es\GostCryptVolume', 00H			; `string'
CONST	ENDS
;	COMDAT ??_C@_0N@CIJCJNDA@URLInfoAbout?$AA@
CONST	SEGMENT
??_C@_0N@CIJCJNDA@URLInfoAbout?$AA@ DB 'URLInfoAbout', 00H ; `string'
CONST	ENDS
;	COMDAT ??_C@_0BK@EMBCECD@http?3?1?1www?4gostcrypt?4org?1?$AA@
CONST	SEGMENT
??_C@_0BK@EMBCECD@http?3?1?1www?4gostcrypt?4org?1?$AA@ DB 'http://www.gos'
	DB	'tcrypt.org/', 00H				; `string'
CONST	ENDS
;	COMDAT ??_C@_0P@BNDLMAIF@DisplayVersion?$AA@
CONST	SEGMENT
??_C@_0P@BNDLMAIF@DisplayVersion?$AA@ DB 'DisplayVersion', 00H ; `string'
CONST	ENDS
;	COMDAT ??_C@_05OJPKCACG@1?43?41?$AA@
CONST	SEGMENT
??_C@_05OJPKCACG@1?43?41?$AA@ DB '1.3.1', 00H		; `string'
CONST	ENDS
;	COMDAT ??_C@_0DO@MNMIDBOE@Software?2Microsoft?2Windows?2Curre@
CONST	SEGMENT
??_C@_0DO@MNMIDBOE@Software?2Microsoft?2Windows?2Curre@ DB 'Software\Micr'
	DB	'osoft\Windows\CurrentVersion\Uninstall\GostCrypt', 00H ; `string'
CONST	ENDS
;	COMDAT ??_C@_0BL@HCDNBGHG@GostCrypt?5User?5Guide?4?$CK?4pdf?$AA@
CONST	SEGMENT
??_C@_0BL@HCDNBGHG@GostCrypt?5User?5Guide?4?$CK?4pdf?$AA@ DB 'GostCrypt U'
	DB	'ser Guide.*.pdf', 00H			; `string'
CONST	ENDS
;	COMDAT ??_C@_0M@LJEGBCFM@Setup?5files?$AA@
CONST	SEGMENT
??_C@_0M@LJEGBCFM@Setup?5files?$AA@ DB 'Setup files', 00H ; `string'
CONST	ENDS
;	COMDAT ??_C@_0P@GPPOMBKF@Language?4?$CK?4xml?$AA@
CONST	SEGMENT
??_C@_0P@GPPOMBKF@Language?4?$CK?4xml?$AA@ DB 'Language.*.xml', 00H ; `string'
CONST	ENDS
;	COMDAT ??_C@_0BE@ICFIOGFL@UNINSTALL_OF_FAILED?$AA@
CONST	SEGMENT
??_C@_0BE@ICFIOGFL@UNINSTALL_OF_FAILED?$AA@ DB 'UNINSTALL_OF_FAILED', 00H ; `string'
CONST	ENDS
;	COMDAT ??_C@_0BC@MNFHJDAJ@INSTALL_OF_FAILED?$AA@
CONST	SEGMENT
??_C@_0BC@MNFHJDAJ@INSTALL_OF_FAILED?$AA@ DB 'INSTALL_OF_FAILED', 00H ; `string'
CONST	ENDS
;	COMDAT ??_C@_0CM@LCJDGIOL@SYSTEM?2CurrentControlSet?2Service@
CONST	SEGMENT
??_C@_0CM@LCJDGIOL@SYSTEM?2CurrentControlSet?2Service@ DB 'SYSTEM\Current'
	DB	'ControlSet\Services\gostcrypt', 00H		; `string'
CONST	ENDS
;	COMDAT ??_C@_09JMMKOPDJ@ImagePath?$AA@
CONST	SEGMENT
??_C@_09JMMKOPDJ@ImagePath?$AA@ DB 'ImagePath', 00H	; `string'
CONST	ENDS
;	COMDAT ??_C@_0BP@KPLJJAIG@System32?2drivers?2gostcrypt?4sys?$AA@
CONST	SEGMENT
??_C@_0BP@KPLJJAIG@System32?2drivers?2gostcrypt?4sys?$AA@ DB 'System32\dr'
	DB	'ivers\gostcrypt.sys', 00H			; `string'
CONST	ENDS
;	COMDAT ??_C@_04HDOCAJNK@?$CFs?$CFs?$AA@
CONST	SEGMENT
??_C@_04HDOCAJNK@?$CFs?$CFs?$AA@ DB '%s%s', 00H		; `string'
CONST	ENDS
;	COMDAT ??_C@_08GHPFJMCG@Drivers?2?$AA@
CONST	SEGMENT
??_C@_08GHPFJMCG@Drivers?2?$AA@ DB 'Drivers\', 00H	; `string'
CONST	ENDS
;	COMDAT ??_C@_0BA@IEENJPHG@GostCrypt?5Setup?$AA@
CONST	SEGMENT
??_C@_0BA@IEENJPHG@GostCrypt?5Setup?$AA@ DB 'GostCrypt Setup', 00H ; `string'
CONST	ENDS
;	COMDAT ??_C@_01KICIPPFI@?2?$AA@
CONST	SEGMENT
??_C@_01KICIPPFI@?2?$AA@ DB '\', 00H			; `string'
CONST	ENDS
;	COMDAT ??_C@_0M@CFAAPOHD@ADDING_ICON?$AA@
CONST	SEGMENT
??_C@_0M@CFAAPOHD@ADDING_ICON?$AA@ DB 'ADDING_ICON', 00H ; `string'
CONST	ENDS
;	COMDAT ??_C@_08GLIOLGPM@REMOVING?$AA@
CONST	SEGMENT
??_C@_08GLIOLGPM@REMOVING?$AA@ DB 'REMOVING', 00H	; `string'
CONST	ENDS
;	COMDAT ??_C@_0L@HHILBMI@INSTALLING?$AA@
CONST	SEGMENT
??_C@_0L@HHILBMI@INSTALLING?$AA@ DB 'INSTALLING', 00H	; `string'
CONST	ENDS
;	COMDAT ??_C@_0L@LFAEJJAB@ADDING_REG?$AA@
CONST	SEGMENT
??_C@_0L@LFAEJJAB@ADDING_REG?$AA@ DB 'ADDING_REG', 00H	; `string'
CONST	ENDS
;	COMDAT ??_C@_1O@FHLBCOCO@?$AA?$CF?$AAs?$AA?5?$AA?$CF?$AAh?$AAs?$AA?$AA@
CONST	SEGMENT
??_C@_1O@FHLBCOCO@?$AA?$CF?$AAs?$AA?5?$AA?$CF?$AAh?$AAs?$AA?$AA@ DB '%', 00H
	DB	's', 00H, ' ', 00H, '%', 00H, 'h', 00H, 's', 00H, 00H, 00H ; `string'
CONST	ENDS
;	COMDAT ??_C@_1DM@PACGJHBK@?$AAG?$AAo?$AAs?$AAt?$AAC?$AAr?$AAy?$AAp?$AAt?$AAF?$AAo?$AAu?$AAn?$AAd?$AAa?$AAt?$AAi?$AAo?$AAn?$AA?4?$AAG?$AAo?$AAs?$AAt?$AAC?$AAr?$AAy?$AAp?$AAt?$AA?$AA@
CONST	SEGMENT
??_C@_1DM@PACGJHBK@?$AAG?$AAo?$AAs?$AAt?$AAC?$AAr?$AAy?$AAp?$AAt?$AAF?$AAo?$AAu?$AAn?$AAd?$AAa?$AAt?$AAi?$AAo?$AAn?$AA?4?$AAG?$AAo?$AAs?$AAt?$AAC?$AAr?$AAy?$AAp?$AAt?$AA?$AA@ DB 'G'
	DB	00H, 'o', 00H, 's', 00H, 't', 00H, 'C', 00H, 'r', 00H, 'y', 00H
	DB	'p', 00H, 't', 00H, 'F', 00H, 'o', 00H, 'u', 00H, 'n', 00H, 'd'
	DB	00H, 'a', 00H, 't', 00H, 'i', 00H, 'o', 00H, 'n', 00H, '.', 00H
	DB	'G', 00H, 'o', 00H, 's', 00H, 't', 00H, 'C', 00H, 'r', 00H, 'y'
	DB	00H, 'p', 00H, 't', 00H, 00H, 00H		; `string'
CONST	ENDS
;	COMDAT __GUID_886d8eeb_8cf2_4446_8d02_cdba1dbdcf99
CONST	SEGMENT
__GUID_886d8eeb_8cf2_4446_8d02_cdba1dbdcf99 DD 0886d8eebH
	DW	08cf2H
	DW	04446H
	DB	08dH
	DB	02H
	DB	0cdH
	DB	0baH
	DB	01dH
	DB	0bdH
	DB	0cfH
	DB	099H
CONST	ENDS
;	COMDAT ??_C@_0BC@MDIFFMMP@gostcrypt?9x64?4sys?$AA@
CONST	SEGMENT
??_C@_0BC@MDIFFMMP@gostcrypt?9x64?4sys?$AA@ DB 'gostcrypt-x64.sys', 00H ; `string'
CONST	ENDS
;	COMDAT ??_C@_0BF@MBKAOEOG@GostCrypt?5Format?4exe?$AA@
CONST	SEGMENT
??_C@_0BF@MBKAOEOG@GostCrypt?5Format?4exe?$AA@ DB 'GostCrypt Format.exe', 00H ; `string'
CONST	ENDS
;	COMDAT ??_C@_0O@GKOBNEPO@GostCrypt?4exe?$AA@
CONST	SEGMENT
??_C@_0O@GKOBNEPO@GostCrypt?4exe?$AA@ DB 'GostCrypt.exe', 00H ; `string'
CONST	ENDS
;	COMDAT ??_C@_0BF@CJCNGML@AGostCrypt?5Setup?4exe?$AA@
CONST	SEGMENT
??_C@_0BF@CJCNGML@AGostCrypt?5Setup?4exe?$AA@ DB 'AGostCrypt Setup.exe', 00H ; `string'
CONST	ENDS
;	COMDAT ??_C@_0P@MGBPBMGL@Dgostcrypt?4sys?$AA@
CONST	SEGMENT
??_C@_0P@MGBPBMGL@Dgostcrypt?4sys?$AA@ DB 'Dgostcrypt.sys', 00H ; `string'
CONST	ENDS
;	COMDAT ??_C@_0BD@OEHMDGJN@Agostcrypt?9x64?4sys?$AA@
CONST	SEGMENT
??_C@_0BD@OEHMDGJN@Agostcrypt?9x64?4sys?$AA@ DB 'Agostcrypt-x64.sys', 00H ; `string'
CONST	ENDS
;	COMDAT ??_C@_0P@PFJIKCOA@Agostcrypt?4sys?$AA@
CONST	SEGMENT
??_C@_0P@PFJIKCOA@Agostcrypt?4sys?$AA@ DB 'Agostcrypt.sys', 00H ; `string'
CONST	ENDS
;	COMDAT ??_C@_0BG@PFOLNHIK@AGostCrypt?5Format?4exe?$AA@
CONST	SEGMENT
??_C@_0BG@PFOLNHIK@AGostCrypt?5Format?4exe?$AA@ DB 'AGostCrypt Format.exe'
	DB	00H						; `string'
CONST	ENDS
;	COMDAT ??_C@_0P@BPIJAOEL@AGostCrypt?4exe?$AA@
CONST	SEGMENT
??_C@_0P@BPIJAOEL@AGostCrypt?4exe?$AA@ DB 'AGostCrypt.exe', 00H ; `string'
CONST	ENDS
;	COMDAT ??_C@_0N@GJIBBNGF@ALicense?4txt?$AA@
CONST	SEGMENT
??_C@_0N@GJIBBNGF@ALicense?4txt?$AA@ DB 'ALicense.txt', 00H ; `string'
CONST	ENDS
;	COMDAT ??_C@_0BK@COLMIOEI@AGostCrypt?5User?5Guide?4pdf?$AA@
CONST	SEGMENT
??_C@_0BK@COLMIOEI@AGostCrypt?5User?5Guide?4pdf?$AA@ DB 'AGostCrypt User '
	DB	'Guide.pdf', 00H				; `string'
CONST	ENDS
_DATA	SEGMENT
_szFiles DD	FLAT:??_C@_0BK@COLMIOEI@AGostCrypt?5User?5Guide?4pdf?$AA@
	DD	FLAT:??_C@_0N@GJIBBNGF@ALicense?4txt?$AA@
	DD	FLAT:??_C@_0P@BPIJAOEL@AGostCrypt?4exe?$AA@
	DD	FLAT:??_C@_0BG@PFOLNHIK@AGostCrypt?5Format?4exe?$AA@
	DD	FLAT:??_C@_0P@PFJIKCOA@Agostcrypt?4sys?$AA@
	DD	FLAT:??_C@_0BD@OEHMDGJN@Agostcrypt?9x64?4sys?$AA@
	DD	FLAT:??_C@_0P@MGBPBMGL@Dgostcrypt?4sys?$AA@
	DD	FLAT:??_C@_0BF@CJCNGML@AGostCrypt?5Setup?4exe?$AA@
_DATA	ENDS
;	COMDAT ??_C@_09NKHKFHLH@GostCrypt?$AA@
CONST	SEGMENT
??_C@_09NKHKFHLH@GostCrypt?$AA@ DB 'GostCrypt', 00H	; `string'
CONST	ENDS
;	COMDAT ??_C@_00CNPNBAHC@?$AA@
CONST	SEGMENT
??_C@_00CNPNBAHC@?$AA@ DB 00H				; `string'
CONST	ENDS
;	COMDAT xdata$x
xdata$x	SEGMENT
__tryblocktable$_UpgradeBootLoader DD 00H
	DD	01H
	DD	02H
	DD	02H
	DD	FLAT:__catchsym$_UpgradeBootLoader$4
__unwindtable$_UpgradeBootLoader DD 0ffffffffH
	DD	00H
	DD	00H
	DD	FLAT:__unwindfunclet$_UpgradeBootLoader$3
	DD	0ffffffffH
	DD	00H
__catchsym$_UpgradeBootLoader$4 DD 08H
	DD	FLAT:??_R0?AUException@GostCrypt@@@8
	DD	0fffffa1cH
	DD	FLAT:__catch$_UpgradeBootLoader$0
	DD	040H
	DD	00H
	DD	00H
	DD	FLAT:__catch$_UpgradeBootLoader$1
__ehfuncinfo$_UpgradeBootLoader DD 019930522H
	DD	03H
	DD	FLAT:__unwindtable$_UpgradeBootLoader
	DD	01H
	DD	FLAT:__tryblocktable$_UpgradeBootLoader
	DD	2 DUP(00H)
	DD	00H
	DD	01H
xdata$x	ENDS
;	COMDAT xdata$x
xdata$x	SEGMENT
__catchsym$_DoInstall$314 DD 040H
	DD	00H
	DD	00H
	DD	FLAT:__catch$_DoInstall$7
__catchsym$_DoInstall$313 DD 08H
	DD	FLAT:??_R0?AUException@GostCrypt@@@8
	DD	0fffff5e4H
	DD	FLAT:__catch$_DoInstall$2
__catchsym$_DoInstall$312 DD 040H
	DD	00H
	DD	00H
	DD	FLAT:__catch$_DoInstall$3
__catchsym$_DoInstall$311 DD 040H
	DD	00H
	DD	00H
	DD	FLAT:__catch$_DoInstall$0
__ehfuncinfo$_DoInstall DD 019930522H
	DD	013H
	DD	FLAT:__unwindtable$_DoInstall
	DD	04H
	DD	FLAT:__tryblocktable$_DoInstall
	DD	2 DUP(00H)
	DD	00H
	DD	01H
__tryblocktable$_DoInstall DD 09H
	DD	09H
	DD	0aH
	DD	01H
	DD	FLAT:__catchsym$_DoInstall$311
	DD	0dH
	DD	0dH
	DD	0eH
	DD	01H
	DD	FLAT:__catchsym$_DoInstall$312
	DD	0bH
	DD	0bH
	DD	0eH
	DD	01H
	DD	FLAT:__catchsym$_DoInstall$313
	DD	010H
	DD	010H
	DD	011H
	DD	01H
	DD	FLAT:__catchsym$_DoInstall$314
__unwindtable$_DoInstall DD 0ffffffffH
	DD	FLAT:__unwindfunclet$_DoInstall$9
	DD	00H
	DD	FLAT:__unwindfunclet$_DoInstall$10
	DD	01H
	DD	FLAT:__unwindfunclet$_DoInstall$11
	DD	02H
	DD	FLAT:__unwindfunclet$_DoInstall$12
	DD	03H
	DD	FLAT:__unwindfunclet$_DoInstall$13
	DD	04H
	DD	FLAT:__unwindfunclet$_DoInstall$14
	DD	05H
	DD	FLAT:__unwindfunclet$_DoInstall$15
	DD	06H
	DD	FLAT:__unwindfunclet$_DoInstall$16
	DD	07H
	DD	FLAT:__unwindfunclet$_DoInstall$17
	DD	00H
	DD	00H
	DD	00H
	DD	00H
	DD	00H
	DD	00H
	DD	00H
	DD	00H
	DD	0cH
	DD	00H
	DD	0cH
	DD	00H
	DD	00H
	DD	FLAT:__unwindfunclet$_DoInstall$19
	DD	00H
	DD	00H
	DD	00H
	DD	00H
	DD	00H
	DD	FLAT:__unwindfunclet$_DoInstall$20
xdata$x	ENDS
;	COMDAT xdata$x
xdata$x	SEGMENT
__catchsym$_DoDriverUnload$15 DD 040H
	DD	00H
	DD	00H
	DD	FLAT:__catch$_DoDriverUnload$8
__catchsym$_DoDriverUnload$14 DD 040H
	DD	00H
	DD	00H
	DD	FLAT:__catch$_DoDriverUnload$6
__catchsym$_DoDriverUnload$13 DD 040H
	DD	00H
	DD	00H
	DD	FLAT:__catch$_DoDriverUnload$4
__catchsym$_DoDriverUnload$12 DD 040H
	DD	00H
	DD	00H
	DD	FLAT:__catch$_DoDriverUnload$2
__catchsym$_DoDriverUnload$11 DD 040H
	DD	00H
	DD	00H
	DD	FLAT:__catch$_DoDriverUnload$0
__ehfuncinfo$_DoDriverUnload DD 019930522H
	DD	0bH
	DD	FLAT:__unwindtable$_DoDriverUnload
	DD	05H
	DD	FLAT:__tryblocktable$_DoDriverUnload
	DD	2 DUP(00H)
	DD	00H
	DD	01H
__unwindtable$_DoDriverUnload DD 0ffffffffH
	DD	00H
	DD	00H
	DD	FLAT:__unwindfunclet$_DoDriverUnload$10
	DD	01H
	DD	00H
	DD	01H
	DD	00H
	DD	01H
	DD	00H
	DD	01H
	DD	00H
	DD	01H
	DD	00H
	DD	01H
	DD	00H
	DD	01H
	DD	00H
	DD	01H
	DD	00H
	DD	0ffffffffH
	DD	00H
__tryblocktable$_DoDriverUnload DD 02H
	DD	02H
	DD	03H
	DD	01H
	DD	FLAT:__catchsym$_DoDriverUnload$11
	DD	04H
	DD	04H
	DD	05H
	DD	01H
	DD	FLAT:__catchsym$_DoDriverUnload$12
	DD	06H
	DD	06H
	DD	07H
	DD	01H
	DD	FLAT:__catchsym$_DoDriverUnload$13
	DD	08H
	DD	08H
	DD	09H
	DD	01H
	DD	FLAT:__catchsym$_DoDriverUnload$14
	DD	00H
	DD	09H
	DD	0aH
	DD	01H
	DD	FLAT:__catchsym$_DoDriverUnload$15
xdata$x	ENDS
;	COMDAT xdata$x
xdata$x	SEGMENT
__catchsym$_DoServiceUninstall$21 DD 040H
	DD	00H
	DD	00H
	DD	FLAT:__catch$_DoServiceUninstall$8
__catchsym$_DoServiceUninstall$20 DD 040H
	DD	00H
	DD	00H
	DD	FLAT:__catch$_DoServiceUninstall$6
__catchsym$_DoServiceUninstall$19 DD 040H
	DD	00H
	DD	00H
	DD	FLAT:__catch$_DoServiceUninstall$4
__catchsym$_DoServiceUninstall$18 DD 040H
	DD	00H
	DD	00H
	DD	FLAT:__catch$_DoServiceUninstall$2
__ehfuncinfo$_DoServiceUninstall DD 019930522H
	DD	09H
	DD	FLAT:__unwindtable$_DoServiceUninstall
	DD	04H
	DD	FLAT:__tryblocktable$_DoServiceUninstall
	DD	2 DUP(00H)
	DD	00H
	DD	01H
__unwindtable$_DoServiceUninstall DD 0ffffffffH
	DD	00H
	DD	00H
	DD	FLAT:__unwindfunclet$_DoServiceUninstall$17
	DD	01H
	DD	00H
	DD	01H
	DD	00H
	DD	01H
	DD	00H
	DD	01H
	DD	00H
	DD	01H
	DD	00H
	DD	01H
	DD	00H
	DD	0ffffffffH
	DD	00H
__tryblocktable$_DoServiceUninstall DD 02H
	DD	02H
	DD	03H
	DD	01H
	DD	FLAT:__catchsym$_DoServiceUninstall$18
	DD	04H
	DD	04H
	DD	05H
	DD	01H
	DD	FLAT:__catchsym$_DoServiceUninstall$19
	DD	06H
	DD	06H
	DD	07H
	DD	01H
	DD	FLAT:__catchsym$_DoServiceUninstall$20
	DD	00H
	DD	07H
	DD	08H
	DD	01H
	DD	FLAT:__catchsym$_DoServiceUninstall$21
xdata$x	ENDS
;	COMDAT xdata$x
xdata$x	SEGMENT
__catchsym$?_Copy@?$basic_string@DU?$char_traits@D@std@@V?$allocator@D@2@@std@@QAEXII@Z$111 DD 040H
	DD	00H
	DD	00H
	DD	FLAT:__catch$?_Copy@?$basic_string@DU?$char_traits@D@std@@V?$allocator@D@2@@std@@QAEXII@Z$0
__catchsym$?_Copy@?$basic_string@DU?$char_traits@D@std@@V?$allocator@D@2@@std@@QAEXII@Z$110 DD 040H
	DD	00H
	DD	00H
	DD	FLAT:__catch$?_Copy@?$basic_string@DU?$char_traits@D@std@@V?$allocator@D@2@@std@@QAEXII@Z$1
__unwindtable$?_Copy@?$basic_string@DU?$char_traits@D@std@@V?$allocator@D@2@@std@@QAEXII@Z DD 0ffffffffH
	DD	00H
	DD	0ffffffffH
	DD	00H
	DD	01H
	DD	00H
	DD	01H
	DD	00H
__ehfuncinfo$?_Copy@?$basic_string@DU?$char_traits@D@std@@V?$allocator@D@2@@std@@QAEXII@Z DD 019930522H
	DD	04H
	DD	FLAT:__unwindtable$?_Copy@?$basic_string@DU?$char_traits@D@std@@V?$allocator@D@2@@std@@QAEXII@Z
	DD	02H
	DD	FLAT:__tryblocktable$?_Copy@?$basic_string@DU?$char_traits@D@std@@V?$allocator@D@2@@std@@QAEXII@Z
	DD	2 DUP(00H)
	DD	00H
	DD	01H
__tryblocktable$?_Copy@?$basic_string@DU?$char_traits@D@std@@V?$allocator@D@2@@std@@QAEXII@Z DD 02H
	DD	02H
	DD	03H
	DD	01H
	DD	FLAT:__catchsym$?_Copy@?$basic_string@DU?$char_traits@D@std@@V?$allocator@D@2@@std@@QAEXII@Z$110
	DD	00H
	DD	00H
	DD	03H
	DD	01H
	DD	FLAT:__catchsym$?_Copy@?$basic_string@DU?$char_traits@D@std@@V?$allocator@D@2@@std@@QAEXII@Z$111
xdata$x	ENDS
;	COMDAT xdata$x
xdata$x	SEGMENT
__ehfuncinfo$??4?$basic_string@DU?$char_traits@D@std@@V?$allocator@D@2@@std@@QAEAAV01@$$QAV01@@Z DD 019930522H
	DD	00H
	DD	00H
	DD	2 DUP(00H)
	DD	2 DUP(00H)
	DD	00H
	DD	05H
xdata$x	ENDS
; Function compile flags: /Ogtp
; File c:\program files (x86)\microsoft visual studio 14.0\vc\include\xmemory0
;	COMDAT ??$?0ABV?$allocator@D@std@@@?$_Wrap_alloc@V?$allocator@D@std@@@std@@QAE@ABV?$allocator@D@1@@Z
_TEXT	SEGMENT
__Right$ = 8						; size = 4
??$?0ABV?$allocator@D@std@@@?$_Wrap_alloc@V?$allocator@D@std@@@std@@QAE@ABV?$allocator@D@1@@Z PROC ; std::_Wrap_alloc<std::allocator<char> >::_Wrap_alloc<std::allocator<char> ><std::allocator<char> const &>, COMDAT
; _this$ = ecx

; 953  : 		}

  00000	8b c1		 mov	 eax, ecx
  00002	c2 04 00	 ret	 4
??$?0ABV?$allocator@D@std@@@?$_Wrap_alloc@V?$allocator@D@std@@@std@@QAE@ABV?$allocator@D@1@@Z ENDP ; std::_Wrap_alloc<std::allocator<char> >::_Wrap_alloc<std::allocator<char> ><std::allocator<char> const &>
_TEXT	ENDS
; Function compile flags: /Ogtp
; File c:\program files (x86)\microsoft visual studio 14.0\vc\include\xmemory0
;	COMDAT ??$construct@PADAAPAD@?$allocator@D@std@@QAEXPAPADAAPAD@Z
_TEXT	SEGMENT
__Ptr$ = 8						; size = 4
_<_Args_0>$ = 12					; size = 4
??$construct@PADAAPAD@?$allocator@D@std@@QAEXPAPADAAPAD@Z PROC ; std::allocator<char>::construct<char *,char * &>, COMDAT
; _this$ = ecx

; 736  : 		{	// construct _Objty(_Types...) at _Ptr

  00000	55		 push	 ebp
  00001	8b ec		 mov	 ebp, esp

; 737  : 		::new ((void *)_Ptr) _Objty(_STD forward<_Types>(_Args)...);

  00003	8b 4d 08	 mov	 ecx, DWORD PTR __Ptr$[ebp]
  00006	85 c9		 test	 ecx, ecx
  00008	74 07		 je	 SHORT $LN3@construct
  0000a	8b 45 0c	 mov	 eax, DWORD PTR _<_Args_0>$[ebp]
  0000d	8b 00		 mov	 eax, DWORD PTR [eax]
  0000f	89 01		 mov	 DWORD PTR [ecx], eax
$LN3@construct:

; 738  : 		}

  00011	5d		 pop	 ebp
  00012	c2 08 00	 ret	 8
??$construct@PADAAPAD@?$allocator@D@std@@QAEXPAPADAAPAD@Z ENDP ; std::allocator<char>::construct<char *,char * &>
_TEXT	ENDS
; Function compile flags: /Ogtp
; File c:\program files (x86)\microsoft visual studio 14.0\vc\include\xmemory0
;	COMDAT ??$destroy@PAD@?$allocator@D@std@@QAEXPAPAD@Z
_TEXT	SEGMENT
__Ptr$ = 8						; size = 4
??$destroy@PAD@?$allocator@D@std@@QAEXPAPAD@Z PROC	; std::allocator<char>::destroy<char *>, COMDAT
; _this$ = ecx

; 744  : 		_Ptr->~_Uty();
; 745  : 		}

  00000	c2 04 00	 ret	 4
??$destroy@PAD@?$allocator@D@std@@QAEXPAPAD@Z ENDP	; std::allocator<char>::destroy<char *>
_TEXT	ENDS
; Function compile flags: /Ogtp
; File c:\program files (x86)\microsoft visual studio 14.0\vc\include\xutility
;	COMDAT ??$?0ABV?$allocator@D@std@@$$V@?$_Compressed_pair@U?$_Wrap_alloc@V?$allocator@D@std@@@std@@V?$_String_val@U?$_Simple_types@D@std@@@2@$00@std@@QAE@U_One_then_variadic_args_t@1@ABV?$allocator@D@1@@Z
_TEXT	SEGMENT
___formal$ = 8						; size = 1
__Val1$ = 12						; size = 4
??$?0ABV?$allocator@D@std@@$$V@?$_Compressed_pair@U?$_Wrap_alloc@V?$allocator@D@std@@@std@@V?$_String_val@U?$_Simple_types@D@std@@@2@$00@std@@QAE@U_One_then_variadic_args_t@1@ABV?$allocator@D@1@@Z PROC ; std::_Compressed_pair<std::_Wrap_alloc<std::allocator<char> >,std::_String_val<std::_Simple_types<char> >,1>::_Compressed_pair<std::_Wrap_alloc<std::allocator<char> >,std::_String_val<std::_Simple_types<char> >,1><std::allocator<char> const &>, COMDAT
; _this$ = ecx

; 288  : 			_Myval2(_STD forward<_Other2>(_Val2)...)

  00000	c7 41 10 00 00
	00 00		 mov	 DWORD PTR [ecx+16], 0

; 290  : 		}

  00007	8b c1		 mov	 eax, ecx
  00009	c7 41 14 00 00
	00 00		 mov	 DWORD PTR [ecx+20], 0
  00010	c2 08 00	 ret	 8
??$?0ABV?$allocator@D@std@@$$V@?$_Compressed_pair@U?$_Wrap_alloc@V?$allocator@D@std@@@std@@V?$_String_val@U?$_Simple_types@D@std@@@2@$00@std@@QAE@U_One_then_variadic_args_t@1@ABV?$allocator@D@1@@Z ENDP ; std::_Compressed_pair<std::_Wrap_alloc<std::allocator<char> >,std::_String_val<std::_Simple_types<char> >,1>::_Compressed_pair<std::_Wrap_alloc<std::allocator<char> >,std::_String_val<std::_Simple_types<char> >,1><std::allocator<char> const &>
_TEXT	ENDS
; Function compile flags: /Ogtp
; File c:\program files (x86)\microsoft visual studio 14.0\vc\include\type_traits
;	COMDAT ??$forward@ABV?$allocator@D@std@@@std@@YAABV?$allocator@D@0@ABV10@@Z
_TEXT	SEGMENT
__Arg$ = 8						; size = 4
??$forward@ABV?$allocator@D@std@@@std@@YAABV?$allocator@D@0@ABV10@@Z PROC ; std::forward<std::allocator<char> const &>, COMDAT

; 1275 : 	{	// forward an lvalue as either an lvalue or an rvalue

  00000	55		 push	 ebp
  00001	8b ec		 mov	 ebp, esp

; 1276 : 	return (static_cast<_Ty&&>(_Arg));

  00003	8b 45 08	 mov	 eax, DWORD PTR __Arg$[ebp]

; 1277 : 	}

  00006	5d		 pop	 ebp
  00007	c3		 ret	 0
??$forward@ABV?$allocator@D@std@@@std@@YAABV?$allocator@D@0@ABV10@@Z ENDP ; std::forward<std::allocator<char> const &>
_TEXT	ENDS
; Function compile flags: /Ogtp
; File c:\program files (x86)\microsoft visual studio 14.0\vc\include\xmemory0
;	COMDAT ??$construct@PADAAPAD@?$allocator_traits@V?$allocator@D@std@@@std@@SAXAAV?$allocator@D@1@PAPADAAPAD@Z
_TEXT	SEGMENT
__Al$ = 8						; size = 4
__Ptr$ = 12						; size = 4
_<_Args_0>$ = 16					; size = 4
??$construct@PADAAPAD@?$allocator_traits@V?$allocator@D@std@@@std@@SAXAAV?$allocator@D@1@PAPADAAPAD@Z PROC ; std::allocator_traits<std::allocator<char> >::construct<char *,char * &>, COMDAT

; 856  : 		{	// construct _Objty(_Types...) at _Ptr

  00000	55		 push	 ebp
  00001	8b ec		 mov	 ebp, esp

; 857  : 		_Al.construct(_Ptr, _STD forward<_Types>(_Args)...);

  00003	8b 4d 0c	 mov	 ecx, DWORD PTR __Ptr$[ebp]
  00006	85 c9		 test	 ecx, ecx
  00008	74 07		 je	 SHORT $LN8@construct
  0000a	8b 45 10	 mov	 eax, DWORD PTR _<_Args_0>$[ebp]
  0000d	8b 00		 mov	 eax, DWORD PTR [eax]
  0000f	89 01		 mov	 DWORD PTR [ecx], eax
$LN8@construct:

; 858  : 		}

  00011	5d		 pop	 ebp
  00012	c3		 ret	 0
??$construct@PADAAPAD@?$allocator_traits@V?$allocator@D@std@@@std@@SAXAAV?$allocator@D@1@PAPADAAPAD@Z ENDP ; std::allocator_traits<std::allocator<char> >::construct<char *,char * &>
_TEXT	ENDS
; Function compile flags: /Ogtp
; File c:\program files (x86)\microsoft visual studio 14.0\vc\include\type_traits
;	COMDAT ??$forward@AAPAD@std@@YAAAPADAAPAD@Z
_TEXT	SEGMENT
__Arg$ = 8						; size = 4
??$forward@AAPAD@std@@YAAAPADAAPAD@Z PROC		; std::forward<char * &>, COMDAT

; 1275 : 	{	// forward an lvalue as either an lvalue or an rvalue

  00000	55		 push	 ebp
  00001	8b ec		 mov	 ebp, esp

; 1276 : 	return (static_cast<_Ty&&>(_Arg));

  00003	8b 45 08	 mov	 eax, DWORD PTR __Arg$[ebp]

; 1277 : 	}

  00006	5d		 pop	 ebp
  00007	c3		 ret	 0
??$forward@AAPAD@std@@YAAAPADAAPAD@Z ENDP		; std::forward<char * &>
_TEXT	ENDS
; Function compile flags: /Ogtp
; File c:\program files (x86)\microsoft visual studio 14.0\vc\include\xmemory0
;	COMDAT ??$destroy@PAD@?$allocator_traits@V?$allocator@D@std@@@std@@SAXAAV?$allocator@D@1@PAPAD@Z
_TEXT	SEGMENT
__Al$ = 8						; size = 4
__Ptr$ = 12						; size = 4
??$destroy@PAD@?$allocator_traits@V?$allocator@D@std@@@std@@SAXAAV?$allocator@D@1@PAPAD@Z PROC ; std::allocator_traits<std::allocator<char> >::destroy<char *>, COMDAT

; 864  : 		_Al.destroy(_Ptr);
; 865  : 		}

  00000	c3		 ret	 0
??$destroy@PAD@?$allocator_traits@V?$allocator@D@std@@@std@@SAXAAV?$allocator@D@1@PAPAD@Z ENDP ; std::allocator_traits<std::allocator<char> >::destroy<char *>
_TEXT	ENDS
; Function compile flags: /Ogtp
; File c:\program files (x86)\microsoft visual studio 14.0\vc\include\xmemory0
;	COMDAT ??$_Pocma@U?$_Wrap_alloc@V?$allocator@D@std@@@std@@@std@@YAXAAU?$_Wrap_alloc@V?$allocator@D@std@@@0@0U?$integral_constant@_N$00@0@@Z
_TEXT	SEGMENT
__Left$ = 8						; size = 4
__Right$ = 12						; size = 4
___formal$ = 16						; size = 1
??$_Pocma@U?$_Wrap_alloc@V?$allocator@D@std@@@std@@@std@@YAXAAU?$_Wrap_alloc@V?$allocator@D@std@@@0@0U?$integral_constant@_N$00@0@@Z PROC ; std::_Pocma<std::_Wrap_alloc<std::allocator<char> > >, COMDAT

; 1052 : 	_Left = _STD move(_Right);
; 1053 : 	}

  00000	c3		 ret	 0
??$_Pocma@U?$_Wrap_alloc@V?$allocator@D@std@@@std@@@std@@YAXAAU?$_Wrap_alloc@V?$allocator@D@std@@@0@0U?$integral_constant@_N$00@0@@Z ENDP ; std::_Pocma<std::_Wrap_alloc<std::allocator<char> > >
_TEXT	ENDS
; Function compile flags: /Ogtp
; File c:\program files (x86)\microsoft visual studio 14.0\vc\include\xutility
;	COMDAT ??$?0U?$_Wrap_alloc@V?$allocator@D@std@@@std@@$$V@?$_Compressed_pair@U?$_Wrap_alloc@V?$allocator@D@std@@@std@@V?$_String_val@U?$_Simple_types@D@std@@@2@$00@std@@QAE@U_One_then_variadic_args_t@1@$$QAU?$_Wrap_alloc@V?$allocator@D@std@@@1@@Z
_TEXT	SEGMENT
___formal$ = 8						; size = 1
__Val1$ = 12						; size = 4
??$?0U?$_Wrap_alloc@V?$allocator@D@std@@@std@@$$V@?$_Compressed_pair@U?$_Wrap_alloc@V?$allocator@D@std@@@std@@V?$_String_val@U?$_Simple_types@D@std@@@2@$00@std@@QAE@U_One_then_variadic_args_t@1@$$QAU?$_Wrap_alloc@V?$allocator@D@std@@@1@@Z PROC ; std::_Compressed_pair<std::_Wrap_alloc<std::allocator<char> >,std::_String_val<std::_Simple_types<char> >,1>::_Compressed_pair<std::_Wrap_alloc<std::allocator<char> >,std::_String_val<std::_Simple_types<char> >,1><std::_Wrap_alloc<std::allocator<char> > >, COMDAT
; _this$ = ecx

; 288  : 			_Myval2(_STD forward<_Other2>(_Val2)...)

  00000	c7 41 10 00 00
	00 00		 mov	 DWORD PTR [ecx+16], 0

; 290  : 		}

  00007	8b c1		 mov	 eax, ecx
  00009	c7 41 14 00 00
	00 00		 mov	 DWORD PTR [ecx+20], 0
  00010	c2 08 00	 ret	 8
??$?0U?$_Wrap_alloc@V?$allocator@D@std@@@std@@$$V@?$_Compressed_pair@U?$_Wrap_alloc@V?$allocator@D@std@@@std@@V?$_String_val@U?$_Simple_types@D@std@@@2@$00@std@@QAE@U_One_then_variadic_args_t@1@$$QAU?$_Wrap_alloc@V?$allocator@D@std@@@1@@Z ENDP ; std::_Compressed_pair<std::_Wrap_alloc<std::allocator<char> >,std::_String_val<std::_Simple_types<char> >,1>::_Compressed_pair<std::_Wrap_alloc<std::allocator<char> >,std::_String_val<std::_Simple_types<char> >,1><std::_Wrap_alloc<std::allocator<char> > >
_TEXT	ENDS
; Function compile flags: /Ogtp
; File c:\program files (x86)\microsoft visual studio 14.0\vc\include\type_traits
;	COMDAT ??$forward@U?$_Wrap_alloc@V?$allocator@D@std@@@std@@@std@@YA$$QAU?$_Wrap_alloc@V?$allocator@D@std@@@0@AAU10@@Z
_TEXT	SEGMENT
__Arg$ = 8						; size = 4
??$forward@U?$_Wrap_alloc@V?$allocator@D@std@@@std@@@std@@YA$$QAU?$_Wrap_alloc@V?$allocator@D@std@@@0@AAU10@@Z PROC ; std::forward<std::_Wrap_alloc<std::allocator<char> > >, COMDAT

; 1275 : 	{	// forward an lvalue as either an lvalue or an rvalue

  00000	55		 push	 ebp
  00001	8b ec		 mov	 ebp, esp

; 1276 : 	return (static_cast<_Ty&&>(_Arg));

  00003	8b 45 08	 mov	 eax, DWORD PTR __Arg$[ebp]

; 1277 : 	}

  00006	5d		 pop	 ebp
  00007	c3		 ret	 0
??$forward@U?$_Wrap_alloc@V?$allocator@D@std@@@std@@@std@@YA$$QAU?$_Wrap_alloc@V?$allocator@D@std@@@0@AAU10@@Z ENDP ; std::forward<std::_Wrap_alloc<std::allocator<char> > >
_TEXT	ENDS
; Function compile flags: /Ogtp
; File c:\program files (x86)\microsoft visual studio 14.0\vc\include\xmemory0
;	COMDAT ??$?8DD@std@@YA_NABV?$allocator@D@0@0@Z
_TEXT	SEGMENT
___formal$ = 8						; size = 4
___formal$ = 12						; size = 4
??$?8DD@std@@YA_NABV?$allocator@D@0@0@Z PROC		; std::operator==<char,char>, COMDAT

; 796  : 	return (true);

  00000	b0 01		 mov	 al, 1

; 797  : 	}

  00002	c3		 ret	 0
??$?8DD@std@@YA_NABV?$allocator@D@0@0@Z ENDP		; std::operator==<char,char>
_TEXT	ENDS
; Function compile flags: /Ogtp
; File c:\program files (x86)\microsoft visual studio 14.0\vc\include\xmemory0
;	COMDAT ??$?8V?$allocator@D@std@@V01@@std@@YA_NABU?$_Wrap_alloc@V?$allocator@D@std@@@0@0@Z
_TEXT	SEGMENT
__Left$ = 8						; size = 4
__Right$ = 12						; size = 4
??$?8V?$allocator@D@std@@V01@@std@@YA_NABU?$_Wrap_alloc@V?$allocator@D@std@@@0@0@Z PROC ; std::operator==<std::allocator<char>,std::allocator<char> >, COMDAT

; 1017 : 	return (static_cast<const _Ty&>(_Left)

  00000	b0 01		 mov	 al, 1

; 1018 : 		== static_cast<const _Other&>(_Right));
; 1019 : 	}

  00002	c3		 ret	 0
??$?8V?$allocator@D@std@@V01@@std@@YA_NABU?$_Wrap_alloc@V?$allocator@D@std@@@0@0@Z ENDP ; std::operator==<std::allocator<char>,std::allocator<char> >
_TEXT	ENDS
; Function compile flags: /Ogtp
; File c:\program files (x86)\microsoft visual studio 14.0\vc\include\type_traits
;	COMDAT ??$move@AAV?$basic_string@DU?$char_traits@D@std@@V?$allocator@D@2@@std@@@std@@YA$$QAV?$basic_string@DU?$char_traits@D@std@@V?$allocator@D@2@@0@AAV10@@Z
_TEXT	SEGMENT
__Arg$ = 8						; size = 4
??$move@AAV?$basic_string@DU?$char_traits@D@std@@V?$allocator@D@2@@std@@@std@@YA$$QAV?$basic_string@DU?$char_traits@D@std@@V?$allocator@D@2@@0@AAV10@@Z PROC ; std::move<std::basic_string<char,std::char_traits<char>,std::allocator<char> > &>, COMDAT

; 1291 : 	{	// forward _Arg as movable

  00000	55		 push	 ebp
  00001	8b ec		 mov	 ebp, esp

; 1292 : 	return (static_cast<typename remove_reference<_Ty>::type&&>(_Arg));

  00003	8b 45 08	 mov	 eax, DWORD PTR __Arg$[ebp]

; 1293 : 	}

  00006	5d		 pop	 ebp
  00007	c3		 ret	 0
??$move@AAV?$basic_string@DU?$char_traits@D@std@@V?$allocator@D@2@@std@@@std@@YA$$QAV?$basic_string@DU?$char_traits@D@std@@V?$allocator@D@2@@0@AAV10@@Z ENDP ; std::move<std::basic_string<char,std::char_traits<char>,std::allocator<char> > &>
_TEXT	ENDS
; Function compile flags: /Ogtp
; File c:\program files (x86)\microsoft visual studio 14.0\vc\include\xstddef
;	COMDAT ??$addressof@D@std@@YAPADAAD@Z
_TEXT	SEGMENT
__Val$ = 8						; size = 4
??$addressof@D@std@@YAPADAAD@Z PROC			; std::addressof<char>, COMDAT

; 724  : 	{	// return address of _Val

  00000	55		 push	 ebp
  00001	8b ec		 mov	 ebp, esp

; 725  : 	return (__builtin_addressof(_Val));

  00003	8b 45 08	 mov	 eax, DWORD PTR __Val$[ebp]

; 726  : 	}

  00006	5d		 pop	 ebp
  00007	c3		 ret	 0
??$addressof@D@std@@YAPADAAD@Z ENDP			; std::addressof<char>
_TEXT	ENDS
; Function compile flags: /Ogtp
; File c:\program files (x86)\microsoft visual studio 14.0\vc\include\xmemory0
;	COMDAT ?pointer_to@?$pointer_traits@PAD@std@@SAPADAAD@Z
_TEXT	SEGMENT
__Val$ = 8						; size = 4
?pointer_to@?$pointer_traits@PAD@std@@SAPADAAD@Z PROC	; std::pointer_traits<char *>::pointer_to, COMDAT

; 279  : 		{	// convert raw reference to pointer

  00000	55		 push	 ebp
  00001	8b ec		 mov	 ebp, esp

; 280  : 		return (_STD addressof(_Val));

  00003	8b 45 08	 mov	 eax, DWORD PTR __Val$[ebp]

; 281  : 		}

  00006	5d		 pop	 ebp
  00007	c3		 ret	 0
?pointer_to@?$pointer_traits@PAD@std@@SAPADAAD@Z ENDP	; std::pointer_traits<char *>::pointer_to
_TEXT	ENDS
; Function compile flags: /Ogtp
; File c:\program files (x86)\microsoft visual studio 14.0\vc\include\xstring
;	COMDAT ??$?0ABV?$allocator@D@std@@X@?$_String_alloc@U?$_String_base_types@DV?$allocator@D@std@@@std@@@std@@QAE@ABV?$allocator@D@1@@Z
_TEXT	SEGMENT
__Al$ = 8						; size = 4
??$?0ABV?$allocator@D@std@@X@?$_String_alloc@U?$_String_base_types@DV?$allocator@D@std@@@std@@@std@@QAE@ABV?$allocator@D@1@@Z PROC ; std::_String_alloc<std::_String_base_types<char,std::allocator<char> > >::_String_alloc<std::_String_base_types<char,std::allocator<char> > ><std::allocator<char> const &,void>, COMDAT
; _this$ = ecx

; 595  : 		: _Mypair(_One_then_variadic_args_t(),

  00000	c7 41 10 00 00
	00 00		 mov	 DWORD PTR [ecx+16], 0

; 598  : 		}

  00007	8b c1		 mov	 eax, ecx
  00009	c7 41 14 00 00
	00 00		 mov	 DWORD PTR [ecx+20], 0
  00010	c2 04 00	 ret	 4
??$?0ABV?$allocator@D@std@@X@?$_String_alloc@U?$_String_base_types@DV?$allocator@D@std@@@std@@@std@@QAE@ABV?$allocator@D@1@@Z ENDP ; std::_String_alloc<std::_String_base_types<char,std::allocator<char> > >::_String_alloc<std::_String_base_types<char,std::allocator<char> > ><std::allocator<char> const &,void>
_TEXT	ENDS
; Function compile flags: /Ogtp
; File c:\program files (x86)\microsoft visual studio 14.0\vc\include\xmemory0
;	COMDAT ??$construct@PADAAPAD@?$_Wrap_alloc@V?$allocator@D@std@@@std@@QAEXPAPADAAPAD@Z
_TEXT	SEGMENT
__Ptr$ = 8						; size = 4
_<_Args_0>$ = 12					; size = 4
??$construct@PADAAPAD@?$_Wrap_alloc@V?$allocator@D@std@@@std@@QAEXPAPADAAPAD@Z PROC ; std::_Wrap_alloc<std::allocator<char> >::construct<char *,char * &>, COMDAT
; _this$ = ecx

; 994  : 		{	// construct _Ty(_Types...) at _Ptr

  00000	55		 push	 ebp
  00001	8b ec		 mov	 ebp, esp

; 995  : 		_Mytraits::construct(*this, _Ptr,

  00003	8b 4d 08	 mov	 ecx, DWORD PTR __Ptr$[ebp]
  00006	85 c9		 test	 ecx, ecx
  00008	74 07		 je	 SHORT $LN13@construct
  0000a	8b 45 0c	 mov	 eax, DWORD PTR _<_Args_0>$[ebp]
  0000d	8b 00		 mov	 eax, DWORD PTR [eax]
  0000f	89 01		 mov	 DWORD PTR [ecx], eax
$LN13@construct:

; 996  : 			_STD forward<_Types>(_Args)...);
; 997  : 		}

  00011	5d		 pop	 ebp
  00012	c2 08 00	 ret	 8
??$construct@PADAAPAD@?$_Wrap_alloc@V?$allocator@D@std@@@std@@QAEXPAPADAAPAD@Z ENDP ; std::_Wrap_alloc<std::allocator<char> >::construct<char *,char * &>
_TEXT	ENDS
; Function compile flags: /Ogtp
; File c:\program files (x86)\microsoft visual studio 14.0\vc\include\xstddef
;	COMDAT ??$_Unfancy@D@std@@YAPADPAD@Z
_TEXT	SEGMENT
__Ptr$ = 8						; size = 4
??$_Unfancy@D@std@@YAPADPAD@Z PROC			; std::_Unfancy<char>, COMDAT

; 739  : 	{	// do nothing for plain pointers

  00000	55		 push	 ebp
  00001	8b ec		 mov	 ebp, esp

; 740  : 	return (_Ptr);

  00003	8b 45 08	 mov	 eax, DWORD PTR __Ptr$[ebp]

; 741  : 	}

  00006	5d		 pop	 ebp
  00007	c3		 ret	 0
??$_Unfancy@D@std@@YAPADPAD@Z ENDP			; std::_Unfancy<char>
_TEXT	ENDS
; Function compile flags: /Ogtp
; File c:\program files (x86)\microsoft visual studio 14.0\vc\include\xmemory0
;	COMDAT ??$destroy@PAD@?$_Wrap_alloc@V?$allocator@D@std@@@std@@QAEXPAPAD@Z
_TEXT	SEGMENT
__Ptr$ = 8						; size = 4
??$destroy@PAD@?$_Wrap_alloc@V?$allocator@D@std@@@std@@QAEXPAPAD@Z PROC ; std::_Wrap_alloc<std::allocator<char> >::destroy<char *>, COMDAT
; _this$ = ecx

; 1003 : 		_Mytraits::destroy(*this, _Ptr);
; 1004 : 		}

  00000	c2 04 00	 ret	 4
??$destroy@PAD@?$_Wrap_alloc@V?$allocator@D@std@@@std@@QAEXPAPAD@Z ENDP ; std::_Wrap_alloc<std::allocator<char> >::destroy<char *>
_TEXT	ENDS
; Function compile flags: /Ogtp
; File c:\program files (x86)\microsoft visual studio 14.0\vc\include\xstddef
;	COMDAT ??$addressof@PAD@std@@YAPAPADAAPAD@Z
_TEXT	SEGMENT
__Val$ = 8						; size = 4
??$addressof@PAD@std@@YAPAPADAAPAD@Z PROC		; std::addressof<char *>, COMDAT

; 724  : 	{	// return address of _Val

  00000	55		 push	 ebp
  00001	8b ec		 mov	 ebp, esp

; 725  : 	return (__builtin_addressof(_Val));

  00003	8b 45 08	 mov	 eax, DWORD PTR __Val$[ebp]

; 726  : 	}

  00006	5d		 pop	 ebp
  00007	c3		 ret	 0
??$addressof@PAD@std@@YAPAPADAAPAD@Z ENDP		; std::addressof<char *>
_TEXT	ENDS
; Function compile flags: /Ogtp
; File c:\program files (x86)\microsoft visual studio 14.0\vc\include\xutility
;	COMDAT ??$?0$$V@?$_Compressed_pair@U?$_Wrap_alloc@V?$allocator@D@std@@@std@@V?$_String_val@U?$_Simple_types@D@std@@@2@$00@std@@QAE@U_Zero_then_variadic_args_t@1@@Z
_TEXT	SEGMENT
___formal$ = 8						; size = 1
??$?0$$V@?$_Compressed_pair@U?$_Wrap_alloc@V?$allocator@D@std@@@std@@V?$_String_val@U?$_Simple_types@D@std@@@2@$00@std@@QAE@U_Zero_then_variadic_args_t@1@@Z PROC ; std::_Compressed_pair<std::_Wrap_alloc<std::allocator<char> >,std::_String_val<std::_Simple_types<char> >,1>::_Compressed_pair<std::_Wrap_alloc<std::allocator<char> >,std::_String_val<std::_Simple_types<char> >,1><>, COMDAT
; _this$ = ecx

; 279  : 		: _Ty1(), _Myval2(_STD forward<_Other2>(_Val2)...)

  00000	c7 41 10 00 00
	00 00		 mov	 DWORD PTR [ecx+16], 0

; 281  : 		}

  00007	8b c1		 mov	 eax, ecx
  00009	c7 41 14 00 00
	00 00		 mov	 DWORD PTR [ecx+20], 0
  00010	c2 04 00	 ret	 4
??$?0$$V@?$_Compressed_pair@U?$_Wrap_alloc@V?$allocator@D@std@@@std@@V?$_String_val@U?$_Simple_types@D@std@@@2@$00@std@@QAE@U_Zero_then_variadic_args_t@1@@Z ENDP ; std::_Compressed_pair<std::_Wrap_alloc<std::allocator<char> >,std::_String_val<std::_Simple_types<char> >,1>::_Compressed_pair<std::_Wrap_alloc<std::allocator<char> >,std::_String_val<std::_Simple_types<char> >,1><>
_TEXT	ENDS
; Function compile flags: /Ogtp
; File c:\program files (x86)\microsoft visual studio 14.0\vc\include\xmemory0
;	COMDAT ??$_Pocma@U?$_Wrap_alloc@V?$allocator@D@std@@@std@@@std@@YAXAAU?$_Wrap_alloc@V?$allocator@D@std@@@0@0@Z
_TEXT	SEGMENT
__Left$ = 8						; size = 4
__Right$ = 12						; size = 4
??$_Pocma@U?$_Wrap_alloc@V?$allocator@D@std@@@std@@@std@@YAXAAU?$_Wrap_alloc@V?$allocator@D@std@@@0@0@Z PROC ; std::_Pocma<std::_Wrap_alloc<std::allocator<char> > >, COMDAT

; 1063 : 	typename _Alty::propagate_on_container_move_assignment _Tag;
; 1064 : 	_Pocma(_Left, _Right, _Tag);
; 1065 : 	}

  00000	c3		 ret	 0
??$_Pocma@U?$_Wrap_alloc@V?$allocator@D@std@@@std@@@std@@YAXAAU?$_Wrap_alloc@V?$allocator@D@std@@@0@0@Z ENDP ; std::_Pocma<std::_Wrap_alloc<std::allocator<char> > >
_TEXT	ENDS
; Function compile flags: /Ogtp
; File c:\program files (x86)\microsoft visual studio 14.0\vc\include\xstring
;	COMDAT ??$?0U?$_Wrap_alloc@V?$allocator@D@std@@@std@@X@?$_String_alloc@U?$_String_base_types@DV?$allocator@D@std@@@std@@@std@@QAE@$$QAU?$_Wrap_alloc@V?$allocator@D@std@@@1@@Z
_TEXT	SEGMENT
__Al$ = 8						; size = 4
??$?0U?$_Wrap_alloc@V?$allocator@D@std@@@std@@X@?$_String_alloc@U?$_String_base_types@DV?$allocator@D@std@@@std@@@std@@QAE@$$QAU?$_Wrap_alloc@V?$allocator@D@std@@@1@@Z PROC ; std::_String_alloc<std::_String_base_types<char,std::allocator<char> > >::_String_alloc<std::_String_base_types<char,std::allocator<char> > ><std::_Wrap_alloc<std::allocator<char> >,void>, COMDAT
; _this$ = ecx

; 595  : 		: _Mypair(_One_then_variadic_args_t(),

  00000	c7 41 10 00 00
	00 00		 mov	 DWORD PTR [ecx+16], 0

; 598  : 		}

  00007	8b c1		 mov	 eax, ecx
  00009	c7 41 14 00 00
	00 00		 mov	 DWORD PTR [ecx+20], 0
  00010	c2 04 00	 ret	 4
??$?0U?$_Wrap_alloc@V?$allocator@D@std@@@std@@X@?$_String_alloc@U?$_String_base_types@DV?$allocator@D@std@@@std@@@std@@QAE@$$QAU?$_Wrap_alloc@V?$allocator@D@std@@@1@@Z ENDP ; std::_String_alloc<std::_String_base_types<char,std::allocator<char> > >::_String_alloc<std::_String_base_types<char,std::allocator<char> > ><std::_Wrap_alloc<std::allocator<char> >,void>
_TEXT	ENDS
; Function compile flags: /Ogtp
; File c:\program files (x86)\microsoft visual studio 14.0\vc\include\type_traits
;	COMDAT ??$move@AAU?$_Wrap_alloc@V?$allocator@D@std@@@std@@@std@@YA$$QAU?$_Wrap_alloc@V?$allocator@D@std@@@0@AAU10@@Z
_TEXT	SEGMENT
__Arg$ = 8						; size = 4
??$move@AAU?$_Wrap_alloc@V?$allocator@D@std@@@std@@@std@@YA$$QAU?$_Wrap_alloc@V?$allocator@D@std@@@0@AAU10@@Z PROC ; std::move<std::_Wrap_alloc<std::allocator<char> > &>, COMDAT

; 1291 : 	{	// forward _Arg as movable

  00000	55		 push	 ebp
  00001	8b ec		 mov	 ebp, esp

; 1292 : 	return (static_cast<typename remove_reference<_Ty>::type&&>(_Arg));

  00003	8b 45 08	 mov	 eax, DWORD PTR __Arg$[ebp]

; 1293 : 	}

  00006	5d		 pop	 ebp
  00007	c3		 ret	 0
??$move@AAU?$_Wrap_alloc@V?$allocator@D@std@@@std@@@std@@YA$$QAU?$_Wrap_alloc@V?$allocator@D@std@@@0@AAU10@@Z ENDP ; std::move<std::_Wrap_alloc<std::allocator<char> > &>
_TEXT	ENDS
; Function compile flags: /Ogtp
; File c:\program files (x86)\microsoft visual studio 14.0\vc\include\type_traits
;	COMDAT ??$forward@V?$basic_string@DU?$char_traits@D@std@@V?$allocator@D@2@@std@@@std@@YA$$QAV?$basic_string@DU?$char_traits@D@std@@V?$allocator@D@2@@0@AAV10@@Z
_TEXT	SEGMENT
__Arg$ = 8						; size = 4
??$forward@V?$basic_string@DU?$char_traits@D@std@@V?$allocator@D@2@@std@@@std@@YA$$QAV?$basic_string@DU?$char_traits@D@std@@V?$allocator@D@2@@0@AAV10@@Z PROC ; std::forward<std::basic_string<char,std::char_traits<char>,std::allocator<char> > >, COMDAT

; 1275 : 	{	// forward an lvalue as either an lvalue or an rvalue

  00000	55		 push	 ebp
  00001	8b ec		 mov	 ebp, esp

; 1276 : 	return (static_cast<_Ty&&>(_Arg));

  00003	8b 45 08	 mov	 eax, DWORD PTR __Arg$[ebp]

; 1277 : 	}

  00006	5d		 pop	 ebp
  00007	c3		 ret	 0
??$forward@V?$basic_string@DU?$char_traits@D@std@@V?$allocator@D@2@@std@@@std@@YA$$QAV?$basic_string@DU?$char_traits@D@std@@V?$allocator@D@2@@0@AAV10@@Z ENDP ; std::forward<std::basic_string<char,std::char_traits<char>,std::allocator<char> > >
_TEXT	ENDS
; Function compile flags: /Ogtp
; File c:\program files (x86)\microsoft visual studio 14.0\vc\include\xstring
;	COMDAT ??$assign@V?$_String_iterator@V?$_String_val@U?$_Simple_types@D@std@@@std@@@std@@@?$basic_string@DU?$char_traits@D@std@@V?$allocator@D@2@@std@@QAEAAV01@V?$_String_iterator@V?$_String_val@U?$_Simple_types@D@std@@@std@@@1@0@Z
_TEXT	SEGMENT
__First$ = 8						; size = 4
__Last$ = 12						; size = 4
??$assign@V?$_String_iterator@V?$_String_val@U?$_Simple_types@D@std@@@std@@@std@@@?$basic_string@DU?$char_traits@D@std@@V?$allocator@D@2@@std@@QAEAAV01@V?$_String_iterator@V?$_String_val@U?$_Simple_types@D@std@@@std@@@1@0@Z PROC ; std::basic_string<char,std::char_traits<char>,std::allocator<char> >::assign<std::_String_iterator<std::_String_val<std::_Simple_types<char> > > >, COMDAT
; _this$ = ecx

; 1202 : 		{	// assign [_First, _Last), input iterators

  00000	55		 push	 ebp
  00001	8b ec		 mov	 ebp, esp

; 1203 : 		return (replace(begin(), end(), _First, _Last));

  00003	83 79 14 10	 cmp	 DWORD PTR [ecx+20], 16	; 00000010H
  00007	72 04		 jb	 SHORT $LN14@assign
  00009	8b 11		 mov	 edx, DWORD PTR [ecx]
  0000b	eb 02		 jmp	 SHORT $LN15@assign
$LN14@assign:
  0000d	8b d1		 mov	 edx, ecx
$LN15@assign:
  0000f	8b 41 10	 mov	 eax, DWORD PTR [ecx+16]
  00012	03 c2		 add	 eax, edx
  00014	83 79 14 10	 cmp	 DWORD PTR [ecx+20], 16	; 00000010H
  00018	72 13		 jb	 SHORT $LN48@assign
  0001a	ff 75 0c	 push	 DWORD PTR __Last$[ebp]
  0001d	8b 11		 mov	 edx, DWORD PTR [ecx]
  0001f	ff 75 08	 push	 DWORD PTR __First$[ebp]
  00022	50		 push	 eax
  00023	52		 push	 edx
  00024	e8 00 00 00 00	 call	 ?replace@?$basic_string@DU?$char_traits@D@std@@V?$allocator@D@2@@std@@QAEAAV12@V?$_String_const_iterator@V?$_String_val@U?$_Simple_types@D@std@@@std@@@2@0V?$_String_iterator@V?$_String_val@U?$_Simple_types@D@std@@@std@@@2@1@Z ; std::basic_string<char,std::char_traits<char>,std::allocator<char> >::replace

; 1204 : 		}

  00029	5d		 pop	 ebp
  0002a	c2 08 00	 ret	 8

; 1203 : 		return (replace(begin(), end(), _First, _Last));

$LN48@assign:
  0002d	ff 75 0c	 push	 DWORD PTR __Last$[ebp]
  00030	8b d1		 mov	 edx, ecx
  00032	ff 75 08	 push	 DWORD PTR __First$[ebp]
  00035	50		 push	 eax
  00036	52		 push	 edx
  00037	e8 00 00 00 00	 call	 ?replace@?$basic_string@DU?$char_traits@D@std@@V?$allocator@D@2@@std@@QAEAAV12@V?$_String_const_iterator@V?$_String_val@U?$_Simple_types@D@std@@@std@@@2@0V?$_String_iterator@V?$_String_val@U?$_Simple_types@D@std@@@std@@@2@1@Z ; std::basic_string<char,std::char_traits<char>,std::allocator<char> >::replace

; 1204 : 		}

  0003c	5d		 pop	 ebp
  0003d	c2 08 00	 ret	 8
??$assign@V?$_String_iterator@V?$_String_val@U?$_Simple_types@D@std@@@std@@@std@@@?$basic_string@DU?$char_traits@D@std@@V?$allocator@D@2@@std@@QAEAAV01@V?$_String_iterator@V?$_String_val@U?$_Simple_types@D@std@@@std@@@1@0@Z ENDP ; std::basic_string<char,std::char_traits<char>,std::allocator<char> >::assign<std::_String_iterator<std::_String_val<std::_Simple_types<char> > > >
_TEXT	ENDS
; Function compile flags: /Ogtp
; File c:\program files (x86)\microsoft visual studio 14.0\vc\include\xstring
;	COMDAT ??G?$_String_iterator@V?$_String_val@U?$_Simple_types@D@std@@@std@@@std@@QBEHABV?$_String_const_iterator@V?$_String_val@U?$_Simple_types@D@std@@@std@@@1@@Z
_TEXT	SEGMENT
__Right$ = 8						; size = 4
??G?$_String_iterator@V?$_String_val@U?$_Simple_types@D@std@@@std@@@std@@QBEHABV?$_String_const_iterator@V?$_String_val@U?$_Simple_types@D@std@@@std@@@1@@Z PROC ; std::_String_iterator<std::_String_val<std::_Simple_types<char> > >::operator-, COMDAT
; _this$ = ecx

; 398  : 		{	// return difference of iterators

  00000	55		 push	 ebp
  00001	8b ec		 mov	 ebp, esp

; 399  : 		return (*(_Mybase *)this - _Right);

  00003	8b 01		 mov	 eax, DWORD PTR [ecx]
  00005	8b 4d 08	 mov	 ecx, DWORD PTR __Right$[ebp]
  00008	2b 01		 sub	 eax, DWORD PTR [ecx]

; 400  : 		}

  0000a	5d		 pop	 ebp
  0000b	c2 04 00	 ret	 4
??G?$_String_iterator@V?$_String_val@U?$_Simple_types@D@std@@@std@@@std@@QBEHABV?$_String_const_iterator@V?$_String_val@U?$_Simple_types@D@std@@@std@@@1@@Z ENDP ; std::_String_iterator<std::_String_val<std::_Simple_types<char> > >::operator-
_TEXT	ENDS
; Function compile flags: /Ogtp
; File c:\program files (x86)\microsoft visual studio 14.0\vc\include\xstring
;	COMDAT ??D?$_String_iterator@V?$_String_val@U?$_Simple_types@D@std@@@std@@@std@@QBEAADXZ
_TEXT	SEGMENT
??D?$_String_iterator@V?$_String_val@U?$_Simple_types@D@std@@@std@@@std@@QBEAADXZ PROC ; std::_String_iterator<std::_String_val<std::_Simple_types<char> > >::operator*, COMDAT
; _this$ = ecx

; 340  : 		return ((reference)**(_Mybase *)this);

  00000	8b 01		 mov	 eax, DWORD PTR [ecx]

; 341  : 		}

  00002	c3		 ret	 0
??D?$_String_iterator@V?$_String_val@U?$_Simple_types@D@std@@@std@@@std@@QBEAADXZ ENDP ; std::_String_iterator<std::_String_val<std::_Simple_types<char> > >::operator*
_TEXT	ENDS
; Function compile flags: /Ogtp
; File c:\program files (x86)\microsoft visual studio 14.0\vc\include\xstring
;	COMDAT ??0?$_String_iterator@V?$_String_val@U?$_Simple_types@D@std@@@std@@@std@@QAE@PADPBU_Container_base0@1@@Z
_TEXT	SEGMENT
__Parg$ = 8						; size = 4
__Pstring$ = 12						; size = 4
??0?$_String_iterator@V?$_String_val@U?$_Simple_types@D@std@@@std@@@std@@QAE@PADPBU_Container_base0@1@@Z PROC ; std::_String_iterator<std::_String_val<std::_Simple_types<char> > >::_String_iterator<std::_String_val<std::_Simple_types<char> > >, COMDAT
; _this$ = ecx

; 322  : 		{	// construct with pointer _Parg

  00000	55		 push	 ebp
  00001	8b ec		 mov	 ebp, esp

; 321  : 		: _Mybase(_Parg, _Pstring)

  00003	8b 45 08	 mov	 eax, DWORD PTR __Parg$[ebp]
  00006	89 01		 mov	 DWORD PTR [ecx], eax

; 323  : 		}

  00008	8b c1		 mov	 eax, ecx
  0000a	5d		 pop	 ebp
  0000b	c2 08 00	 ret	 8
??0?$_String_iterator@V?$_String_val@U?$_Simple_types@D@std@@@std@@@std@@QAE@PADPBU_Container_base0@1@@Z ENDP ; std::_String_iterator<std::_String_val<std::_Simple_types<char> > >::_String_iterator<std::_String_val<std::_Simple_types<char> > >
_TEXT	ENDS
; Function compile flags: /Ogtp
; File c:\program files (x86)\microsoft visual studio 14.0\vc\include\xmemory0
;	COMDAT ??$?9V?$allocator@D@std@@V01@@std@@YA_NABU?$_Wrap_alloc@V?$allocator@D@std@@@0@0@Z
_TEXT	SEGMENT
__Left$ = 8						; size = 4
__Right$ = 12						; size = 4
??$?9V?$allocator@D@std@@V01@@std@@YA_NABU?$_Wrap_alloc@V?$allocator@D@std@@@0@0@Z PROC ; std::operator!=<std::allocator<char>,std::allocator<char> >, COMDAT

; 1026 : 	return (!(_Left == _Right));

  00000	32 c0		 xor	 al, al

; 1027 : 	}

  00002	c3		 ret	 0
??$?9V?$allocator@D@std@@V01@@std@@YA_NABU?$_Wrap_alloc@V?$allocator@D@std@@@0@0@Z ENDP ; std::operator!=<std::allocator<char>,std::allocator<char> >
_TEXT	ENDS
; Function compile flags: /Ogtp
; File c:\users\alexis\desktop\sources_gostcrypt_windows_1.3.1_commented\sources_gostcrypt_windows_1.3.1é\sources_gostcrypt_windows_1.3.1\setup\setup.c
;	COMDAT ?UninstallDlgProc@@YGHPAUHWND__@@IIJ@Z
_TEXT	SEGMENT
_hwndDlg$ = 8						; size = 4
_msg$ = 12						; size = 4
_wParam$ = 16						; size = 4
_lParam$ = 20						; size = 4
?UninstallDlgProc@@YGHPAUHWND__@@IIJ@Z PROC		; UninstallDlgProc, COMDAT

; 2195 : {

  00000	55		 push	 ebp
  00001	8b ec		 mov	 ebp, esp

; 2196 : 	WORD lw = LOWORD (wParam);
; 2197 : 
; 2198 : 	switch (msg)

  00003	8b 45 0c	 mov	 eax, DWORD PTR _msg$[ebp]
  00006	3d 11 01 00 00	 cmp	 eax, 273		; 00000111H
  0000b	0f 87 ac 01 00
	00		 ja	 $LN20@UninstallD
  00011	0f 84 ee 00 00
	00		 je	 $LN9@UninstallD
  00017	83 f8 10	 cmp	 eax, 16			; 00000010H
  0001a	0f 84 a8 00 00
	00		 je	 $LN16@UninstallD
  00020	3d 10 01 00 00	 cmp	 eax, 272		; 00000110H
  00025	0f 85 00 02 00
	00		 jne	 $LN8@UninstallD

; 2199 : 	{
; 2200 : 	case WM_INITDIALOG:
; 2201 : 
; 2202 : 		MainDlg = hwndDlg;

  0002b	56		 push	 esi
  0002c	8b 75 08	 mov	 esi, DWORD PTR _hwndDlg$[ebp]
  0002f	89 35 00 00 00
	00		 mov	 DWORD PTR _MainDlg, esi

; 2203 : 
; 2204 : 		if (!CreateAppSetupMutex ())

  00035	e8 00 00 00 00	 call	 _CreateAppSetupMutex
  0003a	85 c0		 test	 eax, eax
  0003c	75 0d		 jne	 SHORT $LN5@UninstallD

; 2205 : 			AbortProcess ("GST_INSTALLER_IS_RUNNING");

  0003e	68 00 00 00 00	 push	 OFFSET ??_C@_0BJ@CCHDLBFE@GST_INSTALLER_IS_RUNNING?$AA@
  00043	e8 00 00 00 00	 call	 _AbortProcess
  00048	83 c4 04	 add	 esp, 4
$LN5@UninstallD:

; 2206 : 
; 2207 : 		InitDialog (hwndDlg);

  0004b	56		 push	 esi
  0004c	e8 00 00 00 00	 call	 _InitDialog

; 2208 : 		LocalizeDialog (hwndDlg, NULL);

  00051	6a 00		 push	 0
  00053	56		 push	 esi
  00054	e8 00 00 00 00	 call	 _LocalizeDialog
  00059	83 c4 0c	 add	 esp, 12			; 0000000cH

; 2209 : 
; 2210 : 		SetWindowTextW (hwndDlg, lpszTitle);

  0005c	ff 35 00 00 00
	00		 push	 DWORD PTR _lpszTitle
  00062	56		 push	 esi
  00063	ff 15 00 00 00
	00		 call	 DWORD PTR __imp__SetWindowTextW@8

; 2211 : 
; 2212 : 		// System Restore
; 2213 : 		SetCheckBox (hwndDlg, IDC_SYSTEM_RESTORE, bSystemRestore);

  00069	ff 35 00 00 00
	00		 push	 DWORD PTR _bSystemRestore
  0006f	68 f3 03 00 00	 push	 1011			; 000003f3H
  00074	56		 push	 esi
  00075	e8 00 00 00 00	 call	 _SetCheckBox
  0007a	83 c4 0c	 add	 esp, 12			; 0000000cH

; 2214 : 		if (SystemRestoreDll == 0)

  0007d	83 3d 00 00 00
	00 00		 cmp	 DWORD PTR _SystemRestoreDll, 0
  00084	75 25		 jne	 SHORT $LN6@UninstallD

; 2215 : 		{
; 2216 : 			SetCheckBox (hwndDlg, IDC_SYSTEM_RESTORE, FALSE);

  00086	6a 00		 push	 0
  00088	68 f3 03 00 00	 push	 1011			; 000003f3H
  0008d	56		 push	 esi
  0008e	e8 00 00 00 00	 call	 _SetCheckBox
  00093	83 c4 0c	 add	 esp, 12			; 0000000cH

; 2217 : 			EnableWindow (GetDlgItem (hwndDlg, IDC_SYSTEM_RESTORE), FALSE);

  00096	6a 00		 push	 0
  00098	68 f3 03 00 00	 push	 1011			; 000003f3H
  0009d	56		 push	 esi
  0009e	ff 15 00 00 00
	00		 call	 DWORD PTR __imp__GetDlgItem@8
  000a4	50		 push	 eax
  000a5	ff 15 00 00 00
	00		 call	 DWORD PTR __imp__EnableWindow@8
$LN6@UninstallD:

; 2218 : 		}
; 2219 : 
; 2220 : 		SetFocus (GetDlgItem (hwndDlg, IDC_UNINSTALL));

  000ab	68 f7 03 00 00	 push	 1015			; 000003f7H
  000b0	56		 push	 esi
  000b1	ff 15 00 00 00
	00		 call	 DWORD PTR __imp__GetDlgItem@8
  000b7	50		 push	 eax
  000b8	ff 15 00 00 00
	00		 call	 DWORD PTR __imp__SetFocus@4

; 2221 : 
; 2222 : 		return 1;

  000be	b8 01 00 00 00	 mov	 eax, 1
  000c3	5e		 pop	 esi

; 2283 : 	}
; 2284 : 
; 2285 : 	return 0;
; 2286 : }

  000c4	5d		 pop	 ebp
  000c5	c2 10 00	 ret	 16			; 00000010H
$LN16@UninstallD:

; 2270 : 
; 2271 : 	case WM_CLOSE:
; 2272 : 		if (bUninstallInProgress)

  000c8	83 3d 00 00 00
	00 00		 cmp	 DWORD PTR ?bUninstallInProgress@@3HA, 0 ; bUninstallInProgress
  000cf	74 20		 je	 SHORT $LN17@UninstallD

; 2273 : 		{
; 2274 : 			NormalCursor();

  000d1	e8 00 00 00 00	 call	 _NormalCursor

; 2275 : 			if (AskNoYes("CONFIRM_EXIT_UNIVERSAL") == IDNO)

  000d6	68 00 00 00 00	 push	 OFFSET ??_C@_0BH@KAHGPAJO@CONFIRM_EXIT_UNIVERSAL?$AA@
  000db	e8 00 00 00 00	 call	 _AskNoYes
  000e0	83 c4 04	 add	 esp, 4
  000e3	83 f8 07	 cmp	 eax, 7
  000e6	0f 84 36 01 00
	00		 je	 $LN21@UninstallD

; 2276 : 			{
; 2277 : 				return 1;
; 2278 : 			}
; 2279 : 			WaitCursor ();

  000ec	e8 00 00 00 00	 call	 _WaitCursor
$LN17@UninstallD:

; 2280 : 		}
; 2281 : 		EndDialog (hwndDlg, IDCANCEL);

  000f1	6a 02		 push	 2
  000f3	ff 75 08	 push	 DWORD PTR _hwndDlg$[ebp]
  000f6	ff 15 00 00 00
	00		 call	 DWORD PTR __imp__EndDialog@8

; 2282 : 		return 1;

  000fc	b8 01 00 00 00	 mov	 eax, 1

; 2283 : 	}
; 2284 : 
; 2285 : 	return 0;
; 2286 : }

  00101	5d		 pop	 ebp
  00102	c2 10 00	 ret	 16			; 00000010H
$LN9@UninstallD:

; 2231 : 
; 2232 : 	case WM_COMMAND:
; 2233 : 		if (lw == IDC_UNINSTALL)

  00105	8b 45 10	 mov	 eax, DWORD PTR _wParam$[ebp]
  00108	b9 f7 03 00 00	 mov	 ecx, 1015		; 000003f7H
  0010d	66 3b c1	 cmp	 ax, cx
  00110	75 5e		 jne	 SHORT $LN10@UninstallD

; 2234 : 		{
; 2235 : 			if (bDone)

  00112	83 3d 00 00 00
	00 00		 cmp	 DWORD PTR ?bDone@@3HA, 0 ; bDone
  00119	74 22		 je	 SHORT $LN11@UninstallD

; 2236 : 			{
; 2237 : 				bUninstallInProgress = FALSE;
; 2238 : 				PostMessage (hwndDlg, WM_CLOSE, 0, 0);

  0011b	6a 00		 push	 0
  0011d	6a 00		 push	 0
  0011f	6a 10		 push	 16			; 00000010H
  00121	ff 75 08	 push	 DWORD PTR _hwndDlg$[ebp]
  00124	c7 05 00 00 00
	00 00 00 00 00	 mov	 DWORD PTR ?bUninstallInProgress@@3HA, 0 ; bUninstallInProgress
  0012e	ff 15 00 00 00
	00		 call	 DWORD PTR __imp__PostMessageA@16

; 2239 : 				return 1;

  00134	b8 01 00 00 00	 mov	 eax, 1

; 2283 : 	}
; 2284 : 
; 2285 : 	return 0;
; 2286 : }

  00139	5d		 pop	 ebp
  0013a	c2 10 00	 ret	 16			; 00000010H
$LN11@UninstallD:

; 2240 : 			}
; 2241 : 
; 2242 : 			bUninstallInProgress = TRUE;

  0013d	c7 05 00 00 00
	00 01 00 00 00	 mov	 DWORD PTR ?bUninstallInProgress@@3HA, 1 ; bUninstallInProgress

; 2243 : 
; 2244 : 			WaitCursor ();

  00147	e8 00 00 00 00	 call	 _WaitCursor

; 2245 : 
; 2246 : 			if (bUninstall)

  0014c	83 3d 00 00 00
	00 00		 cmp	 DWORD PTR ?bUninstall@@3HA, 0 ; bUninstall
  00153	74 12		 je	 SHORT $LN12@UninstallD

; 2247 : 				_beginthread (DoUninstall, 0, (void *) hwndDlg);

  00155	ff 75 08	 push	 DWORD PTR _hwndDlg$[ebp]
  00158	6a 00		 push	 0
  0015a	68 00 00 00 00	 push	 OFFSET _DoUninstall
  0015f	e8 00 00 00 00	 call	 __beginthread
  00164	83 c4 0c	 add	 esp, 12			; 0000000cH
$LN12@UninstallD:

; 2248 : 
; 2249 : 			return 1;

  00167	b8 01 00 00 00	 mov	 eax, 1

; 2283 : 	}
; 2284 : 
; 2285 : 	return 0;
; 2286 : }

  0016c	5d		 pop	 ebp
  0016d	c2 10 00	 ret	 16			; 00000010H
$LN10@UninstallD:

; 2250 : 		}
; 2251 : 
; 2252 : 		if (lw == IDC_SYSTEM_RESTORE)

  00170	b9 f3 03 00 00	 mov	 ecx, 1011		; 000003f3H
  00175	66 3b c1	 cmp	 ax, cx
  00178	75 21		 jne	 SHORT $LN13@UninstallD

; 2253 : 		{
; 2254 : 			bSystemRestore = IsButtonChecked (GetDlgItem (hwndDlg, IDC_SYSTEM_RESTORE));

  0017a	51		 push	 ecx
  0017b	ff 75 08	 push	 DWORD PTR _hwndDlg$[ebp]
  0017e	ff 15 00 00 00
	00		 call	 DWORD PTR __imp__GetDlgItem@8
  00184	50		 push	 eax
  00185	e8 00 00 00 00	 call	 _IsButtonChecked
  0018a	a3 00 00 00 00	 mov	 DWORD PTR _bSystemRestore, eax
  0018f	83 c4 04	 add	 esp, 4

; 2255 : 			return 1;

  00192	b8 01 00 00 00	 mov	 eax, 1

; 2283 : 	}
; 2284 : 
; 2285 : 	return 0;
; 2286 : }

  00197	5d		 pop	 ebp
  00198	c2 10 00	 ret	 16			; 00000010H
$LN13@UninstallD:

; 2256 : 		}
; 2257 : 
; 2258 : 		if (lw == IDCANCEL)

  0019b	66 83 f8 02	 cmp	 ax, 2
  0019f	0f 85 86 00 00
	00		 jne	 $LN8@UninstallD

; 2259 : 		{
; 2260 : 			PostMessage (hwndDlg, WM_CLOSE, 0, 0);

  001a5	6a 00		 push	 0
  001a7	6a 00		 push	 0
  001a9	6a 10		 push	 16			; 00000010H
  001ab	ff 75 08	 push	 DWORD PTR _hwndDlg$[ebp]
  001ae	ff 15 00 00 00
	00		 call	 DWORD PTR __imp__PostMessageA@16
  001b4	b8 01 00 00 00	 mov	 eax, 1

; 2283 : 	}
; 2284 : 
; 2285 : 	return 0;
; 2286 : }

  001b9	5d		 pop	 ebp
  001ba	c2 10 00	 ret	 16			; 00000010H
$LN20@UninstallD:

; 2196 : 	WORD lw = LOWORD (wParam);
; 2197 : 
; 2198 : 	switch (msg)

  001bd	3d 12 01 00 00	 cmp	 eax, 274		; 00000112H
  001c2	74 38		 je	 SHORT $LN7@UninstallD
  001c4	3d 92 81 00 00	 cmp	 eax, 33170		; 00008192H
  001c9	75 60		 jne	 SHORT $LN8@UninstallD

; 2261 : 			return 1;
; 2262 : 		}
; 2263 : 
; 2264 : 		return 0;
; 2265 : 
; 2266 : 	case GST_APPMSG_UNINSTALL_SUCCESS:
; 2267 : 		SetWindowTextW (GetDlgItem ((HWND) hwndDlg, IDC_UNINSTALL), GetString ("FINALIZE"));

  001cb	68 00 00 00 00	 push	 OFFSET ??_C@_08MFKGCNCO@FINALIZE?$AA@
  001d0	e8 00 00 00 00	 call	 _GetString
  001d5	83 c4 04	 add	 esp, 4
  001d8	50		 push	 eax
  001d9	68 f7 03 00 00	 push	 1015			; 000003f7H
  001de	ff 75 08	 push	 DWORD PTR _hwndDlg$[ebp]
  001e1	ff 15 00 00 00
	00		 call	 DWORD PTR __imp__GetDlgItem@8
  001e7	50		 push	 eax
  001e8	ff 15 00 00 00
	00		 call	 DWORD PTR __imp__SetWindowTextW@8

; 2268 : 		NormalCursor ();

  001ee	e8 00 00 00 00	 call	 _NormalCursor

; 2269 : 		return 1;

  001f3	b8 01 00 00 00	 mov	 eax, 1

; 2283 : 	}
; 2284 : 
; 2285 : 	return 0;
; 2286 : }

  001f8	5d		 pop	 ebp
  001f9	c2 10 00	 ret	 16			; 00000010H
$LN7@UninstallD:

; 2223 : 
; 2224 : 	case WM_SYSCOMMAND:
; 2225 : 		if (lw == IDC_ABOUT)

  001fc	b8 ff 7f 00 00	 mov	 eax, 32767		; 00007fffH
  00201	66 39 45 10	 cmp	 WORD PTR _wParam$[ebp], ax
  00205	75 24		 jne	 SHORT $LN8@UninstallD

; 2226 : 		{
; 2227 : 			DialogBoxW (hInst, MAKEINTRESOURCEW (IDD_ABOUT_DLG), hwndDlg, (DLGPROC) AboutDlgProc);

  00207	6a 00		 push	 0
  00209	68 00 00 00 00	 push	 OFFSET _AboutDlgProc@16
  0020e	ff 75 08	 push	 DWORD PTR _hwndDlg$[ebp]
  00211	68 fc 01 00 00	 push	 508			; 000001fcH
  00216	ff 35 00 00 00
	00		 push	 DWORD PTR _hInst
  0021c	ff 15 00 00 00
	00		 call	 DWORD PTR __imp__DialogBoxParamW@20
$LN21@UninstallD:

; 2228 : 			return 1;

  00222	b8 01 00 00 00	 mov	 eax, 1

; 2283 : 	}
; 2284 : 
; 2285 : 	return 0;
; 2286 : }

  00227	5d		 pop	 ebp
  00228	c2 10 00	 ret	 16			; 00000010H
$LN8@UninstallD:

; 2229 : 		}
; 2230 : 		return 0;

  0022b	33 c0		 xor	 eax, eax

; 2283 : 	}
; 2284 : 
; 2285 : 	return 0;
; 2286 : }

  0022d	5d		 pop	 ebp
  0022e	c2 10 00	 ret	 16			; 00000010H
?UninstallDlgProc@@YGHPAUHWND__@@IIJ@Z ENDP		; UninstallDlgProc
_TEXT	ENDS
; Function compile flags: /Ogtp
; File c:\program files (x86)\microsoft visual studio 14.0\vc\include\xstring
;	COMDAT ?_Compat@?$_String_const_iterator@V?$_String_val@U?$_Simple_types@D@std@@@std@@@std@@QBEXABV12@@Z
_TEXT	SEGMENT
___formal$ = 8						; size = 4
?_Compat@?$_String_const_iterator@V?$_String_val@U?$_Simple_types@D@std@@@std@@@std@@QBEXABV12@@Z PROC ; std::_String_const_iterator<std::_String_val<std::_Simple_types<char> > >::_Compat, COMDAT
; _this$ = ecx

; 270  : 		}

  00000	c2 04 00	 ret	 4
?_Compat@?$_String_const_iterator@V?$_String_val@U?$_Simple_types@D@std@@@std@@@std@@QBEXABV12@@Z ENDP ; std::_String_const_iterator<std::_String_val<std::_Simple_types<char> > >::_Compat
_TEXT	ENDS
; Function compile flags: /Ogtp
; File c:\program files (x86)\microsoft visual studio 14.0\vc\include\xstring
;	COMDAT ??8?$_String_const_iterator@V?$_String_val@U?$_Simple_types@D@std@@@std@@@std@@QBE_NABV01@@Z
_TEXT	SEGMENT
__Right$ = 8						; size = 4
??8?$_String_const_iterator@V?$_String_val@U?$_Simple_types@D@std@@@std@@@std@@QBE_NABV01@@Z PROC ; std::_String_const_iterator<std::_String_val<std::_Simple_types<char> > >::operator==, COMDAT
; _this$ = ecx

; 220  : 		{	// test for iterator equality

  00000	55		 push	 ebp
  00001	8b ec		 mov	 ebp, esp
  00003	8b 45 08	 mov	 eax, DWORD PTR __Right$[ebp]
  00006	8b 09		 mov	 ecx, DWORD PTR [ecx]
  00008	3b 08		 cmp	 ecx, DWORD PTR [eax]
  0000a	0f 94 c0	 sete	 al

; 221  : 		_Compat(_Right);
; 222  : 		return (_Ptr == _Right._Ptr);
; 223  : 		}

  0000d	5d		 pop	 ebp
  0000e	c2 04 00	 ret	 4
??8?$_String_const_iterator@V?$_String_val@U?$_Simple_types@D@std@@@std@@@std@@QBE_NABV01@@Z ENDP ; std::_String_const_iterator<std::_String_val<std::_Simple_types<char> > >::operator==
_TEXT	ENDS
; Function compile flags: /Ogtp
; File c:\program files (x86)\microsoft visual studio 14.0\vc\include\xstring
;	COMDAT ??G?$_String_const_iterator@V?$_String_val@U?$_Simple_types@D@std@@@std@@@std@@QBEHABV01@@Z
_TEXT	SEGMENT
__Right$ = 8						; size = 4
??G?$_String_const_iterator@V?$_String_val@U?$_Simple_types@D@std@@@std@@@std@@QBEHABV01@@Z PROC ; std::_String_const_iterator<std::_String_val<std::_Simple_types<char> > >::operator-, COMDAT
; _this$ = ecx

; 209  : 		{	// return difference of iterators

  00000	55		 push	 ebp
  00001	8b ec		 mov	 ebp, esp

; 210  : 		_Compat(_Right);
; 211  : 		return (_Ptr - _Right._Ptr);

  00003	8b 01		 mov	 eax, DWORD PTR [ecx]
  00005	8b 4d 08	 mov	 ecx, DWORD PTR __Right$[ebp]
  00008	2b 01		 sub	 eax, DWORD PTR [ecx]

; 212  : 		}

  0000a	5d		 pop	 ebp
  0000b	c2 04 00	 ret	 4
??G?$_String_const_iterator@V?$_String_val@U?$_Simple_types@D@std@@@std@@@std@@QBEHABV01@@Z ENDP ; std::_String_const_iterator<std::_String_val<std::_Simple_types<char> > >::operator-
_TEXT	ENDS
; Function compile flags: /Ogtp
; File c:\program files (x86)\microsoft visual studio 14.0\vc\include\xstring
;	COMDAT ??D?$_String_const_iterator@V?$_String_val@U?$_Simple_types@D@std@@@std@@@std@@QBEABDXZ
_TEXT	SEGMENT
??D?$_String_const_iterator@V?$_String_val@U?$_Simple_types@D@std@@@std@@@std@@QBEABDXZ PROC ; std::_String_const_iterator<std::_String_val<std::_Simple_types<char> > >::operator*, COMDAT
; _this$ = ecx

; 68   :  #if _ITERATOR_DEBUG_LEVEL == 2
; 69   : 		const auto _Mycont = static_cast<const _Mystr *>(this->_Getcont());
; 70   : 		const auto _Contptr = _Mycont ? _Mycont->_Myptr() : 0;
; 71   : 		if (_Mycont == 0
; 72   : 			|| _Ptr == nullptr_t{}
; 73   : 			|| _Unfancy(_Ptr) < _Contptr
; 74   : 			|| _Contptr + _Mycont->_Mysize <= _Unfancy(_Ptr))
; 75   : 			{	// report error
; 76   : 			_DEBUG_ERROR("string iterator not dereferencable");
; 77   : 			_SCL_SECURE_OUT_OF_RANGE;
; 78   : 			}
; 79   : 
; 80   :  #elif _ITERATOR_DEBUG_LEVEL == 1
; 81   : 		_SCL_SECURE_VALIDATE(_Ptr != nullptr_t{});
; 82   : 		const auto _Mycont = static_cast<const _Mystr *>(this->_Getcont());
; 83   : 		_SCL_SECURE_VALIDATE(_Mycont != 0);
; 84   : 		const auto _Contptr = _Mycont->_Myptr();
; 85   : 		_SCL_SECURE_VALIDATE_RANGE(_Contptr <= _Unfancy(_Ptr) && _Unfancy(_Ptr) < _Contptr + _Mycont->_Mysize);
; 86   :  #endif /* _ITERATOR_DEBUG_LEVEL */
; 87   : 
; 88   : 		_Analysis_assume_(_Ptr != nullptr_t{});
; 89   : 
; 90   : 		return (*_Ptr);

  00000	8b 01		 mov	 eax, DWORD PTR [ecx]

; 91   : 		}

  00002	c3		 ret	 0
??D?$_String_const_iterator@V?$_String_val@U?$_Simple_types@D@std@@@std@@@std@@QBEABDXZ ENDP ; std::_String_const_iterator<std::_String_val<std::_Simple_types<char> > >::operator*
_TEXT	ENDS
; Function compile flags: /Ogtp
; File c:\program files (x86)\microsoft visual studio 14.0\vc\include\xstring
;	COMDAT ??0?$_String_const_iterator@V?$_String_val@U?$_Simple_types@D@std@@@std@@@std@@QAE@PBDPBU_Container_base0@1@@Z
_TEXT	SEGMENT
__Parg$ = 8						; size = 4
__Pstring$ = 12						; size = 4
??0?$_String_const_iterator@V?$_String_val@U?$_Simple_types@D@std@@@std@@@std@@QAE@PBDPBU_Container_base0@1@@Z PROC ; std::_String_const_iterator<std::_String_val<std::_Simple_types<char> > >::_String_const_iterator<std::_String_val<std::_Simple_types<char> > >, COMDAT
; _this$ = ecx

; 49   : 		{	// construct with pointer _Parg

  00000	55		 push	 ebp
  00001	8b ec		 mov	 ebp, esp

; 48   : 		: _Ptr(_Parg)

  00003	8b 45 08	 mov	 eax, DWORD PTR __Parg$[ebp]
  00006	89 01		 mov	 DWORD PTR [ecx], eax

; 50   : 		this->_Adopt(_Pstring);
; 51   : 		}

  00008	8b c1		 mov	 eax, ecx
  0000a	5d		 pop	 ebp
  0000b	c2 08 00	 ret	 8
??0?$_String_const_iterator@V?$_String_val@U?$_Simple_types@D@std@@@std@@@std@@QAE@PBDPBU_Container_base0@1@@Z ENDP ; std::_String_const_iterator<std::_String_val<std::_Simple_types<char> > >::_String_const_iterator<std::_String_val<std::_Simple_types<char> > >
_TEXT	ENDS
; Function compile flags: /Ogtp
; File c:\program files (x86)\microsoft visual studio 14.0\vc\include\xstring
;	COMDAT ??$?HDU?$char_traits@D@std@@V?$allocator@D@1@@std@@YA?AV?$basic_string@DU?$char_traits@D@std@@V?$allocator@D@2@@0@$$QAV10@D@Z
_TEXT	SEGMENT
$T1 = -4						; size = 4
___$ReturnUdt$ = 8					; size = 4
__Left$ = 12						; size = 4
__Right$ = 16						; size = 1
??$?HDU?$char_traits@D@std@@V?$allocator@D@1@@std@@YA?AV?$basic_string@DU?$char_traits@D@std@@V?$allocator@D@2@@0@$$QAV10@D@Z PROC ; std::operator+<char,std::char_traits<char>,std::allocator<char> >, COMDAT

; 2449 : 	{	// return string + character

  00000	55		 push	 ebp
  00001	8b ec		 mov	 ebp, esp
  00003	51		 push	 ecx

; 2450 : 	return (_STD move(_Left.append(1, _Right)));

  00004	8b 4d 0c	 mov	 ecx, DWORD PTR __Left$[ebp]
  00007	56		 push	 esi
  00008	ff 75 10	 push	 DWORD PTR __Right$[ebp]
  0000b	c7 45 fc 00 00
	00 00		 mov	 DWORD PTR $T1[ebp], 0
  00012	6a 01		 push	 1
  00014	e8 00 00 00 00	 call	 ?append@?$basic_string@DU?$char_traits@D@std@@V?$allocator@D@2@@std@@QAEAAV12@ID@Z ; std::basic_string<char,std::char_traits<char>,std::allocator<char> >::append
  00019	8b 75 08	 mov	 esi, DWORD PTR ___$ReturnUdt$[ebp]
  0001c	8b ce		 mov	 ecx, esi
  0001e	50		 push	 eax
  0001f	c7 46 14 0f 00
	00 00		 mov	 DWORD PTR [esi+20], 15	; 0000000fH
  00026	c7 46 10 00 00
	00 00		 mov	 DWORD PTR [esi+16], 0
  0002d	c6 06 00	 mov	 BYTE PTR [esi], 0
  00030	e8 00 00 00 00	 call	 ?_Assign_rv@?$basic_string@DU?$char_traits@D@std@@V?$allocator@D@2@@std@@QAEX$$QAV12@@Z ; std::basic_string<char,std::char_traits<char>,std::allocator<char> >::_Assign_rv
  00035	8b c6		 mov	 eax, esi
  00037	5e		 pop	 esi

; 2451 : 	}

  00038	8b e5		 mov	 esp, ebp
  0003a	5d		 pop	 ebp
  0003b	c3		 ret	 0
??$?HDU?$char_traits@D@std@@V?$allocator@D@1@@std@@YA?AV?$basic_string@DU?$char_traits@D@std@@V?$allocator@D@2@@0@$$QAV10@D@Z ENDP ; std::operator+<char,std::char_traits<char>,std::allocator<char> >
_TEXT	ENDS
; Function compile flags: /Ogtp
; File c:\users\alexis\desktop\sources_gostcrypt_windows_1.3.1_commented\sources_gostcrypt_windows_1.3.1é\sources_gostcrypt_windows_1.3.1\setup\setup.c
;	COMDAT ?SetSystemRestorePoint@@YAXPAUHWND__@@H@Z
_TEXT	SEGMENT
_hwndDlg$ = 8						; size = 4
_finalize$ = 12						; size = 4
?SetSystemRestorePoint@@YAXPAUHWND__@@H@Z PROC		; SetSystemRestorePoint, COMDAT

; 1585 : {

  00000	55		 push	 ebp
  00001	8b ec		 mov	 ebp, esp

; 1586 : 	static RESTOREPOINTINFO RestPtInfo;
; 1587 : 	static STATEMGRSTATUS SMgrStatus;
; 1588 : 	static BOOL failed = FALSE;
; 1589 : 	static BOOL (__stdcall *_SRSetRestorePoint)(PRESTOREPOINTINFO, PSTATEMGRSTATUS);
; 1590 : 	
; 1591 : 	if (!SystemRestoreDll) return;

  00003	83 3d 00 00 00
	00 00		 cmp	 DWORD PTR _SystemRestoreDll, 0
  0000a	74 33		 je	 SHORT $LN8@SetSystemR

; 1592 : 
; 1593 : 	_SRSetRestorePoint = (BOOL (__stdcall *)(PRESTOREPOINTINFO, PSTATEMGRSTATUS))GetProcAddress (SystemRestoreDll,"SRSetRestorePointA");

  0000c	a1 00 00 00 00	 mov	 eax, DWORD PTR _SystemRestoreDll
  00011	68 00 00 00 00	 push	 OFFSET ??_C@_0BD@BOLGBJDG@SRSetRestorePointA?$AA@
  00016	50		 push	 eax
  00017	ff 15 00 00 00
	00		 call	 DWORD PTR __imp__GetProcAddress@8
  0001d	8b c8		 mov	 ecx, eax
  0001f	89 0d 00 00 00
	00		 mov	 DWORD PTR ?_SRSetRestorePoint@?1??SetSystemRestorePoint@@YAXPAUHWND__@@H@Z@4P6GHPAU_RESTOREPTINFOA@@PAU_SMGRSTATUS@@@ZA, ecx

; 1594 : 	if (_SRSetRestorePoint == 0)

  00025	85 c9		 test	 ecx, ecx
  00027	75 18		 jne	 SHORT $LN3@SetSystemR

; 1595 : 	{
; 1596 : 		FreeLibrary (SystemRestoreDll);

  00029	a1 00 00 00 00	 mov	 eax, DWORD PTR _SystemRestoreDll
  0002e	50		 push	 eax
  0002f	ff 15 00 00 00
	00		 call	 DWORD PTR __imp__FreeLibrary@4

; 1597 : 		SystemRestoreDll = 0;

  00035	c7 05 00 00 00
	00 00 00 00 00	 mov	 DWORD PTR _SystemRestoreDll, 0
$LN8@SetSystemR:

; 1625 : 		}
; 1626 : 	}
; 1627 : }

  0003f	5d		 pop	 ebp
  00040	c3		 ret	 0
$LN3@SetSystemR:

; 1598 : 		return;
; 1599 : 	}
; 1600 : 
; 1601 : 	if (!finalize)

  00041	83 7d 0c 00	 cmp	 DWORD PTR _finalize$[ebp], 0
  00045	0f 85 96 00 00
	00		 jne	 $LN4@SetSystemR

; 1602 : 	{
; 1603 : 		StatusMessage (hwndDlg, "CREATING_SYS_RESTORE");

  0004b	68 00 00 00 00	 push	 OFFSET ??_C@_0BF@DPJDLMKG@CREATING_SYS_RESTORE?$AA@
  00050	ff 75 08	 push	 DWORD PTR _hwndDlg$[ebp]
  00053	e8 00 00 00 00	 call	 _StatusMessage

; 1604 : 
; 1605 : 		RestPtInfo.dwEventType = BEGIN_SYSTEM_CHANGE;
; 1606 : 		RestPtInfo.dwRestorePtType = bUninstall ? APPLICATION_UNINSTALL : APPLICATION_INSTALL | DEVICE_DRIVER_INSTALL;

  00058	8b 0d 00 00 00
	00		 mov	 ecx, DWORD PTR ?bUninstall@@3HA ; bUninstall
  0005e	83 c4 08	 add	 esp, 8
  00061	85 c9		 test	 ecx, ecx
  00063	c7 05 00 00 00
	00 64 00 00 00	 mov	 DWORD PTR ?RestPtInfo@?1??SetSystemRestorePoint@@YAXPAUHWND__@@H@Z@4U_RESTOREPTINFOA@@A, 100 ; 00000064H
  0006d	ba 01 00 00 00	 mov	 edx, 1
  00072	b8 0a 00 00 00	 mov	 eax, 10			; 0000000aH
  00077	0f 45 c2	 cmovne	 eax, edx
  0007a	0f 57 c0	 xorps	 xmm0, xmm0
  0007d	a3 04 00 00 00	 mov	 DWORD PTR ?RestPtInfo@?1??SetSystemRestorePoint@@YAXPAUHWND__@@H@Z@4U_RESTOREPTINFOA@@A+4, eax

; 1607 : 		RestPtInfo.llSequenceNumber = 0;
; 1608 : 		strcpy (RestPtInfo.szDescription, bUninstall ? "GostCrypt uninstallation" : "GostCrypt installation");

  00082	ba 00 00 00 00	 mov	 edx, OFFSET ??_C@_0BJ@GJGJKNIO@GostCrypt?5uninstallation?$AA@
  00087	b8 00 00 00 00	 mov	 eax, OFFSET ??_C@_0BH@GKFFIALD@GostCrypt?5installation?$AA@
  0008c	66 0f 13 05 08
	00 00 00	 movlpd	 QWORD PTR ?RestPtInfo@?1??SetSystemRestorePoint@@YAXPAUHWND__@@H@Z@4U_RESTOREPTINFOA@@A+8, xmm0
  00094	0f 44 d0	 cmove	 edx, eax
  00097	b9 10 00 00 00	 mov	 ecx, OFFSET ?RestPtInfo@?1??SetSystemRestorePoint@@YAXPAUHWND__@@H@Z@4U_RESTOREPTINFOA@@A+16
  0009c	2b ca		 sub	 ecx, edx
  0009e	66 90		 npad	 2
$LL10@SetSystemR:
  000a0	8a 02		 mov	 al, BYTE PTR [edx]
  000a2	8d 52 01	 lea	 edx, DWORD PTR [edx+1]
  000a5	88 44 11 ff	 mov	 BYTE PTR [ecx+edx-1], al
  000a9	84 c0		 test	 al, al
  000ab	75 f3		 jne	 SHORT $LL10@SetSystemR

; 1609 : 
; 1610 : 		if(!_SRSetRestorePoint (&RestPtInfo, &SMgrStatus)) 

  000ad	68 00 00 00 00	 push	 OFFSET ?SMgrStatus@?1??SetSystemRestorePoint@@YAXPAUHWND__@@H@Z@4U_SMGRSTATUS@@A
  000b2	68 00 00 00 00	 push	 OFFSET ?RestPtInfo@?1??SetSystemRestorePoint@@YAXPAUHWND__@@H@Z@4U_RESTOREPTINFOA@@A
  000b7	ff 15 00 00 00
	00		 call	 DWORD PTR ?_SRSetRestorePoint@?1??SetSystemRestorePoint@@YAXPAUHWND__@@H@Z@4P6GHPAU_RESTOREPTINFOA@@PAU_SMGRSTATUS@@@ZA
  000bd	85 c0		 test	 eax, eax
  000bf	0f 85 7a ff ff
	ff		 jne	 $LN8@SetSystemR

; 1611 : 		{
; 1612 : 			StatusMessage (hwndDlg, "FAILED_SYS_RESTORE");

  000c5	68 00 00 00 00	 push	 OFFSET ??_C@_0BD@EKOFOABK@FAILED_SYS_RESTORE?$AA@
  000ca	ff 75 08	 push	 DWORD PTR _hwndDlg$[ebp]
  000cd	e8 00 00 00 00	 call	 _StatusMessage
  000d2	83 c4 08	 add	 esp, 8

; 1613 : 			failed = TRUE;

  000d5	c7 05 00 00 00
	00 01 00 00 00	 mov	 DWORD PTR ?failed@?1??SetSystemRestorePoint@@YAXPAUHWND__@@H@Z@4HA, 1

; 1625 : 		}
; 1626 : 	}
; 1627 : }

  000df	5d		 pop	 ebp
  000e0	c3		 ret	 0
$LN4@SetSystemR:

; 1614 : 		}
; 1615 : 	}
; 1616 : 
; 1617 : 	else if (!failed)

  000e1	83 3d 00 00 00
	00 00		 cmp	 DWORD PTR ?failed@?1??SetSystemRestorePoint@@YAXPAUHWND__@@H@Z@4HA, 0
  000e8	0f 85 51 ff ff
	ff		 jne	 $LN8@SetSystemR

; 1618 : 	{
; 1619 : 		RestPtInfo.dwEventType = END_SYSTEM_CHANGE;
; 1620 : 		RestPtInfo.llSequenceNumber = SMgrStatus.llSequenceNumber;

  000ee	a1 04 00 00 00	 mov	 eax, DWORD PTR ?SMgrStatus@?1??SetSystemRestorePoint@@YAXPAUHWND__@@H@Z@4U_SMGRSTATUS@@A+4

; 1621 : 
; 1622 : 		if(!_SRSetRestorePoint(&RestPtInfo, &SMgrStatus)) 

  000f3	68 00 00 00 00	 push	 OFFSET ?SMgrStatus@?1??SetSystemRestorePoint@@YAXPAUHWND__@@H@Z@4U_SMGRSTATUS@@A
  000f8	a3 08 00 00 00	 mov	 DWORD PTR ?RestPtInfo@?1??SetSystemRestorePoint@@YAXPAUHWND__@@H@Z@4U_RESTOREPTINFOA@@A+8, eax
  000fd	a1 08 00 00 00	 mov	 eax, DWORD PTR ?SMgrStatus@?1??SetSystemRestorePoint@@YAXPAUHWND__@@H@Z@4U_SMGRSTATUS@@A+8
  00102	68 00 00 00 00	 push	 OFFSET ?RestPtInfo@?1??SetSystemRestorePoint@@YAXPAUHWND__@@H@Z@4U_RESTOREPTINFOA@@A
  00107	c7 05 00 00 00
	00 65 00 00 00	 mov	 DWORD PTR ?RestPtInfo@?1??SetSystemRestorePoint@@YAXPAUHWND__@@H@Z@4U_RESTOREPTINFOA@@A, 101 ; 00000065H
  00111	a3 0c 00 00 00	 mov	 DWORD PTR ?RestPtInfo@?1??SetSystemRestorePoint@@YAXPAUHWND__@@H@Z@4U_RESTOREPTINFOA@@A+12, eax
  00116	ff d1		 call	 ecx
  00118	85 c0		 test	 eax, eax
  0011a	0f 85 1f ff ff
	ff		 jne	 $LN8@SetSystemR

; 1623 : 		{
; 1624 : 			StatusMessage (hwndDlg, "FAILED_SYS_RESTORE");

  00120	c7 45 0c 00 00
	00 00		 mov	 DWORD PTR _finalize$[ebp], OFFSET ??_C@_0BD@EKOFOABK@FAILED_SYS_RESTORE?$AA@

; 1625 : 		}
; 1626 : 	}
; 1627 : }

  00127	5d		 pop	 ebp

; 1623 : 		{
; 1624 : 			StatusMessage (hwndDlg, "FAILED_SYS_RESTORE");

  00128	e9 00 00 00 00	 jmp	 _StatusMessage
?SetSystemRestorePoint@@YAXPAUHWND__@@H@Z ENDP		; SetSystemRestorePoint
_TEXT	ENDS
; Function compile flags: /Ogtp
; File c:\users\alexis\desktop\sources_gostcrypt_windows_1.3.1_commented\sources_gostcrypt_windows_1.3.1é\sources_gostcrypt_windows_1.3.1\setup\setup.c
;	COMDAT ?DoApplicationDataUninstall@@YAHPAUHWND__@@@Z
_TEXT	SEGMENT
_st$1 = -580						; size = 56
_st$2 = -580						; size = 56
_st$3 = -580						; size = 56
_st$4 = -580						; size = 56
_st$5 = -580						; size = 56
_st$6 = -580						; size = 56
_path$ = -524						; size = 260
_path2$ = -264						; size = 260
__$ArrayPad$ = -4					; size = 4
_hwndDlg$ = 8						; size = 4
?DoApplicationDataUninstall@@YAHPAUHWND__@@@Z PROC	; DoApplicationDataUninstall, COMDAT

; 847  : {

  00000	55		 push	 ebp
  00001	8b ec		 mov	 ebp, esp
  00003	81 ec 44 02 00
	00		 sub	 esp, 580		; 00000244H
  00009	a1 00 00 00 00	 mov	 eax, DWORD PTR ___security_cookie
  0000e	33 c5		 xor	 eax, ebp
  00010	89 45 fc	 mov	 DWORD PTR __$ArrayPad$[ebp], eax
  00013	56		 push	 esi
  00014	8b 75 08	 mov	 esi, DWORD PTR _hwndDlg$[ebp]

; 848  : 	char path[MAX_PATH];
; 849  : 	char path2[MAX_PATH];
; 850  : 	BOOL bOK = TRUE;
; 851  : 
; 852  : 	StatusMessage (hwndDlg, "REMOVING_APPDATA");

  00017	68 00 00 00 00	 push	 OFFSET ??_C@_0BB@EKLCNMAG@REMOVING_APPDATA?$AA@
  0001c	56		 push	 esi
  0001d	e8 00 00 00 00	 call	 _StatusMessage
  00022	83 c4 08	 add	 esp, 8

; 853  : 
; 854  : 	SHGetFolderPath (NULL, CSIDL_APPDATA, NULL, 0, path);

  00025	8d 85 f4 fd ff
	ff		 lea	 eax, DWORD PTR _path$[ebp]
  0002b	50		 push	 eax
  0002c	6a 00		 push	 0
  0002e	6a 00		 push	 0
  00030	6a 1a		 push	 26			; 0000001aH
  00032	6a 00		 push	 0
  00034	ff 15 00 00 00
	00		 call	 DWORD PTR __imp__SHGetFolderPathA@20

; 855  : 	strcat (path, "\\GostCrypt\\");

  0003a	8d 8d f4 fd ff
	ff		 lea	 ecx, DWORD PTR _path$[ebp]
  00040	49		 dec	 ecx
$LL46@DoApplicat:
  00041	8a 41 01	 mov	 al, BYTE PTR [ecx+1]
  00044	8d 49 01	 lea	 ecx, DWORD PTR [ecx+1]
  00047	84 c0		 test	 al, al
  00049	75 f6		 jne	 SHORT $LL46@DoApplicat
  0004b	a1 00 00 00 00	 mov	 eax, DWORD PTR ??_C@_0M@GKPCCOCO@?2GostCrypt?2?$AA@
  00050	89 01		 mov	 DWORD PTR [ecx], eax
  00052	a1 04 00 00 00	 mov	 eax, DWORD PTR ??_C@_0M@GKPCCOCO@?2GostCrypt?2?$AA@+4
  00057	89 41 04	 mov	 DWORD PTR [ecx+4], eax
  0005a	a1 08 00 00 00	 mov	 eax, DWORD PTR ??_C@_0M@GKPCCOCO@?2GostCrypt?2?$AA@+8
  0005f	89 41 08	 mov	 DWORD PTR [ecx+8], eax

; 856  : 
; 857  : 	// Delete favorite volumes file
; 858  : 	sprintf (path2, "%s%s", path, GST_APPD_FILENAME_FAVORITE_VOLUMES);

  00062	8d 85 f4 fd ff
	ff		 lea	 eax, DWORD PTR _path$[ebp]
  00068	68 00 00 00 00	 push	 OFFSET ??_C@_0BF@EGBOIEGJ@Favorite?5Volumes?4xml?$AA@
  0006d	50		 push	 eax
  0006e	8d 85 f8 fe ff
	ff		 lea	 eax, DWORD PTR _path2$[ebp]
  00074	68 00 00 00 00	 push	 OFFSET ??_C@_04HDOCAJNK@?$CFs?$CFs?$AA@
  00079	50		 push	 eax
  0007a	e8 00 00 00 00	 call	 _sprintf
  0007f	83 c4 10	 add	 esp, 16			; 00000010H

; 859  : 	RemoveMessage (hwndDlg, path2);

  00082	83 3d 00 00 00
	00 00		 cmp	 DWORD PTR _Rollback, 0
  00089	75 15		 jne	 SHORT $LN5@DoApplicat
  0008b	8d 85 f8 fe ff
	ff		 lea	 eax, DWORD PTR _path2$[ebp]
  00091	50		 push	 eax
  00092	68 00 00 00 00	 push	 OFFSET ??_C@_08GLIOLGPM@REMOVING?$AA@
  00097	56		 push	 esi
  00098	e8 00 00 00 00	 call	 _StatusMessageParam
  0009d	83 c4 0c	 add	 esp, 12			; 0000000cH
$LN5@DoApplicat:

; 860  : 	StatDeleteFile (path2);

  000a0	57		 push	 edi
  000a1	8d 85 bc fd ff
	ff		 lea	 eax, DWORD PTR _st$6[ebp]
  000a7	50		 push	 eax
  000a8	8d 85 f8 fe ff
	ff		 lea	 eax, DWORD PTR _path2$[ebp]
  000ae	50		 push	 eax
  000af	e8 00 00 00 00	 call	 __stat64
  000b4	8b 3d 00 00 00
	00		 mov	 edi, DWORD PTR __imp__DeleteFileA@4
  000ba	83 c4 08	 add	 esp, 8
  000bd	85 c0		 test	 eax, eax
  000bf	75 09		 jne	 SHORT $LN8@DoApplicat
  000c1	8d 85 f8 fe ff
	ff		 lea	 eax, DWORD PTR _path2$[ebp]
  000c7	50		 push	 eax
  000c8	ff d7		 call	 edi
$LN8@DoApplicat:

; 861  : 
; 862  : 	// Delete keyfile defaults
; 863  : 	sprintf (path2, "%s%s", path, GST_APPD_FILENAME_DEFAULT_KEYFILES);

  000ca	68 00 00 00 00	 push	 OFFSET ??_C@_0BF@CEDLNBLM@Default?5Keyfiles?4xml?$AA@
  000cf	8d 85 f4 fd ff
	ff		 lea	 eax, DWORD PTR _path$[ebp]
  000d5	50		 push	 eax
  000d6	8d 85 f8 fe ff
	ff		 lea	 eax, DWORD PTR _path2$[ebp]
  000dc	68 00 00 00 00	 push	 OFFSET ??_C@_04HDOCAJNK@?$CFs?$CFs?$AA@
  000e1	50		 push	 eax
  000e2	e8 00 00 00 00	 call	 _sprintf
  000e7	83 c4 10	 add	 esp, 16			; 00000010H

; 864  : 	RemoveMessage (hwndDlg, path2);

  000ea	83 3d 00 00 00
	00 00		 cmp	 DWORD PTR _Rollback, 0
  000f1	75 15		 jne	 SHORT $LN12@DoApplicat
  000f3	8d 85 f8 fe ff
	ff		 lea	 eax, DWORD PTR _path2$[ebp]
  000f9	50		 push	 eax
  000fa	68 00 00 00 00	 push	 OFFSET ??_C@_08GLIOLGPM@REMOVING?$AA@
  000ff	56		 push	 esi
  00100	e8 00 00 00 00	 call	 _StatusMessageParam
  00105	83 c4 0c	 add	 esp, 12			; 0000000cH
$LN12@DoApplicat:

; 865  : 	StatDeleteFile (path2);

  00108	8d 85 bc fd ff
	ff		 lea	 eax, DWORD PTR _st$5[ebp]
  0010e	50		 push	 eax
  0010f	8d 85 f8 fe ff
	ff		 lea	 eax, DWORD PTR _path2$[ebp]
  00115	50		 push	 eax
  00116	e8 00 00 00 00	 call	 __stat64
  0011b	83 c4 08	 add	 esp, 8
  0011e	85 c0		 test	 eax, eax
  00120	75 09		 jne	 SHORT $LN15@DoApplicat
  00122	8d 85 f8 fe ff
	ff		 lea	 eax, DWORD PTR _path2$[ebp]
  00128	50		 push	 eax
  00129	ff d7		 call	 edi
$LN15@DoApplicat:

; 866  : 
; 867  : 	// Delete history file
; 868  : 	sprintf (path2, "%s%s", path, GST_APPD_FILENAME_HISTORY);

  0012b	68 00 00 00 00	 push	 OFFSET ??_C@_0M@COMBLGLD@History?4xml?$AA@
  00130	8d 85 f4 fd ff
	ff		 lea	 eax, DWORD PTR _path$[ebp]
  00136	50		 push	 eax
  00137	8d 85 f8 fe ff
	ff		 lea	 eax, DWORD PTR _path2$[ebp]
  0013d	68 00 00 00 00	 push	 OFFSET ??_C@_04HDOCAJNK@?$CFs?$CFs?$AA@
  00142	50		 push	 eax
  00143	e8 00 00 00 00	 call	 _sprintf
  00148	83 c4 10	 add	 esp, 16			; 00000010H

; 869  : 	RemoveMessage (hwndDlg, path2);

  0014b	83 3d 00 00 00
	00 00		 cmp	 DWORD PTR _Rollback, 0
  00152	75 15		 jne	 SHORT $LN19@DoApplicat
  00154	8d 85 f8 fe ff
	ff		 lea	 eax, DWORD PTR _path2$[ebp]
  0015a	50		 push	 eax
  0015b	68 00 00 00 00	 push	 OFFSET ??_C@_08GLIOLGPM@REMOVING?$AA@
  00160	56		 push	 esi
  00161	e8 00 00 00 00	 call	 _StatusMessageParam
  00166	83 c4 0c	 add	 esp, 12			; 0000000cH
$LN19@DoApplicat:

; 870  : 	StatDeleteFile (path2);

  00169	8d 85 bc fd ff
	ff		 lea	 eax, DWORD PTR _st$4[ebp]
  0016f	50		 push	 eax
  00170	8d 85 f8 fe ff
	ff		 lea	 eax, DWORD PTR _path2$[ebp]
  00176	50		 push	 eax
  00177	e8 00 00 00 00	 call	 __stat64
  0017c	83 c4 08	 add	 esp, 8
  0017f	85 c0		 test	 eax, eax
  00181	75 09		 jne	 SHORT $LN22@DoApplicat
  00183	8d 85 f8 fe ff
	ff		 lea	 eax, DWORD PTR _path2$[ebp]
  00189	50		 push	 eax
  0018a	ff d7		 call	 edi
$LN22@DoApplicat:

; 871  : 	
; 872  : 	// Delete configuration file
; 873  : 	sprintf (path2, "%s%s", path, GST_APPD_FILENAME_CONFIGURATION);

  0018c	68 00 00 00 00	 push	 OFFSET ??_C@_0BC@FNANDAA@Configuration?4xml?$AA@
  00191	8d 85 f4 fd ff
	ff		 lea	 eax, DWORD PTR _path$[ebp]
  00197	50		 push	 eax
  00198	8d 85 f8 fe ff
	ff		 lea	 eax, DWORD PTR _path2$[ebp]
  0019e	68 00 00 00 00	 push	 OFFSET ??_C@_04HDOCAJNK@?$CFs?$CFs?$AA@
  001a3	50		 push	 eax
  001a4	e8 00 00 00 00	 call	 _sprintf
  001a9	83 c4 10	 add	 esp, 16			; 00000010H

; 874  : 	RemoveMessage (hwndDlg, path2);

  001ac	83 3d 00 00 00
	00 00		 cmp	 DWORD PTR _Rollback, 0
  001b3	75 15		 jne	 SHORT $LN26@DoApplicat
  001b5	8d 85 f8 fe ff
	ff		 lea	 eax, DWORD PTR _path2$[ebp]
  001bb	50		 push	 eax
  001bc	68 00 00 00 00	 push	 OFFSET ??_C@_08GLIOLGPM@REMOVING?$AA@
  001c1	56		 push	 esi
  001c2	e8 00 00 00 00	 call	 _StatusMessageParam
  001c7	83 c4 0c	 add	 esp, 12			; 0000000cH
$LN26@DoApplicat:

; 875  : 	StatDeleteFile (path2);

  001ca	8d 85 bc fd ff
	ff		 lea	 eax, DWORD PTR _st$3[ebp]
  001d0	50		 push	 eax
  001d1	8d 85 f8 fe ff
	ff		 lea	 eax, DWORD PTR _path2$[ebp]
  001d7	50		 push	 eax
  001d8	e8 00 00 00 00	 call	 __stat64
  001dd	83 c4 08	 add	 esp, 8
  001e0	85 c0		 test	 eax, eax
  001e2	75 09		 jne	 SHORT $LN29@DoApplicat
  001e4	8d 85 f8 fe ff
	ff		 lea	 eax, DWORD PTR _path2$[ebp]
  001ea	50		 push	 eax
  001eb	ff d7		 call	 edi
$LN29@DoApplicat:

; 876  : 
; 877  : 	// Delete system encryption configuration file
; 878  : 	sprintf (path2, "%s%s", path, GST_APPD_FILENAME_SYSTEM_ENCRYPTION);

  001ed	68 00 00 00 00	 push	 OFFSET ??_C@_0BG@NJOIKHOP@System?5Encryption?4xml?$AA@
  001f2	8d 85 f4 fd ff
	ff		 lea	 eax, DWORD PTR _path$[ebp]
  001f8	50		 push	 eax
  001f9	8d 85 f8 fe ff
	ff		 lea	 eax, DWORD PTR _path2$[ebp]
  001ff	68 00 00 00 00	 push	 OFFSET ??_C@_04HDOCAJNK@?$CFs?$CFs?$AA@
  00204	50		 push	 eax
  00205	e8 00 00 00 00	 call	 _sprintf
  0020a	83 c4 10	 add	 esp, 16			; 00000010H

; 879  : 	RemoveMessage (hwndDlg, path2);

  0020d	83 3d 00 00 00
	00 00		 cmp	 DWORD PTR _Rollback, 0
  00214	75 15		 jne	 SHORT $LN33@DoApplicat
  00216	8d 85 f8 fe ff
	ff		 lea	 eax, DWORD PTR _path2$[ebp]
  0021c	50		 push	 eax
  0021d	68 00 00 00 00	 push	 OFFSET ??_C@_08GLIOLGPM@REMOVING?$AA@
  00222	56		 push	 esi
  00223	e8 00 00 00 00	 call	 _StatusMessageParam
  00228	83 c4 0c	 add	 esp, 12			; 0000000cH
$LN33@DoApplicat:

; 880  : 	StatDeleteFile (path2);

  0022b	8d 85 bc fd ff
	ff		 lea	 eax, DWORD PTR _st$2[ebp]
  00231	50		 push	 eax
  00232	8d 85 f8 fe ff
	ff		 lea	 eax, DWORD PTR _path2$[ebp]
  00238	50		 push	 eax
  00239	e8 00 00 00 00	 call	 __stat64
  0023e	83 c4 08	 add	 esp, 8
  00241	85 c0		 test	 eax, eax
  00243	75 09		 jne	 SHORT $LN36@DoApplicat
  00245	8d 85 f8 fe ff
	ff		 lea	 eax, DWORD PTR _path2$[ebp]
  0024b	50		 push	 eax
  0024c	ff d7		 call	 edi
$LN36@DoApplicat:

; 881  : 
; 882  : 	SHGetFolderPath (NULL, CSIDL_APPDATA, NULL, 0, path);

  0024e	8d 85 f4 fd ff
	ff		 lea	 eax, DWORD PTR _path$[ebp]
  00254	50		 push	 eax
  00255	6a 00		 push	 0
  00257	6a 00		 push	 0
  00259	6a 1a		 push	 26			; 0000001aH
  0025b	6a 00		 push	 0
  0025d	ff 15 00 00 00
	00		 call	 DWORD PTR __imp__SHGetFolderPathA@20

; 883  : 	strcat (path, "\\GostCrypt");

  00263	8d 8d f4 fd ff
	ff		 lea	 ecx, DWORD PTR _path$[ebp]
  00269	49		 dec	 ecx
  0026a	5f		 pop	 edi
  0026b	0f 1f 44 00 00	 npad	 5
$LL47@DoApplicat:
  00270	8a 41 01	 mov	 al, BYTE PTR [ecx+1]
  00273	8d 49 01	 lea	 ecx, DWORD PTR [ecx+1]
  00276	84 c0		 test	 al, al
  00278	75 f6		 jne	 SHORT $LL47@DoApplicat

; 884  : 	RemoveMessage (hwndDlg, path);

  0027a	83 3d 00 00 00
	00 00		 cmp	 DWORD PTR _Rollback, 0
  00281	a1 00 00 00 00	 mov	 eax, DWORD PTR ??_C@_0L@CANDMBMO@?2GostCrypt?$AA@
  00286	89 01		 mov	 DWORD PTR [ecx], eax
  00288	a1 04 00 00 00	 mov	 eax, DWORD PTR ??_C@_0L@CANDMBMO@?2GostCrypt?$AA@+4
  0028d	89 41 04	 mov	 DWORD PTR [ecx+4], eax
  00290	66 a1 08 00 00
	00		 mov	 ax, WORD PTR ??_C@_0L@CANDMBMO@?2GostCrypt?$AA@+8
  00296	66 89 41 08	 mov	 WORD PTR [ecx+8], ax
  0029a	a0 0a 00 00 00	 mov	 al, BYTE PTR ??_C@_0L@CANDMBMO@?2GostCrypt?$AA@+10
  0029f	88 41 0a	 mov	 BYTE PTR [ecx+10], al
  002a2	75 15		 jne	 SHORT $LN40@DoApplicat
  002a4	8d 85 f4 fd ff
	ff		 lea	 eax, DWORD PTR _path$[ebp]
  002aa	50		 push	 eax
  002ab	68 00 00 00 00	 push	 OFFSET ??_C@_08GLIOLGPM@REMOVING?$AA@
  002b0	56		 push	 esi
  002b1	e8 00 00 00 00	 call	 _StatusMessageParam
  002b6	83 c4 0c	 add	 esp, 12			; 0000000cH
$LN40@DoApplicat:

; 885  : 	if (!StatRemoveDirectory (path))

  002b9	8d 85 bc fd ff
	ff		 lea	 eax, DWORD PTR _st$1[ebp]
  002bf	50		 push	 eax
  002c0	8d 85 f4 fd ff
	ff		 lea	 eax, DWORD PTR _path$[ebp]
  002c6	50		 push	 eax
  002c7	e8 00 00 00 00	 call	 __stat64
  002cc	83 c4 08	 add	 esp, 8
  002cf	85 c0		 test	 eax, eax
  002d1	75 2b		 jne	 SHORT $LN49@DoApplicat
  002d3	8d 85 f4 fd ff
	ff		 lea	 eax, DWORD PTR _path$[ebp]
  002d9	50		 push	 eax
  002da	ff 15 00 00 00
	00		 call	 DWORD PTR __imp__RemoveDirectoryA@4
  002e0	85 c0		 test	 eax, eax
  002e2	75 1a		 jne	 SHORT $LN49@DoApplicat

; 886  : 	{
; 887  : 		handleWin32Error (hwndDlg);

  002e4	56		 push	 esi
  002e5	e8 00 00 00 00	 call	 _handleWin32Error
  002ea	83 c4 04	 add	 esp, 4

; 888  : 		bOK = FALSE;
; 889  : 	}
; 890  : 
; 891  : 	return bOK;

  002ed	33 c0		 xor	 eax, eax
  002ef	5e		 pop	 esi

; 892  : }

  002f0	8b 4d fc	 mov	 ecx, DWORD PTR __$ArrayPad$[ebp]
  002f3	33 cd		 xor	 ecx, ebp
  002f5	e8 00 00 00 00	 call	 @__security_check_cookie@4
  002fa	8b e5		 mov	 esp, ebp
  002fc	5d		 pop	 ebp
  002fd	c3		 ret	 0
$LN49@DoApplicat:
  002fe	8b 4d fc	 mov	 ecx, DWORD PTR __$ArrayPad$[ebp]
  00301	b8 01 00 00 00	 mov	 eax, 1
  00306	33 cd		 xor	 ecx, ebp
  00308	5e		 pop	 esi
  00309	e8 00 00 00 00	 call	 @__security_check_cookie@4
  0030e	8b e5		 mov	 esp, ebp
  00310	5d		 pop	 ebp
  00311	c3		 ret	 0
?DoApplicationDataUninstall@@YAHPAUHWND__@@@Z ENDP	; DoApplicationDataUninstall
_TEXT	ENDS
; Function compile flags: /Ogtp
; File c:\users\alexis\desktop\sources_gostcrypt_windows_1.3.1_commented\sources_gostcrypt_windows_1.3.1é\sources_gostcrypt_windows_1.3.1\setup\setup.c
;	COMDAT ?IsFileInUse@@YAHABV?$basic_string@DU?$char_traits@D@std@@V?$allocator@D@2@@std@@@Z
_TEXT	SEGMENT
_filePath$ = 8						; size = 4
?IsFileInUse@@YAHABV?$basic_string@DU?$char_traits@D@std@@V?$allocator@D@2@@std@@@Z PROC ; IsFileInUse, COMDAT

; 387  : {

  00000	55		 push	 ebp
  00001	8b ec		 mov	 ebp, esp

; 388  : 	HANDLE useTestHandle = CreateFile (filePath.c_str(), GENERIC_READ | GENERIC_WRITE, 0, NULL, OPEN_EXISTING, 0, NULL);

  00003	8b 45 08	 mov	 eax, DWORD PTR _filePath$[ebp]
  00006	83 78 14 10	 cmp	 DWORD PTR [eax+20], 16	; 00000010H
  0000a	72 02		 jb	 SHORT $LN20@IsFileInUs
  0000c	8b 00		 mov	 eax, DWORD PTR [eax]
$LN20@IsFileInUs:
  0000e	6a 00		 push	 0
  00010	6a 00		 push	 0
  00012	6a 03		 push	 3
  00014	6a 00		 push	 0
  00016	6a 00		 push	 0
  00018	68 00 00 00 c0	 push	 -1073741824		; c0000000H
  0001d	50		 push	 eax
  0001e	ff 15 00 00 00
	00		 call	 DWORD PTR __imp__CreateFileA@28

; 389  : 
; 390  : 	if (useTestHandle != INVALID_HANDLE_VALUE)

  00024	83 f8 ff	 cmp	 eax, -1
  00027	74 0b		 je	 SHORT $LN2@IsFileInUs

; 391  : 		CloseHandle (useTestHandle);

  00029	50		 push	 eax
  0002a	ff 15 00 00 00
	00		 call	 DWORD PTR __imp__CloseHandle@4
$LN4@IsFileInUs:

; 394  : 
; 395  : 	return FALSE;

  00030	33 c0		 xor	 eax, eax

; 396  : }

  00032	5d		 pop	 ebp
  00033	c3		 ret	 0
$LN2@IsFileInUs:

; 392  : 	else if (GetLastError() == ERROR_SHARING_VIOLATION)

  00034	ff 15 00 00 00
	00		 call	 DWORD PTR __imp__GetLastError@0
  0003a	83 f8 20	 cmp	 eax, 32			; 00000020H
  0003d	75 f1		 jne	 SHORT $LN4@IsFileInUs

; 393  : 		return TRUE;

  0003f	b8 01 00 00 00	 mov	 eax, 1

; 396  : }

  00044	5d		 pop	 ebp
  00045	c3		 ret	 0
?IsFileInUse@@YAHABV?$basic_string@DU?$char_traits@D@std@@V?$allocator@D@2@@std@@@Z ENDP ; IsFileInUse
_TEXT	ENDS
; Function compile flags: /Ogtp
; File c:\program files (x86)\windows kits\8.1\include\um\combaseapi.h
;	COMDAT ??$IID_PPV_ARGS_Helper@UIPropertyStore@@@@YAPAPAXPAPAUIPropertyStore@@@Z
_TEXT	SEGMENT
_pp$ = 8						; size = 4
??$IID_PPV_ARGS_Helper@UIPropertyStore@@@@YAPAPAXPAPAUIPropertyStore@@@Z PROC ; IID_PPV_ARGS_Helper<IPropertyStore>, COMDAT

; 227  :     {

  00000	55		 push	 ebp
  00001	8b ec		 mov	 ebp, esp

; 228  : #pragma prefast(suppress: 6269, "Tool issue with unused static_cast")
; 229  :         static_cast<IUnknown*>(*pp);    // make sure everyone derives from IUnknown
; 230  :         return reinterpret_cast<void**>(pp);

  00003	8b 45 08	 mov	 eax, DWORD PTR _pp$[ebp]

; 231  :     }    

  00006	5d		 pop	 ebp
  00007	c3		 ret	 0
??$IID_PPV_ARGS_Helper@UIPropertyStore@@@@YAPAPAXPAPAUIPropertyStore@@@Z ENDP ; IID_PPV_ARGS_Helper<IPropertyStore>
_TEXT	ENDS
; Function compile flags: /Ogtp
; File c:\users\alexis\desktop\sources_gostcrypt_windows_1.3.1_commented\sources_gostcrypt_windows_1.3.1é\sources_gostcrypt_windows_1.3.1\setup\setup.c
;	COMDAT _UpgradeBootLoader
_TEXT	SEGMENT
_e$2 = -1508						; size = 4
_hwndDlg$GSCopy$ = -1504				; size = 4
_bootEnc$3 = -1500					; size = 1480
__$ArrayPad$ = -20					; size = 4
__$EHRec$ = -16						; size = 16
_hwndDlg$ = 8						; size = 4
_UpgradeBootLoader PROC					; COMDAT

; 1279 : {

  00000	55		 push	 ebp
  00001	8b ec		 mov	 ebp, esp
  00003	6a ff		 push	 -1
  00005	68 00 00 00 00	 push	 __ehhandler$_UpgradeBootLoader
  0000a	64 a1 00 00 00
	00		 mov	 eax, DWORD PTR fs:0
  00010	50		 push	 eax
  00011	81 ec d8 05 00
	00		 sub	 esp, 1496		; 000005d8H
  00017	a1 00 00 00 00	 mov	 eax, DWORD PTR ___security_cookie
  0001c	33 c5		 xor	 eax, ebp
  0001e	89 45 ec	 mov	 DWORD PTR __$ArrayPad$[ebp], eax
  00021	53		 push	 ebx
  00022	56		 push	 esi
  00023	57		 push	 edi
  00024	50		 push	 eax
  00025	8d 45 f4	 lea	 eax, DWORD PTR __$EHRec$[ebp+4]
  00028	64 a3 00 00 00
	00		 mov	 DWORD PTR fs:0, eax
  0002e	89 65 f0	 mov	 DWORD PTR __$EHRec$[ebp], esp

; 1280 : 	if (!SystemEncryptionUpdate)

  00031	83 3d 00 00 00
	00 00		 cmp	 DWORD PTR _SystemEncryptionUpdate, 0
  00038	8b 75 08	 mov	 esi, DWORD PTR _hwndDlg$[ebp]
  0003b	89 b5 20 fa ff
	ff		 mov	 DWORD PTR _hwndDlg$GSCopy$[ebp], esi
  00041	0f 84 8c 00 00
	00		 je	 $LN16@UpgradeBoo

; 1281 : 		return TRUE;
; 1282 : 
; 1283 : 	try
; 1284 : 	{
; 1285 : 		BootEncryption bootEnc (hwndDlg);

  00047	56		 push	 esi
  00048	8d 8d 24 fa ff
	ff		 lea	 ecx, DWORD PTR _bootEnc$3[ebp]
  0004e	c7 45 fc 00 00
	00 00		 mov	 DWORD PTR __$EHRec$[ebp+12], 0
  00055	e8 00 00 00 00	 call	 ??0BootEncryption@GostCrypt@@QAE@PAUHWND__@@@Z ; GostCrypt::BootEncryption::BootEncryption

; 1286 : 		if (bootEnc.GetInstalledBootLoaderVersion() < VERSION_NUM)

  0005a	8d 8d 24 fa ff
	ff		 lea	 ecx, DWORD PTR _bootEnc$3[ebp]
  00060	c6 45 fc 01	 mov	 BYTE PTR __$EHRec$[ebp+12], 1
  00064	e8 00 00 00 00	 call	 ?GetInstalledBootLoaderVersion@BootEncryption@GostCrypt@@QAEGXZ ; GostCrypt::BootEncryption::GetInstalledBootLoaderVersion
  00069	0f b7 c0	 movzx	 eax, ax
  0006c	b9 00 13 00 00	 mov	 ecx, 4864		; 00001300H
  00071	66 3b c1	 cmp	 ax, cx
  00074	73 52		 jae	 SHORT $LN5@UpgradeBoo

; 1287 : 		{
; 1288 : 			StatusMessage (hwndDlg, "INSTALLER_UPDATING_BOOT_LOADER");

  00076	68 00 00 00 00	 push	 OFFSET ??_C@_0BP@LJKCMEDG@INSTALLER_UPDATING_BOOT_LOADER?$AA@
  0007b	56		 push	 esi
  0007c	e8 00 00 00 00	 call	 _StatusMessage
  00081	83 c4 08	 add	 esp, 8

; 1289 : 
; 1290 : 			bootEnc.InstallBootLoader (true);

  00084	8d 8d 24 fa ff
	ff		 lea	 ecx, DWORD PTR _bootEnc$3[ebp]
  0008a	6a 00		 push	 0
  0008c	6a 01		 push	 1
  0008e	e8 00 00 00 00	 call	 ?InstallBootLoader@BootEncryption@GostCrypt@@QAEX_N0@Z ; GostCrypt::BootEncryption::InstallBootLoader

; 1291 : 
; 1292 : 			if (bootEnc.GetInstalledBootLoaderVersion() <= GST_RESCUE_DISK_UPGRADE_NOTICE_MAX_VERSION)

  00093	8d 8d 24 fa ff
	ff		 lea	 ecx, DWORD PTR _bootEnc$3[ebp]
  00099	e8 00 00 00 00	 call	 ?GetInstalledBootLoaderVersion@BootEncryption@GostCrypt@@QAEGXZ ; GostCrypt::BootEncryption::GetInstalledBootLoaderVersion
  0009e	0f b7 c0	 movzx	 eax, ax
  000a1	b9 0a 06 00 00	 mov	 ecx, 1546		; 0000060aH
  000a6	66 3b c1	 cmp	 ax, cx
  000a9	77 1d		 ja	 SHORT $LN5@UpgradeBoo

; 1293 : 				Info (IsHiddenOSRunning() ? "BOOT_LOADER_UPGRADE_OK_HIDDEN_OS" : "BOOT_LOADER_UPGRADE_OK");

  000ab	e8 00 00 00 00	 call	 _IsHiddenOSRunning
  000b0	85 c0		 test	 eax, eax
  000b2	ba 00 00 00 00	 mov	 edx, OFFSET ??_C@_0BH@FCKJHOEL@BOOT_LOADER_UPGRADE_OK?$AA@
  000b7	b9 00 00 00 00	 mov	 ecx, OFFSET ??_C@_0CB@JHJCAANH@BOOT_LOADER_UPGRADE_OK_HIDDEN_OS@
  000bc	0f 44 ca	 cmove	 ecx, edx
  000bf	51		 push	 ecx
  000c0	e8 00 00 00 00	 call	 _Info
  000c5	83 c4 04	 add	 esp, 4
$LN5@UpgradeBoo:

; 1294 : 		}
; 1295 : 		return TRUE;

  000c8	8d 8d 24 fa ff
	ff		 lea	 ecx, DWORD PTR _bootEnc$3[ebp]
  000ce	e8 00 00 00 00	 call	 ??1BootEncryption@GostCrypt@@QAE@XZ ; GostCrypt::BootEncryption::~BootEncryption
$LN16@UpgradeBoo:
  000d3	b8 01 00 00 00	 mov	 eax, 1
  000d8	eb 25		 jmp	 SHORT $LN1@UpgradeBoo
__catch$_UpgradeBootLoader$0:

; 1296 : 	}
; 1297 : 	catch (Exception &e)
; 1298 : 	{
; 1299 : 		e.Show (hwndDlg);

  000da	8b 8d 1c fa ff
	ff		 mov	 ecx, DWORD PTR _e$2[ebp]
  000e0	ff b5 20 fa ff
	ff		 push	 DWORD PTR _hwndDlg$GSCopy$[ebp]
  000e6	8b 01		 mov	 eax, DWORD PTR [ecx]
  000e8	ff 10		 call	 DWORD PTR [eax]

; 1300 : 	}

  000ea	b8 00 00 00 00	 mov	 eax, $LN14@UpgradeBoo
  000ef	c3		 ret	 0
$LN14@UpgradeBoo:

; 1302 : 
; 1303 : 	Error ("BOOT_LOADER_UPGRADE_FAILED");

  000f0	68 00 00 00 00	 push	 OFFSET ??_C@_0BL@LKLMNDDM@BOOT_LOADER_UPGRADE_FAILED?$AA@
  000f5	e8 00 00 00 00	 call	 _Error
  000fa	83 c4 04	 add	 esp, 4

; 1304 : 	return FALSE;

  000fd	33 c0		 xor	 eax, eax
$LN1@UpgradeBoo:

; 1305 : }

  000ff	8b 4d f4	 mov	 ecx, DWORD PTR __$EHRec$[ebp+4]
  00102	64 89 0d 00 00
	00 00		 mov	 DWORD PTR fs:0, ecx
  00109	59		 pop	 ecx
  0010a	5f		 pop	 edi
  0010b	5e		 pop	 esi
  0010c	5b		 pop	 ebx
  0010d	8b 4d ec	 mov	 ecx, DWORD PTR __$ArrayPad$[ebp]
  00110	33 cd		 xor	 ecx, ebp
  00112	e8 00 00 00 00	 call	 @__security_check_cookie@4
  00117	8b e5		 mov	 esp, ebp
  00119	5d		 pop	 ebp
  0011a	c3		 ret	 0
__catch$_UpgradeBootLoader$1:

; 1301 : 	catch (...) { }

  0011b	b8 00 00 00 00	 mov	 eax, $LN14@UpgradeBoo
  00120	c3		 ret	 0
_TEXT	ENDS
;	COMDAT text$x
text$x	SEGMENT
__unwindfunclet$_UpgradeBootLoader$3:
  00000	8d 8d 24 fa ff
	ff		 lea	 ecx, DWORD PTR _bootEnc$3[ebp]
  00006	e9 00 00 00 00	 jmp	 ??1BootEncryption@GostCrypt@@QAE@XZ ; GostCrypt::BootEncryption::~BootEncryption
__ehhandler$_UpgradeBootLoader:
  0000b	8b 54 24 08	 mov	 edx, DWORD PTR [esp+8]
  0000f	8d 42 0c	 lea	 eax, DWORD PTR [edx+12]
  00012	8b 8a 18 fa ff
	ff		 mov	 ecx, DWORD PTR [edx-1512]
  00018	33 c8		 xor	 ecx, eax
  0001a	e8 00 00 00 00	 call	 @__security_check_cookie@4
  0001f	8b 4a f8	 mov	 ecx, DWORD PTR [edx-8]
  00022	33 c8		 xor	 ecx, eax
  00024	e8 00 00 00 00	 call	 @__security_check_cookie@4
  00029	b8 00 00 00 00	 mov	 eax, OFFSET __ehfuncinfo$_UpgradeBootLoader
  0002e	e9 00 00 00 00	 jmp	 ___CxxFrameHandler3
text$x	ENDS
_UpgradeBootLoader ENDP
; Function compile flags: /Ogtp
; File c:\users\alexis\desktop\sources_gostcrypt_windows_1.3.1_commented\sources_gostcrypt_windows_1.3.1é\sources_gostcrypt_windows_1.3.1\setup\setup.c
;	COMDAT _SetInstallationPath
_TEXT	SEGMENT
_itemList$ = -1644					; size = 4
_size$1 = -1640						; size = 4
_hkey$ = -1636						; size = 4
$T2 = -1632						; size = 24
_s$3 = -1608						; size = 24
_mp$4 = -1584						; size = 260
_rv$5 = -1324						; size = 1040
_path$ = -284						; size = 280
__$ArrayPad$ = -4					; size = 4
_hwndDlg$ = 8						; size = 4
_SetInstallationPath PROC				; COMDAT

; 2042 : {

  00000	55		 push	 ebp
  00001	8b ec		 mov	 ebp, esp
  00003	81 ec 6c 06 00
	00		 sub	 esp, 1644		; 0000066cH
  00009	a1 00 00 00 00	 mov	 eax, DWORD PTR ___security_cookie
  0000e	33 c5		 xor	 eax, ebp
  00010	89 45 fc	 mov	 DWORD PTR __$ArrayPad$[ebp], eax
  00013	56		 push	 esi
  00014	57		 push	 edi
  00015	8b 7d 08	 mov	 edi, DWORD PTR _hwndDlg$[ebp]

; 2043 : 	HKEY hkey;
; 2044 : 	BOOL bInstallPathDetermined = FALSE;

  00018	33 f6		 xor	 esi, esi

; 2045 : 	char path[MAX_PATH+20];
; 2046 : 	ITEMIDLIST *itemList;
; 2047 : 
; 2048 : 	memset (InstallationPath, 0, sizeof (InstallationPath));

  0001a	68 04 01 00 00	 push	 260			; 00000104H
  0001f	56		 push	 esi
  00020	68 00 00 00 00	 push	 OFFSET _InstallationPath
  00025	e8 00 00 00 00	 call	 _memset
  0002a	83 c4 0c	 add	 esp, 12			; 0000000cH

; 2049 : 
; 2050 : 	// Determine if GostCrypt is already installed and try to determine its "Program Files" location
; 2051 : 	if (RegOpenKeyEx (HKEY_LOCAL_MACHINE, "Software\\Microsoft\\Windows\\CurrentVersion\\Uninstall\\GostCrypt", 0, KEY_READ, &hkey) == ERROR_SUCCESS)

  0002d	8d 85 9c f9 ff
	ff		 lea	 eax, DWORD PTR _hkey$[ebp]
  00033	50		 push	 eax
  00034	68 19 00 02 00	 push	 131097			; 00020019H
  00039	56		 push	 esi
  0003a	68 00 00 00 00	 push	 OFFSET ??_C@_0DO@MNMIDBOE@Software?2Microsoft?2Windows?2Curre@
  0003f	68 02 00 00 80	 push	 -2147483646		; 80000002H
  00044	ff 15 00 00 00
	00		 call	 DWORD PTR __imp__RegOpenKeyExA@20
  0004a	85 c0		 test	 eax, eax
  0004c	0f 85 41 02 00
	00		 jne	 $LN9@SetInstall

; 2052 : 	{
; 2053 : 		/* Default 'UninstallString' registry strings written by past versions of GostCrypt:
; 2054 : 		------------------------------------------------------------------------------------
; 2055 : 		1.0		C:\WINDOWS\GostCrypt Setup.exe /u			[optional]
; 2056 : 		1.0a	C:\WINDOWS\GostCrypt Setup.exe /u			[optional]
; 2057 : 		2.0		C:\WINDOWS\GostCrypt Setup.exe /u			[optional]
; 2058 : 		2.1		C:\WINDOWS\GostCrypt Setup.exe /u			[optional]
; 2059 : 		2.1a	C:\WINDOWS\GostCrypt Setup.exe /u			[optional]
; 2060 : 		3.0		C:\WINDOWS\GostCrypt Setup.exe /u			[optional]
; 2061 : 		3.0a	C:\WINDOWS\GostCrypt Setup.exe /u			[optional]
; 2062 : 		3.1		The UninstallString was NEVER written (fortunately, 3.1a replaced 3.1 after 2 weeks)
; 2063 : 		3.1a	C:\WINDOWS\GostCrypt Setup.exe /u
; 2064 : 		4.0		C:\WINDOWS\GostCrypt Setup.exe /u C:\Program Files\GostCrypt
; 2065 : 		4.1		C:\WINDOWS\GostCrypt Setup.exe /u C:\Program Files\GostCrypt
; 2066 : 		4.2		C:\WINDOWS\GostCrypt Setup.exe /u C:\Program Files\GostCrypt
; 2067 : 		4.2a	C:\WINDOWS\GostCrypt Setup.exe /u C:\Program Files\GostCrypt
; 2068 : 		4.3		"C:\Program Files\GostCrypt\GostCrypt Setup.exe" /u C:\Program Files\GostCrypt\
; 2069 : 		4.3a	"C:\Program Files\GostCrypt\GostCrypt Setup.exe" /u C:\Program Files\GostCrypt\
; 2070 : 		5.0+	"C:\Program Files\GostCrypt\GostCrypt Setup.exe" /u
; 2071 : 
; 2072 : 		Note: In versions 1.0-3.0a the user was able to choose whether to install the uninstaller.
; 2073 : 			  The default was to install it. If it wasn't installed, there was no UninstallString.
; 2074 : 		*/
; 2075 : 
; 2076 : 		char rv[MAX_PATH*4];
; 2077 : 		DWORD size = sizeof (rv);
; 2078 : 		if (RegQueryValueEx (hkey, "UninstallString", 0, 0, (LPBYTE) &rv, &size) == ERROR_SUCCESS && strrchr (rv, '/'))

  00052	8d 85 98 f9 ff
	ff		 lea	 eax, DWORD PTR _size$1[ebp]
  00058	c7 85 98 f9 ff
	ff 10 04 00 00	 mov	 DWORD PTR _size$1[ebp], 1040 ; 00000410H
  00062	50		 push	 eax
  00063	8d 85 d4 fa ff
	ff		 lea	 eax, DWORD PTR _rv$5[ebp]
  00069	50		 push	 eax
  0006a	56		 push	 esi
  0006b	56		 push	 esi
  0006c	68 00 00 00 00	 push	 OFFSET ??_C@_0BA@OJMJCMCH@UninstallString?$AA@
  00071	ff b5 9c f9 ff
	ff		 push	 DWORD PTR _hkey$[ebp]
  00077	ff 15 00 00 00
	00		 call	 DWORD PTR __imp__RegQueryValueExA@24
  0007d	85 c0		 test	 eax, eax
  0007f	0f 85 b3 00 00
	00		 jne	 $LN8@SetInstall
  00085	8d 85 d4 fa ff
	ff		 lea	 eax, DWORD PTR _rv$5[ebp]
  0008b	6a 2f		 push	 47			; 0000002fH
  0008d	50		 push	 eax
  0008e	e8 00 00 00 00	 call	 _strrchr
  00093	83 c4 08	 add	 esp, 8
  00096	85 c0		 test	 eax, eax
  00098	0f 84 9a 00 00
	00		 je	 $LN8@SetInstall

; 2079 : 		{
; 2080 : 			size_t len = 0;
; 2081 : 
; 2082 : 			// Cut and paste the location (path) where GostCrypt is installed to InstallationPath
; 2083 : 			if (rv[0] == '"')

  0009e	80 bd d4 fa ff
	ff 22		 cmp	 BYTE PTR _rv$5[ebp], 34	; 00000022H

; 2084 : 			{
; 2085 : 				// 4.3 or later
; 2086 : 
; 2087 : 				len = strrchr (rv, '/') - rv - 2;

  000a5	8d 85 d4 fa ff
	ff		 lea	 eax, DWORD PTR _rv$5[ebp]
  000ab	6a 2f		 push	 47			; 0000002fH
  000ad	50		 push	 eax
  000ae	0f 85 1f 01 00
	00		 jne	 $LN4@SetInstall
  000b4	e8 00 00 00 00	 call	 _strrchr
  000b9	8b f0		 mov	 esi, eax
  000bb	b9 fe ff ff ff	 mov	 ecx, -2			; fffffffeH
  000c0	8d 85 d4 fa ff
	ff		 lea	 eax, DWORD PTR _rv$5[ebp]
  000c6	2b c8		 sub	 ecx, eax

; 2088 : 				strncpy (InstallationPath, rv + 1, len);

  000c8	8d 85 d5 fa ff
	ff		 lea	 eax, DWORD PTR _rv$5[ebp+1]
  000ce	03 f1		 add	 esi, ecx
  000d0	56		 push	 esi
  000d1	50		 push	 eax
  000d2	68 00 00 00 00	 push	 OFFSET _InstallationPath
  000d7	e8 00 00 00 00	 call	 _strncpy
  000dc	83 c4 14	 add	 esp, 20			; 00000014H

; 2089 : 				InstallationPath [len] = 0;

  000df	81 fe 04 01 00
	00		 cmp	 esi, 260		; 00000104H
  000e5	0f 83 30 03 00
	00		 jae	 $LN190@SetInstall

; 2090 : 				bInstallPathDetermined = TRUE;
; 2091 : 
; 2092 : 				if (InstallationPath [strlen (InstallationPath) - 1] != '\\')

  000eb	b9 00 00 00 00	 mov	 ecx, OFFSET _InstallationPath
  000f0	c6 86 00 00 00
	00 00		 mov	 BYTE PTR _InstallationPath[esi], 0
  000f7	be 01 00 00 00	 mov	 esi, 1
  000fc	8d 51 01	 lea	 edx, DWORD PTR [ecx+1]
  000ff	90		 npad	 1
$LL181@SetInstall:
  00100	8a 01		 mov	 al, BYTE PTR [ecx]
  00102	41		 inc	 ecx
  00103	84 c0		 test	 al, al
  00105	75 f9		 jne	 SHORT $LL181@SetInstall
  00107	2b ca		 sub	 ecx, edx
  00109	80 b9 ff ff ff
	ff 5c		 cmp	 BYTE PTR _InstallationPath[ecx-1], 92 ; 0000005cH
  00110	74 26		 je	 SHORT $LN8@SetInstall

; 2093 : 				{
; 2094 : 					len = strrchr (InstallationPath, '\\') - InstallationPath;

  00112	6a 5c		 push	 92			; 0000005cH
  00114	68 00 00 00 00	 push	 OFFSET _InstallationPath
  00119	e8 00 00 00 00	 call	 _strrchr
  0011e	2d 00 00 00 00	 sub	 eax, OFFSET _InstallationPath
  00123	83 c4 08	 add	 esp, 8

; 2095 : 					InstallationPath [len] = 0;

  00126	3d 04 01 00 00	 cmp	 eax, 260		; 00000104H
  0012b	0f 83 ea 02 00
	00		 jae	 $LN190@SetInstall
  00131	c6 80 00 00 00
	00 00		 mov	 BYTE PTR _InstallationPath[eax], 0
$LN8@SetInstall:

; 2128 : 				}
; 2129 : 			}
; 2130 : 
; 2131 : 		}
; 2132 : 		RegCloseKey (hkey);

  00138	ff b5 9c f9 ff
	ff		 push	 DWORD PTR _hkey$[ebp]
  0013e	ff 15 00 00 00
	00		 call	 DWORD PTR __imp__RegCloseKey@4
  00144	85 f6		 test	 esi, esi

; 2133 : 	}
; 2134 : 
; 2135 : 	if (bInstallPathDetermined)

  00146	0f 84 47 01 00
	00		 je	 $LN9@SetInstall

; 2136 : 	{
; 2137 : 		char mp[MAX_PATH];
; 2138 : 
; 2139 : 		// Determine whether we were launched from the folder where GostCrypt is installed
; 2140 : 		GetModuleFileName (NULL, mp, sizeof (mp));

  0014c	68 04 01 00 00	 push	 260			; 00000104H
  00151	8d 85 d0 f9 ff
	ff		 lea	 eax, DWORD PTR _mp$4[ebp]
  00157	50		 push	 eax
  00158	6a 00		 push	 0
  0015a	ff 15 00 00 00
	00		 call	 DWORD PTR __imp__GetModuleFileNameA@12

; 2141 : 		if (strncmp (InstallationPath, mp, min (strlen(InstallationPath), strlen(mp))) == 0)

  00160	ba 00 00 00 00	 mov	 edx, OFFSET _InstallationPath
  00165	8d 4a 01	 lea	 ecx, DWORD PTR [edx+1]
$LL184@SetInstall:
  00168	8a 02		 mov	 al, BYTE PTR [edx]
  0016a	42		 inc	 edx
  0016b	84 c0		 test	 al, al
  0016d	75 f9		 jne	 SHORT $LL184@SetInstall
  0016f	2b d1		 sub	 edx, ecx
  00171	8d 8d d0 f9 ff
	ff		 lea	 ecx, DWORD PTR _mp$4[ebp]
  00177	8d 71 01	 lea	 esi, DWORD PTR [ecx+1]
  0017a	66 0f 1f 44 00
	00		 npad	 6
$LL185@SetInstall:
  00180	8a 01		 mov	 al, BYTE PTR [ecx]
  00182	41		 inc	 ecx
  00183	84 c0		 test	 al, al
  00185	75 f9		 jne	 SHORT $LL185@SetInstall
  00187	2b ce		 sub	 ecx, esi
  00189	8d 85 d0 f9 ff
	ff		 lea	 eax, DWORD PTR _mp$4[ebp]
  0018f	3b d1		 cmp	 edx, ecx
  00191	0f 42 ca	 cmovb	 ecx, edx
  00194	51		 push	 ecx
  00195	50		 push	 eax
  00196	68 00 00 00 00	 push	 OFFSET _InstallationPath
  0019b	e8 00 00 00 00	 call	 _strncmp
  001a0	83 c4 0c	 add	 esp, 12			; 0000000cH
  001a3	85 c0		 test	 eax, eax
  001a5	0f 85 2a 02 00
	00		 jne	 $LN10@SetInstall

; 2142 : 		{
; 2143 : 			// We were launched from the folder where GostCrypt is installed
; 2144 : 
; 2145 : 			if (!IsNonInstallMode() && !bDevm)

  001ab	e8 00 00 00 00	 call	 _IsNonInstallMode
  001b0	85 c0		 test	 eax, eax
  001b2	0f 85 1d 02 00
	00		 jne	 $LN10@SetInstall
  001b8	39 05 00 00 00
	00		 cmp	 DWORD PTR _bDevm, eax
  001be	0f 85 11 02 00
	00		 jne	 $LN10@SetInstall

; 2146 : 				bChangeMode = TRUE;

  001c4	c7 05 00 00 00
	00 01 00 00 00	 mov	 DWORD PTR ?bChangeMode@@3HA, 1 ; bChangeMode

; 2147 : 		}
; 2148 : 	}
; 2149 : 	else

  001ce	e9 02 02 00 00	 jmp	 $LN10@SetInstall
$LN4@SetInstall:

; 2096 : 				}
; 2097 : 			}
; 2098 : 			else
; 2099 : 			{
; 2100 : 				// 1.0-4.2a (except 3.1)
; 2101 : 
; 2102 : 				len = strrchr (rv, '/') - rv;

  001d3	e8 00 00 00 00	 call	 _strrchr
  001d8	8b f0		 mov	 esi, eax
  001da	83 c4 08	 add	 esp, 8
  001dd	8d 85 d4 fa ff
	ff		 lea	 eax, DWORD PTR _rv$5[ebp]
  001e3	2b f0		 sub	 esi, eax

; 2103 : 				if (rv[len+2] == ' ')

  001e5	80 bc 35 d6 fa
	ff ff 20	 cmp	 BYTE PTR _rv$5[ebp+esi+2], 32 ; 00000020H
  001ed	75 5d		 jne	 SHORT $LN7@SetInstall

; 2104 : 				{
; 2105 : 					// 4.0-4.2a
; 2106 : 
; 2107 : 					strncpy (InstallationPath, rv + len + 3, strlen (rv) - len - 3);

  001ef	8b c8		 mov	 ecx, eax
  001f1	8d 51 01	 lea	 edx, DWORD PTR [ecx+1]
$LL182@SetInstall:
  001f4	8a 01		 mov	 al, BYTE PTR [ecx]
  001f6	41		 inc	 ecx
  001f7	84 c0		 test	 al, al
  001f9	75 f9		 jne	 SHORT $LL182@SetInstall
  001fb	2b ca		 sub	 ecx, edx
  001fd	2b ce		 sub	 ecx, esi
  001ff	8d 41 fd	 lea	 eax, DWORD PTR [ecx-3]
  00202	50		 push	 eax
  00203	8d 85 d7 fa ff
	ff		 lea	 eax, DWORD PTR _rv$5[ebp+3]
  00209	03 c6		 add	 eax, esi
  0020b	50		 push	 eax
  0020c	68 00 00 00 00	 push	 OFFSET _InstallationPath
  00211	e8 00 00 00 00	 call	 _strncpy

; 2108 : 					InstallationPath [strlen (rv) - len - 3] = 0;

  00216	8d 8d d4 fa ff
	ff		 lea	 ecx, DWORD PTR _rv$5[ebp]
  0021c	83 c4 0c	 add	 esp, 12			; 0000000cH
  0021f	8d 51 01	 lea	 edx, DWORD PTR [ecx+1]
$LL183@SetInstall:
  00222	8a 01		 mov	 al, BYTE PTR [ecx]
  00224	41		 inc	 ecx
  00225	84 c0		 test	 al, al
  00227	75 f9		 jne	 SHORT $LL183@SetInstall
  00229	2b ca		 sub	 ecx, edx
  0022b	2b ce		 sub	 ecx, esi
  0022d	83 c1 fd	 add	 ecx, -3			; fffffffdH
  00230	81 f9 04 01 00
	00		 cmp	 ecx, 260		; 00000104H
  00236	0f 83 df 01 00
	00		 jae	 $LN190@SetInstall
  0023c	88 81 00 00 00
	00		 mov	 BYTE PTR _InstallationPath[ecx], al

; 2109 : 					bInstallPathDetermined = TRUE;

  00242	be 01 00 00 00	 mov	 esi, 1

; 2110 : 				}
; 2111 : 				else

  00247	e9 ec fe ff ff	 jmp	 $LN8@SetInstall
$LN7@SetInstall:

; 2112 : 				{
; 2113 : 					// 1.0-3.1a (except 3.1)
; 2114 : 
; 2115 : 					// We know that GostCrypt is installed but don't know where. It's not safe to continue installing
; 2116 : 					// over the old version.
; 2117 : 
; 2118 : 					Error ("UNINSTALL_OLD_VERSION_FIRST");

  0024c	68 00 00 00 00	 push	 OFFSET ??_C@_0BM@IFDMFKIM@UNINSTALL_OLD_VERSION_FIRST?$AA@
  00251	e8 00 00 00 00	 call	 _Error

; 2119 : 
; 2120 : 					len = strrchr (rv, '/') - rv - 1;

  00256	8d 85 d4 fa ff
	ff		 lea	 eax, DWORD PTR _rv$5[ebp]
  0025c	6a 2f		 push	 47			; 0000002fH
  0025e	50		 push	 eax
  0025f	e8 00 00 00 00	 call	 _strrchr
  00264	8b f0		 mov	 esi, eax
  00266	83 c9 ff	 or	 ecx, -1
  00269	8d 85 d4 fa ff
	ff		 lea	 eax, DWORD PTR _rv$5[ebp]
  0026f	2b c8		 sub	 ecx, eax
  00271	03 f1		 add	 esi, ecx

; 2121 : 					strncpy (InstallationPath, rv, len);	// Path and filename of the uninstaller

  00273	56		 push	 esi
  00274	50		 push	 eax
  00275	68 00 00 00 00	 push	 OFFSET _InstallationPath
  0027a	e8 00 00 00 00	 call	 _strncpy
  0027f	83 c4 18	 add	 esp, 24			; 00000018H

; 2122 : 					InstallationPath [len] = 0;

  00282	81 fe 04 01 00
	00		 cmp	 esi, 260		; 00000104H
  00288	0f 83 8d 01 00
	00		 jae	 $LN190@SetInstall
  0028e	e9 8d 01 00 00	 jmp	 $LN191@SetInstall
$LN9@SetInstall:

; 2150 : 	{
; 2151 : 		/* TrueCypt is not installed or it wasn't possible to determine where it is installed. */
; 2152 : 
; 2153 : 		// Default "Program Files" path. 
; 2154 : 		SHGetSpecialFolderLocation (hwndDlg, CSIDL_PROGRAM_FILES, &itemList);

  00293	8d 85 94 f9 ff
	ff		 lea	 eax, DWORD PTR _itemList$[ebp]
  00299	50		 push	 eax
  0029a	6a 26		 push	 38			; 00000026H
  0029c	57		 push	 edi
  0029d	ff 15 00 00 00
	00		 call	 DWORD PTR __imp__SHGetSpecialFolderLocation@12

; 2155 : 		SHGetPathFromIDList (itemList, path);

  002a3	8d 85 e4 fe ff
	ff		 lea	 eax, DWORD PTR _path$[ebp]
  002a9	50		 push	 eax
  002aa	ff b5 94 f9 ff
	ff		 push	 DWORD PTR _itemList$[ebp]
  002b0	ff 15 00 00 00
	00		 call	 DWORD PTR __imp__SHGetPathFromIDListA@8

; 2156 : 
; 2157 : 		if (Is64BitOs())

  002b6	e8 00 00 00 00	 call	 _Is64BitOs
  002bb	85 c0		 test	 eax, eax
  002bd	0f 84 c2 00 00
	00		 je	 $LN86@SetInstall

; 2158 : 		{
; 2159 : 			// Use a unified default installation path (registry redirection of %ProgramFiles% does not work if the installation path is user-selectable)
; 2160 : 			string s = path;

  002c3	8d 85 e4 fe ff
	ff		 lea	 eax, DWORD PTR _path$[ebp]
  002c9	50		 push	 eax
  002ca	8d 8d b8 f9 ff
	ff		 lea	 ecx, DWORD PTR _s$3[ebp]
  002d0	e8 00 00 00 00	 call	 ??0?$basic_string@DU?$char_traits@D@std@@V?$allocator@D@2@@std@@QAE@PBD@Z ; std::basic_string<char,std::char_traits<char>,std::allocator<char> >::basic_string<char,std::char_traits<char>,std::allocator<char> >

; 2161 : 			size_t p = s.find (" (x86)");

  002d5	6a 06		 push	 6
  002d7	6a 00		 push	 0
  002d9	68 00 00 00 00	 push	 OFFSET ??_C@_06NOEMODMP@?5?$CIx86?$CJ?$AA@
  002de	8d 8d b8 f9 ff
	ff		 lea	 ecx, DWORD PTR _s$3[ebp]
  002e4	e8 00 00 00 00	 call	 ?find@?$basic_string@DU?$char_traits@D@std@@V?$allocator@D@2@@std@@QBEIPBDII@Z ; std::basic_string<char,std::char_traits<char>,std::allocator<char> >::find

; 2162 : 			if (p != string::npos)

  002e9	83 f8 ff	 cmp	 eax, -1
  002ec	74 79		 je	 SHORT $LN15@SetInstall

; 2163 : 			{
; 2164 : 				s = s.substr (0, p);

  002ee	50		 push	 eax
  002ef	6a 00		 push	 0
  002f1	8d 85 a0 f9 ff
	ff		 lea	 eax, DWORD PTR $T2[ebp]
  002f7	50		 push	 eax
  002f8	8d 8d b8 f9 ff
	ff		 lea	 ecx, DWORD PTR _s$3[ebp]
  002fe	e8 00 00 00 00	 call	 ?substr@?$basic_string@DU?$char_traits@D@std@@V?$allocator@D@2@@std@@QBE?AV12@II@Z ; std::basic_string<char,std::char_traits<char>,std::allocator<char> >::substr
  00303	50		 push	 eax
  00304	8d 8d b8 f9 ff
	ff		 lea	 ecx, DWORD PTR _s$3[ebp]
  0030a	e8 00 00 00 00	 call	 ??4?$basic_string@DU?$char_traits@D@std@@V?$allocator@D@2@@std@@QAEAAV01@$$QAV01@@Z ; std::basic_string<char,std::char_traits<char>,std::allocator<char> >::operator=
  0030f	8d 8d a0 f9 ff
	ff		 lea	 ecx, DWORD PTR $T2[ebp]
  00315	e8 00 00 00 00	 call	 ??1?$basic_string@DU?$char_traits@D@std@@V?$allocator@D@2@@std@@QAE@XZ ; std::basic_string<char,std::char_traits<char>,std::allocator<char> >::~basic_string<char,std::char_traits<char>,std::allocator<char> >

; 2165 : 				if (_access (s.c_str(), 0) != -1)

  0031a	83 bd cc f9 ff
	ff 10		 cmp	 DWORD PTR _s$3[ebp+20], 16 ; 00000010H
  00321	8d 85 b8 f9 ff
	ff		 lea	 eax, DWORD PTR _s$3[ebp]
  00327	6a 00		 push	 0
  00329	0f 43 85 b8 f9
	ff ff		 cmovae	 eax, DWORD PTR _s$3[ebp]
  00330	50		 push	 eax
  00331	e8 00 00 00 00	 call	 __access
  00336	83 c4 08	 add	 esp, 8
  00339	83 f8 ff	 cmp	 eax, -1
  0033c	74 29		 je	 SHORT $LN15@SetInstall

; 2166 : 					strcpy_s (path, sizeof (path), s.c_str());

  0033e	83 bd cc f9 ff
	ff 10		 cmp	 DWORD PTR _s$3[ebp+20], 16 ; 00000010H
  00345	8d 85 b8 f9 ff
	ff		 lea	 eax, DWORD PTR _s$3[ebp]
  0034b	0f 43 85 b8 f9
	ff ff		 cmovae	 eax, DWORD PTR _s$3[ebp]
  00352	50		 push	 eax
  00353	8d 85 e4 fe ff
	ff		 lea	 eax, DWORD PTR _path$[ebp]
  00359	68 18 01 00 00	 push	 280			; 00000118H
  0035e	50		 push	 eax
  0035f	e8 00 00 00 00	 call	 _strcpy_s
  00364	83 c4 0c	 add	 esp, 12			; 0000000cH
$LN15@SetInstall:

; 2167 : 			}
; 2168 : 		}

  00367	8b 85 cc f9 ff
	ff		 mov	 eax, DWORD PTR _s$3[ebp+20]
  0036d	83 f8 10	 cmp	 eax, 16			; 00000010H
  00370	72 13		 jb	 SHORT $LN86@SetInstall
  00372	40		 inc	 eax
  00373	8d 8d b8 f9 ff
	ff		 lea	 ecx, DWORD PTR _s$3[ebp]
  00379	50		 push	 eax
  0037a	ff b5 b8 f9 ff
	ff		 push	 DWORD PTR _s$3[ebp]
  00380	e8 00 00 00 00	 call	 ?deallocate@?$_Wrap_alloc@V?$allocator@D@std@@@std@@QAEXPADI@Z ; std::_Wrap_alloc<std::allocator<char> >::deallocate
$LN86@SetInstall:

; 2169 : 
; 2170 : 		strncat (path, "\\GostCrypt\\", min (strlen("\\GostCrypt\\"), sizeof(path)-strlen(path)-1));

  00385	8d 8d e4 fe ff
	ff		 lea	 ecx, DWORD PTR _path$[ebp]
  0038b	8d 51 01	 lea	 edx, DWORD PTR [ecx+1]
  0038e	66 90		 npad	 2
$LL186@SetInstall:
  00390	8a 01		 mov	 al, BYTE PTR [ecx]
  00392	41		 inc	 ecx
  00393	84 c0		 test	 al, al
  00395	75 f9		 jne	 SHORT $LL186@SetInstall
  00397	2b ca		 sub	 ecx, edx
  00399	b8 17 01 00 00	 mov	 eax, 279		; 00000117H
  0039e	2b c1		 sub	 eax, ecx
  003a0	b9 0b 00 00 00	 mov	 ecx, 11			; 0000000bH
  003a5	3b c1		 cmp	 eax, ecx
  003a7	0f 47 c1	 cmova	 eax, ecx
  003aa	50		 push	 eax
  003ab	8d 85 e4 fe ff
	ff		 lea	 eax, DWORD PTR _path$[ebp]
  003b1	68 00 00 00 00	 push	 OFFSET ??_C@_0M@GKPCCOCO@?2GostCrypt?2?$AA@
  003b6	50		 push	 eax
  003b7	e8 00 00 00 00	 call	 _strncat

; 2171 : 		strncpy (InstallationPath, path, sizeof(InstallationPath)-1);

  003bc	68 03 01 00 00	 push	 259			; 00000103H
  003c1	8d 85 e4 fe ff
	ff		 lea	 eax, DWORD PTR _path$[ebp]
  003c7	50		 push	 eax
  003c8	68 00 00 00 00	 push	 OFFSET _InstallationPath
  003cd	e8 00 00 00 00	 call	 _strncpy
  003d2	83 c4 18	 add	 esp, 24			; 00000018H
$LN10@SetInstall:

; 2172 : 	}
; 2173 : 
; 2174 : 	// Make sure the path ends with a backslash
; 2175 : 	if (InstallationPath [strlen (InstallationPath) - 1] != '\\')

  003d5	b9 00 00 00 00	 mov	 ecx, OFFSET _InstallationPath
  003da	8d 51 01	 lea	 edx, DWORD PTR [ecx+1]
  003dd	0f 1f 00	 npad	 3
$LL187@SetInstall:
  003e0	8a 01		 mov	 al, BYTE PTR [ecx]
  003e2	41		 inc	 ecx
  003e3	84 c0		 test	 al, al
  003e5	75 f9		 jne	 SHORT $LL187@SetInstall
  003e7	2b ca		 sub	 ecx, edx
  003e9	80 b9 ff ff ff
	ff 5c		 cmp	 BYTE PTR _InstallationPath[ecx-1], 92 ; 0000005cH
  003f0	74 19		 je	 SHORT $LN16@SetInstall

; 2176 : 	{
; 2177 : 		strcat (InstallationPath, "\\");

  003f2	bf 00 00 00 00	 mov	 edi, OFFSET _InstallationPath
  003f7	4f		 dec	 edi
$LL188@SetInstall:
  003f8	8a 47 01	 mov	 al, BYTE PTR [edi+1]
  003fb	8d 7f 01	 lea	 edi, DWORD PTR [edi+1]
  003fe	84 c0		 test	 al, al
  00400	75 f6		 jne	 SHORT $LL188@SetInstall
  00402	66 a1 00 00 00
	00		 mov	 ax, WORD PTR ??_C@_01KICIPPFI@?2?$AA@
  00408	66 89 07	 mov	 WORD PTR [edi], ax
$LN16@SetInstall:

; 2178 : 	}
; 2179 : }

  0040b	8b 4d fc	 mov	 ecx, DWORD PTR __$ArrayPad$[ebp]
  0040e	5f		 pop	 edi
  0040f	33 cd		 xor	 ecx, ebp
  00411	5e		 pop	 esi
  00412	e8 00 00 00 00	 call	 @__security_check_cookie@4
  00417	8b e5		 mov	 esp, ebp
  00419	5d		 pop	 ebp
  0041a	c3		 ret	 0
$LN190@SetInstall:

; 2095 : 					InstallationPath [len] = 0;

  0041b	e8 00 00 00 00	 call	 ___report_rangecheckfailure
$LN192@SetInstall:
$LN191@SetInstall:

; 2123 : 					bInstallPathDetermined = FALSE;
; 2124 : 
; 2125 : 					ShellExecute (NULL, "open", InstallationPath, "/u", NULL, SW_SHOWNORMAL);

  00420	6a 01		 push	 1
  00422	6a 00		 push	 0
  00424	68 00 00 00 00	 push	 OFFSET ??_C@_02GBOHKKID@?1u?$AA@
  00429	68 00 00 00 00	 push	 OFFSET _InstallationPath
  0042e	68 00 00 00 00	 push	 OFFSET ??_C@_04PMOCAHAA@open?$AA@
  00433	6a 00		 push	 0
  00435	c6 86 00 00 00
	00 00		 mov	 BYTE PTR _InstallationPath[esi], 0
  0043c	ff 15 00 00 00
	00		 call	 DWORD PTR __imp__ShellExecuteA@24

; 2126 : 					RegCloseKey (hkey);

  00442	ff b5 9c f9 ff
	ff		 push	 DWORD PTR _hkey$[ebp]
  00448	ff 15 00 00 00
	00		 call	 DWORD PTR __imp__RegCloseKey@4

; 2127 : 					exit (1);

  0044e	6a 01		 push	 1
  00450	e8 00 00 00 00	 call	 _exit
$LN193@SetInstall:
$LN189@SetInstall:
  00455	cc		 int	 3
_SetInstallationPath ENDP
_TEXT	ENDS
; Function compile flags: /Ogtp
; File c:\users\alexis\desktop\sources_gostcrypt_windows_1.3.1_commented\sources_gostcrypt_windows_1.3.1é\sources_gostcrypt_windows_1.3.1\setup\setup.c
;	COMDAT _DoInstall
_TEXT	SEGMENT
_e$2 = -2588						; size = 4
_favoritesXml$1$ = -2584				; size = 4
_favoritesFilename$1$ = -2580				; size = 4
_arg$GSCopy$ = -2576					; size = 4
$T3 = -2572						; size = 4
_size$4 = -2572						; size = 4
_bOK$ = -2568						; size = 4
$T5 = -2561						; size = 1
_bootEnc$ = -2560					; size = 1480
$T6 = -1080						; size = 24
$T7 = -1056						; size = 24
$T8 = -1032						; size = 24
$T9 = -1008						; size = 24
$T10 = -984						; size = 24
$T11 = -960						; size = 24
$T12 = -936						; size = 24
_sysFavorites$13 = -912					; size = 24
$T14 = -912						; size = 24
_legacySysFavorites$15 = -888				; size = 24
_favorites$16 = -888					; size = 24
$T17 = -888						; size = 24
_regVal$18 = -864					; size = 520
_szTmp$19 = -864					; size = 520
_path$ = -344						; size = 260
_regk$20 = -84						; size = 64
__$ArrayPad$ = -20					; size = 4
__$EHRec$ = -16						; size = 16
_arg$ = 8						; size = 4
_DoInstall PROC						; COMDAT

; 1745 : {

  00000	55		 push	 ebp
  00001	8b ec		 mov	 ebp, esp
  00003	6a ff		 push	 -1
  00005	68 00 00 00 00	 push	 __ehhandler$_DoInstall
  0000a	64 a1 00 00 00
	00		 mov	 eax, DWORD PTR fs:0
  00010	50		 push	 eax
  00011	81 ec 10 0a 00
	00		 sub	 esp, 2576		; 00000a10H
  00017	a1 00 00 00 00	 mov	 eax, DWORD PTR ___security_cookie
  0001c	33 c5		 xor	 eax, ebp
  0001e	89 45 ec	 mov	 DWORD PTR __$ArrayPad$[ebp], eax
  00021	53		 push	 ebx
  00022	56		 push	 esi
  00023	57		 push	 edi
  00024	50		 push	 eax
  00025	8d 45 f4	 lea	 eax, DWORD PTR __$EHRec$[ebp+4]
  00028	64 a3 00 00 00
	00		 mov	 DWORD PTR fs:0, eax
  0002e	89 65 f0	 mov	 DWORD PTR __$EHRec$[ebp], esp
  00031	8b 7d 08	 mov	 edi, DWORD PTR _arg$[ebp]

; 1746 : 	HWND hwndDlg = (HWND) arg;
; 1747 : 	BOOL bOK = TRUE;
; 1748 : 	char path[MAX_PATH];
; 1749 : 
; 1750 : 	BootEncryption bootEnc (hwndDlg);

  00034	8d 8d 00 f6 ff
	ff		 lea	 ecx, DWORD PTR _bootEnc$[ebp]
  0003a	33 db		 xor	 ebx, ebx
  0003c	89 bd f0 f5 ff
	ff		 mov	 DWORD PTR _arg$GSCopy$[ebp], edi
  00042	57		 push	 edi
  00043	89 9d f4 f5 ff
	ff		 mov	 DWORD PTR $T3[ebp], ebx
  00049	c7 85 f8 f5 ff
	ff 01 00 00 00	 mov	 DWORD PTR _bOK$[ebp], 1
  00053	e8 00 00 00 00	 call	 ??0BootEncryption@GostCrypt@@QAE@PAUHWND__@@@Z ; GostCrypt::BootEncryption::BootEncryption

; 1751 : 
; 1752 : 	// Refresh the main GUI (wizard thread)
; 1753 : 	InvalidateRect (MainDlg, NULL, TRUE);

  00058	6a 01		 push	 1
  0005a	53		 push	 ebx
  0005b	ff 35 00 00 00
	00		 push	 DWORD PTR _MainDlg
  00061	89 5d fc	 mov	 DWORD PTR __$EHRec$[ebp+12], ebx
  00064	ff 15 00 00 00
	00		 call	 DWORD PTR __imp__InvalidateRect@12

; 1754 : 
; 1755 : 	ClearLogWindow (hwndDlg);

  0006a	53		 push	 ebx
  0006b	53		 push	 ebx
  0006c	68 84 01 00 00	 push	 388			; 00000184H
  00071	68 f9 03 00 00	 push	 1017			; 000003f9H
  00076	57		 push	 edi
  00077	ff 15 00 00 00
	00		 call	 DWORD PTR __imp__GetDlgItem@8
  0007d	50		 push	 eax
  0007e	ff 15 00 00 00
	00		 call	 DWORD PTR __imp__SendMessageA@16

; 1756 : 
; 1757 : 	if (mkfulldir (InstallationPath, TRUE) != 0)

  00084	6a 01		 push	 1
  00086	68 00 00 00 00	 push	 OFFSET _InstallationPath
  0008b	e8 00 00 00 00	 call	 _mkfulldir
  00090	83 c4 08	 add	 esp, 8
  00093	85 c0		 test	 eax, eax
  00095	74 6f		 je	 SHORT $LN5@DoInstall

; 1758 : 	{
; 1759 : 		if (mkfulldir (InstallationPath, FALSE) != 0)

  00097	53		 push	 ebx
  00098	68 00 00 00 00	 push	 OFFSET _InstallationPath
  0009d	e8 00 00 00 00	 call	 _mkfulldir
  000a2	83 c4 08	 add	 esp, 8
  000a5	85 c0		 test	 eax, eax
  000a7	74 5d		 je	 SHORT $LN5@DoInstall

; 1760 : 		{
; 1761 : 			wchar_t szTmp[GST_MAX_PATH];
; 1762 : 
; 1763 : 			handleWin32Error (hwndDlg);

  000a9	57		 push	 edi
  000aa	e8 00 00 00 00	 call	 _handleWin32Error
  000af	83 c4 04	 add	 esp, 4

; 1764 : 			wsprintfW (szTmp, GetString ("CANT_CREATE_FOLDER"), InstallationPath);

  000b2	68 00 00 00 00	 push	 OFFSET _InstallationPath
  000b7	68 00 00 00 00	 push	 OFFSET ??_C@_0BD@KJOFIBFE@CANT_CREATE_FOLDER?$AA@
  000bc	e8 00 00 00 00	 call	 _GetString
  000c1	83 c4 04	 add	 esp, 4
  000c4	50		 push	 eax
  000c5	8d 85 a0 fc ff
	ff		 lea	 eax, DWORD PTR _szTmp$19[ebp]
  000cb	50		 push	 eax
  000cc	ff 15 00 00 00
	00		 call	 DWORD PTR __imp__wsprintfW
  000d2	83 c4 0c	 add	 esp, 12			; 0000000cH

; 1765 : 			MessageBoxW (hwndDlg, szTmp, lpszTitle, MB_ICONHAND);

  000d5	8d 85 a0 fc ff
	ff		 lea	 eax, DWORD PTR _szTmp$19[ebp]
  000db	6a 10		 push	 16			; 00000010H
  000dd	ff 35 00 00 00
	00		 push	 DWORD PTR _lpszTitle
  000e3	50		 push	 eax
  000e4	57		 push	 edi
  000e5	ff 15 00 00 00
	00		 call	 DWORD PTR __imp__MessageBoxW@16

; 1766 : 			Error ("INSTALL_FAILED");

  000eb	68 00 00 00 00	 push	 OFFSET ??_C@_0P@DHOALJNC@INSTALL_FAILED?$AA@
$LN1250@DoInstall:
  000f0	e8 00 00 00 00	 call	 _Error
  000f5	83 c4 04	 add	 esp, 4

; 1767 : 			PostMessage (MainDlg, GST_APPMSG_INSTALL_FAILURE, 0, 0);

  000f8	6a 00		 push	 0
  000fa	6a 00		 push	 0
  000fc	68 94 81 00 00	 push	 33172			; 00008194H

; 1768 : 			return;

  00101	e9 56 0b 00 00	 jmp	 $LN1246@DoInstall
$LN5@DoInstall:

; 1769 : 		}
; 1770 : 	}
; 1771 : 
; 1772 : 	UpdateProgressBarProc(2);

  00106	6a 02		 push	 2
  00108	e8 00 00 00 00	 call	 _UpdateProgressBarProc

; 1773 : 
; 1774 : 	if (DoDriverUnload (hwndDlg) == FALSE)

  0010d	57		 push	 edi
  0010e	e8 00 00 00 00	 call	 _DoDriverUnload
  00113	83 c4 08	 add	 esp, 8
  00116	85 c0		 test	 eax, eax
  00118	75 13		 jne	 SHORT $LN6@DoInstall

; 1775 : 	{
; 1776 : 		NormalCursor ();

  0011a	e8 00 00 00 00	 call	 _NormalCursor

; 1777 : 		PostMessage (MainDlg, GST_APPMSG_INSTALL_FAILURE, 0, 0);

  0011f	6a 00		 push	 0
  00121	6a 00		 push	 0
  00123	68 94 81 00 00	 push	 33172			; 00008194H

; 1778 : 		return;

  00128	e9 2f 0b 00 00	 jmp	 $LN1246@DoInstall
$LN6@DoInstall:

; 1779 : 	}
; 1780 : 
; 1781 : 	if (bUpgrade
; 1782 : 		&& (IsFileInUse (string (InstallationPath) + '\\' + GST_APP_NAME ".exe")

  0012d	83 3d 00 00 00
	00 00		 cmp	 DWORD PTR _bUpgrade, 0
  00134	0f 84 53 01 00
	00		 je	 $LN62@DoInstall
  0013a	68 00 00 00 00	 push	 OFFSET _InstallationPath
  0013f	8d 8d c8 fb ff
	ff		 lea	 ecx, DWORD PTR $T6[ebp]
  00145	e8 00 00 00 00	 call	 ??0?$basic_string@DU?$char_traits@D@std@@V?$allocator@D@2@@std@@QAE@PBD@Z ; std::basic_string<char,std::char_traits<char>,std::allocator<char> >::basic_string<char,std::char_traits<char>,std::allocator<char> >
  0014a	6a 5c		 push	 92			; 0000005cH
  0014c	50		 push	 eax
  0014d	8d 85 e0 fb ff
	ff		 lea	 eax, DWORD PTR $T7[ebp]
  00153	c6 45 fc 01	 mov	 BYTE PTR __$EHRec$[ebp+12], 1
  00157	50		 push	 eax
  00158	c7 85 f4 f5 ff
	ff 01 00 00 00	 mov	 DWORD PTR $T3[ebp], 1
  00162	e8 00 00 00 00	 call	 ??$?HDU?$char_traits@D@std@@V?$allocator@D@1@@std@@YA?AV?$basic_string@DU?$char_traits@D@std@@V?$allocator@D@2@@0@$$QAV10@D@Z ; std::operator+<char,std::char_traits<char>,std::allocator<char> >
  00167	68 00 00 00 00	 push	 OFFSET ??_C@_0O@GKOBNEPO@GostCrypt?4exe?$AA@
  0016c	50		 push	 eax
  0016d	8d 85 f8 fb ff
	ff		 lea	 eax, DWORD PTR $T8[ebp]
  00173	c7 45 fc 02 00
	00 00		 mov	 DWORD PTR __$EHRec$[ebp+12], 2
  0017a	50		 push	 eax
  0017b	c7 85 f4 f5 ff
	ff 03 00 00 00	 mov	 DWORD PTR $T3[ebp], 3
  00185	e8 00 00 00 00	 call	 ??$?HDU?$char_traits@D@std@@V?$allocator@D@1@@std@@YA?AV?$basic_string@DU?$char_traits@D@std@@V?$allocator@D@2@@0@$$QAV10@PBD@Z ; std::operator+<char,std::char_traits<char>,std::allocator<char> >
  0018a	bb 07 00 00 00	 mov	 ebx, 7
  0018f	c7 45 fc 03 00
	00 00		 mov	 DWORD PTR __$EHRec$[ebp+12], 3
  00196	50		 push	 eax
  00197	89 9d f4 f5 ff
	ff		 mov	 DWORD PTR $T3[ebp], ebx
  0019d	e8 00 00 00 00	 call	 ?IsFileInUse@@YAHABV?$basic_string@DU?$char_traits@D@std@@V?$allocator@D@2@@std@@@Z ; IsFileInUse
  001a2	83 c4 1c	 add	 esp, 28			; 0000001cH
  001a5	85 c0		 test	 eax, eax
  001a7	0f 85 d7 00 00
	00		 jne	 $LN61@DoInstall
  001ad	68 00 00 00 00	 push	 OFFSET _InstallationPath
  001b2	8d 8d 10 fc ff
	ff		 lea	 ecx, DWORD PTR $T9[ebp]
  001b8	e8 00 00 00 00	 call	 ??0?$basic_string@DU?$char_traits@D@std@@V?$allocator@D@2@@std@@QAE@PBD@Z ; std::basic_string<char,std::char_traits<char>,std::allocator<char> >::basic_string<char,std::char_traits<char>,std::allocator<char> >
  001bd	6a 5c		 push	 92			; 0000005cH
  001bf	50		 push	 eax
  001c0	8d 85 28 fc ff
	ff		 lea	 eax, DWORD PTR $T10[ebp]
  001c6	c7 45 fc 04 00
	00 00		 mov	 DWORD PTR __$EHRec$[ebp+12], 4
  001cd	50		 push	 eax
  001ce	c7 85 f4 f5 ff
	ff 0f 00 00 00	 mov	 DWORD PTR $T3[ebp], 15	; 0000000fH
  001d8	e8 00 00 00 00	 call	 ??$?HDU?$char_traits@D@std@@V?$allocator@D@1@@std@@YA?AV?$basic_string@DU?$char_traits@D@std@@V?$allocator@D@2@@0@$$QAV10@D@Z ; std::operator+<char,std::char_traits<char>,std::allocator<char> >
  001dd	68 00 00 00 00	 push	 OFFSET ??_C@_0BF@MBKAOEOG@GostCrypt?5Format?4exe?$AA@
  001e2	50		 push	 eax
  001e3	8d 85 40 fc ff
	ff		 lea	 eax, DWORD PTR $T11[ebp]
  001e9	c7 45 fc 05 00
	00 00		 mov	 DWORD PTR __$EHRec$[ebp+12], 5
  001f0	50		 push	 eax
  001f1	c7 85 f4 f5 ff
	ff 1f 00 00 00	 mov	 DWORD PTR $T3[ebp], 31	; 0000001fH
  001fb	e8 00 00 00 00	 call	 ??$?HDU?$char_traits@D@std@@V?$allocator@D@1@@std@@YA?AV?$basic_string@DU?$char_traits@D@std@@V?$allocator@D@2@@0@$$QAV10@PBD@Z ; std::operator+<char,std::char_traits<char>,std::allocator<char> >
  00200	bb 3f 00 00 00	 mov	 ebx, 63			; 0000003fH
  00205	c7 45 fc 06 00
	00 00		 mov	 DWORD PTR __$EHRec$[ebp+12], 6
  0020c	50		 push	 eax
  0020d	89 9d f4 f5 ff
	ff		 mov	 DWORD PTR $T3[ebp], ebx
  00213	e8 00 00 00 00	 call	 ?IsFileInUse@@YAHABV?$basic_string@DU?$char_traits@D@std@@V?$allocator@D@2@@std@@@Z ; IsFileInUse
  00218	83 c4 1c	 add	 esp, 28			; 0000001cH
  0021b	85 c0		 test	 eax, eax
  0021d	75 65		 jne	 SHORT $LN61@DoInstall
  0021f	68 00 00 00 00	 push	 OFFSET _InstallationPath
  00224	8d 8d 58 fc ff
	ff		 lea	 ecx, DWORD PTR $T12[ebp]
  0022a	e8 00 00 00 00	 call	 ??0?$basic_string@DU?$char_traits@D@std@@V?$allocator@D@2@@std@@QAE@PBD@Z ; std::basic_string<char,std::char_traits<char>,std::allocator<char> >::basic_string<char,std::char_traits<char>,std::allocator<char> >
  0022f	6a 5c		 push	 92			; 0000005cH
  00231	50		 push	 eax
  00232	8d 85 88 fc ff
	ff		 lea	 eax, DWORD PTR $T17[ebp]
  00238	c7 45 fc 07 00
	00 00		 mov	 DWORD PTR __$EHRec$[ebp+12], 7
  0023f	50		 push	 eax
  00240	c7 85 f4 f5 ff
	ff 7f 00 00 00	 mov	 DWORD PTR $T3[ebp], 127	; 0000007fH
  0024a	e8 00 00 00 00	 call	 ??$?HDU?$char_traits@D@std@@V?$allocator@D@1@@std@@YA?AV?$basic_string@DU?$char_traits@D@std@@V?$allocator@D@2@@0@$$QAV10@D@Z ; std::operator+<char,std::char_traits<char>,std::allocator<char> >
  0024f	68 00 00 00 00	 push	 OFFSET ??_C@_0BE@CHHIEGKC@GostCrypt?5Setup?4exe?$AA@
  00254	50		 push	 eax
  00255	8d 85 70 fc ff
	ff		 lea	 eax, DWORD PTR $T14[ebp]
  0025b	c7 45 fc 08 00
	00 00		 mov	 DWORD PTR __$EHRec$[ebp+12], 8
  00262	50		 push	 eax
  00263	c7 85 f4 f5 ff
	ff ff 00 00 00	 mov	 DWORD PTR $T3[ebp], 255	; 000000ffH
  0026d	e8 00 00 00 00	 call	 ??$?HDU?$char_traits@D@std@@V?$allocator@D@1@@std@@YA?AV?$basic_string@DU?$char_traits@D@std@@V?$allocator@D@2@@0@$$QAV10@PBD@Z ; std::operator+<char,std::char_traits<char>,std::allocator<char> >
  00272	50		 push	 eax
  00273	bb ff 01 00 00	 mov	 ebx, 511		; 000001ffH
  00278	e8 00 00 00 00	 call	 ?IsFileInUse@@YAHABV?$basic_string@DU?$char_traits@D@std@@V?$allocator@D@2@@std@@@Z ; IsFileInUse
  0027d	83 c4 1c	 add	 esp, 28			; 0000001cH
  00280	85 c0		 test	 eax, eax
  00282	74 09		 je	 SHORT $LN62@DoInstall
$LN61@DoInstall:
  00284	c6 85 ff f5 ff
	ff 01		 mov	 BYTE PTR $T5[ebp], 1
  0028b	eb 07		 jmp	 SHORT $LN63@DoInstall
$LN62@DoInstall:
  0028d	c6 85 ff f5 ff
	ff 00		 mov	 BYTE PTR $T5[ebp], 0
$LN63@DoInstall:
  00294	f7 c3 00 01 00
	00		 test	 ebx, 256		; 00000100H
  0029a	74 3f		 je	 SHORT $LN118@DoInstall
  0029c	8b 85 84 fc ff
	ff		 mov	 eax, DWORD PTR $T14[ebp+20]
  002a2	81 e3 ff fe ff
	ff		 and	 ebx, -257		; fffffeffH
  002a8	83 f8 10	 cmp	 eax, 16			; 00000010H
  002ab	72 13		 jb	 SHORT $LN123@DoInstall
  002ad	40		 inc	 eax
  002ae	8d 8d 70 fc ff
	ff		 lea	 ecx, DWORD PTR $T14[ebp]
  002b4	50		 push	 eax
  002b5	ff b5 70 fc ff
	ff		 push	 DWORD PTR $T14[ebp]
  002bb	e8 00 00 00 00	 call	 ?deallocate@?$_Wrap_alloc@V?$allocator@D@std@@@std@@QAEXPADI@Z ; std::_Wrap_alloc<std::allocator<char> >::deallocate
$LN123@DoInstall:
  002c0	c7 85 84 fc ff
	ff 0f 00 00 00	 mov	 DWORD PTR $T14[ebp+20], 15 ; 0000000fH
  002ca	c7 85 80 fc ff
	ff 00 00 00 00	 mov	 DWORD PTR $T14[ebp+16], 0
  002d4	c6 85 70 fc ff
	ff 00		 mov	 BYTE PTR $T14[ebp], 0
$LN118@DoInstall:
  002db	84 db		 test	 bl, bl
  002dd	79 3f		 jns	 SHORT $LN219@DoInstall
  002df	8b 85 9c fc ff
	ff		 mov	 eax, DWORD PTR $T17[ebp+20]
  002e5	81 e3 7f ff ff
	ff		 and	 ebx, -129		; ffffff7fH
  002eb	83 f8 10	 cmp	 eax, 16			; 00000010H
  002ee	72 13		 jb	 SHORT $LN224@DoInstall
  002f0	40		 inc	 eax
  002f1	8d 8d 88 fc ff
	ff		 lea	 ecx, DWORD PTR $T17[ebp]
  002f7	50		 push	 eax
  002f8	ff b5 88 fc ff
	ff		 push	 DWORD PTR $T17[ebp]
  002fe	e8 00 00 00 00	 call	 ?deallocate@?$_Wrap_alloc@V?$allocator@D@std@@@std@@QAEXPADI@Z ; std::_Wrap_alloc<std::allocator<char> >::deallocate
$LN224@DoInstall:
  00303	c7 85 9c fc ff
	ff 0f 00 00 00	 mov	 DWORD PTR $T17[ebp+20], 15 ; 0000000fH
  0030d	c7 85 98 fc ff
	ff 00 00 00 00	 mov	 DWORD PTR $T17[ebp+16], 0
  00317	c6 85 88 fc ff
	ff 00		 mov	 BYTE PTR $T17[ebp], 0
$LN219@DoInstall:
  0031e	f6 c3 40	 test	 bl, 64			; 00000040H
  00321	74 3c		 je	 SHORT $LN320@DoInstall
  00323	8b 85 6c fc ff
	ff		 mov	 eax, DWORD PTR $T12[ebp+20]
  00329	83 e3 bf	 and	 ebx, -65		; ffffffbfH
  0032c	83 f8 10	 cmp	 eax, 16			; 00000010H
  0032f	72 13		 jb	 SHORT $LN325@DoInstall
  00331	40		 inc	 eax
  00332	8d 8d 58 fc ff
	ff		 lea	 ecx, DWORD PTR $T12[ebp]
  00338	50		 push	 eax
  00339	ff b5 58 fc ff
	ff		 push	 DWORD PTR $T12[ebp]
  0033f	e8 00 00 00 00	 call	 ?deallocate@?$_Wrap_alloc@V?$allocator@D@std@@@std@@QAEXPADI@Z ; std::_Wrap_alloc<std::allocator<char> >::deallocate
$LN325@DoInstall:
  00344	c7 85 6c fc ff
	ff 0f 00 00 00	 mov	 DWORD PTR $T12[ebp+20], 15 ; 0000000fH
  0034e	c7 85 68 fc ff
	ff 00 00 00 00	 mov	 DWORD PTR $T12[ebp+16], 0
  00358	c6 85 58 fc ff
	ff 00		 mov	 BYTE PTR $T12[ebp], 0
$LN320@DoInstall:
  0035f	f6 c3 20	 test	 bl, 32			; 00000020H
  00362	74 3c		 je	 SHORT $LN421@DoInstall
  00364	8b 85 54 fc ff
	ff		 mov	 eax, DWORD PTR $T11[ebp+20]
  0036a	83 e3 df	 and	 ebx, -33		; ffffffdfH
  0036d	83 f8 10	 cmp	 eax, 16			; 00000010H
  00370	72 13		 jb	 SHORT $LN426@DoInstall
  00372	40		 inc	 eax
  00373	8d 8d 40 fc ff
	ff		 lea	 ecx, DWORD PTR $T11[ebp]
  00379	50		 push	 eax
  0037a	ff b5 40 fc ff
	ff		 push	 DWORD PTR $T11[ebp]
  00380	e8 00 00 00 00	 call	 ?deallocate@?$_Wrap_alloc@V?$allocator@D@std@@@std@@QAEXPADI@Z ; std::_Wrap_alloc<std::allocator<char> >::deallocate
$LN426@DoInstall:
  00385	c7 85 54 fc ff
	ff 0f 00 00 00	 mov	 DWORD PTR $T11[ebp+20], 15 ; 0000000fH
  0038f	c7 85 50 fc ff
	ff 00 00 00 00	 mov	 DWORD PTR $T11[ebp+16], 0
  00399	c6 85 40 fc ff
	ff 00		 mov	 BYTE PTR $T11[ebp], 0
$LN421@DoInstall:
  003a0	f6 c3 10	 test	 bl, 16			; 00000010H
  003a3	74 3c		 je	 SHORT $LN522@DoInstall
  003a5	8b 85 3c fc ff
	ff		 mov	 eax, DWORD PTR $T10[ebp+20]
  003ab	83 e3 ef	 and	 ebx, -17		; ffffffefH
  003ae	83 f8 10	 cmp	 eax, 16			; 00000010H
  003b1	72 13		 jb	 SHORT $LN527@DoInstall
  003b3	40		 inc	 eax
  003b4	8d 8d 28 fc ff
	ff		 lea	 ecx, DWORD PTR $T10[ebp]
  003ba	50		 push	 eax
  003bb	ff b5 28 fc ff
	ff		 push	 DWORD PTR $T10[ebp]
  003c1	e8 00 00 00 00	 call	 ?deallocate@?$_Wrap_alloc@V?$allocator@D@std@@@std@@QAEXPADI@Z ; std::_Wrap_alloc<std::allocator<char> >::deallocate
$LN527@DoInstall:
  003c6	c7 85 3c fc ff
	ff 0f 00 00 00	 mov	 DWORD PTR $T10[ebp+20], 15 ; 0000000fH
  003d0	c7 85 38 fc ff
	ff 00 00 00 00	 mov	 DWORD PTR $T10[ebp+16], 0
  003da	c6 85 28 fc ff
	ff 00		 mov	 BYTE PTR $T10[ebp], 0
$LN522@DoInstall:
  003e1	f6 c3 08	 test	 bl, 8
  003e4	74 3c		 je	 SHORT $LN623@DoInstall
  003e6	8b 85 24 fc ff
	ff		 mov	 eax, DWORD PTR $T9[ebp+20]
  003ec	83 e3 f7	 and	 ebx, -9			; fffffff7H
  003ef	83 f8 10	 cmp	 eax, 16			; 00000010H
  003f2	72 13		 jb	 SHORT $LN628@DoInstall
  003f4	40		 inc	 eax
  003f5	8d 8d 10 fc ff
	ff		 lea	 ecx, DWORD PTR $T9[ebp]
  003fb	50		 push	 eax
  003fc	ff b5 10 fc ff
	ff		 push	 DWORD PTR $T9[ebp]
  00402	e8 00 00 00 00	 call	 ?deallocate@?$_Wrap_alloc@V?$allocator@D@std@@@std@@QAEXPADI@Z ; std::_Wrap_alloc<std::allocator<char> >::deallocate
$LN628@DoInstall:
  00407	c7 85 24 fc ff
	ff 0f 00 00 00	 mov	 DWORD PTR $T9[ebp+20], 15 ; 0000000fH
  00411	c7 85 20 fc ff
	ff 00 00 00 00	 mov	 DWORD PTR $T9[ebp+16], 0
  0041b	c6 85 10 fc ff
	ff 00		 mov	 BYTE PTR $T9[ebp], 0
$LN623@DoInstall:
  00422	f6 c3 04	 test	 bl, 4
  00425	74 3c		 je	 SHORT $LN724@DoInstall
  00427	8b 85 0c fc ff
	ff		 mov	 eax, DWORD PTR $T8[ebp+20]
  0042d	83 e3 fb	 and	 ebx, -5			; fffffffbH
  00430	83 f8 10	 cmp	 eax, 16			; 00000010H
  00433	72 13		 jb	 SHORT $LN729@DoInstall
  00435	40		 inc	 eax
  00436	8d 8d f8 fb ff
	ff		 lea	 ecx, DWORD PTR $T8[ebp]
  0043c	50		 push	 eax
  0043d	ff b5 f8 fb ff
	ff		 push	 DWORD PTR $T8[ebp]
  00443	e8 00 00 00 00	 call	 ?deallocate@?$_Wrap_alloc@V?$allocator@D@std@@@std@@QAEXPADI@Z ; std::_Wrap_alloc<std::allocator<char> >::deallocate
$LN729@DoInstall:
  00448	c7 85 0c fc ff
	ff 0f 00 00 00	 mov	 DWORD PTR $T8[ebp+20], 15 ; 0000000fH
  00452	c7 85 08 fc ff
	ff 00 00 00 00	 mov	 DWORD PTR $T8[ebp+16], 0
  0045c	c6 85 f8 fb ff
	ff 00		 mov	 BYTE PTR $T8[ebp], 0
$LN724@DoInstall:
  00463	f6 c3 02	 test	 bl, 2
  00466	74 3c		 je	 SHORT $LN825@DoInstall
  00468	8b 85 f4 fb ff
	ff		 mov	 eax, DWORD PTR $T7[ebp+20]
  0046e	83 e3 fd	 and	 ebx, -3			; fffffffdH
  00471	83 f8 10	 cmp	 eax, 16			; 00000010H
  00474	72 13		 jb	 SHORT $LN830@DoInstall
  00476	40		 inc	 eax
  00477	8d 8d e0 fb ff
	ff		 lea	 ecx, DWORD PTR $T7[ebp]
  0047d	50		 push	 eax
  0047e	ff b5 e0 fb ff
	ff		 push	 DWORD PTR $T7[ebp]
  00484	e8 00 00 00 00	 call	 ?deallocate@?$_Wrap_alloc@V?$allocator@D@std@@@std@@QAEXPADI@Z ; std::_Wrap_alloc<std::allocator<char> >::deallocate
$LN830@DoInstall:
  00489	c7 85 f4 fb ff
	ff 0f 00 00 00	 mov	 DWORD PTR $T7[ebp+20], 15 ; 0000000fH
  00493	c7 85 f0 fb ff
	ff 00 00 00 00	 mov	 DWORD PTR $T7[ebp+16], 0
  0049d	c6 85 e0 fb ff
	ff 00		 mov	 BYTE PTR $T7[ebp], 0
$LN825@DoInstall:
  004a4	c7 45 fc 00 00
	00 00		 mov	 DWORD PTR __$EHRec$[ebp+12], 0
  004ab	f6 c3 01	 test	 bl, 1
  004ae	74 1e		 je	 SHORT $LN931@DoInstall
  004b0	8b 85 dc fb ff
	ff		 mov	 eax, DWORD PTR $T6[ebp+20]
  004b6	83 f8 10	 cmp	 eax, 16			; 00000010H
  004b9	72 13		 jb	 SHORT $LN931@DoInstall
  004bb	40		 inc	 eax
  004bc	8d 8d c8 fb ff
	ff		 lea	 ecx, DWORD PTR $T6[ebp]
  004c2	50		 push	 eax
  004c3	ff b5 c8 fb ff
	ff		 push	 DWORD PTR $T6[ebp]
  004c9	e8 00 00 00 00	 call	 ?deallocate@?$_Wrap_alloc@V?$allocator@D@std@@@std@@QAEXPADI@Z ; std::_Wrap_alloc<std::allocator<char> >::deallocate
$LN931@DoInstall:
  004ce	80 bd ff f5 ff
	ff 00		 cmp	 BYTE PTR $T5[ebp], 0
  004d5	74 0f		 je	 SHORT $LN7@DoInstall

; 1783 : 			|| IsFileInUse (string (InstallationPath) + '\\' + GST_APP_NAME " Format.exe")
; 1784 : 			|| IsFileInUse (string (InstallationPath) + '\\' + GST_APP_NAME " Setup.exe")
; 1785 : 			)
; 1786 : 		)
; 1787 : 	{
; 1788 : 		NormalCursor ();

  004d7	e8 00 00 00 00	 call	 _NormalCursor

; 1789 : 		Error ("CLOSE_GST_FIRST");

  004dc	68 00 00 00 00	 push	 OFFSET ??_C@_0BA@BFJEMMFA@CLOSE_GST_FIRST?$AA@

; 1790 : 		PostMessage (MainDlg, GST_APPMSG_INSTALL_FAILURE, 0, 0);
; 1791 : 		return;

  004e1	e9 0a fc ff ff	 jmp	 $LN1250@DoInstall
$LN7@DoInstall:

; 1792 : 	}
; 1793 : 
; 1794 : 	UpdateProgressBarProc(12);

  004e6	6a 0c		 push	 12			; 0000000cH
  004e8	e8 00 00 00 00	 call	 _UpdateProgressBarProc
  004ed	83 c4 04	 add	 esp, 4

; 1795 : 	
; 1796 : 	if (bSystemRestore)

  004f0	83 3d 00 00 00
	00 00		 cmp	 DWORD PTR _bSystemRestore, 0
  004f7	74 0b		 je	 SHORT $LN8@DoInstall

; 1797 : 		SetSystemRestorePoint (hwndDlg, FALSE);

  004f9	6a 00		 push	 0
  004fb	57		 push	 edi
  004fc	e8 00 00 00 00	 call	 ?SetSystemRestorePoint@@YAXPAUHWND__@@H@Z ; SetSystemRestorePoint
  00501	83 c4 08	 add	 esp, 8
$LN8@DoInstall:

; 1798 : 
; 1799 : 	UpdateProgressBarProc(48);

  00504	6a 30		 push	 48			; 00000030H
  00506	e8 00 00 00 00	 call	 _UpdateProgressBarProc
  0050b	83 c4 04	 add	 esp, 4

; 1800 : 	
; 1801 : 	if (bDisableSwapFiles
; 1802 : 		&& IsPagingFileActive (FALSE))

  0050e	83 3d 00 00 00
	00 00		 cmp	 DWORD PTR _bDisableSwapFiles, 0
  00515	74 36		 je	 SHORT $LN11@DoInstall
  00517	6a 00		 push	 0
  00519	e8 00 00 00 00	 call	 _IsPagingFileActive
  0051e	83 c4 04	 add	 esp, 4
  00521	85 c0		 test	 eax, eax
  00523	74 28		 je	 SHORT $LN11@DoInstall

; 1803 : 	{
; 1804 : 		if (!DisablePagingFile())

  00525	e8 00 00 00 00	 call	 _DisablePagingFile
  0052a	85 c0		 test	 eax, eax
  0052c	75 15		 jne	 SHORT $LN10@DoInstall

; 1805 : 		{
; 1806 : 			handleWin32Error (hwndDlg);

  0052e	57		 push	 edi
  0052f	e8 00 00 00 00	 call	 _handleWin32Error

; 1807 : 			Error ("FAILED_TO_DISABLE_PAGING_FILES");

  00534	68 00 00 00 00	 push	 OFFSET ??_C@_0BP@JGNDMOPD@FAILED_TO_DISABLE_PAGING_FILES?$AA@
  00539	e8 00 00 00 00	 call	 _Error
  0053e	83 c4 08	 add	 esp, 8

; 1808 : 		}
; 1809 : 		else

  00541	eb 0a		 jmp	 SHORT $LN11@DoInstall
$LN10@DoInstall:

; 1810 : 			bRestartRequired = TRUE;

  00543	c7 05 00 00 00
	00 01 00 00 00	 mov	 DWORD PTR _bRestartRequired, 1
$LN11@DoInstall:

; 1811 : 	}
; 1812 : 
; 1813 : 	UpdateProgressBarProc(50);

  0054d	6a 32		 push	 50			; 00000032H
  0054f	e8 00 00 00 00	 call	 _UpdateProgressBarProc

; 1814 : 
; 1815 : 	// Remove deprecated
; 1816 : 	DoServiceUninstall (hwndDlg, "GostCryptService");

  00554	68 00 00 00 00	 push	 OFFSET ??_C@_0BB@CILIJECC@GostCryptService?$AA@
  00559	57		 push	 edi
  0055a	e8 00 00 00 00	 call	 _DoServiceUninstall

; 1817 : 	
; 1818 : 	UpdateProgressBarProc(55);

  0055f	6a 37		 push	 55			; 00000037H
  00561	e8 00 00 00 00	 call	 _UpdateProgressBarProc
  00566	83 c4 10	 add	 esp, 16			; 00000010H

; 1819 : 
; 1820 : 	if (!SystemEncryptionUpdate)

  00569	83 3d 00 00 00
	00 00		 cmp	 DWORD PTR _SystemEncryptionUpdate, 0
  00570	75 67		 jne	 SHORT $LN1244@DoInstall

; 1821 : 		DoRegUninstall ((HWND) hwndDlg, TRUE);

  00572	8b 35 00 00 00
	00		 mov	 esi, DWORD PTR __imp__RegDeleteKeyA@8
  00578	68 00 00 00 00	 push	 OFFSET ??_C@_0DO@MNMIDBOE@Software?2Microsoft?2Windows?2Curre@
  0057d	68 02 00 00 80	 push	 -2147483646		; 80000002H
  00582	ff d6		 call	 esi
  00584	68 00 00 00 00	 push	 OFFSET ??_C@_0DE@GDKMHJIK@Software?2Classes?2GostCryptVolume@
  00589	68 02 00 00 80	 push	 -2147483646		; 80000002H
  0058e	ff d6		 call	 esi
  00590	68 00 00 00 00	 push	 OFFSET ??_C@_0CM@GDILNLIK@Software?2Classes?2GostCryptVolume@
  00595	68 02 00 00 80	 push	 -2147483646		; 80000002H
  0059a	ff d6		 call	 esi
  0059c	68 00 00 00 00	 push	 OFFSET ??_C@_0CH@DCEJAAFL@Software?2Classes?2GostCryptVolume@
  005a1	68 02 00 00 80	 push	 -2147483646		; 80000002H
  005a6	ff d6		 call	 esi
  005a8	68 00 00 00 00	 push	 OFFSET ??_C@_0CN@HFACCAPK@Software?2Classes?2GostCryptVolume@
  005ad	68 02 00 00 80	 push	 -2147483646		; 80000002H
  005b2	ff d6		 call	 esi
  005b4	68 00 00 00 00	 push	 OFFSET ??_C@_0CB@HIFIENIE@Software?2Classes?2GostCryptVolume@
  005b9	68 02 00 00 80	 push	 -2147483646		; 80000002H
  005be	ff d6		 call	 esi
  005c0	68 00 00 00 00	 push	 OFFSET ??_C@_0BD@EEKEPCFI@Software?2GostCrypt?$AA@
  005c5	68 01 00 00 80	 push	 -2147483647		; 80000001H
  005ca	ff d6		 call	 esi

; 1822 : 
; 1823 : 	if (SystemEncryptionUpdate && InstalledVersion < 0x700)

  005cc	83 3d 00 00 00
	00 00		 cmp	 DWORD PTR _SystemEncryptionUpdate, 0
  005d3	0f 84 80 00 00
	00		 je	 $LN18@DoInstall
$LN1244@DoInstall:
  005d9	81 3d 00 00 00
	00 00 07 00 00	 cmp	 DWORD PTR ?InstalledVersion@@3JA, 1792 ; InstalledVersion, 00000700H
  005e3	7d 74		 jge	 SHORT $LN18@DoInstall

; 1824 : 	{
; 1825 : 		try
; 1826 : 		{
; 1827 : 			bootEnc.RegisterFilterDriver (false, BootEncryption::DumpFilter);

  005e5	6a 02		 push	 2
  005e7	6a 00		 push	 0
  005e9	8d 8d 00 f6 ff
	ff		 lea	 ecx, DWORD PTR _bootEnc$[ebp]
  005ef	c6 45 fc 09	 mov	 BYTE PTR __$EHRec$[ebp+12], 9
  005f3	e8 00 00 00 00	 call	 ?RegisterFilterDriver@BootEncryption@GostCrypt@@QAEX_NW4FilterType@12@@Z ; GostCrypt::BootEncryption::RegisterFilterDriver
  005f8	eb 0c		 jmp	 SHORT $LN1247@DoInstall
__catch$_DoInstall$0:

; 1828 : 		}
; 1829 : 		catch (...) { }

  005fa	b8 00 00 00 00	 mov	 eax, $LN106@DoInstall
  005ff	c3		 ret	 0
$LN106@DoInstall:
  00600	8b bd f0 f5 ff
	ff		 mov	 edi, DWORD PTR _arg$GSCopy$[ebp]
$LN1247@DoInstall:

; 1830 : 
; 1831 : 		try
; 1832 : 		{
; 1833 : 			bootEnc.RegisterFilterDriver (true, BootEncryption::DumpFilter);

  00606	6a 02		 push	 2
  00608	c7 45 fc 00 00
	00 00		 mov	 DWORD PTR __$EHRec$[ebp+12], 0
  0060f	8d 8d 00 f6 ff
	ff		 lea	 ecx, DWORD PTR _bootEnc$[ebp]
  00615	6a 01		 push	 1
  00617	c6 45 fc 0b	 mov	 BYTE PTR __$EHRec$[ebp+12], 11 ; 0000000bH
  0061b	e8 00 00 00 00	 call	 ?RegisterFilterDriver@BootEncryption@GostCrypt@@QAEX_NW4FilterType@12@@Z ; GostCrypt::BootEncryption::RegisterFilterDriver
  00620	c7 45 fc 00 00
	00 00		 mov	 DWORD PTR __$EHRec$[ebp+12], 0
  00627	e8 00 00 00 00	 call	 _ReadDriverConfigurationFlags
  0062c	a8 02		 test	 al, 2
  0062e	74 29		 je	 SHORT $LN18@DoInstall

; 1847 : 		}
; 1848 : 
; 1849 : 		if (ReadDriverConfigurationFlags() & GST_DRIVER_CONFIG_CACHE_BOOT_PASSWORD_FOR_SYS_FAVORITES)
; 1850 : 		{
; 1851 : 			WriteLocalMachineRegistryString ("SYSTEM\\CurrentControlSet\\Control\\SafeBoot\\Minimal\\" GST_SYSTEM_FAVORITES_SERVICE_NAME, NULL, "Service", FALSE);

  00630	6a 00		 push	 0
  00632	68 00 00 00 00	 push	 OFFSET ??_C@_07LMLHFMEG@Service?$AA@
  00637	6a 00		 push	 0
  00639	68 00 00 00 00	 push	 OFFSET ??_C@_0EL@MKLMKGDH@SYSTEM?2CurrentControlSet?2Control@
  0063e	e8 00 00 00 00	 call	 _WriteLocalMachineRegistryString

; 1852 : 			WriteLocalMachineRegistryString ("SYSTEM\\CurrentControlSet\\Control\\SafeBoot\\Network\\" GST_SYSTEM_FAVORITES_SERVICE_NAME, NULL, "Service", FALSE);

  00643	6a 00		 push	 0
  00645	68 00 00 00 00	 push	 OFFSET ??_C@_07LMLHFMEG@Service?$AA@
  0064a	6a 00		 push	 0
  0064c	68 00 00 00 00	 push	 OFFSET ??_C@_0EL@ELDIGJGM@SYSTEM?2CurrentControlSet?2Control@
  00651	e8 00 00 00 00	 call	 _WriteLocalMachineRegistryString
  00656	83 c4 20	 add	 esp, 32			; 00000020H
$LN18@DoInstall:

; 1853 : 		}
; 1854 : 	}
; 1855 : 
; 1856 : 	UpdateProgressBarProc(61);

  00659	6a 3d		 push	 61			; 0000003dH
  0065b	e8 00 00 00 00	 call	 _UpdateProgressBarProc
  00660	83 c4 04	 add	 esp, 4

; 1857 : 
; 1858 : 	if (bUpgrade && InstalledVersion < 0x700)

  00663	83 3d 00 00 00
	00 00		 cmp	 DWORD PTR _bUpgrade, 0
  0066a	0f 84 c6 01 00
	00		 je	 $LN27@DoInstall
  00670	81 3d 00 00 00
	00 00 07 00 00	 cmp	 DWORD PTR ?InstalledVersion@@3JA, 1792 ; InstalledVersion, 00000700H
  0067a	0f 8d b6 01 00
	00		 jge	 $LN27@DoInstall

; 1859 : 	{
; 1860 : 		bool bMountFavoritesOnLogon = ConfigReadInt ("MountFavoritesOnLogon", FALSE) != 0;

  00680	6a 00		 push	 0
  00682	68 00 00 00 00	 push	 OFFSET ??_C@_0BG@IDCDKCEI@MountFavoritesOnLogon?$AA@
  00687	e8 00 00 00 00	 call	 _ConfigReadInt
  0068c	85 c0		 test	 eax, eax

; 1861 : 		bool bOpenExplorerWindowAfterMount = ConfigReadInt ("OpenExplorerWindowAfterMount", FALSE) != 0;

  0068e	6a 00		 push	 0
  00690	68 00 00 00 00	 push	 OFFSET ??_C@_0BN@JJNCGBDA@OpenExplorerWindowAfterMount?$AA@
  00695	0f 95 c3	 setne	 bl
  00698	e8 00 00 00 00	 call	 _ConfigReadInt
  0069d	83 c4 10	 add	 esp, 16			; 00000010H
  006a0	85 c0		 test	 eax, eax
  006a2	0f 95 c7	 setne	 bh

; 1862 : 
; 1863 : 		if (bMountFavoritesOnLogon || bOpenExplorerWindowAfterMount)

  006a5	84 db		 test	 bl, bl
  006a7	75 08		 jne	 SHORT $LN21@DoInstall
  006a9	84 ff		 test	 bh, bh
  006ab	0f 84 85 01 00
	00		 je	 $LN27@DoInstall
$LN21@DoInstall:

; 1864 : 		{
; 1865 : 			char *favoritesFilename = GetConfigPath (GST_APPD_FILENAME_FAVORITE_VOLUMES);

  006b1	68 00 00 00 00	 push	 OFFSET ??_C@_0BF@EGBOIEGJ@Favorite?5Volumes?4xml?$AA@
  006b6	e8 00 00 00 00	 call	 _GetConfigPath

; 1866 : 			DWORD size;
; 1867 : 			char *favoritesXml = LoadFile (favoritesFilename, &size);

  006bb	8d 8d f4 f5 ff
	ff		 lea	 ecx, DWORD PTR _size$4[ebp]
  006c1	89 85 ec f5 ff
	ff		 mov	 DWORD PTR _favoritesFilename$1$[ebp], eax
  006c7	51		 push	 ecx
  006c8	50		 push	 eax
  006c9	e8 00 00 00 00	 call	 _LoadFile
  006ce	83 c4 0c	 add	 esp, 12			; 0000000cH
  006d1	89 85 e8 f5 ff
	ff		 mov	 DWORD PTR _favoritesXml$1$[ebp], eax

; 1868 : 
; 1869 : 			if (favoritesXml && size != 0)

  006d7	85 c0		 test	 eax, eax
  006d9	0f 84 57 01 00
	00		 je	 $LN27@DoInstall
  006df	8b 8d f4 f5 ff
	ff		 mov	 ecx, DWORD PTR _size$4[ebp]
  006e5	85 c9		 test	 ecx, ecx
  006e7	0f 84 40 01 00
	00		 je	 $LN22@DoInstall

; 1870 : 			{
; 1871 : 				string favorites;

  006ed	c7 85 9c fc ff
	ff 0f 00 00 00	 mov	 DWORD PTR _favorites$16[ebp+20], 15 ; 0000000fH
  006f7	c7 85 98 fc ff
	ff 00 00 00 00	 mov	 DWORD PTR _favorites$16[ebp+16], 0
  00701	c6 85 88 fc ff
	ff 00		 mov	 BYTE PTR _favorites$16[ebp], 0

; 1872 : 				favorites.insert (0, favoritesXml, size);

  00708	51		 push	 ecx
  00709	50		 push	 eax
  0070a	6a 00		 push	 0
  0070c	8d 8d 88 fc ff
	ff		 lea	 ecx, DWORD PTR _favorites$16[ebp]
  00712	c6 45 fc 0f	 mov	 BYTE PTR __$EHRec$[ebp+12], 15 ; 0000000fH
  00716	e8 00 00 00 00	 call	 ?insert@?$basic_string@DU?$char_traits@D@std@@V?$allocator@D@2@@std@@QAEAAV12@IPBDI@Z ; std::basic_string<char,std::char_traits<char>,std::allocator<char> >::insert

; 1873 : 
; 1874 : 				size_t p = favorites.find ("<volume ");

  0071b	6a 00		 push	 0
  0071d	68 00 00 00 00	 push	 OFFSET ??_C@_08JKOCNOKF@?$DMvolume?5?$AA@
  00722	8d 8d 88 fc ff
	ff		 lea	 ecx, DWORD PTR _favorites$16[ebp]
  00728	e8 00 00 00 00	 call	 ?find@?$basic_string@DU?$char_traits@D@std@@V?$allocator@D@2@@std@@QBEIPBDI@Z ; std::basic_string<char,std::char_traits<char>,std::allocator<char> >::find
  0072d	8b f0		 mov	 esi, eax

; 1875 : 				while (p != string::npos)

  0072f	83 fe ff	 cmp	 esi, -1
  00732	74 4b		 je	 SHORT $LN3@DoInstall
$LL2@DoInstall:

; 1876 : 				{
; 1877 : 					if (bMountFavoritesOnLogon)

  00734	84 db		 test	 bl, bl
  00736	74 14		 je	 SHORT $LN23@DoInstall

; 1878 : 						favorites.insert (p + 8, "mountOnLogOn=\"1\" ");

  00738	68 00 00 00 00	 push	 OFFSET ??_C@_0BC@JBHLDJCD@mountOnLogOn?$DN?$CC1?$CC?5?$AA@
  0073d	8d 46 08	 lea	 eax, DWORD PTR [esi+8]
  00740	50		 push	 eax
  00741	8d 8d 88 fc ff
	ff		 lea	 ecx, DWORD PTR _favorites$16[ebp]
  00747	e8 00 00 00 00	 call	 ?insert@?$basic_string@DU?$char_traits@D@std@@V?$allocator@D@2@@std@@QAEAAV12@IPBD@Z ; std::basic_string<char,std::char_traits<char>,std::allocator<char> >::insert
$LN23@DoInstall:

; 1879 : 
; 1880 : 					if (bOpenExplorerWindowAfterMount)

  0074c	84 ff		 test	 bh, bh
  0074e	74 14		 je	 SHORT $LN24@DoInstall

; 1881 : 						favorites.insert (p + 8, "openExplorerWindow=\"1\" ");

  00750	68 00 00 00 00	 push	 OFFSET ??_C@_0BI@DLANKHNO@openExplorerWindow?$DN?$CC1?$CC?5?$AA@
  00755	8d 46 08	 lea	 eax, DWORD PTR [esi+8]
  00758	50		 push	 eax
  00759	8d 8d 88 fc ff
	ff		 lea	 ecx, DWORD PTR _favorites$16[ebp]
  0075f	e8 00 00 00 00	 call	 ?insert@?$basic_string@DU?$char_traits@D@std@@V?$allocator@D@2@@std@@QAEAAV12@IPBD@Z ; std::basic_string<char,std::char_traits<char>,std::allocator<char> >::insert
$LN24@DoInstall:

; 1882 : 
; 1883 : 					p = favorites.find ("<volume ", p + 1);

  00764	8d 46 01	 lea	 eax, DWORD PTR [esi+1]
  00767	50		 push	 eax
  00768	68 00 00 00 00	 push	 OFFSET ??_C@_08JKOCNOKF@?$DMvolume?5?$AA@
  0076d	8d 8d 88 fc ff
	ff		 lea	 ecx, DWORD PTR _favorites$16[ebp]
  00773	e8 00 00 00 00	 call	 ?find@?$basic_string@DU?$char_traits@D@std@@V?$allocator@D@2@@std@@QBEIPBDI@Z ; std::basic_string<char,std::char_traits<char>,std::allocator<char> >::find
  00778	8b f0		 mov	 esi, eax
  0077a	83 fe ff	 cmp	 esi, -1
  0077d	75 b5		 jne	 SHORT $LL2@DoInstall
$LN3@DoInstall:

; 1884 : 				}
; 1885 : 
; 1886 : 				SaveBufferToFile (favorites.c_str(), favoritesFilename, favorites.size(), FALSE);

  0077f	83 bd 9c fc ff
	ff 10		 cmp	 DWORD PTR _favorites$16[ebp+20], 16 ; 00000010H
  00786	8d 85 88 fc ff
	ff		 lea	 eax, DWORD PTR _favorites$16[ebp]
  0078c	6a 00		 push	 0
  0078e	ff b5 98 fc ff
	ff		 push	 DWORD PTR _favorites$16[ebp+16]
  00794	0f 43 85 88 fc
	ff ff		 cmovae	 eax, DWORD PTR _favorites$16[ebp]
  0079b	ff b5 ec f5 ff
	ff		 push	 DWORD PTR _favoritesFilename$1$[ebp]
  007a1	50		 push	 eax
  007a2	e8 00 00 00 00	 call	 _SaveBufferToFile
  007a7	83 c4 10	 add	 esp, 16			; 00000010H

; 1887 : 
; 1888 : 				if (bMountFavoritesOnLogon)

  007aa	84 db		 test	 bl, bl
  007ac	74 6e		 je	 SHORT $LN26@DoInstall

; 1889 : 				{
; 1890 : 					char regk[64];
; 1891 : 					char regVal[MAX_PATH * 2];
; 1892 : 
; 1893 : 					GetStartupRegKeyName (regk);

  007ae	8d 45 ac	 lea	 eax, DWORD PTR _regk$20[ebp]
  007b1	50		 push	 eax
  007b2	e8 00 00 00 00	 call	 _GetStartupRegKeyName

; 1894 : 
; 1895 : 					ReadRegistryString (regk, "GostCrypt", "", regVal, sizeof (regVal));

  007b7	68 08 02 00 00	 push	 520			; 00000208H
  007bc	8d 85 a0 fc ff
	ff		 lea	 eax, DWORD PTR _regVal$18[ebp]
  007c2	50		 push	 eax
  007c3	68 00 00 00 00	 push	 OFFSET ??_C@_00CNPNBAHC@?$AA@
  007c8	8d 45 ac	 lea	 eax, DWORD PTR _regk$20[ebp]
  007cb	68 00 00 00 00	 push	 OFFSET ??_C@_09NKHKFHLH@GostCrypt?$AA@
  007d0	50		 push	 eax
  007d1	e8 00 00 00 00	 call	 _ReadRegistryString

; 1896 : 
; 1897 : 					if (strstr (regVal, "favorites"))

  007d6	8d 85 a0 fc ff
	ff		 lea	 eax, DWORD PTR _regVal$18[ebp]
  007dc	68 00 00 00 00	 push	 OFFSET ??_C@_09OAMOHPIB@favorites?$AA@
  007e1	50		 push	 eax
  007e2	e8 00 00 00 00	 call	 _strstr
  007e7	83 c4 20	 add	 esp, 32			; 00000020H
  007ea	85 c0		 test	 eax, eax
  007ec	74 2e		 je	 SHORT $LN26@DoInstall

; 1898 : 					{
; 1899 : 						strcat_s (regVal, sizeof (regVal), " /a logon");

  007ee	68 00 00 00 00	 push	 OFFSET ??_C@_09KHMMGKKB@?5?1a?5logon?$AA@
  007f3	8d 85 a0 fc ff
	ff		 lea	 eax, DWORD PTR _regVal$18[ebp]
  007f9	68 08 02 00 00	 push	 520			; 00000208H
  007fe	50		 push	 eax
  007ff	e8 00 00 00 00	 call	 _strcat_s

; 1900 : 						WriteRegistryString (regk, "GostCrypt", regVal);

  00804	8d 85 a0 fc ff
	ff		 lea	 eax, DWORD PTR _regVal$18[ebp]
  0080a	50		 push	 eax
  0080b	8d 45 ac	 lea	 eax, DWORD PTR _regk$20[ebp]
  0080e	68 00 00 00 00	 push	 OFFSET ??_C@_09NKHKFHLH@GostCrypt?$AA@
  00813	50		 push	 eax
  00814	e8 00 00 00 00	 call	 _WriteRegistryString
  00819	83 c4 18	 add	 esp, 24			; 00000018H
$LN26@DoInstall:

; 1901 : 					}
; 1902 : 				}
; 1903 : 			}

  0081c	8d 8d 88 fc ff
	ff		 lea	 ecx, DWORD PTR _favorites$16[ebp]
  00822	e8 00 00 00 00	 call	 ??1?$basic_string@DU?$char_traits@D@std@@V?$allocator@D@2@@std@@QAE@XZ ; std::basic_string<char,std::char_traits<char>,std::allocator<char> >::~basic_string<char,std::char_traits<char>,std::allocator<char> >
  00827	8b 85 e8 f5 ff
	ff		 mov	 eax, DWORD PTR _favoritesXml$1$[ebp]
$LN22@DoInstall:

; 1904 : 
; 1905 : 			if (favoritesXml)
; 1906 : 				free (favoritesXml);

  0082d	50		 push	 eax
  0082e	e8 00 00 00 00	 call	 _free
  00833	83 c4 04	 add	 esp, 4
$LN27@DoInstall:

; 1907 : 		}
; 1908 : 	}
; 1909 : 
; 1910 : 	GetWindowsDirectory (path, sizeof (path));

  00836	68 04 01 00 00	 push	 260			; 00000104H
  0083b	8d 85 a8 fe ff
	ff		 lea	 eax, DWORD PTR _path$[ebp]
  00841	50		 push	 eax
  00842	ff 15 00 00 00
	00		 call	 DWORD PTR __imp__GetWindowsDirectoryA@8

; 1911 : 	strcat_s (path, sizeof (path), "\\GostCrypt Setup.exe");

  00848	68 00 00 00 00	 push	 OFFSET ??_C@_0BF@OBKHEKHE@?2GostCrypt?5Setup?4exe?$AA@
  0084d	8d 85 a8 fe ff
	ff		 lea	 eax, DWORD PTR _path$[ebp]
  00853	68 04 01 00 00	 push	 260			; 00000104H
  00858	50		 push	 eax
  00859	e8 00 00 00 00	 call	 _strcat_s
  0085e	83 c4 0c	 add	 esp, 12			; 0000000cH

; 1912 : 	DeleteFile (path);

  00861	8d 85 a8 fe ff
	ff		 lea	 eax, DWORD PTR _path$[ebp]
  00867	50		 push	 eax
  00868	ff 15 00 00 00
	00		 call	 DWORD PTR __imp__DeleteFileA@4

; 1913 : 
; 1914 : 	if (UpdateProgressBarProc(63) && UnloadDriver && DoServiceUninstall (hwndDlg, "gostcrypt") == FALSE)

  0086e	6a 3f		 push	 63			; 0000003fH
  00870	e8 00 00 00 00	 call	 _UpdateProgressBarProc
  00875	83 c4 04	 add	 esp, 4
  00878	85 c0		 test	 eax, eax
  0087a	74 7a		 je	 SHORT $LN28@DoInstall
  0087c	83 3d 00 00 00
	00 00		 cmp	 DWORD PTR ?UnloadDriver@@3HA, 0 ; UnloadDriver
  00883	74 71		 je	 SHORT $LN28@DoInstall
  00885	68 00 00 00 00	 push	 OFFSET ??_C@_09JCILFBFB@gostcrypt?$AA@
  0088a	57		 push	 edi
  0088b	e8 00 00 00 00	 call	 _DoServiceUninstall
  00890	83 c4 08	 add	 esp, 8
  00893	85 c0		 test	 eax, eax
  00895	75 5f		 jne	 SHORT $LN28@DoInstall

; 1915 : 	{
; 1916 : 		bOK = FALSE;

  00897	89 85 f8 f5 ff
	ff		 mov	 DWORD PTR _bOK$[ebp], eax
  0089d	e9 3a 01 00 00	 jmp	 $LN38@DoInstall
__catch$_DoInstall$2:

; 1834 : 		}
; 1835 : 		catch (Exception &e)
; 1836 : 		{

  008a2	89 65 f0	 mov	 DWORD PTR __$EHRec$[ebp], esp

; 1837 : 			try
; 1838 : 			{
; 1839 : 				bootEnc.RegisterFilterDriver (false, BootEncryption::DumpFilter);

  008a5	8d 8d 00 f6 ff
	ff		 lea	 ecx, DWORD PTR _bootEnc$[ebp]
  008ab	6a 02		 push	 2
  008ad	6a 00		 push	 0
  008af	c6 45 fc 0d	 mov	 BYTE PTR __$EHRec$[ebp+12], 13 ; 0000000dH
  008b3	e8 00 00 00 00	 call	 ?RegisterFilterDriver@BootEncryption@GostCrypt@@QAEX_NW4FilterType@12@@Z ; GostCrypt::BootEncryption::RegisterFilterDriver
$LN108@DoInstall:

; 1842 : 
; 1843 : 			e.Show (hwndDlg);

  008b8	8b 8d e4 f5 ff
	ff		 mov	 ecx, DWORD PTR _e$2[ebp]
  008be	ff b5 f0 f5 ff
	ff		 push	 DWORD PTR _arg$GSCopy$[ebp]
  008c4	c7 45 fc 0c 00
	00 00		 mov	 DWORD PTR __$EHRec$[ebp+12], 12 ; 0000000cH
  008cb	8b 01		 mov	 eax, DWORD PTR [ecx]
  008cd	ff 10		 call	 DWORD PTR [eax]
  008cf	c7 85 f8 f5 ff
	ff 00 00 00 00	 mov	 DWORD PTR _bOK$[ebp], 0
  008d9	b8 00 00 00 00	 mov	 eax, $LN110@DoInstall
  008de	c3		 ret	 0
__catch$_DoInstall$3:

; 1840 : 			}
; 1841 : 			catch (...) { }

  008df	b8 00 00 00 00	 mov	 eax, $LN108@DoInstall
  008e4	c3		 ret	 0
$LN110@DoInstall:

; 1844 : 
; 1845 : 			bOK = FALSE;
; 1846 : 			goto outcome;

  008e5	8b bd f0 f5 ff
	ff		 mov	 edi, DWORD PTR _arg$GSCopy$[ebp]
  008eb	8b 9d f8 f5 ff
	ff		 mov	 ebx, DWORD PTR _bOK$[ebp]
  008f1	e9 b6 02 00 00	 jmp	 $outcome$1251
$LN28@DoInstall:

; 1917 : 	}
; 1918 : 	else if (UpdateProgressBarProc(72) && DoFilesInstall ((HWND) hwndDlg, InstallationPath) == FALSE)

  008f6	6a 48		 push	 72			; 00000048H
  008f8	e8 00 00 00 00	 call	 _UpdateProgressBarProc
  008fd	83 c4 04	 add	 esp, 4
  00900	85 c0		 test	 eax, eax
  00902	74 1d		 je	 SHORT $LN30@DoInstall
  00904	68 00 00 00 00	 push	 OFFSET _InstallationPath
  00909	57		 push	 edi
  0090a	e8 00 00 00 00	 call	 _DoFilesInstall
  0090f	83 c4 08	 add	 esp, 8
  00912	85 c0		 test	 eax, eax
  00914	75 0b		 jne	 SHORT $LN30@DoInstall

; 1919 : 	{
; 1920 : 		bOK = FALSE;

  00916	89 85 f8 f5 ff
	ff		 mov	 DWORD PTR _bOK$[ebp], eax
  0091c	e9 bb 00 00 00	 jmp	 $LN38@DoInstall
$LN30@DoInstall:

; 1921 : 	}
; 1922 : 	else if (UpdateProgressBarProc(80) && DoRegInstall ((HWND) hwndDlg, InstallationPath, bRegisterFileExt) == FALSE)

  00921	6a 50		 push	 80			; 00000050H
  00923	e8 00 00 00 00	 call	 _UpdateProgressBarProc
  00928	83 c4 04	 add	 esp, 4
  0092b	85 c0		 test	 eax, eax
  0092d	74 23		 je	 SHORT $LN32@DoInstall
  0092f	ff 35 00 00 00
	00		 push	 DWORD PTR _bRegisterFileExt
  00935	68 00 00 00 00	 push	 OFFSET _InstallationPath
  0093a	57		 push	 edi
  0093b	e8 00 00 00 00	 call	 _DoRegInstall
  00940	83 c4 0c	 add	 esp, 12			; 0000000cH
  00943	85 c0		 test	 eax, eax
  00945	75 0b		 jne	 SHORT $LN32@DoInstall

; 1923 : 	{
; 1924 : 		bOK = FALSE;

  00947	89 85 f8 f5 ff
	ff		 mov	 DWORD PTR _bOK$[ebp], eax
  0094d	e9 8a 00 00 00	 jmp	 $LN38@DoInstall
$LN32@DoInstall:

; 1925 : 	}
; 1926 : 	else if (UpdateProgressBarProc(85) && UnloadDriver && DoDriverInstall (hwndDlg) == FALSE)

  00952	6a 55		 push	 85			; 00000055H
  00954	e8 00 00 00 00	 call	 _UpdateProgressBarProc
  00959	83 c4 04	 add	 esp, 4
  0095c	85 c0		 test	 eax, eax
  0095e	74 1e		 je	 SHORT $LN34@DoInstall
  00960	83 3d 00 00 00
	00 00		 cmp	 DWORD PTR ?UnloadDriver@@3HA, 0 ; UnloadDriver
  00967	74 15		 je	 SHORT $LN34@DoInstall
  00969	57		 push	 edi
  0096a	e8 00 00 00 00	 call	 _DoDriverInstall
  0096f	83 c4 04	 add	 esp, 4
  00972	85 c0		 test	 eax, eax
  00974	75 08		 jne	 SHORT $LN34@DoInstall

; 1927 : 	{
; 1928 : 		bOK = FALSE;

  00976	89 85 f8 f5 ff
	ff		 mov	 DWORD PTR _bOK$[ebp], eax
  0097c	eb 5e		 jmp	 SHORT $LN38@DoInstall
$LN34@DoInstall:

; 1929 : 	}
; 1930 : 	else if (UpdateProgressBarProc(90) && SystemEncryptionUpdate && UpgradeBootLoader (hwndDlg) == FALSE)

  0097e	6a 5a		 push	 90			; 0000005aH
  00980	e8 00 00 00 00	 call	 _UpdateProgressBarProc
  00985	83 c4 04	 add	 esp, 4
  00988	85 c0		 test	 eax, eax
  0098a	74 1e		 je	 SHORT $LN36@DoInstall
  0098c	83 3d 00 00 00
	00 00		 cmp	 DWORD PTR _SystemEncryptionUpdate, 0
  00993	74 15		 je	 SHORT $LN36@DoInstall
  00995	57		 push	 edi
  00996	e8 00 00 00 00	 call	 _UpgradeBootLoader
  0099b	83 c4 04	 add	 esp, 4
  0099e	85 c0		 test	 eax, eax
  009a0	75 08		 jne	 SHORT $LN36@DoInstall

; 1931 : 	{
; 1932 : 		bOK = FALSE;

  009a2	89 85 f8 f5 ff
	ff		 mov	 DWORD PTR _bOK$[ebp], eax
  009a8	eb 32		 jmp	 SHORT $LN38@DoInstall
$LN36@DoInstall:

; 1933 : 	}
; 1934 : 	else if (UpdateProgressBarProc(93) && DoShortcutsInstall (hwndDlg, InstallationPath, bAddToStartMenu, bDesktopIcon) == FALSE)

  009aa	6a 5d		 push	 93			; 0000005dH
  009ac	e8 00 00 00 00	 call	 _UpdateProgressBarProc
  009b1	83 c4 04	 add	 esp, 4
  009b4	85 c0		 test	 eax, eax
  009b6	74 24		 je	 SHORT $LN38@DoInstall
  009b8	ff 35 00 00 00
	00		 push	 DWORD PTR _bDesktopIcon
  009be	ff 35 00 00 00
	00		 push	 DWORD PTR _bAddToStartMenu
  009c4	68 00 00 00 00	 push	 OFFSET _InstallationPath
  009c9	57		 push	 edi
  009ca	e8 00 00 00 00	 call	 _DoShortcutsInstall
  009cf	83 c4 10	 add	 esp, 16			; 00000010H
  009d2	f7 d8		 neg	 eax
  009d4	1b c0		 sbb	 eax, eax
  009d6	21 85 f8 f5 ff
	ff		 and	 DWORD PTR _bOK$[ebp], eax
$LN38@DoInstall:

; 1935 : 	{
; 1936 : 		bOK = FALSE;
; 1937 : 	}
; 1938 : 
; 1939 : 	if (!UnloadDriver)

  009dc	a1 00 00 00 00	 mov	 eax, DWORD PTR _bRestartRequired
  009e1	b9 01 00 00 00	 mov	 ecx, 1
  009e6	83 3d 00 00 00
	00 00		 cmp	 DWORD PTR ?UnloadDriver@@3HA, 0 ; UnloadDriver

; 1940 : 		bRestartRequired = TRUE;
; 1941 : 
; 1942 : 	try

  009ed	c6 45 fc 10	 mov	 BYTE PTR __$EHRec$[ebp+12], 16 ; 00000010H
  009f1	0f 44 c1	 cmove	 eax, ecx

; 1943 : 	{
; 1944 : 		bootEnc.RenameDeprecatedSystemLoaderBackup();

  009f4	8d 8d 00 f6 ff
	ff		 lea	 ecx, DWORD PTR _bootEnc$[ebp]
  009fa	a3 00 00 00 00	 mov	 DWORD PTR _bRestartRequired, eax
  009ff	e8 00 00 00 00	 call	 ?RenameDeprecatedSystemLoaderBackup@BootEncryption@GostCrypt@@QAEXXZ ; GostCrypt::BootEncryption::RenameDeprecatedSystemLoaderBackup
  00a04	eb 0c		 jmp	 SHORT $LN1248@DoInstall
__catch$_DoInstall$7:

; 1945 : 	}
; 1946 : 	catch (...)	{ }

  00a06	b8 00 00 00 00	 mov	 eax, $LN114@DoInstall
  00a0b	c3		 ret	 0
$LN114@DoInstall:
  00a0c	8b bd f0 f5 ff
	ff		 mov	 edi, DWORD PTR _arg$GSCopy$[ebp]
$LN1248@DoInstall:

; 1947 : 
; 1948 : 	if (SystemEncryptionUpdate && InstalledVersion == 0x630)

  00a12	83 3d 00 00 00
	00 00		 cmp	 DWORD PTR _SystemEncryptionUpdate, 0
  00a19	c7 45 fc 00 00
	00 00		 mov	 DWORD PTR __$EHRec$[ebp+12], 0
  00a20	0f 84 ca 00 00
	00		 je	 $LN41@DoInstall
  00a26	81 3d 00 00 00
	00 30 06 00 00	 cmp	 DWORD PTR ?InstalledVersion@@3JA, 1584 ; InstalledVersion, 00000630H
  00a30	0f 85 ba 00 00
	00		 jne	 $LN41@DoInstall

; 1949 : 	{
; 1950 : 		string sysFavorites = GetServiceConfigPath (GST_APPD_FILENAME_SYSTEM_FAVORITE_VOLUMES);

  00a36	8d 85 70 fc ff
	ff		 lea	 eax, DWORD PTR _sysFavorites$13[ebp]
  00a3c	68 00 00 00 00	 push	 OFFSET ??_C@_0CG@KHDBJKEN@GostCrypt?5System?5Favorite?5Volume@
  00a41	50		 push	 eax
  00a42	e8 00 00 00 00	 call	 ?GetServiceConfigPath@@YA?AV?$basic_string@DU?$char_traits@D@std@@V?$allocator@D@2@@std@@PBD@Z ; GetServiceConfigPath

; 1951 : 		string legacySysFavorites = GetProgramConfigPath ("System Favorite Volumes.xml");

  00a47	68 00 00 00 00	 push	 OFFSET ??_C@_0BM@IAAIJFIC@System?5Favorite?5Volumes?4xml?$AA@
  00a4c	c6 45 fc 12	 mov	 BYTE PTR __$EHRec$[ebp+12], 18 ; 00000012H
  00a50	e8 00 00 00 00	 call	 _GetProgramConfigPath
  00a55	83 c4 0c	 add	 esp, 12			; 0000000cH
  00a58	8d 8d 88 fc ff
	ff		 lea	 ecx, DWORD PTR _legacySysFavorites$15[ebp]
  00a5e	50		 push	 eax
  00a5f	e8 00 00 00 00	 call	 ??0?$basic_string@DU?$char_traits@D@std@@V?$allocator@D@2@@std@@QAE@PBD@Z ; std::basic_string<char,std::char_traits<char>,std::allocator<char> >::basic_string<char,std::char_traits<char>,std::allocator<char> >

; 1952 : 
; 1953 : 		if (FileExists (legacySysFavorites.c_str()) && !FileExists (sysFavorites.c_str()))

  00a64	83 bd 9c fc ff
	ff 10		 cmp	 DWORD PTR _legacySysFavorites$15[ebp+20], 16 ; 00000010H
  00a6b	8d 85 88 fc ff
	ff		 lea	 eax, DWORD PTR _legacySysFavorites$15[ebp]
  00a71	0f 43 85 88 fc
	ff ff		 cmovae	 eax, DWORD PTR _legacySysFavorites$15[ebp]
  00a78	50		 push	 eax
  00a79	e8 00 00 00 00	 call	 _FileExists
  00a7e	83 c4 04	 add	 esp, 4
  00a81	85 c0		 test	 eax, eax
  00a83	74 51		 je	 SHORT $LN42@DoInstall
  00a85	83 bd 84 fc ff
	ff 10		 cmp	 DWORD PTR _sysFavorites$13[ebp+20], 16 ; 00000010H
  00a8c	8d 85 70 fc ff
	ff		 lea	 eax, DWORD PTR _sysFavorites$13[ebp]
  00a92	0f 43 85 70 fc
	ff ff		 cmovae	 eax, DWORD PTR _sysFavorites$13[ebp]
  00a99	50		 push	 eax
  00a9a	e8 00 00 00 00	 call	 _FileExists
  00a9f	83 c4 04	 add	 esp, 4
  00aa2	85 c0		 test	 eax, eax
  00aa4	75 30		 jne	 SHORT $LN42@DoInstall

; 1954 : 			MoveFile (legacySysFavorites.c_str(), sysFavorites.c_str());

  00aa6	83 bd 84 fc ff
	ff 10		 cmp	 DWORD PTR _sysFavorites$13[ebp+20], 16 ; 00000010H
  00aad	8d 8d 70 fc ff
	ff		 lea	 ecx, DWORD PTR _sysFavorites$13[ebp]
  00ab3	8d 85 88 fc ff
	ff		 lea	 eax, DWORD PTR _legacySysFavorites$15[ebp]
  00ab9	0f 43 8d 70 fc
	ff ff		 cmovae	 ecx, DWORD PTR _sysFavorites$13[ebp]
  00ac0	83 bd 9c fc ff
	ff 10		 cmp	 DWORD PTR _legacySysFavorites$15[ebp+20], 16 ; 00000010H
  00ac7	51		 push	 ecx
  00ac8	0f 43 85 88 fc
	ff ff		 cmovae	 eax, DWORD PTR _legacySysFavorites$15[ebp]
  00acf	50		 push	 eax
  00ad0	ff 15 00 00 00
	00		 call	 DWORD PTR __imp__MoveFileA@8
$LN42@DoInstall:

; 1955 : 	}

  00ad6	8d 8d 88 fc ff
	ff		 lea	 ecx, DWORD PTR _legacySysFavorites$15[ebp]
  00adc	e8 00 00 00 00	 call	 ??1?$basic_string@DU?$char_traits@D@std@@V?$allocator@D@2@@std@@QAE@XZ ; std::basic_string<char,std::char_traits<char>,std::allocator<char> >::~basic_string<char,std::char_traits<char>,std::allocator<char> >
  00ae1	8d 8d 70 fc ff
	ff		 lea	 ecx, DWORD PTR _sysFavorites$13[ebp]
  00ae7	c6 45 fc 00	 mov	 BYTE PTR __$EHRec$[ebp+12], 0
  00aeb	e8 00 00 00 00	 call	 ??1?$basic_string@DU?$char_traits@D@std@@V?$allocator@D@2@@std@@QAE@XZ ; std::basic_string<char,std::char_traits<char>,std::allocator<char> >::~basic_string<char,std::char_traits<char>,std::allocator<char> >
$LN41@DoInstall:

; 1956 : 
; 1957 : 	if (bOK)

  00af0	8b 9d f8 f5 ff
	ff		 mov	 ebx, DWORD PTR _bOK$[ebp]
  00af6	85 db		 test	 ebx, ebx
  00af8	74 0a		 je	 SHORT $LN43@DoInstall

; 1958 : 		UpdateProgressBarProc(97);

  00afa	6a 61		 push	 97			; 00000061H
  00afc	e8 00 00 00 00	 call	 _UpdateProgressBarProc
  00b01	83 c4 04	 add	 esp, 4
$LN43@DoInstall:

; 1959 : 
; 1960 : 	if (bSystemRestore)

  00b04	83 3d 00 00 00
	00 00		 cmp	 DWORD PTR _bSystemRestore, 0
  00b0b	74 0b		 je	 SHORT $LN44@DoInstall

; 1961 : 		SetSystemRestorePoint (hwndDlg, TRUE);

  00b0d	6a 01		 push	 1
  00b0f	57		 push	 edi
  00b10	e8 00 00 00 00	 call	 ?SetSystemRestorePoint@@YAXPAUHWND__@@H@Z ; SetSystemRestorePoint
  00b15	83 c4 08	 add	 esp, 8
$LN44@DoInstall:
  00b18	85 db		 test	 ebx, ebx

; 1962 : 
; 1963 : 	if (bOK)

  00b1a	74 1e		 je	 SHORT $LN45@DoInstall

; 1964 : 	{
; 1965 : 		UpdateProgressBarProc(100);

  00b1c	6a 64		 push	 100			; 00000064H
  00b1e	e8 00 00 00 00	 call	 _UpdateProgressBarProc

; 1966 : 		UninstallBatch[0] = 0;
; 1967 : 		StatusMessage (hwndDlg, "INSTALL_COMPLETED");

  00b23	68 00 00 00 00	 push	 OFFSET ??_C@_0BC@KNJLNLNB@INSTALL_COMPLETED?$AA@
  00b28	57		 push	 edi
  00b29	c6 05 00 00 00
	00 00		 mov	 BYTE PTR ?UninstallBatch@@3PADA, 0
  00b30	e8 00 00 00 00	 call	 _StatusMessage
  00b35	83 c4 0c	 add	 esp, 12			; 0000000cH

; 1968 : 	}
; 1969 : 	else

  00b38	eb 72		 jmp	 SHORT $outcome$1251
$LN45@DoInstall:

; 1970 : 	{
; 1971 : 		UpdateProgressBarProc(0);

  00b3a	6a 00		 push	 0
  00b3c	e8 00 00 00 00	 call	 _UpdateProgressBarProc
  00b41	83 c4 04	 add	 esp, 4

; 1972 : 
; 1973 : 		if (!SystemEncryptionUpdate)

  00b44	83 3d 00 00 00
	00 00		 cmp	 DWORD PTR _SystemEncryptionUpdate, 0
  00b4b	75 52		 jne	 SHORT $LN47@DoInstall

; 1974 : 		{
; 1975 : 			bUninstall = TRUE;
; 1976 : 			Rollback = TRUE;
; 1977 : 			Silent = TRUE;
; 1978 : 
; 1979 : 			DoUninstall (hwndDlg);

  00b4d	57		 push	 edi
  00b4e	c7 05 00 00 00
	00 01 00 00 00	 mov	 DWORD PTR ?bUninstall@@3HA, 1 ; bUninstall
  00b58	c7 05 00 00 00
	00 01 00 00 00	 mov	 DWORD PTR _Rollback, 1
  00b62	c7 05 00 00 00
	00 01 00 00 00	 mov	 DWORD PTR _Silent, 1
  00b6c	e8 00 00 00 00	 call	 _DoUninstall

; 1980 : 
; 1981 : 			bUninstall = FALSE;
; 1982 : 			Rollback = FALSE;
; 1983 : 			Silent = FALSE;
; 1984 : 
; 1985 : 			StatusMessage (hwndDlg, "ROLLBACK");

  00b71	68 00 00 00 00	 push	 OFFSET ??_C@_08COBEBGNM@ROLLBACK?$AA@
  00b76	57		 push	 edi
  00b77	c7 05 00 00 00
	00 00 00 00 00	 mov	 DWORD PTR ?bUninstall@@3HA, 0 ; bUninstall
  00b81	c7 05 00 00 00
	00 00 00 00 00	 mov	 DWORD PTR _Rollback, 0
  00b8b	c7 05 00 00 00
	00 00 00 00 00	 mov	 DWORD PTR _Silent, 0
  00b95	e8 00 00 00 00	 call	 _StatusMessage
  00b9a	83 c4 0c	 add	 esp, 12			; 0000000cH

; 1986 : 		}
; 1987 : 		else

  00b9d	eb 0d		 jmp	 SHORT $outcome$1251
$LN47@DoInstall:

; 1988 : 		{
; 1989 : 			Warning ("SYS_ENC_UPGRADE_FAILED");

  00b9f	68 00 00 00 00	 push	 OFFSET ??_C@_0BH@FAKCOHIL@SYS_ENC_UPGRADE_FAILED?$AA@
  00ba4	e8 00 00 00 00	 call	 _Warning
  00ba9	83 c4 04	 add	 esp, 4
$outcome$1251:

; 1990 : 		}
; 1991 : 	}
; 1992 : 
; 1993 : outcome:
; 1994 : 	OutcomePrompt (hwndDlg, bOK);

  00bac	53		 push	 ebx
  00bad	57		 push	 edi
  00bae	e8 00 00 00 00	 call	 _OutcomePrompt
  00bb3	83 c4 08	 add	 esp, 8

; 1995 : 
; 1996 : 	if (bOK && !bUninstall && !bDowngrade && !bRepairMode && !bDevm)

  00bb6	85 db		 test	 ebx, ebx
  00bb8	0f 84 8a 00 00
	00		 je	 $LN56@DoInstall
  00bbe	83 3d 00 00 00
	00 00		 cmp	 DWORD PTR ?bUninstall@@3HA, 0 ; bUninstall
  00bc5	0f 85 7d 00 00
	00		 jne	 $LN56@DoInstall
  00bcb	83 3d 00 00 00
	00 00		 cmp	 DWORD PTR ?bDowngrade@@3HA, 0 ; bDowngrade
  00bd2	75 74		 jne	 SHORT $LN56@DoInstall
  00bd4	83 3d 00 00 00
	00 00		 cmp	 DWORD PTR _bRepairMode, 0
  00bdb	75 6b		 jne	 SHORT $LN56@DoInstall
  00bdd	83 3d 00 00 00
	00 00		 cmp	 DWORD PTR _bDevm, 0
  00be4	75 62		 jne	 SHORT $LN56@DoInstall

; 1997 : 	{
; 1998 : 		if (!IsHiddenOSRunning())	// A hidden OS user should not see the post-install notes twice (on decoy OS and then on hidden OS).

  00be6	e8 00 00 00 00	 call	 _IsHiddenOSRunning
  00beb	85 c0		 test	 eax, eax
  00bed	75 59		 jne	 SHORT $LN56@DoInstall

; 1999 : 		{
; 2000 : 			if (bRestartRequired || SystemEncryptionUpdate)

  00bef	39 05 00 00 00
	00		 cmp	 DWORD PTR _bRestartRequired, eax
  00bf5	75 31		 jne	 SHORT $LN53@DoInstall
  00bf7	39 05 00 00 00
	00		 cmp	 DWORD PTR _SystemEncryptionUpdate, eax
  00bfd	75 29		 jne	 SHORT $LN53@DoInstall

; 2011 : 				}
; 2012 : 			}
; 2013 : 			else
; 2014 : 			{
; 2015 : 				// No restart will be required
; 2016 : 
; 2017 : 				if (bUpgrade)

  00bff	39 05 00 00 00
	00		 cmp	 DWORD PTR _bUpgrade, eax
  00c05	74 0c		 je	 SHORT $LN57@DoInstall

; 2018 : 				{
; 2019 : 					bPromptReleaseNotes = TRUE;

  00c07	c7 05 00 00 00
	00 01 00 00 00	 mov	 DWORD PTR _bPromptReleaseNotes, 1
  00c11	eb 35		 jmp	 SHORT $LN56@DoInstall
$LN57@DoInstall:

; 2020 : 				}
; 2021 : 				else if (bPossiblyFirstTimeInstall)

  00c13	83 3d 00 00 00
	00 00		 cmp	 DWORD PTR _bPossiblyFirstTimeInstall, 0
  00c1a	74 2c		 je	 SHORT $LN56@DoInstall

; 2022 : 				{
; 2023 : 					bPromptTutorial = TRUE;

  00c1c	c7 05 00 00 00
	00 01 00 00 00	 mov	 DWORD PTR _bPromptTutorial, 1
  00c26	eb 20		 jmp	 SHORT $LN56@DoInstall
$LN53@DoInstall:

; 2001 : 			{
; 2002 : 				// Restart required
; 2003 : 
; 2004 : 				if (bUpgrade)

  00c28	83 3d 00 00 00
	00 00		 cmp	 DWORD PTR _bUpgrade, 0
  00c2f	74 04		 je	 SHORT $LN54@DoInstall

; 2005 : 				{
; 2006 : 					SavePostInstallTasksSettings (GST_POST_INSTALL_CFG_RELEASE_NOTES);

  00c31	6a 02		 push	 2
  00c33	eb 0b		 jmp	 SHORT $LN1249@DoInstall
$LN54@DoInstall:

; 2007 : 				}
; 2008 : 				else if (bPossiblyFirstTimeInstall)

  00c35	83 3d 00 00 00
	00 00		 cmp	 DWORD PTR _bPossiblyFirstTimeInstall, 0
  00c3c	74 0a		 je	 SHORT $LN56@DoInstall

; 2009 : 				{
; 2010 : 					SavePostInstallTasksSettings (GST_POST_INSTALL_CFG_TUTORIAL);

  00c3e	6a 01		 push	 1
$LN1249@DoInstall:
  00c40	e8 00 00 00 00	 call	 _SavePostInstallTasksSettings
  00c45	83 c4 04	 add	 esp, 4
$LN56@DoInstall:

; 2024 : 				}
; 2025 : 			}
; 2026 : 		}
; 2027 : 	}
; 2028 : 
; 2029 : 	PostMessage (MainDlg, bOK ? GST_APPMSG_INSTALL_SUCCESS : GST_APPMSG_INSTALL_FAILURE, 0, 0);

  00c48	6a 00		 push	 0
  00c4a	85 db		 test	 ebx, ebx
  00c4c	b8 94 81 00 00	 mov	 eax, 33172		; 00008194H
  00c51	b9 91 81 00 00	 mov	 ecx, 33169		; 00008191H
  00c56	6a 00		 push	 0
  00c58	0f 45 c1	 cmovne	 eax, ecx
  00c5b	50		 push	 eax
$LN1246@DoInstall:
  00c5c	ff 35 00 00 00
	00		 push	 DWORD PTR _MainDlg
  00c62	ff 15 00 00 00
	00		 call	 DWORD PTR __imp__PostMessageA@16

; 2030 : }

  00c68	8d 8d 00 f6 ff
	ff		 lea	 ecx, DWORD PTR _bootEnc$[ebp]
  00c6e	e8 00 00 00 00	 call	 ??1BootEncryption@GostCrypt@@QAE@XZ ; GostCrypt::BootEncryption::~BootEncryption
  00c73	8b 4d f4	 mov	 ecx, DWORD PTR __$EHRec$[ebp+4]
  00c76	64 89 0d 00 00
	00 00		 mov	 DWORD PTR fs:0, ecx
  00c7d	59		 pop	 ecx
  00c7e	5f		 pop	 edi
  00c7f	5e		 pop	 esi
  00c80	5b		 pop	 ebx
  00c81	8b 4d ec	 mov	 ecx, DWORD PTR __$ArrayPad$[ebp]
  00c84	33 cd		 xor	 ecx, ebp
  00c86	e8 00 00 00 00	 call	 @__security_check_cookie@4
  00c8b	8b e5		 mov	 esp, ebp
  00c8d	5d		 pop	 ebp
  00c8e	c3		 ret	 0
_TEXT	ENDS
;	COMDAT text$x
text$x	SEGMENT
__unwindfunclet$_DoInstall$9:
  00000	8d 8d 00 f6 ff
	ff		 lea	 ecx, DWORD PTR _bootEnc$[ebp]
  00006	e9 00 00 00 00	 jmp	 ??1BootEncryption@GostCrypt@@QAE@XZ ; GostCrypt::BootEncryption::~BootEncryption
__unwindfunclet$_DoInstall$10:
  0000b	8b 85 f4 f5 ff
	ff		 mov	 eax, DWORD PTR $T3[ebp]
  00011	83 e0 01	 and	 eax, 1
  00014	0f 84 12 00 00
	00		 je	 $LN76@DoInstall
  0001a	83 a5 f4 f5 ff
	ff fe		 and	 DWORD PTR $T3[ebp], -2	; fffffffeH
  00021	8d 8d c8 fb ff
	ff		 lea	 ecx, DWORD PTR $T6[ebp]
  00027	e9 00 00 00 00	 jmp	 ??1?$basic_string@DU?$char_traits@D@std@@V?$allocator@D@2@@std@@QAE@XZ ; std::basic_string<char,std::char_traits<char>,std::allocator<char> >::~basic_string<char,std::char_traits<char>,std::allocator<char> >
$LN76@DoInstall:
  0002c	c3		 ret	 0
__unwindfunclet$_DoInstall$11:
  0002d	8b 85 f4 f5 ff
	ff		 mov	 eax, DWORD PTR $T3[ebp]
  00033	83 e0 02	 and	 eax, 2
  00036	0f 84 12 00 00
	00		 je	 $LN78@DoInstall
  0003c	83 a5 f4 f5 ff
	ff fd		 and	 DWORD PTR $T3[ebp], -3	; fffffffdH
  00043	8d 8d e0 fb ff
	ff		 lea	 ecx, DWORD PTR $T7[ebp]
  00049	e9 00 00 00 00	 jmp	 ??1?$basic_string@DU?$char_traits@D@std@@V?$allocator@D@2@@std@@QAE@XZ ; std::basic_string<char,std::char_traits<char>,std::allocator<char> >::~basic_string<char,std::char_traits<char>,std::allocator<char> >
$LN78@DoInstall:
  0004e	c3		 ret	 0
__unwindfunclet$_DoInstall$12:
  0004f	8b 85 f4 f5 ff
	ff		 mov	 eax, DWORD PTR $T3[ebp]
  00055	83 e0 04	 and	 eax, 4
  00058	0f 84 12 00 00
	00		 je	 $LN80@DoInstall
  0005e	83 a5 f4 f5 ff
	ff fb		 and	 DWORD PTR $T3[ebp], -5	; fffffffbH
  00065	8d 8d f8 fb ff
	ff		 lea	 ecx, DWORD PTR $T8[ebp]
  0006b	e9 00 00 00 00	 jmp	 ??1?$basic_string@DU?$char_traits@D@std@@V?$allocator@D@2@@std@@QAE@XZ ; std::basic_string<char,std::char_traits<char>,std::allocator<char> >::~basic_string<char,std::char_traits<char>,std::allocator<char> >
$LN80@DoInstall:
  00070	c3		 ret	 0
__unwindfunclet$_DoInstall$13:
  00071	8b 85 f4 f5 ff
	ff		 mov	 eax, DWORD PTR $T3[ebp]
  00077	83 e0 08	 and	 eax, 8
  0007a	0f 84 12 00 00
	00		 je	 $LN82@DoInstall
  00080	83 a5 f4 f5 ff
	ff f7		 and	 DWORD PTR $T3[ebp], -9	; fffffff7H
  00087	8d 8d 10 fc ff
	ff		 lea	 ecx, DWORD PTR $T9[ebp]
  0008d	e9 00 00 00 00	 jmp	 ??1?$basic_string@DU?$char_traits@D@std@@V?$allocator@D@2@@std@@QAE@XZ ; std::basic_string<char,std::char_traits<char>,std::allocator<char> >::~basic_string<char,std::char_traits<char>,std::allocator<char> >
$LN82@DoInstall:
  00092	c3		 ret	 0
__unwindfunclet$_DoInstall$14:
  00093	8b 85 f4 f5 ff
	ff		 mov	 eax, DWORD PTR $T3[ebp]
  00099	83 e0 10	 and	 eax, 16			; 00000010H
  0009c	0f 84 12 00 00
	00		 je	 $LN84@DoInstall
  000a2	83 a5 f4 f5 ff
	ff ef		 and	 DWORD PTR $T3[ebp], -17	; ffffffefH
  000a9	8d 8d 28 fc ff
	ff		 lea	 ecx, DWORD PTR $T10[ebp]
  000af	e9 00 00 00 00	 jmp	 ??1?$basic_string@DU?$char_traits@D@std@@V?$allocator@D@2@@std@@QAE@XZ ; std::basic_string<char,std::char_traits<char>,std::allocator<char> >::~basic_string<char,std::char_traits<char>,std::allocator<char> >
$LN84@DoInstall:
  000b4	c3		 ret	 0
__unwindfunclet$_DoInstall$15:
  000b5	8b 85 f4 f5 ff
	ff		 mov	 eax, DWORD PTR $T3[ebp]
  000bb	83 e0 20	 and	 eax, 32			; 00000020H
  000be	0f 84 12 00 00
	00		 je	 $LN86@DoInstall
  000c4	83 a5 f4 f5 ff
	ff df		 and	 DWORD PTR $T3[ebp], -33	; ffffffdfH
  000cb	8d 8d 40 fc ff
	ff		 lea	 ecx, DWORD PTR $T11[ebp]
  000d1	e9 00 00 00 00	 jmp	 ??1?$basic_string@DU?$char_traits@D@std@@V?$allocator@D@2@@std@@QAE@XZ ; std::basic_string<char,std::char_traits<char>,std::allocator<char> >::~basic_string<char,std::char_traits<char>,std::allocator<char> >
$LN86@DoInstall:
  000d6	c3		 ret	 0
__unwindfunclet$_DoInstall$16:
  000d7	8b 85 f4 f5 ff
	ff		 mov	 eax, DWORD PTR $T3[ebp]
  000dd	83 e0 40	 and	 eax, 64			; 00000040H
  000e0	0f 84 12 00 00
	00		 je	 $LN88@DoInstall
  000e6	83 a5 f4 f5 ff
	ff bf		 and	 DWORD PTR $T3[ebp], -65	; ffffffbfH
  000ed	8d 8d 58 fc ff
	ff		 lea	 ecx, DWORD PTR $T12[ebp]
  000f3	e9 00 00 00 00	 jmp	 ??1?$basic_string@DU?$char_traits@D@std@@V?$allocator@D@2@@std@@QAE@XZ ; std::basic_string<char,std::char_traits<char>,std::allocator<char> >::~basic_string<char,std::char_traits<char>,std::allocator<char> >
$LN88@DoInstall:
  000f8	c3		 ret	 0
__unwindfunclet$_DoInstall$17:
  000f9	8b 85 f4 f5 ff
	ff		 mov	 eax, DWORD PTR $T3[ebp]
  000ff	25 80 00 00 00	 and	 eax, 128		; 00000080H
  00104	0f 84 15 00 00
	00		 je	 $LN90@DoInstall
  0010a	81 a5 f4 f5 ff
	ff 7f ff ff ff	 and	 DWORD PTR $T3[ebp], -129 ; ffffff7fH
  00114	8d 8d 88 fc ff
	ff		 lea	 ecx, DWORD PTR $T17[ebp]
  0011a	e9 00 00 00 00	 jmp	 ??1?$basic_string@DU?$char_traits@D@std@@V?$allocator@D@2@@std@@QAE@XZ ; std::basic_string<char,std::char_traits<char>,std::allocator<char> >::~basic_string<char,std::char_traits<char>,std::allocator<char> >
$LN90@DoInstall:
  0011f	c3		 ret	 0
__unwindfunclet$_DoInstall$19:
  00120	8d 8d 88 fc ff
	ff		 lea	 ecx, DWORD PTR _favorites$16[ebp]
  00126	e9 00 00 00 00	 jmp	 ??1?$basic_string@DU?$char_traits@D@std@@V?$allocator@D@2@@std@@QAE@XZ ; std::basic_string<char,std::char_traits<char>,std::allocator<char> >::~basic_string<char,std::char_traits<char>,std::allocator<char> >
__unwindfunclet$_DoInstall$20:
  0012b	8d 8d 70 fc ff
	ff		 lea	 ecx, DWORD PTR _sysFavorites$13[ebp]
  00131	e9 00 00 00 00	 jmp	 ??1?$basic_string@DU?$char_traits@D@std@@V?$allocator@D@2@@std@@QAE@XZ ; std::basic_string<char,std::char_traits<char>,std::allocator<char> >::~basic_string<char,std::char_traits<char>,std::allocator<char> >
__ehhandler$_DoInstall:
  00136	8b 54 24 08	 mov	 edx, DWORD PTR [esp+8]
  0013a	8d 42 0c	 lea	 eax, DWORD PTR [edx+12]
  0013d	8b 8a e0 f5 ff
	ff		 mov	 ecx, DWORD PTR [edx-2592]
  00143	33 c8		 xor	 ecx, eax
  00145	e8 00 00 00 00	 call	 @__security_check_cookie@4
  0014a	8b 4a f8	 mov	 ecx, DWORD PTR [edx-8]
  0014d	33 c8		 xor	 ecx, eax
  0014f	e8 00 00 00 00	 call	 @__security_check_cookie@4
  00154	b8 00 00 00 00	 mov	 eax, OFFSET __ehfuncinfo$_DoInstall
  00159	e9 00 00 00 00	 jmp	 ___CxxFrameHandler3
text$x	ENDS
_DoInstall ENDP
; Function compile flags: /Ogtp
; File c:\users\alexis\desktop\sources_gostcrypt_windows_1.3.1_commented\sources_gostcrypt_windows_1.3.1é\sources_gostcrypt_windows_1.3.1\setup\setup.c
;	COMDAT _DoUninstall
_TEXT	SEGMENT
_bTempSkipSysRestore$1$ = -268				; size = 4
_temp$1 = -264						; size = 260
__$ArrayPad$ = -4					; size = 4
_arg$ = 8						; size = 4
_DoUninstall PROC					; COMDAT

; 1638 : {

  00000	55		 push	 ebp
  00001	8b ec		 mov	 ebp, esp
  00003	81 ec 0c 01 00
	00		 sub	 esp, 268		; 0000010cH
  00009	a1 00 00 00 00	 mov	 eax, DWORD PTR ___security_cookie
  0000e	33 c5		 xor	 eax, ebp
  00010	89 45 fc	 mov	 DWORD PTR __$ArrayPad$[ebp], eax

; 1639 : 	HWND hwndDlg = (HWND) arg;
; 1640 : 	BOOL bOK = TRUE;
; 1641 : 	BOOL bTempSkipSysRestore = FALSE;
; 1642 : 
; 1643 : 	if (!Rollback)

  00013	83 3d 00 00 00
	00 00		 cmp	 DWORD PTR _Rollback, 0
  0001a	53		 push	 ebx
  0001b	8b 1d 00 00 00
	00		 mov	 ebx, DWORD PTR __imp__GetDlgItem@8
  00021	56		 push	 esi
  00022	8b 75 08	 mov	 esi, DWORD PTR _arg$[ebp]
  00025	57		 push	 edi
  00026	bf 01 00 00 00	 mov	 edi, 1
  0002b	c7 85 f4 fe ff
	ff 00 00 00 00	 mov	 DWORD PTR _bTempSkipSysRestore$1$[ebp], 0
  00035	75 11		 jne	 SHORT $LN2@DoUninstal

; 1644 : 		EnableWindow (GetDlgItem ((HWND) hwndDlg, IDC_UNINSTALL), FALSE);

  00037	6a 00		 push	 0
  00039	68 f7 03 00 00	 push	 1015			; 000003f7H
  0003e	56		 push	 esi
  0003f	ff d3		 call	 ebx
  00041	50		 push	 eax
  00042	ff 15 00 00 00
	00		 call	 DWORD PTR __imp__EnableWindow@8
$LN2@DoUninstal:

; 1645 : 
; 1646 : 	WaitCursor ();

  00048	e8 00 00 00 00	 call	 _WaitCursor

; 1647 : 
; 1648 : 	if (!Rollback)

  0004d	83 3d 00 00 00
	00 00		 cmp	 DWORD PTR _Rollback, 0
  00054	75 18		 jne	 SHORT $LN3@DoUninstal

; 1649 : 	{
; 1650 : 		ClearLogWindow (hwndDlg);

  00056	6a 00		 push	 0
  00058	6a 00		 push	 0
  0005a	68 84 01 00 00	 push	 388			; 00000184H
  0005f	68 f9 03 00 00	 push	 1017			; 000003f9H
  00064	56		 push	 esi
  00065	ff d3		 call	 ebx
  00067	50		 push	 eax
  00068	ff 15 00 00 00
	00		 call	 DWORD PTR __imp__SendMessageA@16
$LN3@DoUninstal:

; 1651 : 	}
; 1652 : 
; 1653 : 	if (DoDriverUnload (hwndDlg) == FALSE)

  0006e	56		 push	 esi
  0006f	e8 00 00 00 00	 call	 _DoDriverUnload
  00074	83 c4 04	 add	 esp, 4
  00077	85 c0		 test	 eax, eax
  00079	75 11		 jne	 SHORT $LN4@DoUninstal

; 1654 : 	{
; 1655 : 		bOK = FALSE;

  0007b	33 ff		 xor	 edi, edi

; 1656 : 		bTempSkipSysRestore = TRUE;		// Volumes are possibly mounted; defer System Restore point creation for this uninstall attempt.

  0007d	c7 85 f4 fe ff
	ff 01 00 00 00	 mov	 DWORD PTR _bTempSkipSysRestore$1$[ebp], 1

; 1657 : 	}
; 1658 : 	else

  00087	e9 33 01 00 00	 jmp	 $LN18@DoUninstal
$LN4@DoUninstal:

; 1659 : 	{
; 1660 : 		if (!Rollback && bSystemRestore && !bTempSkipSysRestore)

  0008c	83 3d 00 00 00
	00 00		 cmp	 DWORD PTR _Rollback, 0
  00093	75 14		 jne	 SHORT $LN6@DoUninstal
  00095	83 3d 00 00 00
	00 00		 cmp	 DWORD PTR _bSystemRestore, 0
  0009c	74 0b		 je	 SHORT $LN6@DoUninstal

; 1661 : 			SetSystemRestorePoint (hwndDlg, FALSE);

  0009e	6a 00		 push	 0
  000a0	56		 push	 esi
  000a1	e8 00 00 00 00	 call	 ?SetSystemRestorePoint@@YAXPAUHWND__@@H@Z ; SetSystemRestorePoint
  000a6	83 c4 08	 add	 esp, 8
$LN6@DoUninstal:

; 1662 : 
; 1663 : 		if (DoServiceUninstall (hwndDlg, "gostcrypt") == FALSE)

  000a9	68 00 00 00 00	 push	 OFFSET ??_C@_09JCILFBFB@gostcrypt?$AA@
  000ae	56		 push	 esi
  000af	e8 00 00 00 00	 call	 _DoServiceUninstall
  000b4	83 c4 08	 add	 esp, 8
  000b7	85 c0		 test	 eax, eax
  000b9	75 07		 jne	 SHORT $LN7@DoUninstal

; 1664 : 		{
; 1665 : 			bOK = FALSE;

  000bb	33 ff		 xor	 edi, edi
  000bd	e9 fd 00 00 00	 jmp	 $LN18@DoUninstal
$LN7@DoUninstal:

; 1666 : 		}
; 1667 : 		else if (DoRegUninstall ((HWND) hwndDlg, FALSE) == FALSE)

  000c2	6a 00		 push	 0
  000c4	56		 push	 esi
  000c5	e8 00 00 00 00	 call	 _DoRegUninstall
  000ca	83 c4 08	 add	 esp, 8
  000cd	85 c0		 test	 eax, eax
  000cf	75 07		 jne	 SHORT $LN9@DoUninstal

; 1668 : 		{
; 1669 : 			bOK = FALSE;

  000d1	33 ff		 xor	 edi, edi
  000d3	e9 e7 00 00 00	 jmp	 $LN18@DoUninstal
$LN9@DoUninstal:

; 1670 : 		}
; 1671 : 		else if (DoFilesInstall ((HWND) hwndDlg, InstallationPath) == FALSE)

  000d8	68 00 00 00 00	 push	 OFFSET _InstallationPath
  000dd	56		 push	 esi
  000de	e8 00 00 00 00	 call	 _DoFilesInstall
  000e3	83 c4 08	 add	 esp, 8
  000e6	85 c0		 test	 eax, eax
  000e8	75 07		 jne	 SHORT $LN11@DoUninstal

; 1672 : 		{
; 1673 : 			bOK = FALSE;

  000ea	33 ff		 xor	 edi, edi
  000ec	e9 ce 00 00 00	 jmp	 $LN18@DoUninstal
$LN11@DoUninstal:

; 1674 : 		}
; 1675 : 		else if (DoShortcutsUninstall (hwndDlg, InstallationPath) == FALSE)

  000f1	68 00 00 00 00	 push	 OFFSET _InstallationPath
  000f6	56		 push	 esi
  000f7	e8 00 00 00 00	 call	 _DoShortcutsUninstall
  000fc	83 c4 08	 add	 esp, 8
  000ff	85 c0		 test	 eax, eax
  00101	75 07		 jne	 SHORT $LN13@DoUninstal

; 1676 : 		{
; 1677 : 			bOK = FALSE;

  00103	33 ff		 xor	 edi, edi
  00105	e9 b5 00 00 00	 jmp	 $LN18@DoUninstal
$LN13@DoUninstal:

; 1678 : 		}
; 1679 : 		else if (!DoApplicationDataUninstall (hwndDlg))

  0010a	56		 push	 esi
  0010b	e8 00 00 00 00	 call	 ?DoApplicationDataUninstall@@YAHPAUHWND__@@@Z ; DoApplicationDataUninstall
  00110	83 c4 04	 add	 esp, 4
  00113	85 c0		 test	 eax, eax
  00115	75 07		 jne	 SHORT $LN15@DoUninstal

; 1680 : 		{
; 1681 : 			bOK = FALSE;

  00117	33 ff		 xor	 edi, edi

; 1682 : 		}
; 1683 : 		else

  00119	e9 a1 00 00 00	 jmp	 $LN18@DoUninstal
$LN15@DoUninstal:

; 1684 : 		{
; 1685 : 			char temp[MAX_PATH];
; 1686 : 			FILE *f;
; 1687 : 
; 1688 : 			// Deprecated service
; 1689 : 			DoServiceUninstall (hwndDlg, "GostCryptService");

  0011e	68 00 00 00 00	 push	 OFFSET ??_C@_0BB@CILIJECC@GostCryptService?$AA@
  00123	56		 push	 esi
  00124	e8 00 00 00 00	 call	 _DoServiceUninstall
  00129	83 c4 08	 add	 esp, 8

; 1690 : 
; 1691 : 			GetTempPath (sizeof (temp), temp);

  0012c	8d 85 f8 fe ff
	ff		 lea	 eax, DWORD PTR _temp$1[ebp]
  00132	50		 push	 eax
  00133	68 04 01 00 00	 push	 260			; 00000104H
  00138	ff 15 00 00 00
	00		 call	 DWORD PTR __imp__GetTempPathA@8

; 1692 : 			_snprintf (UninstallBatch, sizeof (UninstallBatch), "%s\\GostCrypt-Uninstall.bat", temp);

  0013e	8d 85 f8 fe ff
	ff		 lea	 eax, DWORD PTR _temp$1[ebp]
  00144	50		 push	 eax
  00145	68 00 00 00 00	 push	 OFFSET ??_C@_0BL@NBOCNBBF@?$CFs?2GostCrypt?9Uninstall?4bat?$AA@
  0014a	68 04 01 00 00	 push	 260			; 00000104H
  0014f	68 00 00 00 00	 push	 OFFSET ?UninstallBatch@@3PADA
  00154	e8 00 00 00 00	 call	 __snprintf

; 1693 : 
; 1694 : 			UninstallBatch [sizeof(UninstallBatch)-1] = 0;
; 1695 : 
; 1696 : 			// Create uninstall batch
; 1697 : 			f = fopen (UninstallBatch, "w");

  00159	68 00 00 00 00	 push	 OFFSET ??_C@_01NOFIACDB@w?$AA@
  0015e	68 00 00 00 00	 push	 OFFSET ?UninstallBatch@@3PADA
  00163	c6 05 03 01 00
	00 00		 mov	 BYTE PTR ?UninstallBatch@@3PADA+259, 0
  0016a	e8 00 00 00 00	 call	 _fopen
  0016f	8b d8		 mov	 ebx, eax
  00171	83 c4 18	 add	 esp, 24			; 00000018H

; 1698 : 			if (!f)

  00174	85 db		 test	 ebx, ebx
  00176	75 04		 jne	 SHORT $LN17@DoUninstal

; 1699 : 				bOK = FALSE;

  00178	33 ff		 xor	 edi, edi

; 1700 : 			else

  0017a	eb 3d		 jmp	 SHORT $LN28@DoUninstal
$LN17@DoUninstal:

; 1701 : 			{
; 1702 : 				fprintf (f, ":loop\n"

  0017c	68 00 00 00 00	 push	 OFFSET ?UninstallBatch@@3PADA
  00181	68 00 00 00 00	 push	 OFFSET _InstallationPath
  00186	68 00 00 00 00	 push	 OFFSET ??_C@_0BE@CHHIEGKC@GostCrypt?5Setup?4exe?$AA@
  0018b	68 00 00 00 00	 push	 OFFSET _InstallationPath
  00190	68 00 00 00 00	 push	 OFFSET ??_C@_0BE@CHHIEGKC@GostCrypt?5Setup?4exe?$AA@
  00195	68 00 00 00 00	 push	 OFFSET _InstallationPath
  0019a	68 00 00 00 00	 push	 OFFSET ??_C@_0DP@MNNFDDNO@?3loop?6del?5?$CC?$CFs?$CFs?$CC?6if?5exist?5?$CC?$CFs?$CFs?$CC@
  0019f	53		 push	 ebx
  001a0	e8 00 00 00 00	 call	 _fprintf

; 1703 : 					"del \"%s%s\"\n"
; 1704 : 					"if exist \"%s%s\" goto loop\n"
; 1705 : 					"rmdir \"%s\"\n"
; 1706 : 					"del \"%s\"",
; 1707 : 					InstallationPath, "GostCrypt Setup.exe",
; 1708 : 					InstallationPath, "GostCrypt Setup.exe",
; 1709 : 					InstallationPath,
; 1710 : 					UninstallBatch
; 1711 : 					);
; 1712 : 
; 1713 : 				CheckFileStreamWriteErrors (f, UninstallBatch);

  001a5	68 00 00 00 00	 push	 OFFSET ?UninstallBatch@@3PADA
  001aa	53		 push	 ebx
  001ab	e8 00 00 00 00	 call	 _CheckFileStreamWriteErrors

; 1714 : 				fclose (f);

  001b0	53		 push	 ebx
  001b1	e8 00 00 00 00	 call	 _fclose
  001b6	83 c4 2c	 add	 esp, 44			; 0000002cH
$LN28@DoUninstal:
  001b9	8b 1d 00 00 00
	00		 mov	 ebx, DWORD PTR __imp__GetDlgItem@8
$LN18@DoUninstal:

; 1715 : 			}
; 1716 : 		}
; 1717 : 	}
; 1718 : 
; 1719 : 	NormalCursor ();

  001bf	e8 00 00 00 00	 call	 _NormalCursor

; 1720 : 
; 1721 : 	if (Rollback)

  001c4	83 3d 00 00 00
	00 00		 cmp	 DWORD PTR _Rollback, 0
  001cb	75 58		 jne	 SHORT $LN1@DoUninstal

; 1722 : 		return;
; 1723 : 
; 1724 : 	if (bSystemRestore && !bTempSkipSysRestore)

  001cd	83 3d 00 00 00
	00 00		 cmp	 DWORD PTR _bSystemRestore, 0
  001d4	74 14		 je	 SHORT $LN20@DoUninstal
  001d6	83 bd f4 fe ff
	ff 00		 cmp	 DWORD PTR _bTempSkipSysRestore$1$[ebp], 0
  001dd	75 0b		 jne	 SHORT $LN20@DoUninstal

; 1725 : 		SetSystemRestorePoint (hwndDlg, TRUE);

  001df	6a 01		 push	 1
  001e1	56		 push	 esi
  001e2	e8 00 00 00 00	 call	 ?SetSystemRestorePoint@@YAXPAUHWND__@@H@Z ; SetSystemRestorePoint
  001e7	83 c4 08	 add	 esp, 8
$LN20@DoUninstal:
  001ea	85 ff		 test	 edi, edi

; 1726 : 
; 1727 : 	if (bOK)

  001ec	74 12		 je	 SHORT $LN21@DoUninstal

; 1728 : 		PostMessage (hwndDlg, GST_APPMSG_UNINSTALL_SUCCESS, 0, 0);

  001ee	6a 00		 push	 0
  001f0	6a 00		 push	 0
  001f2	68 92 81 00 00	 push	 33170			; 00008192H
  001f7	56		 push	 esi
  001f8	ff 15 00 00 00
	00		 call	 DWORD PTR __imp__PostMessageA@16

; 1729 : 	else

  001fe	eb 0a		 jmp	 SHORT $LN22@DoUninstal
$LN21@DoUninstal:

; 1730 : 		bUninstallInProgress = FALSE;

  00200	c7 05 00 00 00
	00 00 00 00 00	 mov	 DWORD PTR ?bUninstallInProgress@@3HA, 0 ; bUninstallInProgress
$LN22@DoUninstal:

; 1731 : 
; 1732 : 	EnableWindow (GetDlgItem ((HWND) hwndDlg, IDC_UNINSTALL), TRUE);

  0020a	6a 01		 push	 1
  0020c	68 f7 03 00 00	 push	 1015			; 000003f7H
  00211	56		 push	 esi
  00212	ff d3		 call	 ebx
  00214	50		 push	 eax
  00215	ff 15 00 00 00
	00		 call	 DWORD PTR __imp__EnableWindow@8

; 1733 : 	OutcomePrompt (hwndDlg, bOK);

  0021b	57		 push	 edi
  0021c	56		 push	 esi
  0021d	e8 00 00 00 00	 call	 _OutcomePrompt
  00222	83 c4 08	 add	 esp, 8
$LN1@DoUninstal:

; 1734 : }

  00225	8b 4d fc	 mov	 ecx, DWORD PTR __$ArrayPad$[ebp]
  00228	5f		 pop	 edi
  00229	5e		 pop	 esi
  0022a	33 cd		 xor	 ecx, ebp
  0022c	5b		 pop	 ebx
  0022d	e8 00 00 00 00	 call	 @__security_check_cookie@4
  00232	8b e5		 mov	 esp, ebp
  00234	5d		 pop	 ebp
  00235	c3		 ret	 0
_DoUninstall ENDP
_TEXT	ENDS
; Function compile flags: /Ogtp
; File c:\users\alexis\desktop\sources_gostcrypt_windows_1.3.1_commented\sources_gostcrypt_windows_1.3.1é\sources_gostcrypt_windows_1.3.1\setup\setup.c
;	COMDAT _OutcomePrompt
_TEXT	SEGMENT
_str$1 = -8196						; size = 8192
__$ArrayPad$ = -4					; size = 4
_hwndDlg$ = 8						; size = 4
_bOK$ = 12						; size = 4
_OutcomePrompt PROC					; COMDAT

; 1542 : {

  00000	55		 push	 ebp
  00001	8b ec		 mov	 ebp, esp
  00003	b8 04 20 00 00	 mov	 eax, 8196		; 00002004H
  00008	e8 00 00 00 00	 call	 __chkstk
  0000d	a1 00 00 00 00	 mov	 eax, DWORD PTR ___security_cookie
  00012	33 c5		 xor	 eax, ebp
  00014	89 45 fc	 mov	 DWORD PTR __$ArrayPad$[ebp], eax

; 1543 : 	if (bOK)

  00017	83 7d 0c 00	 cmp	 DWORD PTR _bOK$[ebp], 0
  0001b	56		 push	 esi
  0001c	8b 75 08	 mov	 esi, DWORD PTR _hwndDlg$[ebp]
  0001f	0f 84 f6 00 00
	00		 je	 $LN2@OutcomePro

; 1544 : 	{
; 1545 : 		EnableWindow (GetDlgItem ((HWND) hwndDlg, IDCANCEL), FALSE);

  00025	6a 00		 push	 0
  00027	6a 02		 push	 2
  00029	56		 push	 esi
  0002a	ff 15 00 00 00
	00		 call	 DWORD PTR __imp__GetDlgItem@8
  00030	50		 push	 eax
  00031	ff 15 00 00 00
	00		 call	 DWORD PTR __imp__EnableWindow@8

; 1546 : 
; 1547 : 		bDone = TRUE;
; 1548 : 
; 1549 : 		if (bUninstall == FALSE)

  00037	83 3d 00 00 00
	00 00		 cmp	 DWORD PTR ?bUninstall@@3HA, 0 ; bUninstall
  0003e	c7 05 00 00 00
	00 01 00 00 00	 mov	 DWORD PTR ?bDone@@3HA, 1 ; bDone
  00048	0f 85 86 00 00
	00		 jne	 $LN4@OutcomePro

; 1550 : 		{
; 1551 : 			if (bDevm)

  0004e	83 3d 00 00 00
	00 00		 cmp	 DWORD PTR _bDevm, 0
  00055	74 21		 je	 SHORT $LN6@OutcomePro

; 1552 : 				PostMessage (MainDlg, WM_CLOSE, 0, 0);

  00057	6a 00		 push	 0
  00059	6a 00		 push	 0
  0005b	6a 10		 push	 16			; 00000010H
  0005d	ff 35 00 00 00
	00		 push	 DWORD PTR _MainDlg
  00063	ff 15 00 00 00
	00		 call	 DWORD PTR __imp__PostMessageA@16
  00069	5e		 pop	 esi

; 1572 : 	}
; 1573 : }

  0006a	8b 4d fc	 mov	 ecx, DWORD PTR __$ArrayPad$[ebp]
  0006d	33 cd		 xor	 ecx, ebp
  0006f	e8 00 00 00 00	 call	 @__security_check_cookie@4
  00074	8b e5		 mov	 esp, ebp
  00076	5d		 pop	 ebp
  00077	c3		 ret	 0
$LN6@OutcomePro:

; 1553 : 			else if (bPossiblyFirstTimeInstall || bRepairMode || (!bUpgrade && !bDowngrade))

  00078	83 3d 00 00 00
	00 00		 cmp	 DWORD PTR _bPossiblyFirstTimeInstall, 0
  0007f	75 37		 jne	 SHORT $LN10@OutcomePro
  00081	83 3d 00 00 00
	00 00		 cmp	 DWORD PTR _bRepairMode, 0
  00088	75 2e		 jne	 SHORT $LN10@OutcomePro
  0008a	83 3d 00 00 00
	00 00		 cmp	 DWORD PTR _bUpgrade, 0
  00091	75 09		 jne	 SHORT $LN8@OutcomePro
  00093	83 3d 00 00 00
	00 00		 cmp	 DWORD PTR ?bDowngrade@@3HA, 0 ; bDowngrade
  0009a	74 1c		 je	 SHORT $LN10@OutcomePro
$LN8@OutcomePro:

; 1555 : 			else
; 1556 : 				Info ("SETUP_UPDATE_OK");

  0009c	68 00 00 00 00	 push	 OFFSET ??_C@_0BA@GIHLNOHP@SETUP_UPDATE_OK?$AA@
  000a1	e8 00 00 00 00	 call	 _Info

; 1571 : 			Error ("UNINSTALL_FAILED");

  000a6	83 c4 04	 add	 esp, 4
  000a9	5e		 pop	 esi

; 1572 : 	}
; 1573 : }

  000aa	8b 4d fc	 mov	 ecx, DWORD PTR __$ArrayPad$[ebp]
  000ad	33 cd		 xor	 ecx, ebp
  000af	e8 00 00 00 00	 call	 @__security_check_cookie@4
  000b4	8b e5		 mov	 esp, ebp
  000b6	5d		 pop	 ebp
  000b7	c3		 ret	 0
$LN10@OutcomePro:

; 1554 : 				Info ("INSTALL_OK");

  000b8	68 00 00 00 00	 push	 OFFSET ??_C@_0L@NPHNJMLA@INSTALL_OK?$AA@
  000bd	e8 00 00 00 00	 call	 _Info

; 1571 : 			Error ("UNINSTALL_FAILED");

  000c2	83 c4 04	 add	 esp, 4
  000c5	5e		 pop	 esi

; 1572 : 	}
; 1573 : }

  000c6	8b 4d fc	 mov	 ecx, DWORD PTR __$ArrayPad$[ebp]
  000c9	33 cd		 xor	 ecx, ebp
  000cb	e8 00 00 00 00	 call	 @__security_check_cookie@4
  000d0	8b e5		 mov	 esp, ebp
  000d2	5d		 pop	 ebp
  000d3	c3		 ret	 0
$LN4@OutcomePro:

; 1557 : 		}
; 1558 : 		else
; 1559 : 		{
; 1560 : 			wchar_t str[4096];
; 1561 : 
; 1562 : 			swprintf (str, GetString ("UNINSTALL_OK"), InstallationPath);

  000d4	68 00 00 00 00	 push	 OFFSET _InstallationPath
  000d9	68 00 00 00 00	 push	 OFFSET ??_C@_0N@HGHJILFC@UNINSTALL_OK?$AA@
  000de	e8 00 00 00 00	 call	 _GetString
  000e3	83 c4 04	 add	 esp, 4
  000e6	50		 push	 eax
  000e7	8d 85 fc df ff
	ff		 lea	 eax, DWORD PTR _str$1[ebp]
  000ed	50		 push	 eax
  000ee	e8 00 00 00 00	 call	 ?swprintf@@YAHQA_WQB_WZZ ; swprintf
  000f3	83 c4 0c	 add	 esp, 12			; 0000000cH

; 1563 : 			MessageBoxW (hwndDlg, str, lpszTitle, MB_ICONASTERISK);

  000f6	8d 85 fc df ff
	ff		 lea	 eax, DWORD PTR _str$1[ebp]
  000fc	6a 40		 push	 64			; 00000040H
  000fe	ff 35 00 00 00
	00		 push	 DWORD PTR _lpszTitle
  00104	50		 push	 eax
  00105	56		 push	 esi
  00106	ff 15 00 00 00
	00		 call	 DWORD PTR __imp__MessageBoxW@16
  0010c	5e		 pop	 esi

; 1572 : 	}
; 1573 : }

  0010d	8b 4d fc	 mov	 ecx, DWORD PTR __$ArrayPad$[ebp]
  00110	33 cd		 xor	 ecx, ebp
  00112	e8 00 00 00 00	 call	 @__security_check_cookie@4
  00117	8b e5		 mov	 esp, ebp
  00119	5d		 pop	 ebp
  0011a	c3		 ret	 0
$LN2@OutcomePro:

; 1564 : 		}
; 1565 : 	}
; 1566 : 	else
; 1567 : 	{
; 1568 : 		if (bUninstall == FALSE)

  0011b	83 3d 00 00 00
	00 00		 cmp	 DWORD PTR ?bUninstall@@3HA, 0 ; bUninstall
  00122	75 07		 jne	 SHORT $LN11@OutcomePro

; 1569 : 			Error ("INSTALL_FAILED");

  00124	68 00 00 00 00	 push	 OFFSET ??_C@_0P@DHOALJNC@INSTALL_FAILED?$AA@

; 1570 : 		else

  00129	eb 05		 jmp	 SHORT $LN15@OutcomePro
$LN11@OutcomePro:

; 1571 : 			Error ("UNINSTALL_FAILED");

  0012b	68 00 00 00 00	 push	 OFFSET ??_C@_0BB@JJJJFLNM@UNINSTALL_FAILED?$AA@
$LN15@OutcomePro:
  00130	e8 00 00 00 00	 call	 _Error

; 1572 : 	}
; 1573 : }

  00135	8b 4d fc	 mov	 ecx, DWORD PTR __$ArrayPad$[ebp]
  00138	83 c4 04	 add	 esp, 4
  0013b	33 cd		 xor	 ecx, ebp
  0013d	5e		 pop	 esi
  0013e	e8 00 00 00 00	 call	 @__security_check_cookie@4
  00143	8b e5		 mov	 esp, ebp
  00145	5d		 pop	 ebp
  00146	c3		 ret	 0
_OutcomePrompt ENDP
_TEXT	ENDS
; Function compile flags: /Ogtp
; File c:\users\alexis\desktop\sources_gostcrypt_windows_1.3.1_commented\sources_gostcrypt_windows_1.3.1é\sources_gostcrypt_windows_1.3.1\setup\setup.c
;	COMDAT _DoShortcutsUninstall
_TEXT	SEGMENT
_bOK$1$ = -848						; size = 4
_allUsers$1$ = -844					; size = 4
_st$1 = -840						; size = 56
_st$2 = -840						; size = 56
_st$3 = -840						; size = 56
_st$4 = -840						; size = 56
_st$5 = -840						; size = 56
_st$6 = -832						; size = 48
_path$7 = -784						; size = 260
_szLinkDir$ = -524					; size = 260
_szTmp2$ = -264						; size = 260
__$ArrayPad$ = -4					; size = 4
_hwndDlg$ = 8						; size = 4
_szDestDir$ = 12					; size = 4
_DoShortcutsUninstall PROC				; COMDAT

; 1318 : {

  00000	55		 push	 ebp
  00001	8b ec		 mov	 ebp, esp
  00003	81 ec 50 03 00
	00		 sub	 esp, 848		; 00000350H
  00009	a1 00 00 00 00	 mov	 eax, DWORD PTR ___security_cookie
  0000e	33 c5		 xor	 eax, ebp
  00010	89 45 fc	 mov	 DWORD PTR __$ArrayPad$[ebp], eax
  00013	53		 push	 ebx
  00014	56		 push	 esi
  00015	8b 75 08	 mov	 esi, DWORD PTR _hwndDlg$[ebp]
  00018	57		 push	 edi

; 1319 : 	char szLinkDir[GST_MAX_PATH];
; 1320 : 	char szTmp2[GST_MAX_PATH];
; 1321 : 	BOOL bSlash, bOK = FALSE;
; 1322 : 	HRESULT hOle;
; 1323 : 	int x;
; 1324 : 	BOOL allUsers = FALSE;
; 1325 : 
; 1326 : 	hOle = OleInitialize (NULL);

  00019	6a 00		 push	 0
  0001b	c7 85 b0 fc ff
	ff 00 00 00 00	 mov	 DWORD PTR _bOK$1$[ebp], 0
  00025	c7 85 b4 fc ff
	ff 00 00 00 00	 mov	 DWORD PTR _allUsers$1$[ebp], 0
  0002f	ff 15 00 00 00
	00		 call	 DWORD PTR __imp__OleInitialize@4

; 1327 : 
; 1328 : 	// User start menu
; 1329 :     SHGetSpecialFolderPath (hwndDlg, szLinkDir, CSIDL_PROGRAMS, 0);

  00035	8b 1d 00 00 00
	00		 mov	 ebx, DWORD PTR __imp__SHGetSpecialFolderPathA@16
  0003b	8d 85 f4 fd ff
	ff		 lea	 eax, DWORD PTR _szLinkDir$[ebp]
  00041	6a 00		 push	 0
  00043	6a 02		 push	 2
  00045	50		 push	 eax
  00046	56		 push	 esi
  00047	ff d3		 call	 ebx

; 1330 : 	x = strlen (szLinkDir);

  00049	8d 8d f4 fd ff
	ff		 lea	 ecx, DWORD PTR _szLinkDir$[ebp]
  0004f	8d 51 01	 lea	 edx, DWORD PTR [ecx+1]
$LL61@DoShortcut:
  00052	8a 01		 mov	 al, BYTE PTR [ecx]
  00054	41		 inc	 ecx
  00055	84 c0		 test	 al, al
  00057	75 f9		 jne	 SHORT $LL61@DoShortcut
  00059	2b ca		 sub	 ecx, edx
  0005b	80 bc 0d f3 fd
	ff ff 5c	 cmp	 BYTE PTR _szLinkDir$[ebp+ecx-1], 92 ; 0000005cH

; 1331 : 	if (szLinkDir[x - 1] == '\\')
; 1332 : 		bSlash = TRUE;
; 1333 : 	else
; 1334 : 		bSlash = FALSE;
; 1335 : 
; 1336 : 	if (bSlash == FALSE)

  00063	74 1e		 je	 SHORT $LN4@DoShortcut

; 1337 : 		strcat (szLinkDir, "\\");

  00065	8d bd f4 fd ff
	ff		 lea	 edi, DWORD PTR _szLinkDir$[ebp]
  0006b	4f		 dec	 edi
  0006c	0f 1f 40 00	 npad	 4
$LL62@DoShortcut:
  00070	8a 47 01	 mov	 al, BYTE PTR [edi+1]
  00073	8d 7f 01	 lea	 edi, DWORD PTR [edi+1]
  00076	84 c0		 test	 al, al
  00078	75 f6		 jne	 SHORT $LL62@DoShortcut
  0007a	66 a1 00 00 00
	00		 mov	 ax, WORD PTR ??_C@_01KICIPPFI@?2?$AA@
  00080	66 89 07	 mov	 WORD PTR [edi], ax
$LN4@DoShortcut:

; 1338 : 
; 1339 : 	strcat (szLinkDir, "GostCrypt");

  00083	8d 8d f4 fd ff
	ff		 lea	 ecx, DWORD PTR _szLinkDir$[ebp]
  00089	49		 dec	 ecx
  0008a	66 0f 1f 44 00
	00		 npad	 6
$LL63@DoShortcut:
  00090	8a 41 01	 mov	 al, BYTE PTR [ecx+1]
  00093	8d 49 01	 lea	 ecx, DWORD PTR [ecx+1]
  00096	84 c0		 test	 al, al
  00098	75 f6		 jne	 SHORT $LL63@DoShortcut
  0009a	a1 00 00 00 00	 mov	 eax, DWORD PTR ??_C@_09NKHKFHLH@GostCrypt?$AA@
  0009f	89 01		 mov	 DWORD PTR [ecx], eax
  000a1	a1 04 00 00 00	 mov	 eax, DWORD PTR ??_C@_09NKHKFHLH@GostCrypt?$AA@+4
  000a6	89 41 04	 mov	 DWORD PTR [ecx+4], eax
  000a9	66 a1 08 00 00
	00		 mov	 ax, WORD PTR ??_C@_09NKHKFHLH@GostCrypt?$AA@+8

; 1340 : 
; 1341 : 	// Global start menu
; 1342 : 	{
; 1343 : 		struct _stat st;
; 1344 : 		char path[GST_MAX_PATH];
; 1345 : 
; 1346 : 		SHGetSpecialFolderPath (hwndDlg, path, CSIDL_COMMON_PROGRAMS, 0);

  000af	6a 00		 push	 0
  000b1	66 89 41 08	 mov	 WORD PTR [ecx+8], ax
  000b5	8d 85 f0 fc ff
	ff		 lea	 eax, DWORD PTR _path$7[ebp]
  000bb	6a 17		 push	 23			; 00000017H
  000bd	50		 push	 eax
  000be	56		 push	 esi
  000bf	ff d3		 call	 ebx

; 1347 : 		strcat (path, "\\GostCrypt");

  000c1	8d 8d f0 fc ff
	ff		 lea	 ecx, DWORD PTR _path$7[ebp]
  000c7	49		 dec	 ecx
$LL64@DoShortcut:
  000c8	8a 41 01	 mov	 al, BYTE PTR [ecx+1]
  000cb	8d 49 01	 lea	 ecx, DWORD PTR [ecx+1]
  000ce	84 c0		 test	 al, al
  000d0	75 f6		 jne	 SHORT $LL64@DoShortcut
  000d2	a1 00 00 00 00	 mov	 eax, DWORD PTR ??_C@_0L@CANDMBMO@?2GostCrypt?$AA@
  000d7	89 01		 mov	 DWORD PTR [ecx], eax
  000d9	a1 04 00 00 00	 mov	 eax, DWORD PTR ??_C@_0L@CANDMBMO@?2GostCrypt?$AA@+4
  000de	89 41 04	 mov	 DWORD PTR [ecx+4], eax
  000e1	66 a1 08 00 00
	00		 mov	 ax, WORD PTR ??_C@_0L@CANDMBMO@?2GostCrypt?$AA@+8
  000e7	66 89 41 08	 mov	 WORD PTR [ecx+8], ax
  000eb	a0 0a 00 00 00	 mov	 al, BYTE PTR ??_C@_0L@CANDMBMO@?2GostCrypt?$AA@+10
  000f0	88 41 0a	 mov	 BYTE PTR [ecx+10], al

; 1348 : 
; 1349 : 		if (_stat (path, &st) == 0)

  000f3	8d 85 c0 fc ff
	ff		 lea	 eax, DWORD PTR _st$6[ebp]
  000f9	50		 push	 eax
  000fa	8d 85 f0 fc ff
	ff		 lea	 eax, DWORD PTR _path$7[ebp]
  00100	50		 push	 eax
  00101	e8 00 00 00 00	 call	 __stat64i32
  00106	83 c4 08	 add	 esp, 8
  00109	85 c0		 test	 eax, eax
  0010b	75 22		 jne	 SHORT $LN5@DoShortcut

; 1350 : 		{
; 1351 : 			strcpy (szLinkDir, path);

  0010d	33 c9		 xor	 ecx, ecx
  0010f	90		 npad	 1
$LL18@DoShortcut:
  00110	8a 84 0d f0 fc
	ff ff		 mov	 al, BYTE PTR _path$7[ebp+ecx]
  00117	8d 49 01	 lea	 ecx, DWORD PTR [ecx+1]
  0011a	88 84 0d f3 fd
	ff ff		 mov	 BYTE PTR _szLinkDir$[ebp+ecx-1], al
  00121	84 c0		 test	 al, al
  00123	75 eb		 jne	 SHORT $LL18@DoShortcut

; 1352 : 			allUsers = TRUE;

  00125	c7 85 b4 fc ff
	ff 01 00 00 00	 mov	 DWORD PTR _allUsers$1$[ebp], 1
$LN5@DoShortcut:

; 1353 : 		}
; 1354 : 	}
; 1355 : 
; 1356 : 	// Start menu entries
; 1357 : 	sprintf (szTmp2, "%s%s", szLinkDir, "\\GostCrypt.lnk");

  0012f	68 00 00 00 00	 push	 OFFSET ??_C@_0P@FMMFFOMO@?2GostCrypt?4lnk?$AA@
  00134	8d 85 f4 fd ff
	ff		 lea	 eax, DWORD PTR _szLinkDir$[ebp]
  0013a	50		 push	 eax
  0013b	8d 85 f8 fe ff
	ff		 lea	 eax, DWORD PTR _szTmp2$[ebp]
  00141	68 00 00 00 00	 push	 OFFSET ??_C@_04HDOCAJNK@?$CFs?$CFs?$AA@
  00146	50		 push	 eax
  00147	e8 00 00 00 00	 call	 _sprintf
  0014c	83 c4 10	 add	 esp, 16			; 00000010H

; 1358 : 	RemoveMessage (hwndDlg, szTmp2);

  0014f	83 3d 00 00 00
	00 00		 cmp	 DWORD PTR _Rollback, 0
  00156	75 15		 jne	 SHORT $LN20@DoShortcut
  00158	8d 85 f8 fe ff
	ff		 lea	 eax, DWORD PTR _szTmp2$[ebp]
  0015e	50		 push	 eax
  0015f	68 00 00 00 00	 push	 OFFSET ??_C@_08GLIOLGPM@REMOVING?$AA@
  00164	56		 push	 esi
  00165	e8 00 00 00 00	 call	 _StatusMessageParam
  0016a	83 c4 0c	 add	 esp, 12			; 0000000cH
$LN20@DoShortcut:

; 1359 : 	if (StatDeleteFile (szTmp2) == FALSE)

  0016d	8d 85 b8 fc ff
	ff		 lea	 eax, DWORD PTR _st$5[ebp]
  00173	50		 push	 eax
  00174	8d 85 f8 fe ff
	ff		 lea	 eax, DWORD PTR _szTmp2$[ebp]
  0017a	50		 push	 eax
  0017b	e8 00 00 00 00	 call	 __stat64
  00180	8b 3d 00 00 00
	00		 mov	 edi, DWORD PTR __imp__DeleteFileA@4
  00186	83 c4 08	 add	 esp, 8
  00189	85 c0		 test	 eax, eax
  0018b	75 11		 jne	 SHORT $LN57@DoShortcut
  0018d	8d 85 f8 fe ff
	ff		 lea	 eax, DWORD PTR _szTmp2$[ebp]
  00193	50		 push	 eax
  00194	ff d7		 call	 edi
  00196	85 c0		 test	 eax, eax
  00198	0f 84 d7 01 00
	00		 je	 $error$67
$LN57@DoShortcut:

; 1360 : 		goto error;
; 1361 : 
; 1362 : 	sprintf (szTmp2, "%s%s", szLinkDir, "\\GostCrypt Website.url");

  0019e	68 00 00 00 00	 push	 OFFSET ??_C@_0BH@BKNACPBJ@?2GostCrypt?5Website?4url?$AA@
  001a3	8d 85 f4 fd ff
	ff		 lea	 eax, DWORD PTR _szLinkDir$[ebp]
  001a9	50		 push	 eax
  001aa	8d 85 f8 fe ff
	ff		 lea	 eax, DWORD PTR _szTmp2$[ebp]
  001b0	68 00 00 00 00	 push	 OFFSET ??_C@_04HDOCAJNK@?$CFs?$CFs?$AA@
  001b5	50		 push	 eax
  001b6	e8 00 00 00 00	 call	 _sprintf
  001bb	83 c4 10	 add	 esp, 16			; 00000010H

; 1363 : 	RemoveMessage (hwndDlg, szTmp2);

  001be	83 3d 00 00 00
	00 00		 cmp	 DWORD PTR _Rollback, 0
  001c5	75 15		 jne	 SHORT $LN27@DoShortcut
  001c7	8d 85 f8 fe ff
	ff		 lea	 eax, DWORD PTR _szTmp2$[ebp]
  001cd	50		 push	 eax
  001ce	68 00 00 00 00	 push	 OFFSET ??_C@_08GLIOLGPM@REMOVING?$AA@
  001d3	56		 push	 esi
  001d4	e8 00 00 00 00	 call	 _StatusMessageParam
  001d9	83 c4 0c	 add	 esp, 12			; 0000000cH
$LN27@DoShortcut:

; 1364 : 	if (StatDeleteFile (szTmp2) == FALSE)

  001dc	8d 85 b8 fc ff
	ff		 lea	 eax, DWORD PTR _st$4[ebp]
  001e2	50		 push	 eax
  001e3	8d 85 f8 fe ff
	ff		 lea	 eax, DWORD PTR _szTmp2$[ebp]
  001e9	50		 push	 eax
  001ea	e8 00 00 00 00	 call	 __stat64
  001ef	83 c4 08	 add	 esp, 8
  001f2	85 c0		 test	 eax, eax
  001f4	75 11		 jne	 SHORT $LN58@DoShortcut
  001f6	8d 85 f8 fe ff
	ff		 lea	 eax, DWORD PTR _szTmp2$[ebp]
  001fc	50		 push	 eax
  001fd	ff d7		 call	 edi
  001ff	85 c0		 test	 eax, eax
  00201	0f 84 6e 01 00
	00		 je	 $error$67
$LN58@DoShortcut:

; 1365 : 		goto error;
; 1366 : 
; 1367 : 	sprintf (szTmp2, "%s%s", szLinkDir, "\\Uninstall GostCrypt.lnk");

  00207	68 00 00 00 00	 push	 OFFSET ??_C@_0BJ@JDKCCNOL@?2Uninstall?5GostCrypt?4lnk?$AA@
  0020c	8d 85 f4 fd ff
	ff		 lea	 eax, DWORD PTR _szLinkDir$[ebp]
  00212	50		 push	 eax
  00213	8d 85 f8 fe ff
	ff		 lea	 eax, DWORD PTR _szTmp2$[ebp]
  00219	68 00 00 00 00	 push	 OFFSET ??_C@_04HDOCAJNK@?$CFs?$CFs?$AA@
  0021e	50		 push	 eax
  0021f	e8 00 00 00 00	 call	 _sprintf
  00224	83 c4 10	 add	 esp, 16			; 00000010H

; 1368 : 	RemoveMessage (hwndDlg, szTmp2);

  00227	83 3d 00 00 00
	00 00		 cmp	 DWORD PTR _Rollback, 0
  0022e	75 15		 jne	 SHORT $LN34@DoShortcut
  00230	8d 85 f8 fe ff
	ff		 lea	 eax, DWORD PTR _szTmp2$[ebp]
  00236	50		 push	 eax
  00237	68 00 00 00 00	 push	 OFFSET ??_C@_08GLIOLGPM@REMOVING?$AA@
  0023c	56		 push	 esi
  0023d	e8 00 00 00 00	 call	 _StatusMessageParam
  00242	83 c4 0c	 add	 esp, 12			; 0000000cH
$LN34@DoShortcut:

; 1369 : 	if (StatDeleteFile (szTmp2) == FALSE)

  00245	8d 85 b8 fc ff
	ff		 lea	 eax, DWORD PTR _st$3[ebp]
  0024b	50		 push	 eax
  0024c	8d 85 f8 fe ff
	ff		 lea	 eax, DWORD PTR _szTmp2$[ebp]
  00252	50		 push	 eax
  00253	e8 00 00 00 00	 call	 __stat64
  00258	83 c4 08	 add	 esp, 8
  0025b	85 c0		 test	 eax, eax
  0025d	75 11		 jne	 SHORT $LN59@DoShortcut
  0025f	8d 85 f8 fe ff
	ff		 lea	 eax, DWORD PTR _szTmp2$[ebp]
