; Listing generated by Microsoft (R) Optimizing Compiler Version 19.00.24215.1 

	TITLE	C:\Users\Alexis\Desktop\Sources_GostCrypt_Windows_1.3.1_COMMENTED\Sources_GostCrypt_Windows_1.3.1é\Sources_GostCrypt_Windows_1.3.1\Setup\Wizard.c
	.686P
	.XMM
	include listing.inc
	.model	flat

INCLUDELIB LIBCMT
INCLUDELIB OLDNAMES

PUBLIC	?hCurPage@@3PAUHWND__@@A			; hCurPage
PUBLIC	?nCurPageNo@@3HA				; nCurPageNo
PUBLIC	?WizardDestInstallPath@@3PADA			; WizardDestInstallPath
PUBLIC	?WizardDestExtractPath@@3PADA			; WizardDestExtractPath
PUBLIC	?SelfFile@@3PADA				; SelfFile
PUBLIC	?hbmWizardBitmapRescaled@@3PAUHBITMAP__@@A	; hbmWizardBitmapRescaled
PUBLIC	?bExtractOnly@@3HA				; bExtractOnly
PUBLIC	?bLicenseAccepted@@3HA				; bLicenseAccepted
PUBLIC	?bOpenContainingFolder@@3HA			; bOpenContainingFolder
PUBLIC	?bExtractionSuccessful@@3HA			; bExtractionSuccessful
PUBLIC	?bStartInstall@@3HA				; bStartInstall
PUBLIC	?bStartExtraction@@3HA				; bStartExtraction
PUBLIC	?bInProgress@@3HA				; bInProgress
PUBLIC	?nPbar@@3HA					; nPbar
PUBLIC	??_C@_11LOCGONAA@?$AA?$AA@			; `string'
PUBLIC	_bPromptTutorial
PUBLIC	_bPromptReleaseNotes
_BSS	SEGMENT
?hCurPage@@3PAUHWND__@@A DD 01H DUP (?)			; hCurPage
?WizardDestInstallPath@@3PADA DB 0104H DUP (?)		; WizardDestInstallPath
?WizardDestExtractPath@@3PADA DB 0104H DUP (?)		; WizardDestExtractPath
?SelfFile@@3PADA DB 0104H DUP (?)			; SelfFile
?hbmWizardBitmapRescaled@@3PAUHBITMAP__@@A DD 01H DUP (?) ; hbmWizardBitmapRescaled
?bExtractOnly@@3HA DD 01H DUP (?)			; bExtractOnly
?bLicenseAccepted@@3HA DD 01H DUP (?)			; bLicenseAccepted
?bExtractionSuccessful@@3HA DD 01H DUP (?)		; bExtractionSuccessful
?bStartInstall@@3HA DD 01H DUP (?)			; bStartInstall
?bStartExtraction@@3HA DD 01H DUP (?)			; bStartExtraction
?bInProgress@@3HA DD 01H DUP (?)			; bInProgress
?nPbar@@3HA DD	01H DUP (?)				; nPbar
_bPromptTutorial DD 01H DUP (?)
_bPromptReleaseNotes DD 01H DUP (?)
_BSS	ENDS
;	COMDAT ??_C@_11LOCGONAA@?$AA?$AA@
CONST	SEGMENT
??_C@_11LOCGONAA@?$AA?$AA@ DB 00H, 00H			; `string'
CONST	ENDS
_DATA	SEGMENT
?nCurPageNo@@3HA DD 0ffffffffH				; nCurPageNo
?bOpenContainingFolder@@3HA DD 01H			; bOpenContainingFolder
_DATA	ENDS
PUBLIC	___local_stdio_printf_options
PUBLIC	??$__vcrt_va_start_verify_argument_type@QBD@@YAXXZ ; __vcrt_va_start_verify_argument_type<char const * const>
PUBLIC	_sprintf
PUBLIC	_InitProgressBar
PUBLIC	_UpdateProgressBarProc
PUBLIC	_RefreshUIGFX
PUBLIC	_localcleanupwiz
PUBLIC	_PageDialogProc@16
PUBLIC	_MainDialogProc@16
PUBLIC	?allocate@?$_Wrap_alloc@V?$allocator@D@std@@@std@@QAEPADI@Z ; std::_Wrap_alloc<std::allocator<char> >::allocate
PUBLIC	?deallocate@?$_Wrap_alloc@V?$allocator@D@std@@@std@@QAEXPADI@Z ; std::_Wrap_alloc<std::allocator<char> >::deallocate
PUBLIC	??0?$basic_string@DU?$char_traits@D@std@@V?$allocator@D@2@@std@@QAE@PBD@Z ; std::basic_string<char,std::char_traits<char>,std::allocator<char> >::basic_string<char,std::char_traits<char>,std::allocator<char> >
PUBLIC	?_Assign_rv@?$basic_string@DU?$char_traits@D@std@@V?$allocator@D@2@@std@@QAEX$$QAV12@@Z ; std::basic_string<char,std::char_traits<char>,std::allocator<char> >::_Assign_rv
PUBLIC	??1?$basic_string@DU?$char_traits@D@std@@V?$allocator@D@2@@std@@QAE@XZ ; std::basic_string<char,std::char_traits<char>,std::allocator<char> >::~basic_string<char,std::char_traits<char>,std::allocator<char> >
PUBLIC	?append@?$basic_string@DU?$char_traits@D@std@@V?$allocator@D@2@@std@@QAEAAV12@ABV12@II@Z ; std::basic_string<char,std::char_traits<char>,std::allocator<char> >::append
PUBLIC	?append@?$basic_string@DU?$char_traits@D@std@@V?$allocator@D@2@@std@@QAEAAV12@PBDI@Z ; std::basic_string<char,std::char_traits<char>,std::allocator<char> >::append
PUBLIC	?assign@?$basic_string@DU?$char_traits@D@std@@V?$allocator@D@2@@std@@QAEAAV12@ABV12@II@Z ; std::basic_string<char,std::char_traits<char>,std::allocator<char> >::assign
PUBLIC	?assign@?$basic_string@DU?$char_traits@D@std@@V?$allocator@D@2@@std@@QAEAAV12@PBDI@Z ; std::basic_string<char,std::char_traits<char>,std::allocator<char> >::assign
PUBLIC	?erase@?$basic_string@DU?$char_traits@D@std@@V?$allocator@D@2@@std@@QAEAAV12@II@Z ; std::basic_string<char,std::char_traits<char>,std::allocator<char> >::erase
PUBLIC	?_Copy@?$basic_string@DU?$char_traits@D@std@@V?$allocator@D@2@@std@@QAEXII@Z ; std::basic_string<char,std::char_traits<char>,std::allocator<char> >::_Copy
PUBLIC	?allocate@?$allocator@_W@std@@QAEPA_WI@Z	; std::allocator<wchar_t>::allocate
PUBLIC	??0?$_Wrap_alloc@V?$allocator@_W@std@@@std@@QAE@XZ ; std::_Wrap_alloc<std::allocator<wchar_t> >::_Wrap_alloc<std::allocator<wchar_t> >
PUBLIC	?deallocate@?$_Wrap_alloc@V?$allocator@_W@std@@@std@@QAEXPA_WI@Z ; std::_Wrap_alloc<std::allocator<wchar_t> >::deallocate
PUBLIC	??1?$_String_alloc@U?$_String_base_types@_WV?$allocator@_W@std@@@std@@@std@@QAE@XZ ; std::_String_alloc<std::_String_base_types<wchar_t,std::allocator<wchar_t> > >::~_String_alloc<std::_String_base_types<wchar_t,std::allocator<wchar_t> > >
PUBLIC	??4?$basic_string@_WU?$char_traits@_W@std@@V?$allocator@_W@2@@std@@QAEAAV01@PB_W@Z ; std::basic_string<wchar_t,std::char_traits<wchar_t>,std::allocator<wchar_t> >::operator=
PUBLIC	?assign@?$basic_string@_WU?$char_traits@_W@std@@V?$allocator@_W@2@@std@@QAEAAV12@ABV12@II@Z ; std::basic_string<wchar_t,std::char_traits<wchar_t>,std::allocator<wchar_t> >::assign
PUBLIC	?assign@?$basic_string@_WU?$char_traits@_W@std@@V?$allocator@_W@2@@std@@QAEAAV12@PB_WI@Z ; std::basic_string<wchar_t,std::char_traits<wchar_t>,std::allocator<wchar_t> >::assign
PUBLIC	?erase@?$basic_string@_WU?$char_traits@_W@std@@V?$allocator@_W@2@@std@@QAEAAV12@II@Z ; std::basic_string<wchar_t,std::char_traits<wchar_t>,std::allocator<wchar_t> >::erase
PUBLIC	?_Copy@?$basic_string@_WU?$char_traits@_W@std@@V?$allocator@_W@2@@std@@QAEXII@Z ; std::basic_string<wchar_t,std::char_traits<wchar_t>,std::allocator<wchar_t> >::_Copy
PUBLIC	?LoadPage@@YAXPAUHWND__@@H@Z			; LoadPage
PUBLIC	??$?HDU?$char_traits@D@std@@V?$allocator@D@1@@std@@YA?AV?$basic_string@DU?$char_traits@D@std@@V?$allocator@D@2@@0@$$QAV10@PBD@Z ; std::operator+<char,std::char_traits<char>,std::allocator<char> >
PUBLIC	??$destroy@PA_W@?$_Wrap_alloc@V?$allocator@_W@std@@@std@@QAEXPAPA_W@Z ; std::_Wrap_alloc<std::allocator<wchar_t> >::destroy<wchar_t *>
PUBLIC	?_OptionsStorage@?1??__local_stdio_printf_options@@9@4_KA ; `__local_stdio_printf_options'::`2'::_OptionsStorage
PUBLIC	?DonText@@3V?$basic_string@_WU?$char_traits@_W@std@@V?$allocator@_W@2@@std@@A ; DonText
PUBLIC	??_C@_01KICIPPFI@?2?$AA@			; `string'
PUBLIC	??_C@_0O@MGHONKG@IDD_INSTL_DLG?$AA@		; `string'
PUBLIC	??_C@_0BF@EOKBACHI@SETUP_WIZARD_PAGE_?$CFd?$AA@	; `string'
PUBLIC	??_C@_0BH@MFJOAEDC@CANNOT_DISPLAY_LICENSE?$AA@	; `string'
PUBLIC	??_C@_1DM@EGEEIDAI@?$AAP?$AAl?$AAe?$AAa?$AAs?$AAe?$AA?5?$AAr?$AAe?$AAa?$AAd?$AA?5?$AAt?$AAh?$AAe?$AA?5?$AAl?$AAi?$AAc?$AAe?$AAn?$AAs?$AAe?$AA?5?$AAt?$AAe?$AAr?$AAm?$AAs?$AA?$AA@ ; `string'
PUBLIC	??_C@_1KO@PHMNFEJ@?$AAY?$AAo?$AAu?$AA?5?$AAm?$AAu?$AAs?$AAt?$AA?5?$AAa?$AAc?$AAc?$AAe?$AAp?$AAt?$AA?5?$AAt?$AAh?$AAe?$AAs?$AAe?$AA?5?$AAl?$AAi?$AAc?$AAe?$AAn?$AAs?$AAe?$AA?5?$AAt?$AAe@ ; `string'
PUBLIC	??_C@_1BIA@MJJKLEKE@?$AAI?$AAM?$AAP?$AAO?$AAR?$AAT?$AAA?$AAN?$AAT?$AA?3?$AA?5?$AAB?$AAy?$AA?5?$AAc?$AAh?$AAe?$AAc?$AAk?$AAi?$AAn?$AAg?$AA?5?$AAt?$AAh?$AAe?$AA?5?$AAc?$AAh?$AAe?$AAc?$AAk@ ; `string'
PUBLIC	??_C@_1DI@FKGEFKMH@?$AAI?$AA?5?$AA?$CG?$AAa?$AAc?$AAc?$AAe?$AAp?$AAt?$AA?5?$AAt?$AAh?$AAe?$AA?5?$AAl?$AAi?$AAc?$AAe?$AAn?$AAs?$AAe?$AA?5?$AAt?$AAe?$AAr?$AAm?$AAs?$AA?$AA@ ; `string'
PUBLIC	??_C@_04MOKMKBJN@NEXT?$AA@			; `string'
PUBLIC	??_C@_04PKHKLFPJ@PREV?$AA@			; `string'
PUBLIC	??_C@_06JHILMIHF@CANCEL?$AA@			; `string'
PUBLIC	??_C@_0BB@OFECFCBP@REPAIR_REINSTALL?$AA@	; `string'
PUBLIC	??_C@_07CNHFDDPI@UPGRADE?$AA@			; `string'
PUBLIC	??_C@_0BB@KMHMHMNP@SETUP_MODE_TITLE?$AA@	; `string'
PUBLIC	??_C@_0BA@PHBLGFGD@SETUP_MODE_INFO?$AA@		; `string'
PUBLIC	??_C@_0BI@KCCOCEA@SETUP_MODE_HELP_EXTRACT?$AA@	; `string'
PUBLIC	??_C@_0BI@JGKCNIKM@SETUP_MODE_HELP_UPGRADE?$AA@	; `string'
PUBLIC	??_C@_0BI@ECIBEEIH@SETUP_MODE_HELP_INSTALL?$AA@	; `string'
PUBLIC	??_C@_0L@EDNBEOCA@GostCrypt?2?$AA@		; `string'
PUBLIC	??_C@_0BJ@PDGEILOG@EXTRACTION_OPTIONS_TITLE?$AA@ ; `string'
PUBLIC	??_C@_0BI@OKGEFEFK@EXTRACTION_OPTIONS_INFO?$AA@	; `string'
PUBLIC	??_C@_0BF@HFEALDNI@AUTO_FOLDER_CREATION?$AA@	; `string'
PUBLIC	??_C@_07LBPFAJBE@EXTRACT?$AA@			; `string'
PUBLIC	??_C@_0BA@IBCNACGH@EXTRACTING_VERB?$AA@		; `string'
PUBLIC	??_C@_0BJ@LJFMAAFG@EXTRACTION_PROGRESS_INFO?$AA@ ; `string'
PUBLIC	??_C@_0BH@PEMNLIII@EXTRACTION_IN_PROGRESS?$AA@	; `string'
PUBLIC	??_C@_0BE@EDFPLLMN@SETUP_OPTIONS_TITLE?$AA@	; `string'
PUBLIC	??_C@_0BD@BMMFNCA@SETUP_OPTIONS_INFO?$AA@	; `string'
PUBLIC	??_C@_0BK@GJOJHDCA@SETUP_UPGRADE_DESTINATION?$AA@ ; `string'
PUBLIC	??_C@_0L@CANDMBMO@?2GostCrypt?$AA@		; `string'
PUBLIC	??_C@_07PJFGKPND@INSTALL?$AA@			; `string'
PUBLIC	??_C@_0BF@FGINDNOJ@SETUP_PROGRESS_TITLE?$AA@	; `string'
PUBLIC	??_C@_0BE@JGHDAHN@SETUP_PROGRESS_INFO?$AA@	; `string'
PUBLIC	??_C@_0BE@FMNDIKAG@INSTALL_IN_PROGRESS?$AA@	; `string'
PUBLIC	??_C@_0BO@CCIEODIN@EXTRACTION_FINISHED_TITLE_DON?$AA@ ; `string'
PUBLIC	??_C@_0CB@HFOJNJFM@SETUP_FINISHED_UPGRADE_TITLE_DON@ ; `string'
PUBLIC	??_C@_0BJ@KIEFKBPA@SETUP_FINISHED_TITLE_DON?$AA@ ; `string'
PUBLIC	??_C@_0BI@CKIDBLFB@SETUP_FINISHED_INFO_DON?$AA@	; `string'
PUBLIC	??_C@_1GG@BHNAKINK@?$AAI?$AAf?$AA?5?$AAy?$AAo?$AAu?$AA?5?$AAw?$AAa?$AAn?$AAt?$AA?5?$AAt?$AAo?$AA?5?$AAm?$AAa?$AAk?$AAe?$AA?5?$AAa?$AA?5?$AAd?$AAo?$AAn?$AAa?$AAt?$AAi?$AAo?$AAn?$AA?0?$AA?5@ ; `string'
PUBLIC	??_C@_1CA@MBPOLHGL@?$AAT?$AAi?$AAm?$AAe?$AAs?$AA?5?$AAN?$AAe?$AAw?$AA?5?$AAR?$AAo?$AAm?$AAa?$AAn?$AA?$AA@ ; `string'
PUBLIC	??_C@_0BA@DJBAGGGN@SELECT_DEST_DIR?$AA@		; `string'
PUBLIC	??_C@_07KNCOJMJF@?$CGref?$DN?$CFd?$AA@		; `string'
PUBLIC	??_C@_0CK@KPOBPAGF@http?3?1?1www?4gostcrypt?4org?1redirec@ ; `string'
PUBLIC	??_C@_0BJ@CCHDLBFE@GST_INSTALLER_IS_RUNNING?$AA@ ; `string'
PUBLIC	??_C@_0BG@GJBFCKEH@GostCrypt?5Setup?51?43?41?$AA@ ; `string'
PUBLIC	??_C@_1DIO@DJBHAIAH@?$AAW?$AAa?$AAr?$AAn?$AAi?$AAn?$AAg?$AA?3?$AA?5?$AAP?$AAl?$AAe?$AAa?$AAs?$AAe?$AA?5?$AAn?$AAo?$AAt?$AAe?$AA?5?$AAt?$AAh?$AAa?$AAt?$AA?5?$AAt?$AAh?$AAi?$AAs?$AA?5?$AAm@ ; `string'
PUBLIC	??_C@_0DM@BHNBHIPG@SOFTWARE?2Microsoft?2Updates?2Windo@ ; `string'
PUBLIC	??_C@_1BBG@NBLOJHJE@?$AAG?$AAo?$AAs?$AAt?$AAC?$AAr?$AAy?$AAp?$AAt?$AA?5?$AAr?$AAe?$AAq?$AAu?$AAi?$AAr?$AAe?$AAs?$AA?5?$AAU?$AAp?$AAd?$AAa?$AAt?$AAe?$AA?5?$AAR?$AAo?$AAl?$AAl?$AAu?$AAp@ ; `string'
PUBLIC	??_C@_0BK@HICKIHM@TRAVELER_LIMITATIONS_NOTE?$AA@ ; `string'
PUBLIC	??_C@_0BC@NKLIMG@TRAVELER_UAC_NOTE?$AA@		; `string'
PUBLIC	??_C@_08MFKGCNCO@FINALIZE?$AA@			; `string'
PUBLIC	??_C@_0P@DHOALJNC@INSTALL_FAILED?$AA@		; `string'
PUBLIC	??_C@_07CIAHAGHC@IDCLOSE?$AA@			; `string'
PUBLIC	??_C@_0BJ@LLBBBPBJ@EXTRACTION_FINISHED_INFO?$AA@ ; `string'
PUBLIC	??_C@_0BC@GODHAKFG@EXTRACTION_FAILED?$AA@	; `string'
PUBLIC	??_C@_0BH@KAHGPAJO@CONFIRM_EXIT_UNIVERSAL?$AA@	; `string'
PUBLIC	??_C@_04PMOCAHAA@open?$AA@			; `string'
PUBLIC	??_C@_0BM@PEPDOHPE@AFTER_UPGRADE_RELEASE_NOTES?$AA@ ; `string'
PUBLIC	??_C@_0CK@NCJGAECA@http?3?1?1www?4gostcrypt?4org?1redirec@ ; `string'
PUBLIC	??_C@_0BH@JALPBIFE@AFTER_INSTALL_TUTORIAL?$AA@	; `string'
PUBLIC	??_C@_0BL@OMDAGJAA@UPGRADE_OK_REBOOT_REQUIRED?$AA@ ; `string'
PUBLIC	??_C@_0BA@ICICKJJH@CONFIRM_RESTART?$AA@		; `string'
PUBLIC	??_C@_0BA@JFNIOLAK@string?5too?5long?$AA@	; `string'
PUBLIC	??_C@_0BI@CFPLBAOH@invalid?5string?5position?$AA@ ; `string'
PUBLIC	__real@4059000000000000
PUBLIC	__real@bef0000000000000
PUBLIC	__real@bf00000000000000
PUBLIC	__xmm@00000000000000000000002d0000000f
EXTRN	??2@YAPAXI@Z:PROC				; operator new
EXTRN	??3@YAXPAX@Z:PROC				; operator delete
EXTRN	_atexit:PROC
EXTRN	__invalid_parameter_noinfo_noreturn:PROC
EXTRN	_memmove:PROC
EXTRN	_wcsncpy:PROC
EXTRN	_strncat:PROC
EXTRN	__imp__GetModuleFileNameA@12:PROC
EXTRN	__imp__CreateFontIndirectW@4:PROC
EXTRN	__imp__CreateSolidBrush@4:PROC
EXTRN	__imp__DeleteObject@4:PROC
EXTRN	__imp__GetStockObject@4:PROC
EXTRN	__imp__SelectObject@8:PROC
EXTRN	__imp__SetBkColor@8:PROC
EXTRN	__imp__SetBkMode@8:PROC
EXTRN	__imp__SetTextColor@8:PROC
EXTRN	__imp__SetTextAlign@8:PROC
EXTRN	__imp__TextOutW@20:PROC
EXTRN	__imp__SendMessageA@16:PROC
EXTRN	__imp__PostMessageA@16:PROC
EXTRN	__imp__DestroyWindow@4:PROC
EXTRN	__imp__ShowWindow@8:PROC
EXTRN	__imp__MoveWindow@24:PROC
EXTRN	__imp__SetWindowPos@28:PROC
EXTRN	__imp__CreateDialogParamW@20:PROC
EXTRN	__imp__DialogBoxParamW@20:PROC
EXTRN	__imp__EndDialog@8:PROC
EXTRN	__imp__GetDlgItem@8:PROC
EXTRN	__imp__SetDlgItemTextA@12:PROC
EXTRN	__imp__EnableWindow@8:PROC
EXTRN	__imp__ReleaseDC@8:PROC
EXTRN	__imp__BeginPaint@8:PROC
EXTRN	__imp__EndPaint@8:PROC
EXTRN	__imp__InvalidateRect@12:PROC
EXTRN	__imp__SetWindowTextA@8:PROC
EXTRN	__imp__SetWindowTextW@8:PROC
EXTRN	__imp__GetWindowTextA@12:PROC
EXTRN	__imp__GetWindowTextLengthA@4:PROC
EXTRN	__imp__GetClientRect@8:PROC
EXTRN	__imp__GetWindowRect@8:PROC
EXTRN	__imp__FillRect@12:PROC
EXTRN	__imp__GetParent@4:PROC
EXTRN	__imp__MapDialogRect@8:PROC
EXTRN	__imp__RegCloseKey@4:PROC
EXTRN	__imp__RegOpenKeyExA@20:PROC
EXTRN	__imp__ShellExecuteA@24:PROC
EXTRN	__imp__CryptAcquireContextA@20:PROC
EXTRN	__imp__CryptReleaseContext@8:PROC
EXTRN	__imp__CryptGenRandom@12:PROC
EXTRN	_free:PROC
EXTRN	_exit:PROC
EXTRN	_srand:PROC
EXTRN	_rand:PROC
EXTRN	__beginthread:PROC
EXTRN	___stdio_common_vsprintf:PROC
EXTRN	__imp__SHGetSpecialFolderPathA@16:PROC
EXTRN	__access:PROC
EXTRN	__time64:PROC
EXTRN	_localcleanup:PROC
EXTRN	_StatusMessage:PROC
EXTRN	_DetermineUpgradeDowngradeStatus:PROC
EXTRN	_DoInstall:PROC
EXTRN	_ExtractAllFilesThread:PROC
EXTRN	_AbortProcess:PROC
EXTRN	_AbortProcessSilent:PROC
EXTRN	_AboutDlgProc@16:PROC
EXTRN	_IsButtonChecked:PROC
EXTRN	_CheckButton:PROC
EXTRN	_InitDialog:PROC
EXTRN	_RenderBitmap:PROC
EXTRN	_WaitCursor:PROC
EXTRN	_NormalCursor:PROC
EXTRN	_CreateAppSetupMutex:PROC
EXTRN	_GetLegalNotices:PROC
EXTRN	_BrowseDirectories:PROC
EXTRN	_LocalizeDialog:PROC
EXTRN	_IsUacSupported:PROC
EXTRN	_SetCheckBox:PROC
EXTRN	_OpenPageHelp:PROC
EXTRN	_Info:PROC
EXTRN	_WarningDirect:PROC
EXTRN	_Error:PROC
EXTRN	_ErrorDirect:PROC
EXTRN	_AskYesNo:PROC
EXTRN	_AskNoYes:PROC
EXTRN	_AskWarnYesNo:PROC
EXTRN	_RestartComputer:PROC
EXTRN	_Extlink:PROC
EXTRN	_CompensateXDPI:PROC
EXTRN	_CompensateYDPI:PROC
EXTRN	_CompensateDPIFont:PROC
EXTRN	?_Xbad_alloc@std@@YAXXZ:PROC			; std::_Xbad_alloc
EXTRN	?_Xlength_error@std@@YAXPBD@Z:PROC		; std::_Xlength_error
EXTRN	?_Xout_of_range@std@@YAXPBD@Z:PROC		; std::_Xout_of_range
EXTRN	_GetString:PROC
EXTRN	@__security_check_cookie@4:PROC
EXTRN	__CxxThrowException@8:PROC
EXTRN	___CxxFrameHandler3:PROC
EXTRN	_memcpy:PROC
EXTRN	_memset:PROC
EXTRN	_bDevm:DWORD
EXTRN	_bUpgrade:DWORD
EXTRN	_bRepairMode:DWORD
EXTRN	_bSystemRestore:DWORD
EXTRN	_bForAllUsers:DWORD
EXTRN	_bRegisterFileExt:DWORD
EXTRN	_bAddToStartMenu:DWORD
EXTRN	_bDesktopIcon:DWORD
EXTRN	_bDesktopIconStatusDetermined:DWORD
EXTRN	_bRestartRequired:DWORD
EXTRN	_SystemRestoreDll:DWORD
EXTRN	_InstallationPath:BYTE
EXTRN	_SetupFilesDir:BYTE
EXTRN	_DestExtractPath:BYTE
EXTRN	_LastDialogId:DWORD
EXTRN	_hUserBoldFont:DWORD
EXTRN	_ScreenDPI:DWORD
EXTRN	_MainDlg:DWORD
EXTRN	_nCurrentOS:DWORD
EXTRN	_hInst:DWORD
EXTRN	___security_cookie:DWORD
EXTRN	__fltused:DWORD
;	COMDAT ?_OptionsStorage@?1??__local_stdio_printf_options@@9@4_KA
_BSS	SEGMENT
?_OptionsStorage@?1??__local_stdio_printf_options@@9@4_KA DQ 01H DUP (?) ; `__local_stdio_printf_options'::`2'::_OptionsStorage
_BSS	ENDS
_BSS	SEGMENT
?hDonTextFont@@3PAUHFONT__@@A DD 01H DUP (?)		; hDonTextFont
?OsPrngAvailable@@3HA DD 01H DUP (?)			; OsPrngAvailable
?hCryptProv@@3KA DD 01H DUP (?)				; hCryptProv
?DonColorSchemeId@@3HA DD 01H DUP (?)			; DonColorSchemeId
?DonTextColor@@3KA DD 01H DUP (?)			; DonTextColor
?DonBkgColor@@3KA DD 01H DUP (?)			; DonBkgColor
?DonText@@3V?$basic_string@_WU?$char_traits@_W@std@@V?$allocator@_W@2@@std@@A DB 018H DUP (?) ; DonText
_BSS	ENDS
;	COMDAT ?prngInitialized@?1??GetDonVal@@YAHHH@Z@4HA
_BSS	SEGMENT
?prngInitialized@?1??GetDonVal@@YAHHH@Z@4HA DD 01H DUP (?) ; `GetDonVal'::`2'::prngInitialized
_BSS	ENDS
;	COMDAT ?buffer@?1??GetDonVal@@YAHHH@Z@4PAEA
_BSS	SEGMENT
?buffer@?1??GetDonVal@@YAHHH@Z@4PAEA DB 02H DUP (?)	; `GetDonVal'::`2'::buffer
_BSS	ENDS
;	COMDAT ?PageDebugId@?1??PageDialogProc@@9@16@4PADA
_BSS	SEGMENT
?PageDebugId@?1??PageDialogProc@@9@16@4PADA DB 080H DUP (?) ; `PageDialogProc'::`2'::PageDebugId
_BSS	ENDS
CRT$XCU	SEGMENT
?DonText$initializer$@@3P6AXXZA DD FLAT:??__EDonText@@YAXXZ ; DonText$initializer$
CRT$XCU	ENDS
;	COMDAT __xmm@00000000000000000000002d0000000f
CONST	SEGMENT
__xmm@00000000000000000000002d0000000f DB 0fH, 00H, 00H, 00H, '-', 00H, 00H
	DB	00H, 00H, 00H, 00H, 00H, 00H, 00H, 00H, 00H
CONST	ENDS
;	COMDAT __real@bf00000000000000
CONST	SEGMENT
__real@bf00000000000000 DQ 0bf00000000000000r	; -3.05176e-05
CONST	ENDS
;	COMDAT __real@bef0000000000000
CONST	SEGMENT
__real@bef0000000000000 DQ 0bef0000000000000r	; -1.52588e-05
CONST	ENDS
;	COMDAT __real@4059000000000000
CONST	SEGMENT
__real@4059000000000000 DQ 04059000000000000r	; 100
CONST	ENDS
;	COMDAT ??_C@_0BI@CFPLBAOH@invalid?5string?5position?$AA@
CONST	SEGMENT
??_C@_0BI@CFPLBAOH@invalid?5string?5position?$AA@ DB 'invalid string posi'
	DB	'tion', 00H					; `string'
CONST	ENDS
;	COMDAT ??_C@_0BA@JFNIOLAK@string?5too?5long?$AA@
CONST	SEGMENT
??_C@_0BA@JFNIOLAK@string?5too?5long?$AA@ DB 'string too long', 00H ; `string'
CONST	ENDS
;	COMDAT ??_C@_0BA@ICICKJJH@CONFIRM_RESTART?$AA@
CONST	SEGMENT
??_C@_0BA@ICICKJJH@CONFIRM_RESTART?$AA@ DB 'CONFIRM_RESTART', 00H ; `string'
CONST	ENDS
;	COMDAT ??_C@_0BL@OMDAGJAA@UPGRADE_OK_REBOOT_REQUIRED?$AA@
CONST	SEGMENT
??_C@_0BL@OMDAGJAA@UPGRADE_OK_REBOOT_REQUIRED?$AA@ DB 'UPGRADE_OK_REBOOT_'
	DB	'REQUIRED', 00H				; `string'
CONST	ENDS
;	COMDAT ??_C@_0BH@JALPBIFE@AFTER_INSTALL_TUTORIAL?$AA@
CONST	SEGMENT
??_C@_0BH@JALPBIFE@AFTER_INSTALL_TUTORIAL?$AA@ DB 'AFTER_INSTALL_TUTORIAL'
	DB	00H						; `string'
CONST	ENDS
;	COMDAT ??_C@_0CK@NCJGAECA@http?3?1?1www?4gostcrypt?4org?1redirec@
CONST	SEGMENT
??_C@_0CK@NCJGAECA@http?3?1?1www?4gostcrypt?4org?1redirec@ DB 'http://www'
	DB	'.gostcrypt.org/redirect.php?a=2', 00H	; `string'
CONST	ENDS
;	COMDAT ??_C@_0BM@PEPDOHPE@AFTER_UPGRADE_RELEASE_NOTES?$AA@
CONST	SEGMENT
??_C@_0BM@PEPDOHPE@AFTER_UPGRADE_RELEASE_NOTES?$AA@ DB 'AFTER_UPGRADE_REL'
	DB	'EASE_NOTES', 00H				; `string'
CONST	ENDS
;	COMDAT ??_C@_04PMOCAHAA@open?$AA@
CONST	SEGMENT
??_C@_04PMOCAHAA@open?$AA@ DB 'open', 00H		; `string'
CONST	ENDS
;	COMDAT ??_C@_0BH@KAHGPAJO@CONFIRM_EXIT_UNIVERSAL?$AA@
CONST	SEGMENT
??_C@_0BH@KAHGPAJO@CONFIRM_EXIT_UNIVERSAL?$AA@ DB 'CONFIRM_EXIT_UNIVERSAL'
	DB	00H						; `string'
CONST	ENDS
;	COMDAT ??_C@_0BC@GODHAKFG@EXTRACTION_FAILED?$AA@
CONST	SEGMENT
??_C@_0BC@GODHAKFG@EXTRACTION_FAILED?$AA@ DB 'EXTRACTION_FAILED', 00H ; `string'
CONST	ENDS
;	COMDAT ??_C@_0BJ@LLBBBPBJ@EXTRACTION_FINISHED_INFO?$AA@
CONST	SEGMENT
??_C@_0BJ@LLBBBPBJ@EXTRACTION_FINISHED_INFO?$AA@ DB 'EXTRACTION_FINISHED_'
	DB	'INFO', 00H					; `string'
CONST	ENDS
;	COMDAT ??_C@_07CIAHAGHC@IDCLOSE?$AA@
CONST	SEGMENT
??_C@_07CIAHAGHC@IDCLOSE?$AA@ DB 'IDCLOSE', 00H		; `string'
CONST	ENDS
;	COMDAT ??_C@_0P@DHOALJNC@INSTALL_FAILED?$AA@
CONST	SEGMENT
??_C@_0P@DHOALJNC@INSTALL_FAILED?$AA@ DB 'INSTALL_FAILED', 00H ; `string'
CONST	ENDS
;	COMDAT ??_C@_08MFKGCNCO@FINALIZE?$AA@
CONST	SEGMENT
??_C@_08MFKGCNCO@FINALIZE?$AA@ DB 'FINALIZE', 00H	; `string'
CONST	ENDS
;	COMDAT ??_C@_0BC@NKLIMG@TRAVELER_UAC_NOTE?$AA@
CONST	SEGMENT
??_C@_0BC@NKLIMG@TRAVELER_UAC_NOTE?$AA@ DB 'TRAVELER_UAC_NOTE', 00H ; `string'
CONST	ENDS
;	COMDAT ??_C@_0BK@HICKIHM@TRAVELER_LIMITATIONS_NOTE?$AA@
CONST	SEGMENT
??_C@_0BK@HICKIHM@TRAVELER_LIMITATIONS_NOTE?$AA@ DB 'TRAVELER_LIMITATIONS'
	DB	'_NOTE', 00H					; `string'
CONST	ENDS
;	COMDAT ??_C@_1BBG@NBLOJHJE@?$AAG?$AAo?$AAs?$AAt?$AAC?$AAr?$AAy?$AAp?$AAt?$AA?5?$AAr?$AAe?$AAq?$AAu?$AAi?$AAr?$AAe?$AAs?$AA?5?$AAU?$AAp?$AAd?$AAa?$AAt?$AAe?$AA?5?$AAR?$AAo?$AAl?$AAl?$AAu?$AAp@
CONST	SEGMENT
??_C@_1BBG@NBLOJHJE@?$AAG?$AAo?$AAs?$AAt?$AAC?$AAr?$AAy?$AAp?$AAt?$AA?5?$AAr?$AAe?$AAq?$AAu?$AAi?$AAr?$AAe?$AAs?$AA?5?$AAU?$AAp?$AAd?$AAa?$AAt?$AAe?$AA?5?$AAR?$AAo?$AAl?$AAl?$AAu?$AAp@ DB 'G'
	DB	00H, 'o', 00H, 's', 00H, 't', 00H, 'C', 00H, 'r', 00H, 'y', 00H
	DB	'p', 00H, 't', 00H, ' ', 00H, 'r', 00H, 'e', 00H, 'q', 00H, 'u'
	DB	00H, 'i', 00H, 'r', 00H, 'e', 00H, 's', 00H, ' ', 00H, 'U', 00H
	DB	'p', 00H, 'd', 00H, 'a', 00H, 't', 00H, 'e', 00H, ' ', 00H, 'R'
	DB	00H, 'o', 00H, 'l', 00H, 'l', 00H, 'u', 00H, 'p', 00H, ' ', 00H
	DB	'1', 00H, ' ', 00H, 'f', 00H, 'o', 00H, 'r', 00H, ' ', 00H, 'W'
	DB	00H, 'i', 00H, 'n', 00H, 'd', 00H, 'o', 00H, 'w', 00H, 's', 00H
	DB	' ', 00H, '2', 00H, '0', 00H, '0', 00H, '0', 00H, ' ', 00H, 'S'
	DB	00H, 'P', 00H, '4', 00H, ' ', 00H, 't', 00H, 'o', 00H, ' ', 00H
	DB	'b', 00H, 'e', 00H, ' ', 00H, 'i', 00H, 'n', 00H, 's', 00H, 't'
	DB	00H, 'a', 00H, 'l', 00H, 'l', 00H, 'e', 00H, 'd', 00H, '.', 00H
	DB	0aH, 00H, 0aH, 00H, 'F', 00H, 'o', 00H, 'r', 00H, ' ', 00H, 'm'
	DB	00H, 'o', 00H, 'r', 00H, 'e', 00H, ' ', 00H, 'i', 00H, 'n', 00H
	DB	'f', 00H, 'o', 00H, 'r', 00H, 'm', 00H, 'a', 00H, 't', 00H, 'i'
	DB	00H, 'o', 00H, 'n', 00H, ',', 00H, ' ', 00H, 's', 00H, 'e', 00H
	DB	'e', 00H, ' ', 00H, 'h', 00H, 't', 00H, 't', 00H, 'p', 00H, ':'
	DB	00H, '/', 00H, '/', 00H, 's', 00H, 'u', 00H, 'p', 00H, 'p', 00H
	DB	'o', 00H, 'r', 00H, 't', 00H, '.', 00H, 'm', 00H, 'i', 00H, 'c'
	DB	00H, 'r', 00H, 'o', 00H, 's', 00H, 'o', 00H, 'f', 00H, 't', 00H
	DB	'.', 00H, 'c', 00H, 'o', 00H, 'm', 00H, '/', 00H, 'k', 00H, 'b'
	DB	00H, '/', 00H, '8', 00H, '9', 00H, '1', 00H, '8', 00H, '6', 00H
	DB	'1', 00H, 00H, 00H				; `string'
CONST	ENDS
;	COMDAT ??_C@_0DM@BHNBHIPG@SOFTWARE?2Microsoft?2Updates?2Windo@
CONST	SEGMENT
??_C@_0DM@BHNBHIPG@SOFTWARE?2Microsoft?2Updates?2Windo@ DB 'SOFTWARE\Micr'
	DB	'osoft\Updates\Windows 2000\SP5\Update Rollup 1', 00H ; `string'
CONST	ENDS
;	COMDAT ??_C@_1DIO@DJBHAIAH@?$AAW?$AAa?$AAr?$AAn?$AAi?$AAn?$AAg?$AA?3?$AA?5?$AAP?$AAl?$AAe?$AAa?$AAs?$AAe?$AA?5?$AAn?$AAo?$AAt?$AAe?$AA?5?$AAt?$AAh?$AAa?$AAt?$AA?5?$AAt?$AAh?$AAi?$AAs?$AA?5?$AAm@
CONST	SEGMENT
??_C@_1DIO@DJBHAIAH@?$AAW?$AAa?$AAr?$AAn?$AAi?$AAn?$AAg?$AA?3?$AA?5?$AAP?$AAl?$AAe?$AAa?$AAs?$AAe?$AA?5?$AAn?$AAo?$AAt?$AAe?$AA?5?$AAt?$AAh?$AAa?$AAt?$AA?5?$AAt?$AAh?$AAi?$AAs?$AA?5?$AAm@ DB 'W'
	DB	00H, 'a', 00H, 'r', 00H, 'n', 00H, 'i', 00H, 'n', 00H, 'g', 00H
	DB	':', 00H, ' ', 00H, 'P', 00H, 'l', 00H, 'e', 00H, 'a', 00H, 's'
	DB	00H, 'e', 00H, ' ', 00H, 'n', 00H, 'o', 00H, 't', 00H, 'e', 00H
	DB	' ', 00H, 't', 00H, 'h', 00H, 'a', 00H, 't', 00H, ' ', 00H, 't'
	DB	00H, 'h', 00H, 'i', 00H, 's', 00H, ' ', 00H, 'm', 00H, 'a', 00H
	DB	'y', 00H, ' ', 00H, 'b', 00H, 'e', 00H, ' ', 00H, 't', 00H, 'h'
	DB	00H, 'e', 00H, ' ', 00H, 'l', 00H, 'a', 00H, 's', 00H, 't', 00H
	DB	' ', 00H, 'v', 00H, 'e', 00H, 'r', 00H, 's', 00H, 'i', 00H, 'o'
	DB	00H, 'n', 00H, ' ', 00H, 'o', 00H, 'f', 00H, ' ', 00H, 'G', 00H
	DB	'o', 00H, 's', 00H, 't', 00H, 'C', 00H, 'r', 00H, 'y', 00H, 'p'
	DB	00H, 't', 00H, ' ', 00H, 't', 00H, 'h', 00H, 'a', 00H, 't', 00H
	DB	' ', 00H, 's', 00H, 'u', 00H, 'p', 00H, 'p', 00H, 'o', 00H, 'r'
	DB	00H, 't', 00H, 's', 00H, ' ', 00H, 'W', 00H, 'i', 00H, 'n', 00H
	DB	'd', 00H, 'o', 00H, 'w', 00H, 's', 00H, ' ', 00H, '2', 00H, '0'
	DB	00H, '0', 00H, '0', 00H, '.', 00H, ' ', 00H, 'I', 00H, 'f', 00H
	DB	' ', 00H, 'y', 00H, 'o', 00H, 'u', 00H, ' ', 00H, 'w', 00H, 'a'
	DB	00H, 'n', 00H, 't', 00H, ' ', 00H, 't', 00H, 'o', 00H, ' ', 00H
	DB	'b', 00H, 'e', 00H, ' ', 00H, 'a', 00H, 'b', 00H, 'l', 00H, 'e'
	DB	00H, ' ', 00H, 't', 00H, 'o', 00H, ' ', 00H, 'u', 00H, 'p', 00H
	DB	'g', 00H, 'r', 00H, 'a', 00H, 'd', 00H, 'e', 00H, ' ', 00H, 't'
	DB	00H, 'o', 00H, ' ', 00H, 'f', 00H, 'u', 00H, 't', 00H, 'u', 00H
	DB	'r', 00H, 'e', 00H, ' ', 00H, 'v', 00H, 'e', 00H, 'r', 00H, 's'
	DB	00H, 'i', 00H, 'o', 00H, 'n', 00H, 's', 00H, ' ', 00H, 'o', 00H
	DB	'f', 00H, ' ', 00H, 'G', 00H, 'o', 00H, 's', 00H, 't', 00H, 'C'
	DB	00H, 'r', 00H, 'y', 00H, 'p', 00H, 't', 00H, ' ', 00H, '(', 00H
	DB	'w', 00H, 'h', 00H, 'i', 00H, 'c', 00H, 'h', 00H, ' ', 00H, 'i'
	DB	00H, 's', 00H, ' ', 00H, 'h', 00H, 'i', 00H, 'g', 00H, 'h', 00H
	DB	'l', 00H, 'y', 00H, ' ', 00H, 'r', 00H, 'e', 00H, 'c', 00H, 'o'
	DB	00H, 'm', 00H, 'm', 00H, 'e', 00H, 'n', 00H, 'd', 00H, 'e', 00H
	DB	'd', 00H, ')', 00H, ',', 00H, ' ', 00H, 'y', 00H, 'o', 00H, 'u'
	DB	00H, ' ', 00H, 'w', 00H, 'i', 00H, 'l', 00H, 'l', 00H, ' ', 00H
	DB	'n', 00H, 'e', 00H, 'e', 00H, 'd', 00H, ' ', 00H, 't', 00H, 'o'
	DB	00H, ' ', 00H, 'u', 00H, 'p', 00H, 'g', 00H, 'r', 00H, 'a', 00H
	DB	'd', 00H, 'e', 00H, ' ', 00H, 't', 00H, 'o', 00H, ' ', 00H, 'W'
	DB	00H, 'i', 00H, 'n', 00H, 'd', 00H, 'o', 00H, 'w', 00H, 's', 00H
	DB	' ', 00H, 'X', 00H, 'P', 00H, ' ', 00H, 'o', 00H, 'r', 00H, ' '
	DB	00H, 'a', 00H, ' ', 00H, 'l', 00H, 'a', 00H, 't', 00H, 'e', 00H
	DB	'r', 00H, ' ', 00H, 'v', 00H, 'e', 00H, 'r', 00H, 's', 00H, 'i'
	DB	00H, 'o', 00H, 'n', 00H, ' ', 00H, 'o', 00H, 'f', 00H, ' ', 00H
	DB	'W', 00H, 'i', 00H, 'n', 00H, 'd', 00H, 'o', 00H, 'w', 00H, 's'
	DB	00H, '.', 00H, 0aH, 00H, 0aH, 00H, 'N', 00H, 'o', 00H, 't', 00H
	DB	'e', 00H, ':', 00H, ' ', 00H, 'M', 00H, 'i', 00H, 'c', 00H, 'r'
	DB	00H, 'o', 00H, 's', 00H, 'o', 00H, 'f', 00H, 't', 00H, ' ', 00H
	DB	's', 00H, 't', 00H, 'o', 00H, 'p', 00H, 'p', 00H, 'e', 00H, 'd'
	DB	00H, ' ', 00H, 'i', 00H, 's', 00H, 's', 00H, 'u', 00H, 'i', 00H
	DB	'n', 00H, 'g', 00H, ' ', 00H, 's', 00H, 'e', 00H, 'c', 00H, 'u'
	DB	00H, 'r', 00H, 'i', 00H, 't', 00H, 'y', 00H, ' ', 00H, 'u', 00H
	DB	'p', 00H, 'd', 00H, 'a', 00H, 't', 00H, 'e', 00H, 's', 00H, ' '
	DB	00H, 'f', 00H, 'o', 00H, 'r', 00H, ' ', 00H, 'W', 00H, 'i', 00H
	DB	'n', 00H, 'd', 00H, 'o', 00H, 'w', 00H, 's', 00H, ' ', 00H, '2'
	DB	00H, '0', 00H, '0', 00H, '0', 00H, ' ', 00H, 't', 00H, 'o', 00H
	DB	' ', 00H, 't', 00H, 'h', 00H, 'e', 00H, ' ', 00H, 'g', 00H, 'e'
	DB	00H, 'n', 00H, 'e', 00H, 'r', 00H, 'a', 00H, 'l', 00H, ' ', 00H
	DB	'p', 00H, 'u', 00H, 'b', 00H, 'l', 00H, 'i', 00H, 'c', 00H, ' '
	DB	00H, 'o', 00H, 'n', 00H, ' ', 00H, '7', 00H, '/', 00H, '1', 00H
	DB	'3', 00H, '/', 00H, '2', 00H, '0', 00H, '1', 00H, '0', 00H, ' '
	DB	00H, '(', 00H, 't', 00H, 'h', 00H, 'e', 00H, ' ', 00H, 'l', 00H
	DB	'a', 00H, 's', 00H, 't', 00H, ' ', 00H, 'n', 00H, 'o', 00H, 'n'
	DB	00H, '-', 00H, 's', 00H, 'e', 00H, 'c', 00H, 'u', 00H, 'r', 00H
	DB	'i', 00H, 't', 00H, 'y', 00H, ' ', 00H, 'u', 00H, 'p', 00H, 'd'
	DB	00H, 'a', 00H, 't', 00H, 'e', 00H, ' ', 00H, 'f', 00H, 'o', 00H
	DB	'r', 00H, ' ', 00H, 'W', 00H, 'i', 00H, 'n', 00H, 'd', 00H, 'o'
	DB	00H, 'w', 00H, 's', 00H, ' ', 00H, '2', 00H, '0', 00H, '0', 00H
	DB	'0', 00H, ' ', 00H, 'w', 00H, 'a', 00H, 's', 00H, ' ', 00H, 'i'
	DB	00H, 's', 00H, 's', 00H, 'u', 00H, 'e', 00H, 'd', 00H, ' ', 00H
	DB	't', 00H, 'o', 00H, ' ', 00H, 't', 00H, 'h', 00H, 'e', 00H, ' '
	DB	00H, 'g', 00H, 'e', 00H, 'n', 00H, 'e', 00H, 'r', 00H, 'a', 00H
	DB	'l', 00H, ' ', 00H, 'p', 00H, 'u', 00H, 'b', 00H, 'l', 00H, 'i'
	DB	00H, 'c', 00H, ' ', 00H, 'i', 00H, 'n', 00H, ' ', 00H, '2', 00H
	DB	'0', 00H, '0', 00H, '5', 00H, ')', 00H, '.', 00H, 00H, 00H ; `string'
CONST	ENDS
;	COMDAT ??_C@_0BG@GJBFCKEH@GostCrypt?5Setup?51?43?41?$AA@
CONST	SEGMENT
??_C@_0BG@GJBFCKEH@GostCrypt?5Setup?51?43?41?$AA@ DB 'GostCrypt Setup 1.3'
	DB	'.1', 00H					; `string'
CONST	ENDS
;	COMDAT ??_C@_0BJ@CCHDLBFE@GST_INSTALLER_IS_RUNNING?$AA@
CONST	SEGMENT
??_C@_0BJ@CCHDLBFE@GST_INSTALLER_IS_RUNNING?$AA@ DB 'GST_INSTALLER_IS_RUN'
	DB	'NING', 00H					; `string'
CONST	ENDS
;	COMDAT ??_C@_0CK@KPOBPAGF@http?3?1?1www?4gostcrypt?4org?1redirec@
CONST	SEGMENT
??_C@_0CK@KPOBPAGF@http?3?1?1www?4gostcrypt?4org?1redirec@ DB 'http://www'
	DB	'.gostcrypt.org/redirect.php?a=7', 00H	; `string'
CONST	ENDS
;	COMDAT ??_C@_07KNCOJMJF@?$CGref?$DN?$CFd?$AA@
CONST	SEGMENT
??_C@_07KNCOJMJF@?$CGref?$DN?$CFd?$AA@ DB '&ref=%d', 00H ; `string'
CONST	ENDS
;	COMDAT ??_C@_0BA@DJBAGGGN@SELECT_DEST_DIR?$AA@
CONST	SEGMENT
??_C@_0BA@DJBAGGGN@SELECT_DEST_DIR?$AA@ DB 'SELECT_DEST_DIR', 00H ; `string'
CONST	ENDS
;	COMDAT ??_C@_1CA@MBPOLHGL@?$AAT?$AAi?$AAm?$AAe?$AAs?$AA?5?$AAN?$AAe?$AAw?$AA?5?$AAR?$AAo?$AAm?$AAa?$AAn?$AA?$AA@
CONST	SEGMENT
??_C@_1CA@MBPOLHGL@?$AAT?$AAi?$AAm?$AAe?$AAs?$AA?5?$AAN?$AAe?$AAw?$AA?5?$AAR?$AAo?$AAm?$AAa?$AAn?$AA?$AA@ DB 'T'
	DB	00H, 'i', 00H, 'm', 00H, 'e', 00H, 's', 00H, ' ', 00H, 'N', 00H
	DB	'e', 00H, 'w', 00H, ' ', 00H, 'R', 00H, 'o', 00H, 'm', 00H, 'a'
	DB	00H, 'n', 00H, 00H, 00H			; `string'
CONST	ENDS
;	COMDAT ??_C@_1GG@BHNAKINK@?$AAI?$AAf?$AA?5?$AAy?$AAo?$AAu?$AA?5?$AAw?$AAa?$AAn?$AAt?$AA?5?$AAt?$AAo?$AA?5?$AAm?$AAa?$AAk?$AAe?$AA?5?$AAa?$AA?5?$AAd?$AAo?$AAn?$AAa?$AAt?$AAi?$AAo?$AAn?$AA?0?$AA?5@
CONST	SEGMENT
??_C@_1GG@BHNAKINK@?$AAI?$AAf?$AA?5?$AAy?$AAo?$AAu?$AA?5?$AAw?$AAa?$AAn?$AAt?$AA?5?$AAt?$AAo?$AA?5?$AAm?$AAa?$AAk?$AAe?$AA?5?$AAa?$AA?5?$AAd?$AAo?$AAn?$AAa?$AAt?$AAi?$AAo?$AAn?$AA?0?$AA?5@ DB 'I'
	DB	00H, 'f', 00H, ' ', 00H, 'y', 00H, 'o', 00H, 'u', 00H, ' ', 00H
	DB	'w', 00H, 'a', 00H, 'n', 00H, 't', 00H, ' ', 00H, 't', 00H, 'o'
	DB	00H, ' ', 00H, 'm', 00H, 'a', 00H, 'k', 00H, 'e', 00H, ' ', 00H
	DB	'a', 00H, ' ', 00H, 'd', 00H, 'o', 00H, 'n', 00H, 'a', 00H, 't'
	DB	00H, 'i', 00H, 'o', 00H, 'n', 00H, ',', 00H, ' ', 00H, 'p', 00H
	DB	'l', 00H, 'e', 00H, 'a', 00H, 's', 00H, 'e', 00H, ' ', 00H, 'c'
	DB	00H, 'o', 00H, 'n', 00H, 't', 00H, 'a', 00H, 'c', 00H, 't', 00H
	DB	' ', 00H, 'u', 00H, 's', 00H, '.', 00H, 00H, 00H ; `string'
CONST	ENDS
;	COMDAT ??_C@_0BI@CKIDBLFB@SETUP_FINISHED_INFO_DON?$AA@
CONST	SEGMENT
??_C@_0BI@CKIDBLFB@SETUP_FINISHED_INFO_DON?$AA@ DB 'SETUP_FINISHED_INFO_D'
	DB	'ON', 00H					; `string'
CONST	ENDS
;	COMDAT ??_C@_0BJ@KIEFKBPA@SETUP_FINISHED_TITLE_DON?$AA@
CONST	SEGMENT
??_C@_0BJ@KIEFKBPA@SETUP_FINISHED_TITLE_DON?$AA@ DB 'SETUP_FINISHED_TITLE'
	DB	'_DON', 00H					; `string'
CONST	ENDS
;	COMDAT ??_C@_0CB@HFOJNJFM@SETUP_FINISHED_UPGRADE_TITLE_DON@
CONST	SEGMENT
??_C@_0CB@HFOJNJFM@SETUP_FINISHED_UPGRADE_TITLE_DON@ DB 'SETUP_FINISHED_U'
	DB	'PGRADE_TITLE_DON', 00H			; `string'
CONST	ENDS
;	COMDAT ??_C@_0BO@CCIEODIN@EXTRACTION_FINISHED_TITLE_DON?$AA@
CONST	SEGMENT
??_C@_0BO@CCIEODIN@EXTRACTION_FINISHED_TITLE_DON?$AA@ DB 'EXTRACTION_FINI'
	DB	'SHED_TITLE_DON', 00H			; `string'
CONST	ENDS
;	COMDAT ??_C@_0BE@FMNDIKAG@INSTALL_IN_PROGRESS?$AA@
CONST	SEGMENT
??_C@_0BE@FMNDIKAG@INSTALL_IN_PROGRESS?$AA@ DB 'INSTALL_IN_PROGRESS', 00H ; `string'
CONST	ENDS
;	COMDAT ??_C@_0BE@JGHDAHN@SETUP_PROGRESS_INFO?$AA@
CONST	SEGMENT
??_C@_0BE@JGHDAHN@SETUP_PROGRESS_INFO?$AA@ DB 'SETUP_PROGRESS_INFO', 00H ; `string'
CONST	ENDS
;	COMDAT ??_C@_0BF@FGINDNOJ@SETUP_PROGRESS_TITLE?$AA@
CONST	SEGMENT
??_C@_0BF@FGINDNOJ@SETUP_PROGRESS_TITLE?$AA@ DB 'SETUP_PROGRESS_TITLE', 00H ; `string'
CONST	ENDS
;	COMDAT ??_C@_07PJFGKPND@INSTALL?$AA@
CONST	SEGMENT
??_C@_07PJFGKPND@INSTALL?$AA@ DB 'INSTALL', 00H		; `string'
CONST	ENDS
;	COMDAT ??_C@_0L@CANDMBMO@?2GostCrypt?$AA@
CONST	SEGMENT
??_C@_0L@CANDMBMO@?2GostCrypt?$AA@ DB '\GostCrypt', 00H	; `string'
CONST	ENDS
;	COMDAT ??_C@_0BK@GJOJHDCA@SETUP_UPGRADE_DESTINATION?$AA@
CONST	SEGMENT
??_C@_0BK@GJOJHDCA@SETUP_UPGRADE_DESTINATION?$AA@ DB 'SETUP_UPGRADE_DESTI'
	DB	'NATION', 00H				; `string'
CONST	ENDS
;	COMDAT ??_C@_0BD@BMMFNCA@SETUP_OPTIONS_INFO?$AA@
CONST	SEGMENT
??_C@_0BD@BMMFNCA@SETUP_OPTIONS_INFO?$AA@ DB 'SETUP_OPTIONS_INFO', 00H ; `string'
CONST	ENDS
;	COMDAT ??_C@_0BE@EDFPLLMN@SETUP_OPTIONS_TITLE?$AA@
CONST	SEGMENT
??_C@_0BE@EDFPLLMN@SETUP_OPTIONS_TITLE?$AA@ DB 'SETUP_OPTIONS_TITLE', 00H ; `string'
CONST	ENDS
;	COMDAT ??_C@_0BH@PEMNLIII@EXTRACTION_IN_PROGRESS?$AA@
CONST	SEGMENT
??_C@_0BH@PEMNLIII@EXTRACTION_IN_PROGRESS?$AA@ DB 'EXTRACTION_IN_PROGRESS'
	DB	00H						; `string'
CONST	ENDS
;	COMDAT ??_C@_0BJ@LJFMAAFG@EXTRACTION_PROGRESS_INFO?$AA@
CONST	SEGMENT
??_C@_0BJ@LJFMAAFG@EXTRACTION_PROGRESS_INFO?$AA@ DB 'EXTRACTION_PROGRESS_'
	DB	'INFO', 00H					; `string'
CONST	ENDS
;	COMDAT ??_C@_0BA@IBCNACGH@EXTRACTING_VERB?$AA@
CONST	SEGMENT
??_C@_0BA@IBCNACGH@EXTRACTING_VERB?$AA@ DB 'EXTRACTING_VERB', 00H ; `string'
CONST	ENDS
;	COMDAT ??_C@_07LBPFAJBE@EXTRACT?$AA@
CONST	SEGMENT
??_C@_07LBPFAJBE@EXTRACT?$AA@ DB 'EXTRACT', 00H		; `string'
CONST	ENDS
;	COMDAT ??_C@_0BF@HFEALDNI@AUTO_FOLDER_CREATION?$AA@
CONST	SEGMENT
??_C@_0BF@HFEALDNI@AUTO_FOLDER_CREATION?$AA@ DB 'AUTO_FOLDER_CREATION', 00H ; `string'
CONST	ENDS
;	COMDAT ??_C@_0BI@OKGEFEFK@EXTRACTION_OPTIONS_INFO?$AA@
CONST	SEGMENT
??_C@_0BI@OKGEFEFK@EXTRACTION_OPTIONS_INFO?$AA@ DB 'EXTRACTION_OPTIONS_IN'
	DB	'FO', 00H					; `string'
CONST	ENDS
;	COMDAT ??_C@_0BJ@PDGEILOG@EXTRACTION_OPTIONS_TITLE?$AA@
CONST	SEGMENT
??_C@_0BJ@PDGEILOG@EXTRACTION_OPTIONS_TITLE?$AA@ DB 'EXTRACTION_OPTIONS_T'
	DB	'ITLE', 00H					; `string'
CONST	ENDS
;	COMDAT ??_C@_0L@EDNBEOCA@GostCrypt?2?$AA@
CONST	SEGMENT
??_C@_0L@EDNBEOCA@GostCrypt?2?$AA@ DB 'GostCrypt\', 00H	; `string'
CONST	ENDS
;	COMDAT ??_C@_0BI@ECIBEEIH@SETUP_MODE_HELP_INSTALL?$AA@
CONST	SEGMENT
??_C@_0BI@ECIBEEIH@SETUP_MODE_HELP_INSTALL?$AA@ DB 'SETUP_MODE_HELP_INSTA'
	DB	'LL', 00H					; `string'
CONST	ENDS
;	COMDAT ??_C@_0BI@JGKCNIKM@SETUP_MODE_HELP_UPGRADE?$AA@
CONST	SEGMENT
??_C@_0BI@JGKCNIKM@SETUP_MODE_HELP_UPGRADE?$AA@ DB 'SETUP_MODE_HELP_UPGRA'
	DB	'DE', 00H					; `string'
CONST	ENDS
;	COMDAT ??_C@_0BI@KCCOCEA@SETUP_MODE_HELP_EXTRACT?$AA@
CONST	SEGMENT
??_C@_0BI@KCCOCEA@SETUP_MODE_HELP_EXTRACT?$AA@ DB 'SETUP_MODE_HELP_EXTRAC'
	DB	'T', 00H					; `string'
CONST	ENDS
;	COMDAT ??_C@_0BA@PHBLGFGD@SETUP_MODE_INFO?$AA@
CONST	SEGMENT
??_C@_0BA@PHBLGFGD@SETUP_MODE_INFO?$AA@ DB 'SETUP_MODE_INFO', 00H ; `string'
CONST	ENDS
;	COMDAT ??_C@_0BB@KMHMHMNP@SETUP_MODE_TITLE?$AA@
CONST	SEGMENT
??_C@_0BB@KMHMHMNP@SETUP_MODE_TITLE?$AA@ DB 'SETUP_MODE_TITLE', 00H ; `string'
CONST	ENDS
;	COMDAT ??_C@_07CNHFDDPI@UPGRADE?$AA@
CONST	SEGMENT
??_C@_07CNHFDDPI@UPGRADE?$AA@ DB 'UPGRADE', 00H		; `string'
CONST	ENDS
;	COMDAT ??_C@_0BB@OFECFCBP@REPAIR_REINSTALL?$AA@
CONST	SEGMENT
??_C@_0BB@OFECFCBP@REPAIR_REINSTALL?$AA@ DB 'REPAIR_REINSTALL', 00H ; `string'
CONST	ENDS
;	COMDAT ??_C@_06JHILMIHF@CANCEL?$AA@
CONST	SEGMENT
??_C@_06JHILMIHF@CANCEL?$AA@ DB 'CANCEL', 00H		; `string'
CONST	ENDS
;	COMDAT ??_C@_04PKHKLFPJ@PREV?$AA@
CONST	SEGMENT
??_C@_04PKHKLFPJ@PREV?$AA@ DB 'PREV', 00H		; `string'
CONST	ENDS
;	COMDAT ??_C@_04MOKMKBJN@NEXT?$AA@
CONST	SEGMENT
??_C@_04MOKMKBJN@NEXT?$AA@ DB 'NEXT', 00H		; `string'
CONST	ENDS
;	COMDAT ??_C@_1DI@FKGEFKMH@?$AAI?$AA?5?$AA?$CG?$AAa?$AAc?$AAc?$AAe?$AAp?$AAt?$AA?5?$AAt?$AAh?$AAe?$AA?5?$AAl?$AAi?$AAc?$AAe?$AAn?$AAs?$AAe?$AA?5?$AAt?$AAe?$AAr?$AAm?$AAs?$AA?$AA@
CONST	SEGMENT
??_C@_1DI@FKGEFKMH@?$AAI?$AA?5?$AA?$CG?$AAa?$AAc?$AAc?$AAe?$AAp?$AAt?$AA?5?$AAt?$AAh?$AAe?$AA?5?$AAl?$AAi?$AAc?$AAe?$AAn?$AAs?$AAe?$AA?5?$AAt?$AAe?$AAr?$AAm?$AAs?$AA?$AA@ DB 'I'
	DB	00H, ' ', 00H, '&', 00H, 'a', 00H, 'c', 00H, 'c', 00H, 'e', 00H
	DB	'p', 00H, 't', 00H, ' ', 00H, 't', 00H, 'h', 00H, 'e', 00H, ' '
	DB	00H, 'l', 00H, 'i', 00H, 'c', 00H, 'e', 00H, 'n', 00H, 's', 00H
	DB	'e', 00H, ' ', 00H, 't', 00H, 'e', 00H, 'r', 00H, 'm', 00H, 's'
	DB	00H, 00H, 00H				; `string'
CONST	ENDS
;	COMDAT ??_C@_1BIA@MJJKLEKE@?$AAI?$AAM?$AAP?$AAO?$AAR?$AAT?$AAA?$AAN?$AAT?$AA?3?$AA?5?$AAB?$AAy?$AA?5?$AAc?$AAh?$AAe?$AAc?$AAk?$AAi?$AAn?$AAg?$AA?5?$AAt?$AAh?$AAe?$AA?5?$AAc?$AAh?$AAe?$AAc?$AAk@
CONST	SEGMENT
??_C@_1BIA@MJJKLEKE@?$AAI?$AAM?$AAP?$AAO?$AAR?$AAT?$AAA?$AAN?$AAT?$AA?3?$AA?5?$AAB?$AAy?$AA?5?$AAc?$AAh?$AAe?$AAc?$AAk?$AAi?$AAn?$AAg?$AA?5?$AAt?$AAh?$AAe?$AA?5?$AAc?$AAh?$AAe?$AAc?$AAk@ DB 'I'
	DB	00H, 'M', 00H, 'P', 00H, 'O', 00H, 'R', 00H, 'T', 00H, 'A', 00H
	DB	'N', 00H, 'T', 00H, ':', 00H, ' ', 00H, 'B', 00H, 'y', 00H, ' '
	DB	00H, 'c', 00H, 'h', 00H, 'e', 00H, 'c', 00H, 'k', 00H, 'i', 00H
	DB	'n', 00H, 'g', 00H, ' ', 00H, 't', 00H, 'h', 00H, 'e', 00H, ' '
	DB	00H, 'c', 00H, 'h', 00H, 'e', 00H, 'c', 00H, 'k', 00H, 'b', 00H
	DB	'o', 00H, 'x', 00H, ' ', 00H, 'b', 00H, 'e', 00H, 'l', 00H, 'o'
	DB	00H, 'w', 00H, ',', 00H, ' ', 00H, 'y', 00H, 'o', 00H, 'u', 00H
	DB	' ', 00H, 'a', 00H, 'c', 00H, 'c', 00H, 'e', 00H, 'p', 00H, 't'
	DB	00H, ' ', 00H, 't', 00H, 'h', 00H, 'e', 00H, 's', 00H, 'e', 00H
	DB	' ', 00H, 'l', 00H, 'i', 00H, 'c', 00H, 'e', 00H, 'n', 00H, 's'
	DB	00H, 'e', 00H, ' ', 00H, 't', 00H, 'e', 00H, 'r', 00H, 'm', 00H
	DB	's', 00H, ' ', 00H, 'a', 00H, 'n', 00H, 'd', 00H, ' ', 00H, 's'
	DB	00H, 'i', 00H, 'g', 00H, 'n', 00H, 'i', 00H, 'f', 00H, 'y', 00H
	DB	' ', 00H, 't', 00H, 'h', 00H, 'a', 00H, 't', 00H, ' ', 00H, 'y'
	DB	00H, 'o', 00H, 'u', 00H, ' ', 00H, 'u', 00H, 'n', 00H, 'd', 00H
	DB	'e', 00H, 'r', 00H, 's', 00H, 't', 00H, 'a', 00H, 'n', 00H, 'd'
	DB	00H, ' ', 00H, 'a', 00H, 'n', 00H, 'd', 00H, ' ', 00H, 'a', 00H
	DB	'g', 00H, 'r', 00H, 'e', 00H, 'e', 00H, ' ', 00H, 't', 00H, 'o'
	DB	00H, ' ', 00H, 't', 00H, 'h', 00H, 'e', 00H, 'm', 00H, '.', 00H
	DB	' ', 00H, 'P', 00H, 'l', 00H, 'e', 00H, 'a', 00H, 's', 00H, 'e'
	DB	00H, ' ', 00H, 'c', 00H, 'l', 00H, 'i', 00H, 'c', 00H, 'k', 00H
	DB	' ', 00H, 't', 00H, 'h', 00H, 'e', 00H, ' ', 00H, '''', 00H, 'a'
	DB	00H, 'r', 00H, 'r', 00H, 'o', 00H, 'w', 00H, ' ', 00H, 'd', 00H
	DB	'o', 00H, 'w', 00H, 'n', 00H, '''', 00H, ' ', 00H, 'i', 00H, 'c'
	DB	00H, 'o', 00H, 'n', 00H, ' ', 00H, 't', 00H, 'o', 00H, ' ', 00H
	DB	's', 00H, 'e', 00H, 'e', 00H, ' ', 00H, 't', 00H, 'h', 00H, 'e'
	DB	00H, ' ', 00H, 'r', 00H, 'e', 00H, 's', 00H, 't', 00H, ' ', 00H
	DB	'o', 00H, 'f', 00H, ' ', 00H, 't', 00H, 'h', 00H, 'e', 00H, ' '
	DB	00H, 'l', 00H, 'i', 00H, 'c', 00H, 'e', 00H, 'n', 00H, 's', 00H
	DB	'e', 00H, '.', 00H, 00H, 00H			; `string'
CONST	ENDS
;	COMDAT ??_C@_1KO@PHMNFEJ@?$AAY?$AAo?$AAu?$AA?5?$AAm?$AAu?$AAs?$AAt?$AA?5?$AAa?$AAc?$AAc?$AAe?$AAp?$AAt?$AA?5?$AAt?$AAh?$AAe?$AAs?$AAe?$AA?5?$AAl?$AAi?$AAc?$AAe?$AAn?$AAs?$AAe?$AA?5?$AAt?$AAe@
CONST	SEGMENT
??_C@_1KO@PHMNFEJ@?$AAY?$AAo?$AAu?$AA?5?$AAm?$AAu?$AAs?$AAt?$AA?5?$AAa?$AAc?$AAc?$AAe?$AAp?$AAt?$AA?5?$AAt?$AAh?$AAe?$AAs?$AAe?$AA?5?$AAl?$AAi?$AAc?$AAe?$AAn?$AAs?$AAe?$AA?5?$AAt?$AAe@ DB 'Y'
	DB	00H, 'o', 00H, 'u', 00H, ' ', 00H, 'm', 00H, 'u', 00H, 's', 00H
	DB	't', 00H, ' ', 00H, 'a', 00H, 'c', 00H, 'c', 00H, 'e', 00H, 'p'
	DB	00H, 't', 00H, ' ', 00H, 't', 00H, 'h', 00H, 'e', 00H, 's', 00H
	DB	'e', 00H, ' ', 00H, 'l', 00H, 'i', 00H, 'c', 00H, 'e', 00H, 'n'
	DB	00H, 's', 00H, 'e', 00H, ' ', 00H, 't', 00H, 'e', 00H, 'r', 00H
	DB	'm', 00H, 's', 00H, ' ', 00H, 'b', 00H, 'e', 00H, 'f', 00H, 'o'
	DB	00H, 'r', 00H, 'e', 00H, ' ', 00H, 'y', 00H, 'o', 00H, 'u', 00H
	DB	' ', 00H, 'c', 00H, 'a', 00H, 'n', 00H, ' ', 00H, 'u', 00H, 's'
	DB	00H, 'e', 00H, ',', 00H, ' ', 00H, 'e', 00H, 'x', 00H, 't', 00H
	DB	'r', 00H, 'a', 00H, 'c', 00H, 't', 00H, ',', 00H, ' ', 00H, 'o'
	DB	00H, 'r', 00H, ' ', 00H, 'i', 00H, 'n', 00H, 's', 00H, 't', 00H
	DB	'a', 00H, 'l', 00H, 'l', 00H, ' ', 00H, 'G', 00H, 'o', 00H, 's'
	DB	00H, 't', 00H, 'C', 00H, 'r', 00H, 'y', 00H, 'p', 00H, 't', 00H
	DB	'.', 00H, 00H, 00H				; `string'
CONST	ENDS
;	COMDAT ??_C@_1DM@EGEEIDAI@?$AAP?$AAl?$AAe?$AAa?$AAs?$AAe?$AA?5?$AAr?$AAe?$AAa?$AAd?$AA?5?$AAt?$AAh?$AAe?$AA?5?$AAl?$AAi?$AAc?$AAe?$AAn?$AAs?$AAe?$AA?5?$AAt?$AAe?$AAr?$AAm?$AAs?$AA?$AA@
CONST	SEGMENT
??_C@_1DM@EGEEIDAI@?$AAP?$AAl?$AAe?$AAa?$AAs?$AAe?$AA?5?$AAr?$AAe?$AAa?$AAd?$AA?5?$AAt?$AAh?$AAe?$AA?5?$AAl?$AAi?$AAc?$AAe?$AAn?$AAs?$AAe?$AA?5?$AAt?$AAe?$AAr?$AAm?$AAs?$AA?$AA@ DB 'P'
	DB	00H, 'l', 00H, 'e', 00H, 'a', 00H, 's', 00H, 'e', 00H, ' ', 00H
	DB	'r', 00H, 'e', 00H, 'a', 00H, 'd', 00H, ' ', 00H, 't', 00H, 'h'
	DB	00H, 'e', 00H, ' ', 00H, 'l', 00H, 'i', 00H, 'c', 00H, 'e', 00H
	DB	'n', 00H, 's', 00H, 'e', 00H, ' ', 00H, 't', 00H, 'e', 00H, 'r'
	DB	00H, 'm', 00H, 's', 00H, 00H, 00H		; `string'
CONST	ENDS
;	COMDAT ??_C@_0BH@MFJOAEDC@CANNOT_DISPLAY_LICENSE?$AA@
CONST	SEGMENT
??_C@_0BH@MFJOAEDC@CANNOT_DISPLAY_LICENSE?$AA@ DB 'CANNOT_DISPLAY_LICENSE'
	DB	00H						; `string'
CONST	ENDS
;	COMDAT ??_C@_0BF@EOKBACHI@SETUP_WIZARD_PAGE_?$CFd?$AA@
CONST	SEGMENT
??_C@_0BF@EOKBACHI@SETUP_WIZARD_PAGE_?$CFd?$AA@ DB 'SETUP_WIZARD_PAGE_%d', 00H ; `string'
CONST	ENDS
;	COMDAT ??_C@_0O@MGHONKG@IDD_INSTL_DLG?$AA@
CONST	SEGMENT
??_C@_0O@MGHONKG@IDD_INSTL_DLG?$AA@ DB 'IDD_INSTL_DLG', 00H ; `string'
CONST	ENDS
;	COMDAT ??_C@_01KICIPPFI@?2?$AA@
CONST	SEGMENT
??_C@_01KICIPPFI@?2?$AA@ DB '\', 00H			; `string'
CONST	ENDS
;	COMDAT xdata$x
xdata$x	SEGMENT
__catchsym$?_Copy@?$basic_string@_WU?$char_traits@_W@std@@V?$allocator@_W@2@@std@@QAEXII@Z$111 DD 040H
	DD	00H
	DD	00H
	DD	FLAT:__catch$?_Copy@?$basic_string@_WU?$char_traits@_W@std@@V?$allocator@_W@2@@std@@QAEXII@Z$0
__catchsym$?_Copy@?$basic_string@_WU?$char_traits@_W@std@@V?$allocator@_W@2@@std@@QAEXII@Z$110 DD 040H
	DD	00H
	DD	00H
	DD	FLAT:__catch$?_Copy@?$basic_string@_WU?$char_traits@_W@std@@V?$allocator@_W@2@@std@@QAEXII@Z$1
__unwindtable$?_Copy@?$basic_string@_WU?$char_traits@_W@std@@V?$allocator@_W@2@@std@@QAEXII@Z DD 0ffffffffH
	DD	00H
	DD	0ffffffffH
	DD	00H
	DD	01H
	DD	00H
	DD	01H
	DD	00H
__ehfuncinfo$?_Copy@?$basic_string@_WU?$char_traits@_W@std@@V?$allocator@_W@2@@std@@QAEXII@Z DD 019930522H
	DD	04H
	DD	FLAT:__unwindtable$?_Copy@?$basic_string@_WU?$char_traits@_W@std@@V?$allocator@_W@2@@std@@QAEXII@Z
	DD	02H
	DD	FLAT:__tryblocktable$?_Copy@?$basic_string@_WU?$char_traits@_W@std@@V?$allocator@_W@2@@std@@QAEXII@Z
	DD	2 DUP(00H)
	DD	00H
	DD	01H
__tryblocktable$?_Copy@?$basic_string@_WU?$char_traits@_W@std@@V?$allocator@_W@2@@std@@QAEXII@Z DD 02H
	DD	02H
	DD	03H
	DD	01H
	DD	FLAT:__catchsym$?_Copy@?$basic_string@_WU?$char_traits@_W@std@@V?$allocator@_W@2@@std@@QAEXII@Z$110
	DD	00H
	DD	00H
	DD	03H
	DD	01H
	DD	FLAT:__catchsym$?_Copy@?$basic_string@_WU?$char_traits@_W@std@@V?$allocator@_W@2@@std@@QAEXII@Z$111
xdata$x	ENDS
;	COMDAT xdata$x
xdata$x	SEGMENT
__catchsym$?_Copy@?$basic_string@DU?$char_traits@D@std@@V?$allocator@D@2@@std@@QAEXII@Z$111 DD 040H
	DD	00H
	DD	00H
	DD	FLAT:__catch$?_Copy@?$basic_string@DU?$char_traits@D@std@@V?$allocator@D@2@@std@@QAEXII@Z$0
__catchsym$?_Copy@?$basic_string@DU?$char_traits@D@std@@V?$allocator@D@2@@std@@QAEXII@Z$110 DD 040H
	DD	00H
	DD	00H
	DD	FLAT:__catch$?_Copy@?$basic_string@DU?$char_traits@D@std@@V?$allocator@D@2@@std@@QAEXII@Z$1
__unwindtable$?_Copy@?$basic_string@DU?$char_traits@D@std@@V?$allocator@D@2@@std@@QAEXII@Z DD 0ffffffffH
	DD	00H
	DD	0ffffffffH
	DD	00H
	DD	01H
	DD	00H
	DD	01H
	DD	00H
__ehfuncinfo$?_Copy@?$basic_string@DU?$char_traits@D@std@@V?$allocator@D@2@@std@@QAEXII@Z DD 019930522H
	DD	04H
	DD	FLAT:__unwindtable$?_Copy@?$basic_string@DU?$char_traits@D@std@@V?$allocator@D@2@@std@@QAEXII@Z
	DD	02H
	DD	FLAT:__tryblocktable$?_Copy@?$basic_string@DU?$char_traits@D@std@@V?$allocator@D@2@@std@@QAEXII@Z
	DD	2 DUP(00H)
	DD	00H
	DD	01H
__tryblocktable$?_Copy@?$basic_string@DU?$char_traits@D@std@@V?$allocator@D@2@@std@@QAEXII@Z DD 02H
	DD	02H
	DD	03H
	DD	01H
	DD	FLAT:__catchsym$?_Copy@?$basic_string@DU?$char_traits@D@std@@V?$allocator@D@2@@std@@QAEXII@Z$110
	DD	00H
	DD	00H
	DD	03H
	DD	01H
	DD	FLAT:__catchsym$?_Copy@?$basic_string@DU?$char_traits@D@std@@V?$allocator@D@2@@std@@QAEXII@Z$111
xdata$x	ENDS
; Function compile flags: /Ogtp
; File c:\program files (x86)\microsoft visual studio 14.0\vc\include\xmemory0
;	COMDAT ??$construct@PA_WAAPA_W@?$allocator@_W@std@@QAEXPAPA_WAAPA_W@Z
_TEXT	SEGMENT
__Ptr$ = 8						; size = 4
_<_Args_0>$ = 12					; size = 4
??$construct@PA_WAAPA_W@?$allocator@_W@std@@QAEXPAPA_WAAPA_W@Z PROC ; std::allocator<wchar_t>::construct<wchar_t *,wchar_t * &>, COMDAT
; _this$ = ecx

; 736  : 		{	// construct _Objty(_Types...) at _Ptr

  00000	55		 push	 ebp
  00001	8b ec		 mov	 ebp, esp

; 737  : 		::new ((void *)_Ptr) _Objty(_STD forward<_Types>(_Args)...);

  00003	8b 4d 08	 mov	 ecx, DWORD PTR __Ptr$[ebp]
  00006	85 c9		 test	 ecx, ecx
  00008	74 07		 je	 SHORT $LN3@construct
  0000a	8b 45 0c	 mov	 eax, DWORD PTR _<_Args_0>$[ebp]
  0000d	8b 00		 mov	 eax, DWORD PTR [eax]
  0000f	89 01		 mov	 DWORD PTR [ecx], eax
$LN3@construct:

; 738  : 		}

  00011	5d		 pop	 ebp
  00012	c2 08 00	 ret	 8
??$construct@PA_WAAPA_W@?$allocator@_W@std@@QAEXPAPA_WAAPA_W@Z ENDP ; std::allocator<wchar_t>::construct<wchar_t *,wchar_t * &>
_TEXT	ENDS
; Function compile flags: /Ogtp
; File c:\program files (x86)\microsoft visual studio 14.0\vc\include\xmemory0
;	COMDAT ??$construct@PADAAPAD@?$allocator@D@std@@QAEXPAPADAAPAD@Z
_TEXT	SEGMENT
__Ptr$ = 8						; size = 4
_<_Args_0>$ = 12					; size = 4
??$construct@PADAAPAD@?$allocator@D@std@@QAEXPAPADAAPAD@Z PROC ; std::allocator<char>::construct<char *,char * &>, COMDAT
; _this$ = ecx

; 736  : 		{	// construct _Objty(_Types...) at _Ptr

  00000	55		 push	 ebp
  00001	8b ec		 mov	 ebp, esp

; 737  : 		::new ((void *)_Ptr) _Objty(_STD forward<_Types>(_Args)...);

  00003	8b 4d 08	 mov	 ecx, DWORD PTR __Ptr$[ebp]
  00006	85 c9		 test	 ecx, ecx
  00008	74 07		 je	 SHORT $LN3@construct
  0000a	8b 45 0c	 mov	 eax, DWORD PTR _<_Args_0>$[ebp]
  0000d	8b 00		 mov	 eax, DWORD PTR [eax]
  0000f	89 01		 mov	 DWORD PTR [ecx], eax
$LN3@construct:

; 738  : 		}

  00011	5d		 pop	 ebp
  00012	c2 08 00	 ret	 8
??$construct@PADAAPAD@?$allocator@D@std@@QAEXPAPADAAPAD@Z ENDP ; std::allocator<char>::construct<char *,char * &>
_TEXT	ENDS
; Function compile flags: /Ogtp
; File c:\program files (x86)\microsoft visual studio 14.0\vc\include\xmemory0
;	COMDAT ??$destroy@PAD@?$allocator@D@std@@QAEXPAPAD@Z
_TEXT	SEGMENT
__Ptr$ = 8						; size = 4
??$destroy@PAD@?$allocator@D@std@@QAEXPAPAD@Z PROC	; std::allocator<char>::destroy<char *>, COMDAT
; _this$ = ecx

; 744  : 		_Ptr->~_Uty();
; 745  : 		}

  00000	c2 04 00	 ret	 4
??$destroy@PAD@?$allocator@D@std@@QAEXPAPAD@Z ENDP	; std::allocator<char>::destroy<char *>
_TEXT	ENDS
; Function compile flags: /Ogtp
; File c:\program files (x86)\microsoft visual studio 14.0\vc\include\xmemory0
;	COMDAT ??$destroy@PA_W@?$allocator@_W@std@@QAEXPAPA_W@Z
_TEXT	SEGMENT
__Ptr$ = 8						; size = 4
??$destroy@PA_W@?$allocator@_W@std@@QAEXPAPA_W@Z PROC	; std::allocator<wchar_t>::destroy<wchar_t *>, COMDAT
; _this$ = ecx

; 744  : 		_Ptr->~_Uty();
; 745  : 		}

  00000	c2 04 00	 ret	 4
??$destroy@PA_W@?$allocator@_W@std@@QAEXPAPA_W@Z ENDP	; std::allocator<wchar_t>::destroy<wchar_t *>
_TEXT	ENDS
; Function compile flags: /Ogtp
; File c:\program files (x86)\microsoft visual studio 14.0\vc\include\xmemory0
;	COMDAT ??$construct@PA_WAAPA_W@?$allocator_traits@V?$allocator@_W@std@@@std@@SAXAAV?$allocator@_W@1@PAPA_WAAPA_W@Z
_TEXT	SEGMENT
__Al$ = 8						; size = 4
__Ptr$ = 12						; size = 4
_<_Args_0>$ = 16					; size = 4
??$construct@PA_WAAPA_W@?$allocator_traits@V?$allocator@_W@std@@@std@@SAXAAV?$allocator@_W@1@PAPA_WAAPA_W@Z PROC ; std::allocator_traits<std::allocator<wchar_t> >::construct<wchar_t *,wchar_t * &>, COMDAT

; 856  : 		{	// construct _Objty(_Types...) at _Ptr

  00000	55		 push	 ebp
  00001	8b ec		 mov	 ebp, esp

; 857  : 		_Al.construct(_Ptr, _STD forward<_Types>(_Args)...);

  00003	8b 4d 0c	 mov	 ecx, DWORD PTR __Ptr$[ebp]
  00006	85 c9		 test	 ecx, ecx
  00008	74 07		 je	 SHORT $LN8@construct
  0000a	8b 45 10	 mov	 eax, DWORD PTR _<_Args_0>$[ebp]
  0000d	8b 00		 mov	 eax, DWORD PTR [eax]
  0000f	89 01		 mov	 DWORD PTR [ecx], eax
$LN8@construct:

; 858  : 		}

  00011	5d		 pop	 ebp
  00012	c3		 ret	 0
??$construct@PA_WAAPA_W@?$allocator_traits@V?$allocator@_W@std@@@std@@SAXAAV?$allocator@_W@1@PAPA_WAAPA_W@Z ENDP ; std::allocator_traits<std::allocator<wchar_t> >::construct<wchar_t *,wchar_t * &>
_TEXT	ENDS
; Function compile flags: /Ogtp
; File c:\program files (x86)\microsoft visual studio 14.0\vc\include\type_traits
;	COMDAT ??$forward@AAPA_W@std@@YAAAPA_WAAPA_W@Z
_TEXT	SEGMENT
__Arg$ = 8						; size = 4
??$forward@AAPA_W@std@@YAAAPA_WAAPA_W@Z PROC		; std::forward<wchar_t * &>, COMDAT

; 1275 : 	{	// forward an lvalue as either an lvalue or an rvalue

  00000	55		 push	 ebp
  00001	8b ec		 mov	 ebp, esp

; 1276 : 	return (static_cast<_Ty&&>(_Arg));

  00003	8b 45 08	 mov	 eax, DWORD PTR __Arg$[ebp]

; 1277 : 	}

  00006	5d		 pop	 ebp
  00007	c3		 ret	 0
??$forward@AAPA_W@std@@YAAAPA_WAAPA_W@Z ENDP		; std::forward<wchar_t * &>
_TEXT	ENDS
; Function compile flags: /Ogtp
; File c:\program files (x86)\microsoft visual studio 14.0\vc\include\xmemory0
;	COMDAT ??$construct@PADAAPAD@?$allocator_traits@V?$allocator@D@std@@@std@@SAXAAV?$allocator@D@1@PAPADAAPAD@Z
_TEXT	SEGMENT
__Al$ = 8						; size = 4
__Ptr$ = 12						; size = 4
_<_Args_0>$ = 16					; size = 4
??$construct@PADAAPAD@?$allocator_traits@V?$allocator@D@std@@@std@@SAXAAV?$allocator@D@1@PAPADAAPAD@Z PROC ; std::allocator_traits<std::allocator<char> >::construct<char *,char * &>, COMDAT

; 856  : 		{	// construct _Objty(_Types...) at _Ptr

  00000	55		 push	 ebp
  00001	8b ec		 mov	 ebp, esp

; 857  : 		_Al.construct(_Ptr, _STD forward<_Types>(_Args)...);

  00003	8b 4d 0c	 mov	 ecx, DWORD PTR __Ptr$[ebp]
  00006	85 c9		 test	 ecx, ecx
  00008	74 07		 je	 SHORT $LN8@construct
  0000a	8b 45 10	 mov	 eax, DWORD PTR _<_Args_0>$[ebp]
  0000d	8b 00		 mov	 eax, DWORD PTR [eax]
  0000f	89 01		 mov	 DWORD PTR [ecx], eax
$LN8@construct:

; 858  : 		}

  00011	5d		 pop	 ebp
  00012	c3		 ret	 0
??$construct@PADAAPAD@?$allocator_traits@V?$allocator@D@std@@@std@@SAXAAV?$allocator@D@1@PAPADAAPAD@Z ENDP ; std::allocator_traits<std::allocator<char> >::construct<char *,char * &>
_TEXT	ENDS
; Function compile flags: /Ogtp
; File c:\program files (x86)\microsoft visual studio 14.0\vc\include\type_traits
;	COMDAT ??$forward@AAPAD@std@@YAAAPADAAPAD@Z
_TEXT	SEGMENT
__Arg$ = 8						; size = 4
??$forward@AAPAD@std@@YAAAPADAAPAD@Z PROC		; std::forward<char * &>, COMDAT

; 1275 : 	{	// forward an lvalue as either an lvalue or an rvalue

  00000	55		 push	 ebp
  00001	8b ec		 mov	 ebp, esp

; 1276 : 	return (static_cast<_Ty&&>(_Arg));

  00003	8b 45 08	 mov	 eax, DWORD PTR __Arg$[ebp]

; 1277 : 	}

  00006	5d		 pop	 ebp
  00007	c3		 ret	 0
??$forward@AAPAD@std@@YAAAPADAAPAD@Z ENDP		; std::forward<char * &>
_TEXT	ENDS
; Function compile flags: /Ogtp
; File c:\program files (x86)\microsoft visual studio 14.0\vc\include\xmemory0
;	COMDAT ??$destroy@PAD@?$allocator_traits@V?$allocator@D@std@@@std@@SAXAAV?$allocator@D@1@PAPAD@Z
_TEXT	SEGMENT
__Al$ = 8						; size = 4
__Ptr$ = 12						; size = 4
??$destroy@PAD@?$allocator_traits@V?$allocator@D@std@@@std@@SAXAAV?$allocator@D@1@PAPAD@Z PROC ; std::allocator_traits<std::allocator<char> >::destroy<char *>, COMDAT

; 864  : 		_Al.destroy(_Ptr);
; 865  : 		}

  00000	c3		 ret	 0
??$destroy@PAD@?$allocator_traits@V?$allocator@D@std@@@std@@SAXAAV?$allocator@D@1@PAPAD@Z ENDP ; std::allocator_traits<std::allocator<char> >::destroy<char *>
_TEXT	ENDS
; Function compile flags: /Ogtp
; File c:\program files (x86)\microsoft visual studio 14.0\vc\include\xmemory0
;	COMDAT ??$destroy@PA_W@?$allocator_traits@V?$allocator@_W@std@@@std@@SAXAAV?$allocator@_W@1@PAPA_W@Z
_TEXT	SEGMENT
__Al$ = 8						; size = 4
__Ptr$ = 12						; size = 4
??$destroy@PA_W@?$allocator_traits@V?$allocator@_W@std@@@std@@SAXAAV?$allocator@_W@1@PAPA_W@Z PROC ; std::allocator_traits<std::allocator<wchar_t> >::destroy<wchar_t *>, COMDAT

; 864  : 		_Al.destroy(_Ptr);
; 865  : 		}

  00000	c3		 ret	 0
??$destroy@PA_W@?$allocator_traits@V?$allocator@_W@std@@@std@@SAXAAV?$allocator@_W@1@PAPA_W@Z ENDP ; std::allocator_traits<std::allocator<wchar_t> >::destroy<wchar_t *>
_TEXT	ENDS
; Function compile flags: /Ogtp
; File c:\program files (x86)\microsoft visual studio 14.0\vc\include\xutility
;	COMDAT ??$?0U?$_Wrap_alloc@V?$allocator@D@std@@@std@@$$V@?$_Compressed_pair@U?$_Wrap_alloc@V?$allocator@D@std@@@std@@V?$_String_val@U?$_Simple_types@D@std@@@2@$00@std@@QAE@U_One_then_variadic_args_t@1@$$QAU?$_Wrap_alloc@V?$allocator@D@std@@@1@@Z
_TEXT	SEGMENT
___formal$ = 8						; size = 1
__Val1$ = 12						; size = 4
??$?0U?$_Wrap_alloc@V?$allocator@D@std@@@std@@$$V@?$_Compressed_pair@U?$_Wrap_alloc@V?$allocator@D@std@@@std@@V?$_String_val@U?$_Simple_types@D@std@@@2@$00@std@@QAE@U_One_then_variadic_args_t@1@$$QAU?$_Wrap_alloc@V?$allocator@D@std@@@1@@Z PROC ; std::_Compressed_pair<std::_Wrap_alloc<std::allocator<char> >,std::_String_val<std::_Simple_types<char> >,1>::_Compressed_pair<std::_Wrap_alloc<std::allocator<char> >,std::_String_val<std::_Simple_types<char> >,1><std::_Wrap_alloc<std::allocator<char> > >, COMDAT
; _this$ = ecx

; 288  : 			_Myval2(_STD forward<_Other2>(_Val2)...)

  00000	c7 41 10 00 00
	00 00		 mov	 DWORD PTR [ecx+16], 0

; 290  : 		}

  00007	8b c1		 mov	 eax, ecx
  00009	c7 41 14 00 00
	00 00		 mov	 DWORD PTR [ecx+20], 0
  00010	c2 08 00	 ret	 8
??$?0U?$_Wrap_alloc@V?$allocator@D@std@@@std@@$$V@?$_Compressed_pair@U?$_Wrap_alloc@V?$allocator@D@std@@@std@@V?$_String_val@U?$_Simple_types@D@std@@@2@$00@std@@QAE@U_One_then_variadic_args_t@1@$$QAU?$_Wrap_alloc@V?$allocator@D@std@@@1@@Z ENDP ; std::_Compressed_pair<std::_Wrap_alloc<std::allocator<char> >,std::_String_val<std::_Simple_types<char> >,1>::_Compressed_pair<std::_Wrap_alloc<std::allocator<char> >,std::_String_val<std::_Simple_types<char> >,1><std::_Wrap_alloc<std::allocator<char> > >
_TEXT	ENDS
; Function compile flags: /Ogtp
; File c:\program files (x86)\microsoft visual studio 14.0\vc\include\type_traits
;	COMDAT ??$forward@U?$_Wrap_alloc@V?$allocator@D@std@@@std@@@std@@YA$$QAU?$_Wrap_alloc@V?$allocator@D@std@@@0@AAU10@@Z
_TEXT	SEGMENT
__Arg$ = 8						; size = 4
??$forward@U?$_Wrap_alloc@V?$allocator@D@std@@@std@@@std@@YA$$QAU?$_Wrap_alloc@V?$allocator@D@std@@@0@AAU10@@Z PROC ; std::forward<std::_Wrap_alloc<std::allocator<char> > >, COMDAT

; 1275 : 	{	// forward an lvalue as either an lvalue or an rvalue

  00000	55		 push	 ebp
  00001	8b ec		 mov	 ebp, esp

; 1276 : 	return (static_cast<_Ty&&>(_Arg));

  00003	8b 45 08	 mov	 eax, DWORD PTR __Arg$[ebp]

; 1277 : 	}

  00006	5d		 pop	 ebp
  00007	c3		 ret	 0
??$forward@U?$_Wrap_alloc@V?$allocator@D@std@@@std@@@std@@YA$$QAU?$_Wrap_alloc@V?$allocator@D@std@@@0@AAU10@@Z ENDP ; std::forward<std::_Wrap_alloc<std::allocator<char> > >
_TEXT	ENDS
; Function compile flags: /Ogtp
; File c:\program files (x86)\microsoft visual studio 14.0\vc\include\type_traits
;	COMDAT ??$move@AAV?$basic_string@DU?$char_traits@D@std@@V?$allocator@D@2@@std@@@std@@YA$$QAV?$basic_string@DU?$char_traits@D@std@@V?$allocator@D@2@@0@AAV10@@Z
_TEXT	SEGMENT
__Arg$ = 8						; size = 4
??$move@AAV?$basic_string@DU?$char_traits@D@std@@V?$allocator@D@2@@std@@@std@@YA$$QAV?$basic_string@DU?$char_traits@D@std@@V?$allocator@D@2@@0@AAV10@@Z PROC ; std::move<std::basic_string<char,std::char_traits<char>,std::allocator<char> > &>, COMDAT

; 1291 : 	{	// forward _Arg as movable

  00000	55		 push	 ebp
  00001	8b ec		 mov	 ebp, esp

; 1292 : 	return (static_cast<typename remove_reference<_Ty>::type&&>(_Arg));

  00003	8b 45 08	 mov	 eax, DWORD PTR __Arg$[ebp]

; 1293 : 	}

  00006	5d		 pop	 ebp
  00007	c3		 ret	 0
??$move@AAV?$basic_string@DU?$char_traits@D@std@@V?$allocator@D@2@@std@@@std@@YA$$QAV?$basic_string@DU?$char_traits@D@std@@V?$allocator@D@2@@0@AAV10@@Z ENDP ; std::move<std::basic_string<char,std::char_traits<char>,std::allocator<char> > &>
_TEXT	ENDS
; Function compile flags: /Ogtp
; File c:\program files (x86)\microsoft visual studio 14.0\vc\include\xmemory0
;	COMDAT ??$construct@PA_WAAPA_W@?$_Wrap_alloc@V?$allocator@_W@std@@@std@@QAEXPAPA_WAAPA_W@Z
_TEXT	SEGMENT
__Ptr$ = 8						; size = 4
_<_Args_0>$ = 12					; size = 4
??$construct@PA_WAAPA_W@?$_Wrap_alloc@V?$allocator@_W@std@@@std@@QAEXPAPA_WAAPA_W@Z PROC ; std::_Wrap_alloc<std::allocator<wchar_t> >::construct<wchar_t *,wchar_t * &>, COMDAT
; _this$ = ecx

; 994  : 		{	// construct _Ty(_Types...) at _Ptr

  00000	55		 push	 ebp
  00001	8b ec		 mov	 ebp, esp

; 995  : 		_Mytraits::construct(*this, _Ptr,

  00003	8b 4d 08	 mov	 ecx, DWORD PTR __Ptr$[ebp]
  00006	85 c9		 test	 ecx, ecx
  00008	74 07		 je	 SHORT $LN13@construct
  0000a	8b 45 0c	 mov	 eax, DWORD PTR _<_Args_0>$[ebp]
  0000d	8b 00		 mov	 eax, DWORD PTR [eax]
  0000f	89 01		 mov	 DWORD PTR [ecx], eax
$LN13@construct:

; 996  : 			_STD forward<_Types>(_Args)...);
; 997  : 		}

  00011	5d		 pop	 ebp
  00012	c2 08 00	 ret	 8
??$construct@PA_WAAPA_W@?$_Wrap_alloc@V?$allocator@_W@std@@@std@@QAEXPAPA_WAAPA_W@Z ENDP ; std::_Wrap_alloc<std::allocator<wchar_t> >::construct<wchar_t *,wchar_t * &>
_TEXT	ENDS
; Function compile flags: /Ogtp
; File c:\program files (x86)\microsoft visual studio 14.0\vc\include\xmemory0
;	COMDAT ??$construct@PADAAPAD@?$_Wrap_alloc@V?$allocator@D@std@@@std@@QAEXPAPADAAPAD@Z
_TEXT	SEGMENT
__Ptr$ = 8						; size = 4
_<_Args_0>$ = 12					; size = 4
??$construct@PADAAPAD@?$_Wrap_alloc@V?$allocator@D@std@@@std@@QAEXPAPADAAPAD@Z PROC ; std::_Wrap_alloc<std::allocator<char> >::construct<char *,char * &>, COMDAT
; _this$ = ecx

; 994  : 		{	// construct _Ty(_Types...) at _Ptr

  00000	55		 push	 ebp
  00001	8b ec		 mov	 ebp, esp

; 995  : 		_Mytraits::construct(*this, _Ptr,

  00003	8b 4d 08	 mov	 ecx, DWORD PTR __Ptr$[ebp]
  00006	85 c9		 test	 ecx, ecx
  00008	74 07		 je	 SHORT $LN13@construct
  0000a	8b 45 0c	 mov	 eax, DWORD PTR _<_Args_0>$[ebp]
  0000d	8b 00		 mov	 eax, DWORD PTR [eax]
  0000f	89 01		 mov	 DWORD PTR [ecx], eax
$LN13@construct:

; 996  : 			_STD forward<_Types>(_Args)...);
; 997  : 		}

  00011	5d		 pop	 ebp
  00012	c2 08 00	 ret	 8
??$construct@PADAAPAD@?$_Wrap_alloc@V?$allocator@D@std@@@std@@QAEXPAPADAAPAD@Z ENDP ; std::_Wrap_alloc<std::allocator<char> >::construct<char *,char * &>
_TEXT	ENDS
; Function compile flags: /Ogtp
; File c:\program files (x86)\microsoft visual studio 14.0\vc\include\xstddef
;	COMDAT ??$_Unfancy@D@std@@YAPADPAD@Z
_TEXT	SEGMENT
__Ptr$ = 8						; size = 4
??$_Unfancy@D@std@@YAPADPAD@Z PROC			; std::_Unfancy<char>, COMDAT

; 739  : 	{	// do nothing for plain pointers

  00000	55		 push	 ebp
  00001	8b ec		 mov	 ebp, esp

; 740  : 	return (_Ptr);

  00003	8b 45 08	 mov	 eax, DWORD PTR __Ptr$[ebp]

; 741  : 	}

  00006	5d		 pop	 ebp
  00007	c3		 ret	 0
??$_Unfancy@D@std@@YAPADPAD@Z ENDP			; std::_Unfancy<char>
_TEXT	ENDS
; Function compile flags: /Ogtp
; File c:\program files (x86)\microsoft visual studio 14.0\vc\include\xmemory0
;	COMDAT ??$destroy@PAD@?$_Wrap_alloc@V?$allocator@D@std@@@std@@QAEXPAPAD@Z
_TEXT	SEGMENT
__Ptr$ = 8						; size = 4
??$destroy@PAD@?$_Wrap_alloc@V?$allocator@D@std@@@std@@QAEXPAPAD@Z PROC ; std::_Wrap_alloc<std::allocator<char> >::destroy<char *>, COMDAT
; _this$ = ecx

; 1003 : 		_Mytraits::destroy(*this, _Ptr);
; 1004 : 		}

  00000	c2 04 00	 ret	 4
??$destroy@PAD@?$_Wrap_alloc@V?$allocator@D@std@@@std@@QAEXPAPAD@Z ENDP ; std::_Wrap_alloc<std::allocator<char> >::destroy<char *>
_TEXT	ENDS
; Function compile flags: /Ogtp
; File c:\program files (x86)\microsoft visual studio 14.0\vc\include\xstddef
;	COMDAT ??$addressof@PAD@std@@YAPAPADAAPAD@Z
_TEXT	SEGMENT
__Val$ = 8						; size = 4
??$addressof@PAD@std@@YAPAPADAAPAD@Z PROC		; std::addressof<char *>, COMDAT

; 724  : 	{	// return address of _Val

  00000	55		 push	 ebp
  00001	8b ec		 mov	 ebp, esp

; 725  : 	return (__builtin_addressof(_Val));

  00003	8b 45 08	 mov	 eax, DWORD PTR __Val$[ebp]

; 726  : 	}

  00006	5d		 pop	 ebp
  00007	c3		 ret	 0
??$addressof@PAD@std@@YAPAPADAAPAD@Z ENDP		; std::addressof<char *>
_TEXT	ENDS
; Function compile flags: /Ogtp
; File c:\program files (x86)\microsoft visual studio 14.0\vc\include\xstddef
;	COMDAT ??$_Unfancy@_W@std@@YAPA_WPA_W@Z
_TEXT	SEGMENT
__Ptr$ = 8						; size = 4
??$_Unfancy@_W@std@@YAPA_WPA_W@Z PROC			; std::_Unfancy<wchar_t>, COMDAT

; 739  : 	{	// do nothing for plain pointers

  00000	55		 push	 ebp
  00001	8b ec		 mov	 ebp, esp

; 740  : 	return (_Ptr);

  00003	8b 45 08	 mov	 eax, DWORD PTR __Ptr$[ebp]

; 741  : 	}

  00006	5d		 pop	 ebp
  00007	c3		 ret	 0
??$_Unfancy@_W@std@@YAPA_WPA_W@Z ENDP			; std::_Unfancy<wchar_t>
_TEXT	ENDS
; Function compile flags: /Ogtp
; File c:\program files (x86)\microsoft visual studio 14.0\vc\include\xmemory0
;	COMDAT ??$destroy@PA_W@?$_Wrap_alloc@V?$allocator@_W@std@@@std@@QAEXPAPA_W@Z
_TEXT	SEGMENT
__Ptr$ = 8						; size = 4
??$destroy@PA_W@?$_Wrap_alloc@V?$allocator@_W@std@@@std@@QAEXPAPA_W@Z PROC ; std::_Wrap_alloc<std::allocator<wchar_t> >::destroy<wchar_t *>, COMDAT
; _this$ = ecx

; 1003 : 		_Mytraits::destroy(*this, _Ptr);
; 1004 : 		}

  00000	c2 04 00	 ret	 4
??$destroy@PA_W@?$_Wrap_alloc@V?$allocator@_W@std@@@std@@QAEXPAPA_W@Z ENDP ; std::_Wrap_alloc<std::allocator<wchar_t> >::destroy<wchar_t *>
_TEXT	ENDS
; Function compile flags: /Ogtp
; File c:\program files (x86)\microsoft visual studio 14.0\vc\include\xstddef
;	COMDAT ??$addressof@PA_W@std@@YAPAPA_WAAPA_W@Z
_TEXT	SEGMENT
__Val$ = 8						; size = 4
??$addressof@PA_W@std@@YAPAPA_WAAPA_W@Z PROC		; std::addressof<wchar_t *>, COMDAT

; 724  : 	{	// return address of _Val

  00000	55		 push	 ebp
  00001	8b ec		 mov	 ebp, esp

; 725  : 	return (__builtin_addressof(_Val));

  00003	8b 45 08	 mov	 eax, DWORD PTR __Val$[ebp]

; 726  : 	}

  00006	5d		 pop	 ebp
  00007	c3		 ret	 0
??$addressof@PA_W@std@@YAPAPA_WAAPA_W@Z ENDP		; std::addressof<wchar_t *>
_TEXT	ENDS
; Function compile flags: /Ogtp
; File c:\program files (x86)\microsoft visual studio 14.0\vc\include\xutility
;	COMDAT ??$?0$$V@?$_Compressed_pair@U?$_Wrap_alloc@V?$allocator@D@std@@@std@@V?$_String_val@U?$_Simple_types@D@std@@@2@$00@std@@QAE@U_Zero_then_variadic_args_t@1@@Z
_TEXT	SEGMENT
___formal$ = 8						; size = 1
??$?0$$V@?$_Compressed_pair@U?$_Wrap_alloc@V?$allocator@D@std@@@std@@V?$_String_val@U?$_Simple_types@D@std@@@2@$00@std@@QAE@U_Zero_then_variadic_args_t@1@@Z PROC ; std::_Compressed_pair<std::_Wrap_alloc<std::allocator<char> >,std::_String_val<std::_Simple_types<char> >,1>::_Compressed_pair<std::_Wrap_alloc<std::allocator<char> >,std::_String_val<std::_Simple_types<char> >,1><>, COMDAT
; _this$ = ecx

; 279  : 		: _Ty1(), _Myval2(_STD forward<_Other2>(_Val2)...)

  00000	c7 41 10 00 00
	00 00		 mov	 DWORD PTR [ecx+16], 0

; 281  : 		}

  00007	8b c1		 mov	 eax, ecx
  00009	c7 41 14 00 00
	00 00		 mov	 DWORD PTR [ecx+20], 0
  00010	c2 04 00	 ret	 4
??$?0$$V@?$_Compressed_pair@U?$_Wrap_alloc@V?$allocator@D@std@@@std@@V?$_String_val@U?$_Simple_types@D@std@@@2@$00@std@@QAE@U_Zero_then_variadic_args_t@1@@Z ENDP ; std::_Compressed_pair<std::_Wrap_alloc<std::allocator<char> >,std::_String_val<std::_Simple_types<char> >,1>::_Compressed_pair<std::_Wrap_alloc<std::allocator<char> >,std::_String_val<std::_Simple_types<char> >,1><>
_TEXT	ENDS
; Function compile flags: /Ogtp
; File c:\program files (x86)\microsoft visual studio 14.0\vc\include\xutility
;	COMDAT ??$?0$$V@?$_Compressed_pair@U?$_Wrap_alloc@V?$allocator@_W@std@@@std@@V?$_String_val@U?$_Simple_types@_W@std@@@2@$00@std@@QAE@U_Zero_then_variadic_args_t@1@@Z
_TEXT	SEGMENT
___formal$ = 8						; size = 1
??$?0$$V@?$_Compressed_pair@U?$_Wrap_alloc@V?$allocator@_W@std@@@std@@V?$_String_val@U?$_Simple_types@_W@std@@@2@$00@std@@QAE@U_Zero_then_variadic_args_t@1@@Z PROC ; std::_Compressed_pair<std::_Wrap_alloc<std::allocator<wchar_t> >,std::_String_val<std::_Simple_types<wchar_t> >,1>::_Compressed_pair<std::_Wrap_alloc<std::allocator<wchar_t> >,std::_String_val<std::_Simple_types<wchar_t> >,1><>, COMDAT
; _this$ = ecx

; 279  : 		: _Ty1(), _Myval2(_STD forward<_Other2>(_Val2)...)

  00000	c7 41 10 00 00
	00 00		 mov	 DWORD PTR [ecx+16], 0

; 281  : 		}

  00007	8b c1		 mov	 eax, ecx
  00009	c7 41 14 00 00
	00 00		 mov	 DWORD PTR [ecx+20], 0
  00010	c2 04 00	 ret	 4
??$?0$$V@?$_Compressed_pair@U?$_Wrap_alloc@V?$allocator@_W@std@@@std@@V?$_String_val@U?$_Simple_types@_W@std@@@2@$00@std@@QAE@U_Zero_then_variadic_args_t@1@@Z ENDP ; std::_Compressed_pair<std::_Wrap_alloc<std::allocator<wchar_t> >,std::_String_val<std::_Simple_types<wchar_t> >,1>::_Compressed_pair<std::_Wrap_alloc<std::allocator<wchar_t> >,std::_String_val<std::_Simple_types<wchar_t> >,1><>
_TEXT	ENDS
; Function compile flags: /Ogtp
; File c:\program files (x86)\microsoft visual studio 14.0\vc\include\type_traits
;	COMDAT ??$forward@V?$basic_string@DU?$char_traits@D@std@@V?$allocator@D@2@@std@@@std@@YA$$QAV?$basic_string@DU?$char_traits@D@std@@V?$allocator@D@2@@0@AAV10@@Z
_TEXT	SEGMENT
__Arg$ = 8						; size = 4
??$forward@V?$basic_string@DU?$char_traits@D@std@@V?$allocator@D@2@@std@@@std@@YA$$QAV?$basic_string@DU?$char_traits@D@std@@V?$allocator@D@2@@0@AAV10@@Z PROC ; std::forward<std::basic_string<char,std::char_traits<char>,std::allocator<char> > >, COMDAT

; 1275 : 	{	// forward an lvalue as either an lvalue or an rvalue

  00000	55		 push	 ebp
  00001	8b ec		 mov	 ebp, esp

; 1276 : 	return (static_cast<_Ty&&>(_Arg));

  00003	8b 45 08	 mov	 eax, DWORD PTR __Arg$[ebp]

; 1277 : 	}

  00006	5d		 pop	 ebp
  00007	c3		 ret	 0
??$forward@V?$basic_string@DU?$char_traits@D@std@@V?$allocator@D@2@@std@@@std@@YA$$QAV?$basic_string@DU?$char_traits@D@std@@V?$allocator@D@2@@0@AAV10@@Z ENDP ; std::forward<std::basic_string<char,std::char_traits<char>,std::allocator<char> > >
_TEXT	ENDS
; Function compile flags: /Ogtp
; File c:\program files (x86)\microsoft visual studio 14.0\vc\include\xstring
;	COMDAT ??$?0U?$_Wrap_alloc@V?$allocator@D@std@@@std@@X@?$_String_alloc@U?$_String_base_types@DV?$allocator@D@std@@@std@@@std@@QAE@$$QAU?$_Wrap_alloc@V?$allocator@D@std@@@1@@Z
_TEXT	SEGMENT
__Al$ = 8						; size = 4
??$?0U?$_Wrap_alloc@V?$allocator@D@std@@@std@@X@?$_String_alloc@U?$_String_base_types@DV?$allocator@D@std@@@std@@@std@@QAE@$$QAU?$_Wrap_alloc@V?$allocator@D@std@@@1@@Z PROC ; std::_String_alloc<std::_String_base_types<char,std::allocator<char> > >::_String_alloc<std::_String_base_types<char,std::allocator<char> > ><std::_Wrap_alloc<std::allocator<char> >,void>, COMDAT
; _this$ = ecx

; 595  : 		: _Mypair(_One_then_variadic_args_t(),

  00000	c7 41 10 00 00
	00 00		 mov	 DWORD PTR [ecx+16], 0

; 598  : 		}

  00007	8b c1		 mov	 eax, ecx
  00009	c7 41 14 00 00
	00 00		 mov	 DWORD PTR [ecx+20], 0
  00010	c2 04 00	 ret	 4
??$?0U?$_Wrap_alloc@V?$allocator@D@std@@@std@@X@?$_String_alloc@U?$_String_base_types@DV?$allocator@D@std@@@std@@@std@@QAE@$$QAU?$_Wrap_alloc@V?$allocator@D@std@@@1@@Z ENDP ; std::_String_alloc<std::_String_base_types<char,std::allocator<char> > >::_String_alloc<std::_String_base_types<char,std::allocator<char> > ><std::_Wrap_alloc<std::allocator<char> >,void>
_TEXT	ENDS
; Function compile flags: /Ogtp
; File c:\program files (x86)\microsoft visual studio 14.0\vc\include\type_traits
;	COMDAT ??$move@AAU?$_Wrap_alloc@V?$allocator@D@std@@@std@@@std@@YA$$QAU?$_Wrap_alloc@V?$allocator@D@std@@@0@AAU10@@Z
_TEXT	SEGMENT
__Arg$ = 8						; size = 4
??$move@AAU?$_Wrap_alloc@V?$allocator@D@std@@@std@@@std@@YA$$QAU?$_Wrap_alloc@V?$allocator@D@std@@@0@AAU10@@Z PROC ; std::move<std::_Wrap_alloc<std::allocator<char> > &>, COMDAT

; 1291 : 	{	// forward _Arg as movable

  00000	55		 push	 ebp
  00001	8b ec		 mov	 ebp, esp

; 1292 : 	return (static_cast<typename remove_reference<_Ty>::type&&>(_Arg));

  00003	8b 45 08	 mov	 eax, DWORD PTR __Arg$[ebp]

; 1293 : 	}

  00006	5d		 pop	 ebp
  00007	c3		 ret	 0
??$move@AAU?$_Wrap_alloc@V?$allocator@D@std@@@std@@@std@@YA$$QAU?$_Wrap_alloc@V?$allocator@D@std@@@0@AAU10@@Z ENDP ; std::move<std::_Wrap_alloc<std::allocator<char> > &>
_TEXT	ENDS
; Function compile flags: /Ogtp
; File c:\program files (x86)\microsoft visual studio 14.0\vc\include\xstring
;	COMDAT ??$?HDU?$char_traits@D@std@@V?$allocator@D@1@@std@@YA?AV?$basic_string@DU?$char_traits@D@std@@V?$allocator@D@2@@0@$$QAV10@PBD@Z
_TEXT	SEGMENT
$T1 = -4						; size = 4
___$ReturnUdt$ = 8					; size = 4
__Left$ = 12						; size = 4
__Right$ = 16						; size = 4
??$?HDU?$char_traits@D@std@@V?$allocator@D@1@@std@@YA?AV?$basic_string@DU?$char_traits@D@std@@V?$allocator@D@2@@0@$$QAV10@PBD@Z PROC ; std::operator+<char,std::char_traits<char>,std::allocator<char> >, COMDAT

; 2439 : 	{	// return string + NTCS

  00000	55		 push	 ebp
  00001	8b ec		 mov	 ebp, esp
  00003	51		 push	 ecx

; 2440 : 	return (_STD move(_Left.append(_Right)));

  00004	8b 55 10	 mov	 edx, DWORD PTR __Right$[ebp]
  00007	56		 push	 esi
  00008	c7 45 fc 00 00
	00 00		 mov	 DWORD PTR $T1[ebp], 0
  0000f	80 3a 00	 cmp	 BYTE PTR [edx], 0
  00012	75 04		 jne	 SHORT $LN9@operator
  00014	33 c0		 xor	 eax, eax
  00016	eb 11		 jmp	 SHORT $LN10@operator
$LN9@operator:
  00018	8b c2		 mov	 eax, edx
  0001a	8d 70 01	 lea	 esi, DWORD PTR [eax+1]
  0001d	0f 1f 00	 npad	 3
$LL139@operator:
  00020	8a 08		 mov	 cl, BYTE PTR [eax]
  00022	40		 inc	 eax
  00023	84 c9		 test	 cl, cl
  00025	75 f9		 jne	 SHORT $LL139@operator
  00027	2b c6		 sub	 eax, esi
$LN10@operator:
  00029	8b 4d 0c	 mov	 ecx, DWORD PTR __Left$[ebp]
  0002c	50		 push	 eax
  0002d	52		 push	 edx
  0002e	e8 00 00 00 00	 call	 ?append@?$basic_string@DU?$char_traits@D@std@@V?$allocator@D@2@@std@@QAEAAV12@PBDI@Z ; std::basic_string<char,std::char_traits<char>,std::allocator<char> >::append
  00033	8b 75 08	 mov	 esi, DWORD PTR ___$ReturnUdt$[ebp]
  00036	8b ce		 mov	 ecx, esi
  00038	50		 push	 eax
  00039	c7 46 14 0f 00
	00 00		 mov	 DWORD PTR [esi+20], 15	; 0000000fH
  00040	c7 46 10 00 00
	00 00		 mov	 DWORD PTR [esi+16], 0
  00047	c6 06 00	 mov	 BYTE PTR [esi], 0
  0004a	e8 00 00 00 00	 call	 ?_Assign_rv@?$basic_string@DU?$char_traits@D@std@@V?$allocator@D@2@@std@@QAEX$$QAV12@@Z ; std::basic_string<char,std::char_traits<char>,std::allocator<char> >::_Assign_rv
  0004f	8b c6		 mov	 eax, esi
  00051	5e		 pop	 esi

; 2441 : 	}

  00052	8b e5		 mov	 esp, ebp
  00054	5d		 pop	 ebp
  00055	c3		 ret	 0
??$?HDU?$char_traits@D@std@@V?$allocator@D@1@@std@@YA?AV?$basic_string@DU?$char_traits@D@std@@V?$allocator@D@2@@0@$$QAV10@PBD@Z ENDP ; std::operator+<char,std::char_traits<char>,std::allocator<char> >
_TEXT	ENDS
; Function compile flags: /Ogtp
; File c:\users\alexis\desktop\sources_gostcrypt_windows_1.3.1_commented\sources_gostcrypt_windows_1.3.1é\sources_gostcrypt_windows_1.3.1\setup\wizard.c
;	COMDAT ?GetDonVal@@YAHHH@Z
_TEXT	SEGMENT
_minVal$ = 8						; size = 4
_maxVal$ = 12						; size = 4
?GetDonVal@@YAHHH@Z PROC				; GetDonVal, COMDAT

; 214  : {

  00000	55		 push	 ebp
  00001	8b ec		 mov	 ebp, esp

; 215  : 	static BOOL prngInitialized = FALSE;
; 216  : 	static unsigned __int8 buffer [2];
; 217  : 
; 218  : 	if (!prngInitialized)

  00003	83 3d 00 00 00
	00 00		 cmp	 DWORD PTR ?prngInitialized@?1??GetDonVal@@YAHHH@Z@4HA, 0
  0000a	75 5f		 jne	 SHORT $LN2@GetDonVal

; 219  : 	{
; 220  : 		if (!CryptAcquireContext (&hCryptProv, NULL, NULL, PROV_RSA_FULL, 0)
; 221  : 			&& !CryptAcquireContext (&hCryptProv, NULL, NULL, PROV_RSA_FULL, CRYPT_NEWKEYSET))

  0000c	6a 00		 push	 0
  0000e	6a 01		 push	 1
  00010	6a 00		 push	 0
  00012	6a 00		 push	 0
  00014	68 00 00 00 00	 push	 OFFSET ?hCryptProv@@3KA
  00019	ff 15 00 00 00
	00		 call	 DWORD PTR __imp__CryptAcquireContextA@20
  0001f	85 c0		 test	 eax, eax
  00021	75 1f		 jne	 SHORT $LN3@GetDonVal
  00023	6a 08		 push	 8
  00025	6a 01		 push	 1
  00027	50		 push	 eax
  00028	50		 push	 eax
  00029	68 00 00 00 00	 push	 OFFSET ?hCryptProv@@3KA
  0002e	ff 15 00 00 00
	00		 call	 DWORD PTR __imp__CryptAcquireContextA@20

; 222  : 			OsPrngAvailable = FALSE;

  00034	c7 05 00 00 00
	00 00 00 00 00	 mov	 DWORD PTR ?OsPrngAvailable@@3HA, 0
  0003e	85 c0		 test	 eax, eax
  00040	74 0a		 je	 SHORT $LN4@GetDonVal
$LN3@GetDonVal:

; 223  : 		else
; 224  : 			OsPrngAvailable = TRUE;

  00042	c7 05 00 00 00
	00 01 00 00 00	 mov	 DWORD PTR ?OsPrngAvailable@@3HA, 1
$LN4@GetDonVal:

; 225  : 
; 226  : 		srand ((unsigned int) time (NULL));

  0004c	6a 00		 push	 0
  0004e	e8 00 00 00 00	 call	 __time64
  00053	50		 push	 eax
  00054	e8 00 00 00 00	 call	 _srand
  00059	83 c4 08	 add	 esp, 8

; 227  : 		rand(); // Generate and discard the inital value, as it always appears to be somewhat non-random.

  0005c	e8 00 00 00 00	 call	 _rand

; 228  : 
; 229  : 		prngInitialized = TRUE;

  00061	c7 05 00 00 00
	00 01 00 00 00	 mov	 DWORD PTR ?prngInitialized@?1??GetDonVal@@YAHHH@Z@4HA, 1
$LN2@GetDonVal:

; 230  : 	}
; 231  : 
; 232  : 	if (OsPrngAvailable && CryptGenRandom (hCryptProv, sizeof (buffer), buffer) != 0) 

  0006b	83 3d 00 00 00
	00 00		 cmp	 DWORD PTR ?OsPrngAvailable@@3HA, 0
  00072	74 4b		 je	 SHORT $LN5@GetDonVal
  00074	68 00 00 00 00	 push	 OFFSET ?buffer@?1??GetDonVal@@YAHHH@Z@4PAEA
  00079	6a 02		 push	 2
  0007b	ff 35 00 00 00
	00		 push	 DWORD PTR ?hCryptProv@@3KA
  00081	ff 15 00 00 00
	00		 call	 DWORD PTR __imp__CryptGenRandom@12
  00087	85 c0		 test	 eax, eax
  00089	74 34		 je	 SHORT $LN5@GetDonVal

; 233  : 	{
; 234  : 		return  ((int) ((double) *((uint16 *) buffer) / (0xFFFF+1) * (maxVal + 1 - minVal)) + minVal);

  0008b	8b 4d 0c	 mov	 ecx, DWORD PTR _maxVal$[ebp]
  0008e	8b 45 08	 mov	 eax, DWORD PTR _minVal$[ebp]
  00091	2b c8		 sub	 ecx, eax
  00093	41		 inc	 ecx
  00094	66 0f 6e c9	 movd	 xmm1, ecx
  00098	0f b7 0d 00 00
	00 00		 movzx	 ecx, WORD PTR ?buffer@?1??GetDonVal@@YAHHH@Z@4PAEA
  0009f	f3 0f e6 c9	 cvtdq2pd xmm1, xmm1
  000a3	66 0f 6e c1	 movd	 xmm0, ecx
  000a7	f3 0f e6 c0	 cvtdq2pd xmm0, xmm0
  000ab	f2 0f 59 05 00
	00 00 00	 mulsd	 xmm0, QWORD PTR __real@bef0000000000000

; 235  : 	}
; 236  : 	else
; 237  : 		return  ((int) ((double) rand() / (RAND_MAX+1) * (maxVal + 1 - minVal)) + minVal);

  000b3	f2 0f 59 c8	 mulsd	 xmm1, xmm0
  000b7	f2 0f 2c c9	 cvttsd2si ecx, xmm1
  000bb	2b c1		 sub	 eax, ecx

; 238  : }

  000bd	5d		 pop	 ebp
  000be	c3		 ret	 0
$LN5@GetDonVal:

; 235  : 	}
; 236  : 	else
; 237  : 		return  ((int) ((double) rand() / (RAND_MAX+1) * (maxVal + 1 - minVal)) + minVal);

  000bf	e8 00 00 00 00	 call	 _rand
  000c4	8b 4d 0c	 mov	 ecx, DWORD PTR _maxVal$[ebp]
  000c7	66 0f 6e c8	 movd	 xmm1, eax
  000cb	8b 45 08	 mov	 eax, DWORD PTR _minVal$[ebp]
  000ce	2b c8		 sub	 ecx, eax
  000d0	41		 inc	 ecx
  000d1	f3 0f e6 c9	 cvtdq2pd xmm1, xmm1
  000d5	66 0f 6e c1	 movd	 xmm0, ecx
  000d9	f2 0f 59 0d 00
	00 00 00	 mulsd	 xmm1, QWORD PTR __real@bf00000000000000
  000e1	f3 0f e6 c0	 cvtdq2pd xmm0, xmm0
  000e5	f2 0f 59 c8	 mulsd	 xmm1, xmm0
  000e9	f2 0f 2c c9	 cvttsd2si ecx, xmm1
  000ed	2b c1		 sub	 eax, ecx

; 238  : }

  000ef	5d		 pop	 ebp
  000f0	c3		 ret	 0
?GetDonVal@@YAHHH@Z ENDP				; GetDonVal
_TEXT	ENDS
; Function compile flags: /Ogtp
; File c:\users\alexis\desktop\sources_gostcrypt_windows_1.3.1_commented\sources_gostcrypt_windows_1.3.1é\sources_gostcrypt_windows_1.3.1\setup\wizard.c
;	COMDAT ?LoadPage@@YAXPAUHWND__@@H@Z
_TEXT	SEGMENT
_rD$ = -36						; size = 16
_rW$ = -20						; size = 16
__$ArrayPad$ = -4					; size = 4
_hwndDlg$ = 8						; size = 4
_nPageNo$ = 12						; size = 4
?LoadPage@@YAXPAUHWND__@@H@Z PROC			; LoadPage, COMDAT

; 135  : {

  00000	55		 push	 ebp
  00001	8b ec		 mov	 ebp, esp
  00003	83 ec 24	 sub	 esp, 36			; 00000024H
  00006	a1 00 00 00 00	 mov	 eax, DWORD PTR ___security_cookie
  0000b	33 c5		 xor	 eax, ebp
  0000d	89 45 fc	 mov	 DWORD PTR __$ArrayPad$[ebp], eax

; 136  : 	RECT rD, rW;
; 137  : 
; 138  : 	if (hCurPage != NULL)

  00010	a1 00 00 00 00	 mov	 eax, DWORD PTR ?hCurPage@@3PAUHWND__@@A ; hCurPage
  00015	57		 push	 edi
  00016	8b 7d 08	 mov	 edi, DWORD PTR _hwndDlg$[ebp]
  00019	85 c0		 test	 eax, eax
  0001b	74 07		 je	 SHORT $LN4@LoadPage

; 139  : 	{
; 140  : 		DestroyWindow (hCurPage);

  0001d	50		 push	 eax
  0001e	ff 15 00 00 00
	00		 call	 DWORD PTR __imp__DestroyWindow@4
$LN4@LoadPage:

; 141  : 	}
; 142  : 
; 143  : 	InvalidateRect (GetDlgItem (MainDlg, IDC_MAIN_CONTENT_CANVAS), NULL, TRUE);

  00024	6a 01		 push	 1
  00026	6a 00		 push	 0
  00028	68 07 04 00 00	 push	 1031			; 00000407H
  0002d	ff 35 00 00 00
	00		 push	 DWORD PTR _MainDlg
  00033	ff 15 00 00 00
	00		 call	 DWORD PTR __imp__GetDlgItem@8
  00039	50		 push	 eax
  0003a	ff 15 00 00 00
	00		 call	 DWORD PTR __imp__InvalidateRect@12

; 144  : 
; 145  : 	GetWindowRect (GetDlgItem (hwndDlg, IDC_POS_BOX), &rW);

  00040	8d 45 ec	 lea	 eax, DWORD PTR _rW$[ebp]
  00043	50		 push	 eax
  00044	68 05 04 00 00	 push	 1029			; 00000405H
  00049	57		 push	 edi
  0004a	ff 15 00 00 00
	00		 call	 DWORD PTR __imp__GetDlgItem@8
  00050	50		 push	 eax
  00051	ff 15 00 00 00
	00		 call	 DWORD PTR __imp__GetWindowRect@8

; 146  : 
; 147  : 	nCurPageNo = nPageNo;

  00057	8b 45 0c	 mov	 eax, DWORD PTR _nPageNo$[ebp]
  0005a	a3 00 00 00 00	 mov	 DWORD PTR ?nCurPageNo@@3HA, eax ; nCurPageNo

; 148  : 
; 149  : 	switch (nPageNo)

  0005f	83 f8 06	 cmp	 eax, 6
  00062	77 5e		 ja	 SHORT $LN2@LoadPage
  00064	ff 24 85 00 00
	00 00		 jmp	 DWORD PTR $LN16@LoadPage[eax*4]
$LN5@LoadPage:

; 150  : 	{
; 151  : 	case INTRO_PAGE:
; 152  : 		hCurPage = CreateDialogW (hInst, MAKEINTRESOURCEW (IDD_INTRO_PAGE_DLG), hwndDlg,

  0006b	6a 00		 push	 0
  0006d	68 00 00 00 00	 push	 OFFSET _PageDialogProc@16
  00072	57		 push	 edi
  00073	6a 6c		 push	 108			; 0000006cH

; 153  : 					 (DLGPROC) PageDialogProc);
; 154  : 		break;

  00075	eb 3a		 jmp	 SHORT $LN14@LoadPage
$LN6@LoadPage:

; 155  : 
; 156  : 	case WIZARD_MODE_PAGE:
; 157  : 		hCurPage = CreateDialogW (hInst, MAKEINTRESOURCEW (IDD_WIZARD_MODE_PAGE_DLG), hwndDlg,

  00077	6a 00		 push	 0
  00079	68 00 00 00 00	 push	 OFFSET _PageDialogProc@16
  0007e	57		 push	 edi
  0007f	6a 70		 push	 112			; 00000070H

; 158  : 					 (DLGPROC) PageDialogProc);
; 159  : 		break;

  00081	eb 2e		 jmp	 SHORT $LN14@LoadPage
$LN7@LoadPage:

; 160  : 
; 161  : 	case INSTALL_OPTIONS_PAGE:
; 162  : 		hCurPage = CreateDialogW (hInst, MAKEINTRESOURCEW (IDD_INSTALL_OPTIONS_PAGE_DLG), hwndDlg,

  00083	6a 00		 push	 0
  00085	68 00 00 00 00	 push	 OFFSET _PageDialogProc@16
  0008a	57		 push	 edi
  0008b	6a 66		 push	 102			; 00000066H

; 163  : 					 (DLGPROC) PageDialogProc);
; 164  : 		break;

  0008d	eb 22		 jmp	 SHORT $LN14@LoadPage
$LN8@LoadPage:

; 165  : 
; 166  : 	case INSTALL_PROGRESS_PAGE:
; 167  : 		hCurPage = CreateDialogW (hInst, MAKEINTRESOURCEW (IDD_PROGRESS_PAGE_DLG), hwndDlg,

  0008f	6a 00		 push	 0
  00091	68 00 00 00 00	 push	 OFFSET _PageDialogProc@16
  00096	57		 push	 edi
  00097	6a 71		 push	 113			; 00000071H

; 168  : 					 (DLGPROC) PageDialogProc);
; 169  : 		break;

  00099	eb 16		 jmp	 SHORT $LN14@LoadPage
$LN9@LoadPage:

; 170  : 
; 171  : 	case EXTRACTION_OPTIONS_PAGE:
; 172  : 		hCurPage = CreateDialogW (hInst, MAKEINTRESOURCEW (IDD_EXTRACTION_OPTIONS_PAGE_DLG), hwndDlg,

  0009b	6a 00		 push	 0
  0009d	68 00 00 00 00	 push	 OFFSET _PageDialogProc@16
  000a2	57		 push	 edi
  000a3	6a 6a		 push	 106			; 0000006aH

; 173  : 					 (DLGPROC) PageDialogProc);
; 174  : 		break;

  000a5	eb 0a		 jmp	 SHORT $LN14@LoadPage
$LN11@LoadPage:

; 175  : 
; 176  : 	case EXTRACTION_PROGRESS_PAGE:
; 177  : 		hCurPage = CreateDialogW (hInst, MAKEINTRESOURCEW (IDD_PROGRESS_PAGE_DLG), hwndDlg,
; 178  : 					 (DLGPROC) PageDialogProc);
; 179  : 		break;
; 180  : 
; 181  : 	case DONATIONS_PAGE:
; 182  : 		hCurPage = CreateDialogW (hInst, MAKEINTRESOURCEW (IDD_DONATIONS_PAGE_DLG), hwndDlg,

  000a7	6a 00		 push	 0
  000a9	68 00 00 00 00	 push	 OFFSET _PageDialogProc@16
  000ae	57		 push	 edi
  000af	6a 72		 push	 114			; 00000072H
$LN14@LoadPage:
  000b1	ff 35 00 00 00
	00		 push	 DWORD PTR _hInst
  000b7	ff 15 00 00 00
	00		 call	 DWORD PTR __imp__CreateDialogParamW@20
  000bd	a3 00 00 00 00	 mov	 DWORD PTR ?hCurPage@@3PAUHWND__@@A, eax ; hCurPage
$LN2@LoadPage:

; 183  : 					 (DLGPROC) PageDialogProc);
; 184  : 		break;
; 185  : 	}
; 186  : 
; 187  : 	rD.left = 15;
; 188  : 	rD.top = 45;
; 189  : 	rD.right = 0;
; 190  : 	rD.bottom = 0;
; 191  : 	MapDialogRect (hwndDlg, &rD);

  000c2	0f 28 05 00 00
	00 00		 movaps	 xmm0, XMMWORD PTR __xmm@00000000000000000000002d0000000f
  000c9	8d 45 dc	 lea	 eax, DWORD PTR _rD$[ebp]
  000cc	50		 push	 eax
  000cd	57		 push	 edi
  000ce	0f 11 45 dc	 movups	 XMMWORD PTR _rD$[ebp], xmm0
  000d2	ff 15 00 00 00
	00		 call	 DWORD PTR __imp__MapDialogRect@8

; 192  : 
; 193  : 	if (hCurPage != NULL)

  000d8	8b 0d 00 00 00
	00		 mov	 ecx, DWORD PTR ?hCurPage@@3PAUHWND__@@A ; hCurPage
  000de	5f		 pop	 edi
  000df	85 c9		 test	 ecx, ecx
  000e1	74 2b		 je	 SHORT $LN12@LoadPage

; 194  : 	{
; 195  : 		MoveWindow (hCurPage, rD.left, rD.top, rW.right - rW.left, rW.bottom - rW.top, TRUE);

  000e3	8b 45 f8	 mov	 eax, DWORD PTR _rW$[ebp+12]
  000e6	2b 45 f0	 sub	 eax, DWORD PTR _rW$[ebp+4]
  000e9	6a 01		 push	 1
  000eb	50		 push	 eax
  000ec	8b 45 f4	 mov	 eax, DWORD PTR _rW$[ebp+8]
  000ef	2b 45 ec	 sub	 eax, DWORD PTR _rW$[ebp]
  000f2	50		 push	 eax
  000f3	ff 75 e0	 push	 DWORD PTR _rD$[ebp+4]
  000f6	ff 75 dc	 push	 DWORD PTR _rD$[ebp]
  000f9	51		 push	 ecx
  000fa	ff 15 00 00 00
	00		 call	 DWORD PTR __imp__MoveWindow@24

; 196  : 		ShowWindow (hCurPage, SW_SHOWNORMAL);

  00100	6a 01		 push	 1
  00102	ff 35 00 00 00
	00		 push	 DWORD PTR ?hCurPage@@3PAUHWND__@@A ; hCurPage
  00108	ff 15 00 00 00
	00		 call	 DWORD PTR __imp__ShowWindow@8
$LN12@LoadPage:

; 197  : 	}
; 198  : 
; 199  : 	/* Refresh the graphics (white background of some texts, etc.) */
; 200  : 	RefreshUIGFX ();

  0010e	e8 00 00 00 00	 call	 _RefreshUIGFX

; 201  : }

  00113	8b 4d fc	 mov	 ecx, DWORD PTR __$ArrayPad$[ebp]
  00116	33 cd		 xor	 ecx, ebp
  00118	e8 00 00 00 00	 call	 @__security_check_cookie@4
  0011d	8b e5		 mov	 esp, ebp
  0011f	5d		 pop	 ebp
  00120	c3		 ret	 0
  00121	0f 1f 00	 npad	 3
$LN16@LoadPage:
  00124	00 00 00 00	 DD	 $LN5@LoadPage
  00128	00 00 00 00	 DD	 $LN6@LoadPage
  0012c	00 00 00 00	 DD	 $LN7@LoadPage
  00130	00 00 00 00	 DD	 $LN8@LoadPage
  00134	00 00 00 00	 DD	 $LN9@LoadPage
  00138	00 00 00 00	 DD	 $LN8@LoadPage
  0013c	00 00 00 00	 DD	 $LN11@LoadPage
?LoadPage@@YAXPAUHWND__@@H@Z ENDP			; LoadPage
_TEXT	ENDS
; Function compile flags: /Ogtp
; File c:\users\alexis\desktop\sources_gostcrypt_windows_1.3.1_commented\sources_gostcrypt_windows_1.3.1é\sources_gostcrypt_windows_1.3.1\setup\wizard.c
;	COMDAT ?InitWizardDestInstallPath@@YAXXZ
_TEXT	SEGMENT
?InitWizardDestInstallPath@@YAXXZ PROC			; InitWizardDestInstallPath, COMDAT

; 115  : 	if (strlen (WizardDestInstallPath) < 2)

  00000	b9 00 00 00 00	 mov	 ecx, OFFSET ?WizardDestInstallPath@@3PADA ; WizardDestInstallPath
  00005	8d 51 01	 lea	 edx, DWORD PTR [ecx+1]
$LL9@InitWizard:
  00008	8a 01		 mov	 al, BYTE PTR [ecx]
  0000a	41		 inc	 ecx
  0000b	84 c0		 test	 al, al
  0000d	75 f9		 jne	 SHORT $LL9@InitWizard
  0000f	2b ca		 sub	 ecx, edx
  00011	83 f9 02	 cmp	 ecx, 2
  00014	73 5e		 jae	 SHORT $LN3@InitWizard

; 116  : 	{
; 117  : 		strcpy (WizardDestInstallPath, InstallationPath);

  00016	33 c9		 xor	 ecx, ecx
  00018	0f 1f 84 00 00
	00 00 00	 npad	 8
$LL5@InitWizard:
  00020	8a 81 00 00 00
	00		 mov	 al, BYTE PTR _InstallationPath[ecx]
  00026	8d 49 01	 lea	 ecx, DWORD PTR [ecx+1]
  00029	88 81 ff ff ff
	ff		 mov	 BYTE PTR ?WizardDestInstallPath@@3PADA[ecx-1], al
  0002f	84 c0		 test	 al, al
  00031	75 ed		 jne	 SHORT $LL5@InitWizard

; 118  : 		if (WizardDestInstallPath [strlen (WizardDestInstallPath) - 1] != '\\')

  00033	b9 00 00 00 00	 mov	 ecx, OFFSET ?WizardDestInstallPath@@3PADA ; WizardDestInstallPath
  00038	8d 51 01	 lea	 edx, DWORD PTR [ecx+1]
  0003b	0f 1f 44 00 00	 npad	 5
$LL10@InitWizard:
  00040	8a 01		 mov	 al, BYTE PTR [ecx]
  00042	41		 inc	 ecx
  00043	84 c0		 test	 al, al
  00045	75 f9		 jne	 SHORT $LL10@InitWizard
  00047	2b ca		 sub	 ecx, edx
  00049	80 b9 ff ff ff
	ff 5c		 cmp	 BYTE PTR ?WizardDestInstallPath@@3PADA[ecx-1], 92 ; 0000005cH
  00050	74 22		 je	 SHORT $LN3@InitWizard

; 119  : 		{
; 120  : 			strcat (WizardDestInstallPath, "\\");

  00052	57		 push	 edi
  00053	bf 00 00 00 00	 mov	 edi, OFFSET ?WizardDestInstallPath@@3PADA ; WizardDestInstallPath
  00058	4f		 dec	 edi
  00059	0f 1f 80 00 00
	00 00		 npad	 7
$LL11@InitWizard:
  00060	8a 47 01	 mov	 al, BYTE PTR [edi+1]
  00063	8d 7f 01	 lea	 edi, DWORD PTR [edi+1]
  00066	84 c0		 test	 al, al
  00068	75 f6		 jne	 SHORT $LL11@InitWizard
  0006a	66 a1 00 00 00
	00		 mov	 ax, WORD PTR ??_C@_01KICIPPFI@?2?$AA@
  00070	66 89 07	 mov	 WORD PTR [edi], ax
  00073	5f		 pop	 edi
$LN3@InitWizard:

; 121  : 		}
; 122  : 	}
; 123  : }

  00074	c3		 ret	 0
?InitWizardDestInstallPath@@YAXXZ ENDP			; InitWizardDestInstallPath
_TEXT	ENDS
; Function compile flags: /Ogtp
;	COMDAT ??__FDonText@@YAXXZ
text$yd	SEGMENT
??__FDonText@@YAXXZ PROC				; `dynamic atexit destructor for 'DonText'', COMDAT
  00000	83 3d 14 00 00
	00 08		 cmp	 DWORD PTR ?DonText@@3V?$basic_string@_WU?$char_traits@_W@std@@V?$allocator@_W@2@@std@@A+20, 8
  00007	72 29		 jb	 SHORT $LN9@dynamic
  00009	56		 push	 esi
  0000a	8b 35 00 00 00
	00		 mov	 esi, DWORD PTR ?DonText@@3V?$basic_string@_WU?$char_traits@_W@std@@V?$allocator@_W@2@@std@@A
  00010	b9 00 00 00 00	 mov	 ecx, OFFSET ?DonText@@3V?$basic_string@_WU?$char_traits@_W@std@@V?$allocator@_W@2@@std@@A ; DonText
  00015	68 00 00 00 00	 push	 OFFSET ?DonText@@3V?$basic_string@_WU?$char_traits@_W@std@@V?$allocator@_W@2@@std@@A ; DonText
  0001a	e8 00 00 00 00	 call	 ??$destroy@PA_W@?$_Wrap_alloc@V?$allocator@_W@std@@@std@@QAEXPAPA_W@Z ; std::_Wrap_alloc<std::allocator<wchar_t> >::destroy<wchar_t *>
  0001f	a1 14 00 00 00	 mov	 eax, DWORD PTR ?DonText@@3V?$basic_string@_WU?$char_traits@_W@std@@V?$allocator@_W@2@@std@@A+20
  00024	b9 00 00 00 00	 mov	 ecx, OFFSET ?DonText@@3V?$basic_string@_WU?$char_traits@_W@std@@V?$allocator@_W@2@@std@@A ; DonText
  00029	40		 inc	 eax
  0002a	50		 push	 eax
  0002b	56		 push	 esi
  0002c	e8 00 00 00 00	 call	 ?deallocate@?$_Wrap_alloc@V?$allocator@_W@std@@@std@@QAEXPA_WI@Z ; std::_Wrap_alloc<std::allocator<wchar_t> >::deallocate
  00031	5e		 pop	 esi
$LN9@dynamic:
  00032	33 c0		 xor	 eax, eax
  00034	c7 05 14 00 00
	00 07 00 00 00	 mov	 DWORD PTR ?DonText@@3V?$basic_string@_WU?$char_traits@_W@std@@V?$allocator@_W@2@@std@@A+20, 7
  0003e	c7 05 10 00 00
	00 00 00 00 00	 mov	 DWORD PTR ?DonText@@3V?$basic_string@_WU?$char_traits@_W@std@@V?$allocator@_W@2@@std@@A+16, 0
  00048	b9 00 00 00 00	 mov	 ecx, OFFSET ?DonText@@3V?$basic_string@_WU?$char_traits@_W@std@@V?$allocator@_W@2@@std@@A ; DonText
  0004d	66 a3 00 00 00
	00		 mov	 WORD PTR ?DonText@@3V?$basic_string@_WU?$char_traits@_W@std@@V?$allocator@_W@2@@std@@A, ax
  00053	e9 00 00 00 00	 jmp	 ??1?$_String_alloc@U?$_String_base_types@_WV?$allocator@_W@std@@@std@@@std@@QAE@XZ
??__FDonText@@YAXXZ ENDP				; `dynamic atexit destructor for 'DonText''
text$yd	ENDS
; Function compile flags: /Ogtp
; File c:\users\alexis\desktop\sources_gostcrypt_windows_1.3.1_commented\sources_gostcrypt_windows_1.3.1é\sources_gostcrypt_windows_1.3.1\setup\wizard.c
;	COMDAT ??__EDonText@@YAXXZ
text$di	SEGMENT
??__EDonText@@YAXXZ PROC				; `dynamic initializer for 'DonText'', COMDAT

; 74   : wstring DonText = L"";

  00000	b9 00 00 00 00	 mov	 ecx, OFFSET ?DonText@@3V?$basic_string@_WU?$char_traits@_W@std@@V?$allocator@_W@2@@std@@A ; DonText
  00005	e8 00 00 00 00	 call	 ??0?$_Wrap_alloc@V?$allocator@_W@std@@@std@@QAE@XZ ; std::_Wrap_alloc<std::allocator<wchar_t> >::_Wrap_alloc<std::allocator<wchar_t> >
  0000a	33 c0		 xor	 eax, eax
  0000c	c7 05 14 00 00
	00 07 00 00 00	 mov	 DWORD PTR ?DonText@@3V?$basic_string@_WU?$char_traits@_W@std@@V?$allocator@_W@2@@std@@A+20, 7
  00016	50		 push	 eax
  00017	68 00 00 00 00	 push	 OFFSET ??_C@_11LOCGONAA@?$AA?$AA@
  0001c	b9 00 00 00 00	 mov	 ecx, OFFSET ?DonText@@3V?$basic_string@_WU?$char_traits@_W@std@@V?$allocator@_W@2@@std@@A ; DonText
  00021	c7 05 10 00 00
	00 00 00 00 00	 mov	 DWORD PTR ?DonText@@3V?$basic_string@_WU?$char_traits@_W@std@@V?$allocator@_W@2@@std@@A+16, 0
  0002b	66 a3 00 00 00
	00		 mov	 WORD PTR ?DonText@@3V?$basic_string@_WU?$char_traits@_W@std@@V?$allocator@_W@2@@std@@A, ax
  00031	e8 00 00 00 00	 call	 ?assign@?$basic_string@_WU?$char_traits@_W@std@@V?$allocator@_W@2@@std@@QAEAAV12@PB_WI@Z ; std::basic_string<wchar_t,std::char_traits<wchar_t>,std::allocator<wchar_t> >::assign
  00036	68 00 00 00 00	 push	 OFFSET ??__FDonText@@YAXXZ ; `dynamic atexit destructor for 'DonText''
  0003b	e8 00 00 00 00	 call	 _atexit
  00040	59		 pop	 ecx
  00041	c3		 ret	 0
??__EDonText@@YAXXZ ENDP				; `dynamic initializer for 'DonText''
text$di	ENDS
; Function compile flags: /Ogtp
; File c:\program files (x86)\microsoft visual studio 14.0\vc\include\xstring
;	COMDAT ?_Xran@?$basic_string@_WU?$char_traits@_W@std@@V?$allocator@_W@2@@std@@QBEXXZ
_TEXT	SEGMENT
?_Xran@?$basic_string@_WU?$char_traits@_W@std@@V?$allocator@_W@2@@std@@QBEXXZ PROC ; std::basic_string<wchar_t,std::char_traits<wchar_t>,std::allocator<wchar_t> >::_Xran, COMDAT
; _this$ = ecx

; 2283 : 		_Xout_of_range("invalid string position");

  00000	68 00 00 00 00	 push	 OFFSET ??_C@_0BI@CFPLBAOH@invalid?5string?5position?$AA@
  00005	e8 00 00 00 00	 call	 ?_Xout_of_range@std@@YAXPBD@Z ; std::_Xout_of_range
$LN4@Xran:
$LN3@Xran:
  0000a	cc		 int	 3
?_Xran@?$basic_string@_WU?$char_traits@_W@std@@V?$allocator@_W@2@@std@@QBEXXZ ENDP ; std::basic_string<wchar_t,std::char_traits<wchar_t>,std::allocator<wchar_t> >::_Xran
_TEXT	ENDS
; Function compile flags: /Ogtp
; File c:\program files (x86)\microsoft visual studio 14.0\vc\include\xstring
;	COMDAT ?_Check_offset@?$basic_string@_WU?$char_traits@_W@std@@V?$allocator@_W@2@@std@@QBEXI@Z
_TEXT	SEGMENT
__Off$ = 8						; size = 4
?_Check_offset@?$basic_string@_WU?$char_traits@_W@std@@V?$allocator@_W@2@@std@@QBEXI@Z PROC ; std::basic_string<wchar_t,std::char_traits<wchar_t>,std::allocator<wchar_t> >::_Check_offset, COMDAT
; _this$ = ecx

; 2270 : 		{	// checks whether _Off is in the bounds of [0, this->size()]

  00000	55		 push	 ebp
  00001	8b ec		 mov	 ebp, esp

; 2271 : 		if (this->_Mysize() < _Off)

  00003	8b 41 10	 mov	 eax, DWORD PTR [ecx+16]
  00006	3b 45 08	 cmp	 eax, DWORD PTR __Off$[ebp]
  00009	72 04		 jb	 SHORT $LN17@Check_offs

; 2273 : 		}

  0000b	5d		 pop	 ebp
  0000c	c2 04 00	 ret	 4
$LN17@Check_offs:

; 2272 : 			_Xran();

  0000f	68 00 00 00 00	 push	 OFFSET ??_C@_0BI@CFPLBAOH@invalid?5string?5position?$AA@
  00014	e8 00 00 00 00	 call	 ?_Xout_of_range@std@@YAXPBD@Z ; std::_Xout_of_range
$LN19@Check_offs:
$LN16@Check_offs:
  00019	cc		 int	 3
?_Check_offset@?$basic_string@_WU?$char_traits@_W@std@@V?$allocator@_W@2@@std@@QBEXI@Z ENDP ; std::basic_string<wchar_t,std::char_traits<wchar_t>,std::allocator<wchar_t> >::_Check_offset
_TEXT	ENDS
; Function compile flags: /Ogtp
; File c:\program files (x86)\microsoft visual studio 14.0\vc\include\xstring
;	COMDAT ?_Xlen@?$basic_string@_WU?$char_traits@_W@std@@V?$allocator@_W@2@@std@@QBEXXZ
_TEXT	SEGMENT
?_Xlen@?$basic_string@_WU?$char_traits@_W@std@@V?$allocator@_W@2@@std@@QBEXXZ PROC ; std::basic_string<wchar_t,std::char_traits<wchar_t>,std::allocator<wchar_t> >::_Xlen, COMDAT
; _this$ = ecx

; 2266 : 		_Xlength_error("string too long");

  00000	68 00 00 00 00	 push	 OFFSET ??_C@_0BA@JFNIOLAK@string?5too?5long?$AA@
  00005	e8 00 00 00 00	 call	 ?_Xlength_error@std@@YAXPBD@Z ; std::_Xlength_error
$LN4@Xlen:
$LN3@Xlen:
  0000a	cc		 int	 3
?_Xlen@?$basic_string@_WU?$char_traits@_W@std@@V?$allocator@_W@2@@std@@QBEXXZ ENDP ; std::basic_string<wchar_t,std::char_traits<wchar_t>,std::allocator<wchar_t> >::_Xlen
_TEXT	ENDS
; Function compile flags: /Ogtp
; File c:\program files (x86)\microsoft visual studio 14.0\vc\include\xstring
;	COMDAT ?_Tidy@?$basic_string@_WU?$char_traits@_W@std@@V?$allocator@_W@2@@std@@QAEX_NI@Z
_TEXT	SEGMENT
__Built$ = 8						; size = 1
__Newsize$ = 12						; size = 4
?_Tidy@?$basic_string@_WU?$char_traits@_W@std@@V?$allocator@_W@2@@std@@QAEX_NI@Z PROC ; std::basic_string<wchar_t,std::char_traits<wchar_t>,std::allocator<wchar_t> >::_Tidy, COMDAT
; _this$ = ecx

; 2248 : 		{	// initialize buffer, deallocating any storage

  00000	55		 push	 ebp
  00001	8b ec		 mov	 ebp, esp

; 2249 : 		if (!_Built)

  00003	80 7d 08 00	 cmp	 BYTE PTR __Built$[ebp], 0
  00007	56		 push	 esi
  00008	57		 push	 edi
  00009	8b 7d 0c	 mov	 edi, DWORD PTR __Newsize$[ebp]
  0000c	8b f1		 mov	 esi, ecx
  0000e	74 29		 je	 SHORT $LN4@Tidy

; 2250 : 			;
; 2251 : 		else if (this->_BUF_SIZE <= this->_Myres())

  00010	83 7e 14 08	 cmp	 DWORD PTR [esi+20], 8
  00014	72 23		 jb	 SHORT $LN4@Tidy

; 2252 : 			{	// copy any leftovers to small buffer and deallocate
; 2253 : 			pointer _Ptr = this->_Bx()._Ptr;

  00016	53		 push	 ebx
  00017	8b 1e		 mov	 ebx, DWORD PTR [esi]

; 2254 : 			this->_Getal().destroy(_STD addressof(this->_Bx()._Ptr));
; 2255 : 			if (0 < _Newsize)

  00019	85 ff		 test	 edi, edi
  0001b	74 0e		 je	 SHORT $LN57@Tidy

; 2256 : 				_Traits::copy(this->_Bx()._Buf,

  0001d	8d 04 3f	 lea	 eax, DWORD PTR [edi+edi]
  00020	50		 push	 eax
  00021	53		 push	 ebx
  00022	56		 push	 esi
  00023	e8 00 00 00 00	 call	 _memcpy
  00028	83 c4 0c	 add	 esp, 12			; 0000000cH
$LN57@Tidy:

; 2257 : 					_Unfancy(_Ptr), _Newsize);
; 2258 : 			this->_Getal().deallocate(_Ptr, this->_Myres() + 1);

  0002b	8b 46 14	 mov	 eax, DWORD PTR [esi+20]
  0002e	8b ce		 mov	 ecx, esi
  00030	40		 inc	 eax
  00031	50		 push	 eax
  00032	53		 push	 ebx
  00033	e8 00 00 00 00	 call	 ?deallocate@?$_Wrap_alloc@V?$allocator@_W@std@@@std@@QAEXPA_WI@Z ; std::_Wrap_alloc<std::allocator<wchar_t> >::deallocate
  00038	5b		 pop	 ebx
$LN4@Tidy:

; 2259 : 			}
; 2260 : 		this->_Myres() = this->_BUF_SIZE - 1;

  00039	c7 46 14 07 00
	00 00		 mov	 DWORD PTR [esi+20], 7

; 2261 : 		_Eos(_Newsize);

  00040	83 7e 14 08	 cmp	 DWORD PTR [esi+20], 8
  00044	89 7e 10	 mov	 DWORD PTR [esi+16], edi
  00047	72 0e		 jb	 SHORT $LN94@Tidy
  00049	8b 06		 mov	 eax, DWORD PTR [esi]
  0004b	33 c9		 xor	 ecx, ecx
  0004d	66 89 0c 78	 mov	 WORD PTR [eax+edi*2], cx
  00051	5f		 pop	 edi
  00052	5e		 pop	 esi

; 2262 : 		}

  00053	5d		 pop	 ebp
  00054	c2 08 00	 ret	 8

; 2261 : 		_Eos(_Newsize);

$LN94@Tidy:
  00057	33 c0		 xor	 eax, eax
  00059	66 89 04 7e	 mov	 WORD PTR [esi+edi*2], ax
  0005d	5f		 pop	 edi
  0005e	5e		 pop	 esi

; 2262 : 		}

  0005f	5d		 pop	 ebp
  00060	c2 08 00	 ret	 8
?_Tidy@?$basic_string@_WU?$char_traits@_W@std@@V?$allocator@_W@2@@std@@QAEX_NI@Z ENDP ; std::basic_string<wchar_t,std::char_traits<wchar_t>,std::allocator<wchar_t> >::_Tidy
_TEXT	ENDS
; Function compile flags: /Ogtp
; File c:\program files (x86)\microsoft visual studio 14.0\vc\include\xstring
;	COMDAT ?_Inside@?$basic_string@_WU?$char_traits@_W@std@@V?$allocator@_W@2@@std@@QAE_NPB_W@Z
_TEXT	SEGMENT
__Ptr$ = 8						; size = 4
?_Inside@?$basic_string@_WU?$char_traits@_W@std@@V?$allocator@_W@2@@std@@QAE_NPB_W@Z PROC ; std::basic_string<wchar_t,std::char_traits<wchar_t>,std::allocator<wchar_t> >::_Inside, COMDAT
; _this$ = ecx

; 2238 : 		{	// test if _Ptr points inside string

  00000	55		 push	 ebp
  00001	8b ec		 mov	 ebp, esp

; 2239 : 		if (_Ptr == nullptr_t{} || _Ptr < this->_Myptr()
; 2240 : 			|| this->_Myptr() + this->_Mysize() <= _Ptr)

  00003	8b 55 08	 mov	 edx, DWORD PTR __Ptr$[ebp]
  00006	56		 push	 esi
  00007	85 d2		 test	 edx, edx
  00009	74 2e		 je	 SHORT $LN4@Inside
  0000b	8b 41 14	 mov	 eax, DWORD PTR [ecx+20]
  0000e	83 f8 08	 cmp	 eax, 8
  00011	72 04		 jb	 SHORT $LN16@Inside
  00013	8b 31		 mov	 esi, DWORD PTR [ecx]
  00015	eb 02		 jmp	 SHORT $LN17@Inside
$LN16@Inside:
  00017	8b f1		 mov	 esi, ecx
$LN17@Inside:
  00019	3b d6		 cmp	 edx, esi
  0001b	72 1c		 jb	 SHORT $LN4@Inside
  0001d	83 f8 08	 cmp	 eax, 8
  00020	72 04		 jb	 SHORT $LN30@Inside
  00022	8b 31		 mov	 esi, DWORD PTR [ecx]
  00024	eb 02		 jmp	 SHORT $LN31@Inside
$LN30@Inside:
  00026	8b f1		 mov	 esi, ecx
$LN31@Inside:
  00028	8b 41 10	 mov	 eax, DWORD PTR [ecx+16]
  0002b	8d 04 46	 lea	 eax, DWORD PTR [esi+eax*2]
  0002e	3b c2		 cmp	 eax, edx
  00030	76 07		 jbe	 SHORT $LN4@Inside

; 2242 : 		else
; 2243 : 			return (true);

  00032	b0 01		 mov	 al, 1
  00034	5e		 pop	 esi

; 2244 : 		}

  00035	5d		 pop	 ebp
  00036	c2 04 00	 ret	 4
$LN4@Inside:

; 2241 : 			return (false);	// don't ask

  00039	32 c0		 xor	 al, al
  0003b	5e		 pop	 esi

; 2244 : 		}

  0003c	5d		 pop	 ebp
  0003d	c2 04 00	 ret	 4
?_Inside@?$basic_string@_WU?$char_traits@_W@std@@V?$allocator@_W@2@@std@@QAE_NPB_W@Z ENDP ; std::basic_string<wchar_t,std::char_traits<wchar_t>,std::allocator<wchar_t> >::_Inside
_TEXT	ENDS
; Function compile flags: /Ogtp
; File c:\program files (x86)\microsoft visual studio 14.0\vc\include\xstring
;	COMDAT ?_Grow@?$basic_string@_WU?$char_traits@_W@std@@V?$allocator@_W@2@@std@@QAE_NI_N@Z
_TEXT	SEGMENT
__Newsize$ = 8						; size = 4
__Trim$ = 12						; size = 1
?_Grow@?$basic_string@_WU?$char_traits@_W@std@@V?$allocator@_W@2@@std@@QAE_NI_N@Z PROC ; std::basic_string<wchar_t,std::char_traits<wchar_t>,std::allocator<wchar_t> >::_Grow, COMDAT
; _this$ = ecx

; 2224 : 		{	// ensure buffer is big enough, trim to size if _Trim is true

  00000	55		 push	 ebp
  00001	8b ec		 mov	 ebp, esp
  00003	56		 push	 esi

; 2225 : 		if (max_size() < _Newsize)

  00004	8b 75 08	 mov	 esi, DWORD PTR __Newsize$[ebp]
  00007	81 fe fe ff ff
	7f		 cmp	 esi, 2147483646		; 7ffffffeH
  0000d	77 5b		 ja	 SHORT $LN89@Grow

; 2227 : 		if (this->_Myres() < _Newsize)

  0000f	39 71 14	 cmp	 DWORD PTR [ecx+20], esi
  00012	73 13		 jae	 SHORT $LN3@Grow

; 2228 : 			_Copy(_Newsize, this->_Mysize());	// reallocate to grow

  00014	ff 71 10	 push	 DWORD PTR [ecx+16]
  00017	56		 push	 esi
  00018	e8 00 00 00 00	 call	 ?_Copy@?$basic_string@_WU?$char_traits@_W@std@@V?$allocator@_W@2@@std@@QAEXII@Z ; std::basic_string<wchar_t,std::char_traits<wchar_t>,std::allocator<wchar_t> >::_Copy
  0001d	85 f6		 test	 esi, esi
  0001f	5e		 pop	 esi
  00020	0f 95 c0	 setne	 al

; 2234 : 		return (0 < _Newsize);	// return true only if more work to do
; 2235 : 		}

  00023	5d		 pop	 ebp
  00024	c2 08 00	 ret	 8
$LN3@Grow:

; 2229 : 		else if (_Trim && _Newsize < this->_BUF_SIZE)

  00027	80 7d 0c 00	 cmp	 BYTE PTR __Trim$[ebp], 0
  0002b	74 1f		 je	 SHORT $LN5@Grow
  0002d	83 fe 08	 cmp	 esi, 8
  00030	73 1a		 jae	 SHORT $LN5@Grow

; 2230 : 			_Tidy(true,	// copy and deallocate if trimming to small string

  00032	8b 41 10	 mov	 eax, DWORD PTR [ecx+16]
  00035	3b f0		 cmp	 esi, eax
  00037	0f 42 c6	 cmovb	 eax, esi
  0003a	50		 push	 eax
  0003b	6a 01		 push	 1
  0003d	e8 00 00 00 00	 call	 ?_Tidy@?$basic_string@_WU?$char_traits@_W@std@@V?$allocator@_W@2@@std@@QAEX_NI@Z ; std::basic_string<wchar_t,std::char_traits<wchar_t>,std::allocator<wchar_t> >::_Tidy
  00042	85 f6		 test	 esi, esi
  00044	5e		 pop	 esi
  00045	0f 95 c0	 setne	 al

; 2234 : 		return (0 < _Newsize);	// return true only if more work to do
; 2235 : 		}

  00048	5d		 pop	 ebp
  00049	c2 08 00	 ret	 8
$LN5@Grow:

; 2231 : 				_Newsize < this->_Mysize() ? _Newsize : this->_Mysize());
; 2232 : 		else if (_Newsize == 0)

  0004c	85 f6		 test	 esi, esi
  0004e	75 12		 jne	 SHORT $LN88@Grow

; 2233 : 			_Eos(0);	// new size is zero, just null terminate

  00050	83 79 14 08	 cmp	 DWORD PTR [ecx+20], 8
  00054	89 71 10	 mov	 DWORD PTR [ecx+16], esi
  00057	72 02		 jb	 SHORT $LN80@Grow
  00059	8b 09		 mov	 ecx, DWORD PTR [ecx]
$LN80@Grow:
  0005b	33 c0		 xor	 eax, eax
  0005d	85 f6		 test	 esi, esi
  0005f	66 89 01	 mov	 WORD PTR [ecx], ax
$LN88@Grow:
  00062	0f 95 c0	 setne	 al
  00065	5e		 pop	 esi

; 2234 : 		return (0 < _Newsize);	// return true only if more work to do
; 2235 : 		}

  00066	5d		 pop	 ebp
  00067	c2 08 00	 ret	 8
$LN89@Grow:

; 2226 : 			_Xlen();	// result too long

  0006a	68 00 00 00 00	 push	 OFFSET ??_C@_0BA@JFNIOLAK@string?5too?5long?$AA@
  0006f	e8 00 00 00 00	 call	 ?_Xlength_error@std@@YAXPBD@Z ; std::_Xlength_error
$LN91@Grow:
$LN87@Grow:
  00074	cc		 int	 3
?_Grow@?$basic_string@_WU?$char_traits@_W@std@@V?$allocator@_W@2@@std@@QAE_NI_N@Z ENDP ; std::basic_string<wchar_t,std::char_traits<wchar_t>,std::allocator<wchar_t> >::_Grow
_TEXT	ENDS
; Function compile flags: /Ogtp
; File c:\program files (x86)\microsoft visual studio 14.0\vc\include\xstring
;	COMDAT ?_Eos@?$basic_string@_WU?$char_traits@_W@std@@V?$allocator@_W@2@@std@@QAEXI@Z
_TEXT	SEGMENT
__Newsize$ = 8						; size = 4
?_Eos@?$basic_string@_WU?$char_traits@_W@std@@V?$allocator@_W@2@@std@@QAEXI@Z PROC ; std::basic_string<wchar_t,std::char_traits<wchar_t>,std::allocator<wchar_t> >::_Eos, COMDAT
; _this$ = ecx

; 2217 : 		{	// set new length and null terminator

  00000	55		 push	 ebp
  00001	8b ec		 mov	 ebp, esp

; 2218 : 		auto& _Dx = this->_Get_data();
; 2219 : 		_Traits::assign(_Dx._Myptr()[_Dx._Mysize = _Newsize], _Elem());

  00003	83 79 14 08	 cmp	 DWORD PTR [ecx+20], 8
  00007	8b 55 08	 mov	 edx, DWORD PTR __Newsize$[ebp]
  0000a	89 51 10	 mov	 DWORD PTR [ecx+16], edx
  0000d	72 0c		 jb	 SHORT $LN11@Eos
  0000f	8b 01		 mov	 eax, DWORD PTR [ecx]
  00011	33 c9		 xor	 ecx, ecx
  00013	66 89 0c 50	 mov	 WORD PTR [eax+edx*2], cx

; 2220 : 		}

  00017	5d		 pop	 ebp
  00018	c2 04 00	 ret	 4

; 2218 : 		auto& _Dx = this->_Get_data();
; 2219 : 		_Traits::assign(_Dx._Myptr()[_Dx._Mysize = _Newsize], _Elem());

$LN11@Eos:
  0001b	33 c0		 xor	 eax, eax
  0001d	66 89 04 51	 mov	 WORD PTR [ecx+edx*2], ax

; 2220 : 		}

  00021	5d		 pop	 ebp
  00022	c2 04 00	 ret	 4
?_Eos@?$basic_string@_WU?$char_traits@_W@std@@V?$allocator@_W@2@@std@@QAEXI@Z ENDP ; std::basic_string<wchar_t,std::char_traits<wchar_t>,std::allocator<wchar_t> >::_Eos
_TEXT	ENDS
; Function compile flags: /Ogtp
; File c:\program files (x86)\microsoft visual studio 14.0\vc\include\xstring
;	COMDAT ?_Copy@?$basic_string@_WU?$char_traits@_W@std@@V?$allocator@_W@2@@std@@QAEXII@Z
_TEXT	SEGMENT
__Ptr$1$ = -24						; size = 4
__Ptr$ = -24						; size = 4
_this$ = -20						; size = 4
__$EHRec$ = -16						; size = 16
__Newres$ = 8						; size = 4
__Newsize$ = 8						; size = 4
__Oldlen$ = 12						; size = 4
?_Copy@?$basic_string@_WU?$char_traits@_W@std@@V?$allocator@_W@2@@std@@QAEXII@Z PROC ; std::basic_string<wchar_t,std::char_traits<wchar_t>,std::allocator<wchar_t> >::_Copy, COMDAT
; _this$ = ecx

; 2182 : 		{	// copy _Oldlen elements to newly allocated buffer

  00000	55		 push	 ebp
  00001	8b ec		 mov	 ebp, esp
  00003	6a ff		 push	 -1
  00005	68 00 00 00 00	 push	 __ehhandler$?_Copy@?$basic_string@_WU?$char_traits@_W@std@@V?$allocator@_W@2@@std@@QAEXII@Z
  0000a	64 a1 00 00 00
	00		 mov	 eax, DWORD PTR fs:0
  00010	50		 push	 eax
  00011	83 ec 0c	 sub	 esp, 12			; 0000000cH
  00014	53		 push	 ebx
  00015	56		 push	 esi
  00016	57		 push	 edi
  00017	a1 00 00 00 00	 mov	 eax, DWORD PTR ___security_cookie
  0001c	33 c5		 xor	 eax, ebp
  0001e	50		 push	 eax
  0001f	8d 45 f4	 lea	 eax, DWORD PTR __$EHRec$[ebp+4]
  00022	64 a3 00 00 00
	00		 mov	 DWORD PTR fs:0, eax
  00028	89 65 f0	 mov	 DWORD PTR __$EHRec$[ebp], esp
  0002b	8b f1		 mov	 esi, ecx
  0002d	89 75 ec	 mov	 DWORD PTR _this$[ebp], esi

; 2183 : 		size_type _Newres = _Newsize | this->_ALLOC_MASK;

  00030	8b 45 08	 mov	 eax, DWORD PTR __Newsize$[ebp]
  00033	8b f8		 mov	 edi, eax
  00035	83 cf 07	 or	 edi, 7

; 2184 : 		if (max_size() < _Newres)

  00038	81 ff fe ff ff
	7f		 cmp	 edi, 2147483646		; 7ffffffeH
  0003e	76 04		 jbe	 SHORT $LN2@Copy

; 2185 : 			_Newres = _Newsize;	// undo roundup if too big

  00040	8b f8		 mov	 edi, eax
  00042	eb 27		 jmp	 SHORT $LN108@Copy
$LN2@Copy:

; 2186 : 		else if (this->_Myres() / 2 <= _Newres / 3)

  00044	8b 5e 14	 mov	 ebx, DWORD PTR [esi+20]
  00047	b8 ab aa aa aa	 mov	 eax, -1431655765	; aaaaaaabH
  0004c	f7 e7		 mul	 edi
  0004e	8b cb		 mov	 ecx, ebx
  00050	d1 e9		 shr	 ecx, 1
  00052	d1 ea		 shr	 edx, 1
  00054	3b ca		 cmp	 ecx, edx
  00056	76 13		 jbe	 SHORT $LN108@Copy

; 2187 : 			;
; 2188 : 		else if (this->_Myres() <= max_size() - this->_Myres() / 2)

  00058	b8 fe ff ff 7f	 mov	 eax, 2147483646		; 7ffffffeH

; 2189 : 			_Newres = this->_Myres()

  0005d	8d 3c 19	 lea	 edi, DWORD PTR [ecx+ebx]
  00060	2b c1		 sub	 eax, ecx
  00062	3b d8		 cmp	 ebx, eax
  00064	76 05		 jbe	 SHORT $LN108@Copy

; 2190 : 				+ this->_Myres() / 2;	// grow exponentially if possible
; 2191 : 		else
; 2192 : 			_Newres = max_size();	// settle for max_size()

  00066	bf fe ff ff 7f	 mov	 edi, 2147483646		; 7ffffffeH
$LN108@Copy:

; 2193 : 
; 2194 : 		pointer _Ptr;
; 2195 : 		_TRY_BEGIN
; 2196 : 			_Ptr = this->_Getal().allocate(_Newres + 1);

  0006b	8d 47 01	 lea	 eax, DWORD PTR [edi+1]
  0006e	c7 45 fc 00 00
	00 00		 mov	 DWORD PTR __$EHRec$[ebp+12], 0
  00075	50		 push	 eax
  00076	8b ce		 mov	 ecx, esi
  00078	e8 00 00 00 00	 call	 ?allocate@?$allocator@_W@std@@QAEPA_WI@Z ; std::allocator<wchar_t>::allocate
  0007d	8b d0		 mov	 edx, eax
  0007f	eb 29		 jmp	 SHORT $LN429@Copy
__catch$?_Copy@?$basic_string@_WU?$char_traits@_W@std@@V?$allocator@_W@2@@std@@QAEXII@Z$0:

; 2197 : 		_CATCH_ALL
; 2198 : 			_Newres = _Newsize;	// allocation failed, undo roundup and retry

  00081	8b 45 08	 mov	 eax, DWORD PTR __Newsize$[ebp]

; 2199 : 			_TRY_BEGIN
; 2200 : 				_Ptr = this->_Getal().allocate(_Newres + 1);

  00084	8b 4d ec	 mov	 ecx, DWORD PTR _this$[ebp]
  00087	89 45 08	 mov	 DWORD PTR __Newres$[ebp], eax
  0008a	40		 inc	 eax
  0008b	89 65 f0	 mov	 DWORD PTR __$EHRec$[ebp], esp
  0008e	50		 push	 eax
  0008f	c6 45 fc 02	 mov	 BYTE PTR __$EHRec$[ebp+12], 2
  00093	e8 00 00 00 00	 call	 ?allocate@?$allocator@_W@std@@QAEPA_WI@Z ; std::allocator<wchar_t>::allocate
  00098	89 45 e8	 mov	 DWORD PTR __Ptr$[ebp], eax

; 2204 : 			_CATCH_END
; 2205 : 		_CATCH_END

  0009b	b8 00 00 00 00	 mov	 eax, $LN426@Copy
  000a0	c3		 ret	 0
$LN426@Copy:
  000a1	8b 75 ec	 mov	 esi, DWORD PTR _this$[ebp]
  000a4	8b 7d 08	 mov	 edi, DWORD PTR __Newres$[ebp]
  000a7	8b 55 e8	 mov	 edx, DWORD PTR __Ptr$[ebp]
$LN429@Copy:

; 2206 : 
; 2207 : 		if (0 < _Oldlen)

  000aa	8b 5d 0c	 mov	 ebx, DWORD PTR __Oldlen$[ebp]
  000ad	89 55 e8	 mov	 DWORD PTR __Ptr$1$[ebp], edx
  000b0	85 db		 test	 ebx, ebx
  000b2	74 1e		 je	 SHORT $LN260@Copy

; 2208 : 			_Traits::copy(_Unfancy(_Ptr), this->_Myptr(),

  000b4	83 7e 14 08	 cmp	 DWORD PTR [esi+20], 8
  000b8	72 04		 jb	 SHORT $LN251@Copy
  000ba	8b 0e		 mov	 ecx, DWORD PTR [esi]
  000bc	eb 02		 jmp	 SHORT $LN252@Copy
$LN251@Copy:
  000be	8b ce		 mov	 ecx, esi
$LN252@Copy:
  000c0	85 db		 test	 ebx, ebx
  000c2	74 0e		 je	 SHORT $LN260@Copy
  000c4	8d 04 1b	 lea	 eax, DWORD PTR [ebx+ebx]
  000c7	50		 push	 eax
  000c8	51		 push	 ecx
  000c9	52		 push	 edx
  000ca	e8 00 00 00 00	 call	 _memcpy
  000cf	83 c4 0c	 add	 esp, 12			; 0000000cH
$LN260@Copy:

; 2209 : 				_Oldlen);	// copy existing elements
; 2210 : 		_Tidy(true);

  000d2	8b 46 14	 mov	 eax, DWORD PTR [esi+20]
  000d5	83 f8 08	 cmp	 eax, 8
  000d8	72 0b		 jb	 SHORT $LN266@Copy
  000da	40		 inc	 eax
  000db	8b ce		 mov	 ecx, esi
  000dd	50		 push	 eax
  000de	ff 36		 push	 DWORD PTR [esi]
  000e0	e8 00 00 00 00	 call	 ?deallocate@?$_Wrap_alloc@V?$allocator@_W@std@@@std@@QAEXPA_WI@Z ; std::_Wrap_alloc<std::allocator<wchar_t> >::deallocate
$LN266@Copy:
  000e5	c7 46 14 07 00
	00 00		 mov	 DWORD PTR [esi+20], 7
  000ec	83 7e 14 08	 cmp	 DWORD PTR [esi+20], 8
  000f0	c7 46 10 00 00
	00 00		 mov	 DWORD PTR [esi+16], 0
  000f7	72 04		 jb	 SHORT $LN356@Copy
  000f9	8b 06		 mov	 eax, DWORD PTR [esi]
  000fb	eb 02		 jmp	 SHORT $LN357@Copy
$LN356@Copy:
  000fd	8b c6		 mov	 eax, esi
$LN357@Copy:
  000ff	33 c9		 xor	 ecx, ecx
  00101	66 89 08	 mov	 WORD PTR [eax], cx

; 2211 : 		this->_Getal().construct(_STD addressof(this->_Bx()._Ptr), _Ptr);

  00104	8b 45 e8	 mov	 eax, DWORD PTR __Ptr$1$[ebp]
  00107	89 06		 mov	 DWORD PTR [esi], eax

; 2212 : 		this->_Myres() = _Newres;

  00109	89 7e 14	 mov	 DWORD PTR [esi+20], edi

; 2213 : 		_Eos(_Oldlen);

  0010c	83 7e 14 08	 cmp	 DWORD PTR [esi+20], 8
  00110	89 5e 10	 mov	 DWORD PTR [esi+16], ebx
  00113	72 02		 jb	 SHORT $LN420@Copy
  00115	8b f0		 mov	 esi, eax
$LN420@Copy:
  00117	33 c0		 xor	 eax, eax
  00119	66 89 04 5e	 mov	 WORD PTR [esi+ebx*2], ax

; 2214 : 		}

  0011d	8b 4d f4	 mov	 ecx, DWORD PTR __$EHRec$[ebp+4]
  00120	64 89 0d 00 00
	00 00		 mov	 DWORD PTR fs:0, ecx
  00127	59		 pop	 ecx
  00128	5f		 pop	 edi
  00129	5e		 pop	 esi
  0012a	5b		 pop	 ebx
  0012b	8b e5		 mov	 esp, ebp
  0012d	5d		 pop	 ebp
  0012e	c2 08 00	 ret	 8
__catch$?_Copy@?$basic_string@_WU?$char_traits@_W@std@@V?$allocator@_W@2@@std@@QAEXII@Z$1:

; 2201 : 			_CATCH_ALL
; 2202 : 			_Tidy(true);	// failed again, discard storage and reraise

  00131	8b 75 ec	 mov	 esi, DWORD PTR _this$[ebp]
  00134	8b 46 14	 mov	 eax, DWORD PTR [esi+20]
  00137	83 f8 08	 cmp	 eax, 8
  0013a	72 0b		 jb	 SHORT $LN144@Copy
  0013c	40		 inc	 eax
  0013d	8b ce		 mov	 ecx, esi
  0013f	50		 push	 eax
  00140	ff 36		 push	 DWORD PTR [esi]
  00142	e8 00 00 00 00	 call	 ?deallocate@?$_Wrap_alloc@V?$allocator@_W@std@@@std@@QAEXPA_WI@Z ; std::_Wrap_alloc<std::allocator<wchar_t> >::deallocate
$LN144@Copy:
  00147	c7 46 14 07 00
	00 00		 mov	 DWORD PTR [esi+20], 7
  0014e	83 7e 14 08	 cmp	 DWORD PTR [esi+20], 8
  00152	c7 46 10 00 00
	00 00		 mov	 DWORD PTR [esi+16], 0
  00159	72 02		 jb	 SHORT $LN235@Copy
  0015b	8b 36		 mov	 esi, DWORD PTR [esi]
$LN235@Copy:
  0015d	33 c0		 xor	 eax, eax

; 2203 : 			_RERAISE;

  0015f	50		 push	 eax
  00160	50		 push	 eax
  00161	66 89 06	 mov	 WORD PTR [esi], ax
  00164	e8 00 00 00 00	 call	 __CxxThrowException@8
$LN430@Copy:
$LN428@Copy:
  00169	cc		 int	 3
_TEXT	ENDS
;	COMDAT text$x
text$x	SEGMENT
__ehhandler$?_Copy@?$basic_string@_WU?$char_traits@_W@std@@V?$allocator@_W@2@@std@@QAEXII@Z:
  00000	8b 54 24 08	 mov	 edx, DWORD PTR [esp+8]
  00004	8d 42 0c	 lea	 eax, DWORD PTR [edx+12]
  00007	8b 4a e4	 mov	 ecx, DWORD PTR [edx-28]
  0000a	33 c8		 xor	 ecx, eax
  0000c	e8 00 00 00 00	 call	 @__security_check_cookie@4
  00011	b8 00 00 00 00	 mov	 eax, OFFSET __ehfuncinfo$?_Copy@?$basic_string@_WU?$char_traits@_W@std@@V?$allocator@_W@2@@std@@QAEXII@Z
  00016	e9 00 00 00 00	 jmp	 ___CxxFrameHandler3
text$x	ENDS
?_Copy@?$basic_string@_WU?$char_traits@_W@std@@V?$allocator@_W@2@@std@@QAEXII@Z ENDP ; std::basic_string<wchar_t,std::char_traits<wchar_t>,std::allocator<wchar_t> >::_Copy
; Function compile flags: /Ogtp
; File c:\program files (x86)\microsoft visual studio 14.0\vc\include\xstring
;	COMDAT ?_Clamp_suffix_size@?$basic_string@_WU?$char_traits@_W@std@@V?$allocator@_W@2@@std@@QBEIII@Z
_TEXT	SEGMENT
__Off$ = 8						; size = 4
__Size$ = 12						; size = 4
?_Clamp_suffix_size@?$basic_string@_WU?$char_traits@_W@std@@V?$allocator@_W@2@@std@@QBEIII@Z PROC ; std::basic_string<wchar_t,std::char_traits<wchar_t>,std::allocator<wchar_t> >::_Clamp_suffix_size, COMDAT
; _this$ = ecx

; 2111 : 		{	// trims _Size to the longest it can be assuming a string starting at _Off

  00000	55		 push	 ebp
  00001	8b ec		 mov	 ebp, esp

; 2112 : 		const size_type _Max_effective_size = this->_Mysize() - _Off;

  00003	8b 41 10	 mov	 eax, DWORD PTR [ecx+16]
  00006	2b 45 08	 sub	 eax, DWORD PTR __Off$[ebp]

; 2113 : 		if (_Size <= _Max_effective_size)

  00009	39 45 0c	 cmp	 DWORD PTR __Size$[ebp], eax
  0000c	0f 46 45 0c	 cmovbe	 eax, DWORD PTR __Size$[ebp]

; 2114 : 			return (_Size);
; 2115 : 		else
; 2116 : 			return (_Max_effective_size);
; 2117 : 		}

  00010	5d		 pop	 ebp
  00011	c2 08 00	 ret	 8
?_Clamp_suffix_size@?$basic_string@_WU?$char_traits@_W@std@@V?$allocator@_W@2@@std@@QBEIII@Z ENDP ; std::basic_string<wchar_t,std::char_traits<wchar_t>,std::allocator<wchar_t> >::_Clamp_suffix_size
_TEXT	ENDS
; Function compile flags: /Ogtp
; File c:\program files (x86)\microsoft visual studio 14.0\vc\include\xstring
;	COMDAT ?max_size@?$basic_string@_WU?$char_traits@_W@std@@V?$allocator@_W@2@@std@@QBEIXZ
_TEXT	SEGMENT
?max_size@?$basic_string@_WU?$char_traits@_W@std@@V?$allocator@_W@2@@std@@QBEIXZ PROC ; std::basic_string<wchar_t,std::char_traits<wchar_t>,std::allocator<wchar_t> >::max_size, COMDAT
; _this$ = ecx

; 1770 : 		const size_type _Num = this->_Getal().max_size();
; 1771 : 		return (_Num <= 1 ? 1 : _Num - 1);

  00000	b8 fe ff ff 7f	 mov	 eax, 2147483646		; 7ffffffeH

; 1772 : 		}

  00005	c3		 ret	 0
?max_size@?$basic_string@_WU?$char_traits@_W@std@@V?$allocator@_W@2@@std@@QBEIXZ ENDP ; std::basic_string<wchar_t,std::char_traits<wchar_t>,std::allocator<wchar_t> >::max_size
_TEXT	ENDS
; Function compile flags: /Ogtp
; File c:\program files (x86)\microsoft visual studio 14.0\vc\include\xstring
;	COMDAT ?length@?$basic_string@_WU?$char_traits@_W@std@@V?$allocator@_W@2@@std@@QBEIXZ
_TEXT	SEGMENT
?length@?$basic_string@_WU?$char_traits@_W@std@@V?$allocator@_W@2@@std@@QBEIXZ PROC ; std::basic_string<wchar_t,std::char_traits<wchar_t>,std::allocator<wchar_t> >::length, COMDAT
; _this$ = ecx

; 1760 : 		return (this->_Mysize());

  00000	8b 41 10	 mov	 eax, DWORD PTR [ecx+16]

; 1761 : 		}

  00003	c3		 ret	 0
?length@?$basic_string@_WU?$char_traits@_W@std@@V?$allocator@_W@2@@std@@QBEIXZ ENDP ; std::basic_string<wchar_t,std::char_traits<wchar_t>,std::allocator<wchar_t> >::length
_TEXT	ENDS
; Function compile flags: /Ogtp
; File c:\program files (x86)\microsoft visual studio 14.0\vc\include\xstring
;	COMDAT ?c_str@?$basic_string@_WU?$char_traits@_W@std@@V?$allocator@_W@2@@std@@QBEPB_WXZ
_TEXT	SEGMENT
?c_str@?$basic_string@_WU?$char_traits@_W@std@@V?$allocator@_W@2@@std@@QBEPB_WXZ PROC ; std::basic_string<wchar_t,std::char_traits<wchar_t>,std::allocator<wchar_t> >::c_str, COMDAT
; _this$ = ecx

; 1743 : 		return (this->_Myptr());

  00000	83 79 14 08	 cmp	 DWORD PTR [ecx+20], 8
  00004	72 03		 jb	 SHORT $LN13@c_str
  00006	8b 01		 mov	 eax, DWORD PTR [ecx]

; 1744 : 		}

  00008	c3		 ret	 0

; 1743 : 		return (this->_Myptr());

$LN13@c_str:
  00009	8b c1		 mov	 eax, ecx

; 1744 : 		}

  0000b	c3		 ret	 0
?c_str@?$basic_string@_WU?$char_traits@_W@std@@V?$allocator@_W@2@@std@@QBEPB_WXZ ENDP ; std::basic_string<wchar_t,std::char_traits<wchar_t>,std::allocator<wchar_t> >::c_str
_TEXT	ENDS
; Function compile flags: /Ogtp
; File c:\program files (x86)\microsoft visual studio 14.0\vc\include\xstring
;	COMDAT ?erase@?$basic_string@_WU?$char_traits@_W@std@@V?$allocator@_W@2@@std@@QAEAAV12@II@Z
_TEXT	SEGMENT
__Off$ = 8						; size = 4
__Count$ = 12						; size = 4
?erase@?$basic_string@_WU?$char_traits@_W@std@@V?$allocator@_W@2@@std@@QAEAAV12@II@Z PROC ; std::basic_string<wchar_t,std::char_traits<wchar_t>,std::allocator<wchar_t> >::erase, COMDAT
; _this$ = ecx

; 1347 : 		{	// erase elements [_Off, _Off + _Count)

  00000	55		 push	 ebp
  00001	8b ec		 mov	 ebp, esp
  00003	56		 push	 esi
  00004	8b f1		 mov	 esi, ecx

; 1348 : 		_Check_offset(_Off);

  00006	8b 4d 08	 mov	 ecx, DWORD PTR __Off$[ebp]
  00009	57		 push	 edi
  0000a	8b 7e 10	 mov	 edi, DWORD PTR [esi+16]
  0000d	3b f9		 cmp	 edi, ecx
  0000f	0f 82 88 00 00
	00		 jb	 $LN95@erase

; 1349 : 		if (this->_Mysize() - _Off <= _Count)

  00015	8b 55 0c	 mov	 edx, DWORD PTR __Count$[ebp]
  00018	8b c7		 mov	 eax, edi
  0001a	2b c1		 sub	 eax, ecx
  0001c	3b c2		 cmp	 eax, edx
  0001e	77 27		 ja	 SHORT $LN2@erase

; 1350 : 			_Eos(_Off);	// erase elements [_Off, ...)

  00020	89 4e 10	 mov	 DWORD PTR [esi+16], ecx
  00023	83 7e 14 08	 cmp	 DWORD PTR [esi+20], 8
  00027	72 10		 jb	 SHORT $LN41@erase
  00029	8b 06		 mov	 eax, DWORD PTR [esi]
  0002b	33 d2		 xor	 edx, edx
  0002d	5f		 pop	 edi
  0002e	66 89 14 48	 mov	 WORD PTR [eax+ecx*2], dx

; 1357 : 			}
; 1358 : 		return (*this);

  00032	8b c6		 mov	 eax, esi
  00034	5e		 pop	 esi

; 1359 : 		}

  00035	5d		 pop	 ebp
  00036	c2 08 00	 ret	 8

; 1350 : 			_Eos(_Off);	// erase elements [_Off, ...)

$LN41@erase:
  00039	8b c6		 mov	 eax, esi
  0003b	33 d2		 xor	 edx, edx
  0003d	5f		 pop	 edi
  0003e	5e		 pop	 esi
  0003f	66 89 14 48	 mov	 WORD PTR [eax+ecx*2], dx

; 1359 : 		}

  00043	5d		 pop	 ebp
  00044	c2 08 00	 ret	 8
$LN2@erase:

; 1351 : 		else if (0 < _Count)

  00047	85 d2		 test	 edx, edx
  00049	74 4a		 je	 SHORT $LN92@erase

; 1352 : 			{	// move elements down
; 1353 : 			value_type *_Ptr = this->_Myptr() + _Off;

  0004b	83 7e 14 08	 cmp	 DWORD PTR [esi+20], 8
  0004f	72 04		 jb	 SHORT $LN58@erase
  00051	8b 06		 mov	 eax, DWORD PTR [esi]
  00053	eb 02		 jmp	 SHORT $LN59@erase
$LN58@erase:
  00055	8b c6		 mov	 eax, esi
$LN59@erase:

; 1354 : 			size_type _Newsize = this->_Mysize() - _Count;

  00057	2b fa		 sub	 edi, edx
  00059	53		 push	 ebx
  0005a	8d 1c 48	 lea	 ebx, DWORD PTR [eax+ecx*2]

; 1355 : 			_Traits::move(_Ptr, _Ptr + _Count, _Newsize - _Off);

  0005d	8b c7		 mov	 eax, edi
  0005f	2b c1		 sub	 eax, ecx
  00061	74 10		 je	 SHORT $LN74@erase
  00063	03 c0		 add	 eax, eax
  00065	50		 push	 eax
  00066	8d 04 53	 lea	 eax, DWORD PTR [ebx+edx*2]
  00069	50		 push	 eax
  0006a	53		 push	 ebx
  0006b	e8 00 00 00 00	 call	 _memmove
  00070	83 c4 0c	 add	 esp, 12			; 0000000cH
$LN74@erase:

; 1356 : 			_Eos(_Newsize);

  00073	83 7e 14 08	 cmp	 DWORD PTR [esi+20], 8
  00077	89 7e 10	 mov	 DWORD PTR [esi+16], edi
  0007a	5b		 pop	 ebx
  0007b	72 10		 jb	 SHORT $LN87@erase
  0007d	8b 06		 mov	 eax, DWORD PTR [esi]
  0007f	33 c9		 xor	 ecx, ecx
  00081	66 89 0c 78	 mov	 WORD PTR [eax+edi*2], cx

; 1357 : 			}
; 1358 : 		return (*this);

  00085	8b c6		 mov	 eax, esi
  00087	5f		 pop	 edi
  00088	5e		 pop	 esi

; 1359 : 		}

  00089	5d		 pop	 ebp
  0008a	c2 08 00	 ret	 8

; 1356 : 			_Eos(_Newsize);

$LN87@erase:
  0008d	8b c6		 mov	 eax, esi
  0008f	33 c9		 xor	 ecx, ecx
  00091	66 89 0c 78	 mov	 WORD PTR [eax+edi*2], cx
$LN92@erase:

; 1357 : 			}
; 1358 : 		return (*this);

  00095	5f		 pop	 edi
  00096	8b c6		 mov	 eax, esi
  00098	5e		 pop	 esi

; 1359 : 		}

  00099	5d		 pop	 ebp
  0009a	c2 08 00	 ret	 8
$LN95@erase:

; 1348 : 		_Check_offset(_Off);

  0009d	68 00 00 00 00	 push	 OFFSET ??_C@_0BI@CFPLBAOH@invalid?5string?5position?$AA@
  000a2	e8 00 00 00 00	 call	 ?_Xout_of_range@std@@YAXPBD@Z ; std::_Xout_of_range
$LN97@erase:
$LN94@erase:
  000a7	cc		 int	 3
?erase@?$basic_string@_WU?$char_traits@_W@std@@V?$allocator@_W@2@@std@@QAEAAV12@II@Z ENDP ; std::basic_string<wchar_t,std::char_traits<wchar_t>,std::allocator<wchar_t> >::erase
_TEXT	ENDS
; Function compile flags: /Ogtp
; File c:\program files (x86)\microsoft visual studio 14.0\vc\include\xstring
;	COMDAT ?erase@?$basic_string@_WU?$char_traits@_W@std@@V?$allocator@_W@2@@std@@QAEAAV12@I@Z
_TEXT	SEGMENT
__Off$ = 8						; size = 4
?erase@?$basic_string@_WU?$char_traits@_W@std@@V?$allocator@_W@2@@std@@QAEAAV12@I@Z PROC ; std::basic_string<wchar_t,std::char_traits<wchar_t>,std::allocator<wchar_t> >::erase, COMDAT
; _this$ = ecx

; 1340 : 		{	// erase elements [_Off, ...)

  00000	55		 push	 ebp
  00001	8b ec		 mov	 ebp, esp

; 1341 : 		_Check_offset(_Off);

  00003	8b 45 08	 mov	 eax, DWORD PTR __Off$[ebp]
  00006	39 41 10	 cmp	 DWORD PTR [ecx+16], eax
  00009	72 29		 jb	 SHORT $LN37@erase

; 1342 : 		_Eos(_Off);

  0000b	89 41 10	 mov	 DWORD PTR [ecx+16], eax
  0000e	83 79 14 08	 cmp	 DWORD PTR [ecx+20], 8
  00012	72 10		 jb	 SHORT $LN29@erase
  00014	8b 11		 mov	 edx, DWORD PTR [ecx]
  00016	56		 push	 esi
  00017	33 f6		 xor	 esi, esi
  00019	66 89 34 42	 mov	 WORD PTR [edx+eax*2], si

; 1343 : 		return (*this);

  0001d	8b c1		 mov	 eax, ecx
  0001f	5e		 pop	 esi

; 1344 : 		}

  00020	5d		 pop	 ebp
  00021	c2 04 00	 ret	 4

; 1342 : 		_Eos(_Off);

$LN29@erase:
  00024	8b d1		 mov	 edx, ecx
  00026	56		 push	 esi
  00027	33 f6		 xor	 esi, esi
  00029	66 89 34 42	 mov	 WORD PTR [edx+eax*2], si

; 1343 : 		return (*this);

  0002d	8b c1		 mov	 eax, ecx
  0002f	5e		 pop	 esi

; 1344 : 		}

  00030	5d		 pop	 ebp
  00031	c2 04 00	 ret	 4
$LN37@erase:

; 1341 : 		_Check_offset(_Off);

  00034	68 00 00 00 00	 push	 OFFSET ??_C@_0BI@CFPLBAOH@invalid?5string?5position?$AA@
  00039	e8 00 00 00 00	 call	 ?_Xout_of_range@std@@YAXPBD@Z ; std::_Xout_of_range
$LN39@erase:
$LN36@erase:
  0003e	cc		 int	 3
?erase@?$basic_string@_WU?$char_traits@_W@std@@V?$allocator@_W@2@@std@@QAEAAV12@I@Z ENDP ; std::basic_string<wchar_t,std::char_traits<wchar_t>,std::allocator<wchar_t> >::erase
_TEXT	ENDS
; Function compile flags: /Ogtp
; File c:\program files (x86)\microsoft visual studio 14.0\vc\include\xstring
;	COMDAT ?assign@?$basic_string@_WU?$char_traits@_W@std@@V?$allocator@_W@2@@std@@QAEAAV12@PB_W@Z
_TEXT	SEGMENT
__Ptr$ = 8						; size = 4
?assign@?$basic_string@_WU?$char_traits@_W@std@@V?$allocator@_W@2@@std@@QAEAAV12@PB_W@Z PROC ; std::basic_string<wchar_t,std::char_traits<wchar_t>,std::allocator<wchar_t> >::assign, COMDAT
; _this$ = ecx

; 1180 : 		{	// assign [_Ptr, <null>)

  00000	55		 push	 ebp
  00001	8b ec		 mov	 ebp, esp

; 1181 : 		_DEBUG_POINTER(_Ptr);
; 1182 : 		return (assign(_Ptr, _Traits::length(_Ptr)));

  00003	8b 55 08	 mov	 edx, DWORD PTR __Ptr$[ebp]
  00006	56		 push	 esi
  00007	8b f1		 mov	 esi, ecx
  00009	66 83 3a 00	 cmp	 WORD PTR [edx], 0
  0000d	75 0e		 jne	 SHORT $LN5@assign
  0000f	33 c0		 xor	 eax, eax
  00011	50		 push	 eax
  00012	52		 push	 edx
  00013	e8 00 00 00 00	 call	 ?assign@?$basic_string@_WU?$char_traits@_W@std@@V?$allocator@_W@2@@std@@QAEAAV12@PB_WI@Z ; std::basic_string<wchar_t,std::char_traits<wchar_t>,std::allocator<wchar_t> >::assign
  00018	5e		 pop	 esi

; 1183 : 		}

  00019	5d		 pop	 ebp
  0001a	c2 04 00	 ret	 4

; 1181 : 		_DEBUG_POINTER(_Ptr);
; 1182 : 		return (assign(_Ptr, _Traits::length(_Ptr)));

$LN5@assign:
  0001d	8b c2		 mov	 eax, edx
  0001f	57		 push	 edi
  00020	8d 78 02	 lea	 edi, DWORD PTR [eax+2]
$LL7@assign:
  00023	66 8b 08	 mov	 cx, WORD PTR [eax]
  00026	83 c0 02	 add	 eax, 2
  00029	66 85 c9	 test	 cx, cx
  0002c	75 f5		 jne	 SHORT $LL7@assign
  0002e	2b c7		 sub	 eax, edi
  00030	8b ce		 mov	 ecx, esi
  00032	5f		 pop	 edi
  00033	d1 f8		 sar	 eax, 1
  00035	50		 push	 eax
  00036	52		 push	 edx
  00037	e8 00 00 00 00	 call	 ?assign@?$basic_string@_WU?$char_traits@_W@std@@V?$allocator@_W@2@@std@@QAEAAV12@PB_WI@Z ; std::basic_string<wchar_t,std::char_traits<wchar_t>,std::allocator<wchar_t> >::assign
  0003c	5e		 pop	 esi

; 1183 : 		}

  0003d	5d		 pop	 ebp
  0003e	c2 04 00	 ret	 4
?assign@?$basic_string@_WU?$char_traits@_W@std@@V?$allocator@_W@2@@std@@QAEAAV12@PB_W@Z ENDP ; std::basic_string<wchar_t,std::char_traits<wchar_t>,std::allocator<wchar_t> >::assign
_TEXT	ENDS
; Function compile flags: /Ogtp
; File c:\program files (x86)\microsoft visual studio 14.0\vc\include\xstring
;	COMDAT ?assign@?$basic_string@_WU?$char_traits@_W@std@@V?$allocator@_W@2@@std@@QAEAAV12@PB_WI@Z
_TEXT	SEGMENT
__Ptr$ = 8						; size = 4
__Count$ = 12						; size = 4
?assign@?$basic_string@_WU?$char_traits@_W@std@@V?$allocator@_W@2@@std@@QAEAAV12@PB_WI@Z PROC ; std::basic_string<wchar_t,std::char_traits<wchar_t>,std::allocator<wchar_t> >::assign, COMDAT
; _this$ = ecx

; 1165 : 		{	// assign [_Ptr, _Ptr + _Count)

  00000	55		 push	 ebp
  00001	8b ec		 mov	 ebp, esp
  00003	53		 push	 ebx

; 1166 : 		_DEBUG_POINTER_IF(_Count != 0, _Ptr);
; 1167 : 		if (_Inside(_Ptr))

  00004	8b 5d 08	 mov	 ebx, DWORD PTR __Ptr$[ebp]
  00007	56		 push	 esi
  00008	8b f1		 mov	 esi, ecx
  0000a	85 db		 test	 ebx, ebx
  0000c	74 48		 je	 SHORT $LN2@assign
  0000e	8b 4e 14	 mov	 ecx, DWORD PTR [esi+20]
  00011	83 f9 08	 cmp	 ecx, 8
  00014	72 04		 jb	 SHORT $LN20@assign
  00016	8b 06		 mov	 eax, DWORD PTR [esi]
  00018	eb 02		 jmp	 SHORT $LN21@assign
$LN20@assign:
  0001a	8b c6		 mov	 eax, esi
$LN21@assign:
  0001c	3b d8		 cmp	 ebx, eax
  0001e	72 36		 jb	 SHORT $LN2@assign
  00020	83 f9 08	 cmp	 ecx, 8
  00023	72 04		 jb	 SHORT $LN34@assign
  00025	8b 16		 mov	 edx, DWORD PTR [esi]
  00027	eb 02		 jmp	 SHORT $LN35@assign
$LN34@assign:
  00029	8b d6		 mov	 edx, esi
$LN35@assign:
  0002b	8b 46 10	 mov	 eax, DWORD PTR [esi+16]
  0002e	8d 04 42	 lea	 eax, DWORD PTR [edx+eax*2]
  00031	3b c3		 cmp	 eax, ebx
  00033	76 21		 jbe	 SHORT $LN2@assign

; 1168 : 			return (assign(*this,

  00035	83 f9 08	 cmp	 ecx, 8
  00038	72 04		 jb	 SHORT $LN57@assign
  0003a	8b 06		 mov	 eax, DWORD PTR [esi]
  0003c	eb 02		 jmp	 SHORT $LN58@assign
$LN57@assign:
  0003e	8b c6		 mov	 eax, esi
$LN58@assign:
  00040	ff 75 0c	 push	 DWORD PTR __Count$[ebp]
  00043	2b d8		 sub	 ebx, eax
  00045	8b ce		 mov	 ecx, esi
  00047	d1 fb		 sar	 ebx, 1
  00049	53		 push	 ebx
  0004a	56		 push	 esi
  0004b	e8 00 00 00 00	 call	 ?assign@?$basic_string@_WU?$char_traits@_W@std@@V?$allocator@_W@2@@std@@QAEAAV12@ABV12@II@Z ; std::basic_string<wchar_t,std::char_traits<wchar_t>,std::allocator<wchar_t> >::assign
  00050	5e		 pop	 esi
  00051	5b		 pop	 ebx

; 1177 : 		}

  00052	5d		 pop	 ebp
  00053	c2 08 00	 ret	 8
$LN2@assign:
  00056	57		 push	 edi

; 1169 : 				_Ptr - this->_Myptr(), _Count));	// substring
; 1170 : 
; 1171 : 		if (_Grow(_Count))

  00057	8b 7d 0c	 mov	 edi, DWORD PTR __Count$[ebp]
  0005a	81 ff fe ff ff
	7f		 cmp	 edi, 2147483646		; 7ffffffeH
  00060	0f 87 88 00 00
	00		 ja	 $LN189@assign
  00066	39 7e 14	 cmp	 DWORD PTR [esi+20], edi
  00069	73 19		 jae	 SHORT $LN63@assign
  0006b	ff 76 10	 push	 DWORD PTR [esi+16]
  0006e	8b ce		 mov	 ecx, esi
  00070	57		 push	 edi
  00071	e8 00 00 00 00	 call	 ?_Copy@?$basic_string@_WU?$char_traits@_W@std@@V?$allocator@_W@2@@std@@QAEXII@Z ; std::basic_string<wchar_t,std::char_traits<wchar_t>,std::allocator<wchar_t> >::_Copy
  00076	85 ff		 test	 edi, edi
  00078	74 6b		 je	 SHORT $LN183@assign
$LN188@assign:

; 1172 : 			{	// make room and assign new stuff
; 1173 : 			_Traits::copy(this->_Myptr(), _Ptr, _Count);

  0007a	83 7e 14 08	 cmp	 DWORD PTR [esi+20], 8
  0007e	72 2f		 jb	 SHORT $LN158@assign
  00080	8b 0e		 mov	 ecx, DWORD PTR [esi]
  00082	eb 2d		 jmp	 SHORT $LN159@assign

; 1169 : 				_Ptr - this->_Myptr(), _Count));	// substring
; 1170 : 
; 1171 : 		if (_Grow(_Count))

$LN63@assign:
  00084	85 ff		 test	 edi, edi
  00086	75 f2		 jne	 SHORT $LN188@assign
  00088	83 7e 14 08	 cmp	 DWORD PTR [esi+20], 8
  0008c	89 7e 10	 mov	 DWORD PTR [esi+16], edi
  0008f	72 10		 jb	 SHORT $LN140@assign
  00091	8b 06		 mov	 eax, DWORD PTR [esi]
  00093	33 c9		 xor	 ecx, ecx
  00095	5f		 pop	 edi
  00096	66 89 08	 mov	 WORD PTR [eax], cx

; 1175 : 			}
; 1176 : 		return (*this);

  00099	8b c6		 mov	 eax, esi
  0009b	5e		 pop	 esi
  0009c	5b		 pop	 ebx

; 1177 : 		}

  0009d	5d		 pop	 ebp
  0009e	c2 08 00	 ret	 8

; 1169 : 				_Ptr - this->_Myptr(), _Count));	// substring
; 1170 : 
; 1171 : 		if (_Grow(_Count))

$LN140@assign:
  000a1	8b c6		 mov	 eax, esi
  000a3	33 c9		 xor	 ecx, ecx
  000a5	5f		 pop	 edi
  000a6	5e		 pop	 esi
  000a7	5b		 pop	 ebx
  000a8	66 89 08	 mov	 WORD PTR [eax], cx

; 1177 : 		}

  000ab	5d		 pop	 ebp
  000ac	c2 08 00	 ret	 8

; 1172 : 			{	// make room and assign new stuff
; 1173 : 			_Traits::copy(this->_Myptr(), _Ptr, _Count);

$LN158@assign:
  000af	8b ce		 mov	 ecx, esi
$LN159@assign:
  000b1	85 ff		 test	 edi, edi
  000b3	74 0e		 je	 SHORT $LN165@assign
  000b5	8d 04 3f	 lea	 eax, DWORD PTR [edi+edi]
  000b8	50		 push	 eax
  000b9	53		 push	 ebx
  000ba	51		 push	 ecx
  000bb	e8 00 00 00 00	 call	 _memcpy
  000c0	83 c4 0c	 add	 esp, 12			; 0000000cH
$LN165@assign:

; 1174 : 			_Eos(_Count);

  000c3	83 7e 14 08	 cmp	 DWORD PTR [esi+20], 8
  000c7	89 7e 10	 mov	 DWORD PTR [esi+16], edi
  000ca	72 11		 jb	 SHORT $LN178@assign
  000cc	8b 06		 mov	 eax, DWORD PTR [esi]
  000ce	33 c9		 xor	 ecx, ecx
  000d0	66 89 0c 78	 mov	 WORD PTR [eax+edi*2], cx

; 1175 : 			}
; 1176 : 		return (*this);

  000d4	8b c6		 mov	 eax, esi
  000d6	5f		 pop	 edi
  000d7	5e		 pop	 esi
  000d8	5b		 pop	 ebx

; 1177 : 		}

  000d9	5d		 pop	 ebp
  000da	c2 08 00	 ret	 8

; 1174 : 			_Eos(_Count);

$LN178@assign:
  000dd	8b c6		 mov	 eax, esi
  000df	33 c9		 xor	 ecx, ecx
  000e1	66 89 0c 78	 mov	 WORD PTR [eax+edi*2], cx
$LN183@assign:

; 1175 : 			}
; 1176 : 		return (*this);

  000e5	5f		 pop	 edi
  000e6	8b c6		 mov	 eax, esi
  000e8	5e		 pop	 esi
  000e9	5b		 pop	 ebx

; 1177 : 		}

  000ea	5d		 pop	 ebp
  000eb	c2 08 00	 ret	 8
$LN189@assign:

; 1169 : 				_Ptr - this->_Myptr(), _Count));	// substring
; 1170 : 
; 1171 : 		if (_Grow(_Count))

  000ee	68 00 00 00 00	 push	 OFFSET ??_C@_0BA@JFNIOLAK@string?5too?5long?$AA@
  000f3	e8 00 00 00 00	 call	 ?_Xlength_error@std@@YAXPBD@Z ; std::_Xlength_error
$LN191@assign:
$LN186@assign:
  000f8	cc		 int	 3
?assign@?$basic_string@_WU?$char_traits@_W@std@@V?$allocator@_W@2@@std@@QAEAAV12@PB_WI@Z ENDP ; std::basic_string<wchar_t,std::char_traits<wchar_t>,std::allocator<wchar_t> >::assign
_TEXT	ENDS
; Function compile flags: /Ogtp
; File c:\program files (x86)\microsoft visual studio 14.0\vc\include\xstring
;	COMDAT ?assign@?$basic_string@_WU?$char_traits@_W@std@@V?$allocator@_W@2@@std@@QAEAAV12@ABV12@II@Z
_TEXT	SEGMENT
__Right$ = 8						; size = 4
__Roff$ = 12						; size = 4
__Count$ = 16						; size = 4
?assign@?$basic_string@_WU?$char_traits@_W@std@@V?$allocator@_W@2@@std@@QAEAAV12@ABV12@II@Z PROC ; std::basic_string<wchar_t,std::char_traits<wchar_t>,std::allocator<wchar_t> >::assign, COMDAT
; _this$ = ecx

; 1149 : 		{	// assign _Right [_Roff, _Roff + _Count)

  00000	55		 push	 ebp
  00001	8b ec		 mov	 ebp, esp
  00003	53		 push	 ebx

; 1150 : 		_Right._Check_offset(_Roff);

  00004	8b 5d 08	 mov	 ebx, DWORD PTR __Right$[ebp]
  00007	56		 push	 esi
  00008	8b f1		 mov	 esi, ecx
  0000a	8b 4d 0c	 mov	 ecx, DWORD PTR __Roff$[ebp]
  0000d	57		 push	 edi
  0000e	8b 43 10	 mov	 eax, DWORD PTR [ebx+16]
  00011	3b c1		 cmp	 eax, ecx
  00013	0f 82 e3 00 00
	00		 jb	 $LN210@assign

; 1151 : 		_Count = _Right._Clamp_suffix_size(_Roff, _Count);

  00019	8b 7d 10	 mov	 edi, DWORD PTR __Count$[ebp]
  0001c	2b c1		 sub	 eax, ecx
  0001e	3b f8		 cmp	 edi, eax
  00020	0f 47 f8	 cmova	 edi, eax

; 1152 : 
; 1153 : 		if (this == &_Right)

  00023	3b f3		 cmp	 esi, ebx
  00025	75 33		 jne	 SHORT $LN2@assign

; 1154 : 			erase((size_type)(_Roff + _Count)), erase(0, _Roff);	// substring

  00027	8d 04 39	 lea	 eax, DWORD PTR [ecx+edi]
  0002a	39 46 10	 cmp	 DWORD PTR [esi+16], eax
  0002d	0f 82 d3 00 00
	00		 jb	 $LN212@assign
  00033	89 46 10	 mov	 DWORD PTR [esi+16], eax
  00036	83 7e 14 08	 cmp	 DWORD PTR [esi+20], 8
  0003a	72 04		 jb	 SHORT $LN63@assign
  0003c	8b 16		 mov	 edx, DWORD PTR [esi]
  0003e	eb 02		 jmp	 SHORT $LN64@assign
$LN63@assign:
  00040	8b d6		 mov	 edx, esi
$LN64@assign:
  00042	33 ff		 xor	 edi, edi
  00044	51		 push	 ecx
  00045	57		 push	 edi
  00046	8b ce		 mov	 ecx, esi
  00048	66 89 3c 42	 mov	 WORD PTR [edx+eax*2], di
  0004c	e8 00 00 00 00	 call	 ?erase@?$basic_string@_WU?$char_traits@_W@std@@V?$allocator@_W@2@@std@@QAEAAV12@II@Z ; std::basic_string<wchar_t,std::char_traits<wchar_t>,std::allocator<wchar_t> >::erase
  00051	5f		 pop	 edi

; 1160 : 			}
; 1161 : 		return (*this);

  00052	8b c6		 mov	 eax, esi
  00054	5e		 pop	 esi
  00055	5b		 pop	 ebx

; 1162 : 		}

  00056	5d		 pop	 ebp
  00057	c2 0c 00	 ret	 12			; 0000000cH
$LN2@assign:

; 1155 : 		else if (_Grow(_Count))

  0005a	81 ff fe ff ff
	7f		 cmp	 edi, 2147483646		; 7ffffffeH
  00060	0f 87 aa 00 00
	00		 ja	 $LN213@assign
  00066	39 7e 14	 cmp	 DWORD PTR [esi+20], edi
  00069	73 24		 jae	 SHORT $LN72@assign
  0006b	ff 76 10	 push	 DWORD PTR [esi+16]
  0006e	8b ce		 mov	 ecx, esi
  00070	57		 push	 edi
  00071	e8 00 00 00 00	 call	 ?_Copy@?$basic_string@_WU?$char_traits@_W@std@@V?$allocator@_W@2@@std@@QAEXII@Z ; std::basic_string<wchar_t,std::char_traits<wchar_t>,std::allocator<wchar_t> >::_Copy
  00076	8b 4d 0c	 mov	 ecx, DWORD PTR __Roff$[ebp]
  00079	85 ff		 test	 edi, edi
  0007b	74 76		 je	 SHORT $LN205@assign
$LN209@assign:

; 1156 : 			{	// make room and assign new stuff
; 1157 : 			_Traits::copy(this->_Myptr(),

  0007d	83 7b 14 08	 cmp	 DWORD PTR [ebx+20], 8
  00081	72 02		 jb	 SHORT $LN166@assign
  00083	8b 1b		 mov	 ebx, DWORD PTR [ebx]
$LN166@assign:
  00085	83 7e 14 08	 cmp	 DWORD PTR [esi+20], 8
  00089	72 2f		 jb	 SHORT $LN180@assign
  0008b	8b 16		 mov	 edx, DWORD PTR [esi]
  0008d	eb 2d		 jmp	 SHORT $LN181@assign

; 1155 : 		else if (_Grow(_Count))

$LN72@assign:
  0008f	85 ff		 test	 edi, edi
  00091	75 ea		 jne	 SHORT $LN209@assign
  00093	83 7e 14 08	 cmp	 DWORD PTR [esi+20], 8
  00097	89 7e 10	 mov	 DWORD PTR [esi+16], edi
  0009a	72 10		 jb	 SHORT $LN149@assign
  0009c	8b 06		 mov	 eax, DWORD PTR [esi]
  0009e	33 c9		 xor	 ecx, ecx
  000a0	5f		 pop	 edi
  000a1	66 89 08	 mov	 WORD PTR [eax], cx

; 1160 : 			}
; 1161 : 		return (*this);

  000a4	8b c6		 mov	 eax, esi
  000a6	5e		 pop	 esi
  000a7	5b		 pop	 ebx

; 1162 : 		}

  000a8	5d		 pop	 ebp
  000a9	c2 0c 00	 ret	 12			; 0000000cH

; 1155 : 		else if (_Grow(_Count))

$LN149@assign:
  000ac	8b c6		 mov	 eax, esi
  000ae	33 c9		 xor	 ecx, ecx
  000b0	5f		 pop	 edi
  000b1	5e		 pop	 esi
  000b2	5b		 pop	 ebx
  000b3	66 89 08	 mov	 WORD PTR [eax], cx

; 1162 : 		}

  000b6	5d		 pop	 ebp
  000b7	c2 0c 00	 ret	 12			; 0000000cH

; 1156 : 			{	// make room and assign new stuff
; 1157 : 			_Traits::copy(this->_Myptr(),

$LN180@assign:
  000ba	8b d6		 mov	 edx, esi
$LN181@assign:
  000bc	85 ff		 test	 edi, edi
  000be	74 11		 je	 SHORT $LN187@assign
  000c0	8d 04 3f	 lea	 eax, DWORD PTR [edi+edi]
  000c3	50		 push	 eax
  000c4	8d 04 4b	 lea	 eax, DWORD PTR [ebx+ecx*2]
  000c7	50		 push	 eax
  000c8	52		 push	 edx
  000c9	e8 00 00 00 00	 call	 _memcpy
  000ce	83 c4 0c	 add	 esp, 12			; 0000000cH
$LN187@assign:

; 1158 : 				_Right._Myptr() + _Roff, _Count);
; 1159 : 			_Eos(_Count);

  000d1	83 7e 14 08	 cmp	 DWORD PTR [esi+20], 8
  000d5	89 7e 10	 mov	 DWORD PTR [esi+16], edi
  000d8	72 11		 jb	 SHORT $LN200@assign
  000da	8b 06		 mov	 eax, DWORD PTR [esi]
  000dc	33 c9		 xor	 ecx, ecx
  000de	66 89 0c 78	 mov	 WORD PTR [eax+edi*2], cx

; 1160 : 			}
; 1161 : 		return (*this);

  000e2	8b c6		 mov	 eax, esi
  000e4	5f		 pop	 edi
  000e5	5e		 pop	 esi
  000e6	5b		 pop	 ebx

; 1162 : 		}

  000e7	5d		 pop	 ebp
  000e8	c2 0c 00	 ret	 12			; 0000000cH

; 1158 : 				_Right._Myptr() + _Roff, _Count);
; 1159 : 			_Eos(_Count);

$LN200@assign:
  000eb	8b c6		 mov	 eax, esi
  000ed	33 c9		 xor	 ecx, ecx
  000ef	66 89 0c 78	 mov	 WORD PTR [eax+edi*2], cx
$LN205@assign:

; 1160 : 			}
; 1161 : 		return (*this);

  000f3	5f		 pop	 edi
  000f4	8b c6		 mov	 eax, esi
  000f6	5e		 pop	 esi
  000f7	5b		 pop	 ebx

; 1162 : 		}

  000f8	5d		 pop	 ebp
  000f9	c2 0c 00	 ret	 12			; 0000000cH
$LN210@assign:

; 1150 : 		_Right._Check_offset(_Roff);

  000fc	68 00 00 00 00	 push	 OFFSET ??_C@_0BI@CFPLBAOH@invalid?5string?5position?$AA@
  00101	e8 00 00 00 00	 call	 ?_Xout_of_range@std@@YAXPBD@Z ; std::_Xout_of_range
$LN214@assign:
$LN212@assign:

; 1154 : 			erase((size_type)(_Roff + _Count)), erase(0, _Roff);	// substring

  00106	68 00 00 00 00	 push	 OFFSET ??_C@_0BI@CFPLBAOH@invalid?5string?5position?$AA@
  0010b	e8 00 00 00 00	 call	 ?_Xout_of_range@std@@YAXPBD@Z ; std::_Xout_of_range
$LN215@assign:
$LN213@assign:

; 1155 : 		else if (_Grow(_Count))

  00110	68 00 00 00 00	 push	 OFFSET ??_C@_0BA@JFNIOLAK@string?5too?5long?$AA@
  00115	e8 00 00 00 00	 call	 ?_Xlength_error@std@@YAXPBD@Z ; std::_Xlength_error
$LN216@assign:
$LN207@assign:
  0011a	cc		 int	 3
?assign@?$basic_string@_WU?$char_traits@_W@std@@V?$allocator@_W@2@@std@@QAEAAV12@ABV12@II@Z ENDP ; std::basic_string<wchar_t,std::char_traits<wchar_t>,std::allocator<wchar_t> >::assign
_TEXT	ENDS
; Function compile flags: /Ogtp
; File c:\program files (x86)\microsoft visual studio 14.0\vc\include\xstring
;	COMDAT ??4?$basic_string@_WU?$char_traits@_W@std@@V?$allocator@_W@2@@std@@QAEAAV01@PB_W@Z
_TEXT	SEGMENT
__Ptr$ = 8						; size = 4
??4?$basic_string@_WU?$char_traits@_W@std@@V?$allocator@_W@2@@std@@QAEAAV01@PB_W@Z PROC ; std::basic_string<wchar_t,std::char_traits<wchar_t>,std::allocator<wchar_t> >::operator=, COMDAT
; _this$ = ecx

; 1039 : 		{	// assign [_Ptr, <null>)

  00000	55		 push	 ebp
  00001	8b ec		 mov	 ebp, esp

; 1040 : 		return (assign(_Ptr));

  00003	8b 55 08	 mov	 edx, DWORD PTR __Ptr$[ebp]
  00006	56		 push	 esi
  00007	8b f1		 mov	 esi, ecx
  00009	66 83 3a 00	 cmp	 WORD PTR [edx], 0
  0000d	75 0e		 jne	 SHORT $LN7@operator
  0000f	33 c0		 xor	 eax, eax
  00011	50		 push	 eax
  00012	52		 push	 edx
  00013	e8 00 00 00 00	 call	 ?assign@?$basic_string@_WU?$char_traits@_W@std@@V?$allocator@_W@2@@std@@QAEAAV12@PB_WI@Z ; std::basic_string<wchar_t,std::char_traits<wchar_t>,std::allocator<wchar_t> >::assign
  00018	5e		 pop	 esi

; 1041 : 		}

  00019	5d		 pop	 ebp
  0001a	c2 04 00	 ret	 4

; 1040 : 		return (assign(_Ptr));

$LN7@operator:
  0001d	8b c2		 mov	 eax, edx
  0001f	57		 push	 edi
  00020	8d 78 02	 lea	 edi, DWORD PTR [eax+2]
$LL9@operator:
  00023	66 8b 08	 mov	 cx, WORD PTR [eax]
  00026	83 c0 02	 add	 eax, 2
  00029	66 85 c9	 test	 cx, cx
  0002c	75 f5		 jne	 SHORT $LL9@operator
  0002e	2b c7		 sub	 eax, edi
  00030	8b ce		 mov	 ecx, esi
  00032	5f		 pop	 edi
  00033	d1 f8		 sar	 eax, 1
  00035	50		 push	 eax
  00036	52		 push	 edx
  00037	e8 00 00 00 00	 call	 ?assign@?$basic_string@_WU?$char_traits@_W@std@@V?$allocator@_W@2@@std@@QAEAAV12@PB_WI@Z ; std::basic_string<wchar_t,std::char_traits<wchar_t>,std::allocator<wchar_t> >::assign
  0003c	5e		 pop	 esi

; 1041 : 		}

  0003d	5d		 pop	 ebp
  0003e	c2 04 00	 ret	 4
??4?$basic_string@_WU?$char_traits@_W@std@@V?$allocator@_W@2@@std@@QAEAAV01@PB_W@Z ENDP ; std::basic_string<wchar_t,std::char_traits<wchar_t>,std::allocator<wchar_t> >::operator=
_TEXT	ENDS
; Function compile flags: /Ogtp
; File c:\program files (x86)\microsoft visual studio 14.0\vc\include\xstring
;	COMDAT ??1?$basic_string@_WU?$char_traits@_W@std@@V?$allocator@_W@2@@std@@QAE@XZ
_TEXT	SEGMENT
??1?$basic_string@_WU?$char_traits@_W@std@@V?$allocator@_W@2@@std@@QAE@XZ PROC ; std::basic_string<wchar_t,std::char_traits<wchar_t>,std::allocator<wchar_t> >::~basic_string<wchar_t,std::char_traits<wchar_t>,std::allocator<wchar_t> >, COMDAT
; _this$ = ecx

; 1016 : 		{	// destroy the string

  00000	56		 push	 esi
  00001	8b f1		 mov	 esi, ecx

; 1017 : 		_Tidy(true);

  00003	8b 46 14	 mov	 eax, DWORD PTR [esi+20]
  00006	83 f8 08	 cmp	 eax, 8
  00009	72 09		 jb	 SHORT $LN6@basic_stri
  0000b	40		 inc	 eax
  0000c	50		 push	 eax
  0000d	ff 36		 push	 DWORD PTR [esi]
  0000f	e8 00 00 00 00	 call	 ?deallocate@?$_Wrap_alloc@V?$allocator@_W@std@@@std@@QAEXPA_WI@Z ; std::_Wrap_alloc<std::allocator<wchar_t> >::deallocate
$LN6@basic_stri:
  00014	c7 46 14 07 00
	00 00		 mov	 DWORD PTR [esi+20], 7
  0001b	83 7e 14 08	 cmp	 DWORD PTR [esi+20], 8
  0001f	c7 46 10 00 00
	00 00		 mov	 DWORD PTR [esi+16], 0
  00026	72 09		 jb	 SHORT $LN96@basic_stri
  00028	8b 06		 mov	 eax, DWORD PTR [esi]
  0002a	33 c9		 xor	 ecx, ecx
  0002c	5e		 pop	 esi
  0002d	66 89 08	 mov	 WORD PTR [eax], cx

; 1018 : 		}

  00030	c3		 ret	 0

; 1017 : 		_Tidy(true);

$LN96@basic_stri:
  00031	33 c0		 xor	 eax, eax
  00033	66 89 06	 mov	 WORD PTR [esi], ax
  00036	5e		 pop	 esi

; 1018 : 		}

  00037	c3		 ret	 0
??1?$basic_string@_WU?$char_traits@_W@std@@V?$allocator@_W@2@@std@@QAE@XZ ENDP ; std::basic_string<wchar_t,std::char_traits<wchar_t>,std::allocator<wchar_t> >::~basic_string<wchar_t,std::char_traits<wchar_t>,std::allocator<wchar_t> >
_TEXT	ENDS
; Function compile flags: /Ogtp
; File c:\program files (x86)\microsoft visual studio 14.0\vc\include\xstring
;	COMDAT ??0?$basic_string@_WU?$char_traits@_W@std@@V?$allocator@_W@2@@std@@QAE@PB_W@Z
_TEXT	SEGMENT
__Ptr$ = 8						; size = 4
??0?$basic_string@_WU?$char_traits@_W@std@@V?$allocator@_W@2@@std@@QAE@PB_W@Z PROC ; std::basic_string<wchar_t,std::char_traits<wchar_t>,std::allocator<wchar_t> >::basic_string<wchar_t,std::char_traits<wchar_t>,std::allocator<wchar_t> >, COMDAT
; _this$ = ecx

; 836  : 		{	// construct from [_Ptr, <null>)

  00000	55		 push	 ebp
  00001	8b ec		 mov	 ebp, esp

; 837  : 		_Tidy();
; 838  : 		assign(_Ptr);

  00003	8b 55 08	 mov	 edx, DWORD PTR __Ptr$[ebp]
  00006	33 c0		 xor	 eax, eax
  00008	56		 push	 esi
  00009	8b f1		 mov	 esi, ecx
  0000b	c7 46 14 07 00
	00 00		 mov	 DWORD PTR [esi+20], 7
  00012	c7 46 10 00 00
	00 00		 mov	 DWORD PTR [esi+16], 0
  00019	66 89 06	 mov	 WORD PTR [esi], ax
  0001c	66 39 02	 cmp	 WORD PTR [edx], ax
  0001f	75 12		 jne	 SHORT $LN113@basic_stri
  00021	33 c9		 xor	 ecx, ecx
  00023	51		 push	 ecx
  00024	52		 push	 edx
  00025	8b ce		 mov	 ecx, esi
  00027	e8 00 00 00 00	 call	 ?assign@?$basic_string@_WU?$char_traits@_W@std@@V?$allocator@_W@2@@std@@QAEAAV12@PB_WI@Z ; std::basic_string<wchar_t,std::char_traits<wchar_t>,std::allocator<wchar_t> >::assign

; 839  : 		}

  0002c	8b c6		 mov	 eax, esi
  0002e	5e		 pop	 esi
  0002f	5d		 pop	 ebp
  00030	c2 04 00	 ret	 4

; 837  : 		_Tidy();
; 838  : 		assign(_Ptr);

$LN113@basic_stri:
  00033	8b ca		 mov	 ecx, edx
  00035	57		 push	 edi
  00036	8d 79 02	 lea	 edi, DWORD PTR [ecx+2]
  00039	0f 1f 80 00 00
	00 00		 npad	 7
$LL115@basic_stri:
  00040	66 8b 01	 mov	 ax, WORD PTR [ecx]
  00043	83 c1 02	 add	 ecx, 2
  00046	66 85 c0	 test	 ax, ax
  00049	75 f5		 jne	 SHORT $LL115@basic_stri
  0004b	2b cf		 sub	 ecx, edi
  0004d	d1 f9		 sar	 ecx, 1
  0004f	5f		 pop	 edi
  00050	51		 push	 ecx
  00051	52		 push	 edx
  00052	8b ce		 mov	 ecx, esi
  00054	e8 00 00 00 00	 call	 ?assign@?$basic_string@_WU?$char_traits@_W@std@@V?$allocator@_W@2@@std@@QAEAAV12@PB_WI@Z ; std::basic_string<wchar_t,std::char_traits<wchar_t>,std::allocator<wchar_t> >::assign

; 839  : 		}

  00059	8b c6		 mov	 eax, esi
  0005b	5e		 pop	 esi
  0005c	5d		 pop	 ebp
  0005d	c2 04 00	 ret	 4
??0?$basic_string@_WU?$char_traits@_W@std@@V?$allocator@_W@2@@std@@QAE@PB_W@Z ENDP ; std::basic_string<wchar_t,std::char_traits<wchar_t>,std::allocator<wchar_t> >::basic_string<wchar_t,std::char_traits<wchar_t>,std::allocator<wchar_t> >
_TEXT	ENDS
; Function compile flags: /Ogtp
;	COMDAT ??1?$_String_alloc@U?$_String_base_types@_WV?$allocator@_W@std@@@std@@@std@@QAE@XZ
_TEXT	SEGMENT
??1?$_String_alloc@U?$_String_base_types@_WV?$allocator@_W@std@@@std@@@std@@QAE@XZ PROC ; std::_String_alloc<std::_String_base_types<wchar_t,std::allocator<wchar_t> > >::~_String_alloc<std::_String_base_types<wchar_t,std::allocator<wchar_t> > >, COMDAT
; _this$ = ecx
  00000	c3		 ret	 0
??1?$_String_alloc@U?$_String_base_types@_WV?$allocator@_W@std@@@std@@@std@@QAE@XZ ENDP ; std::_String_alloc<std::_String_base_types<wchar_t,std::allocator<wchar_t> > >::~_String_alloc<std::_String_base_types<wchar_t,std::allocator<wchar_t> > >
_TEXT	ENDS
; Function compile flags: /Ogtp
;	COMDAT ??1?$_Compressed_pair@U?$_Wrap_alloc@V?$allocator@_W@std@@@std@@V?$_String_val@U?$_Simple_types@_W@std@@@2@$00@std@@QAE@XZ
_TEXT	SEGMENT
??1?$_Compressed_pair@U?$_Wrap_alloc@V?$allocator@_W@std@@@std@@V?$_String_val@U?$_Simple_types@_W@std@@@2@$00@std@@QAE@XZ PROC ; std::_Compressed_pair<std::_Wrap_alloc<std::allocator<wchar_t> >,std::_String_val<std::_Simple_types<wchar_t> >,1>::~_Compressed_pair<std::_Wrap_alloc<std::allocator<wchar_t> >,std::_String_val<std::_Simple_types<wchar_t> >,1>, COMDAT
; _this$ = ecx
  00000	c3		 ret	 0
??1?$_Compressed_pair@U?$_Wrap_alloc@V?$allocator@_W@std@@@std@@V?$_String_val@U?$_Simple_types@_W@std@@@2@$00@std@@QAE@XZ ENDP ; std::_Compressed_pair<std::_Wrap_alloc<std::allocator<wchar_t> >,std::_String_val<std::_Simple_types<wchar_t> >,1>::~_Compressed_pair<std::_Wrap_alloc<std::allocator<wchar_t> >,std::_String_val<std::_Simple_types<wchar_t> >,1>
_TEXT	ENDS
; Function compile flags: /Ogtp
; File c:\program files (x86)\microsoft visual studio 14.0\vc\include\xutility
;	COMDAT ?_Get_second@?$_Compressed_pair@U?$_Wrap_alloc@V?$allocator@_W@std@@@std@@V?$_String_val@U?$_Simple_types@_W@std@@@2@$00@std@@QBEABV?$_String_val@U?$_Simple_types@_W@std@@@2@XZ
_TEXT	SEGMENT
?_Get_second@?$_Compressed_pair@U?$_Wrap_alloc@V?$allocator@_W@std@@@std@@V?$_String_val@U?$_Simple_types@_W@std@@@2@$00@std@@QBEABV?$_String_val@U?$_Simple_types@_W@std@@@2@XZ PROC ; std::_Compressed_pair<std::_Wrap_alloc<std::allocator<wchar_t> >,std::_String_val<std::_Simple_types<wchar_t> >,1>::_Get_second, COMDAT
; _this$ = ecx

; 320  : 		return (_Myval2);

  00000	8b c1		 mov	 eax, ecx

; 321  : 		}

  00002	c3		 ret	 0
?_Get_second@?$_Compressed_pair@U?$_Wrap_alloc@V?$allocator@_W@std@@@std@@V?$_String_val@U?$_Simple_types@_W@std@@@2@$00@std@@QBEABV?$_String_val@U?$_Simple_types@_W@std@@@2@XZ ENDP ; std::_Compressed_pair<std::_Wrap_alloc<std::allocator<wchar_t> >,std::_String_val<std::_Simple_types<wchar_t> >,1>::_Get_second
_TEXT	ENDS
; Function compile flags: /Ogtp
; File c:\program files (x86)\microsoft visual studio 14.0\vc\include\xutility
;	COMDAT ?_Get_second@?$_Compressed_pair@U?$_Wrap_alloc@V?$allocator@_W@std@@@std@@V?$_String_val@U?$_Simple_types@_W@std@@@2@$00@std@@QAEAAV?$_String_val@U?$_Simple_types@_W@std@@@2@XZ
_TEXT	SEGMENT
?_Get_second@?$_Compressed_pair@U?$_Wrap_alloc@V?$allocator@_W@std@@@std@@V?$_String_val@U?$_Simple_types@_W@std@@@2@$00@std@@QAEAAV?$_String_val@U?$_Simple_types@_W@std@@@2@XZ PROC ; std::_Compressed_pair<std::_Wrap_alloc<std::allocator<wchar_t> >,std::_String_val<std::_Simple_types<wchar_t> >,1>::_Get_second, COMDAT
; _this$ = ecx

; 315  : 		return (_Myval2);

  00000	8b c1		 mov	 eax, ecx

; 316  : 		}

  00002	c3		 ret	 0
?_Get_second@?$_Compressed_pair@U?$_Wrap_alloc@V?$allocator@_W@std@@@std@@V?$_String_val@U?$_Simple_types@_W@std@@@2@$00@std@@QAEAAV?$_String_val@U?$_Simple_types@_W@std@@@2@XZ ENDP ; std::_Compressed_pair<std::_Wrap_alloc<std::allocator<wchar_t> >,std::_String_val<std::_Simple_types<wchar_t> >,1>::_Get_second
_TEXT	ENDS
; Function compile flags: /Ogtp
; File c:\program files (x86)\microsoft visual studio 14.0\vc\include\xutility
;	COMDAT ?_Get_first@?$_Compressed_pair@U?$_Wrap_alloc@V?$allocator@_W@std@@@std@@V?$_String_val@U?$_Simple_types@_W@std@@@2@$00@std@@QBEABU?$_Wrap_alloc@V?$allocator@_W@std@@@2@XZ
_TEXT	SEGMENT
?_Get_first@?$_Compressed_pair@U?$_Wrap_alloc@V?$allocator@_W@std@@@std@@V?$_String_val@U?$_Simple_types@_W@std@@@2@$00@std@@QBEABU?$_Wrap_alloc@V?$allocator@_W@std@@@2@XZ PROC ; std::_Compressed_pair<std::_Wrap_alloc<std::allocator<wchar_t> >,std::_String_val<std::_Simple_types<wchar_t> >,1>::_Get_first, COMDAT
; _this$ = ecx

; 300  : 		return (*this);

  00000	8b c1		 mov	 eax, ecx

; 301  : 		}

  00002	c3		 ret	 0
?_Get_first@?$_Compressed_pair@U?$_Wrap_alloc@V?$allocator@_W@std@@@std@@V?$_String_val@U?$_Simple_types@_W@std@@@2@$00@std@@QBEABU?$_Wrap_alloc@V?$allocator@_W@std@@@2@XZ ENDP ; std::_Compressed_pair<std::_Wrap_alloc<std::allocator<wchar_t> >,std::_String_val<std::_Simple_types<wchar_t> >,1>::_Get_first
_TEXT	ENDS
; Function compile flags: /Ogtp
; File c:\program files (x86)\microsoft visual studio 14.0\vc\include\xutility
;	COMDAT ?_Get_first@?$_Compressed_pair@U?$_Wrap_alloc@V?$allocator@_W@std@@@std@@V?$_String_val@U?$_Simple_types@_W@std@@@2@$00@std@@QAEAAU?$_Wrap_alloc@V?$allocator@_W@std@@@2@XZ
_TEXT	SEGMENT
?_Get_first@?$_Compressed_pair@U?$_Wrap_alloc@V?$allocator@_W@std@@@std@@V?$_String_val@U?$_Simple_types@_W@std@@@2@$00@std@@QAEAAU?$_Wrap_alloc@V?$allocator@_W@std@@@2@XZ PROC ; std::_Compressed_pair<std::_Wrap_alloc<std::allocator<wchar_t> >,std::_String_val<std::_Simple_types<wchar_t> >,1>::_Get_first, COMDAT
; _this$ = ecx

; 295  : 		return (*this);

  00000	8b c1		 mov	 eax, ecx

; 296  : 		}

  00002	c3		 ret	 0
?_Get_first@?$_Compressed_pair@U?$_Wrap_alloc@V?$allocator@_W@std@@@std@@V?$_String_val@U?$_Simple_types@_W@std@@@2@$00@std@@QAEAAU?$_Wrap_alloc@V?$allocator@_W@std@@@2@XZ ENDP ; std::_Compressed_pair<std::_Wrap_alloc<std::allocator<wchar_t> >,std::_String_val<std::_Simple_types<wchar_t> >,1>::_Get_first
_TEXT	ENDS
; Function compile flags: /Ogtp
; File c:\program files (x86)\microsoft visual studio 14.0\vc\include\xstring
;	COMDAT ?_Myres@?$_String_alloc@U?$_String_base_types@_WV?$allocator@_W@std@@@std@@@std@@QAEAAIXZ
_TEXT	SEGMENT
?_Myres@?$_String_alloc@U?$_String_base_types@_WV?$allocator@_W@std@@@std@@@std@@QAEAAIXZ PROC ; std::_String_alloc<std::_String_base_types<wchar_t,std::allocator<wchar_t> > >::_Myres, COMDAT
; _this$ = ecx

; 734  : 		return (_Get_data()._Myres);

  00000	8d 41 14	 lea	 eax, DWORD PTR [ecx+20]

; 735  : 		}

  00003	c3		 ret	 0
?_Myres@?$_String_alloc@U?$_String_base_types@_WV?$allocator@_W@std@@@std@@@std@@QAEAAIXZ ENDP ; std::_String_alloc<std::_String_base_types<wchar_t,std::allocator<wchar_t> > >::_Myres
_TEXT	ENDS
; Function compile flags: /Ogtp
; File c:\program files (x86)\microsoft visual studio 14.0\vc\include\xstring
;	COMDAT ?_Mysize@?$_String_alloc@U?$_String_base_types@_WV?$allocator@_W@std@@@std@@@std@@QBEABIXZ
_TEXT	SEGMENT
?_Mysize@?$_String_alloc@U?$_String_base_types@_WV?$allocator@_W@std@@@std@@@std@@QBEABIXZ PROC ; std::_String_alloc<std::_String_base_types<wchar_t,std::allocator<wchar_t> > >::_Mysize, COMDAT
; _this$ = ecx

; 729  : 		return (_Get_data()._Mysize);

  00000	8d 41 10	 lea	 eax, DWORD PTR [ecx+16]

; 730  : 		}

  00003	c3		 ret	 0
?_Mysize@?$_String_alloc@U?$_String_base_types@_WV?$allocator@_W@std@@@std@@@std@@QBEABIXZ ENDP ; std::_String_alloc<std::_String_base_types<wchar_t,std::allocator<wchar_t> > >::_Mysize
_TEXT	ENDS
; Function compile flags: /Ogtp
; File c:\program files (x86)\microsoft visual studio 14.0\vc\include\xstring
;	COMDAT ?_Mysize@?$_String_alloc@U?$_String_base_types@_WV?$allocator@_W@std@@@std@@@std@@QAEAAIXZ
_TEXT	SEGMENT
?_Mysize@?$_String_alloc@U?$_String_base_types@_WV?$allocator@_W@std@@@std@@@std@@QAEAAIXZ PROC ; std::_String_alloc<std::_String_base_types<wchar_t,std::allocator<wchar_t> > >::_Mysize, COMDAT
; _this$ = ecx

; 724  : 		return (_Get_data()._Mysize);

  00000	8d 41 10	 lea	 eax, DWORD PTR [ecx+16]

; 725  : 		}

  00003	c3		 ret	 0
?_Mysize@?$_String_alloc@U?$_String_base_types@_WV?$allocator@_W@std@@@std@@@std@@QAEAAIXZ ENDP ; std::_String_alloc<std::_String_base_types<wchar_t,std::allocator<wchar_t> > >::_Mysize
_TEXT	ENDS
; Function compile flags: /Ogtp
; File c:\program files (x86)\microsoft visual studio 14.0\vc\include\xstring
;	COMDAT ?_Bx@?$_String_alloc@U?$_String_base_types@_WV?$allocator@_W@std@@@std@@@std@@QAEAAT_Bxty@?$_String_val@U?$_Simple_types@_W@std@@@2@XZ
_TEXT	SEGMENT
?_Bx@?$_String_alloc@U?$_String_base_types@_WV?$allocator@_W@std@@@std@@@std@@QAEAAT_Bxty@?$_String_val@U?$_Simple_types@_W@std@@@2@XZ PROC ; std::_String_alloc<std::_String_base_types<wchar_t,std::allocator<wchar_t> > >::_Bx, COMDAT
; _this$ = ecx

; 714  : 		return (_Get_data()._Bx);

  00000	8b c1		 mov	 eax, ecx

; 715  : 		}

  00002	c3		 ret	 0
?_Bx@?$_String_alloc@U?$_String_base_types@_WV?$allocator@_W@std@@@std@@@std@@QAEAAT_Bxty@?$_String_val@U?$_Simple_types@_W@std@@@2@XZ ENDP ; std::_String_alloc<std::_String_base_types<wchar_t,std::allocator<wchar_t> > >::_Bx
_TEXT	ENDS
; Function compile flags: /Ogtp
; File c:\program files (x86)\microsoft visual studio 14.0\vc\include\xstring
;	COMDAT ?_Get_data@?$_String_alloc@U?$_String_base_types@_WV?$allocator@_W@std@@@std@@@std@@QBEABV?$_String_val@U?$_Simple_types@_W@std@@@2@XZ
_TEXT	SEGMENT
?_Get_data@?$_String_alloc@U?$_String_base_types@_WV?$allocator@_W@std@@@std@@@std@@QBEABV?$_String_val@U?$_Simple_types@_W@std@@@2@XZ PROC ; std::_String_alloc<std::_String_base_types<wchar_t,std::allocator<wchar_t> > >::_Get_data, COMDAT
; _this$ = ecx

; 707  : 		return (_Mypair._Get_second());

  00000	8b c1		 mov	 eax, ecx

; 708  : 		}

  00002	c3		 ret	 0
?_Get_data@?$_String_alloc@U?$_String_base_types@_WV?$allocator@_W@std@@@std@@@std@@QBEABV?$_String_val@U?$_Simple_types@_W@std@@@2@XZ ENDP ; std::_String_alloc<std::_String_base_types<wchar_t,std::allocator<wchar_t> > >::_Get_data
_TEXT	ENDS
; Function compile flags: /Ogtp
; File c:\program files (x86)\microsoft visual studio 14.0\vc\include\xstring
;	COMDAT ?_Get_data@?$_String_alloc@U?$_String_base_types@_WV?$allocator@_W@std@@@std@@@std@@QAEAAV?$_String_val@U?$_Simple_types@_W@std@@@2@XZ
_TEXT	SEGMENT
?_Get_data@?$_String_alloc@U?$_String_base_types@_WV?$allocator@_W@std@@@std@@@std@@QAEAAV?$_String_val@U?$_Simple_types@_W@std@@@2@XZ PROC ; std::_String_alloc<std::_String_base_types<wchar_t,std::allocator<wchar_t> > >::_Get_data, COMDAT
; _this$ = ecx

; 702  : 		return (_Mypair._Get_second());

  00000	8b c1		 mov	 eax, ecx

; 703  : 		}

  00002	c3		 ret	 0
?_Get_data@?$_String_alloc@U?$_String_base_types@_WV?$allocator@_W@std@@@std@@@std@@QAEAAV?$_String_val@U?$_Simple_types@_W@std@@@2@XZ ENDP ; std::_String_alloc<std::_String_base_types<wchar_t,std::allocator<wchar_t> > >::_Get_data
_TEXT	ENDS
; Function compile flags: /Ogtp
; File c:\program files (x86)\microsoft visual studio 14.0\vc\include\xstring
;	COMDAT ?_Getal@?$_String_alloc@U?$_String_base_types@_WV?$allocator@_W@std@@@std@@@std@@QBEABU?$_Wrap_alloc@V?$allocator@_W@std@@@2@XZ
_TEXT	SEGMENT
?_Getal@?$_String_alloc@U?$_String_base_types@_WV?$allocator@_W@std@@@std@@@std@@QBEABU?$_Wrap_alloc@V?$allocator@_W@std@@@2@XZ PROC ; std::_String_alloc<std::_String_base_types<wchar_t,std::allocator<wchar_t> > >::_Getal, COMDAT
; _this$ = ecx

; 697  : 		return (_Mypair._Get_first());

  00000	8b c1		 mov	 eax, ecx

; 698  : 		}

  00002	c3		 ret	 0
?_Getal@?$_String_alloc@U?$_String_base_types@_WV?$allocator@_W@std@@@std@@@std@@QBEABU?$_Wrap_alloc@V?$allocator@_W@std@@@2@XZ ENDP ; std::_String_alloc<std::_String_base_types<wchar_t,std::allocator<wchar_t> > >::_Getal
_TEXT	ENDS
; Function compile flags: /Ogtp
; File c:\program files (x86)\microsoft visual studio 14.0\vc\include\xstring
;	COMDAT ?_Getal@?$_String_alloc@U?$_String_base_types@_WV?$allocator@_W@std@@@std@@@std@@QAEAAU?$_Wrap_alloc@V?$allocator@_W@std@@@2@XZ
_TEXT	SEGMENT
?_Getal@?$_String_alloc@U?$_String_base_types@_WV?$allocator@_W@std@@@std@@@std@@QAEAAU?$_Wrap_alloc@V?$allocator@_W@std@@@2@XZ PROC ; std::_String_alloc<std::_String_base_types<wchar_t,std::allocator<wchar_t> > >::_Getal, COMDAT
; _this$ = ecx

; 692  : 		return (_Mypair._Get_first());

  00000	8b c1		 mov	 eax, ecx

; 693  : 		}

  00002	c3		 ret	 0
?_Getal@?$_String_alloc@U?$_String_base_types@_WV?$allocator@_W@std@@@std@@@std@@QAEAAU?$_Wrap_alloc@V?$allocator@_W@std@@@2@XZ ENDP ; std::_String_alloc<std::_String_base_types<wchar_t,std::allocator<wchar_t> > >::_Getal
_TEXT	ENDS
; Function compile flags: /Ogtp
; File c:\program files (x86)\microsoft visual studio 14.0\vc\include\xstring
;	COMDAT ??0?$_String_alloc@U?$_String_base_types@_WV?$allocator@_W@std@@@std@@@std@@QAE@XZ
_TEXT	SEGMENT
??0?$_String_alloc@U?$_String_base_types@_WV?$allocator@_W@std@@@std@@@std@@QAE@XZ PROC ; std::_String_alloc<std::_String_base_types<wchar_t,std::allocator<wchar_t> > >::_String_alloc<std::_String_base_types<wchar_t,std::allocator<wchar_t> > >, COMDAT
; _this$ = ecx

; 588  : 		: _Mypair(_Zero_then_variadic_args_t())

  00000	c7 41 10 00 00
	00 00		 mov	 DWORD PTR [ecx+16], 0

; 590  : 		}

  00007	8b c1		 mov	 eax, ecx
  00009	c7 41 14 00 00
	00 00		 mov	 DWORD PTR [ecx+20], 0
  00010	c3		 ret	 0
??0?$_String_alloc@U?$_String_base_types@_WV?$allocator@_W@std@@@std@@@std@@QAE@XZ ENDP ; std::_String_alloc<std::_String_base_types<wchar_t,std::allocator<wchar_t> > >::_String_alloc<std::_String_base_types<wchar_t,std::allocator<wchar_t> > >
_TEXT	ENDS
; Function compile flags: /Ogtp
; File c:\program files (x86)\microsoft visual studio 14.0\vc\include\xstring
;	COMDAT ?_Myptr@?$_String_alloc@U?$_String_base_types@_WV?$allocator@_W@std@@@std@@@std@@QBEPB_WXZ
_TEXT	SEGMENT
?_Myptr@?$_String_alloc@U?$_String_base_types@_WV?$allocator@_W@std@@@std@@@std@@QBEPB_WXZ PROC ; std::_String_alloc<std::_String_base_types<wchar_t,std::allocator<wchar_t> > >::_Myptr, COMDAT
; _this$ = ecx

; 583  : 		return (_Get_data()._Myptr());

  00000	83 79 14 08	 cmp	 DWORD PTR [ecx+20], 8
  00004	72 03		 jb	 SHORT $LN11@Myptr
  00006	8b 01		 mov	 eax, DWORD PTR [ecx]

; 584  : 		}

  00008	c3		 ret	 0

; 583  : 		return (_Get_data()._Myptr());

$LN11@Myptr:
  00009	8b c1		 mov	 eax, ecx

; 584  : 		}

  0000b	c3		 ret	 0
?_Myptr@?$_String_alloc@U?$_String_base_types@_WV?$allocator@_W@std@@@std@@@std@@QBEPB_WXZ ENDP ; std::_String_alloc<std::_String_base_types<wchar_t,std::allocator<wchar_t> > >::_Myptr
_TEXT	ENDS
; Function compile flags: /Ogtp
; File c:\program files (x86)\microsoft visual studio 14.0\vc\include\xstring
;	COMDAT ?_Myptr@?$_String_alloc@U?$_String_base_types@_WV?$allocator@_W@std@@@std@@@std@@QAEPA_WXZ
_TEXT	SEGMENT
?_Myptr@?$_String_alloc@U?$_String_base_types@_WV?$allocator@_W@std@@@std@@@std@@QAEPA_WXZ PROC ; std::_String_alloc<std::_String_base_types<wchar_t,std::allocator<wchar_t> > >::_Myptr, COMDAT
; _this$ = ecx

; 578  : 		return (_Get_data()._Myptr());

  00000	83 79 14 08	 cmp	 DWORD PTR [ecx+20], 8
  00004	72 03		 jb	 SHORT $LN11@Myptr
  00006	8b 01		 mov	 eax, DWORD PTR [ecx]

; 579  : 		}

  00008	c3		 ret	 0

; 578  : 		return (_Get_data()._Myptr());

$LN11@Myptr:
  00009	8b c1		 mov	 eax, ecx

; 579  : 		}

  0000b	c3		 ret	 0
?_Myptr@?$_String_alloc@U?$_String_base_types@_WV?$allocator@_W@std@@@std@@@std@@QAEPA_WXZ ENDP ; std::_String_alloc<std::_String_base_types<wchar_t,std::allocator<wchar_t> > >::_Myptr
_TEXT	ENDS
; Function compile flags: /Ogtp
;	COMDAT ??1?$_String_val@U?$_Simple_types@_W@std@@@std@@QAE@XZ
_TEXT	SEGMENT
??1?$_String_val@U?$_Simple_types@_W@std@@@std@@QAE@XZ PROC ; std::_String_val<std::_Simple_types<wchar_t> >::~_String_val<std::_Simple_types<wchar_t> >, COMDAT
; _this$ = ecx
  00000	c3		 ret	 0
??1?$_String_val@U?$_Simple_types@_W@std@@@std@@QAE@XZ ENDP ; std::_String_val<std::_Simple_types<wchar_t> >::~_String_val<std::_Simple_types<wchar_t> >
_TEXT	ENDS
; Function compile flags: /Ogtp
; File c:\program files (x86)\microsoft visual studio 14.0\vc\include\xstring
;	COMDAT ??1_Bxty@?$_String_val@U?$_Simple_types@_W@std@@@std@@QAE@XZ
_TEXT	SEGMENT
??1_Bxty@?$_String_val@U?$_Simple_types@_W@std@@@std@@QAE@XZ PROC ; std::_String_val<std::_Simple_types<wchar_t> >::_Bxty::~_Bxty, COMDAT
; _this$ = ecx

; 534  : 			}

  00000	c3		 ret	 0
??1_Bxty@?$_String_val@U?$_Simple_types@_W@std@@@std@@QAE@XZ ENDP ; std::_String_val<std::_Simple_types<wchar_t> >::_Bxty::~_Bxty
_TEXT	ENDS
; Function compile flags: /Ogtp
; File c:\program files (x86)\microsoft visual studio 14.0\vc\include\xstring
;	COMDAT ??0_Bxty@?$_String_val@U?$_Simple_types@_W@std@@@std@@QAE@XZ
_TEXT	SEGMENT
??0_Bxty@?$_String_val@U?$_Simple_types@_W@std@@@std@@QAE@XZ PROC ; std::_String_val<std::_Simple_types<wchar_t> >::_Bxty::_Bxty, COMDAT
; _this$ = ecx

; 529  : 			{	// user-provided, for fancy pointers
; 530  : 			}

  00000	8b c1		 mov	 eax, ecx
  00002	c3		 ret	 0
??0_Bxty@?$_String_val@U?$_Simple_types@_W@std@@@std@@QAE@XZ ENDP ; std::_String_val<std::_Simple_types<wchar_t> >::_Bxty::_Bxty
_TEXT	ENDS
; Function compile flags: /Ogtp
; File c:\program files (x86)\microsoft visual studio 14.0\vc\include\xstring
;	COMDAT ?_Myptr@?$_String_val@U?$_Simple_types@_W@std@@@std@@QBEPB_WXZ
_TEXT	SEGMENT
?_Myptr@?$_String_val@U?$_Simple_types@_W@std@@@std@@QBEPB_WXZ PROC ; std::_String_val<std::_Simple_types<wchar_t> >::_Myptr, COMDAT
; _this$ = ecx

; 521  : 		return (this->_BUF_SIZE <= _Myres

  00000	83 79 14 08	 cmp	 DWORD PTR [ecx+20], 8
  00004	72 03		 jb	 SHORT $LN3@Myptr
  00006	8b 01		 mov	 eax, DWORD PTR [ecx]

; 522  : 			? _Unfancy(_Bx._Ptr)
; 523  : 			: _Bx._Buf);
; 524  : 		}

  00008	c3		 ret	 0
$LN3@Myptr:

; 521  : 		return (this->_BUF_SIZE <= _Myres

  00009	8b c1		 mov	 eax, ecx

; 522  : 			? _Unfancy(_Bx._Ptr)
; 523  : 			: _Bx._Buf);
; 524  : 		}

  0000b	c3		 ret	 0
?_Myptr@?$_String_val@U?$_Simple_types@_W@std@@@std@@QBEPB_WXZ ENDP ; std::_String_val<std::_Simple_types<wchar_t> >::_Myptr
_TEXT	ENDS
; Function compile flags: /Ogtp
; File c:\program files (x86)\microsoft visual studio 14.0\vc\include\xstring
;	COMDAT ?_Myptr@?$_String_val@U?$_Simple_types@_W@std@@@std@@QAEPA_WXZ
_TEXT	SEGMENT
?_Myptr@?$_String_val@U?$_Simple_types@_W@std@@@std@@QAEPA_WXZ PROC ; std::_String_val<std::_Simple_types<wchar_t> >::_Myptr, COMDAT
; _this$ = ecx

; 514  : 		return (this->_BUF_SIZE <= _Myres

  00000	83 79 14 08	 cmp	 DWORD PTR [ecx+20], 8
  00004	72 03		 jb	 SHORT $LN3@Myptr
  00006	8b 01		 mov	 eax, DWORD PTR [ecx]

; 515  : 			? _Unfancy(_Bx._Ptr)
; 516  : 			: _Bx._Buf);
; 517  : 		}

  00008	c3		 ret	 0
$LN3@Myptr:

; 514  : 		return (this->_BUF_SIZE <= _Myres

  00009	8b c1		 mov	 eax, ecx

; 515  : 			? _Unfancy(_Bx._Ptr)
; 516  : 			: _Bx._Buf);
; 517  : 		}

  0000b	c3		 ret	 0
?_Myptr@?$_String_val@U?$_Simple_types@_W@std@@@std@@QAEPA_WXZ ENDP ; std::_String_val<std::_Simple_types<wchar_t> >::_Myptr
_TEXT	ENDS
; Function compile flags: /Ogtp
; File c:\program files (x86)\microsoft visual studio 14.0\vc\include\xstring
;	COMDAT ??0?$_String_val@U?$_Simple_types@_W@std@@@std@@QAE@XZ
_TEXT	SEGMENT
??0?$_String_val@U?$_Simple_types@_W@std@@@std@@QAE@XZ PROC ; std::_String_val<std::_Simple_types<wchar_t> >::_String_val<std::_Simple_types<wchar_t> >, COMDAT
; _this$ = ecx

; 496  : 		_Mysize(0),

  00000	c7 41 10 00 00
	00 00		 mov	 DWORD PTR [ecx+16], 0

; 499  : 		}

  00007	8b c1		 mov	 eax, ecx
  00009	c7 41 14 00 00
	00 00		 mov	 DWORD PTR [ecx+20], 0
  00010	c3		 ret	 0
??0?$_String_val@U?$_Simple_types@_W@std@@@std@@QAE@XZ ENDP ; std::_String_val<std::_Simple_types<wchar_t> >::_String_val<std::_Simple_types<wchar_t> >
_TEXT	ENDS
; Function compile flags: /Ogtp
; File c:\program files (x86)\microsoft visual studio 14.0\vc\include\xmemory0
;	COMDAT ?max_size@?$_Wrap_alloc@V?$allocator@_W@std@@@std@@QBEIU_Nil@2@@Z
_TEXT	SEGMENT
___formal$ = 8						; size = 1
?max_size@?$_Wrap_alloc@V?$allocator@_W@std@@@std@@QBEIU_Nil@2@@Z PROC ; std::_Wrap_alloc<std::allocator<wchar_t> >::max_size, COMDAT
; _this$ = ecx

; 1008 : 		return (_Mytraits::max_size(*this));

  00000	b8 ff ff ff 7f	 mov	 eax, 2147483647		; 7fffffffH

; 1009 : 		}

  00005	c2 04 00	 ret	 4
?max_size@?$_Wrap_alloc@V?$allocator@_W@std@@@std@@QBEIU_Nil@2@@Z ENDP ; std::_Wrap_alloc<std::allocator<wchar_t> >::max_size
_TEXT	ENDS
; Function compile flags: /Ogtp
; File c:\program files (x86)\microsoft visual studio 14.0\vc\include\xmemory0
;	COMDAT ?deallocate@?$_Wrap_alloc@V?$allocator@_W@std@@@std@@QAEXPA_WI@Z
_TEXT	SEGMENT
__Ptr$ = 8						; size = 4
__Count$ = 12						; size = 4
?deallocate@?$_Wrap_alloc@V?$allocator@_W@std@@@std@@QAEXPA_WI@Z PROC ; std::_Wrap_alloc<std::allocator<wchar_t> >::deallocate, COMDAT
; _this$ = ecx

; 986  : 		{	// deallocate object at _Ptr, ignore size

  00000	55		 push	 ebp
  00001	8b ec		 mov	 ebp, esp

; 987  : 		_Mybase::deallocate(_Ptr, _Count);

  00003	8b 45 0c	 mov	 eax, DWORD PTR __Count$[ebp]
  00006	8b 4d 08	 mov	 ecx, DWORD PTR __Ptr$[ebp]
  00009	3d ff ff ff 7f	 cmp	 eax, 2147483647		; 7fffffffH
  0000e	77 30		 ja	 SHORT $LN16@deallocate
  00010	03 c0		 add	 eax, eax
  00012	3d 00 10 00 00	 cmp	 eax, 4096		; 00001000H
  00017	72 1a		 jb	 SHORT $LN7@deallocate
  00019	f6 c1 1f	 test	 cl, 31			; 0000001fH
  0001c	75 27		 jne	 SHORT $LN18@deallocate
  0001e	8b 41 fc	 mov	 eax, DWORD PTR [ecx-4]
  00021	3b c1		 cmp	 eax, ecx
  00023	73 25		 jae	 SHORT $LN19@deallocate
  00025	2b c8		 sub	 ecx, eax
  00027	83 f9 04	 cmp	 ecx, 4
  0002a	72 23		 jb	 SHORT $LN20@deallocate
  0002c	83 f9 23	 cmp	 ecx, 35			; 00000023H
  0002f	77 23		 ja	 SHORT $LN21@deallocate
  00031	8b c8		 mov	 ecx, eax
$LN7@deallocate:
  00033	51		 push	 ecx
  00034	e8 00 00 00 00	 call	 ??3@YAXPAX@Z		; operator delete
  00039	83 c4 04	 add	 esp, 4

; 988  : 		}

  0003c	5d		 pop	 ebp
  0003d	c2 08 00	 ret	 8
$LN16@deallocate:

; 987  : 		_Mybase::deallocate(_Ptr, _Count);

  00040	e8 00 00 00 00	 call	 __invalid_parameter_noinfo_noreturn
$LN22@deallocate:
$LN18@deallocate:
  00045	e8 00 00 00 00	 call	 __invalid_parameter_noinfo_noreturn
$LN23@deallocate:
$LN19@deallocate:
  0004a	e8 00 00 00 00	 call	 __invalid_parameter_noinfo_noreturn
$LN24@deallocate:
$LN20@deallocate:
  0004f	e8 00 00 00 00	 call	 __invalid_parameter_noinfo_noreturn
$LN25@deallocate:
$LN21@deallocate:
  00054	e8 00 00 00 00	 call	 __invalid_parameter_noinfo_noreturn
$LN26@deallocate:
$LN15@deallocate:
  00059	cc		 int	 3
?deallocate@?$_Wrap_alloc@V?$allocator@_W@std@@@std@@QAEXPA_WI@Z ENDP ; std::_Wrap_alloc<std::allocator<wchar_t> >::deallocate
_TEXT	ENDS
; Function compile flags: /Ogtp
; File c:\program files (x86)\microsoft visual studio 14.0\vc\include\xmemory0
;	COMDAT ?allocate@?$_Wrap_alloc@V?$allocator@_W@std@@@std@@QAEPA_WI@Z
_TEXT	SEGMENT
__Count$ = 8						; size = 4
?allocate@?$_Wrap_alloc@V?$allocator@_W@std@@@std@@QAEPA_WI@Z PROC ; std::_Wrap_alloc<std::allocator<wchar_t> >::allocate, COMDAT
; _this$ = ecx

; 975  : 		{	// allocate array of _Count elements

  00000	55		 push	 ebp
  00001	8b ec		 mov	 ebp, esp

; 977  : 		}

  00003	5d		 pop	 ebp

; 976  : 		return (_Mybase::allocate(_Count));

  00004	e9 00 00 00 00	 jmp	 ?allocate@?$allocator@_W@std@@QAEPA_WI@Z ; std::allocator<wchar_t>::allocate
?allocate@?$_Wrap_alloc@V?$allocator@_W@std@@@std@@QAEPA_WI@Z ENDP ; std::_Wrap_alloc<std::allocator<wchar_t> >::allocate
_TEXT	ENDS
; Function compile flags: /Ogtp
; File c:\program files (x86)\microsoft visual studio 14.0\vc\include\xmemory0
;	COMDAT ??0?$_Wrap_alloc@V?$allocator@_W@std@@@std@@QAE@XZ
_TEXT	SEGMENT
??0?$_Wrap_alloc@V?$allocator@_W@std@@@std@@QAE@XZ PROC	; std::_Wrap_alloc<std::allocator<wchar_t> >::_Wrap_alloc<std::allocator<wchar_t> >, COMDAT
; _this$ = ecx

; 937  : 		}

  00000	8b c1		 mov	 eax, ecx
  00002	c3		 ret	 0
??0?$_Wrap_alloc@V?$allocator@_W@std@@@std@@QAE@XZ ENDP	; std::_Wrap_alloc<std::allocator<wchar_t> >::_Wrap_alloc<std::allocator<wchar_t> >
_TEXT	ENDS
; Function compile flags: /Ogtp
; File c:\program files (x86)\microsoft visual studio 14.0\vc\include\xmemory0
;	COMDAT ?max_size@?$allocator_traits@V?$allocator@_W@std@@@std@@SAIABV?$allocator@_W@2@@Z
_TEXT	SEGMENT
__Al$ = 8						; size = 4
?max_size@?$allocator_traits@V?$allocator@_W@std@@@std@@SAIABV?$allocator@_W@2@@Z PROC ; std::allocator_traits<std::allocator<wchar_t> >::max_size, COMDAT

; 869  : 		return (_Al.max_size());

  00000	b8 ff ff ff 7f	 mov	 eax, 2147483647		; 7fffffffH

; 870  : 		}

  00005	c3		 ret	 0
?max_size@?$allocator_traits@V?$allocator@_W@std@@@std@@SAIABV?$allocator@_W@2@@Z ENDP ; std::allocator_traits<std::allocator<wchar_t> >::max_size
_TEXT	ENDS
; Function compile flags: /Ogtp
; File c:\program files (x86)\microsoft visual studio 14.0\vc\include\xmemory0
;	COMDAT ?max_size@?$allocator@_W@std@@QBEIXZ
_TEXT	SEGMENT
?max_size@?$allocator@_W@std@@QBEIXZ PROC		; std::allocator<wchar_t>::max_size, COMDAT
; _this$ = ecx

; 749  : 		return ((size_t)(-1) / sizeof (_Ty));

  00000	b8 ff ff ff 7f	 mov	 eax, 2147483647		; 7fffffffH

; 750  : 		}

  00005	c3		 ret	 0
?max_size@?$allocator@_W@std@@QBEIXZ ENDP		; std::allocator<wchar_t>::max_size
_TEXT	ENDS
; Function compile flags: /Ogtp
; File c:\program files (x86)\microsoft visual studio 14.0\vc\include\xmemory0
;	COMDAT ?allocate@?$allocator@_W@std@@QAEPA_WI@Z
_TEXT	SEGMENT
__Count$ = 8						; size = 4
?allocate@?$allocator@_W@std@@QAEPA_WI@Z PROC		; std::allocator<wchar_t>::allocate, COMDAT
; _this$ = ecx

; 724  : 		{	// allocate array of _Count elements

  00000	55		 push	 ebp
  00001	8b ec		 mov	 ebp, esp

; 725  : 		return (static_cast<pointer>(_Allocate(_Count, sizeof (_Ty))));

  00003	8b 45 08	 mov	 eax, DWORD PTR __Count$[ebp]
  00006	85 c0		 test	 eax, eax
  00008	75 04		 jne	 SHORT $LN4@allocate
$LN12@allocate:

; 726  : 		}

  0000a	5d		 pop	 ebp
  0000b	c2 04 00	 ret	 4

; 725  : 		return (static_cast<pointer>(_Allocate(_Count, sizeof (_Ty))));

$LN4@allocate:
  0000e	3d ff ff ff 7f	 cmp	 eax, 2147483647		; 7fffffffH
  00013	77 3b		 ja	 SHORT $LN14@allocate
  00015	03 c0		 add	 eax, eax
  00017	3d 00 10 00 00	 cmp	 eax, 4096		; 00001000H
  0001c	72 23		 jb	 SHORT $LN6@allocate
  0001e	8d 48 23	 lea	 ecx, DWORD PTR [eax+35]
  00021	3b c8		 cmp	 ecx, eax
  00023	76 30		 jbe	 SHORT $LN16@allocate
  00025	51		 push	 ecx
  00026	e8 00 00 00 00	 call	 ??2@YAPAXI@Z		; operator new
  0002b	8b c8		 mov	 ecx, eax
  0002d	83 c4 04	 add	 esp, 4
  00030	85 c9		 test	 ecx, ecx
  00032	74 26		 je	 SHORT $LN17@allocate
  00034	8d 41 23	 lea	 eax, DWORD PTR [ecx+35]
  00037	83 e0 e0	 and	 eax, -32		; ffffffe0H
  0003a	89 48 fc	 mov	 DWORD PTR [eax-4], ecx

; 726  : 		}

  0003d	5d		 pop	 ebp
  0003e	c2 04 00	 ret	 4

; 725  : 		return (static_cast<pointer>(_Allocate(_Count, sizeof (_Ty))));

$LN6@allocate:
  00041	50		 push	 eax
  00042	e8 00 00 00 00	 call	 ??2@YAPAXI@Z		; operator new
  00047	83 c4 04	 add	 esp, 4
  0004a	85 c0		 test	 eax, eax
  0004c	75 bc		 jne	 SHORT $LN12@allocate
  0004e	eb 0f		 jmp	 SHORT $LN18@allocate
$LN14@allocate:
  00050	e8 00 00 00 00	 call	 ?_Xbad_alloc@std@@YAXXZ	; std::_Xbad_alloc
$LN19@allocate:
$LN16@allocate:
  00055	e8 00 00 00 00	 call	 ?_Xbad_alloc@std@@YAXXZ	; std::_Xbad_alloc
$LN20@allocate:
$LN17@allocate:
  0005a	e8 00 00 00 00	 call	 __invalid_parameter_noinfo_noreturn
$LN21@allocate:
$LN18@allocate:
  0005f	e8 00 00 00 00	 call	 __invalid_parameter_noinfo_noreturn
$LN22@allocate:
$LN13@allocate:
  00064	cc		 int	 3
?allocate@?$allocator@_W@std@@QAEPA_WI@Z ENDP		; std::allocator<wchar_t>::allocate
_TEXT	ENDS
; Function compile flags: /Ogtp
; File c:\program files (x86)\microsoft visual studio 14.0\vc\include\xmemory0
;	COMDAT ?deallocate@?$allocator@_W@std@@QAEXPA_WI@Z
_TEXT	SEGMENT
__Ptr$ = 8						; size = 4
__Count$ = 12						; size = 4
?deallocate@?$allocator@_W@std@@QAEXPA_WI@Z PROC	; std::allocator<wchar_t>::deallocate, COMDAT
; _this$ = ecx

; 719  : 		{	// deallocate object at _Ptr

  00000	55		 push	 ebp
  00001	8b ec		 mov	 ebp, esp

; 720  : 		_Deallocate(_Ptr, _Count, sizeof (_Ty));

  00003	8b 45 0c	 mov	 eax, DWORD PTR __Count$[ebp]
  00006	8b 4d 08	 mov	 ecx, DWORD PTR __Ptr$[ebp]
  00009	3d ff ff ff 7f	 cmp	 eax, 2147483647		; 7fffffffH
  0000e	77 30		 ja	 SHORT $LN13@deallocate
  00010	03 c0		 add	 eax, eax
  00012	3d 00 10 00 00	 cmp	 eax, 4096		; 00001000H
  00017	72 1a		 jb	 SHORT $LN5@deallocate
  00019	f6 c1 1f	 test	 cl, 31			; 0000001fH
  0001c	75 27		 jne	 SHORT $LN15@deallocate
  0001e	8b 41 fc	 mov	 eax, DWORD PTR [ecx-4]
  00021	3b c1		 cmp	 eax, ecx
  00023	73 25		 jae	 SHORT $LN16@deallocate
  00025	2b c8		 sub	 ecx, eax
  00027	83 f9 04	 cmp	 ecx, 4
  0002a	72 23		 jb	 SHORT $LN17@deallocate
  0002c	83 f9 23	 cmp	 ecx, 35			; 00000023H
  0002f	77 23		 ja	 SHORT $LN18@deallocate
  00031	8b c8		 mov	 ecx, eax
$LN5@deallocate:
  00033	51		 push	 ecx
  00034	e8 00 00 00 00	 call	 ??3@YAXPAX@Z		; operator delete
  00039	83 c4 04	 add	 esp, 4

; 721  : 		}

  0003c	5d		 pop	 ebp
  0003d	c2 08 00	 ret	 8
$LN13@deallocate:

; 720  : 		_Deallocate(_Ptr, _Count, sizeof (_Ty));

  00040	e8 00 00 00 00	 call	 __invalid_parameter_noinfo_noreturn
$LN19@deallocate:
$LN15@deallocate:
  00045	e8 00 00 00 00	 call	 __invalid_parameter_noinfo_noreturn
$LN20@deallocate:
$LN16@deallocate:
  0004a	e8 00 00 00 00	 call	 __invalid_parameter_noinfo_noreturn
$LN21@deallocate:
$LN17@deallocate:
  0004f	e8 00 00 00 00	 call	 __invalid_parameter_noinfo_noreturn
$LN22@deallocate:
$LN18@deallocate:
  00054	e8 00 00 00 00	 call	 __invalid_parameter_noinfo_noreturn
$LN23@deallocate:
$LN12@deallocate:
  00059	cc		 int	 3
?deallocate@?$allocator@_W@std@@QAEXPA_WI@Z ENDP	; std::allocator<wchar_t>::deallocate
_TEXT	ENDS
; Function compile flags: /Ogtp
; File c:\program files (x86)\microsoft visual studio 14.0\vc\include\xmemory0
;	COMDAT ??0?$allocator@_W@std@@QAE@XZ
_TEXT	SEGMENT
??0?$allocator@_W@std@@QAE@XZ PROC			; std::allocator<wchar_t>::allocator<wchar_t>, COMDAT
; _this$ = ecx

; 700  : 		{	// construct default allocator (do nothing)
; 701  : 		}

  00000	8b c1		 mov	 eax, ecx
  00002	c3		 ret	 0
??0?$allocator@_W@std@@QAE@XZ ENDP			; std::allocator<wchar_t>::allocator<wchar_t>
_TEXT	ENDS
; Function compile flags: /Ogtp
; File c:\program files (x86)\microsoft visual studio 14.0\vc\include\xstring
;	COMDAT ?_Xran@?$basic_string@DU?$char_traits@D@std@@V?$allocator@D@2@@std@@QBEXXZ
_TEXT	SEGMENT
?_Xran@?$basic_string@DU?$char_traits@D@std@@V?$allocator@D@2@@std@@QBEXXZ PROC ; std::basic_string<char,std::char_traits<char>,std::allocator<char> >::_Xran, COMDAT
; _this$ = ecx

; 2283 : 		_Xout_of_range("invalid string position");

  00000	68 00 00 00 00	 push	 OFFSET ??_C@_0BI@CFPLBAOH@invalid?5string?5position?$AA@
  00005	e8 00 00 00 00	 call	 ?_Xout_of_range@std@@YAXPBD@Z ; std::_Xout_of_range
$LN4@Xran:
$LN3@Xran:
  0000a	cc		 int	 3
?_Xran@?$basic_string@DU?$char_traits@D@std@@V?$allocator@D@2@@std@@QBEXXZ ENDP ; std::basic_string<char,std::char_traits<char>,std::allocator<char> >::_Xran
_TEXT	ENDS
; Function compile flags: /Ogtp
; File c:\program files (x86)\microsoft visual studio 14.0\vc\include\xstring
;	COMDAT ?_Check_offset@?$basic_string@DU?$char_traits@D@std@@V?$allocator@D@2@@std@@QBEXI@Z
_TEXT	SEGMENT
__Off$ = 8						; size = 4
?_Check_offset@?$basic_string@DU?$char_traits@D@std@@V?$allocator@D@2@@std@@QBEXI@Z PROC ; std::basic_string<char,std::char_traits<char>,std::allocator<char> >::_Check_offset, COMDAT
; _this$ = ecx

; 2270 : 		{	// checks whether _Off is in the bounds of [0, this->size()]

  00000	55		 push	 ebp
  00001	8b ec		 mov	 ebp, esp

; 2271 : 		if (this->_Mysize() < _Off)

  00003	8b 41 10	 mov	 eax, DWORD PTR [ecx+16]
  00006	3b 45 08	 cmp	 eax, DWORD PTR __Off$[ebp]
  00009	72 04		 jb	 SHORT $LN17@Check_offs

; 2273 : 		}

  0000b	5d		 pop	 ebp
  0000c	c2 04 00	 ret	 4
$LN17@Check_offs:

; 2272 : 			_Xran();

  0000f	68 00 00 00 00	 push	 OFFSET ??_C@_0BI@CFPLBAOH@invalid?5string?5position?$AA@
  00014	e8 00 00 00 00	 call	 ?_Xout_of_range@std@@YAXPBD@Z ; std::_Xout_of_range
$LN19@Check_offs:
$LN16@Check_offs:
  00019	cc		 int	 3
?_Check_offset@?$basic_string@DU?$char_traits@D@std@@V?$allocator@D@2@@std@@QBEXI@Z ENDP ; std::basic_string<char,std::char_traits<char>,std::allocator<char> >::_Check_offset
_TEXT	ENDS
; Function compile flags: /Ogtp
; File c:\program files (x86)\microsoft visual studio 14.0\vc\include\xstring
;	COMDAT ?_Xlen@?$basic_string@DU?$char_traits@D@std@@V?$allocator@D@2@@std@@QBEXXZ
_TEXT	SEGMENT
?_Xlen@?$basic_string@DU?$char_traits@D@std@@V?$allocator@D@2@@std@@QBEXXZ PROC ; std::basic_string<char,std::char_traits<char>,std::allocator<char> >::_Xlen, COMDAT
; _this$ = ecx

; 2266 : 		_Xlength_error("string too long");

  00000	68 00 00 00 00	 push	 OFFSET ??_C@_0BA@JFNIOLAK@string?5too?5long?$AA@
  00005	e8 00 00 00 00	 call	 ?_Xlength_error@std@@YAXPBD@Z ; std::_Xlength_error
$LN4@Xlen:
$LN3@Xlen:
  0000a	cc		 int	 3
?_Xlen@?$basic_string@DU?$char_traits@D@std@@V?$allocator@D@2@@std@@QBEXXZ ENDP ; std::basic_string<char,std::char_traits<char>,std::allocator<char> >::_Xlen
_TEXT	ENDS
; Function compile flags: /Ogtp
; File c:\program files (x86)\microsoft visual studio 14.0\vc\include\xstring
;	COMDAT ?_Tidy@?$basic_string@DU?$char_traits@D@std@@V?$allocator@D@2@@std@@QAEX_NI@Z
_TEXT	SEGMENT
__Built$ = 8						; size = 1
__Newsize$ = 12						; size = 4
?_Tidy@?$basic_string@DU?$char_traits@D@std@@V?$allocator@D@2@@std@@QAEX_NI@Z PROC ; std::basic_string<char,std::char_traits<char>,std::allocator<char> >::_Tidy, COMDAT
; _this$ = ecx

; 2248 : 		{	// initialize buffer, deallocating any storage

  00000	55		 push	 ebp
  00001	8b ec		 mov	 ebp, esp

; 2249 : 		if (!_Built)

  00003	80 7d 08 00	 cmp	 BYTE PTR __Built$[ebp], 0
  00007	56		 push	 esi
  00008	57		 push	 edi
  00009	8b 7d 0c	 mov	 edi, DWORD PTR __Newsize$[ebp]
  0000c	8b f1		 mov	 esi, ecx
  0000e	74 26		 je	 SHORT $LN4@Tidy

; 2250 : 			;
; 2251 : 		else if (this->_BUF_SIZE <= this->_Myres())

  00010	83 7e 14 10	 cmp	 DWORD PTR [esi+20], 16	; 00000010H
  00014	72 20		 jb	 SHORT $LN4@Tidy

; 2252 : 			{	// copy any leftovers to small buffer and deallocate
; 2253 : 			pointer _Ptr = this->_Bx()._Ptr;

  00016	53		 push	 ebx
  00017	8b 1e		 mov	 ebx, DWORD PTR [esi]

; 2254 : 			this->_Getal().destroy(_STD addressof(this->_Bx()._Ptr));
; 2255 : 			if (0 < _Newsize)

  00019	85 ff		 test	 edi, edi
  0001b	74 0b		 je	 SHORT $LN57@Tidy

; 2256 : 				_Traits::copy(this->_Bx()._Buf,

  0001d	57		 push	 edi
  0001e	53		 push	 ebx
  0001f	56		 push	 esi
  00020	e8 00 00 00 00	 call	 _memcpy
  00025	83 c4 0c	 add	 esp, 12			; 0000000cH
$LN57@Tidy:

; 2257 : 					_Unfancy(_Ptr), _Newsize);
; 2258 : 			this->_Getal().deallocate(_Ptr, this->_Myres() + 1);

  00028	8b 46 14	 mov	 eax, DWORD PTR [esi+20]
  0002b	8b ce		 mov	 ecx, esi
  0002d	40		 inc	 eax
  0002e	50		 push	 eax
  0002f	53		 push	 ebx
  00030	e8 00 00 00 00	 call	 ?deallocate@?$_Wrap_alloc@V?$allocator@D@std@@@std@@QAEXPADI@Z ; std::_Wrap_alloc<std::allocator<char> >::deallocate
  00035	5b		 pop	 ebx
$LN4@Tidy:

; 2259 : 			}
; 2260 : 		this->_Myres() = this->_BUF_SIZE - 1;

  00036	c7 46 14 0f 00
	00 00		 mov	 DWORD PTR [esi+20], 15	; 0000000fH

; 2261 : 		_Eos(_Newsize);

  0003d	83 7e 14 10	 cmp	 DWORD PTR [esi+20], 16	; 00000010H
  00041	89 7e 10	 mov	 DWORD PTR [esi+16], edi
  00044	72 0c		 jb	 SHORT $LN92@Tidy
  00046	8b 06		 mov	 eax, DWORD PTR [esi]
  00048	c6 04 38 00	 mov	 BYTE PTR [eax+edi], 0
  0004c	5f		 pop	 edi
  0004d	5e		 pop	 esi

; 2262 : 		}

  0004e	5d		 pop	 ebp
  0004f	c2 08 00	 ret	 8

; 2261 : 		_Eos(_Newsize);

$LN92@Tidy:
  00052	c6 04 3e 00	 mov	 BYTE PTR [esi+edi], 0
  00056	5f		 pop	 edi
  00057	5e		 pop	 esi

; 2262 : 		}

  00058	5d		 pop	 ebp
  00059	c2 08 00	 ret	 8
?_Tidy@?$basic_string@DU?$char_traits@D@std@@V?$allocator@D@2@@std@@QAEX_NI@Z ENDP ; std::basic_string<char,std::char_traits<char>,std::allocator<char> >::_Tidy
_TEXT	ENDS
; Function compile flags: /Ogtp
; File c:\program files (x86)\microsoft visual studio 14.0\vc\include\xstring
;	COMDAT ?_Inside@?$basic_string@DU?$char_traits@D@std@@V?$allocator@D@2@@std@@QAE_NPBD@Z
_TEXT	SEGMENT
__Ptr$ = 8						; size = 4
?_Inside@?$basic_string@DU?$char_traits@D@std@@V?$allocator@D@2@@std@@QAE_NPBD@Z PROC ; std::basic_string<char,std::char_traits<char>,std::allocator<char> >::_Inside, COMDAT
; _this$ = ecx

; 2238 : 		{	// test if _Ptr points inside string

  00000	55		 push	 ebp
  00001	8b ec		 mov	 ebp, esp

; 2239 : 		if (_Ptr == nullptr_t{} || _Ptr < this->_Myptr()
; 2240 : 			|| this->_Myptr() + this->_Mysize() <= _Ptr)

  00003	8b 55 08	 mov	 edx, DWORD PTR __Ptr$[ebp]
  00006	56		 push	 esi
  00007	85 d2		 test	 edx, edx
  00009	74 2d		 je	 SHORT $LN4@Inside
  0000b	8b 41 14	 mov	 eax, DWORD PTR [ecx+20]
  0000e	83 f8 10	 cmp	 eax, 16			; 00000010H
  00011	72 04		 jb	 SHORT $LN16@Inside
  00013	8b 31		 mov	 esi, DWORD PTR [ecx]
  00015	eb 02		 jmp	 SHORT $LN17@Inside
$LN16@Inside:
  00017	8b f1		 mov	 esi, ecx
$LN17@Inside:
  00019	3b d6		 cmp	 edx, esi
  0001b	72 1b		 jb	 SHORT $LN4@Inside
  0001d	83 f8 10	 cmp	 eax, 16			; 00000010H
  00020	72 04		 jb	 SHORT $LN30@Inside
  00022	8b 31		 mov	 esi, DWORD PTR [ecx]
  00024	eb 02		 jmp	 SHORT $LN31@Inside
$LN30@Inside:
  00026	8b f1		 mov	 esi, ecx
$LN31@Inside:
  00028	8b 41 10	 mov	 eax, DWORD PTR [ecx+16]
  0002b	03 c6		 add	 eax, esi
  0002d	3b c2		 cmp	 eax, edx
  0002f	76 07		 jbe	 SHORT $LN4@Inside

; 2242 : 		else
; 2243 : 			return (true);

  00031	b0 01		 mov	 al, 1
  00033	5e		 pop	 esi

; 2244 : 		}

  00034	5d		 pop	 ebp
  00035	c2 04 00	 ret	 4
$LN4@Inside:

; 2241 : 			return (false);	// don't ask

  00038	32 c0		 xor	 al, al
  0003a	5e		 pop	 esi

; 2244 : 		}

  0003b	5d		 pop	 ebp
  0003c	c2 04 00	 ret	 4
?_Inside@?$basic_string@DU?$char_traits@D@std@@V?$allocator@D@2@@std@@QAE_NPBD@Z ENDP ; std::basic_string<char,std::char_traits<char>,std::allocator<char> >::_Inside
_TEXT	ENDS
; Function compile flags: /Ogtp
; File c:\program files (x86)\microsoft visual studio 14.0\vc\include\xstring
;	COMDAT ?_Grow@?$basic_string@DU?$char_traits@D@std@@V?$allocator@D@2@@std@@QAE_NI_N@Z
_TEXT	SEGMENT
__Newsize$ = 8						; size = 4
__Trim$ = 12						; size = 1
?_Grow@?$basic_string@DU?$char_traits@D@std@@V?$allocator@D@2@@std@@QAE_NI_N@Z PROC ; std::basic_string<char,std::char_traits<char>,std::allocator<char> >::_Grow, COMDAT
; _this$ = ecx

; 2224 : 		{	// ensure buffer is big enough, trim to size if _Trim is true

  00000	55		 push	 ebp
  00001	8b ec		 mov	 ebp, esp
  00003	56		 push	 esi

; 2225 : 		if (max_size() < _Newsize)

  00004	8b 75 08	 mov	 esi, DWORD PTR __Newsize$[ebp]
  00007	83 fe fe	 cmp	 esi, -2			; fffffffeH
  0000a	77 59		 ja	 SHORT $LN89@Grow

; 2227 : 		if (this->_Myres() < _Newsize)

  0000c	39 71 14	 cmp	 DWORD PTR [ecx+20], esi
  0000f	73 13		 jae	 SHORT $LN3@Grow

; 2228 : 			_Copy(_Newsize, this->_Mysize());	// reallocate to grow

  00011	ff 71 10	 push	 DWORD PTR [ecx+16]
  00014	56		 push	 esi
  00015	e8 00 00 00 00	 call	 ?_Copy@?$basic_string@DU?$char_traits@D@std@@V?$allocator@D@2@@std@@QAEXII@Z ; std::basic_string<char,std::char_traits<char>,std::allocator<char> >::_Copy
  0001a	85 f6		 test	 esi, esi
  0001c	5e		 pop	 esi
  0001d	0f 95 c0	 setne	 al

; 2234 : 		return (0 < _Newsize);	// return true only if more work to do
; 2235 : 		}

  00020	5d		 pop	 ebp
  00021	c2 08 00	 ret	 8
$LN3@Grow:

; 2229 : 		else if (_Trim && _Newsize < this->_BUF_SIZE)

  00024	80 7d 0c 00	 cmp	 BYTE PTR __Trim$[ebp], 0
  00028	74 1f		 je	 SHORT $LN5@Grow
  0002a	83 fe 10	 cmp	 esi, 16			; 00000010H
  0002d	73 1a		 jae	 SHORT $LN5@Grow

; 2230 : 			_Tidy(true,	// copy and deallocate if trimming to small string

  0002f	8b 41 10	 mov	 eax, DWORD PTR [ecx+16]
  00032	3b f0		 cmp	 esi, eax
  00034	0f 42 c6	 cmovb	 eax, esi
  00037	50		 push	 eax
  00038	6a 01		 push	 1
  0003a	e8 00 00 00 00	 call	 ?_Tidy@?$basic_string@DU?$char_traits@D@std@@V?$allocator@D@2@@std@@QAEX_NI@Z ; std::basic_string<char,std::char_traits<char>,std::allocator<char> >::_Tidy
  0003f	85 f6		 test	 esi, esi
  00041	5e		 pop	 esi
  00042	0f 95 c0	 setne	 al

; 2234 : 		return (0 < _Newsize);	// return true only if more work to do
; 2235 : 		}

  00045	5d		 pop	 ebp
  00046	c2 08 00	 ret	 8
$LN5@Grow:

; 2231 : 				_Newsize < this->_Mysize() ? _Newsize : this->_Mysize());
; 2232 : 		else if (_Newsize == 0)

  00049	85 f6		 test	 esi, esi
  0004b	75 10		 jne	 SHORT $LN88@Grow

; 2233 : 			_Eos(0);	// new size is zero, just null terminate

  0004d	83 79 14 10	 cmp	 DWORD PTR [ecx+20], 16	; 00000010H
  00051	89 71 10	 mov	 DWORD PTR [ecx+16], esi
  00054	72 02		 jb	 SHORT $LN80@Grow
  00056	8b 09		 mov	 ecx, DWORD PTR [ecx]
$LN80@Grow:
  00058	c6 01 00	 mov	 BYTE PTR [ecx], 0
  0005b	85 f6		 test	 esi, esi
$LN88@Grow:
  0005d	0f 95 c0	 setne	 al
  00060	5e		 pop	 esi

; 2234 : 		return (0 < _Newsize);	// return true only if more work to do
; 2235 : 		}

  00061	5d		 pop	 ebp
  00062	c2 08 00	 ret	 8
$LN89@Grow:

; 2226 : 			_Xlen();	// result too long

  00065	68 00 00 00 00	 push	 OFFSET ??_C@_0BA@JFNIOLAK@string?5too?5long?$AA@
  0006a	e8 00 00 00 00	 call	 ?_Xlength_error@std@@YAXPBD@Z ; std::_Xlength_error
$LN91@Grow:
$LN87@Grow:
  0006f	cc		 int	 3
?_Grow@?$basic_string@DU?$char_traits@D@std@@V?$allocator@D@2@@std@@QAE_NI_N@Z ENDP ; std::basic_string<char,std::char_traits<char>,std::allocator<char> >::_Grow
_TEXT	ENDS
; Function compile flags: /Ogtp
; File c:\program files (x86)\microsoft visual studio 14.0\vc\include\xstring
;	COMDAT ?_Eos@?$basic_string@DU?$char_traits@D@std@@V?$allocator@D@2@@std@@QAEXI@Z
_TEXT	SEGMENT
__Newsize$ = 8						; size = 4
?_Eos@?$basic_string@DU?$char_traits@D@std@@V?$allocator@D@2@@std@@QAEXI@Z PROC ; std::basic_string<char,std::char_traits<char>,std::allocator<char> >::_Eos, COMDAT
; _this$ = ecx

; 2217 : 		{	// set new length and null terminator

  00000	55		 push	 ebp
  00001	8b ec		 mov	 ebp, esp

; 2218 : 		auto& _Dx = this->_Get_data();
; 2219 : 		_Traits::assign(_Dx._Myptr()[_Dx._Mysize = _Newsize], _Elem());

  00003	83 79 14 10	 cmp	 DWORD PTR [ecx+20], 16	; 00000010H
  00007	8b 55 08	 mov	 edx, DWORD PTR __Newsize$[ebp]
  0000a	89 51 10	 mov	 DWORD PTR [ecx+16], edx
  0000d	72 0a		 jb	 SHORT $LN11@Eos
  0000f	8b 01		 mov	 eax, DWORD PTR [ecx]
  00011	c6 04 10 00	 mov	 BYTE PTR [eax+edx], 0

; 2220 : 		}

  00015	5d		 pop	 ebp
  00016	c2 04 00	 ret	 4

; 2218 : 		auto& _Dx = this->_Get_data();
; 2219 : 		_Traits::assign(_Dx._Myptr()[_Dx._Mysize = _Newsize], _Elem());

$LN11@Eos:
  00019	c6 04 11 00	 mov	 BYTE PTR [ecx+edx], 0

; 2220 : 		}

  0001d	5d		 pop	 ebp
  0001e	c2 04 00	 ret	 4
?_Eos@?$basic_string@DU?$char_traits@D@std@@V?$allocator@D@2@@std@@QAEXI@Z ENDP ; std::basic_string<char,std::char_traits<char>,std::allocator<char> >::_Eos
_TEXT	ENDS
; Function compile flags: /Ogtp
; File c:\program files (x86)\microsoft visual studio 14.0\vc\include\xstring
;	COMDAT ?_Copy@?$basic_string@DU?$char_traits@D@std@@V?$allocator@D@2@@std@@QAEXII@Z
_TEXT	SEGMENT
__Ptr$ = -24						; size = 4
_this$ = -20						; size = 4
__$EHRec$ = -16						; size = 16
__Newres$ = 8						; size = 4
__Newsize$ = 8						; size = 4
__Oldlen$ = 12						; size = 4
?_Copy@?$basic_string@DU?$char_traits@D@std@@V?$allocator@D@2@@std@@QAEXII@Z PROC ; std::basic_string<char,std::char_traits<char>,std::allocator<char> >::_Copy, COMDAT
; _this$ = ecx

; 2182 : 		{	// copy _Oldlen elements to newly allocated buffer

  00000	55		 push	 ebp
  00001	8b ec		 mov	 ebp, esp
  00003	6a ff		 push	 -1
  00005	68 00 00 00 00	 push	 __ehhandler$?_Copy@?$basic_string@DU?$char_traits@D@std@@V?$allocator@D@2@@std@@QAEXII@Z
  0000a	64 a1 00 00 00
	00		 mov	 eax, DWORD PTR fs:0
  00010	50		 push	 eax
  00011	83 ec 0c	 sub	 esp, 12			; 0000000cH
  00014	53		 push	 ebx
  00015	56		 push	 esi
  00016	57		 push	 edi
  00017	a1 00 00 00 00	 mov	 eax, DWORD PTR ___security_cookie
  0001c	33 c5		 xor	 eax, ebp
  0001e	50		 push	 eax
  0001f	8d 45 f4	 lea	 eax, DWORD PTR __$EHRec$[ebp+4]
  00022	64 a3 00 00 00
	00		 mov	 DWORD PTR fs:0, eax
  00028	89 65 f0	 mov	 DWORD PTR __$EHRec$[ebp], esp
  0002b	8b f1		 mov	 esi, ecx
  0002d	89 75 ec	 mov	 DWORD PTR _this$[ebp], esi

; 2183 : 		size_type _Newres = _Newsize | this->_ALLOC_MASK;

  00030	8b 45 08	 mov	 eax, DWORD PTR __Newsize$[ebp]
  00033	8b f8		 mov	 edi, eax
  00035	83 cf 0f	 or	 edi, 15			; 0000000fH

; 2184 : 		if (max_size() < _Newres)

  00038	83 ff fe	 cmp	 edi, -2			; fffffffeH
  0003b	76 04		 jbe	 SHORT $LN2@Copy

; 2185 : 			_Newres = _Newsize;	// undo roundup if too big

  0003d	8b f8		 mov	 edi, eax
  0003f	eb 27		 jmp	 SHORT $LN108@Copy
$LN2@Copy:

; 2186 : 		else if (this->_Myres() / 2 <= _Newres / 3)

  00041	8b 5e 14	 mov	 ebx, DWORD PTR [esi+20]
  00044	b8 ab aa aa aa	 mov	 eax, -1431655765	; aaaaaaabH
  00049	f7 e7		 mul	 edi
  0004b	8b cb		 mov	 ecx, ebx
  0004d	d1 e9		 shr	 ecx, 1
  0004f	d1 ea		 shr	 edx, 1
  00051	3b ca		 cmp	 ecx, edx
  00053	76 13		 jbe	 SHORT $LN108@Copy

; 2187 : 			;
; 2188 : 		else if (this->_Myres() <= max_size() - this->_Myres() / 2)

  00055	b8 fe ff ff ff	 mov	 eax, -2			; fffffffeH

; 2189 : 			_Newres = this->_Myres()

  0005a	8d 3c 19	 lea	 edi, DWORD PTR [ecx+ebx]
  0005d	2b c1		 sub	 eax, ecx
  0005f	3b d8		 cmp	 ebx, eax
  00061	76 05		 jbe	 SHORT $LN108@Copy

; 2190 : 				+ this->_Myres() / 2;	// grow exponentially if possible
; 2191 : 		else
; 2192 : 			_Newres = max_size();	// settle for max_size()

  00063	bf fe ff ff ff	 mov	 edi, -2			; fffffffeH
$LN108@Copy:

; 2193 : 
; 2194 : 		pointer _Ptr;
; 2195 : 		_TRY_BEGIN
; 2196 : 			_Ptr = this->_Getal().allocate(_Newres + 1);

  00068	8d 47 01	 lea	 eax, DWORD PTR [edi+1]
  0006b	c7 45 fc 00 00
	00 00		 mov	 DWORD PTR __$EHRec$[ebp+12], 0
  00072	85 c0		 test	 eax, eax
  00074	75 04		 jne	 SHORT $LN136@Copy
  00076	33 db		 xor	 ebx, ebx
  00078	eb 6d		 jmp	 SHORT $LN19@Copy
$LN136@Copy:
  0007a	3d 00 10 00 00	 cmp	 eax, 4096		; 00001000H
  0007f	72 29		 jb	 SHORT $LN138@Copy
  00081	8d 48 23	 lea	 ecx, DWORD PTR [eax+35]
  00084	3b c8		 cmp	 ecx, eax
  00086	77 05		 ja	 SHORT $LN140@Copy
  00088	e8 00 00 00 00	 call	 ?_Xbad_alloc@std@@YAXXZ	; std::_Xbad_alloc
$LN435@Copy:
$LN140@Copy:
  0008d	51		 push	 ecx
  0008e	e8 00 00 00 00	 call	 ??2@YAPAXI@Z		; operator new
  00093	83 c4 04	 add	 esp, 4
  00096	85 c0		 test	 eax, eax
  00098	75 05		 jne	 SHORT $LN141@Copy
  0009a	e8 00 00 00 00	 call	 __invalid_parameter_noinfo_noreturn
$LN436@Copy:
$LN141@Copy:
  0009f	8d 58 23	 lea	 ebx, DWORD PTR [eax+35]
  000a2	83 e3 e0	 and	 ebx, -32		; ffffffe0H
  000a5	89 43 fc	 mov	 DWORD PTR [ebx-4], eax
  000a8	eb 3d		 jmp	 SHORT $LN19@Copy
$LN138@Copy:
  000aa	50		 push	 eax
  000ab	e8 00 00 00 00	 call	 ??2@YAPAXI@Z		; operator new
  000b0	8b d8		 mov	 ebx, eax
  000b2	83 c4 04	 add	 esp, 4
  000b5	85 db		 test	 ebx, ebx
  000b7	75 2e		 jne	 SHORT $LN19@Copy
  000b9	e8 00 00 00 00	 call	 __invalid_parameter_noinfo_noreturn
$LN437@Copy:
__catch$?_Copy@?$basic_string@DU?$char_traits@D@std@@V?$allocator@D@2@@std@@QAEXII@Z$0:

; 2197 : 		_CATCH_ALL
; 2198 : 			_Newres = _Newsize;	// allocation failed, undo roundup and retry

  000be	8b 45 08	 mov	 eax, DWORD PTR __Newsize$[ebp]

; 2199 : 			_TRY_BEGIN
; 2200 : 				_Ptr = this->_Getal().allocate(_Newres + 1);

  000c1	8b 4d ec	 mov	 ecx, DWORD PTR _this$[ebp]
  000c4	89 45 08	 mov	 DWORD PTR __Newres$[ebp], eax
  000c7	40		 inc	 eax
  000c8	89 65 f0	 mov	 DWORD PTR __$EHRec$[ebp], esp
  000cb	50		 push	 eax
  000cc	c6 45 fc 02	 mov	 BYTE PTR __$EHRec$[ebp+12], 2
  000d0	e8 00 00 00 00	 call	 ?allocate@?$_Wrap_alloc@V?$allocator@D@std@@@std@@QAEPADI@Z ; std::_Wrap_alloc<std::allocator<char> >::allocate
  000d5	89 45 e8	 mov	 DWORD PTR __Ptr$[ebp], eax

; 2204 : 			_CATCH_END
; 2205 : 		_CATCH_END

  000d8	b8 00 00 00 00	 mov	 eax, $LN432@Copy
  000dd	c3		 ret	 0
$LN432@Copy:
  000de	8b 75 ec	 mov	 esi, DWORD PTR _this$[ebp]
  000e1	8b 7d 08	 mov	 edi, DWORD PTR __Newres$[ebp]
  000e4	8b 5d e8	 mov	 ebx, DWORD PTR __Ptr$[ebp]
$LN19@Copy:

; 2206 : 
; 2207 : 		if (0 < _Oldlen)

  000e7	8b 45 0c	 mov	 eax, DWORD PTR __Oldlen$[ebp]
  000ea	85 c0		 test	 eax, eax
  000ec	74 1b		 je	 SHORT $LN270@Copy

; 2208 : 			_Traits::copy(_Unfancy(_Ptr), this->_Myptr(),

  000ee	83 7e 14 10	 cmp	 DWORD PTR [esi+20], 16	; 00000010H
  000f2	72 04		 jb	 SHORT $LN261@Copy
  000f4	8b 0e		 mov	 ecx, DWORD PTR [esi]
  000f6	eb 02		 jmp	 SHORT $LN262@Copy
$LN261@Copy:
  000f8	8b ce		 mov	 ecx, esi
$LN262@Copy:
  000fa	85 c0		 test	 eax, eax
  000fc	74 0b		 je	 SHORT $LN270@Copy
  000fe	50		 push	 eax
  000ff	51		 push	 ecx
  00100	53		 push	 ebx
  00101	e8 00 00 00 00	 call	 _memcpy
  00106	83 c4 0c	 add	 esp, 12			; 0000000cH
$LN270@Copy:

; 2209 : 				_Oldlen);	// copy existing elements
; 2210 : 		_Tidy(true);

  00109	8b 46 14	 mov	 eax, DWORD PTR [esi+20]
  0010c	83 f8 10	 cmp	 eax, 16			; 00000010H
  0010f	72 0b		 jb	 SHORT $LN274@Copy
  00111	40		 inc	 eax
  00112	8b ce		 mov	 ecx, esi
  00114	50		 push	 eax
  00115	ff 36		 push	 DWORD PTR [esi]
  00117	e8 00 00 00 00	 call	 ?deallocate@?$_Wrap_alloc@V?$allocator@D@std@@@std@@QAEXPADI@Z ; std::_Wrap_alloc<std::allocator<char> >::deallocate
$LN274@Copy:
  0011c	c7 46 14 0f 00
	00 00		 mov	 DWORD PTR [esi+20], 15	; 0000000fH
  00123	83 7e 14 10	 cmp	 DWORD PTR [esi+20], 16	; 00000010H
  00127	c7 46 10 00 00
	00 00		 mov	 DWORD PTR [esi+16], 0
  0012e	72 04		 jb	 SHORT $LN362@Copy
  00130	8b 06		 mov	 eax, DWORD PTR [esi]
  00132	eb 02		 jmp	 SHORT $LN363@Copy
$LN362@Copy:
  00134	8b c6		 mov	 eax, esi
$LN363@Copy:
  00136	c6 00 00	 mov	 BYTE PTR [eax], 0

; 2211 : 		this->_Getal().construct(_STD addressof(this->_Bx()._Ptr), _Ptr);
; 2212 : 		this->_Myres() = _Newres;
; 2213 : 		_Eos(_Oldlen);

  00139	8b 45 0c	 mov	 eax, DWORD PTR __Oldlen$[ebp]
  0013c	89 1e		 mov	 DWORD PTR [esi], ebx
  0013e	89 7e 14	 mov	 DWORD PTR [esi+20], edi
  00141	83 7e 14 10	 cmp	 DWORD PTR [esi+20], 16	; 00000010H
  00145	89 46 10	 mov	 DWORD PTR [esi+16], eax
  00148	72 02		 jb	 SHORT $LN426@Copy
  0014a	8b f3		 mov	 esi, ebx
$LN426@Copy:
  0014c	c6 04 06 00	 mov	 BYTE PTR [esi+eax], 0

; 2214 : 		}

  00150	8b 4d f4	 mov	 ecx, DWORD PTR __$EHRec$[ebp+4]
  00153	64 89 0d 00 00
	00 00		 mov	 DWORD PTR fs:0, ecx
  0015a	59		 pop	 ecx
  0015b	5f		 pop	 edi
  0015c	5e		 pop	 esi
  0015d	5b		 pop	 ebx
  0015e	8b e5		 mov	 esp, ebp
  00160	5d		 pop	 ebp
  00161	c2 08 00	 ret	 8
__catch$?_Copy@?$basic_string@DU?$char_traits@D@std@@V?$allocator@D@2@@std@@QAEXII@Z$1:

; 2201 : 			_CATCH_ALL
; 2202 : 			_Tidy(true);	// failed again, discard storage and reraise

  00164	8b 75 ec	 mov	 esi, DWORD PTR _this$[ebp]
  00167	8b 46 14	 mov	 eax, DWORD PTR [esi+20]
  0016a	83 f8 10	 cmp	 eax, 16			; 00000010H
  0016d	72 0b		 jb	 SHORT $LN156@Copy
  0016f	40		 inc	 eax
  00170	8b ce		 mov	 ecx, esi
  00172	50		 push	 eax
  00173	ff 36		 push	 DWORD PTR [esi]
  00175	e8 00 00 00 00	 call	 ?deallocate@?$_Wrap_alloc@V?$allocator@D@std@@@std@@QAEXPADI@Z ; std::_Wrap_alloc<std::allocator<char> >::deallocate
$LN156@Copy:
  0017a	c7 46 14 0f 00
	00 00		 mov	 DWORD PTR [esi+20], 15	; 0000000fH
  00181	83 7e 14 10	 cmp	 DWORD PTR [esi+20], 16	; 00000010H
  00185	c7 46 10 00 00
	00 00		 mov	 DWORD PTR [esi+16], 0
  0018c	72 02		 jb	 SHORT $LN245@Copy
  0018e	8b 36		 mov	 esi, DWORD PTR [esi]
$LN245@Copy:

; 2203 : 			_RERAISE;

  00190	6a 00		 push	 0
  00192	6a 00		 push	 0
  00194	c6 06 00	 mov	 BYTE PTR [esi], 0
  00197	e8 00 00 00 00	 call	 __CxxThrowException@8
$LN438@Copy:
$LN434@Copy:
  0019c	cc		 int	 3
_TEXT	ENDS
;	COMDAT text$x
text$x	SEGMENT
__ehhandler$?_Copy@?$basic_string@DU?$char_traits@D@std@@V?$allocator@D@2@@std@@QAEXII@Z:
  00000	8b 54 24 08	 mov	 edx, DWORD PTR [esp+8]
  00004	8d 42 0c	 lea	 eax, DWORD PTR [edx+12]
  00007	8b 4a e4	 mov	 ecx, DWORD PTR [edx-28]
  0000a	33 c8		 xor	 ecx, eax
  0000c	e8 00 00 00 00	 call	 @__security_check_cookie@4
  00011	b8 00 00 00 00	 mov	 eax, OFFSET __ehfuncinfo$?_Copy@?$basic_string@DU?$char_traits@D@std@@V?$allocator@D@2@@std@@QAEXII@Z
  00016	e9 00 00 00 00	 jmp	 ___CxxFrameHandler3
text$x	ENDS
?_Copy@?$basic_string@DU?$char_traits@D@std@@V?$allocator@D@2@@std@@QAEXII@Z ENDP ; std::basic_string<char,std::char_traits<char>,std::allocator<char> >::_Copy
; Function compile flags: /Ogtp
; File c:\program files (x86)\microsoft visual studio 14.0\vc\include\xstring
;	COMDAT ?_Clamp_suffix_size@?$basic_string@DU?$char_traits@D@std@@V?$allocator@D@2@@std@@QBEIII@Z
_TEXT	SEGMENT
__Off$ = 8						; size = 4
__Size$ = 12						; size = 4
?_Clamp_suffix_size@?$basic_string@DU?$char_traits@D@std@@V?$allocator@D@2@@std@@QBEIII@Z PROC ; std::basic_string<char,std::char_traits<char>,std::allocator<char> >::_Clamp_suffix_size, COMDAT
; _this$ = ecx

; 2111 : 		{	// trims _Size to the longest it can be assuming a string starting at _Off

  00000	55		 push	 ebp
  00001	8b ec		 mov	 ebp, esp

; 2112 : 		const size_type _Max_effective_size = this->_Mysize() - _Off;

  00003	8b 41 10	 mov	 eax, DWORD PTR [ecx+16]
  00006	2b 45 08	 sub	 eax, DWORD PTR __Off$[ebp]

; 2113 : 		if (_Size <= _Max_effective_size)

  00009	39 45 0c	 cmp	 DWORD PTR __Size$[ebp], eax
  0000c	0f 46 45 0c	 cmovbe	 eax, DWORD PTR __Size$[ebp]

; 2114 : 			return (_Size);
; 2115 : 		else
; 2116 : 			return (_Max_effective_size);
; 2117 : 		}

  00010	5d		 pop	 ebp
  00011	c2 08 00	 ret	 8
?_Clamp_suffix_size@?$basic_string@DU?$char_traits@D@std@@V?$allocator@D@2@@std@@QBEIII@Z ENDP ; std::basic_string<char,std::char_traits<char>,std::allocator<char> >::_Clamp_suffix_size
_TEXT	ENDS
; Function compile flags: /Ogtp
; File c:\program files (x86)\microsoft visual studio 14.0\vc\include\xstring
;	COMDAT ?max_size@?$basic_string@DU?$char_traits@D@std@@V?$allocator@D@2@@std@@QBEIXZ
_TEXT	SEGMENT
?max_size@?$basic_string@DU?$char_traits@D@std@@V?$allocator@D@2@@std@@QBEIXZ PROC ; std::basic_string<char,std::char_traits<char>,std::allocator<char> >::max_size, COMDAT
; _this$ = ecx

; 1770 : 		const size_type _Num = this->_Getal().max_size();
; 1771 : 		return (_Num <= 1 ? 1 : _Num - 1);

  00000	b8 fe ff ff ff	 mov	 eax, -2			; fffffffeH

; 1772 : 		}

  00005	c3		 ret	 0
?max_size@?$basic_string@DU?$char_traits@D@std@@V?$allocator@D@2@@std@@QBEIXZ ENDP ; std::basic_string<char,std::char_traits<char>,std::allocator<char> >::max_size
_TEXT	ENDS
; Function compile flags: /Ogtp
; File c:\program files (x86)\microsoft visual studio 14.0\vc\include\xstring
;	COMDAT ?c_str@?$basic_string@DU?$char_traits@D@std@@V?$allocator@D@2@@std@@QBEPBDXZ
_TEXT	SEGMENT
?c_str@?$basic_string@DU?$char_traits@D@std@@V?$allocator@D@2@@std@@QBEPBDXZ PROC ; std::basic_string<char,std::char_traits<char>,std::allocator<char> >::c_str, COMDAT
; _this$ = ecx

; 1743 : 		return (this->_Myptr());

  00000	83 79 14 10	 cmp	 DWORD PTR [ecx+20], 16	; 00000010H
  00004	72 03		 jb	 SHORT $LN13@c_str
  00006	8b 01		 mov	 eax, DWORD PTR [ecx]

; 1744 : 		}

  00008	c3		 ret	 0

; 1743 : 		return (this->_Myptr());

$LN13@c_str:
  00009	8b c1		 mov	 eax, ecx

; 1744 : 		}

  0000b	c3		 ret	 0
?c_str@?$basic_string@DU?$char_traits@D@std@@V?$allocator@D@2@@std@@QBEPBDXZ ENDP ; std::basic_string<char,std::char_traits<char>,std::allocator<char> >::c_str
_TEXT	ENDS
; Function compile flags: /Ogtp
; File c:\program files (x86)\microsoft visual studio 14.0\vc\include\xstring
;	COMDAT ?erase@?$basic_string@DU?$char_traits@D@std@@V?$allocator@D@2@@std@@QAEAAV12@II@Z
_TEXT	SEGMENT
__Off$ = 8						; size = 4
__Count$ = 12						; size = 4
?erase@?$basic_string@DU?$char_traits@D@std@@V?$allocator@D@2@@std@@QAEAAV12@II@Z PROC ; std::basic_string<char,std::char_traits<char>,std::allocator<char> >::erase, COMDAT
; _this$ = ecx

; 1347 : 		{	// erase elements [_Off, _Off + _Count)

  00000	55		 push	 ebp
  00001	8b ec		 mov	 ebp, esp
  00003	56		 push	 esi
  00004	8b f1		 mov	 esi, ecx

; 1348 : 		_Check_offset(_Off);

  00006	8b 4d 08	 mov	 ecx, DWORD PTR __Off$[ebp]
  00009	57		 push	 edi
  0000a	8b 7e 10	 mov	 edi, DWORD PTR [esi+16]
  0000d	3b f9		 cmp	 edi, ecx
  0000f	72 7e		 jb	 SHORT $LN93@erase

; 1349 : 		if (this->_Mysize() - _Off <= _Count)

  00011	8b 55 0c	 mov	 edx, DWORD PTR __Count$[ebp]
  00014	8b c7		 mov	 eax, edi
  00016	2b c1		 sub	 eax, ecx
  00018	3b c2		 cmp	 eax, edx
  0001a	77 23		 ja	 SHORT $LN2@erase

; 1350 : 			_Eos(_Off);	// erase elements [_Off, ...)

  0001c	89 4e 10	 mov	 DWORD PTR [esi+16], ecx
  0001f	83 7e 14 10	 cmp	 DWORD PTR [esi+20], 16	; 00000010H
  00023	72 0e		 jb	 SHORT $LN41@erase
  00025	8b 06		 mov	 eax, DWORD PTR [esi]
  00027	5f		 pop	 edi
  00028	c6 04 08 00	 mov	 BYTE PTR [eax+ecx], 0

; 1357 : 			}
; 1358 : 		return (*this);

  0002c	8b c6		 mov	 eax, esi
  0002e	5e		 pop	 esi

; 1359 : 		}

  0002f	5d		 pop	 ebp
  00030	c2 08 00	 ret	 8

; 1350 : 			_Eos(_Off);	// erase elements [_Off, ...)

$LN41@erase:
  00033	8b c6		 mov	 eax, esi
  00035	5f		 pop	 edi
  00036	5e		 pop	 esi
  00037	c6 04 08 00	 mov	 BYTE PTR [eax+ecx], 0

; 1359 : 		}

  0003b	5d		 pop	 ebp
  0003c	c2 08 00	 ret	 8
$LN2@erase:

; 1351 : 		else if (0 < _Count)

  0003f	85 d2		 test	 edx, edx
  00041	74 44		 je	 SHORT $LN90@erase

; 1352 : 			{	// move elements down
; 1353 : 			value_type *_Ptr = this->_Myptr() + _Off;

  00043	83 7e 14 10	 cmp	 DWORD PTR [esi+20], 16	; 00000010H
  00047	72 04		 jb	 SHORT $LN58@erase
  00049	8b 06		 mov	 eax, DWORD PTR [esi]
  0004b	eb 02		 jmp	 SHORT $LN59@erase
$LN58@erase:
  0004d	8b c6		 mov	 eax, esi
$LN59@erase:

; 1354 : 			size_type _Newsize = this->_Mysize() - _Count;

  0004f	2b fa		 sub	 edi, edx
  00051	53		 push	 ebx
  00052	8d 1c 08	 lea	 ebx, DWORD PTR [eax+ecx]

; 1355 : 			_Traits::move(_Ptr, _Ptr + _Count, _Newsize - _Off);

  00055	8b c7		 mov	 eax, edi
  00057	2b c1		 sub	 eax, ecx
  00059	74 0e		 je	 SHORT $LN74@erase
  0005b	50		 push	 eax
  0005c	8d 04 13	 lea	 eax, DWORD PTR [ebx+edx]
  0005f	50		 push	 eax
  00060	53		 push	 ebx
  00061	e8 00 00 00 00	 call	 _memmove
  00066	83 c4 0c	 add	 esp, 12			; 0000000cH
$LN74@erase:

; 1356 : 			_Eos(_Newsize);

  00069	83 7e 14 10	 cmp	 DWORD PTR [esi+20], 16	; 00000010H
  0006d	89 7e 10	 mov	 DWORD PTR [esi+16], edi
  00070	5b		 pop	 ebx
  00071	72 0e		 jb	 SHORT $LN85@erase
  00073	8b 06		 mov	 eax, DWORD PTR [esi]
  00075	c6 04 38 00	 mov	 BYTE PTR [eax+edi], 0

; 1357 : 			}
; 1358 : 		return (*this);

  00079	8b c6		 mov	 eax, esi
  0007b	5f		 pop	 edi
  0007c	5e		 pop	 esi

; 1359 : 		}

  0007d	5d		 pop	 ebp
  0007e	c2 08 00	 ret	 8

; 1356 : 			_Eos(_Newsize);

$LN85@erase:
  00081	8b c6		 mov	 eax, esi
  00083	c6 04 38 00	 mov	 BYTE PTR [eax+edi], 0
$LN90@erase:

; 1357 : 			}
; 1358 : 		return (*this);

  00087	5f		 pop	 edi
  00088	8b c6		 mov	 eax, esi
  0008a	5e		 pop	 esi

; 1359 : 		}

  0008b	5d		 pop	 ebp
  0008c	c2 08 00	 ret	 8
$LN93@erase:

; 1348 : 		_Check_offset(_Off);

  0008f	68 00 00 00 00	 push	 OFFSET ??_C@_0BI@CFPLBAOH@invalid?5string?5position?$AA@
  00094	e8 00 00 00 00	 call	 ?_Xout_of_range@std@@YAXPBD@Z ; std::_Xout_of_range
$LN95@erase:
$LN92@erase:
  00099	cc		 int	 3
?erase@?$basic_string@DU?$char_traits@D@std@@V?$allocator@D@2@@std@@QAEAAV12@II@Z ENDP ; std::basic_string<char,std::char_traits<char>,std::allocator<char> >::erase
_TEXT	ENDS
; Function compile flags: /Ogtp
; File c:\program files (x86)\microsoft visual studio 14.0\vc\include\xstring
;	COMDAT ?erase@?$basic_string@DU?$char_traits@D@std@@V?$allocator@D@2@@std@@QAEAAV12@I@Z
_TEXT	SEGMENT
__Off$ = 8						; size = 4
?erase@?$basic_string@DU?$char_traits@D@std@@V?$allocator@D@2@@std@@QAEAAV12@I@Z PROC ; std::basic_string<char,std::char_traits<char>,std::allocator<char> >::erase, COMDAT
; _this$ = ecx

; 1340 : 		{	// erase elements [_Off, ...)

  00000	55		 push	 ebp
  00001	8b ec		 mov	 ebp, esp

; 1341 : 		_Check_offset(_Off);

  00003	8b 45 08	 mov	 eax, DWORD PTR __Off$[ebp]
  00006	39 41 10	 cmp	 DWORD PTR [ecx+16], eax
  00009	72 21		 jb	 SHORT $LN37@erase

; 1342 : 		_Eos(_Off);

  0000b	89 41 10	 mov	 DWORD PTR [ecx+16], eax
  0000e	83 79 14 10	 cmp	 DWORD PTR [ecx+20], 16	; 00000010H
  00012	72 0c		 jb	 SHORT $LN29@erase
  00014	8b 11		 mov	 edx, DWORD PTR [ecx]
  00016	c6 04 02 00	 mov	 BYTE PTR [edx+eax], 0

; 1343 : 		return (*this);

  0001a	8b c1		 mov	 eax, ecx

; 1344 : 		}

  0001c	5d		 pop	 ebp
  0001d	c2 04 00	 ret	 4

; 1342 : 		_Eos(_Off);

$LN29@erase:
  00020	8b d1		 mov	 edx, ecx
  00022	c6 04 02 00	 mov	 BYTE PTR [edx+eax], 0

; 1343 : 		return (*this);

  00026	8b c1		 mov	 eax, ecx

; 1344 : 		}

  00028	5d		 pop	 ebp
  00029	c2 04 00	 ret	 4
$LN37@erase:

; 1341 : 		_Check_offset(_Off);

  0002c	68 00 00 00 00	 push	 OFFSET ??_C@_0BI@CFPLBAOH@invalid?5string?5position?$AA@
  00031	e8 00 00 00 00	 call	 ?_Xout_of_range@std@@YAXPBD@Z ; std::_Xout_of_range
$LN39@erase:
$LN36@erase:
  00036	cc		 int	 3
?erase@?$basic_string@DU?$char_traits@D@std@@V?$allocator@D@2@@std@@QAEAAV12@I@Z ENDP ; std::basic_string<char,std::char_traits<char>,std::allocator<char> >::erase
_TEXT	ENDS
; Function compile flags: /Ogtp
; File c:\program files (x86)\microsoft visual studio 14.0\vc\include\xstring
;	COMDAT ?assign@?$basic_string@DU?$char_traits@D@std@@V?$allocator@D@2@@std@@QAEAAV12@PBD@Z
_TEXT	SEGMENT
__Ptr$ = 8						; size = 4
?assign@?$basic_string@DU?$char_traits@D@std@@V?$allocator@D@2@@std@@QAEAAV12@PBD@Z PROC ; std::basic_string<char,std::char_traits<char>,std::allocator<char> >::assign, COMDAT
; _this$ = ecx

; 1180 : 		{	// assign [_Ptr, <null>)

  00000	55		 push	 ebp
  00001	8b ec		 mov	 ebp, esp
  00003	56		 push	 esi

; 1181 : 		_DEBUG_POINTER(_Ptr);
; 1182 : 		return (assign(_Ptr, _Traits::length(_Ptr)));

  00004	8b 75 08	 mov	 esi, DWORD PTR __Ptr$[ebp]
  00007	80 3e 00	 cmp	 BYTE PTR [esi], 0
  0000a	75 0e		 jne	 SHORT $LN5@assign
  0000c	33 d2		 xor	 edx, edx
  0000e	52		 push	 edx
  0000f	56		 push	 esi
  00010	e8 00 00 00 00	 call	 ?assign@?$basic_string@DU?$char_traits@D@std@@V?$allocator@D@2@@std@@QAEAAV12@PBDI@Z ; std::basic_string<char,std::char_traits<char>,std::allocator<char> >::assign
  00015	5e		 pop	 esi

; 1183 : 		}

  00016	5d		 pop	 ebp
  00017	c2 04 00	 ret	 4

; 1181 : 		_DEBUG_POINTER(_Ptr);
; 1182 : 		return (assign(_Ptr, _Traits::length(_Ptr)));

$LN5@assign:
  0001a	8b d6		 mov	 edx, esi
  0001c	57		 push	 edi
  0001d	8d 7a 01	 lea	 edi, DWORD PTR [edx+1]
$LL7@assign:
  00020	8a 02		 mov	 al, BYTE PTR [edx]
  00022	42		 inc	 edx
  00023	84 c0		 test	 al, al
  00025	75 f9		 jne	 SHORT $LL7@assign
  00027	2b d7		 sub	 edx, edi
  00029	5f		 pop	 edi
  0002a	52		 push	 edx
  0002b	56		 push	 esi
  0002c	e8 00 00 00 00	 call	 ?assign@?$basic_string@DU?$char_traits@D@std@@V?$allocator@D@2@@std@@QAEAAV12@PBDI@Z ; std::basic_string<char,std::char_traits<char>,std::allocator<char> >::assign
  00031	5e		 pop	 esi

; 1183 : 		}

  00032	5d		 pop	 ebp
  00033	c2 04 00	 ret	 4
?assign@?$basic_string@DU?$char_traits@D@std@@V?$allocator@D@2@@std@@QAEAAV12@PBD@Z ENDP ; std::basic_string<char,std::char_traits<char>,std::allocator<char> >::assign
_TEXT	ENDS
; Function compile flags: /Ogtp
; File c:\program files (x86)\microsoft visual studio 14.0\vc\include\xstring
;	COMDAT ?assign@?$basic_string@DU?$char_traits@D@std@@V?$allocator@D@2@@std@@QAEAAV12@PBDI@Z
_TEXT	SEGMENT
__Ptr$ = 8						; size = 4
__Count$ = 12						; size = 4
?assign@?$basic_string@DU?$char_traits@D@std@@V?$allocator@D@2@@std@@QAEAAV12@PBDI@Z PROC ; std::basic_string<char,std::char_traits<char>,std::allocator<char> >::assign, COMDAT
; _this$ = ecx

; 1165 : 		{	// assign [_Ptr, _Ptr + _Count)

  00000	55		 push	 ebp
  00001	8b ec		 mov	 ebp, esp
  00003	53		 push	 ebx

; 1166 : 		_DEBUG_POINTER_IF(_Count != 0, _Ptr);
; 1167 : 		if (_Inside(_Ptr))

  00004	8b 5d 08	 mov	 ebx, DWORD PTR __Ptr$[ebp]
  00007	56		 push	 esi
  00008	8b f1		 mov	 esi, ecx
  0000a	85 db		 test	 ebx, ebx
  0000c	74 57		 je	 SHORT $LN2@assign
  0000e	8b 4e 14	 mov	 ecx, DWORD PTR [esi+20]
  00011	83 f9 10	 cmp	 ecx, 16			; 00000010H
  00014	72 04		 jb	 SHORT $LN20@assign
  00016	8b 06		 mov	 eax, DWORD PTR [esi]
  00018	eb 02		 jmp	 SHORT $LN21@assign
$LN20@assign:
  0001a	8b c6		 mov	 eax, esi
$LN21@assign:
  0001c	3b d8		 cmp	 ebx, eax
  0001e	72 45		 jb	 SHORT $LN2@assign
  00020	83 f9 10	 cmp	 ecx, 16			; 00000010H
  00023	72 04		 jb	 SHORT $LN34@assign
  00025	8b 16		 mov	 edx, DWORD PTR [esi]
  00027	eb 02		 jmp	 SHORT $LN35@assign
$LN34@assign:
  00029	8b d6		 mov	 edx, esi
$LN35@assign:
  0002b	8b 46 10	 mov	 eax, DWORD PTR [esi+16]
  0002e	03 c2		 add	 eax, edx
  00030	3b c3		 cmp	 eax, ebx
  00032	76 31		 jbe	 SHORT $LN2@assign

; 1168 : 			return (assign(*this,

  00034	83 f9 10	 cmp	 ecx, 16			; 00000010H
  00037	72 16		 jb	 SHORT $LN57@assign
  00039	ff 75 0c	 push	 DWORD PTR __Count$[ebp]
  0003c	8b 06		 mov	 eax, DWORD PTR [esi]
  0003e	8b ce		 mov	 ecx, esi
  00040	2b d8		 sub	 ebx, eax
  00042	53		 push	 ebx
  00043	56		 push	 esi
  00044	e8 00 00 00 00	 call	 ?assign@?$basic_string@DU?$char_traits@D@std@@V?$allocator@D@2@@std@@QAEAAV12@ABV12@II@Z ; std::basic_string<char,std::char_traits<char>,std::allocator<char> >::assign
  00049	5e		 pop	 esi
  0004a	5b		 pop	 ebx

; 1177 : 		}

  0004b	5d		 pop	 ebp
  0004c	c2 08 00	 ret	 8

; 1168 : 			return (assign(*this,

$LN57@assign:
  0004f	ff 75 0c	 push	 DWORD PTR __Count$[ebp]
  00052	8b c6		 mov	 eax, esi
  00054	8b ce		 mov	 ecx, esi
  00056	2b d8		 sub	 ebx, eax
  00058	53		 push	 ebx
  00059	56		 push	 esi
  0005a	e8 00 00 00 00	 call	 ?assign@?$basic_string@DU?$char_traits@D@std@@V?$allocator@D@2@@std@@QAEAAV12@ABV12@II@Z ; std::basic_string<char,std::char_traits<char>,std::allocator<char> >::assign
  0005f	5e		 pop	 esi
  00060	5b		 pop	 ebx

; 1177 : 		}

  00061	5d		 pop	 ebp
  00062	c2 08 00	 ret	 8
$LN2@assign:
  00065	57		 push	 edi

; 1169 : 				_Ptr - this->_Myptr(), _Count));	// substring
; 1170 : 
; 1171 : 		if (_Grow(_Count))

  00066	8b 7d 0c	 mov	 edi, DWORD PTR __Count$[ebp]
  00069	83 ff fe	 cmp	 edi, -2			; fffffffeH
  0006c	77 7d		 ja	 SHORT $LN187@assign
  0006e	39 7e 14	 cmp	 DWORD PTR [esi+20], edi
  00071	73 19		 jae	 SHORT $LN63@assign
  00073	ff 76 10	 push	 DWORD PTR [esi+16]
  00076	8b ce		 mov	 ecx, esi
  00078	57		 push	 edi
  00079	e8 00 00 00 00	 call	 ?_Copy@?$basic_string@DU?$char_traits@D@std@@V?$allocator@D@2@@std@@QAEXII@Z ; std::basic_string<char,std::char_traits<char>,std::allocator<char> >::_Copy
  0007e	85 ff		 test	 edi, edi
  00080	74 60		 je	 SHORT $LN181@assign
$LN186@assign:

; 1172 : 			{	// make room and assign new stuff
; 1173 : 			_Traits::copy(this->_Myptr(), _Ptr, _Count);

  00082	83 7e 14 10	 cmp	 DWORD PTR [esi+20], 16	; 00000010H
  00086	72 2b		 jb	 SHORT $LN158@assign
  00088	8b 06		 mov	 eax, DWORD PTR [esi]
  0008a	eb 29		 jmp	 SHORT $LN159@assign

; 1169 : 				_Ptr - this->_Myptr(), _Count));	// substring
; 1170 : 
; 1171 : 		if (_Grow(_Count))

$LN63@assign:
  0008c	85 ff		 test	 edi, edi
  0008e	75 f2		 jne	 SHORT $LN186@assign
  00090	83 7e 14 10	 cmp	 DWORD PTR [esi+20], 16	; 00000010H
  00094	89 7e 10	 mov	 DWORD PTR [esi+16], edi
  00097	72 0e		 jb	 SHORT $LN140@assign
  00099	8b 06		 mov	 eax, DWORD PTR [esi]
  0009b	5f		 pop	 edi
  0009c	c6 00 00	 mov	 BYTE PTR [eax], 0

; 1175 : 			}
; 1176 : 		return (*this);

  0009f	8b c6		 mov	 eax, esi
  000a1	5e		 pop	 esi
  000a2	5b		 pop	 ebx

; 1177 : 		}

  000a3	5d		 pop	 ebp
  000a4	c2 08 00	 ret	 8

; 1169 : 				_Ptr - this->_Myptr(), _Count));	// substring
; 1170 : 
; 1171 : 		if (_Grow(_Count))

$LN140@assign:
  000a7	8b c6		 mov	 eax, esi
  000a9	5f		 pop	 edi
  000aa	5e		 pop	 esi
  000ab	5b		 pop	 ebx
  000ac	c6 00 00	 mov	 BYTE PTR [eax], 0

; 1177 : 		}

  000af	5d		 pop	 ebp
  000b0	c2 08 00	 ret	 8

; 1172 : 			{	// make room and assign new stuff
; 1173 : 			_Traits::copy(this->_Myptr(), _Ptr, _Count);

$LN158@assign:
  000b3	8b c6		 mov	 eax, esi
$LN159@assign:
  000b5	85 ff		 test	 edi, edi
  000b7	74 0b		 je	 SHORT $LN165@assign
  000b9	57		 push	 edi
  000ba	53		 push	 ebx
  000bb	50		 push	 eax
  000bc	e8 00 00 00 00	 call	 _memcpy
  000c1	83 c4 0c	 add	 esp, 12			; 0000000cH
$LN165@assign:

; 1174 : 			_Eos(_Count);

  000c4	83 7e 14 10	 cmp	 DWORD PTR [esi+20], 16	; 00000010H
  000c8	89 7e 10	 mov	 DWORD PTR [esi+16], edi
  000cb	72 0f		 jb	 SHORT $LN176@assign
  000cd	8b 06		 mov	 eax, DWORD PTR [esi]
  000cf	c6 04 38 00	 mov	 BYTE PTR [eax+edi], 0

; 1175 : 			}
; 1176 : 		return (*this);

  000d3	8b c6		 mov	 eax, esi
  000d5	5f		 pop	 edi
  000d6	5e		 pop	 esi
  000d7	5b		 pop	 ebx

; 1177 : 		}

  000d8	5d		 pop	 ebp
  000d9	c2 08 00	 ret	 8

; 1174 : 			_Eos(_Count);

$LN176@assign:
  000dc	8b c6		 mov	 eax, esi
  000de	c6 04 38 00	 mov	 BYTE PTR [eax+edi], 0
$LN181@assign:

; 1175 : 			}
; 1176 : 		return (*this);

  000e2	5f		 pop	 edi
  000e3	8b c6		 mov	 eax, esi
  000e5	5e		 pop	 esi
  000e6	5b		 pop	 ebx

; 1177 : 		}

  000e7	5d		 pop	 ebp
  000e8	c2 08 00	 ret	 8
$LN187@assign:

; 1169 : 				_Ptr - this->_Myptr(), _Count));	// substring
; 1170 : 
; 1171 : 		if (_Grow(_Count))

  000eb	68 00 00 00 00	 push	 OFFSET ??_C@_0BA@JFNIOLAK@string?5too?5long?$AA@
  000f0	e8 00 00 00 00	 call	 ?_Xlength_error@std@@YAXPBD@Z ; std::_Xlength_error
$LN189@assign:
$LN184@assign:
  000f5	cc		 int	 3
?assign@?$basic_string@DU?$char_traits@D@std@@V?$allocator@D@2@@std@@QAEAAV12@PBDI@Z ENDP ; std::basic_string<char,std::char_traits<char>,std::allocator<char> >::assign
_TEXT	ENDS
; Function compile flags: /Ogtp
; File c:\program files (x86)\microsoft visual studio 14.0\vc\include\xstring
;	COMDAT ?assign@?$basic_string@DU?$char_traits@D@std@@V?$allocator@D@2@@std@@QAEAAV12@ABV12@II@Z
_TEXT	SEGMENT
__Right$ = 8						; size = 4
__Roff$ = 12						; size = 4
__Count$ = 16						; size = 4
?assign@?$basic_string@DU?$char_traits@D@std@@V?$allocator@D@2@@std@@QAEAAV12@ABV12@II@Z PROC ; std::basic_string<char,std::char_traits<char>,std::allocator<char> >::assign, COMDAT
; _this$ = ecx

; 1149 : 		{	// assign _Right [_Roff, _Roff + _Count)

  00000	55		 push	 ebp
  00001	8b ec		 mov	 ebp, esp
  00003	53		 push	 ebx

; 1150 : 		_Right._Check_offset(_Roff);

  00004	8b 5d 08	 mov	 ebx, DWORD PTR __Right$[ebp]
  00007	56		 push	 esi
  00008	8b f1		 mov	 esi, ecx
  0000a	8b 4d 0c	 mov	 ecx, DWORD PTR __Roff$[ebp]
  0000d	57		 push	 edi
  0000e	8b 43 10	 mov	 eax, DWORD PTR [ebx+16]
  00011	3b c1		 cmp	 eax, ecx
  00013	0f 82 e9 00 00
	00		 jb	 $LN208@assign

; 1151 : 		_Count = _Right._Clamp_suffix_size(_Roff, _Count);

  00019	8b 7d 10	 mov	 edi, DWORD PTR __Count$[ebp]
  0001c	2b c1		 sub	 eax, ecx
  0001e	3b f8		 cmp	 edi, eax
  00020	0f 47 f8	 cmova	 edi, eax

; 1152 : 
; 1153 : 		if (this == &_Right)

  00023	3b f3		 cmp	 esi, ebx
  00025	75 47		 jne	 SHORT $LN2@assign

; 1154 : 			erase((size_type)(_Roff + _Count)), erase(0, _Roff);	// substring

  00027	8d 04 39	 lea	 eax, DWORD PTR [ecx+edi]
  0002a	39 46 10	 cmp	 DWORD PTR [esi+16], eax
  0002d	0f 82 d9 00 00
	00		 jb	 $LN210@assign
  00033	89 46 10	 mov	 DWORD PTR [esi+16], eax
  00036	83 7e 14 10	 cmp	 DWORD PTR [esi+20], 16	; 00000010H
  0003a	72 19		 jb	 SHORT $LN63@assign
  0003c	8b 16		 mov	 edx, DWORD PTR [esi]
  0003e	51		 push	 ecx
  0003f	6a 00		 push	 0
  00041	8b ce		 mov	 ecx, esi
  00043	c6 04 02 00	 mov	 BYTE PTR [edx+eax], 0
  00047	e8 00 00 00 00	 call	 ?erase@?$basic_string@DU?$char_traits@D@std@@V?$allocator@D@2@@std@@QAEAAV12@II@Z ; std::basic_string<char,std::char_traits<char>,std::allocator<char> >::erase
  0004c	5f		 pop	 edi

; 1160 : 			}
; 1161 : 		return (*this);

  0004d	8b c6		 mov	 eax, esi
  0004f	5e		 pop	 esi
  00050	5b		 pop	 ebx

; 1162 : 		}

  00051	5d		 pop	 ebp
  00052	c2 0c 00	 ret	 12			; 0000000cH

; 1154 : 			erase((size_type)(_Roff + _Count)), erase(0, _Roff);	// substring

$LN63@assign:
  00055	8b d6		 mov	 edx, esi
  00057	51		 push	 ecx
  00058	6a 00		 push	 0
  0005a	8b ce		 mov	 ecx, esi
  0005c	c6 04 02 00	 mov	 BYTE PTR [edx+eax], 0
  00060	e8 00 00 00 00	 call	 ?erase@?$basic_string@DU?$char_traits@D@std@@V?$allocator@D@2@@std@@QAEAAV12@II@Z ; std::basic_string<char,std::char_traits<char>,std::allocator<char> >::erase
  00065	5f		 pop	 edi

; 1160 : 			}
; 1161 : 		return (*this);

  00066	8b c6		 mov	 eax, esi
  00068	5e		 pop	 esi
  00069	5b		 pop	 ebx

; 1162 : 		}

  0006a	5d		 pop	 ebp
  0006b	c2 0c 00	 ret	 12			; 0000000cH
$LN2@assign:

; 1155 : 		else if (_Grow(_Count))

  0006e	83 ff fe	 cmp	 edi, -2			; fffffffeH
  00071	0f 87 9f 00 00
	00		 ja	 $LN211@assign
  00077	39 7e 14	 cmp	 DWORD PTR [esi+20], edi
  0007a	73 24		 jae	 SHORT $LN72@assign
  0007c	ff 76 10	 push	 DWORD PTR [esi+16]
  0007f	8b ce		 mov	 ecx, esi
  00081	57		 push	 edi
  00082	e8 00 00 00 00	 call	 ?_Copy@?$basic_string@DU?$char_traits@D@std@@V?$allocator@D@2@@std@@QAEXII@Z ; std::basic_string<char,std::char_traits<char>,std::allocator<char> >::_Copy
  00087	8b 4d 0c	 mov	 ecx, DWORD PTR __Roff$[ebp]
  0008a	85 ff		 test	 edi, edi
  0008c	74 6b		 je	 SHORT $LN203@assign
$LN207@assign:

; 1156 : 			{	// make room and assign new stuff
; 1157 : 			_Traits::copy(this->_Myptr(),

  0008e	83 7b 14 10	 cmp	 DWORD PTR [ebx+20], 16	; 00000010H
  00092	72 02		 jb	 SHORT $LN166@assign
  00094	8b 1b		 mov	 ebx, DWORD PTR [ebx]
$LN166@assign:
  00096	83 7e 14 10	 cmp	 DWORD PTR [esi+20], 16	; 00000010H
  0009a	72 2b		 jb	 SHORT $LN180@assign
  0009c	8b 16		 mov	 edx, DWORD PTR [esi]
  0009e	eb 29		 jmp	 SHORT $LN181@assign

; 1155 : 		else if (_Grow(_Count))

$LN72@assign:
  000a0	85 ff		 test	 edi, edi
  000a2	75 ea		 jne	 SHORT $LN207@assign
  000a4	83 7e 14 10	 cmp	 DWORD PTR [esi+20], 16	; 00000010H
  000a8	89 7e 10	 mov	 DWORD PTR [esi+16], edi
  000ab	72 0e		 jb	 SHORT $LN149@assign
  000ad	8b 06		 mov	 eax, DWORD PTR [esi]
  000af	5f		 pop	 edi
  000b0	c6 00 00	 mov	 BYTE PTR [eax], 0

; 1160 : 			}
; 1161 : 		return (*this);

  000b3	8b c6		 mov	 eax, esi
  000b5	5e		 pop	 esi
  000b6	5b		 pop	 ebx

; 1162 : 		}

  000b7	5d		 pop	 ebp
  000b8	c2 0c 00	 ret	 12			; 0000000cH

; 1155 : 		else if (_Grow(_Count))

$LN149@assign:
  000bb	8b c6		 mov	 eax, esi
  000bd	5f		 pop	 edi
  000be	5e		 pop	 esi
  000bf	5b		 pop	 ebx
  000c0	c6 00 00	 mov	 BYTE PTR [eax], 0

; 1162 : 		}

  000c3	5d		 pop	 ebp
  000c4	c2 0c 00	 ret	 12			; 0000000cH

; 1156 : 			{	// make room and assign new stuff
; 1157 : 			_Traits::copy(this->_Myptr(),

$LN180@assign:
  000c7	8b d6		 mov	 edx, esi
$LN181@assign:
  000c9	85 ff		 test	 edi, edi
  000cb	74 0e		 je	 SHORT $LN187@assign
  000cd	57		 push	 edi
  000ce	8d 04 0b	 lea	 eax, DWORD PTR [ebx+ecx]
  000d1	50		 push	 eax
  000d2	52		 push	 edx
  000d3	e8 00 00 00 00	 call	 _memcpy
  000d8	83 c4 0c	 add	 esp, 12			; 0000000cH
$LN187@assign:

; 1158 : 				_Right._Myptr() + _Roff, _Count);
; 1159 : 			_Eos(_Count);

  000db	83 7e 14 10	 cmp	 DWORD PTR [esi+20], 16	; 00000010H
  000df	89 7e 10	 mov	 DWORD PTR [esi+16], edi
  000e2	72 0f		 jb	 SHORT $LN198@assign
  000e4	8b 06		 mov	 eax, DWORD PTR [esi]
  000e6	c6 04 38 00	 mov	 BYTE PTR [eax+edi], 0

; 1160 : 			}
; 1161 : 		return (*this);

  000ea	8b c6		 mov	 eax, esi
  000ec	5f		 pop	 edi
  000ed	5e		 pop	 esi
  000ee	5b		 pop	 ebx

; 1162 : 		}

  000ef	5d		 pop	 ebp
  000f0	c2 0c 00	 ret	 12			; 0000000cH

; 1158 : 				_Right._Myptr() + _Roff, _Count);
; 1159 : 			_Eos(_Count);

$LN198@assign:
  000f3	8b c6		 mov	 eax, esi
  000f5	c6 04 38 00	 mov	 BYTE PTR [eax+edi], 0
$LN203@assign:

; 1160 : 			}
; 1161 : 		return (*this);

  000f9	5f		 pop	 edi
  000fa	8b c6		 mov	 eax, esi
  000fc	5e		 pop	 esi
  000fd	5b		 pop	 ebx

; 1162 : 		}

  000fe	5d		 pop	 ebp
  000ff	c2 0c 00	 ret	 12			; 0000000cH
$LN208@assign:

; 1150 : 		_Right._Check_offset(_Roff);

  00102	68 00 00 00 00	 push	 OFFSET ??_C@_0BI@CFPLBAOH@invalid?5string?5position?$AA@
  00107	e8 00 00 00 00	 call	 ?_Xout_of_range@std@@YAXPBD@Z ; std::_Xout_of_range
$LN212@assign:
$LN210@assign:

; 1154 : 			erase((size_type)(_Roff + _Count)), erase(0, _Roff);	// substring

  0010c	68 00 00 00 00	 push	 OFFSET ??_C@_0BI@CFPLBAOH@invalid?5string?5position?$AA@
  00111	e8 00 00 00 00	 call	 ?_Xout_of_range@std@@YAXPBD@Z ; std::_Xout_of_range
$LN213@assign:
$LN211@assign:

; 1155 : 		else if (_Grow(_Count))

  00116	68 00 00 00 00	 push	 OFFSET ??_C@_0BA@JFNIOLAK@string?5too?5long?$AA@
  0011b	e8 00 00 00 00	 call	 ?_Xlength_error@std@@YAXPBD@Z ; std::_Xlength_error
$LN214@assign:
$LN205@assign:
  00120	cc		 int	 3
?assign@?$basic_string@DU?$char_traits@D@std@@V?$allocator@D@2@@std@@QAEAAV12@ABV12@II@Z ENDP ; std::basic_string<char,std::char_traits<char>,std::allocator<char> >::assign
_TEXT	ENDS
; Function compile flags: /Ogtp
; File c:\program files (x86)\microsoft visual studio 14.0\vc\include\xstring
;	COMDAT ?append@?$basic_string@DU?$char_traits@D@std@@V?$allocator@D@2@@std@@QAEAAV12@PBD@Z
_TEXT	SEGMENT
__Ptr$ = 8						; size = 4
?append@?$basic_string@DU?$char_traits@D@std@@V?$allocator@D@2@@std@@QAEAAV12@PBD@Z PROC ; std::basic_string<char,std::char_traits<char>,std::allocator<char> >::append, COMDAT
; _this$ = ecx

; 1105 : 		{	// append [_Ptr, <null>)

  00000	55		 push	 ebp
  00001	8b ec		 mov	 ebp, esp
  00003	56		 push	 esi

; 1106 : 		_DEBUG_POINTER(_Ptr);
; 1107 : 		return (append(_Ptr, _Traits::length(_Ptr)));

  00004	8b 75 08	 mov	 esi, DWORD PTR __Ptr$[ebp]
  00007	80 3e 00	 cmp	 BYTE PTR [esi], 0
  0000a	75 0e		 jne	 SHORT $LN5@append
  0000c	33 d2		 xor	 edx, edx
  0000e	52		 push	 edx
  0000f	56		 push	 esi
  00010	e8 00 00 00 00	 call	 ?append@?$basic_string@DU?$char_traits@D@std@@V?$allocator@D@2@@std@@QAEAAV12@PBDI@Z ; std::basic_string<char,std::char_traits<char>,std::allocator<char> >::append
  00015	5e		 pop	 esi

; 1108 : 		}

  00016	5d		 pop	 ebp
  00017	c2 04 00	 ret	 4

; 1106 : 		_DEBUG_POINTER(_Ptr);
; 1107 : 		return (append(_Ptr, _Traits::length(_Ptr)));

$LN5@append:
  0001a	8b d6		 mov	 edx, esi
  0001c	57		 push	 edi
  0001d	8d 7a 01	 lea	 edi, DWORD PTR [edx+1]
$LL7@append:
  00020	8a 02		 mov	 al, BYTE PTR [edx]
  00022	42		 inc	 edx
  00023	84 c0		 test	 al, al
  00025	75 f9		 jne	 SHORT $LL7@append
  00027	2b d7		 sub	 edx, edi
  00029	5f		 pop	 edi
  0002a	52		 push	 edx
  0002b	56		 push	 esi
  0002c	e8 00 00 00 00	 call	 ?append@?$basic_string@DU?$char_traits@D@std@@V?$allocator@D@2@@std@@QAEAAV12@PBDI@Z ; std::basic_string<char,std::char_traits<char>,std::allocator<char> >::append
  00031	5e		 pop	 esi

; 1108 : 		}

  00032	5d		 pop	 ebp
  00033	c2 04 00	 ret	 4
?append@?$basic_string@DU?$char_traits@D@std@@V?$allocator@D@2@@std@@QAEAAV12@PBD@Z ENDP ; std::basic_string<char,std::char_traits<char>,std::allocator<char> >::append
_TEXT	ENDS
; Function compile flags: /Ogtp
; File c:\program files (x86)\microsoft visual studio 14.0\vc\include\xstring
;	COMDAT ?append@?$basic_string@DU?$char_traits@D@std@@V?$allocator@D@2@@std@@QAEAAV12@PBDI@Z
_TEXT	SEGMENT
__Ptr$ = 8						; size = 4
__Count$ = 12						; size = 4
?append@?$basic_string@DU?$char_traits@D@std@@V?$allocator@D@2@@std@@QAEAAV12@PBDI@Z PROC ; std::basic_string<char,std::char_traits<char>,std::allocator<char> >::append, COMDAT
; _this$ = ecx

; 1087 : 		{	// append [_Ptr, _Ptr + _Count)

  00000	55		 push	 ebp
  00001	8b ec		 mov	 ebp, esp
  00003	53		 push	 ebx

; 1088 : 		_DEBUG_POINTER_IF(_Count != 0, _Ptr);
; 1089 : 		if (_Inside(_Ptr))

  00004	8b 5d 08	 mov	 ebx, DWORD PTR __Ptr$[ebp]
  00007	56		 push	 esi
  00008	8b f1		 mov	 esi, ecx
  0000a	85 db		 test	 ebx, ebx
  0000c	74 57		 je	 SHORT $LN2@append
  0000e	8b 4e 14	 mov	 ecx, DWORD PTR [esi+20]
  00011	83 f9 10	 cmp	 ecx, 16			; 00000010H
  00014	72 04		 jb	 SHORT $LN21@append
  00016	8b 06		 mov	 eax, DWORD PTR [esi]
  00018	eb 02		 jmp	 SHORT $LN22@append
$LN21@append:
  0001a	8b c6		 mov	 eax, esi
$LN22@append:
  0001c	3b d8		 cmp	 ebx, eax
  0001e	72 45		 jb	 SHORT $LN2@append
  00020	83 f9 10	 cmp	 ecx, 16			; 00000010H
  00023	72 04		 jb	 SHORT $LN35@append
  00025	8b 16		 mov	 edx, DWORD PTR [esi]
  00027	eb 02		 jmp	 SHORT $LN36@append
$LN35@append:
  00029	8b d6		 mov	 edx, esi
$LN36@append:
  0002b	8b 46 10	 mov	 eax, DWORD PTR [esi+16]
  0002e	03 c2		 add	 eax, edx
  00030	3b c3		 cmp	 eax, ebx
  00032	76 31		 jbe	 SHORT $LN2@append

; 1090 : 			return (append(*this,

  00034	83 f9 10	 cmp	 ecx, 16			; 00000010H
  00037	72 16		 jb	 SHORT $LN58@append
  00039	ff 75 0c	 push	 DWORD PTR __Count$[ebp]
  0003c	8b 06		 mov	 eax, DWORD PTR [esi]
  0003e	8b ce		 mov	 ecx, esi
  00040	2b d8		 sub	 ebx, eax
  00042	53		 push	 ebx
  00043	56		 push	 esi
  00044	e8 00 00 00 00	 call	 ?append@?$basic_string@DU?$char_traits@D@std@@V?$allocator@D@2@@std@@QAEAAV12@ABV12@II@Z ; std::basic_string<char,std::char_traits<char>,std::allocator<char> >::append
  00049	5e		 pop	 esi
  0004a	5b		 pop	 ebx

; 1102 : 		}

  0004b	5d		 pop	 ebp
  0004c	c2 08 00	 ret	 8

; 1090 : 			return (append(*this,

$LN58@append:
  0004f	ff 75 0c	 push	 DWORD PTR __Count$[ebp]
  00052	8b c6		 mov	 eax, esi
  00054	8b ce		 mov	 ecx, esi
  00056	2b d8		 sub	 ebx, eax
  00058	53		 push	 ebx
  00059	56		 push	 esi
  0005a	e8 00 00 00 00	 call	 ?append@?$basic_string@DU?$char_traits@D@std@@V?$allocator@D@2@@std@@QAEAAV12@ABV12@II@Z ; std::basic_string<char,std::char_traits<char>,std::allocator<char> >::append
  0005f	5e		 pop	 esi
  00060	5b		 pop	 ebx

; 1102 : 		}

  00061	5d		 pop	 ebp
  00062	c2 08 00	 ret	 8
$LN2@append:

; 1091 : 				_Ptr - this->_Myptr(), _Count));	// substring
; 1092 : 		if (npos - this->_Mysize() <= _Count)

  00065	8b 56 10	 mov	 edx, DWORD PTR [esi+16]
  00068	8b c2		 mov	 eax, edx
  0006a	8b 4d 0c	 mov	 ecx, DWORD PTR __Count$[ebp]
  0006d	f7 d0		 not	 eax
  0006f	3b c1		 cmp	 eax, ecx
  00071	0f 86 98 00 00
	00		 jbe	 $LN217@append

; 1094 : 
; 1095 : 		const size_type _Num = this->_Mysize() + _Count;

  00077	57		 push	 edi
  00078	8d 3c 0a	 lea	 edi, DWORD PTR [edx+ecx]

; 1096 : 		if (0 < _Count && _Grow(_Num))

  0007b	85 c9		 test	 ecx, ecx
  0007d	0f 84 83 00 00
	00		 je	 $LN211@append
  00083	83 ff fe	 cmp	 edi, -2			; fffffffeH
  00086	0f 87 8d 00 00
	00		 ja	 $LN219@append
  0008c	39 7e 14	 cmp	 DWORD PTR [esi+20], edi
  0008f	73 1a		 jae	 SHORT $LN85@append
  00091	52		 push	 edx
  00092	57		 push	 edi
  00093	8b ce		 mov	 ecx, esi
  00095	e8 00 00 00 00	 call	 ?_Copy@?$basic_string@DU?$char_traits@D@std@@V?$allocator@D@2@@std@@QAEXII@Z ; std::basic_string<char,std::char_traits<char>,std::allocator<char> >::_Copy
  0009a	8b 4d 0c	 mov	 ecx, DWORD PTR __Count$[ebp]
  0009d	85 ff		 test	 edi, edi
  0009f	74 65		 je	 SHORT $LN211@append
$LN216@append:

; 1097 : 			{	// make room and append new stuff
; 1098 : 			_Traits::copy(this->_Myptr() + this->_Mysize(), _Ptr, _Count);

  000a1	83 7e 14 10	 cmp	 DWORD PTR [esi+20], 16	; 00000010H
  000a5	72 2b		 jb	 SHORT $LN179@append
  000a7	8b 16		 mov	 edx, DWORD PTR [esi]
  000a9	eb 29		 jmp	 SHORT $LN180@append

; 1096 : 		if (0 < _Count && _Grow(_Num))

$LN85@append:
  000ab	85 ff		 test	 edi, edi
  000ad	75 f2		 jne	 SHORT $LN216@append
  000af	89 7e 10	 mov	 DWORD PTR [esi+16], edi
  000b2	83 7e 14 10	 cmp	 DWORD PTR [esi+20], 16	; 00000010H
  000b6	72 0e		 jb	 SHORT $LN162@append
  000b8	8b 06		 mov	 eax, DWORD PTR [esi]
  000ba	5f		 pop	 edi
  000bb	c6 00 00	 mov	 BYTE PTR [eax], 0

; 1100 : 			}
; 1101 : 		return (*this);

  000be	8b c6		 mov	 eax, esi
  000c0	5e		 pop	 esi
  000c1	5b		 pop	 ebx

; 1102 : 		}

  000c2	5d		 pop	 ebp
  000c3	c2 08 00	 ret	 8

; 1096 : 		if (0 < _Count && _Grow(_Num))

$LN162@append:
  000c6	8b c6		 mov	 eax, esi
  000c8	5f		 pop	 edi
  000c9	5e		 pop	 esi
  000ca	5b		 pop	 ebx
  000cb	c6 00 00	 mov	 BYTE PTR [eax], 0

; 1102 : 		}

  000ce	5d		 pop	 ebp
  000cf	c2 08 00	 ret	 8

; 1097 : 			{	// make room and append new stuff
; 1098 : 			_Traits::copy(this->_Myptr() + this->_Mysize(), _Ptr, _Count);

$LN179@append:
  000d2	8b d6		 mov	 edx, esi
$LN180@append:
  000d4	85 c9		 test	 ecx, ecx
  000d6	74 10		 je	 SHORT $LN195@append
  000d8	8b 46 10	 mov	 eax, DWORD PTR [esi+16]
  000db	51		 push	 ecx
  000dc	03 c2		 add	 eax, edx
  000de	53		 push	 ebx
  000df	50		 push	 eax
  000e0	e8 00 00 00 00	 call	 _memcpy
  000e5	83 c4 0c	 add	 esp, 12			; 0000000cH
$LN195@append:

; 1099 : 			_Eos(_Num);

  000e8	83 7e 14 10	 cmp	 DWORD PTR [esi+20], 16	; 00000010H
  000ec	89 7e 10	 mov	 DWORD PTR [esi+16], edi
  000ef	72 0f		 jb	 SHORT $LN206@append
  000f1	8b 06		 mov	 eax, DWORD PTR [esi]
  000f3	c6 04 38 00	 mov	 BYTE PTR [eax+edi], 0

; 1100 : 			}
; 1101 : 		return (*this);

  000f7	8b c6		 mov	 eax, esi
  000f9	5f		 pop	 edi
  000fa	5e		 pop	 esi
  000fb	5b		 pop	 ebx

; 1102 : 		}

  000fc	5d		 pop	 ebp
  000fd	c2 08 00	 ret	 8

; 1099 : 			_Eos(_Num);

$LN206@append:
  00100	8b c6		 mov	 eax, esi
  00102	c6 04 38 00	 mov	 BYTE PTR [eax+edi], 0
$LN211@append:

; 1100 : 			}
; 1101 : 		return (*this);

  00106	5f		 pop	 edi
  00107	8b c6		 mov	 eax, esi
  00109	5e		 pop	 esi
  0010a	5b		 pop	 ebx

; 1102 : 		}

  0010b	5d		 pop	 ebp
  0010c	c2 08 00	 ret	 8
$LN217@append:

; 1093 : 			_Xlen();	// result too long

  0010f	68 00 00 00 00	 push	 OFFSET ??_C@_0BA@JFNIOLAK@string?5too?5long?$AA@
  00114	e8 00 00 00 00	 call	 ?_Xlength_error@std@@YAXPBD@Z ; std::_Xlength_error
$LN220@append:
$LN219@append:

; 1096 : 		if (0 < _Count && _Grow(_Num))

  00119	68 00 00 00 00	 push	 OFFSET ??_C@_0BA@JFNIOLAK@string?5too?5long?$AA@
  0011e	e8 00 00 00 00	 call	 ?_Xlength_error@std@@YAXPBD@Z ; std::_Xlength_error
$LN221@append:
$LN214@append:
  00123	cc		 int	 3
?append@?$basic_string@DU?$char_traits@D@std@@V?$allocator@D@2@@std@@QAEAAV12@PBDI@Z ENDP ; std::basic_string<char,std::char_traits<char>,std::allocator<char> >::append
_TEXT	ENDS
; Function compile flags: /Ogtp
; File c:\program files (x86)\microsoft visual studio 14.0\vc\include\xstring
;	COMDAT ?append@?$basic_string@DU?$char_traits@D@std@@V?$allocator@D@2@@std@@QAEAAV12@ABV12@II@Z
_TEXT	SEGMENT
__Right$ = 8						; size = 4
__Roff$ = 12						; size = 4
__Count$ = 16						; size = 4
?append@?$basic_string@DU?$char_traits@D@std@@V?$allocator@D@2@@std@@QAEAAV12@ABV12@II@Z PROC ; std::basic_string<char,std::char_traits<char>,std::allocator<char> >::append, COMDAT
; _this$ = ecx

; 1070 : 		{	// append _Right [_Roff, _Roff + _Count)

  00000	55		 push	 ebp
  00001	8b ec		 mov	 ebp, esp
  00003	53		 push	 ebx

; 1071 : 		_Right._Check_offset(_Roff);

  00004	8b 5d 08	 mov	 ebx, DWORD PTR __Right$[ebp]
  00007	56		 push	 esi
  00008	8b f1		 mov	 esi, ecx
  0000a	8b 4d 0c	 mov	 ecx, DWORD PTR __Roff$[ebp]
  0000d	57		 push	 edi
  0000e	8b 43 10	 mov	 eax, DWORD PTR [ebx+16]
  00011	3b c1		 cmp	 eax, ecx
  00013	0f 82 c0 00 00
	00		 jb	 $LN201@append

; 1072 : 		_Count = _Right._Clamp_suffix_size(_Roff, _Count);
; 1073 : 		if (npos - this->_Mysize() <= _Count)

  00019	8b 56 10	 mov	 edx, DWORD PTR [esi+16]
  0001c	2b c1		 sub	 eax, ecx
  0001e	8b 4d 10	 mov	 ecx, DWORD PTR __Count$[ebp]
  00021	3b c8		 cmp	 ecx, eax
  00023	0f 47 c8	 cmova	 ecx, eax
  00026	8b c2		 mov	 eax, edx
  00028	f7 d0		 not	 eax
  0002a	89 4d 10	 mov	 DWORD PTR __Count$[ebp], ecx
  0002d	3b c1		 cmp	 eax, ecx
  0002f	0f 86 ae 00 00
	00		 jbe	 $LN203@append

; 1075 : 
; 1076 : 		const size_type _Num = this->_Mysize() + _Count;

  00035	8d 3c 0a	 lea	 edi, DWORD PTR [edx+ecx]

; 1077 : 		if (0 < _Count && _Grow(_Num))

  00038	85 c9		 test	 ecx, ecx
  0003a	0f 84 90 00 00
	00		 je	 $LN196@append
  00040	83 ff fe	 cmp	 edi, -2			; fffffffeH
  00043	0f 87 a4 00 00
	00		 ja	 $LN204@append
  00049	39 7e 14	 cmp	 DWORD PTR [esi+20], edi
  0004c	73 22		 jae	 SHORT $LN56@append
  0004e	52		 push	 edx
  0004f	57		 push	 edi
  00050	8b ce		 mov	 ecx, esi
  00052	e8 00 00 00 00	 call	 ?_Copy@?$basic_string@DU?$char_traits@D@std@@V?$allocator@D@2@@std@@QAEXII@Z ; std::basic_string<char,std::char_traits<char>,std::allocator<char> >::_Copy
  00057	8b 4d 10	 mov	 ecx, DWORD PTR __Count$[ebp]
  0005a	85 ff		 test	 edi, edi
  0005c	74 72		 je	 SHORT $LN196@append
$LN200@append:

; 1078 : 			{	// make room and append new stuff
; 1079 : 			_Traits::copy(this->_Myptr() + this->_Mysize(),

  0005e	83 7b 14 10	 cmp	 DWORD PTR [ebx+20], 16	; 00000010H
  00062	72 02		 jb	 SHORT $LN150@append
  00064	8b 1b		 mov	 ebx, DWORD PTR [ebx]
$LN150@append:
  00066	83 7e 14 10	 cmp	 DWORD PTR [esi+20], 16	; 00000010H
  0006a	72 2b		 jb	 SHORT $LN164@append
  0006c	8b 16		 mov	 edx, DWORD PTR [esi]
  0006e	eb 29		 jmp	 SHORT $LN165@append

; 1077 : 		if (0 < _Count && _Grow(_Num))

$LN56@append:
  00070	85 ff		 test	 edi, edi
  00072	75 ea		 jne	 SHORT $LN200@append
  00074	89 7e 10	 mov	 DWORD PTR [esi+16], edi
  00077	83 7e 14 10	 cmp	 DWORD PTR [esi+20], 16	; 00000010H
  0007b	72 0e		 jb	 SHORT $LN133@append
  0007d	8b 06		 mov	 eax, DWORD PTR [esi]
  0007f	5f		 pop	 edi
  00080	c6 00 00	 mov	 BYTE PTR [eax], 0

; 1082 : 			}
; 1083 : 		return (*this);

  00083	8b c6		 mov	 eax, esi
  00085	5e		 pop	 esi
  00086	5b		 pop	 ebx

; 1084 : 		}

  00087	5d		 pop	 ebp
  00088	c2 0c 00	 ret	 12			; 0000000cH

; 1077 : 		if (0 < _Count && _Grow(_Num))

$LN133@append:
  0008b	8b c6		 mov	 eax, esi
  0008d	5f		 pop	 edi
  0008e	5e		 pop	 esi
  0008f	5b		 pop	 ebx
  00090	c6 00 00	 mov	 BYTE PTR [eax], 0

; 1084 : 		}

  00093	5d		 pop	 ebp
  00094	c2 0c 00	 ret	 12			; 0000000cH

; 1078 : 			{	// make room and append new stuff
; 1079 : 			_Traits::copy(this->_Myptr() + this->_Mysize(),

$LN164@append:
  00097	8b d6		 mov	 edx, esi
$LN165@append:
  00099	85 c9		 test	 ecx, ecx
  0009b	74 15		 je	 SHORT $LN180@append
  0009d	8b 45 0c	 mov	 eax, DWORD PTR __Roff$[ebp]
  000a0	03 c3		 add	 eax, ebx
  000a2	51		 push	 ecx
  000a3	50		 push	 eax
  000a4	8b 46 10	 mov	 eax, DWORD PTR [esi+16]
  000a7	03 c2		 add	 eax, edx
  000a9	50		 push	 eax
  000aa	e8 00 00 00 00	 call	 _memcpy
  000af	83 c4 0c	 add	 esp, 12			; 0000000cH
$LN180@append:

; 1080 : 				_Right._Myptr() + _Roff, _Count);
; 1081 : 			_Eos(_Num);

  000b2	83 7e 14 10	 cmp	 DWORD PTR [esi+20], 16	; 00000010H
  000b6	89 7e 10	 mov	 DWORD PTR [esi+16], edi
  000b9	72 0f		 jb	 SHORT $LN191@append
  000bb	8b 06		 mov	 eax, DWORD PTR [esi]
  000bd	c6 04 38 00	 mov	 BYTE PTR [eax+edi], 0

; 1082 : 			}
; 1083 : 		return (*this);

  000c1	8b c6		 mov	 eax, esi
  000c3	5f		 pop	 edi
  000c4	5e		 pop	 esi
  000c5	5b		 pop	 ebx

; 1084 : 		}

  000c6	5d		 pop	 ebp
  000c7	c2 0c 00	 ret	 12			; 0000000cH

; 1080 : 				_Right._Myptr() + _Roff, _Count);
; 1081 : 			_Eos(_Num);

$LN191@append:
  000ca	8b c6		 mov	 eax, esi
  000cc	c6 04 38 00	 mov	 BYTE PTR [eax+edi], 0
$LN196@append:

; 1082 : 			}
; 1083 : 		return (*this);

  000d0	5f		 pop	 edi
  000d1	8b c6		 mov	 eax, esi
  000d3	5e		 pop	 esi
  000d4	5b		 pop	 ebx

; 1084 : 		}

  000d5	5d		 pop	 ebp
  000d6	c2 0c 00	 ret	 12			; 0000000cH
$LN201@append:

; 1071 : 		_Right._Check_offset(_Roff);

  000d9	68 00 00 00 00	 push	 OFFSET ??_C@_0BI@CFPLBAOH@invalid?5string?5position?$AA@
  000de	e8 00 00 00 00	 call	 ?_Xout_of_range@std@@YAXPBD@Z ; std::_Xout_of_range
$LN205@append:
$LN203@append:

; 1074 : 			_Xlen();	// result too long

  000e3	68 00 00 00 00	 push	 OFFSET ??_C@_0BA@JFNIOLAK@string?5too?5long?$AA@
  000e8	e8 00 00 00 00	 call	 ?_Xlength_error@std@@YAXPBD@Z ; std::_Xlength_error
$LN206@append:
$LN204@append:

; 1077 : 		if (0 < _Count && _Grow(_Num))

  000ed	68 00 00 00 00	 push	 OFFSET ??_C@_0BA@JFNIOLAK@string?5too?5long?$AA@
  000f2	e8 00 00 00 00	 call	 ?_Xlength_error@std@@YAXPBD@Z ; std::_Xlength_error
$LN207@append:
$LN198@append:
  000f7	cc		 int	 3
?append@?$basic_string@DU?$char_traits@D@std@@V?$allocator@D@2@@std@@QAEAAV12@ABV12@II@Z ENDP ; std::basic_string<char,std::char_traits<char>,std::allocator<char> >::append
_TEXT	ENDS
; Function compile flags: /Ogtp
; File c:\program files (x86)\microsoft visual studio 14.0\vc\include\xstring
;	COMDAT ??1?$basic_string@DU?$char_traits@D@std@@V?$allocator@D@2@@std@@QAE@XZ
_TEXT	SEGMENT
??1?$basic_string@DU?$char_traits@D@std@@V?$allocator@D@2@@std@@QAE@XZ PROC ; std::basic_string<char,std::char_traits<char>,std::allocator<char> >::~basic_string<char,std::char_traits<char>,std::allocator<char> >, COMDAT
; _this$ = ecx

; 1016 : 		{	// destroy the string

  00000	56		 push	 esi
  00001	8b f1		 mov	 esi, ecx

; 1017 : 		_Tidy(true);

  00003	8b 46 14	 mov	 eax, DWORD PTR [esi+20]
  00006	83 f8 10	 cmp	 eax, 16			; 00000010H
  00009	72 09		 jb	 SHORT $LN6@basic_stri
  0000b	40		 inc	 eax
  0000c	50		 push	 eax
  0000d	ff 36		 push	 DWORD PTR [esi]
  0000f	e8 00 00 00 00	 call	 ?deallocate@?$_Wrap_alloc@V?$allocator@D@std@@@std@@QAEXPADI@Z ; std::_Wrap_alloc<std::allocator<char> >::deallocate
$LN6@basic_stri:
  00014	c7 46 14 0f 00
	00 00		 mov	 DWORD PTR [esi+20], 15	; 0000000fH
  0001b	83 7e 14 10	 cmp	 DWORD PTR [esi+20], 16	; 00000010H
  0001f	c7 46 10 00 00
	00 00		 mov	 DWORD PTR [esi+16], 0
  00026	72 07		 jb	 SHORT $LN94@basic_stri
  00028	8b 06		 mov	 eax, DWORD PTR [esi]
  0002a	5e		 pop	 esi
  0002b	c6 00 00	 mov	 BYTE PTR [eax], 0

; 1018 : 		}

  0002e	c3		 ret	 0

; 1017 : 		_Tidy(true);

$LN94@basic_stri:
  0002f	c6 06 00	 mov	 BYTE PTR [esi], 0
  00032	5e		 pop	 esi

; 1018 : 		}

  00033	c3		 ret	 0
??1?$basic_string@DU?$char_traits@D@std@@V?$allocator@D@2@@std@@QAE@XZ ENDP ; std::basic_string<char,std::char_traits<char>,std::allocator<char> >::~basic_string<char,std::char_traits<char>,std::allocator<char> >
_TEXT	ENDS
; Function compile flags: /Ogtp
; File c:\program files (x86)\microsoft visual studio 14.0\vc\include\xstring
;	COMDAT ?_Assign_rv@?$basic_string@DU?$char_traits@D@std@@V?$allocator@D@2@@std@@QAEX$$QAV12@@Z
_TEXT	SEGMENT
__Right$ = 8						; size = 4
?_Assign_rv@?$basic_string@DU?$char_traits@D@std@@V?$allocator@D@2@@std@@QAEX$$QAV12@@Z PROC ; std::basic_string<char,std::char_traits<char>,std::allocator<char> >::_Assign_rv, COMDAT
; _this$ = ecx

; 961  : 		{	// assign by moving _Right

  00000	55		 push	 ebp
  00001	8b ec		 mov	 ebp, esp
  00003	56		 push	 esi

; 962  : 		if (_Right._Myres() < this->_BUF_SIZE)

  00004	8b 75 08	 mov	 esi, DWORD PTR __Right$[ebp]
  00007	57		 push	 edi
  00008	8b f9		 mov	 edi, ecx
  0000a	83 7e 14 10	 cmp	 DWORD PTR [esi+20], 16	; 00000010H
  0000e	73 15		 jae	 SHORT $LN2@Assign_rv

; 963  : 			_Traits::move(this->_Bx()._Buf, _Right._Bx()._Buf,

  00010	8b 46 10	 mov	 eax, DWORD PTR [esi+16]
  00013	83 c0 01	 add	 eax, 1
  00016	74 1b		 je	 SHORT $LN3@Assign_rv
  00018	50		 push	 eax
  00019	56		 push	 esi
  0001a	57		 push	 edi
  0001b	e8 00 00 00 00	 call	 _memmove
  00020	83 c4 0c	 add	 esp, 12			; 0000000cH

; 964  : 				_Right._Mysize() + 1);
; 965  : 		else

  00023	eb 0e		 jmp	 SHORT $LN3@Assign_rv
$LN2@Assign_rv:

; 966  : 			{	// copy pointer
; 967  : 			this->_Getal().construct(_STD addressof(this->_Bx()._Ptr), _Right._Bx()._Ptr);

  00025	85 ff		 test	 edi, edi
  00027	74 04		 je	 SHORT $LN84@Assign_rv
  00029	8b 06		 mov	 eax, DWORD PTR [esi]
  0002b	89 07		 mov	 DWORD PTR [edi], eax
$LN84@Assign_rv:

; 968  : 			_Right._Bx()._Ptr = pointer();

  0002d	c7 06 00 00 00
	00		 mov	 DWORD PTR [esi], 0
$LN3@Assign_rv:

; 969  : 			}
; 970  : 		this->_Mysize() = _Right._Mysize();

  00033	8b 46 10	 mov	 eax, DWORD PTR [esi+16]
  00036	89 47 10	 mov	 DWORD PTR [edi+16], eax

; 971  : 		this->_Myres() = _Right._Myres();

  00039	8b 46 14	 mov	 eax, DWORD PTR [esi+20]
  0003c	89 47 14	 mov	 DWORD PTR [edi+20], eax

; 972  : 		_Right._Tidy();

  0003f	c7 46 14 0f 00
	00 00		 mov	 DWORD PTR [esi+20], 15	; 0000000fH
  00046	83 7e 14 10	 cmp	 DWORD PTR [esi+20], 16	; 00000010H
  0004a	c7 46 10 00 00
	00 00		 mov	 DWORD PTR [esi+16], 0
  00051	72 0b		 jb	 SHORT $LN227@Assign_rv
  00053	8b 06		 mov	 eax, DWORD PTR [esi]
  00055	5f		 pop	 edi
  00056	5e		 pop	 esi
  00057	c6 00 00	 mov	 BYTE PTR [eax], 0

; 973  : 		}

  0005a	5d		 pop	 ebp
  0005b	c2 04 00	 ret	 4

; 972  : 		_Right._Tidy();

$LN227@Assign_rv:
  0005e	5f		 pop	 edi
  0005f	c6 06 00	 mov	 BYTE PTR [esi], 0
  00062	5e		 pop	 esi

; 973  : 		}

  00063	5d		 pop	 ebp
  00064	c2 04 00	 ret	 4
?_Assign_rv@?$basic_string@DU?$char_traits@D@std@@V?$allocator@D@2@@std@@QAEX$$QAV12@@Z ENDP ; std::basic_string<char,std::char_traits<char>,std::allocator<char> >::_Assign_rv
_TEXT	ENDS
; Function compile flags: /Ogtp
; File c:\program files (x86)\microsoft visual studio 14.0\vc\include\xstring
;	COMDAT ??0?$basic_string@DU?$char_traits@D@std@@V?$allocator@D@2@@std@@QAE@$$QAV01@@Z
_TEXT	SEGMENT
__Right$ = 8						; size = 4
??0?$basic_string@DU?$char_traits@D@std@@V?$allocator@D@2@@std@@QAE@$$QAV01@@Z PROC ; std::basic_string<char,std::char_traits<char>,std::allocator<char> >::basic_string<char,std::char_traits<char>,std::allocator<char> >, COMDAT
; _this$ = ecx

; 911  : 		{	// construct by moving _Right

  00000	55		 push	 ebp
  00001	8b ec		 mov	 ebp, esp
  00003	56		 push	 esi

; 912  : 		_Tidy();
; 913  : 		_Assign_rv(_STD forward<_Myt>(_Right));

  00004	ff 75 08	 push	 DWORD PTR __Right$[ebp]
  00007	8b f1		 mov	 esi, ecx
  00009	c7 46 14 0f 00
	00 00		 mov	 DWORD PTR [esi+20], 15	; 0000000fH
  00010	c7 46 10 00 00
	00 00		 mov	 DWORD PTR [esi+16], 0
  00017	c6 06 00	 mov	 BYTE PTR [esi], 0
  0001a	e8 00 00 00 00	 call	 ?_Assign_rv@?$basic_string@DU?$char_traits@D@std@@V?$allocator@D@2@@std@@QAEX$$QAV12@@Z ; std::basic_string<char,std::char_traits<char>,std::allocator<char> >::_Assign_rv

; 914  : 		}

  0001f	8b c6		 mov	 eax, esi
  00021	5e		 pop	 esi
  00022	5d		 pop	 ebp
  00023	c2 04 00	 ret	 4
??0?$basic_string@DU?$char_traits@D@std@@V?$allocator@D@2@@std@@QAE@$$QAV01@@Z ENDP ; std::basic_string<char,std::char_traits<char>,std::allocator<char> >::basic_string<char,std::char_traits<char>,std::allocator<char> >
_TEXT	ENDS
; Function compile flags: /Ogtp
; File c:\program files (x86)\microsoft visual studio 14.0\vc\include\xstring
;	COMDAT ??0?$basic_string@DU?$char_traits@D@std@@V?$allocator@D@2@@std@@QAE@PBD@Z
_TEXT	SEGMENT
__Ptr$ = 8						; size = 4
??0?$basic_string@DU?$char_traits@D@std@@V?$allocator@D@2@@std@@QAE@PBD@Z PROC ; std::basic_string<char,std::char_traits<char>,std::allocator<char> >::basic_string<char,std::char_traits<char>,std::allocator<char> >, COMDAT
; _this$ = ecx

; 836  : 		{	// construct from [_Ptr, <null>)

  00000	55		 push	 ebp
  00001	8b ec		 mov	 ebp, esp
  00003	56		 push	 esi
  00004	8b f1		 mov	 esi, ecx

; 837  : 		_Tidy();
; 838  : 		assign(_Ptr);

  00006	8b 4d 08	 mov	 ecx, DWORD PTR __Ptr$[ebp]
  00009	c7 46 14 0f 00
	00 00		 mov	 DWORD PTR [esi+20], 15	; 0000000fH
  00010	c7 46 10 00 00
	00 00		 mov	 DWORD PTR [esi+16], 0
  00017	c6 06 00	 mov	 BYTE PTR [esi], 0
  0001a	80 39 00	 cmp	 BYTE PTR [ecx], 0
  0001d	75 12		 jne	 SHORT $LN111@basic_stri
  0001f	33 d2		 xor	 edx, edx
  00021	52		 push	 edx
  00022	51		 push	 ecx
  00023	8b ce		 mov	 ecx, esi
  00025	e8 00 00 00 00	 call	 ?assign@?$basic_string@DU?$char_traits@D@std@@V?$allocator@D@2@@std@@QAEAAV12@PBDI@Z ; std::basic_string<char,std::char_traits<char>,std::allocator<char> >::assign

; 839  : 		}

  0002a	8b c6		 mov	 eax, esi
  0002c	5e		 pop	 esi
  0002d	5d		 pop	 ebp
  0002e	c2 04 00	 ret	 4

; 837  : 		_Tidy();
; 838  : 		assign(_Ptr);

$LN111@basic_stri:
  00031	8b d1		 mov	 edx, ecx
  00033	57		 push	 edi
  00034	8d 7a 01	 lea	 edi, DWORD PTR [edx+1]
$LL113@basic_stri:
  00037	8a 02		 mov	 al, BYTE PTR [edx]
  00039	42		 inc	 edx
  0003a	84 c0		 test	 al, al
  0003c	75 f9		 jne	 SHORT $LL113@basic_stri
  0003e	2b d7		 sub	 edx, edi
  00040	5f		 pop	 edi
  00041	52		 push	 edx
  00042	51		 push	 ecx
  00043	8b ce		 mov	 ecx, esi
  00045	e8 00 00 00 00	 call	 ?assign@?$basic_string@DU?$char_traits@D@std@@V?$allocator@D@2@@std@@QAEAAV12@PBDI@Z ; std::basic_string<char,std::char_traits<char>,std::allocator<char> >::assign

; 839  : 		}

  0004a	8b c6		 mov	 eax, esi
  0004c	5e		 pop	 esi
  0004d	5d		 pop	 ebp
  0004e	c2 04 00	 ret	 4
??0?$basic_string@DU?$char_traits@D@std@@V?$allocator@D@2@@std@@QAE@PBD@Z ENDP ; std::basic_string<char,std::char_traits<char>,std::allocator<char> >::basic_string<char,std::char_traits<char>,std::allocator<char> >
_TEXT	ENDS
; Function compile flags: /Ogtp
;	COMDAT ??1?$_String_alloc@U?$_String_base_types@DV?$allocator@D@std@@@std@@@std@@QAE@XZ
_TEXT	SEGMENT
??1?$_String_alloc@U?$_String_base_types@DV?$allocator@D@std@@@std@@@std@@QAE@XZ PROC ; std::_String_alloc<std::_String_base_types<char,std::allocator<char> > >::~_String_alloc<std::_String_base_types<char,std::allocator<char> > >, COMDAT
; _this$ = ecx
  00000	c3		 ret	 0
??1?$_String_alloc@U?$_String_base_types@DV?$allocator@D@std@@@std@@@std@@QAE@XZ ENDP ; std::_String_alloc<std::_String_base_types<char,std::allocator<char> > >::~_String_alloc<std::_String_base_types<char,std::allocator<char> > >
_TEXT	ENDS
; Function compile flags: /Ogtp
;	COMDAT ??1?$_Compressed_pair@U?$_Wrap_alloc@V?$allocator@D@std@@@std@@V?$_String_val@U?$_Simple_types@D@std@@@2@$00@std@@QAE@XZ
_TEXT	SEGMENT
??1?$_Compressed_pair@U?$_Wrap_alloc@V?$allocator@D@std@@@std@@V?$_String_val@U?$_Simple_types@D@std@@@2@$00@std@@QAE@XZ PROC ; std::_Compressed_pair<std::_Wrap_alloc<std::allocator<char> >,std::_String_val<std::_Simple_types<char> >,1>::~_Compressed_pair<std::_Wrap_alloc<std::allocator<char> >,std::_String_val<std::_Simple_types<char> >,1>, COMDAT
; _this$ = ecx
  00000	c3		 ret	 0
??1?$_Compressed_pair@U?$_Wrap_alloc@V?$allocator@D@std@@@std@@V?$_String_val@U?$_Simple_types@D@std@@@2@$00@std@@QAE@XZ ENDP ; std::_Compressed_pair<std::_Wrap_alloc<std::allocator<char> >,std::_String_val<std::_Simple_types<char> >,1>::~_Compressed_pair<std::_Wrap_alloc<std::allocator<char> >,std::_String_val<std::_Simple_types<char> >,1>
_TEXT	ENDS
; Function compile flags: /Ogtp
; File c:\program files (x86)\microsoft visual studio 14.0\vc\include\xutility
;	COMDAT ?_Get_second@?$_Compressed_pair@U?$_Wrap_alloc@V?$allocator@D@std@@@std@@V?$_String_val@U?$_Simple_types@D@std@@@2@$00@std@@QBEABV?$_String_val@U?$_Simple_types@D@std@@@2@XZ
_TEXT	SEGMENT
?_Get_second@?$_Compressed_pair@U?$_Wrap_alloc@V?$allocator@D@std@@@std@@V?$_String_val@U?$_Simple_types@D@std@@@2@$00@std@@QBEABV?$_String_val@U?$_Simple_types@D@std@@@2@XZ PROC ; std::_Compressed_pair<std::_Wrap_alloc<std::allocator<char> >,std::_String_val<std::_Simple_types<char> >,1>::_Get_second, COMDAT
; _this$ = ecx

; 320  : 		return (_Myval2);

  00000	8b c1		 mov	 eax, ecx

; 321  : 		}

  00002	c3		 ret	 0
?_Get_second@?$_Compressed_pair@U?$_Wrap_alloc@V?$allocator@D@std@@@std@@V?$_String_val@U?$_Simple_types@D@std@@@2@$00@std@@QBEABV?$_String_val@U?$_Simple_types@D@std@@@2@XZ ENDP ; std::_Compressed_pair<std::_Wrap_alloc<std::allocator<char> >,std::_String_val<std::_Simple_types<char> >,1>::_Get_second
_TEXT	ENDS
; Function compile flags: /Ogtp
; File c:\program files (x86)\microsoft visual studio 14.0\vc\include\xutility
;	COMDAT ?_Get_second@?$_Compressed_pair@U?$_Wrap_alloc@V?$allocator@D@std@@@std@@V?$_String_val@U?$_Simple_types@D@std@@@2@$00@std@@QAEAAV?$_String_val@U?$_Simple_types@D@std@@@2@XZ
_TEXT	SEGMENT
?_Get_second@?$_Compressed_pair@U?$_Wrap_alloc@V?$allocator@D@std@@@std@@V?$_String_val@U?$_Simple_types@D@std@@@2@$00@std@@QAEAAV?$_String_val@U?$_Simple_types@D@std@@@2@XZ PROC ; std::_Compressed_pair<std::_Wrap_alloc<std::allocator<char> >,std::_String_val<std::_Simple_types<char> >,1>::_Get_second, COMDAT
; _this$ = ecx

