
 Start  Stop   Length Name                   Class
 00000H 06A1FH 06A20H _TEXT                  CODE
 06A20H 08275H 01856H _DATA                  DATA
 08276H 08281H 0000CH CONST                  CONST
 08282H 08B89H 00908H _BSS                   BSS
 08B90H 08FF9H 0046AH c_common               BSS

 Origin   Group
 0000:0   DGROUP

  Address         Publics by Name

 0000:2536       ??5@YA?ATUINT64_STRUCT@@ABT0@H@Z
 0000:258A       ??6@YA?ATUINT64_STRUCT@@ABT0@H@Z
 0000:25EA       ??8@YADABTUINT64_STRUCT@@0@Z
 0000:25CA       ??E@YAAATUINT64_STRUCT@@AAT0@@Z
 0000:2484       ??G@YA?ATUINT64_STRUCT@@ABT0@0@Z
 0000:24E4       ??G@YA?ATUINT64_STRUCT@@ABT0@K@Z
 0000:23D2       ??H@YA?ATUINT64_STRUCT@@ABT0@0@Z
 0000:2432       ??H@YA?ATUINT64_STRUCT@@ABT0@K@Z
 0000:2644       ??M@YADABTUINT64_STRUCT@@0@Z
 0000:26A2       ??N@YADABTUINT64_STRUCT@@0@Z
 0000:2610       ??O@YADABTUINT64_STRUCT@@0@Z
 0000:2678       ??P@YADABTUINT64_STRUCT@@0@Z
 0000:245E       ??Y@YAAATUINT64_STRUCT@@AAT0@ABT0@@Z
 0000:2510       ??Z@YAAATUINT64_STRUCT@@AAT0@ABT0@@Z
 0000:7DDA       ??_C@_00A@?$AA@
 0000:7E9A       ??_C@_01KHLB@?$FL?$AA@
 0000:7EDA       ??_C@_02HFBK@?3?5?$AA@
 0000:7D86       ??_C@_02PIMC@?$AN?6?$AA@
 0000:7E96       ??_C@_03EDHP@n?$AN?6?$AA@
 0000:7E92       ??_C@_03NMHE@y?$AN?6?$AA@
 0000:7DBE       ??_C@_04HAAB@?5MB?5?$AA@
 0000:7D98       ??_C@_04KCBC@Read?$AA@
 0000:81CA       ??_C@_04PLFG@MMP?3?$AA@
 0000:7DB8       ??_C@_05CLDD@?5CHS?3?$AA@
 0000:7D92       ??_C@_05DHHK@Write?$AA@
 0000:8150       ??_C@_05DILO@Abort?$AA@
 0000:7E9C       ??_C@_05EFLO@?$FN?5?5?5?5?$AA@
 0000:7DC4       ??_C@_06OLBI@Drive?5?$AA@
 0000:7D9E       ??_C@_07EIJM@?5error?3?$AA@
 0000:7DA6       ??_C@_07JBEK@?5Drive?3?$AA@
 0000:8032       ??_C@_07MCKD@Drive?3?5?$AA@
 0000:7D8A       ??_C@_07MKMO@Error?3?5?$AA@
 0000:7DAE       ??_C@_08NNOK@?5Sector?3?$AA@
 0000:8048       ??_C@_08PFEJ@?0?5Size?3?5?$AA@
 0000:826C       ??_C@_09DKHJ@?$CIUnknown?$CJ?$AA@
 0000:8224       ??_C@_09FKOH@Whirlpool?$AA@
 0000:7E88       ??_C@_09LGPG@?$DP?5?$CIy?1n?$CJ?3?5?$AA@
 0000:8214       ??_C@_0BA@HHFE@GOST?5R?534?411?994?$AA@
 0000:81D0       ??_C@_0BB@EEAO@Memory?5corrupted?$AA@
 0000:81F0       ??_C@_0BB@EHBL@Gost?5Grasshopper?$AA@
 0000:7EA2       ??_C@_0BC@DHAO@?$FLEsc?$FN?5?5Cancel?$AN?6?$AN?6?$AA@
 0000:8202       ??_C@_0BC@JHLA@GOST?5R?534?411?92012?$AA@
 0000:81B6       ??_C@_0BE@KCNB@?$ANCopying?5completed?4?$AA@
 0000:8256       ??_C@_0BF@ING@HMAC?9GOST?5R?534?411?994?$AA@
 0000:7EC4       ??_C@_0BG@GEFN@?5for?5hidden?5system?3?$AN?6?$AA@
 0000:801A       ??_C@_0BH@CKJE@Bootable?5Partitions?3?$AN?6?$AA@
 0000:80A8       ??_C@_0BH@EGEK@?$AN?6?9?5Enable?5LBA?5in?5BIOS?$AA@
 0000:823E       ??_C@_0BH@MMLH@HMAC?9GOST?5R?534?411?92012?$AA@
 0000:7F64       ??_C@_0BI@KFOG@Incorrect?5password?4?$AN?6?$AN?6?$AA@
 0000:7E18       ??_C@_0BJ@CIJ@?5?5?5?5Keyboard?5Controls?3?$AN?6?$AA@
 0000:7DDC       ??_C@_0BM@IDKA@No?5bootable?5partition?5found?$AA@
 0000:7F48       ??_C@_0BM@NMNK@Warning?3?5Caps?5Lock?5is?5on?4?$AN?6?$AA@
 0000:7DF8       ??_C@_0BP@OLOK@?5GostCrypt?5Boot?5Loader?51?43?41?$AN?6?$AA@
 0000:7EEC       ??_C@_0CA@FBFB@BIOS?5reserved?5too?5much?5memory?3?5?$AA@
 0000:8052       ??_C@_0CA@HAB@Press?51?99?5to?5select?5partition?3?5?$AA@
 0000:7E64       ??_C@_0CD@GJAD@Skip?5Authentication?5?$CIBoot?5Manage@
 0000:7E3E       ??_C@_0CG@HLF@Boot?5Non?9Hidden?5System?5?$CIBoot?5Man@
 0000:8072       ??_C@_0CI@CHP@Your?5BIOS?5does?5not?5support?5large@
 0000:7F0C       ??_C@_0DM@HBD@?9?5Upgrade?5BIOS?$AN?6?9?5Use?5a?5differen@
 0000:80C0       ??_C@_0DM@NDEP@?$AN?6Copying?5system?5to?5hidden?5volum@
 0000:8156       ??_C@_0FB@DHKC@To?5fix?5bad?5sectors?3?51?$CJ?5Terminate@
 0000:80FC       ??_C@_0FD@OPN@?$ANIf?5aborted?0?5copying?5will?5have?5t@
 0000:7F7C       ??_C@_0JN@DAOA@If?5you?5are?5sure?5the?5password?5is?5@
 0000:7E32       ??_C@_0M@NCBA@?5?5?5?5?$FLEsc?$FN?5?5?$AA@
 0000:81A8       ??_C@_0N@BNAP@?$ANRemaining?3?5?$AA@
 0000:7EDE       ??_C@_0N@DGHN@Booting?4?4?4?$AN?6?$AA@
 0000:7DCC       ??_C@_0N@JJKN@?5not?5found?3?5?$AA@
 0000:803A       ??_C@_0O@LEMN@?0?5Partition?3?5?$AA@
 0000:81E2       ??_C@_0O@NADH@GOST?528147?989?$AA@
 0000:809A       ??_C@_0O@PLFN@?5due?5to?5a?5bug?$AA@
 0000:822E       ??_C@_0P@DFEB@HMAC?9Whirlpool?$AA@
 0000:7EB4       ??_C@_0P@EOMF@Enter?5password?$AA@
 0000:82CA       ?ActivePartition@@3UPartition@@A
 0000:04D2       ?Beep@@YAXXZ
 0000:8544       ?BiosMemoryMap@@3QAUBiosMemoryMapEntry@@A
 0000:82A8       ?BootCryptoInfo@@3PAUCRYPTO_INFO_t@@A
 0000:8284       ?BootDrive@@3EA
 0000:8286       ?BootDriveGeometry@@3UDriveGeometry@@A
 0000:6A20       ?BootDriveGeometryValid@@3DA
 0000:8283       ?BootLoaderDrive@@3EA
 0000:8282       ?BootSectorFlags@@3EA
 0000:6A23       ?BootStarted@@3DA
 0000:0A5C       ?ChsToLba@@YAXABUDriveGeometry@@ABUChsAddress@@AATUINT64_STRUCT@@@Z
 0000:05C8       ?ClearBiosKeystrokeBuffer@@YAXXZ
 0000:04F0       ?ClearScreen@@YAXXZ
 0000:26EA       ?CopyMemory@@YAXIIPAXI@Z
 0000:26CC       ?CopyMemory@@YAXPAXIII@Z
 0000:828A       ?CustomUserMessage@@3QADA
 0000:0334       ?DisableScreenOutput@@YAXXZ
 0000:0000  Unr  ?EnableScreenOutput@@YAXXZ
 0000:82AA       ?EncryptedVirtualPartition@@3UPartition@@A
 0000:05A6       ?EscKeyPressed@@YADXZ
 0000:6A24       ?ExtraBootPartitionPresent@@3DA
 0000:0DD4       ?GetActivePartition@@YADE@Z
 0000:09D4       ?GetDriveGeometry@@YAEEAAUDriveGeometry@@D@Z
 0000:0BAE       ?GetDrivePartitions@@YAEEPAUPartition@@IAAID0D@Z
 0000:1D22       ?GetFirstBiosMemoryMapEntry@@YADAAUBiosMemoryMapEntry@@@Z
 0000:0566       ?GetKeyboardChar@@YAEPAE@Z
 0000:055E       ?GetKeyboardChar@@YAEXZ
 0000:271E       ?GetLinearAddress@@YAKII@Z
 0000:1D38       ?GetNextBiosMemoryMapEntry@@YADAAUBiosMemoryMapEntry@@@Z
 0000:054E       ?GetShiftFlags@@YAEXZ
 0000:05F8       ?GetString@@YAHPADI@Z
 0000:8312       ?HiddenVolumeStartSector@@3TUINT64_STRUCT@@A
 0000:830A       ?HiddenVolumeStartUnitNo@@3TUINT64_STRUCT@@A
 0000:04DA       ?InitVideoMode@@YAXXZ
 0000:2336       ?InstallInterruptFilters@@YADXZ
 0000:1D52       ?Int13Filter@@YADXZ
 0000:2312       ?Int13FilterEntry@@YAXXZ
 0000:2148       ?Int15Filter@@YADXZ
 0000:2202       ?IntFilterEntry@@YAXXZ
 0000:058E       ?IsKeyboardCharAvailable@@YADXZ
 0000:064C       ?IsLbaSupported@@YADE@Z
 0000:05E0       ?IsPrintable@@YADD@Z
 0000:0AA4       ?LbaToChs@@YAXABUDriveGeometry@@ABTUINT64_STRUCT@@AAUChsAddress@@@Z
 0000:82A4       ?OuterVolumeBackupHeaderCrc@@3KA
 0000:0B08       ?PartitionEntryMBRToPartition@@YAXABUPartitionEntryMBR@@AAUPartition@@@Z
 0000:82EA       ?PartitionFollowingActive@@3UPartition@@A
 0000:6A22       ?PreventBootMenu@@3DA
 0000:6A21       ?PreventNormalSystemBoot@@3DA
 0000:03EC       ?Print@@YAXABTUINT64_STRUCT@@@Z
 0000:06FE       ?Print@@YAXABUChsAddress@@@Z
 0000:0388       ?Print@@YAXK@Z
 0000:036A       ?Print@@YAXPBD@Z
 0000:0510       ?PrintBackspace@@YAXXZ
 0000:033A       ?PrintChar@@YAXD@Z
 0000:0350       ?PrintCharAtCursor@@YAXD@Z
 0000:0688       ?PrintDiskError@@YAXEDEPBTUINT64_STRUCT@@PBUChsAddress@@@Z
 0000:04BC       ?PrintEndl@@YAXH@Z
 0000:04B4       ?PrintEndl@@YAXXZ
 0000:051E       ?PrintError@@YAXPBD@Z
 0000:0538       ?PrintErrorNoEndl@@YAXPBD@Z
 0000:047A       ?PrintHex@@YAXABTUINT64_STRUCT@@@Z
 0000:040E       ?PrintHex@@YAXE@Z
 0000:044E       ?PrintHex@@YAXI@Z
 0000:0466       ?PrintHex@@YAXK@Z
 0000:0498       ?PrintRepeatedChar@@YAXDH@Z
 0000:073A       ?PrintSectorCountInMB@@YAXABTUINT64_STRUCT@@@Z
 0000:02AA       ?ReadBootSectorUserConfiguration@@YAXXZ
 0000:0E10       ?ReadEncryptedSectors@@YAEIIETUINT64_STRUCT@@I@Z
 0000:0952       ?ReadSectors@@YAEIIEABTUINT64_STRUCT@@ID@Z
 0000:096C       ?ReadSectors@@YAEPAEEABTUINT64_STRUCT@@ID@Z
 0000:0000  Unr  ?ReadSectors@@YAEPAEEABUChsAddress@@ED@Z
 0000:0B6E       ?ReadWriteMBR@@YAEDED@Z
 0000:0928       ?ReadWriteSectors@@YAEDIIEABTUINT64_STRUCT@@ID@Z
 0000:075C       ?ReadWriteSectors@@YAEDIIEABUChsAddress@@ED@Z
 0000:07F0       ?ReadWriteSectors@@YAEDPAEEABUChsAddress@@ED@Z
 0000:2734       ?RegionsIntersect@@YADABTUINT64_STRUCT@@K00@Z
 0000:831A       ?SectorBuffer@@3QAEA
 0000:0000  Unr  ?TestInt64@@YADXZ
 0000:0302       ?UpdateBootSectorConfiguration@@YAEE@Z
 0000:0F54       ?WriteEncryptedSectors@@YAEIIETUINT64_STRUCT@@I@Z
 0000:09BA       ?WriteSectors@@YAEPAEEABTUINT64_STRUCT@@ID@Z
 0000:0000  Unr  ?WriteSectors@@YAEPAEEABUChsAddress@@ED@Z
 0000:6BE6       _A
 0000:69DA       _changeEndian
 0000:291A       _CipherGet
 0000:0000  Unr  _CipherGetBlockSize
 0000:295A       _CipherGetKeyScheduleSize
 0000:2948       _CipherGetKeySize
 0000:0000  Unr  _CipherGetName
 0000:2888       _CipherInit
 0000:0000  Unr  _crc32_selftests
 0000:8B90       _CryptoInfoBuffer
 0000:2C32       _crypto_close
 0000:0000  Unr  _crypto_loadkey
 0000:2C28       _crypto_open
 0000:28E4       _DecipherBlock
 0000:2DE0       _DecryptBuffer
 0000:3C4C       _DecryptBufferXTS
 0000:385E       _DecryptBufferXTS8Byte
 0000:2ED6       _DecryptDataUnits
 0000:32A2       _derive_key_stribog
 0000:31C8       _derive_u_stribog
 0000:0000  Unr  _EAGetCipherCount
 0000:0000  Unr  _EAGetCount
 0000:29AC       _EAGetFirst
 0000:2B1A       _EAGetFirstCipher
 0000:2A64       _EAGetFirstMode
 0000:2AAA       _EAGetKeyScheduleSize
 0000:2A30       _EAGetKeySize
 0000:0000  Unr  _EAGetLargestKey
 0000:2ADE       _EAGetLargestKeyForMode
 0000:2B2A       _EAGetLastCipher
 0000:29B0       _EAGetNext
 0000:2B56       _EAGetNextCipher
 0000:2A74       _EAGetNextMode
 0000:2B8C       _EAGetPreviousCipher
 0000:29CE       _EAInit
 0000:0000  Unr  _EAIsFormatEnabled
 0000:2BCE       _EAIsModeSupported
 0000:8282       _edata
 0000:28AE       _EncipherBlock
 0000:2C44       _EncryptBuffer
 0000:3C32       _EncryptBufferXTS
 0000:3A48       _EncryptBufferXTS8Byte
 0000:2D18       _EncryptDataUnits
 0000:8FFA       _end
 0000:270E       _EraseMemory
 0000:5C26       _F
 0000:280E       _GetCrc32
 0000:3362       _GetHeaderField16
 0000:3376       _GetHeaderField32
 0000:338C       _GetHeaderField64
 0000:0000  Unr  _GetMaxPkcs5OutSize
 0000:3342       _get_pkcs5_iteration_count
 0000:0000  Unr  _get_pkcs5_prf_name
 0000:0000  Unr  _GOSTHASH_add
 0000:0000  Unr  _GOSTHASH_finalize
 0000:0000  Unr  _GOSTHASH_init
 0000:5010       _gost_decrypt
 0000:4C7E       _gost_encrypt
 0000:53A2       _gost_set_key
 0000:557C       _gost_xor_ks
 0000:63B0       _grasshopper_decrypt
 0000:618C       _grasshopper_encrypt
 0000:5CD4       _grasshopper_set_key
 0000:65C4       _grasshopper_xor_ks
 0000:3F2C       _g_N
 0000:2BFA       _HashGet
 0000:0000  Unr  _HashGetIdByName
 0000:0000  Unr  _HashGetName
 0000:0000  Unr  _HashIsDeprecated
 0000:302A       _hmac_stribog
 0000:0000  Unr  _hmac_truncate
 0000:5B72       _L
 0000:5936       _ll
 0000:0000  Unr  _LongReverse
 0000:5BCC       _L_inv
 0000:1BE4       _main
 0000:0130       _memcpy
 0000:015C       _memset
 0000:2FC2       _MirrorBytes16
 0000:2FD2       _MirrorBytes32
 0000:7586       _mult_mod_poly
 0000:7386       _pi
 0000:7486       _pi_inv
 0000:5A5A       _R
 0000:33CC       _ReadVolumeHeader
 0000:5AE4       _R_inv
 0000:5646       _S
 0000:6AE6       _Sbox
 0000:0104       _strcmp
 0000:3FA6       _STRIBOG_add
 0000:40DC       _STRIBOG_finalize
 0000:3F88       _STRIBOG_init
 0000:57BE       _S_inv
 0000:6AA6       _Tau
 0000:27F8       _ThrowFatalException
 0000:296C       _XorKeySchedule
 0000:1BE2       __acrtused
 0000:018A       __aNlmul
 0000:01BC       __aNlshl
 0000:01C8       __aNlshr
 0000:01D4       __aNuldiv
 0000:018A       __aNulmul
 0000:0234       __aNulrem
 0000:029E       __aNulshr
 0000:8282       __edata
 0000:8FFA       __end
 0000:8FF2       __mbac

  Address         Publics by Value

 0000:0000  Unr  _GOSTHASH_add
 0000:0000  Unr  _CipherGetName
 0000:0000  Unr  _HashIsDeprecated
 0000:0000  Unr  ?EnableScreenOutput@@YAXXZ
 0000:0000  Unr  _EAGetLargestKey
 0000:0000  Unr  _HashGetIdByName
 0000:0000  Unr  _GetMaxPkcs5OutSize
 0000:0000  Unr  _CipherGetBlockSize
 0000:0000  Unr  _GOSTHASH_finalize
 0000:0000  Unr  _HashGetName
 0000:0000  Unr  _get_pkcs5_prf_name
 0000:0000  Unr  _hmac_truncate
 0000:0000  Unr  _GOSTHASH_init
 0000:0000  Unr  _EAGetCipherCount
 0000:0000  Unr  _crypto_loadkey
 0000:0000  Unr  ?TestInt64@@YADXZ
 0000:0000  Unr  _LongReverse
 0000:0000  Unr  _EAIsFormatEnabled
 0000:0000  Unr  _crc32_selftests
 0000:0000  Unr  ?WriteSectors@@YAEPAEEABUChsAddress@@ED@Z
 0000:0000  Unr  _EAGetCount
 0000:0000  Unr  ?ReadSectors@@YAEPAEEABUChsAddress@@ED@Z
 0000:0104       _strcmp
 0000:0130       _memcpy
 0000:015C       _memset
 0000:018A       __aNulmul
 0000:018A       __aNlmul
 0000:01BC       __aNlshl
 0000:01C8       __aNlshr
 0000:01D4       __aNuldiv
 0000:0234       __aNulrem
 0000:029E       __aNulshr
 0000:02AA       ?ReadBootSectorUserConfiguration@@YAXXZ
 0000:0302       ?UpdateBootSectorConfiguration@@YAEE@Z
 0000:0334       ?DisableScreenOutput@@YAXXZ
 0000:033A       ?PrintChar@@YAXD@Z
 0000:0350       ?PrintCharAtCursor@@YAXD@Z
 0000:036A       ?Print@@YAXPBD@Z
 0000:0388       ?Print@@YAXK@Z
 0000:03EC       ?Print@@YAXABTUINT64_STRUCT@@@Z
 0000:040E       ?PrintHex@@YAXE@Z
 0000:044E       ?PrintHex@@YAXI@Z
 0000:0466       ?PrintHex@@YAXK@Z
 0000:047A       ?PrintHex@@YAXABTUINT64_STRUCT@@@Z
 0000:0498       ?PrintRepeatedChar@@YAXDH@Z
 0000:04B4       ?PrintEndl@@YAXXZ
 0000:04BC       ?PrintEndl@@YAXH@Z
 0000:04D2       ?Beep@@YAXXZ
 0000:04DA       ?InitVideoMode@@YAXXZ
 0000:04F0       ?ClearScreen@@YAXXZ
 0000:0510       ?PrintBackspace@@YAXXZ
 0000:051E       ?PrintError@@YAXPBD@Z
 0000:0538       ?PrintErrorNoEndl@@YAXPBD@Z
 0000:054E       ?GetShiftFlags@@YAEXZ
 0000:055E       ?GetKeyboardChar@@YAEXZ
 0000:0566       ?GetKeyboardChar@@YAEPAE@Z
 0000:058E       ?IsKeyboardCharAvailable@@YADXZ
 0000:05A6       ?EscKeyPressed@@YADXZ
 0000:05C8       ?ClearBiosKeystrokeBuffer@@YAXXZ
 0000:05E0       ?IsPrintable@@YADD@Z
 0000:05F8       ?GetString@@YAHPADI@Z
 0000:064C       ?IsLbaSupported@@YADE@Z
 0000:0688       ?PrintDiskError@@YAXEDEPBTUINT64_STRUCT@@PBUChsAddress@@@Z
 0000:06FE       ?Print@@YAXABUChsAddress@@@Z
 0000:073A       ?PrintSectorCountInMB@@YAXABTUINT64_STRUCT@@@Z
 0000:075C       ?ReadWriteSectors@@YAEDIIEABUChsAddress@@ED@Z
 0000:07F0       ?ReadWriteSectors@@YAEDPAEEABUChsAddress@@ED@Z
 0000:0928       ?ReadWriteSectors@@YAEDIIEABTUINT64_STRUCT@@ID@Z
 0000:0952       ?ReadSectors@@YAEIIEABTUINT64_STRUCT@@ID@Z
 0000:096C       ?ReadSectors@@YAEPAEEABTUINT64_STRUCT@@ID@Z
 0000:09BA       ?WriteSectors@@YAEPAEEABTUINT64_STRUCT@@ID@Z
 0000:09D4       ?GetDriveGeometry@@YAEEAAUDriveGeometry@@D@Z
 0000:0A5C       ?ChsToLba@@YAXABUDriveGeometry@@ABUChsAddress@@AATUINT64_STRUCT@@@Z
 0000:0AA4       ?LbaToChs@@YAXABUDriveGeometry@@ABTUINT64_STRUCT@@AAUChsAddress@@@Z
 0000:0B08       ?PartitionEntryMBRToPartition@@YAXABUPartitionEntryMBR@@AAUPartition@@@Z
 0000:0B6E       ?ReadWriteMBR@@YAEDED@Z
 0000:0BAE       ?GetDrivePartitions@@YAEEPAUPartition@@IAAID0D@Z
 0000:0DD4       ?GetActivePartition@@YADE@Z
 0000:0E10       ?ReadEncryptedSectors@@YAEIIETUINT64_STRUCT@@I@Z
 0000:0F54       ?WriteEncryptedSectors@@YAEIIETUINT64_STRUCT@@I@Z
 0000:1BE2       __acrtused
 0000:1BE4       _main
 0000:1D22       ?GetFirstBiosMemoryMapEntry@@YADAAUBiosMemoryMapEntry@@@Z
 0000:1D38       ?GetNextBiosMemoryMapEntry@@YADAAUBiosMemoryMapEntry@@@Z
 0000:1D52       ?Int13Filter@@YADXZ
 0000:2148       ?Int15Filter@@YADXZ
 0000:2202       ?IntFilterEntry@@YAXXZ
 0000:2312       ?Int13FilterEntry@@YAXXZ
 0000:2336       ?InstallInterruptFilters@@YADXZ
 0000:23D2       ??H@YA?ATUINT64_STRUCT@@ABT0@0@Z
 0000:2432       ??H@YA?ATUINT64_STRUCT@@ABT0@K@Z
 0000:245E       ??Y@YAAATUINT64_STRUCT@@AAT0@ABT0@@Z
 0000:2484       ??G@YA?ATUINT64_STRUCT@@ABT0@0@Z
 0000:24E4       ??G@YA?ATUINT64_STRUCT@@ABT0@K@Z
 0000:2510       ??Z@YAAATUINT64_STRUCT@@AAT0@ABT0@@Z
 0000:2536       ??5@YA?ATUINT64_STRUCT@@ABT0@H@Z
 0000:258A       ??6@YA?ATUINT64_STRUCT@@ABT0@H@Z
 0000:25CA       ??E@YAAATUINT64_STRUCT@@AAT0@@Z
 0000:25EA       ??8@YADABTUINT64_STRUCT@@0@Z
 0000:2610       ??O@YADABTUINT64_STRUCT@@0@Z
 0000:2644       ??M@YADABTUINT64_STRUCT@@0@Z
 0000:2678       ??P@YADABTUINT64_STRUCT@@0@Z
 0000:26A2       ??N@YADABTUINT64_STRUCT@@0@Z
 0000:26CC       ?CopyMemory@@YAXPAXIII@Z
 0000:26EA       ?CopyMemory@@YAXIIPAXI@Z
 0000:270E       _EraseMemory
 0000:271E       ?GetLinearAddress@@YAKII@Z
 0000:2734       ?RegionsIntersect@@YADABTUINT64_STRUCT@@K00@Z
 0000:27F8       _ThrowFatalException
 0000:280E       _GetCrc32
 0000:2888       _CipherInit
 0000:28AE       _EncipherBlock
 0000:28E4       _DecipherBlock
 0000:291A       _CipherGet
 0000:2948       _CipherGetKeySize
 0000:295A       _CipherGetKeyScheduleSize
 0000:296C       _XorKeySchedule
 0000:29AC       _EAGetFirst
 0000:29B0       _EAGetNext
 0000:29CE       _EAInit
 0000:2A30       _EAGetKeySize
 0000:2A64       _EAGetFirstMode
 0000:2A74       _EAGetNextMode
 0000:2AAA       _EAGetKeyScheduleSize
 0000:2ADE       _EAGetLargestKeyForMode
 0000:2B1A       _EAGetFirstCipher
 0000:2B2A       _EAGetLastCipher
 0000:2B56       _EAGetNextCipher
 0000:2B8C       _EAGetPreviousCipher
 0000:2BCE       _EAIsModeSupported
 0000:2BFA       _HashGet
 0000:2C28       _crypto_open
 0000:2C32       _crypto_close
 0000:2C44       _EncryptBuffer
 0000:2D18       _EncryptDataUnits
 0000:2DE0       _DecryptBuffer
 0000:2ED6       _DecryptDataUnits
 0000:2FC2       _MirrorBytes16
 0000:2FD2       _MirrorBytes32
 0000:302A       _hmac_stribog
 0000:31C8       _derive_u_stribog
 0000:32A2       _derive_key_stribog
 0000:3342       _get_pkcs5_iteration_count
 0000:3362       _GetHeaderField16
 0000:3376       _GetHeaderField32
 0000:338C       _GetHeaderField64
 0000:33CC       _ReadVolumeHeader
 0000:385E       _DecryptBufferXTS8Byte
 0000:3A48       _EncryptBufferXTS8Byte
 0000:3C32       _EncryptBufferXTS
 0000:3C4C       _DecryptBufferXTS
 0000:3F2C       _g_N
 0000:3F88       _STRIBOG_init
 0000:3FA6       _STRIBOG_add
 0000:40DC       _STRIBOG_finalize
 0000:4C7E       _gost_encrypt
 0000:5010       _gost_decrypt
 0000:53A2       _gost_set_key
 0000:557C       _gost_xor_ks
 0000:5646       _S
 0000:57BE       _S_inv
 0000:5936       _ll
 0000:5A5A       _R
 0000:5AE4       _R_inv
 0000:5B72       _L
 0000:5BCC       _L_inv
 0000:5C26       _F
 0000:5CD4       _grasshopper_set_key
 0000:618C       _grasshopper_encrypt
 0000:63B0       _grasshopper_decrypt
 0000:65C4       _grasshopper_xor_ks
 0000:69DA       _changeEndian
 0000:6A20       ?BootDriveGeometryValid@@3DA
 0000:6A21       ?PreventNormalSystemBoot@@3DA
 0000:6A22       ?PreventBootMenu@@3DA
 0000:6A23       ?BootStarted@@3DA
 0000:6A24       ?ExtraBootPartitionPresent@@3DA
 0000:6AA6       _Tau
 0000:6AE6       _Sbox
 0000:6BE6       _A
 0000:7386       _pi
 0000:7486       _pi_inv
 0000:7586       _mult_mod_poly
 0000:7D86       ??_C@_02PIMC@?$AN?6?$AA@
 0000:7D8A       ??_C@_07MKMO@Error?3?5?$AA@
 0000:7D92       ??_C@_05DHHK@Write?$AA@
 0000:7D98       ??_C@_04KCBC@Read?$AA@
 0000:7D9E       ??_C@_07EIJM@?5error?3?$AA@
 0000:7DA6       ??_C@_07JBEK@?5Drive?3?$AA@
 0000:7DAE       ??_C@_08NNOK@?5Sector?3?$AA@
 0000:7DB8       ??_C@_05CLDD@?5CHS?3?$AA@
 0000:7DBE       ??_C@_04HAAB@?5MB?5?$AA@
 0000:7DC4       ??_C@_06OLBI@Drive?5?$AA@
 0000:7DCC       ??_C@_0N@JJKN@?5not?5found?3?5?$AA@
 0000:7DDA       ??_C@_00A@?$AA@
 0000:7DDC       ??_C@_0BM@IDKA@No?5bootable?5partition?5found?$AA@
 0000:7DF8       ??_C@_0BP@OLOK@?5GostCrypt?5Boot?5Loader?51?43?41?$AN?6?$AA@
 0000:7E18       ??_C@_0BJ@CIJ@?5?5?5?5Keyboard?5Controls?3?$AN?6?$AA@
 0000:7E32       ??_C@_0M@NCBA@?5?5?5?5?$FLEsc?$FN?5?5?$AA@
 0000:7E3E       ??_C@_0CG@HLF@Boot?5Non?9Hidden?5System?5?$CIBoot?5Man@
 0000:7E64       ??_C@_0CD@GJAD@Skip?5Authentication?5?$CIBoot?5Manage@
 0000:7E88       ??_C@_09LGPG@?$DP?5?$CIy?1n?$CJ?3?5?$AA@
 0000:7E92       ??_C@_03NMHE@y?$AN?6?$AA@
 0000:7E96       ??_C@_03EDHP@n?$AN?6?$AA@
 0000:7E9A       ??_C@_01KHLB@?$FL?$AA@
 0000:7E9C       ??_C@_05EFLO@?$FN?5?5?5?5?$AA@
 0000:7EA2       ??_C@_0BC@DHAO@?$FLEsc?$FN?5?5Cancel?$AN?6?$AN?6?$AA@
 0000:7EB4       ??_C@_0P@EOMF@Enter?5password?$AA@
 0000:7EC4       ??_C@_0BG@GEFN@?5for?5hidden?5system?3?$AN?6?$AA@
 0000:7EDA       ??_C@_02HFBK@?3?5?$AA@
 0000:7EDE       ??_C@_0N@DGHN@Booting?4?4?4?$AN?6?$AA@
 0000:7EEC       ??_C@_0CA@FBFB@BIOS?5reserved?5too?5much?5memory?3?5?$AA@
 0000:7F0C       ??_C@_0DM@HBD@?9?5Upgrade?5BIOS?$AN?6?9?5Use?5a?5differen@
 0000:7F48       ??_C@_0BM@NMNK@Warning?3?5Caps?5Lock?5is?5on?4?$AN?6?$AA@
 0000:7F64       ??_C@_0BI@KFOG@Incorrect?5password?4?$AN?6?$AN?6?$AA@
 0000:7F7C       ??_C@_0JN@DAOA@If?5you?5are?5sure?5the?5password?5is?5@
 0000:801A       ??_C@_0BH@CKJE@Bootable?5Partitions?3?$AN?6?$AA@
 0000:8032       ??_C@_07MCKD@Drive?3?5?$AA@
 0000:803A       ??_C@_0O@LEMN@?0?5Partition?3?5?$AA@
 0000:8048       ??_C@_08PFEJ@?0?5Size?3?5?$AA@
 0000:8052       ??_C@_0CA@HAB@Press?51?99?5to?5select?5partition?3?5?$AA@
 0000:8072       ??_C@_0CI@CHP@Your?5BIOS?5does?5not?5support?5large@
 0000:809A       ??_C@_0O@PLFN@?5due?5to?5a?5bug?$AA@
 0000:80A8       ??_C@_0BH@EGEK@?$AN?6?9?5Enable?5LBA?5in?5BIOS?$AA@
 0000:80C0       ??_C@_0DM@NDEP@?$AN?6Copying?5system?5to?5hidden?5volum@
 0000:80FC       ??_C@_0FD@OPN@?$ANIf?5aborted?0?5copying?5will?5have?5t@
 0000:8150       ??_C@_05DILO@Abort?$AA@
 0000:8156       ??_C@_0FB@DHKC@To?5fix?5bad?5sectors?3?51?$CJ?5Terminate@
 0000:81A8       ??_C@_0N@BNAP@?$ANRemaining?3?5?$AA@
 0000:81B6       ??_C@_0BE@KCNB@?$ANCopying?5completed?4?$AA@
 0000:81CA       ??_C@_04PLFG@MMP?3?$AA@
 0000:81D0       ??_C@_0BB@EEAO@Memory?5corrupted?$AA@
 0000:81E2       ??_C@_0O@NADH@GOST?528147?989?$AA@
 0000:81F0       ??_C@_0BB@EHBL@Gost?5Grasshopper?$AA@
 0000:8202       ??_C@_0BC@JHLA@GOST?5R?534?411?92012?$AA@
 0000:8214       ??_C@_0BA@HHFE@GOST?5R?534?411?994?$AA@
 0000:8224       ??_C@_09FKOH@Whirlpool?$AA@
 0000:822E       ??_C@_0P@DFEB@HMAC?9Whirlpool?$AA@
 0000:823E       ??_C@_0BH@MMLH@HMAC?9GOST?5R?534?411?92012?$AA@
 0000:8256       ??_C@_0BF@ING@HMAC?9GOST?5R?534?411?994?$AA@
 0000:826C       ??_C@_09DKHJ@?$CIUnknown?$CJ?$AA@
 0000:8282       ?BootSectorFlags@@3EA
 0000:8282       __edata
 0000:8282       _edata
 0000:8283       ?BootLoaderDrive@@3EA
 0000:8284       ?BootDrive@@3EA
 0000:8286       ?BootDriveGeometry@@3UDriveGeometry@@A
 0000:828A       ?CustomUserMessage@@3QADA
 0000:82A4       ?OuterVolumeBackupHeaderCrc@@3KA
 0000:82A8       ?BootCryptoInfo@@3PAUCRYPTO_INFO_t@@A
 0000:82AA       ?EncryptedVirtualPartition@@3UPartition@@A
 0000:82CA       ?ActivePartition@@3UPartition@@A
 0000:82EA       ?PartitionFollowingActive@@3UPartition@@A
 0000:830A       ?HiddenVolumeStartUnitNo@@3TUINT64_STRUCT@@A
 0000:8312       ?HiddenVolumeStartSector@@3TUINT64_STRUCT@@A
 0000:831A       ?SectorBuffer@@3QAEA
 0000:8544       ?BiosMemoryMap@@3QAUBiosMemoryMapEntry@@A
 0000:8B90       _CryptoInfoBuffer
 0000:8FF2       __mbac
 0000:8FFA       __end
 0000:8FFA       _end

Program entry point at 0000:0100
