 GostCryptFormat

 Timestamp is 5888a070 (Wed Jan 25 13:56:16 2017)

 Preferred load address is 00400000

 Start         Length     Name                   Class
 0001:00000000 000001d0H .text$di                CODE
 0001:000001d0 00086470H .text$mn                CODE
 0001:00086640 00003a70H .text$x                 CODE
 0001:0008a0b0 000002edH .text$yd                CODE
 0002:00000000 0000056cH .idata$5                DATA
 0002:0000056c 00000004H .00cfg                  DATA
 0002:00000570 00000004H .CRT$XCA                DATA
 0002:00000574 00000004H .CRT$XCAA               DATA
 0002:00000578 0000000cH .CRT$XCC                DATA
 0002:00000584 0000000cH .CRT$XCL                DATA
 0002:00000590 0000001cH .CRT$XCU                DATA
 0002:000005ac 00000004H .CRT$XCZ                DATA
 0002:000005b0 00000004H .CRT$XIA                DATA
 0002:000005b4 00000004H .CRT$XIAA               DATA
 0002:000005b8 00000004H .CRT$XIAC               DATA
 0002:000005bc 00000018H .CRT$XIC                DATA
 0002:000005d4 00000004H .CRT$XIZ                DATA
 0002:000005d8 00000004H .CRT$XLA                DATA
 0002:000005dc 00000004H .CRT$XLZ                DATA
 0002:000005e0 00000004H .CRT$XPA                DATA
 0002:000005e4 00000008H .CRT$XPX                DATA
 0002:000005ec 00000004H .CRT$XPXA               DATA
 0002:000005f0 00000004H .CRT$XPZ                DATA
 0002:000005f4 00000004H .CRT$XTA                DATA
 0002:000005f8 00000008H .CRT$XTZ                DATA
 0002:00000600 0001d13cH .rdata                  DATA
 0002:0001d73c 00000018H .rdata$T                DATA
 0002:0001d754 0000172cH .rdata$r                DATA
 0002:0001ee80 00000350H .rdata$sxdata           DATA
 0002:0001f1d0 000003c0H .rdata$zzzdbg           DATA
 0002:0001f590 00000004H .rtc$IAA                DATA
 0002:0001f594 00000004H .rtc$IZZ                DATA
 0002:0001f598 00000004H .rtc$TAA                DATA
 0002:0001f59c 00000004H .rtc$TZZ                DATA
 0002:0001f5a0 00005f34H .xdata$x                DATA
 0002:000254d4 00000000H ATL$__a                 DATA
 0002:000254d4 00000000H ATL$__z                 DATA
 0002:000254d4 00000000H .edata                  DATA
 0002:000254d4 000000c8H .idata$2                DATA
 0002:0002559c 00000014H .idata$3                DATA
 0002:000255b0 0000056cH .idata$4                DATA
 0002:00025b1c 00001842H .idata$6                DATA
 0003:00000000 00005510H .data                   DATA
 0003:00005510 000010f0H .data$r                 DATA
 0003:00006600 00029080H .bss                    DATA
 0004:00000000 000000c8H .gfids$x                DATA
 0004:000000c8 000000b8H .gfids$y                DATA
 0005:00000000 00000004H .tls                    DATA
 0005:00000004 00000004H .tls$                   DATA
 0005:00000008 00000001H .tls$ZZZ                DATA
 0006:00000000 00000fc0H .rsrc$01                DATA
 0006:00000fc0 000985d8H .rsrc$02                DATA

  Address         Publics by Value              Rva+Base       Lib:Object

 0000:00000000       ___guard_longjmp_count     00000000     <absolute>
 0000:00000000       __except_list              00000000     <absolute>
 0000:00000000       ___guard_fids_count        00000000     <absolute>
 0000:00000000       ___guard_fids_table        00000000     <absolute>
 0000:00000000       ___guard_longjmp_table     00000000     <absolute>
 0000:00000000       ___guard_iat_table         00000000     <absolute>
 0000:00000000       ___guard_iat_count         00000000     <absolute>
 0000:00000000       ___dynamic_value_reloc_table 00000000     <absolute>
 0000:0000002c       __tls_array                0000002c     <absolute>
 0000:000000d4       ___safe_se_handler_count   000000d4     <absolute>
 0000:00000100       ___guard_flags             00000100     <absolute>
 0000:00000000       ___ImageBase               00400000     <linker-defined>
 0001:000001d0       ??0Exception@GostCrypt@@QAE@ABU01@@Z 004011d0 f i FormatCom.obj
 0001:000001e0       ??0UserAbort@GostCrypt@@QAE@ABU01@@Z 004011e0 f i FormatCom.obj
 0001:000001f0       ?AddRef@?$GostCryptFactory@VGostCryptFormatCom@@@@UAGKXZ 004011f0 f i FormatCom.obj
 0001:00000210       ?AddRef@GostCryptFormatCom@@UAGKXZ 00401210 f i FormatCom.obj
 0001:00000230       ?AnalyzeHiddenVolumeHost@GostCryptFormatCom@@UAGHJPAH_J0PA_J@Z 00401230 f i FormatCom.obj
 0001:00000260       ?CallDriver@GostCryptFormatCom@@UAGKKPA_WPAPA_W@Z 00401260 f i FormatCom.obj
 0001:00000280       ?CopyFileA@GostCryptFormatCom@@UAGKPA_W0@Z 00401280 f i FormatCom.obj
 0001:000002a0       ?CreateInstance@?$GostCryptFactory@VGostCryptFormatCom@@@@UAGJPAUIUnknown@@ABU_GUID@@PAPAX@Z 004012a0 f i FormatCom.obj
 0001:00000340       ?DeleteFileA@GostCryptFormatCom@@UAGKPA_W@Z 00401340 f i FormatCom.obj
 0001:00000360       ?FormatNtfs@GostCryptFormatCom@@UAGHHH@Z 00401360 f i FormatCom.obj
 0001:00000380       ?GetElevatedInstance@@YAPAUIGostCryptFormatCom@@PAUHWND__@@@Z 00401380 f   FormatCom.obj
 0001:000003c0       ?IsPagingFileActive@GostCryptFormatCom@@UAGHH@Z 004013c0 f i FormatCom.obj
 0001:000003e0       ?IsServerLocked@?$GostCryptFactory@VGostCryptFormatCom@@@@UAE_NXZ 004013e0 f i FormatCom.obj
 0001:000003f0       ?LockServer@?$GostCryptFactory@VGostCryptFormatCom@@@@UAGJH@Z 004013f0 f i FormatCom.obj
 0001:00000430       ?QueryInterface@?$GostCryptFactory@VGostCryptFormatCom@@@@UAGJABU_GUID@@PAPAX@Z 00401430 f i FormatCom.obj
 0001:000004a0       ?QueryInterface@GostCryptFormatCom@@UAGJABU_GUID@@PAPAX@Z 004014a0 f i FormatCom.obj
 0001:00000510       ?ReadWriteFile@GostCryptFormatCom@@UAGKHHPA_WPAPA_W_KIPAK@Z 00401510 f i FormatCom.obj
 0001:00000540       ?RegisterFilterDriver@GostCryptFormatCom@@UAGKHH@Z 00401540 f i FormatCom.obj
 0001:00000560       ?RegisterSystemFavoritesService@GostCryptFormatCom@@UAGKH@Z 00401560 f i FormatCom.obj
 0001:00000580       ?Release@?$GostCryptFactory@VGostCryptFormatCom@@@@UAGKXZ 00401580 f i FormatCom.obj
 0001:000005c0       ?Release@GostCryptFormatCom@@UAGKXZ 004015c0 f i FormatCom.obj
 0001:00000620       ?SetDriverServiceStartType@GostCryptFormatCom@@UAGKK@Z 00401620 f i FormatCom.obj
 0001:00000640       ?WriteLocalMachineRegistryDwordValue@GostCryptFormatCom@@UAGKPA_W0K@Z 00401640 f i FormatCom.obj
 0001:00000660       ?_AtlInitializeCriticalSectionEx@ATL@@YAHPAU_RTL_CRITICAL_SECTION@@KK@Z 00401660 f i FormatCom.obj
 0001:00000680       _ComServerFormat           00401680 f   FormatCom.obj
 0001:00000770       _UacAnalyzeHiddenVolumeHost 00401770 f   FormatCom.obj
 0001:000007e0       _UacFormatNtfs             004017e0 f   FormatCom.obj
 0001:00000840       ??$?6_WU?$char_traits@_W@std@@@std@@YAAAV?$basic_ostream@_WU?$char_traits@_W@std@@@0@AAV10@PB_W@Z 00401840 f i Gstformat.obj
 0001:00000bc0       ??$?HDU?$char_traits@D@std@@V?$allocator@D@1@@std@@YA?AV?$basic_string@DU?$char_traits@D@std@@V?$allocator@D@2@@0@$$QAV10@ABV10@@Z 00401bc0 f i Gstformat.obj
 0001:00000c00       ??$?H_WU?$char_traits@_W@std@@V?$allocator@_W@1@@std@@YA?AV?$basic_string@_WU?$char_traits@_W@std@@V?$allocator@_W@2@@0@$$QAV10@PB_W@Z 00401c00 f i Gstformat.obj
 0001:00000c60       ??$GetContainerForward@V?$vector@UHostDevice@@V?$allocator@UHostDevice@@@std@@@std@@@ForEach@GostCrypt@@SA?AU?$ContainerForward@V?$vector@UHostDevice@@V?$allocator@UHostDevice@@@std@@@std@@@01@ABV?$vector@UHostDevice@@V?$allocator@UHostDevice@@@std@@@std@@@Z 00401c60 f i Gstformat.obj
 0001:00000cd0       ??$_Destroy_range@V?$allocator@UHostDevice@@@std@@PAUHostDevice@@@std@@YAXPAUHostDevice@@0AAU?$_Wrap_alloc@V?$allocator@UHostDevice@@@std@@@0@@Z 00401cd0 f i Gstformat.obj
 0001:00000d00       ??$_Immortalize@V_Iostream_error_category@std@@@std@@YAAAV_Iostream_error_category@0@XZ 00401d00 f i Gstformat.obj
 0001:00000d70       ??$_Maklocstr@_W@std@@YAPA_WPBDPA_WABU_Cvtvec@@@Z 00401d70 f i Gstformat.obj
 0001:00000e30       ??$use_facet@V?$ctype@_W@std@@@std@@YAABV?$ctype@_W@0@ABVlocale@0@@Z 00401e30 f i Gstformat.obj
 0001:00000f60       ??$use_facet@V?$num_put@_WV?$ostreambuf_iterator@_WU?$char_traits@_W@std@@@std@@@std@@@std@@YAABV?$num_put@_WV?$ostreambuf_iterator@_WU?$char_traits@_W@std@@@std@@@0@ABVlocale@0@@Z 00401f60 f i Gstformat.obj
 0001:00001090       ??$use_facet@V?$numpunct@_W@std@@@std@@YAABV?$numpunct@_W@0@ABVlocale@0@@Z 00402090 f i Gstformat.obj
 0001:000011c0       ??0?$basic_streambuf@_WU?$char_traits@_W@std@@@std@@IAE@XZ 004021c0 f i Gstformat.obj
 0001:00001290       ??0?$basic_string@DU?$char_traits@D@std@@V?$allocator@D@2@@std@@QAE@PBD@Z 00402290 f i Gstformat.obj
 0001:000012f0       ??0?$basic_string@_WU?$char_traits@_W@std@@V?$allocator@_W@2@@std@@QAE@PB_W@Z 004022f0 f i Gstformat.obj
 0001:00001350       ??0?$ctype@_W@std@@QAE@ABV_Locinfo@1@I@Z 00402350 f i Gstformat.obj
 0001:000013b0       ??0?$vector@UHostDevice@@V?$allocator@UHostDevice@@@std@@@std@@QAE@ABV01@@Z 004023b0 f i Gstformat.obj
 0001:000014a0       ??0HostDevice@@QAE@ABU0@@Z 004024a0 f i Gstformat.obj
 0001:000015d0       ??0_Locinfo@std@@QAE@PBD@Z 004025d0 f i Gstformat.obj
 0001:000016b0       ??0_System_error@std@@IAE@Verror_code@1@ABV?$basic_string@DU?$char_traits@D@std@@V?$allocator@D@2@@1@@Z 004026b0 f i Gstformat.obj
 0001:00001770       ??0_System_error@std@@QAE@ABV01@@Z 00402770 f i Gstformat.obj
 0001:000017c0       ??0bad_cast@std@@QAE@ABV01@@Z 004027c0 f i Gstformat.obj
 0001:00001800       ??0exception@std@@QAE@ABV01@@Z 00402800 f i Gstformat.obj
 0001:00001830       ??0failure@ios_base@std@@QAE@ABV012@@Z 00402830 f i Gstformat.obj
 0001:00001880       ??0runtime_error@std@@QAE@ABV01@@Z 00402880 f i Gstformat.obj
 0001:000018c0       ??0system_error@std@@QAE@ABV01@@Z 004028c0 f i Gstformat.obj
 0001:00001910       ??0system_error@std@@QAE@Verror_code@1@PBD@Z 00402910 f i Gstformat.obj
 0001:000019d0       ??1?$ContainerForward@V?$vector@UHostDevice@@V?$allocator@UHostDevice@@@std@@@std@@@ForEach@GostCrypt@@UAE@XZ 004029d0 f i Gstformat.obj
 0001:000019f0       ??1?$_Yarn@D@std@@QAE@XZ   004029f0 f i Gstformat.obj
 0001:000019f0       ??1?$_Yarn@_W@std@@QAE@XZ  004029f0 f i Gstformat.obj
 0001:00001a10       ??1?$basic_ios@_WU?$char_traits@_W@std@@@std@@UAE@XZ 00402a10 f i Gstformat.obj
 0001:00001a10       ??1?$basic_ios@DU?$char_traits@D@std@@@std@@UAE@XZ 00402a10 f i BootEncryption.obj
 0001:00001a60       ??1?$basic_iostream@_WU?$char_traits@_W@std@@@std@@UAE@XZ 00402a60 f i Gstformat.obj
 0001:00001ac0       ??1?$basic_istream@_WU?$char_traits@_W@std@@@std@@UAE@XZ 00402ac0 f i Gstformat.obj
 0001:00001ae0       ??1?$basic_streambuf@_WU?$char_traits@_W@std@@@std@@UAE@XZ 00402ae0 f i Gstformat.obj
 0001:00001b50       ??1?$basic_string@DU?$char_traits@D@std@@V?$allocator@D@2@@std@@QAE@XZ 00402b50 f i Gstformat.obj
 0001:00001b90       ??1?$basic_string@_WU?$char_traits@_W@std@@V?$allocator@_W@2@@std@@QAE@XZ 00402b90 f i Gstformat.obj
 0001:00001b90       ??1SecurityTokenKeyfilePath@GostCrypt@@QAE@XZ 00402b90 f i Dlgcode.obj
 0001:00001bd0       ??1?$basic_stringstream@_WU?$char_traits@_W@std@@V?$allocator@_W@2@@std@@UAE@XZ 00402bd0 f i Gstformat.obj
 0001:00001cc0       ??1?$vector@UHostDevice@@V?$allocator@UHostDevice@@@std@@@std@@QAE@XZ 00402cc0 f i Gstformat.obj
 0001:00001cd0       ??1Container@ForEach@GostCrypt@@UAE@XZ 00402cd0 f i Gstformat.obj
 0001:00001cf0       ??1HostDevice@@QAE@XZ      00402cf0 f i Gstformat.obj
 0001:00001de0       ??1Partition@GostCrypt@@QAE@XZ 00402de0 f i Gstformat.obj
 0001:00001e80       ??1SystemDriveConfiguration@GostCrypt@@QAE@XZ 00402e80 f i Gstformat.obj
 0001:00001f20       ??1_Locinfo@std@@QAE@XZ    00402f20 f i Gstformat.obj
 0001:00001ff0       ??1facet@locale@std@@MAE@XZ 00402ff0 f i Gstformat.obj
 0001:00002000       ??1locale@std@@QAE@XZ      00403000 f i Gstformat.obj
 0001:00002050       ?_Lock@?$basic_streambuf@DU?$char_traits@D@std@@@std@@UAEXXZ 00403050 f i BootEncryption.obj
 0001:00002050       ?_Unlock@?$basic_streambuf@DU?$char_traits@D@std@@@std@@UAEXXZ 00403050 f i BootEncryption.obj
 0001:00002050       ___except_validate_context_record 00403050 f i libvcruntime:jbcxrval.obj
 0001:00002050       ??3@YAXPAX0@Z              00403050 f i Gstformat.obj
 0001:00002050       @_guard_check_icall_nop@4  00403050 f i LIBCMT:guard_support.obj
 0001:00002050       __initialize_invalid_parameter_handler 00403050 f i LIBCMT:invalid_parameter_handler.obj
 0001:00002050       ___except_validate_jump_buffer 00403050 f i libvcruntime:jbcxrval.obj
 0001:00002050       ?_Lock@?$basic_streambuf@_WU?$char_traits@_W@std@@@std@@UAEXXZ 00403050 f i Gstformat.obj
 0001:00002050       _EnableHwEncryption        00403050 f i Crypto.obj
 0001:00002050       __initialize_denormal_control 00403050 f i LIBCMT:denormal_control.obj
 0001:00002050       ??1?$_String_alloc@U?$_String_base_types@DV?$allocator@D@std@@@std@@@std@@QAE@XZ 00403050 f i Dlgcode.obj
 0001:00002050       ?_Unlock@?$basic_streambuf@_WU?$char_traits@_W@std@@@std@@UAEXXZ 00403050 f i Gstformat.obj
 0001:00002060       ??6?$basic_ostream@_WU?$char_traits@_W@std@@@std@@QAEAAV01@_J@Z 00403060 f i Gstformat.obj
 0001:000022a0       ??_D?$basic_iostream@_WU?$char_traits@_W@std@@@std@@QAEXXZ 004032a0 f i Gstformat.obj
 0001:00002340       ??_D?$basic_stringstream@_WU?$char_traits@_W@std@@V?$allocator@_W@2@@std@@QAEXXZ 00403340 f i Gstformat.obj
 0001:00002393       ??_E?$basic_iostream@_WU?$char_traits@_W@std@@@std@@$4PPPPPPPM@A@AEPAXI@Z 00403393 f i Gstformat.obj
 0001:0000239b       ??_E?$basic_istream@_WU?$char_traits@_W@std@@@std@@$4PPPPPPPM@A@AEPAXI@Z 0040339b f i Gstformat.obj
 0001:000023a3       ??_E?$basic_ostream@_WU?$char_traits@_W@std@@@std@@$4PPPPPPPM@A@AEPAXI@Z 004033a3 f i Gstformat.obj
 0001:000023ab       ??_E?$basic_stringstream@_WU?$char_traits@_W@std@@V?$allocator@_W@2@@std@@$4PPPPPPPM@A@AEPAXI@Z 004033ab f i Gstformat.obj
 0001:000023c0       ??_E?$ContainerForward@V?$vector@UHostDevice@@V?$allocator@UHostDevice@@@std@@@std@@@ForEach@GostCrypt@@UAEPAXI@Z 004033c0 f i Gstformat.obj
 0001:000023c0       ??_G?$ContainerForward@V?$vector@UHostDevice@@V?$allocator@UHostDevice@@@std@@@std@@@ForEach@GostCrypt@@UAEPAXI@Z 004033c0 f i Gstformat.obj
 0001:000023f0       ??_E?$basic_ios@DU?$char_traits@D@std@@@std@@UAEPAXI@Z 004033f0 f i BootEncryption.obj
 0001:000023f0       ??_E?$basic_ios@_WU?$char_traits@_W@std@@@std@@UAEPAXI@Z 004033f0 f i Gstformat.obj
 0001:000023f0       ??_G?$basic_ios@DU?$char_traits@D@std@@@std@@UAEPAXI@Z 004033f0 f i BootEncryption.obj
 0001:000023f0       ??_G?$basic_ios@_WU?$char_traits@_W@std@@@std@@UAEPAXI@Z 004033f0 f i Gstformat.obj
 0001:00002450       ??_E?$basic_iostream@_WU?$char_traits@_W@std@@@std@@UAEPAXI@Z 00403450 f i Gstformat.obj
 0001:00002450       ??_G?$basic_iostream@_WU?$char_traits@_W@std@@@std@@UAEPAXI@Z 00403450 f i Gstformat.obj
 0001:00002480       ??_G?$basic_istream@_WU?$char_traits@_W@std@@@std@@UAEPAXI@Z 00403480 f i Gstformat.obj
 0001:00002480       ??_E?$basic_istream@_WU?$char_traits@_W@std@@@std@@UAEPAXI@Z 00403480 f i Gstformat.obj
 0001:00002500       ??_G?$basic_ostream@_WU?$char_traits@_W@std@@@std@@UAEPAXI@Z 00403500 f i Gstformat.obj
 0001:00002500       ??_E?$basic_ostream@_WU?$char_traits@_W@std@@@std@@UAEPAXI@Z 00403500 f i Gstformat.obj
 0001:00002580       ??_G?$basic_streambuf@_WU?$char_traits@_W@std@@@std@@UAEPAXI@Z 00403580 f i Gstformat.obj
 0001:00002580       ??_E?$basic_streambuf@_WU?$char_traits@_W@std@@@std@@UAEPAXI@Z 00403580 f i Gstformat.obj
 0001:00002610       ??_E?$basic_stringbuf@_WU?$char_traits@_W@std@@V?$allocator@_W@2@@std@@UAEPAXI@Z 00403610 f i Gstformat.obj
 0001:00002610       ??_G?$basic_stringbuf@_WU?$char_traits@_W@std@@V?$allocator@_W@2@@std@@UAEPAXI@Z 00403610 f i Gstformat.obj
 0001:000026a0       ??_G?$basic_stringstream@_WU?$char_traits@_W@std@@V?$allocator@_W@2@@std@@UAEPAXI@Z 004036a0 f i Gstformat.obj
 0001:000026a0       ??_E?$basic_stringstream@_WU?$char_traits@_W@std@@V?$allocator@_W@2@@std@@UAEPAXI@Z 004036a0 f i Gstformat.obj
 0001:00002710       ??_E?$ctype@_W@std@@MAEPAXI@Z 00403710 f i Gstformat.obj
 0001:00002710       ??_G?$ctype@_W@std@@MAEPAXI@Z 00403710 f i Gstformat.obj
 0001:00002760       ??_G?$numpunct@_W@std@@MAEPAXI@Z 00403760 f i Gstformat.obj
 0001:00002760       ??_E?$numpunct@_W@std@@MAEPAXI@Z 00403760 f i Gstformat.obj
 0001:000027b0       ??_EContainer@ForEach@GostCrypt@@UAEPAXI@Z 004037b0 f i Gstformat.obj
 0001:000027b0       ??_GContainer@ForEach@GostCrypt@@UAEPAXI@Z 004037b0 f i Gstformat.obj
 0001:000027e0       ??_G_Facet_base@std@@UAEPAXI@Z 004037e0 f i Gstformat.obj
 0001:000027e0       ??_E_Facet_base@std@@UAEPAXI@Z 004037e0 f i Gstformat.obj
 0001:00002810       ??_E_Iostream_error_category@std@@UAEPAXI@Z 00403810 f i Gstformat.obj
 0001:00002810       ??_Gerror_category@std@@UAEPAXI@Z 00403810 f i Gstformat.obj
 0001:00002810       ??_G_Iostream_error_category@std@@UAEPAXI@Z 00403810 f i Gstformat.obj
 0001:00002810       ??_Eerror_category@std@@UAEPAXI@Z 00403810 f i Gstformat.obj
 0001:00002840       ??_Eios_base@std@@UAEPAXI@Z 00403840 f i Gstformat.obj
 0001:00002840       ??_Gios_base@std@@UAEPAXI@Z 00403840 f i Gstformat.obj
 0001:000028a0       ??_Gexception@std@@UAEPAXI@Z 004038a0 f i Gstformat.obj
 0001:000028a0       ??_Gbad_cast@std@@UAEPAXI@Z 004038a0 f i Gstformat.obj
 0001:000028a0       ??_Eruntime_error@std@@UAEPAXI@Z 004038a0 f i Gstformat.obj
 0001:000028a0       ??_Gbad_alloc@std@@UAEPAXI@Z 004038a0 f i BootEncryption.obj
 0001:000028a0       ??_Gruntime_error@std@@UAEPAXI@Z 004038a0 f i Gstformat.obj
 0001:000028a0       ??_Ebad_alloc@std@@UAEPAXI@Z 004038a0 f i BootEncryption.obj
 0001:000028a0       ??_Ebad_cast@std@@UAEPAXI@Z 004038a0 f i Gstformat.obj
 0001:000028a0       ??_Eexception@std@@UAEPAXI@Z 004038a0 f i Gstformat.obj
 0001:000028d0       ??_Gfailure@ios_base@std@@UAEPAXI@Z 004038d0 f i Gstformat.obj
 0001:000028d0       ??_Esystem_error@std@@UAEPAXI@Z 004038d0 f i Gstformat.obj
 0001:000028d0       ??_Gsystem_error@std@@UAEPAXI@Z 004038d0 f i Gstformat.obj
 0001:000028d0       ??_E_System_error@std@@UAEPAXI@Z 004038d0 f i Gstformat.obj
 0001:000028d0       ??_Efailure@ios_base@std@@UAEPAXI@Z 004038d0 f i Gstformat.obj
 0001:000028d0       ??_G_System_error@std@@UAEPAXI@Z 004038d0 f i Gstformat.obj
 0001:00003300       ?GetSystemPartitionSize@@YA_JXZ 00404300 f   Gstformat.obj
 0001:000034d0       ?Next@?$ContainerForward@V?$vector@USecurityTokenKeyfile@GostCrypt@@V?$allocator@USecurityTokenKeyfile@GostCrypt@@@std@@@std@@@ForEach@GostCrypt@@UBEXXZ 004044d0 f i Dlgcode.obj
 0001:000034d0       ?Next@?$ContainerForward@V?$vector@UHostDevice@@V?$allocator@UHostDevice@@@std@@@std@@@ForEach@GostCrypt@@UBEXXZ 004044d0 f i Gstformat.obj
 0001:000036d0       ?SwitchWizardToHiddenOSMode@@YAHXZ 004046d0 f   Gstformat.obj
 0001:00003a00       ?SwitchWizardToNonSysDeviceMode@@YAXXZ 00404a00 f   Gstformat.obj
 0001:00003bc0       ?SwitchWizardToNonSysInplaceEncResumeMode@@YAXXZ 00404bc0 f   Gstformat.obj
 0001:00004970       ?_Assign_rv@?$basic_string@DU?$char_traits@D@std@@V?$allocator@D@2@@std@@QAEX$$QAV12@@Z 00405970 f i Gstformat.obj
 0001:000049e0       ?_Assign_rv@?$basic_string@_WU?$char_traits@_W@std@@V?$allocator@_W@2@@std@@QAEX$$QAV12@@Z 004059e0 f i Gstformat.obj
 0001:00004a50       ?_Chassign@?$basic_string@DU?$char_traits@D@std@@V?$allocator@D@2@@std@@QAEXIID@Z 00405a50 f i Gstformat.obj
 0001:00004aa0       ?_Chassign@?$basic_string@_WU?$char_traits@_W@std@@V?$allocator@_W@2@@std@@QAEXII_W@Z 00405aa0 f i Gstformat.obj
 0001:00004b00       ?_Copy@?$basic_string@DU?$char_traits@D@std@@V?$allocator@D@2@@std@@QAEXII@Z 00405b00 f i Gstformat.obj
 0001:00004ca0       ?_Copy@?$basic_string@_WU?$char_traits@_W@std@@V?$allocator@_W@2@@std@@QAEXII@Z 00405ca0 f i Gstformat.obj
 0001:00004e10       ?_Decref@facet@locale@std@@UAEPAV_Facet_base@3@XZ 00405e10 f i Gstformat.obj
 0001:00004e30       ?_Fput@?$num_put@_WV?$ostreambuf_iterator@_WU?$char_traits@_W@std@@@std@@@std@@ABA?AV?$ostreambuf_iterator@_WU?$char_traits@_W@std@@@2@V32@AAVios_base@2@_WPBDI@Z 00405e30 f i Gstformat.obj
 0001:000051f0       ?_Getcat@?$ctype@_W@std@@SAIPAPBVfacet@locale@2@PBV42@@Z 004061f0 f i Gstformat.obj
 0001:000052a0       ?_Getcat@?$num_put@_WV?$ostreambuf_iterator@_WU?$char_traits@_W@std@@@std@@@std@@SAIPAPBVfacet@locale@2@PBV42@@Z 004062a0 f i Gstformat.obj
 0001:00005350       ?_Getcat@?$numpunct@_W@std@@SAIPAPBVfacet@locale@2@PBV42@@Z 00406350 f i Gstformat.obj
 0001:00005420       ?_Incref@facet@locale@std@@UAEXXZ 00406420 f i Gstformat.obj
 0001:00005430       ?_Init@?$numpunct@_W@std@@IAEXABV_Locinfo@2@_N@Z 00406430 f i Gstformat.obj
 0001:00005600       ?_Init@ios_base@std@@IAEXXZ 00406600 f i Gstformat.obj
 0001:000056d0       ?_Iput@?$num_put@_WV?$ostreambuf_iterator@_WU?$char_traits@_W@std@@@std@@@std@@ABA?AV?$ostreambuf_iterator@_WU?$char_traits@_W@std@@@2@V32@AAVios_base@2@_WPADI@Z 004066d0 f i Gstformat.obj
 0001:00005a30       ?_Makestr@_System_error@std@@CA?AV?$basic_string@DU?$char_traits@D@std@@V?$allocator@D@2@@2@Verror_code@2@V32@@Z 00406a30 f i Gstformat.obj
 0001:00005b00       ?_Put@?$num_put@_WV?$ostreambuf_iterator@_WU?$char_traits@_W@std@@@std@@@std@@ABA?AV?$ostreambuf_iterator@_WU?$char_traits@_W@std@@@2@V32@PB_WI@Z 00406b00 f i Gstformat.obj
 0001:00005b80       ?_Reallocate@?$vector@UHostDevice@@V?$allocator@UHostDevice@@@std@@@std@@IAEXI@Z 00406b80 f i Gstformat.obj
 0001:00005c80       ?_Rep@?$num_put@_WV?$ostreambuf_iterator@_WU?$char_traits@_W@std@@@std@@@std@@ABA?AV?$ostreambuf_iterator@_WU?$char_traits@_W@std@@@2@V32@_WI@Z 00406c80 f i Gstformat.obj
 0001:00005cf0       ?_Reserve@?$vector@UHostDevice@@V?$allocator@UHostDevice@@@std@@@std@@IAEXI@Z 00406cf0 f i Gstformat.obj
 0001:00005d90       ?_Tidy@?$basic_stringbuf@_WU?$char_traits@_W@std@@V?$allocator@_W@2@@std@@IAEXXZ 00406d90 f i Gstformat.obj
 0001:00005e10       ?_Tidy@?$vector@UHostDevice@@V?$allocator@UHostDevice@@@std@@@std@@IAEXXZ 00406e10 f i Gstformat.obj
 0001:00005e70       ?allocate@?$_Wrap_alloc@V?$allocator@D@std@@@std@@QAEPADI@Z 00406e70 f i Gstformat.obj
 0001:00005e70       ?allocate@?$_Wrap_alloc@V?$allocator@E@std@@@std@@QAEPAEI@Z 00406e70 f i Dlgcode.obj
 0001:00005e70       ?allocate@?$allocator@D@std@@QAEPADI@Z 00406e70 f i BootEncryption.obj
 0001:00005ed0       ?allocate@?$allocator@_W@std@@QAEPA_WI@Z 00406ed0 f i Gstformat.obj
 0001:00005f40       ?append@?$basic_string@DU?$char_traits@D@std@@V?$allocator@D@2@@std@@QAEAAV12@ABV12@II@Z 00406f40 f i Gstformat.obj
 0001:00006040       ?append@?$basic_string@DU?$char_traits@D@std@@V?$allocator@D@2@@std@@QAEAAV12@ID@Z 00407040 f i Gstformat.obj
 0001:000060f0       ?append@?$basic_string@DU?$char_traits@D@std@@V?$allocator@D@2@@std@@QAEAAV12@PBDI@Z 004070f0 f i Gstformat.obj
 0001:00006220       ?append@?$basic_string@_WU?$char_traits@_W@std@@V?$allocator@_W@2@@std@@QAEAAV12@ABV12@II@Z 00407220 f i Gstformat.obj
 0001:00006330       ?append@?$basic_string@_WU?$char_traits@_W@std@@V?$allocator@_W@2@@std@@QAEAAV12@PB_WI@Z 00407330 f i Gstformat.obj
 0001:00006460       ?assign@?$basic_string@DU?$char_traits@D@std@@V?$allocator@D@2@@std@@QAEAAV12@ABV12@II@Z 00407460 f i Gstformat.obj
 0001:00006590       ?assign@?$basic_string@DU?$char_traits@D@std@@V?$allocator@D@2@@std@@QAEAAV12@PBDI@Z 00407590 f i Gstformat.obj
 0001:00006690       ?assign@?$basic_string@_WU?$char_traits@_W@std@@V?$allocator@_W@2@@std@@QAEAAV12@ABV12@II@Z 00407690 f i Gstformat.obj
 0001:000067b0       ?assign@?$basic_string@_WU?$char_traits@_W@std@@V?$allocator@_W@2@@std@@QAEAAV12@I_W@Z 004077b0 f i Gstformat.obj
 0001:00006850       ?assign@?$basic_string@_WU?$char_traits@_W@std@@V?$allocator@_W@2@@std@@QAEAAV12@PB_WI@Z 00407850 f i Gstformat.obj
 0001:00006950       ?clear@?$list@UPartition@GostCrypt@@V?$allocator@UPartition@GostCrypt@@@std@@@std@@QAEXXZ 00407950 f i Gstformat.obj
 0001:00006990       ?clear@?$vector@UHostDevice@@V?$allocator@UHostDevice@@@std@@@std@@QAEXXZ 00407990 f i Gstformat.obj
 0001:000069c0       ?clear@ios_base@std@@QAEXH@Z 004079c0 f i Gstformat.obj
 0001:00006a30       ?deallocate@?$_Wrap_alloc@V?$allocator@UHostDevice@@@std@@@std@@QAEXPAUHostDevice@@I@Z 00407a30 f i Gstformat.obj
 0001:00006a30       ?deallocate@?$_Wrap_alloc@V?$allocator@USecurityTokenKeyfile@GostCrypt@@@std@@@std@@QAEXPAUSecurityTokenKeyfile@GostCrypt@@I@Z 00407a30 f i Dlgcode.obj
 0001:00006a90       ?deallocate@?$allocator@_W@std@@QAEXPA_WI@Z 00407a90 f i Gstformat.obj
 0001:00006a90       ?deallocate@?$_Wrap_alloc@V?$allocator@_W@std@@@std@@QAEXPA_WI@Z 00407a90 f i Gstformat.obj
 0001:00006af0       ?default_error_condition@error_category@std@@UBE?AVerror_condition@2@H@Z 00407af0 f i Gstformat.obj
 0001:00006b10       ?do_decimal_point@?$numpunct@_W@std@@MBE_WXZ 00407b10 f i Gstformat.obj
 0001:00006b20       ?do_falsename@?$numpunct@_W@std@@MBE?AV?$basic_string@_WU?$char_traits@_W@std@@V?$allocator@_W@2@@2@XZ 00407b20 f i Gstformat.obj
 0001:00006b90       ?do_is@?$ctype@_W@std@@MBEPB_WPB_W0PAF@Z 00407b90 f i Gstformat.obj
 0001:00006bb0       ?do_is@?$ctype@_W@std@@MBE_NF_W@Z 00407bb0 f i Gstformat.obj
 0001:00006bd0       ?do_narrow@?$ctype@_W@std@@MBED_WD@Z 00407bd0 f i Gstformat.obj
 0001:00006c20       ?do_narrow@?$ctype@_W@std@@MBEPB_WPB_W0DPAD@Z 00407c20 f i Gstformat.obj
 0001:00006cc0       ?do_put@?$num_put@_WV?$ostreambuf_iterator@_WU?$char_traits@_W@std@@@std@@@std@@MBE?AV?$ostreambuf_iterator@_WU?$char_traits@_W@std@@@2@V32@AAVios_base@2@_WJ@Z 00407cc0 f i Gstformat.obj
 0001:00006d30       ?do_put@?$num_put@_WV?$ostreambuf_iterator@_WU?$char_traits@_W@std@@@std@@@std@@MBE?AV?$ostreambuf_iterator@_WU?$char_traits@_W@std@@@2@V32@AAVios_base@2@_WK@Z 00407d30 f i Gstformat.obj
 0001:00006da0       ?do_put@?$num_put@_WV?$ostreambuf_iterator@_WU?$char_traits@_W@std@@@std@@@std@@MBE?AV?$ostreambuf_iterator@_WU?$char_traits@_W@std@@@2@V32@AAVios_base@2@_WN@Z 00407da0 f i Gstformat.obj
 0001:00006f40       ?do_put@?$num_put@_WV?$ostreambuf_iterator@_WU?$char_traits@_W@std@@@std@@@std@@MBE?AV?$ostreambuf_iterator@_WU?$char_traits@_W@std@@@2@V32@AAVios_base@2@_WO@Z 00407f40 f i Gstformat.obj
 0001:000070e0       ?do_put@?$num_put@_WV?$ostreambuf_iterator@_WU?$char_traits@_W@std@@@std@@@std@@MBE?AV?$ostreambuf_iterator@_WU?$char_traits@_W@std@@@2@V32@AAVios_base@2@_WPBX@Z 004080e0 f i Gstformat.obj
 0001:00007140       ?do_put@?$num_put@_WV?$ostreambuf_iterator@_WU?$char_traits@_W@std@@@std@@@std@@MBE?AV?$ostreambuf_iterator@_WU?$char_traits@_W@std@@@2@V32@AAVios_base@2@_W_J@Z 00408140 f i Gstformat.obj
 0001:000071b0       ?do_put@?$num_put@_WV?$ostreambuf_iterator@_WU?$char_traits@_W@std@@@std@@@std@@MBE?AV?$ostreambuf_iterator@_WU?$char_traits@_W@std@@@2@V32@AAVios_base@2@_W_K@Z 004081b0 f i Gstformat.obj
 0001:00007220       ?do_put@?$num_put@_WV?$ostreambuf_iterator@_WU?$char_traits@_W@std@@@std@@@std@@MBE?AV?$ostreambuf_iterator@_WU?$char_traits@_W@std@@@2@V32@AAVios_base@2@_W_N@Z 00408220 f i Gstformat.obj
 0001:00007420       ?do_scan_is@?$ctype@_W@std@@MBEPB_WFPB_W0@Z 00408420 f i Gstformat.obj
 0001:00007460       ?do_scan_not@?$ctype@_W@std@@MBEPB_WFPB_W0@Z 00408460 f i Gstformat.obj
 0001:000074a0       ?do_thousands_sep@?$numpunct@_W@std@@MBE_WXZ 004084a0 f i Gstformat.obj
 0001:000074b0       ?do_tolower@?$ctype@_W@std@@MBEPB_WPA_WPB_W@Z 004084b0 f i Gstformat.obj
 0001:00007500       ?do_tolower@?$ctype@_W@std@@MBE_W_W@Z 00408500 f i Gstformat.obj
 0001:00007520       ?do_toupper@?$ctype@_W@std@@MBEPB_WPA_WPB_W@Z 00408520 f i Gstformat.obj
 0001:00007570       ?do_toupper@?$ctype@_W@std@@MBE_W_W@Z 00408570 f i Gstformat.obj
 0001:00007590       ?do_truename@?$numpunct@_W@std@@MBE?AV?$basic_string@_WU?$char_traits@_W@std@@V?$allocator@_W@2@@2@XZ 00408590 f i Gstformat.obj
 0001:00007600       ?do_widen@?$ctype@_W@std@@MBEPBDPBD0PA_W@Z 00408600 f i Gstformat.obj
 0001:00007690       ?do_widen@?$ctype@_W@std@@MBE_WD@Z 00408690 f i Gstformat.obj
 0001:000076e0       ?equivalent@error_category@std@@UBE_NABVerror_code@2@H@Z 004086e0 f i Gstformat.obj
 0001:00007710       ?equivalent@error_category@std@@UBE_NHABVerror_condition@2@@Z 00408710 f i Gstformat.obj
 0001:00007750       ?erase@?$basic_string@DU?$char_traits@D@std@@V?$allocator@D@2@@std@@QAEAAV12@II@Z 00408750 f i Gstformat.obj
 0001:000077f0       ?erase@?$basic_string@_WU?$char_traits@_W@std@@V?$allocator@_W@2@@std@@QAEAAV12@II@Z 004087f0 f i Gstformat.obj
 0001:000078a0       ?getloc@ios_base@std@@QBE?AVlocale@2@XZ 004088a0 f i Gstformat.obj
 0001:00007900       ?init@?$basic_ios@_WU?$char_traits@_W@std@@@std@@IAEXPAV?$basic_streambuf@_WU?$char_traits@_W@std@@@2@_N@Z 00408900 f i Gstformat.obj
 0001:00007a30       ?insert@?$basic_string@_WU?$char_traits@_W@std@@V?$allocator@_W@2@@std@@QAEAAV12@II_W@Z 00408a30 f i Gstformat.obj
 0001:00007b50       ?message@_Generic_error_category@std@@UBE?AV?$basic_string@DU?$char_traits@D@std@@V?$allocator@D@2@@2@H@Z 00408b50 f i Gstformat.obj
 0001:00007bc0       ?message@_Iostream_error_category@std@@UBE?AV?$basic_string@DU?$char_traits@D@std@@V?$allocator@D@2@@2@H@Z 00408bc0 f i Gstformat.obj
 0001:00007c10       ?message@error_code@std@@QBE?AV?$basic_string@DU?$char_traits@D@std@@V?$allocator@D@2@@2@XZ 00408c10 f i Gstformat.obj
 0001:00007c40       ?name@_Iostream_error_category@std@@UBEPBDXZ 00408c40 f i Gstformat.obj
 0001:00007c50       ?overflow@?$basic_stringbuf@_WU?$char_traits@_W@std@@V?$allocator@_W@2@@std@@MAEGG@Z 00408c50 f i Gstformat.obj
 0001:00007e60       ?overflow@?$basic_streambuf@_WU?$char_traits@_W@std@@@std@@MAEGG@Z 00408e60 f i Gstformat.obj
 0001:00007e60       ?pbackfail@?$basic_streambuf@_WU?$char_traits@_W@std@@@std@@MAEGG@Z 00408e60 f i Gstformat.obj
 0001:00007e70       ?pbackfail@?$basic_stringbuf@_WU?$char_traits@_W@std@@V?$allocator@_W@2@@std@@MAEGG@Z 00408e70 f i Gstformat.obj
 0001:00007ee0       ?push_back@?$vector@UHostDevice@@V?$allocator@UHostDevice@@@std@@@std@@QAEXABUHostDevice@@@Z 00408ee0 f i Gstformat.obj
 0001:00007fa0       ?seekoff@?$basic_streambuf@_WU?$char_traits@_W@std@@@std@@MAE?AV?$fpos@U_Mbstatet@@@2@_JHH@Z 00408fa0 f i Gstformat.obj
 0001:00007fa0       ?seekoff@?$basic_streambuf@DU?$char_traits@D@std@@@std@@MAE?AV?$fpos@U_Mbstatet@@@2@_JHH@Z 00408fa0 f i BootEncryption.obj
 0001:00007fe0       ?seekoff@?$basic_stringbuf@_WU?$char_traits@_W@std@@V?$allocator@_W@2@@std@@MAE?AV?$fpos@U_Mbstatet@@@2@_JHH@Z 00408fe0 f i Gstformat.obj
 0001:000081e0       ?seekpos@?$basic_streambuf@DU?$char_traits@D@std@@@std@@MAE?AV?$fpos@U_Mbstatet@@@2@V32@H@Z 004091e0 f i BootEncryption.obj
 0001:000081e0       ?seekpos@?$basic_streambuf@_WU?$char_traits@_W@std@@@std@@MAE?AV?$fpos@U_Mbstatet@@@2@V32@H@Z 004091e0 f i Gstformat.obj
 0001:00008220       ?seekpos@?$basic_stringbuf@_WU?$char_traits@_W@std@@V?$allocator@_W@2@@std@@MAE?AV?$fpos@U_Mbstatet@@@2@V32@H@Z 00409220 f i Gstformat.obj
 0001:00008370       ?setbuf@?$basic_streambuf@_WU?$char_traits@_W@std@@@std@@MAEPAV12@PA_W_J@Z 00409370 f i Gstformat.obj
 0001:00008370       ?setbuf@?$basic_streambuf@DU?$char_traits@D@std@@@std@@MAEPAV12@PAD_J@Z 00409370 f i BootEncryption.obj
 0001:00008380       ?showmanyc@?$basic_streambuf@_WU?$char_traits@_W@std@@@std@@MAE_JXZ 00409380 f i Gstformat.obj
 0001:00008380       ?showmanyc@?$basic_streambuf@DU?$char_traits@D@std@@@std@@MAE_JXZ 00409380 f i BootEncryption.obj
 0001:00008390       ?str@?$basic_stringbuf@_WU?$char_traits@_W@std@@V?$allocator@_W@2@@std@@QBE?AV?$basic_string@_WU?$char_traits@_W@std@@V?$allocator@_W@2@@2@XZ 00409390 f i Gstformat.obj
 0001:000084c0       ?str@?$basic_stringstream@_WU?$char_traits@_W@std@@V?$allocator@_W@2@@std@@QBE?AV?$basic_string@_WU?$char_traits@_W@std@@V?$allocator@_W@2@@2@XZ 004094c0 f i Gstformat.obj
 0001:000084e0       ?swprintf@@YAHQA_WQB_WZZ   004094e0 f i Gstformat.obj
 0001:00008510       ?uflow@?$basic_streambuf@_WU?$char_traits@_W@std@@@std@@MAEGXZ 00409510 f i Gstformat.obj
 0001:00008540       ?underflow@?$basic_streambuf@_WU?$char_traits@_W@std@@@std@@MAEGXZ 00409540 f i Gstformat.obj
 0001:00008550       ?underflow@?$basic_stringbuf@_WU?$char_traits@_W@std@@V?$allocator@_W@2@@std@@MAEGXZ 00409550 f i Gstformat.obj
 0001:000085c0       ?what@exception@std@@UBEPBDXZ 004095c0 f i Gstformat.obj
 0001:000085d0       ?xsgetn@?$basic_streambuf@_WU?$char_traits@_W@std@@@std@@MAE_JPA_W_J@Z 004095d0 f i Gstformat.obj
 0001:000086d0       ?xsputn@?$basic_streambuf@_WU?$char_traits@_W@std@@@std@@MAE_JPB_W_J@Z 004096d0 f i Gstformat.obj
 0001:00009880       _AnalyzeHiddenVolumeHost   0040a880 f   Gstformat.obj
 0001:00009ce0       _ComboSelChangeEA          0040ace0 f   Gstformat.obj
 0001:00009fe0       _DetermineMaxHiddenVolSize 0040afe0 f   Gstformat.obj
 0001:0000a190       _DisplayPortionsOfKeys     0040b190 f   Gstformat.obj
 0001:0000a3d0       _DisplayRandPool           0040b3d0 f   Gstformat.obj
 0001:0000a510       _DisplaySizingErrorText    0040b510 f   Gstformat.obj
 0001:0000a5b0       _EnableDisableFileNext     0040b5b0 f   Gstformat.obj
 0001:0000a6b0       _ExtractCommandLine        0040b6b0 f   Gstformat.obj
 0001:0000b6b0       _GetFileVolSize            0040c6b0 f   Gstformat.obj
 0001:0000b820       _HandleOldAssignedDriveLetter 0040c820 f   Gstformat.obj
 0001:0000bb90       _IsSparseFile              0040cb90 f   Gstformat.obj
 0001:0000c190       _MainDialogProc@16         0040d190 f   Gstformat.obj
 0001:00010820       _MountHiddenVolHost        00411820 f   Gstformat.obj
 0001:00010a30       _PageDialogProc@16         00411a30 f   Gstformat.obj
 0001:00015ef0       _PrintFreeSpace            00416ef0 f   Gstformat.obj
 0001:00016100       _QueryFreeSpace            00417100 f   Gstformat.obj
 0001:00016650       _ScanVolClusterBitmap      00417650 f   Gstformat.obj
 0001:00016860       _ShowNonSysInPlaceEncUIStatus 00417860 f   Gstformat.obj
 0001:00016a50       _SwitchWizardToFileContainerMode 00417a50 f   Gstformat.obj
 0001:00016c40       _SwitchWizardToSysEncMode  00417c40 f   Gstformat.obj
 0001:000176c0       _UpdateNonSysInPlaceEncControls 004186c0 f   Gstformat.obj
 0001:00017eb0       _WinMain@16                00418eb0 f   Gstformat.obj
 0001:00018440       ___local_stdio_printf_options 00419440 f i Gstformat.obj
 0001:00018450       __snwprintf                00419450 f i Gstformat.obj
 0001:00018490       _fprintf                   00419490 f i Gstformat.obj
 0001:000187a0       _sprintf                   004197a0 f i Gstformat.obj
 0001:000187e0       _sprintf_s                 004197e0 f i Gstformat.obj
 0001:00018810       _swprintf_s                00419810 f i Gstformat.obj
 0001:00019110       ??$?H_WU?$char_traits@_W@std@@V?$allocator@_W@1@@std@@YA?AV?$basic_string@_WU?$char_traits@_W@std@@V?$allocator@_W@2@@0@$$QAV10@ABV10@@Z 0041a110 f i InPlace.obj
 0001:00019150       ??$?H_WU?$char_traits@_W@std@@V?$allocator@_W@1@@std@@YA?AV?$basic_string@_WU?$char_traits@_W@std@@V?$allocator@_W@2@@0@ABV10@PB_W@Z 0041a150 f i InPlace.obj
 0001:00019260       ??$?H_WU?$char_traits@_W@std@@V?$allocator@_W@1@@std@@YA?AV?$basic_string@_WU?$char_traits@_W@std@@V?$allocator@_W@2@@0@PB_WABV10@@Z 0041a260 f i InPlace.obj
 0001:00019c40       ?_Grow@?$basic_string@_WU?$char_traits@_W@std@@V?$allocator@_W@2@@std@@QAE_NI_N@Z 0041ac40 f i InPlace.obj
 0001:00019cc0       ?_Tidy@?$basic_string@_WU?$char_traits@_W@std@@V?$allocator@_W@2@@std@@QAEX_NI@Z 0041acc0 f i InPlace.obj
 0001:00019d30       ?_Traits_compare@?$basic_string@_WU?$char_traits@_W@std@@V?$allocator@_W@2@@std@@SAHQB_WI0I@Z 0041ad30 f i InPlace.obj
 0001:00019d90       _CheckRequirementsForNonSysInPlaceEnc 0041ad90 f   InPlace.obj
 0001:0001a480       _EncryptPartitionInPlaceBegin 0041b480 f   InPlace.obj
 0001:0001ab60       _EncryptPartitionInPlaceResume 0041bb60 f   InPlace.obj
 0001:0001ba60       _FastVolumeHeaderUpdate    0041ca60 f   InPlace.obj
 0001:0001bc90       _MoveClustersBeforeThreshold 0041cc90 f   InPlace.obj
 0001:0001be40       _SaveNonSysInPlaceEncSettings 0041ce40 f   InPlace.obj
 0001:0001bf70       _SetNonSysInplaceEncUIStatus 0041cf70 f   InPlace.obj
 0001:0001bf80       _ShowInPlaceEncErrMsgWAltSteps 0041cf80 f   InPlace.obj
 0001:0001c070       _ZeroUnreadableSectors     0041d070 f   InPlace.obj
 0001:0001c180       ___local_stdio_scanf_options 0041d180 f i InPlace.obj
 0001:0001c190       _sscanf                    0041d190 f i InPlace.obj
 0001:0001c1c0       ??$AtlConvAllocMemory@D@ATL@@YAXPAPADHPADH@Z 0041d1c0 f i BaseCom.obj
 0001:0001c260       ??1?$CW2AEX@$0IA@@ATL@@QAE@XZ 0041d260 f i BaseCom.obj
 0001:0001c280       ??1?$auto_ptr@VFile@GostCrypt@@@std@@QAE@XZ 0041d280 f i BaseCom.obj
 0001:0001c310       ?AtlThrowImpl@ATL@@YGXJ@Z  0041d310 f i BaseCom.obj
 0001:0001c330       ?AtlThrowLastWin32@ATL@@YGXXZ 0041d330 f i BaseCom.obj
 0001:0001c350       ?CallDriver@BaseCom@@SAKKPA_WPAPA_W@Z 0041d350 f   BaseCom.obj
 0001:0001c430       ?ComGetInstanceBase@@YAHPAUHWND__@@ABU_GUID@@1PAPAX@Z 0041d430 f   BaseCom.obj
 0001:0001c480       ?CopyFileA@BaseCom@@SAKPA_W0@Z 0041d480 f   BaseCom.obj
 0001:0001c570       ?CreateElevatedComObject@@YAJPAUHWND__@@ABU_GUID@@1PAPAX@Z 0041d570 f   BaseCom.obj
 0001:0001c630       ?DeleteFileA@BaseCom@@SAKPA_W@Z 0041d630 f   BaseCom.obj
 0001:0001c6c0       ?Init@?$CW2AEX@$0IA@@ATL@@AAEXPB_WI@Z 0041d6c0 f i BaseCom.obj
 0001:0001c7b0       ?IsPagingFileActive@BaseCom@@SAHH@Z 0041d7b0 f   BaseCom.obj
 0001:0001c7c0       ?ReadWriteFile@BaseCom@@SAKHHPA_WPAPA_W_KIPAK@Z 0041d7c0 f   BaseCom.obj
 0001:0001ca30       ?RegisterFilterDriver@BaseCom@@SAKHH@Z 0041da30 f   BaseCom.obj
 0001:0001cb00       ?RegisterSystemFavoritesService@BaseCom@@SAKH@Z 0041db00 f   BaseCom.obj
 0001:0001cbc0       ?SetDriverServiceStartType@BaseCom@@SAKK@Z 0041dbc0 f   BaseCom.obj
 0001:0001cc80       ?WriteLocalMachineRegistryDwordValue@BaseCom@@SAKPA_W0K@Z 0041dc80 f   BaseCom.obj
 0001:0001cd70       ??$?6U?$char_traits@D@std@@@std@@YAAAV?$basic_ostream@DU?$char_traits@D@std@@@0@AAV10@PBD@Z 0041dd70 f i BootEncryption.obj
 0001:0001d0b0       ??$?6_WU?$char_traits@_W@std@@@std@@YAAAV?$basic_ostream@_WU?$char_traits@_W@std@@@0@AAV10@PBD@Z 0041e0b0 f i BootEncryption.obj
 0001:0001d6a0       ??$?HDU?$char_traits@D@std@@V?$allocator@D@1@@std@@YA?AV?$basic_string@DU?$char_traits@D@std@@V?$allocator@D@2@@0@$$QAV10@0@Z 0041e6a0 f i BootEncryption.obj
 0001:0001d710       ??$?HDU?$char_traits@D@std@@V?$allocator@D@1@@std@@YA?AV?$basic_string@DU?$char_traits@D@std@@V?$allocator@D@2@@0@$$QAV10@PBD@Z 0041e710 f i BootEncryption.obj
 0001:0001d770       ??$?HDU?$char_traits@D@std@@V?$allocator@D@1@@std@@YA?AV?$basic_string@DU?$char_traits@D@std@@V?$allocator@D@2@@0@ABV10@D@Z 0041e770 f i BootEncryption.obj
 0001:0001d840       ??$?HDU?$char_traits@D@std@@V?$allocator@D@1@@std@@YA?AV?$basic_string@DU?$char_traits@D@std@@V?$allocator@D@2@@0@ABV10@PBD@Z 0041e840 f i BootEncryption.obj
 0001:0001d940       ??$?HDU?$char_traits@D@std@@V?$allocator@D@1@@std@@YA?AV?$basic_string@DU?$char_traits@D@std@@V?$allocator@D@2@@0@PBD$$QAV10@@Z 0041e940 f i BootEncryption.obj
 0001:0001d9a0       ??$?H_WU?$char_traits@_W@std@@V?$allocator@_W@1@@std@@YA?AV?$basic_string@_WU?$char_traits@_W@std@@V?$allocator@_W@2@@0@$$QAV10@0@Z 0041e9a0 f i BootEncryption.obj
 0001:0001da10       ??$GetContainerForward@V?$list@UPartition@GostCrypt@@V?$allocator@UPartition@GostCrypt@@@std@@@std@@@ForEach@GostCrypt@@SA?AU?$ContainerForward@V?$list@UPartition@GostCrypt@@V?$allocator@UPartition@GostCrypt@@@std@@@std@@@01@ABV?$list@UPartition@GostCrypt@@V?$allocator@UPartition@GostCrypt@@@std@@@std@@@Z 0041ea10 f i BootEncryption.obj
 0001:0001da80       ??$_Buynode@ABUPartition@GostCrypt@@@?$_List_buy@UPartition@GostCrypt@@V?$allocator@UPartition@GostCrypt@@@std@@@std@@QAEPAU?$_List_node@UPartition@GostCrypt@@PAX@1@PAU21@0ABUPartition@GostCrypt@@@Z 0041ea80 f i BootEncryption.obj
 0001:0001db10       ??$_Insert_range@V?$_List_const_iterator@V?$_List_val@U?$_List_simple_types@UPartition@GostCrypt@@@std@@@std@@@std@@@?$list@UPartition@GostCrypt@@V?$allocator@UPartition@GostCrypt@@@std@@@std@@QAEXV?$_List_unchecked_const_iterator@V?$_List_val@U?$_List_simple_types@UPartition@GostCrypt@@@std@@@std@@U_Iterator_base0@2@@1@V?$_List_const_iterator@V?$_List_val@U?$_List_simple_types@UPartition@GostCrypt@@@std@@@std@@@1@1Uforward_iterator_tag@1@@Z 0041eb10 f i BootEncryption.obj
 0001:0001dbe0       ??$_Reusenode@ABUPartition@GostCrypt@@@?$list@UPartition@GostCrypt@@V?$allocator@UPartition@GostCrypt@@@std@@@std@@QAEXV?$_List_iterator@V?$_List_val@U?$_List_simple_types@UPartition@GostCrypt@@@std@@@std@@@1@ABUPartition@GostCrypt@@@Z 0041ebe0 f i BootEncryption.obj
 0001:0001dc80       ??$assign@V?$_List_const_iterator@V?$_List_val@U?$_List_simple_types@UPartition@GostCrypt@@@std@@@std@@@std@@@?$list@UPartition@GostCrypt@@V?$allocator@UPartition@GostCrypt@@@std@@@std@@QAEXV?$_List_const_iterator@V?$_List_val@U?$_List_simple_types@UPartition@GostCrypt@@@std@@@std@@@1@0@Z 0041ec80 f i BootEncryption.obj
 0001:0001dd60       ??$use_facet@V?$ctype@D@std@@@std@@YAABV?$ctype@D@0@ABVlocale@0@@Z 0041ed60 f i BootEncryption.obj
 0001:0001de90       ??$use_facet@V?$num_put@DV?$ostreambuf_iterator@DU?$char_traits@D@std@@@std@@@std@@@std@@YAABV?$num_put@DV?$ostreambuf_iterator@DU?$char_traits@D@std@@@std@@@0@ABVlocale@0@@Z 0041ee90 f i BootEncryption.obj
 0001:0001dfc0       ??$use_facet@V?$numpunct@D@std@@@std@@YAABV?$numpunct@D@0@ABVlocale@0@@Z 0041efc0 f i BootEncryption.obj
 0001:0001e0f0       ??0?$basic_iostream@DU?$char_traits@D@std@@@std@@QAE@PAV?$basic_streambuf@DU?$char_traits@D@std@@@1@@Z 0041f0f0 f i BootEncryption.obj
 0001:0001e1d0       ??0?$basic_iostream@_WU?$char_traits@_W@std@@@std@@QAE@PAV?$basic_streambuf@_WU?$char_traits@_W@std@@@1@@Z 0041f1d0 f i BootEncryption.obj
 0001:0001e2b0       ??0?$basic_streambuf@DU?$char_traits@D@std@@@std@@IAE@XZ 0041f2b0 f i BootEncryption.obj
 0001:0001e380       ??0?$basic_stringstream@DU?$char_traits@D@std@@V?$allocator@D@2@@std@@QAE@H@Z 0041f380 f i BootEncryption.obj
 0001:0001e470       ??0?$list@UPartition@GostCrypt@@V?$allocator@UPartition@GostCrypt@@@std@@@std@@QAE@ABV01@@Z 0041f470 f i BootEncryption.obj
 0001:0001e510       ??0BootEncryption@GostCrypt@@QAE@PAUHWND__@@@Z 0041f510 f   BootEncryption.obj
 0001:0001e5a0       ??0CComBSTR@ATL@@QAE@PBD@Z 0041f5a0 f i BootEncryption.obj
 0001:0001e630       ??0Device@GostCrypt@@QAE@V?$basic_string@DU?$char_traits@D@std@@V?$allocator@D@2@@std@@_N@Z 0041f630 f   BootEncryption.obj
 0001:0001e800       ??0ErrorException@GostCrypt@@QAE@ABU01@@Z 0041f800 f i BootEncryption.obj
 0001:0001e850       ??0File@GostCrypt@@QAE@V?$basic_string@DU?$char_traits@D@std@@V?$allocator@D@2@@std@@_N1@Z 0041f850 f   BootEncryption.obj
 0001:0001ea20       ??0ParameterIncorrect@GostCrypt@@QAE@ABU01@@Z 0041fa20 f i BootEncryption.obj
 0001:0001ea40       ??0Partition@GostCrypt@@QAE@ABU01@@Z 0041fa40 f i BootEncryption.obj
 0001:0001eb30       ??0SystemDriveConfiguration@GostCrypt@@QAE@ABU01@@Z 0041fb30 f i BootEncryption.obj
 0001:0001ec70       ??0SystemDriveConfiguration@GostCrypt@@QAE@XZ 0041fc70 f i BootEncryption.obj
 0001:0001edd0       ??0SystemException@GostCrypt@@QAE@ABU01@@Z 0041fdd0 f i BootEncryption.obj
 0001:0001edf0       ??0TimeOut@GostCrypt@@QAE@ABU01@@Z 0041fdf0 f i BootEncryption.obj
 0001:0001ee00       ??0bad_alloc@std@@QAE@ABV01@@Z 0041fe00 f i BootEncryption.obj
 0001:0001ee40       ??0sentry@?$basic_ostream@_WU?$char_traits@_W@std@@@std@@QAE@AAV12@@Z 0041fe40 f i Gstformat.obj
 0001:0001ee40       ??0sentry@?$basic_ostream@DU?$char_traits@D@std@@@std@@QAE@AAV12@@Z 0041fe40 f i BootEncryption.obj
 0001:0001eed0       ??1?$CAtlSafeAllocBufferManager@VCCRTAllocator@ATL@@@_ATL_SAFE_ALLOCA_IMPL@ATL@@QAE@XZ 0041fed0 f i BootEncryption.obj
 0001:0001eef0       ??1?$ContainerForward@V?$list@UPartition@GostCrypt@@V?$allocator@UPartition@GostCrypt@@@std@@@std@@@ForEach@GostCrypt@@UAE@XZ 0041fef0 f i BootEncryption.obj
 0001:0001ef10       ??1?$basic_iostream@DU?$char_traits@D@std@@@std@@UAE@XZ 0041ff10 f i BootEncryption.obj
 0001:0001ef70       ??1?$basic_istream@DU?$char_traits@D@std@@@std@@UAE@XZ 0041ff70 f i BootEncryption.obj
 0001:0001ef90       ??1?$basic_streambuf@DU?$char_traits@D@std@@@std@@UAE@XZ 0041ff90 f i BootEncryption.obj
 0001:0001f000       ??1?$basic_stringstream@DU?$char_traits@D@std@@V?$allocator@D@2@@std@@UAE@XZ 00420000 f i BootEncryption.obj
 0001:0001f0f0       ??1?$list@UPartition@GostCrypt@@V?$allocator@UPartition@GostCrypt@@@std@@@std@@QAE@XZ 004200f0 f i BootEncryption.obj
 0001:0001f110       ??1BootEncryption@GostCrypt@@QAE@XZ 00420110 f   BootEncryption.obj
 0001:0001f1a0       ??1Buffer@GostCrypt@@QAE@XZ 004201a0 f i BootEncryption.obj
 0001:0001f1b0       ??1CComBSTR@ATL@@QAE@XZ    004201b0 f i BootEncryption.obj
 0001:0001f1c0       ??1File@GostCrypt@@QAE@XZ  004201c0 f i BootEncryption.obj
 0001:0001f1c0       ??1Device@GostCrypt@@QAE@XZ 004201c0 f i BootEncryption.obj
 0001:0001f220       ??1ErrorException@GostCrypt@@QAE@XZ 00420220 f i BootEncryption.obj
 0001:0001f390       ??1_Sentry_base@?$basic_ostream@DU?$char_traits@D@std@@@std@@QAE@XZ 00420390 f i BootEncryption.obj
 0001:0001f390       ??1_Sentry_base@?$basic_ostream@_WU?$char_traits@_W@std@@@std@@QAE@XZ 00420390 f i Gstformat.obj
 0001:0001f3e0       ??1sentry@?$basic_ostream@DU?$char_traits@D@std@@@std@@QAE@XZ 004203e0 f i BootEncryption.obj
 0001:0001f3e0       ??1sentry@?$basic_ostream@_WU?$char_traits@_W@std@@@std@@QAE@XZ 004203e0 f i Gstformat.obj
 0001:0001f440       ??4?$basic_string@DU?$char_traits@D@std@@V?$allocator@D@2@@std@@QAEAAV01@$$QAV01@@Z 00420440 f i BootEncryption.obj
 0001:0001f4c0       ??4?$basic_string@DU?$char_traits@D@std@@V?$allocator@D@2@@std@@QAEAAV01@PBD@Z 004204c0 f i BootEncryption.obj
 0001:0001f500       ??4?$basic_string@_WU?$char_traits@_W@std@@V?$allocator@_W@2@@std@@QAEAAV01@PB_W@Z 00420500 f i BootEncryption.obj
 0001:0001f550       ??4Partition@GostCrypt@@QAEAAU01@ABU01@@Z 00420550 f i BootEncryption.obj
 0001:0001f5c0       ??4SystemDriveConfiguration@GostCrypt@@QAEAAU01@ABU01@@Z 004205c0 f i BootEncryption.obj
 0001:0001f730       ??6?$basic_ostream@DU?$char_traits@D@std@@@std@@QAEAAV01@H@Z 00420730 f i BootEncryption.obj
 0001:0001f970       ??Y?$basic_string@DU?$char_traits@D@std@@V?$allocator@D@2@@std@@QAEAAV01@PBD@Z 00420970 f i BootEncryption.obj
 0001:0001f9b0       ??_D?$basic_iostream@DU?$char_traits@D@std@@@std@@QAEXXZ 004209b0 f i BootEncryption.obj
 0001:0001fa50       ??_D?$basic_stringstream@DU?$char_traits@D@std@@V?$allocator@D@2@@std@@QAEXXZ 00420a50 f i BootEncryption.obj
 0001:0001faa3       ??_E?$basic_iostream@DU?$char_traits@D@std@@@std@@$4PPPPPPPM@A@AEPAXI@Z 00420aa3 f i BootEncryption.obj
 0001:0001faab       ??_E?$basic_istream@DU?$char_traits@D@std@@@std@@$4PPPPPPPM@A@AEPAXI@Z 00420aab f i BootEncryption.obj
 0001:0001fab3       ??_E?$basic_ostream@DU?$char_traits@D@std@@@std@@$4PPPPPPPM@A@AEPAXI@Z 00420ab3 f i BootEncryption.obj
 0001:0001fabb       ??_E?$basic_stringstream@DU?$char_traits@D@std@@V?$allocator@D@2@@std@@$4PPPPPPPM@A@AEPAXI@Z 00420abb f i BootEncryption.obj
 0001:0001fad0       ??_E?$ContainerForward@V?$list@UPartition@GostCrypt@@V?$allocator@UPartition@GostCrypt@@@std@@@std@@@ForEach@GostCrypt@@UAEPAXI@Z 00420ad0 f i BootEncryption.obj
 0001:0001fad0       ??_G?$ContainerForward@V?$list@UPartition@GostCrypt@@V?$allocator@UPartition@GostCrypt@@@std@@@std@@@ForEach@GostCrypt@@UAEPAXI@Z 00420ad0 f i BootEncryption.obj
 0001:0001fb10       ??_E?$basic_iostream@DU?$char_traits@D@std@@@std@@UAEPAXI@Z 00420b10 f i BootEncryption.obj
 0001:0001fb10       ??_G?$basic_iostream@DU?$char_traits@D@std@@@std@@UAEPAXI@Z 00420b10 f i BootEncryption.obj
 0001:0001fb40       ??_E?$basic_istream@DU?$char_traits@D@std@@@std@@UAEPAXI@Z 00420b40 f i BootEncryption.obj
 0001:0001fb40       ??_G?$basic_istream@DU?$char_traits@D@std@@@std@@UAEPAXI@Z 00420b40 f i BootEncryption.obj
 0001:0001fbc0       ??_E?$basic_ostream@DU?$char_traits@D@std@@@std@@UAEPAXI@Z 00420bc0 f i BootEncryption.obj
 0001:0001fbc0       ??_G?$basic_ostream@DU?$char_traits@D@std@@@std@@UAEPAXI@Z 00420bc0 f i BootEncryption.obj
 0001:0001fc40       ??_G?$basic_streambuf@DU?$char_traits@D@std@@@std@@UAEPAXI@Z 00420c40 f i BootEncryption.obj
 0001:0001fc40       ??_E?$basic_streambuf@DU?$char_traits@D@std@@@std@@UAEPAXI@Z 00420c40 f i BootEncryption.obj
 0001:0001fcd0       ??_E?$basic_stringbuf@DU?$char_traits@D@std@@V?$allocator@D@2@@std@@UAEPAXI@Z 00420cd0 f i BootEncryption.obj
 0001:0001fcd0       ??_G?$basic_stringbuf@DU?$char_traits@D@std@@V?$allocator@D@2@@std@@UAEPAXI@Z 00420cd0 f i BootEncryption.obj
 0001:0001fd60       ??_G?$basic_stringstream@DU?$char_traits@D@std@@V?$allocator@D@2@@std@@UAEPAXI@Z 00420d60 f i BootEncryption.obj
 0001:0001fd60       ??_E?$basic_stringstream@DU?$char_traits@D@std@@V?$allocator@D@2@@std@@UAEPAXI@Z 00420d60 f i BootEncryption.obj
 0001:0001fdd0       ??_G?$ctype@D@std@@MAEPAXI@Z 00420dd0 f i BootEncryption.obj
 0001:0001fdd0       ??_E?$ctype@D@std@@MAEPAXI@Z 00420dd0 f i BootEncryption.obj
 0001:0001fe30       ??_E?$num_put@_WV?$ostreambuf_iterator@_WU?$char_traits@_W@std@@@std@@@std@@MAEPAXI@Z 00420e30 f i Gstformat.obj
 0001:0001fe30       ??_E?$num_put@DV?$ostreambuf_iterator@DU?$char_traits@D@std@@@std@@@std@@MAEPAXI@Z 00420e30 f i BootEncryption.obj
 0001:0001fe30       ??_G?$num_put@_WV?$ostreambuf_iterator@_WU?$char_traits@_W@std@@@std@@@std@@MAEPAXI@Z 00420e30 f i Gstformat.obj
 0001:0001fe30       ??_G?$num_put@DV?$ostreambuf_iterator@DU?$char_traits@D@std@@@std@@@std@@MAEPAXI@Z 00420e30 f i BootEncryption.obj
 0001:0001fe60       ??_G?$numpunct@D@std@@MAEPAXI@Z 00420e60 f i BootEncryption.obj
 0001:0001fe60       ??_E?$numpunct@D@std@@MAEPAXI@Z 00420e60 f i BootEncryption.obj
 0001:0001feb0       ?AbortDecoyOSWipe@BootEncryption@GostCrypt@@QAEXXZ 00420eb0 f   BootEncryption.obj
 0001:0001fed0       ?AbortSetup@BootEncryption@GostCrypt@@QAEXXZ 00420ed0 f   BootEncryption.obj
 0001:0001fef0       ?AbortSetupWait@BootEncryption@GostCrypt@@QAEXXZ 00420ef0 f   BootEncryption.obj
 0001:0001ff90       ?AppendBytes@CComBSTR@ATL@@QAEJPBDH@Z 00420f90 f i BootEncryption.obj
 0001:00020050       ?AtlCrtErrorCheck@ATL@@YAHH@Z 00421050 f i BootEncryption.obj
 0001:000200f0       ?BackupSystemLoader@BootEncryption@GostCrypt@@IAEXXZ 004210f0 f   BootEncryption.obj
 0001:00020410       ?CallDriver@BootEncryption@GostCrypt@@QAEXKPAXK0K@Z 00421410 f   BootEncryption.obj
 0001:000204e0       ?CallDriver@Elevator@GostCrypt@@SAXKPAXK0K@Z 004214e0 f i BootEncryption.obj
 0001:00020600       ?CheckDecoyOSWipeResult@BootEncryption@GostCrypt@@QAEXXZ 00421600 f   BootEncryption.obj
 0001:00020620       ?CheckEncryptionSetupResult@BootEncryption@GostCrypt@@QAEXXZ 00421620 f   BootEncryption.obj
 0001:00020640       ?CheckRequirements@BootEncryption@GostCrypt@@QAEXXZ 00421640 f   BootEncryption.obj
 0001:00020940       ?CheckRequirementsHiddenOS@BootEncryption@GostCrypt@@QAEXXZ 00421940 f   BootEncryption.obj
 0001:00020980       ?Close@File@GostCrypt@@QAEXXZ 00421980 f   BootEncryption.obj
 0001:000209a0       ?CreateBootLoaderInMemory@BootEncryption@GostCrypt@@IAEXPAEI_N1@Z 004219a0 f   BootEncryption.obj
 0001:00020dc0       ?CreateRescueIsoImage@BootEncryption@GostCrypt@@QAEX_NABV?$basic_string@DU?$char_traits@D@std@@V?$allocator@D@2@@std@@@Z 00421dc0 f   BootEncryption.obj
 0001:000212c0       ?CreateVolumeHeader@BootEncryption@GostCrypt@@IAEX_K0PAUPassword@@HHH@Z 004222c0 f   BootEncryption.obj
 0001:000214c0       ?Deinstall@BootEncryption@GostCrypt@@QAEX_N@Z 004224c0 f   BootEncryption.obj
 0001:000218b0       ?Elevate@Elevator@GostCrypt@@KAXXZ 004228b0 f i BootEncryption.obj
 0001:00021940       ?GetChecksum@BootEncryption@GostCrypt@@IAEIPAEI@Z 00422940 f   BootEncryption.obj
 0001:00021970       ?GetDecoyOSWipeStatus@BootEncryption@GostCrypt@@QAE?AUDecoySystemWipeStatus@@XZ 00422970 f   BootEncryption.obj
 0001:00021990       ?GetDriveGeometry@BootEncryption@GostCrypt@@IAE?AU_DISK_GEOMETRY@@H@Z 00422990 f   BootEncryption.obj
 0001:00021bd0       ?GetDrivePartitions@BootEncryption@GostCrypt@@IAE?AV?$list@UPartition@GostCrypt@@V?$allocator@UPartition@GostCrypt@@@std@@@std@@H@Z 00422bd0 f   BootEncryption.obj
 0001:00022430       ?GetHiddenOSCreationPhase@BootEncryption@GostCrypt@@QAEIXZ 00423430 f   BootEncryption.obj
 0001:00022460       ?GetPartitionForHiddenOS@BootEncryption@GostCrypt@@QAE?AUPartition@2@XZ 00423460 f   BootEncryption.obj
 0001:00022bd0       ?GetRemarksOnHiddenOS@BootEncryption@GostCrypt@@IAE?AV?$basic_string@_WU?$char_traits@_W@std@@V?$allocator@_W@2@@std@@XZ 00423bd0 f   BootEncryption.obj
 0001:00022d00       ?GetStatus@BootEncryption@GostCrypt@@QAE?AUBootEncryptionStatus@@XZ 00423d00 f   BootEncryption.obj
 0001:00022d20       ?GetSystemDriveConfiguration@BootEncryption@GostCrypt@@QAE?AUSystemDriveConfiguration@2@XZ 00423d20 f   BootEncryption.obj
 0001:00023830       ?GetSystemLoaderBackupPath@BootEncryption@GostCrypt@@IAE?AV?$basic_string@DU?$char_traits@D@std@@V?$allocator@D@2@@std@@XZ 00424830 f   BootEncryption.obj
 0001:00023a20       ?GetTempPathA@BootEncryption@GostCrypt@@QAE?AV?$basic_string@DU?$char_traits@D@std@@V?$allocator@D@2@@std@@XZ 00424a20 f   BootEncryption.obj
 0001:00023ab0       ?GetVolumeProperties@BootEncryption@GostCrypt@@QAEXPAUVOLUME_PROPERTIES_STRUCT@@@Z 00424ab0 f   BootEncryption.obj
 0001:00023b00       ?GetWindowsDirectoryA@BootEncryption@GostCrypt@@IAE?AV?$basic_string@DU?$char_traits@D@std@@V?$allocator@D@2@@std@@XZ 00424b00 f   BootEncryption.obj
 0001:00023bc0       ?InitialSecurityChecksForHiddenOS@BootEncryption@GostCrypt@@QAEXXZ 00424bc0 f   BootEncryption.obj
 0001:000240d0       ?Install@BootEncryption@GostCrypt@@QAEX_N@Z 004250d0 f   BootEncryption.obj
 0001:000241c0       ?InstallBootLoader@BootEncryption@GostCrypt@@QAEX_N0@Z 004251c0 f   BootEncryption.obj
 0001:000244d0       ?InstallVolumeHeader@BootEncryption@GostCrypt@@IAEXXZ 004254d0 f   BootEncryption.obj
 0001:00024610       ?InvalidateCachedSysDriveProperties@BootEncryption@GostCrypt@@QAEXXZ 00425610 f   BootEncryption.obj
 0001:00024620       ?IsCDDrivePresent@BootEncryption@GostCrypt@@QAE_NXZ 00425620 f   BootEncryption.obj
 0001:00024730       ?IsHiddenSystemRunning@BootEncryption@GostCrypt@@QAE_NXZ 00425730 f   BootEncryption.obj
 0001:00024760       ?PrepareHiddenOSCreation@BootEncryption@GostCrypt@@QAEXHHH@Z 00425760 f   BootEncryption.obj
 0001:000247e0       ?PrepareInstallation@BootEncryption@GostCrypt@@QAEX_NAAUPassword@@HHHABV?$basic_string@DU?$char_traits@D@std@@V?$allocator@D@2@@std@@@Z 004257e0 f   BootEncryption.obj
 0001:00024aa0       ?ProbeRealSystemDriveSize@BootEncryption@GostCrypt@@QAEXXZ 00425aa0 f   BootEncryption.obj
 0001:00024b60       ?Read@File@GostCrypt@@QAEKPAEK@Z 00425b60 f   BootEncryption.obj
 0001:00024bf0       ?ReadBootSectorConfig@BootEncryption@GostCrypt@@QAEXPAEI0PAV?$basic_string@DU?$char_traits@D@std@@V?$allocator@D@2@@std@@PAG@Z 00425bf0 f   BootEncryption.obj
 0001:00024d90       ?ReadWriteFile@Elevator@GostCrypt@@SAXHHABV?$basic_string@DU?$char_traits@D@std@@V?$allocator@D@2@@std@@PAE_KIPAK@Z 00425d90 f i BootEncryption.obj
 0001:00024ea0       ?RegisterBootDriver@BootEncryption@GostCrypt@@QAEX_N@Z 00425ea0 f   BootEncryption.obj
 0001:00025240       ?RegisterFilter@BootEncryption@GostCrypt@@IAEX_NW4FilterType@12@PBU_GUID@@@Z 00426240 f   BootEncryption.obj
 0001:00025890       ?RegisterFilterDriver@BootEncryption@GostCrypt@@QAEX_NW4FilterType@12@@Z 00426890 f   BootEncryption.obj
 0001:00025950       ?RegisterFilterDriver@Elevator@GostCrypt@@SAX_NW4FilterType@BootEncryption@2@@Z 00426950 f i BootEncryption.obj
 0001:000259b0       ?RegisterSystemFavoritesService@BootEncryption@GostCrypt@@QAEXH@Z 004269b0 f   BootEncryption.obj
 0001:00025d60       ?RegisterSystemFavoritesService@Elevator@GostCrypt@@SAXH@Z 00426d60 f i BootEncryption.obj
 0001:00025db0       ?RestartComputer@BootEncryption@GostCrypt@@QAE_NXZ 00426db0 f   BootEncryption.obj
 0001:00025dc0       ?RestoreSystemLoader@BootEncryption@GostCrypt@@IAEXXZ 00426dc0 f   BootEncryption.obj
 0001:00026010       ?RestrictPagingFilesToSystemPartition@BootEncryption@GostCrypt@@QAEXXZ 00427010 f   BootEncryption.obj
 0001:000260f0       ?SeekAt@File@GostCrypt@@QAEX_J@Z 004270f0 f   BootEncryption.obj
 0001:00026140       ?SetDriverConfigurationFlag@BootEncryption@GostCrypt@@QAEXI_N@Z 00427140 f   BootEncryption.obj
 0001:000261e0       ?SetDriverServiceStartType@BootEncryption@GostCrypt@@QAEXK@Z 004271e0 f   BootEncryption.obj
 0001:00026510       ?SetDriverServiceStartType@Elevator@GostCrypt@@SAXK@Z 00427510 f i BootEncryption.obj
 0001:00026560       ?SetHiddenOSCreationPhase@BootEncryption@GostCrypt@@QAEXI@Z 00427560 f   BootEncryption.obj
 0001:000265a0       ?Show@ErrorException@GostCrypt@@UBEXPAUHWND__@@@Z 004275a0 f i BootEncryption.obj
 0001:000265d0       ?Show@ParameterIncorrect@GostCrypt@@UBEXPAUHWND__@@@Z 004275d0 f i BootEncryption.obj
 0001:000266f0       ?Show@SystemException@GostCrypt@@UBEXPAUHWND__@@@Z 004276f0 f i BootEncryption.obj
 0001:00026710       ?Show@TimeOut@GostCrypt@@UBEXPAUHWND__@@@Z 00427710 f i BootEncryption.obj
 0001:00026720       ?StartDecoyOSWipe@BootEncryption@GostCrypt@@QAEXW4WipeAlgorithmId@@@Z 00427720 f   BootEncryption.obj
 0001:00026860       ?StartDecryption@BootEncryption@GostCrypt@@QAEXH@Z 00427860 f   BootEncryption.obj
 0001:00026900       ?StartEncryption@BootEncryption@GostCrypt@@QAEXW4WipeAlgorithmId@@_N@Z 00427900 f   BootEncryption.obj
 0001:000269a0       ?SystemDriveContainsExtendedPartition@BootEncryption@GostCrypt@@QAE_NXZ 004279a0 f   BootEncryption.obj
 0001:000269d0       ?SystemDriveContainsNonStandardPartitions@BootEncryption@GostCrypt@@QAE_NXZ 004279d0 f   BootEncryption.obj
 0001:00026cb0       ?SystemDriveContainsPartitionType@BootEncryption@GostCrypt@@QAE_NE@Z 00427cb0 f   BootEncryption.obj
 0001:00026ee0       ?SystemDriveIsDynamic@BootEncryption@GostCrypt@@QAE_NXZ 00427ee0 f   BootEncryption.obj
 0001:00026f70       ?SystemPartitionCoversWholeDrive@BootEncryption@GostCrypt@@QAE_NXZ 00427f70 f   BootEncryption.obj
 0001:00027020       ?VerifyRescueDisk@BootEncryption@GostCrypt@@QAE_NXZ 00428020 f   BootEncryption.obj
 0001:00027300       ?WipeHiddenOSCreationConfig@BootEncryption@GostCrypt@@QAEXXZ 00428300 f   BootEncryption.obj
 0001:00027690       ?Write@File@GostCrypt@@QAEXPAEK@Z 00428690 f   BootEncryption.obj
 0001:00027840       ?WriteBootDriveSector@BootEncryption@GostCrypt@@QAEX_KPAE@Z 00428840 f   BootEncryption.obj
 0001:000278b0       ?WriteBootSectorConfig@BootEncryption@GostCrypt@@QAEXQBE@Z 004288b0 f   BootEncryption.obj
 0001:00027af0       ?WriteLocalMachineRegistryDwordValue@Elevator@GostCrypt@@SAXPAD0K@Z 00428af0 f i BootEncryption.obj
 0001:00027bb0       ?_Buynode0@?$_List_alloc@U?$_List_base_types@UPartition@GostCrypt@@V?$allocator@UPartition@GostCrypt@@@std@@@std@@@std@@QAEPAU?$_List_node@UPartition@GostCrypt@@PAX@2@PAU32@0@Z 00428bb0 f i BootEncryption.obj
 0001:00027bb0       ?_Buynode0@?$_List_alloc@U?$_List_base_types@USecurityTokenKeyfile@GostCrypt@@V?$allocator@USecurityTokenKeyfile@GostCrypt@@@std@@@std@@@std@@QAEPAU?$_List_node@USecurityTokenKeyfile@GostCrypt@@PAX@2@PAU32@0@Z 00428bb0 f i Dlgcode.obj
 0001:00027bf0       ?_Deallocate@std@@YAXPAXII@Z 00428bf0 f i BootEncryption.obj
 0001:00027c50       ?_Ffmt@?$num_put@_WV?$ostreambuf_iterator@_WU?$char_traits@_W@std@@@std@@@std@@ABAPADPADDH@Z 00428c50 f i Gstformat.obj
 0001:00027c50       ?_Ffmt@?$num_put@DV?$ostreambuf_iterator@DU?$char_traits@D@std@@@std@@@std@@ABAPADPADDH@Z 00428c50 f i BootEncryption.obj
 0001:00027d10       ?_Fput@?$num_put@DV?$ostreambuf_iterator@DU?$char_traits@D@std@@@std@@@std@@ABA?AV?$ostreambuf_iterator@DU?$char_traits@D@std@@@2@V32@AAVios_base@2@DPBDI@Z 00428d10 f i BootEncryption.obj
 0001:000280d0       ?_Getcat@?$ctype@D@std@@SAIPAPBVfacet@locale@2@PBV42@@Z 004290d0 f i BootEncryption.obj
 0001:000281a0       ?_Getcat@?$num_put@DV?$ostreambuf_iterator@DU?$char_traits@D@std@@@std@@@std@@SAIPAPBVfacet@locale@2@PBV42@@Z 004291a0 f i BootEncryption.obj
 0001:00028250       ?_Getcat@?$numpunct@D@std@@SAIPAPBVfacet@locale@2@PBV42@@Z 00429250 f i BootEncryption.obj
 0001:00028320       ?_Gnavail@?$basic_streambuf@DU?$char_traits@D@std@@@std@@IBE_JXZ 00429320 f i BootEncryption.obj
 0001:00028320       ?_Gnavail@?$basic_streambuf@_WU?$char_traits@_W@std@@@std@@IBE_JXZ 00429320 f i Gstformat.obj
 0001:00028340       ?_Grow@?$basic_string@DU?$char_traits@D@std@@V?$allocator@D@2@@std@@QAE_NI_N@Z 00429340 f i BootEncryption.obj
 0001:000283b0       ?_Ifmt@?$num_put@_WV?$ostreambuf_iterator@_WU?$char_traits@_W@std@@@std@@@std@@ABAPADPADPBDH@Z 004293b0 f i Gstformat.obj
 0001:000283b0       ?_Ifmt@?$num_put@DV?$ostreambuf_iterator@DU?$char_traits@D@std@@@std@@@std@@ABAPADPADPBDH@Z 004293b0 f i BootEncryption.obj
 0001:00028440       ?_Init@?$numpunct@D@std@@IAEXABV_Locinfo@2@_N@Z 00429440 f i BootEncryption.obj
 0001:000285e0       ?_Iput@?$num_put@DV?$ostreambuf_iterator@DU?$char_traits@D@std@@@std@@@std@@ABA?AV?$ostreambuf_iterator@DU?$char_traits@D@std@@@2@V32@AAVios_base@2@DPADI@Z 004295e0 f i BootEncryption.obj
 0001:00028940       ?_Myptr@?$_String_alloc@U?$_String_base_types@DV?$allocator@D@std@@@std@@@std@@QBEPBDXZ 00429940 f i BootEncryption.obj
 0001:00028950       ?_Osfx@?$basic_ostream@_WU?$char_traits@_W@std@@@std@@QAEXXZ 00429950 f i Gstformat.obj
 0001:00028950       ?_Osfx@?$basic_ostream@DU?$char_traits@D@std@@@std@@QAEXXZ 00429950 f i BootEncryption.obj
 0001:00028a80       ?_Pnavail@?$basic_streambuf@DU?$char_traits@D@std@@@std@@IBE_JXZ 00429a80 f i BootEncryption.obj
 0001:00028a80       ?_Pnavail@?$basic_streambuf@_WU?$char_traits@_W@std@@@std@@IBE_JXZ 00429a80 f i Gstformat.obj
 0001:00028aa0       ?_Put@?$num_put@DV?$ostreambuf_iterator@DU?$char_traits@D@std@@@std@@@std@@ABA?AV?$ostreambuf_iterator@DU?$char_traits@D@std@@@2@V32@PBDI@Z 00429aa0 f i BootEncryption.obj
 0001:00028b20       ?_Rep@?$num_put@DV?$ostreambuf_iterator@DU?$char_traits@D@std@@@std@@@std@@ABA?AV?$ostreambuf_iterator@DU?$char_traits@D@std@@@2@V32@DI@Z 00429b20 f i BootEncryption.obj
 0001:00028b90       ?_Tidy@?$basic_string@DU?$char_traits@D@std@@V?$allocator@D@2@@std@@QAEX_NI@Z 00429b90 f i BootEncryption.obj
 0001:00028bf0       ?_Tidy@?$basic_stringbuf@DU?$char_traits@D@std@@V?$allocator@D@2@@std@@IAEXXZ 00429bf0 f i BootEncryption.obj
 0001:00028ca0       ?_Tidy@?$numpunct@D@std@@AAEXXZ 00429ca0 f i BootEncryption.obj
 0001:00028ca0       ?_Tidy@?$numpunct@_W@std@@AAEXXZ 00429ca0 f i Gstformat.obj
 0001:00028cc0       ?_Unchecked_erase@?$list@UPartition@GostCrypt@@V?$allocator@UPartition@GostCrypt@@@std@@@std@@QAEXV?$_List_unchecked_const_iterator@V?$_List_val@U?$_List_simple_types@UPartition@GostCrypt@@@std@@@std@@U_Iterator_base0@2@@2@@Z 00429cc0 f i BootEncryption.obj
 0001:00028d00       ?assign@?$basic_string@DU?$char_traits@D@std@@V?$allocator@D@2@@std@@QAEAAV12@ID@Z 00429d00 f i BootEncryption.obj
 0001:00028dd0       ?clear@?$basic_string@DU?$char_traits@D@std@@V?$allocator@D@2@@std@@QAEXXZ 00429dd0 f i BootEncryption.obj
 0001:00028df0       ?compare@?$char_traits@D@std@@SAHPBD0I@Z 00429df0 f i BootEncryption.obj
 0001:00028e60       ?deallocate@?$allocator@D@std@@QAEXPADI@Z 00429e60 f i BootEncryption.obj
 0001:00028e60       ?deallocate@?$_Wrap_alloc@V?$allocator@D@std@@@std@@QAEXPADI@Z 00429e60 f i Gstformat.obj
 0001:00028eb0       ?deallocate@?$allocator@U?$_List_node@UPartition@GostCrypt@@PAX@std@@@std@@QAEXPAU?$_List_node@UPartition@GostCrypt@@PAX@2@I@Z 00429eb0 f i BootEncryption.obj
 0001:00028eb0       ?deallocate@?$allocator@U?$_List_node@USecurityTokenKeyfile@GostCrypt@@PAX@std@@@std@@QAEXPAU?$_List_node@USecurityTokenKeyfile@GostCrypt@@PAX@2@I@Z 00429eb0 f i Dlgcode.obj
 0001:00028f20       ?do_decimal_point@?$numpunct@D@std@@MBEDXZ 00429f20 f i BootEncryption.obj
 0001:00028f30       ?do_falsename@?$numpunct@D@std@@MBE?AV?$basic_string@DU?$char_traits@D@std@@V?$allocator@D@2@@2@XZ 00429f30 f i BootEncryption.obj
 0001:00028f90       ?do_grouping@?$numpunct@D@std@@MBE?AV?$basic_string@DU?$char_traits@D@std@@V?$allocator@D@2@@2@XZ 00429f90 f i BootEncryption.obj
 0001:00028f90       ?do_grouping@?$numpunct@_W@std@@MBE?AV?$basic_string@DU?$char_traits@D@std@@V?$allocator@D@2@@2@XZ 00429f90 f i Gstformat.obj
 0001:00028ff0       ?do_narrow@?$ctype@D@std@@MBEDDD@Z 00429ff0 f i BootEncryption.obj
 0001:00029000       ?do_narrow@?$ctype@D@std@@MBEPBDPBD0DPAD@Z 0042a000 f i BootEncryption.obj
 0001:00029020       ?do_put@?$num_put@DV?$ostreambuf_iterator@DU?$char_traits@D@std@@@std@@@std@@MBE?AV?$ostreambuf_iterator@DU?$char_traits@D@std@@@2@V32@AAVios_base@2@DJ@Z 0042a020 f i BootEncryption.obj
 0001:00029090       ?do_put@?$num_put@DV?$ostreambuf_iterator@DU?$char_traits@D@std@@@std@@@std@@MBE?AV?$ostreambuf_iterator@DU?$char_traits@D@std@@@2@V32@AAVios_base@2@DK@Z 0042a090 f i BootEncryption.obj
 0001:00029100       ?do_put@?$num_put@DV?$ostreambuf_iterator@DU?$char_traits@D@std@@@std@@@std@@MBE?AV?$ostreambuf_iterator@DU?$char_traits@D@std@@@2@V32@AAVios_base@2@DN@Z 0042a100 f i BootEncryption.obj
 0001:000292a0       ?do_put@?$num_put@DV?$ostreambuf_iterator@DU?$char_traits@D@std@@@std@@@std@@MBE?AV?$ostreambuf_iterator@DU?$char_traits@D@std@@@2@V32@AAVios_base@2@DO@Z 0042a2a0 f i BootEncryption.obj
 0001:00029440       ?do_put@?$num_put@DV?$ostreambuf_iterator@DU?$char_traits@D@std@@@std@@@std@@MBE?AV?$ostreambuf_iterator@DU?$char_traits@D@std@@@2@V32@AAVios_base@2@DPBX@Z 0042a440 f i BootEncryption.obj
 0001:000294a0       ?do_put@?$num_put@DV?$ostreambuf_iterator@DU?$char_traits@D@std@@@std@@@std@@MBE?AV?$ostreambuf_iterator@DU?$char_traits@D@std@@@2@V32@AAVios_base@2@D_J@Z 0042a4a0 f i BootEncryption.obj
 0001:00029510       ?do_put@?$num_put@DV?$ostreambuf_iterator@DU?$char_traits@D@std@@@std@@@std@@MBE?AV?$ostreambuf_iterator@DU?$char_traits@D@std@@@2@V32@AAVios_base@2@D_K@Z 0042a510 f i BootEncryption.obj
 0001:00029580       ?do_put@?$num_put@DV?$ostreambuf_iterator@DU?$char_traits@D@std@@@std@@@std@@MBE?AV?$ostreambuf_iterator@DU?$char_traits@D@std@@@2@V32@AAVios_base@2@D_N@Z 0042a580 f i BootEncryption.obj
 0001:00029780       ?do_thousands_sep@?$numpunct@D@std@@MBEDXZ 0042a780 f i BootEncryption.obj
 0001:00029790       ?do_tolower@?$ctype@D@std@@MBEDD@Z 0042a790 f i BootEncryption.obj
 0001:000297b0       ?do_tolower@?$ctype@D@std@@MBEPBDPADPBD@Z 0042a7b0 f i BootEncryption.obj
 0001:00029800       ?do_toupper@?$ctype@D@std@@MBEDD@Z 0042a800 f i BootEncryption.obj
 0001:00029820       ?do_toupper@?$ctype@D@std@@MBEPBDPADPBD@Z 0042a820 f i BootEncryption.obj
 0001:00029870       ?do_truename@?$numpunct@D@std@@MBE?AV?$basic_string@DU?$char_traits@D@std@@V?$allocator@D@2@@2@XZ 0042a870 f i BootEncryption.obj
 0001:000298d0       ?do_widen@?$ctype@D@std@@MBEDD@Z 0042a8d0 f i BootEncryption.obj
 0001:000298e0       ?do_widen@?$ctype@D@std@@MBEPBDPBD0PAD@Z 0042a8e0 f i BootEncryption.obj
 0001:00029900       ?erase@?$list@UPartition@GostCrypt@@V?$allocator@UPartition@GostCrypt@@@std@@@std@@QAE?AV?$_List_iterator@V?$_List_val@U?$_List_simple_types@UPartition@GostCrypt@@@std@@@std@@@2@V?$_List_const_iterator@V?$_List_val@U?$_List_simple_types@UPartition@GostCrypt@@@std@@@std@@@2@0@Z 0042a900 f i BootEncryption.obj
 0001:00029970       ?falsename@?$numpunct@_W@std@@QBE?AV?$basic_string@_WU?$char_traits@_W@std@@V?$allocator@_W@2@@2@XZ 0042a970 f i Gstformat.obj
 0001:00029970       ?falsename@?$numpunct@D@std@@QBE?AV?$basic_string@DU?$char_traits@D@std@@V?$allocator@D@2@@2@XZ 0042a970 f i BootEncryption.obj
 0001:00029990       ?find@?$basic_string@DU?$char_traits@D@std@@V?$allocator@D@2@@std@@QBEIPBDII@Z 0042a990 f i BootEncryption.obj
 0001:00029a30       ?flush@?$basic_ostream@DU?$char_traits@D@std@@@std@@QAEAAV12@XZ 0042aa30 f i BootEncryption.obj
 0001:00029a30       ?flush@?$basic_ostream@_WU?$char_traits@_W@std@@@std@@QAEAAV12@XZ 0042aa30 f i Gstformat.obj
 0001:00029b50       ?grouping@?$numpunct@_W@std@@QBE?AV?$basic_string@DU?$char_traits@D@std@@V?$allocator@D@2@@2@XZ 0042ab50 f i Gstformat.obj
 0001:00029b50       ?grouping@?$numpunct@D@std@@QBE?AV?$basic_string@DU?$char_traits@D@std@@V?$allocator@D@2@@2@XZ 0042ab50 f i BootEncryption.obj
 0001:00029b70       ?init@?$basic_ios@DU?$char_traits@D@std@@@std@@IAEXPAV?$basic_streambuf@DU?$char_traits@D@std@@@2@_N@Z 0042ab70 f i BootEncryption.obj
 0001:00029ca0       ?insert@?$basic_string@DU?$char_traits@D@std@@V?$allocator@D@2@@std@@QAEAAV12@IABV12@II@Z 0042aca0 f i BootEncryption.obj
 0001:00029e40       ?insert@?$basic_string@DU?$char_traits@D@std@@V?$allocator@D@2@@std@@QAEAAV12@IID@Z 0042ae40 f i BootEncryption.obj
 0001:00029f50       ?insert@?$basic_string@DU?$char_traits@D@std@@V?$allocator@D@2@@std@@QAEAAV12@IPBDI@Z 0042af50 f i BootEncryption.obj
 0001:0002a0d0       ?insert@?$basic_string@_WU?$char_traits@_W@std@@V?$allocator@_W@2@@std@@QAEAAV12@IABV12@II@Z 0042b0d0 f i BootEncryption.obj
 0001:0002a290       ?memcpy_s@Checked@ATL@@YAXPAXIPBXI@Z 0042b290 f i BootEncryption.obj
 0001:0002a2b0       ?overflow@?$basic_stringbuf@DU?$char_traits@D@std@@V?$allocator@D@2@@std@@MAEHH@Z 0042b2b0 f i BootEncryption.obj
 0001:0002a490       ?pbackfail@?$basic_streambuf@DU?$char_traits@D@std@@@std@@MAEHH@Z 0042b490 f i BootEncryption.obj
 0001:0002a490       ?overflow@?$basic_streambuf@DU?$char_traits@D@std@@@std@@MAEHH@Z 0042b490 f i BootEncryption.obj
 0001:0002a4a0       ?pbackfail@?$basic_stringbuf@DU?$char_traits@D@std@@V?$allocator@D@2@@std@@MAEHH@Z 0042b4a0 f i BootEncryption.obj
 0001:0002a500       ?rfind@?$basic_string@DU?$char_traits@D@std@@V?$allocator@D@2@@std@@QBEIPBDI@Z 0042b500 f i BootEncryption.obj
 0001:0002a540       ?rfind@?$basic_string@DU?$char_traits@D@std@@V?$allocator@D@2@@std@@QBEIPBDII@Z 0042b540 f i BootEncryption.obj
 0001:0002a5d0       ?seekoff@?$basic_stringbuf@DU?$char_traits@D@std@@V?$allocator@D@2@@std@@MAE?AV?$fpos@U_Mbstatet@@@2@_JHH@Z 0042b5d0 f i BootEncryption.obj
 0001:0002a7a0       ?seekpos@?$basic_stringbuf@DU?$char_traits@D@std@@V?$allocator@D@2@@std@@MAE?AV?$fpos@U_Mbstatet@@@2@V32@H@Z 0042b7a0 f i BootEncryption.obj
 0001:0002a8d0       ?str@?$basic_stringbuf@DU?$char_traits@D@std@@V?$allocator@D@2@@std@@QBE?AV?$basic_string@DU?$char_traits@D@std@@V?$allocator@D@2@@2@XZ 0042b8d0 f i BootEncryption.obj
 0001:0002aa10       ?str@?$basic_stringstream@DU?$char_traits@D@std@@V?$allocator@D@2@@std@@QBE?AV?$basic_string@DU?$char_traits@D@std@@V?$allocator@D@2@@2@XZ 0042ba10 f i BootEncryption.obj
 0001:0002aa30       ?substr@?$basic_string@DU?$char_traits@D@std@@V?$allocator@D@2@@std@@QBE?AV12@II@Z 0042ba30 f i BootEncryption.obj
 0001:0002aa70       ?substr@?$basic_string@_WU?$char_traits@_W@std@@V?$allocator@_W@2@@std@@QBE?AV12@II@Z 0042ba70 f i BootEncryption.obj
 0001:0002aab0       ?truename@?$numpunct@_W@std@@QBE?AV?$basic_string@_WU?$char_traits@_W@std@@V?$allocator@_W@2@@2@XZ 0042bab0 f i Gstformat.obj
 0001:0002aab0       ?truename@?$numpunct@D@std@@QBE?AV?$basic_string@DU?$char_traits@D@std@@V?$allocator@D@2@@2@XZ 0042bab0 f i BootEncryption.obj
 0001:0002aad0       ?uflow@?$basic_streambuf@DU?$char_traits@D@std@@@std@@MAEHXZ 0042bad0 f i BootEncryption.obj
 0001:0002ab00       ?underflow@?$basic_streambuf@DU?$char_traits@D@std@@@std@@MAEHXZ 0042bb00 f i BootEncryption.obj
 0001:0002ab10       ?underflow@?$basic_stringbuf@DU?$char_traits@D@std@@V?$allocator@D@2@@std@@MAEHXZ 0042bb10 f i BootEncryption.obj
 0001:0002ab70       ?xsgetn@?$basic_streambuf@DU?$char_traits@D@std@@@std@@MAE_JPAD_J@Z 0042bb70 f i BootEncryption.obj
 0001:0002ac60       ?xsputn@?$basic_streambuf@DU?$char_traits@D@std@@@std@@MAE_JPBD_J@Z 0042bc60 f i BootEncryption.obj
 0001:0002adf0       _CommandHelpDlgProc@16     0042bdf0 f   Cmdline.obj
 0001:0002af50       _GetArgumentID             0042bf50 f   Cmdline.obj
 0001:0002b3b0       _GetArgumentValue          0042c3b0 f   Cmdline.obj
 0001:0002b430       _Win32CommandLine          0042c430 f   Cmdline.obj
 0001:0002b560       _AddComboItem              0042c560 f   Combo.obj
 0001:0002b610       _ClearCombo                0042c610 f   Combo.obj
 0001:0002b640       _DumpCombo                 0042c640 f   Combo.obj
 0001:0002b7b0       _GetOrderComboIdx          0042c7b0 f   Combo.obj
 0001:0002b850       _LoadCombo                 0042c850 f   Combo.obj
 0001:0002b9b0       _MoveEditToCombo           0042c9b0 f   Combo.obj
 0001:0002baf0       _UpdateComboOrder          0042caf0 f   Combo.obj
 0001:0002bb30       _GetCrc32                  0042cb30 f   Crc.obj
 0001:0002bb60       _crc32_selftests           0042cb60 f   Crc.obj
 0001:0002bc20       _crc32int                  0042cc20 f   Crc.obj
 0001:0002bc80       _CipherGetBlockSize        0042cc80 f   Crypto.obj
 0001:0002bcc0       _CipherGetKeyScheduleSize  0042ccc0 f   Crypto.obj
 0001:0002bd00       _CipherGetKeySize          0042cd00 f   Crypto.obj
 0001:0002bd40       _CipherGetName             0042cd40 f   Crypto.obj
 0001:0002bd80       _CipherInit                0042cd80 f   Crypto.obj
 0001:0002bdc0       _DecipherBlock             0042cdc0 f   Crypto.obj
 0001:0002be00       _DecipherBlocks            0042ce00 f   Crypto.obj
 0001:0002be90       _DecryptBuffer             0042ce90 f   Crypto.obj
 0001:0002c120       _DecryptDataUnits          0042d120 f   Crypto.obj
 0001:0002c140       _DecryptDataUnitsCurrentThread 0042d140 f   Crypto.obj
 0001:0002c3f0       _EAGetCipherCount          0042d3f0 f   Crypto.obj
 0001:0002c420       _EAGetFirst                0042d420 f   Crypto.obj
 0001:0002c430       _EAGetFirstCipher          0042d430 f   Crypto.obj
 0001:0002c450       _EAGetFirstMode            0042d450 f   Crypto.obj
 0001:0002c470       _EAGetKeyScheduleSize      0042d470 f   Crypto.obj
 0001:0002c530       _EAGetKeySize              0042d530 f   Crypto.obj
 0001:0002c5f0       _EAGetLargestKeyForMode    0042d5f0 f   Crypto.obj
 0001:0002c650       _EAGetLastCipher           0042d650 f   Crypto.obj
 0001:0002c680       _EAGetName                 0042d680 f   Crypto.obj
 0001:0002c7e0       _EAGetNext                 0042d7e0 f   Crypto.obj
 0001:0002c800       _EAGetNextMode             0042d800 f   Crypto.obj
 0001:0002c840       _EAGetPreviousCipher       0042d840 f   Crypto.obj
 0001:0002c890       _EAInit                    0042d890 f   Crypto.obj
 0001:0002c9d0       _EAInitMode                0042d9d0 f   Crypto.obj
 0001:0002ca20       _EAIsFormatEnabled         0042da20 f   Crypto.obj
 0001:0002ca40       _EAIsModeSupported         0042da40 f   Crypto.obj
 0001:0002cab0       _EncipherBlock             0042dab0 f   Crypto.obj
 0001:0002caf0       _EncipherBlocks            0042daf0 f   Crypto.obj
 0001:0002cb80       _EncryptBuffer             0042db80 f   Crypto.obj
 0001:0002cd90       _EncryptDataUnits          0042dd90 f   Crypto.obj
 0001:0002cdb0       _EncryptDataUnitsCurrentThread 0042ddb0 f   Crypto.obj
 0001:0002cff0       _GetMaxPkcs5OutSize        0042dff0 f   Crypto.obj
 0001:0002d040       _HashGetName               0042e040 f   Crypto.obj
 0001:0002d080       _HashIsDeprecated          0042e080 f   Crypto.obj
 0001:0002d0c0       _IsHwEncryptionEnabled     0042e0c0 f   Crypto.obj
 0001:0002d0d0       _XorKeySchedule            0042e0d0 f   Crypto.obj
 0001:0002d120       _crypto_close              0042e120 f   Crypto.obj
 0001:0002d170       _crypto_loadkey            0042e170 f   Crypto.obj
 0001:0002d1c0       _crypto_open               0042e1c0 f   Crypto.obj
 0001:0002d200       ??$_Buynode@ABUpiecewise_construct_t@std@@V?$tuple@$$QAV?$basic_string@DU?$char_traits@D@std@@V?$allocator@D@2@@std@@@2@V?$tuple@$$V@2@@?$_Tree_comp_alloc@V?$_Tmap_traits@V?$basic_string@DU?$char_traits@D@std@@V?$allocator@D@2@@std@@PAXU?$less@V?$basic_string@DU?$char_traits@D@std@@V?$allocator@D@2@@std@@@2@V?$allocator@U?$pair@$$CBV?$basic_string@DU?$char_traits@D@std@@V?$allocator@D@2@@std@@PAX@std@@@2@$0A@@std@@@std@@QAEPAU?$_Tree_node@U?$pair@$$CBV?$basic_string@DU?$char_traits@D@std@@V?$allocator@D@2@@std@@PAX@std@@PAX@1@ABUpiecewise_construct_t@1@$$QAV?$tuple@$$QAV?$basic_string@DU?$char_traits@D@std@@V?$allocator@D@2@@std@@@1@$$QAV?$tuple@$$V@1@@Z 0042e200 f i Dictionary.obj
 0001:0002d250       ??$_Buynode@ABUpiecewise_construct_t@std@@V?$tuple@ABH@2@V?$tuple@$$V@2@@?$_Tree_comp_alloc@V?$_Tmap_traits@HPAXU?$less@H@std@@V?$allocator@U?$pair@$$CBHPAX@std@@@2@$0A@@std@@@std@@QAEPAU?$_Tree_node@U?$pair@$$CBHPAX@std@@PAX@1@ABUpiecewise_construct_t@1@$$QAV?$tuple@ABH@1@$$QAV?$tuple@$$V@1@@Z 0042e250 f i Dictionary.obj
 0001:0002d280       ??$_Insert_at@AAU?$pair@$$CBHPAX@std@@PAU?$_Tree_node@U?$pair@$$CBHPAX@std@@PAX@2@@?$_Tree@V?$_Tmap_traits@HPAXU?$less@H@std@@V?$allocator@U?$pair@$$CBHPAX@std@@@2@$0A@@std@@@std@@IAE?AV?$_Tree_iterator@V?$_Tree_val@U?$_Tree_simple_types@U?$pair@$$CBHPAX@std@@@std@@@std@@@1@_NPAU?$_Tree_node@U?$pair@$$CBHPAX@std@@PAX@1@AAU?$pair@$$CBHPAX@1@1@Z 0042e280 f i Dictionary.obj
 0001:0002d420       ??$_Insert_at@AAU?$pair@$$CBV?$basic_string@DU?$char_traits@D@std@@V?$allocator@D@2@@std@@PAX@std@@PAU?$_Tree_node@U?$pair@$$CBV?$basic_string@DU?$char_traits@D@std@@V?$allocator@D@2@@std@@PAX@std@@PAX@2@@?$_Tree@V?$_Tmap_traits@V?$basic_string@DU?$char_traits@D@std@@V?$allocator@D@2@@std@@PAXU?$less@V?$basic_string@DU?$char_traits@D@std@@V?$allocator@D@2@@std@@@2@V?$allocator@U?$pair@$$CBV?$basic_string@DU?$char_traits@D@std@@V?$allocator@D@2@@std@@PAX@std@@@2@$0A@@std@@@std@@IAE?AV?$_Tree_iterator@V?$_Tree_val@U?$_Tree_simple_types@U?$pair@$$CBV?$basic_string@DU?$char_traits@D@std@@V?$allocator@D@2@@std@@PAX@std@@@std@@@std@@@1@_NPAU?$_Tree_node@U?$pair@$$CBV?$basic_string@DU?$char_traits@D@std@@V?$allocator@D@2@@std@@PAX@std@@PAX@1@AAU?$pair@$$CBV?$basic_string@DU?$char_traits@D@std@@V?$allocator@D@2@@std@@PAX@1@1@Z 0042e420 f i Dictionary.obj
 0001:0002d5f0       ??$_Insert_hint@AAU?$pair@$$CBHPAX@std@@PAU?$_Tree_node@U?$pair@$$CBHPAX@std@@PAX@2@@?$_Tree@V?$_Tmap_traits@HPAXU?$less@H@std@@V?$allocator@U?$pair@$$CBHPAX@std@@@2@$0A@@std@@@std@@IAE?AV?$_Tree_iterator@V?$_Tree_val@U?$_Tree_simple_types@U?$pair@$$CBHPAX@std@@@std@@@std@@@1@V?$_Tree_const_iterator@V?$_Tree_val@U?$_Tree_simple_types@U?$pair@$$CBHPAX@std@@@std@@@std@@@1@AAU?$pair@$$CBHPAX@1@PAU?$_Tree_node@U?$pair@$$CBHPAX@std@@PAX@1@@Z 0042e5f0 f i Dictionary.obj
 0001:0002d7e0       ??$_Insert_hint@AAU?$pair@$$CBV?$basic_string@DU?$char_traits@D@std@@V?$allocator@D@2@@std@@PAX@std@@PAU?$_Tree_node@U?$pair@$$CBV?$basic_string@DU?$char_traits@D@std@@V?$allocator@D@2@@std@@PAX@std@@PAX@2@@?$_Tree@V?$_Tmap_traits@V?$basic_string@DU?$char_traits@D@std@@V?$allocator@D@2@@std@@PAXU?$less@V?$basic_string@DU?$char_traits@D@std@@V?$allocator@D@2@@std@@@2@V?$allocator@U?$pair@$$CBV?$basic_string@DU?$char_traits@D@std@@V?$allocator@D@2@@std@@PAX@std@@@2@$0A@@std@@@std@@IAE?AV?$_Tree_iterator@V?$_Tree_val@U?$_Tree_simple_types@U?$pair@$$CBV?$basic_string@DU?$char_traits@D@std@@V?$allocator@D@2@@std@@PAX@std@@@std@@@std@@@1@V?$_Tree_const_iterator@V?$_Tree_val@U?$_Tree_simple_types@U?$pair@$$CBV?$basic_string@DU?$char_traits@D@std@@V?$allocator@D@2@@std@@PAX@std@@@std@@@std@@@1@AAU?$pair@$$CBV?$basic_string@DU?$char_traits@D@std@@V?$allocator@D@2@@std@@PAX@1@PAU?$_Tree_node@U?$pair@$$CBV?$basic_string@DU?$char_traits@D@std@@V?$allocator@D@2@@std@@PAX@std@@PAX@1@@Z 0042e7e0 f i Dictionary.obj
 0001:0002da40       ??$_Insert_nohint@AAU?$pair@$$CBHPAX@std@@PAU?$_Tree_node@U?$pair@$$CBHPAX@std@@PAX@2@@?$_Tree@V?$_Tmap_traits@HPAXU?$less@H@std@@V?$allocator@U?$pair@$$CBHPAX@std@@@2@$0A@@std@@@std@@IAE?AU?$pair@V?$_Tree_iterator@V?$_Tree_val@U?$_Tree_simple_types@U?$pair@$$CBHPAX@std@@@std@@@std@@@std@@_N@1@_NAAU?$pair@$$CBHPAX@1@PAU?$_Tree_node@U?$pair@$$CBHPAX@std@@PAX@1@@Z 0042ea40 f i Dictionary.obj
 0001:0002db60       ??$_Insert_nohint@AAU?$pair@$$CBV?$basic_string@DU?$char_traits@D@std@@V?$allocator@D@2@@std@@PAX@std@@PAU?$_Tree_node@U?$pair@$$CBV?$basic_string@DU?$char_traits@D@std@@V?$allocator@D@2@@std@@PAX@std@@PAX@2@@?$_Tree@V?$_Tmap_traits@V?$basic_string@DU?$char_traits@D@std@@V?$allocator@D@2@@std@@PAXU?$less@V?$basic_string@DU?$char_traits@D@std@@V?$allocator@D@2@@std@@@2@V?$allocator@U?$pair@$$CBV?$basic_string@DU?$char_traits@D@std@@V?$allocator@D@2@@std@@PAX@std@@@2@$0A@@std@@@std@@IAE?AU?$pair@V?$_Tree_iterator@V?$_Tree_val@U?$_Tree_simple_types@U?$pair@$$CBV?$basic_string@DU?$char_traits@D@std@@V?$allocator@D@2@@std@@PAX@std@@@std@@@std@@@std@@_N@1@_NAAU?$pair@$$CBV?$basic_string@DU?$char_traits@D@std@@V?$allocator@D@2@@std@@PAX@1@PAU?$_Tree_node@U?$pair@$$CBV?$basic_string@DU?$char_traits@D@std@@V?$allocator@D@2@@std@@PAX@std@@PAX@1@@Z 0042eb60 f i Dictionary.obj
 0001:0002ddd0       ??$_Lbound@V?$basic_string@DU?$char_traits@D@std@@V?$allocator@D@2@@std@@@?$_Tree@V?$_Tmap_traits@V?$basic_string@DU?$char_traits@D@std@@V?$allocator@D@2@@std@@PAXU?$less@V?$basic_string@DU?$char_traits@D@std@@V?$allocator@D@2@@std@@@2@V?$allocator@U?$pair@$$CBV?$basic_string@DU?$char_traits@D@std@@V?$allocator@D@2@@std@@PAX@std@@@2@$0A@@std@@@std@@IBEPAU?$_Tree_node@U?$pair@$$CBV?$basic_string@DU?$char_traits@D@std@@V?$allocator@D@2@@std@@PAX@std@@PAX@1@ABV?$basic_string@DU?$char_traits@D@std@@V?$allocator@D@2@@1@@Z 0042edd0 f i Dictionary.obj
 0001:0002deb0       ??$_Try_emplace@ABH$$V@?$map@HPAXU?$less@H@std@@V?$allocator@U?$pair@$$CBHPAX@std@@@2@@std@@QAE?AU?$pair@V?$_Tree_iterator@V?$_Tree_val@U?$_Tree_simple_types@U?$pair@$$CBHPAX@std@@@std@@@std@@@std@@_N@1@ABH@Z 0042eeb0 f i Dictionary.obj
 0001:0002df40       ??$_Try_emplace@V?$basic_string@DU?$char_traits@D@std@@V?$allocator@D@2@@std@@$$V@?$map@V?$basic_string@DU?$char_traits@D@std@@V?$allocator@D@2@@std@@PAXU?$less@V?$basic_string@DU?$char_traits@D@std@@V?$allocator@D@2@@std@@@2@V?$allocator@U?$pair@$$CBV?$basic_string@DU?$char_traits@D@std@@V?$allocator@D@2@@std@@PAX@std@@@2@@std@@QAE?AU?$pair@V?$_Tree_iterator@V?$_Tree_val@U?$_Tree_simple_types@U?$pair@$$CBV?$basic_string@DU?$char_traits@D@std@@V?$allocator@D@2@@std@@PAX@std@@@std@@@std@@@std@@_N@1@$$QAV?$basic_string@DU?$char_traits@D@std@@V?$allocator@D@2@@1@@Z 0042ef40 f i Dictionary.obj
 0001:0002dff0       ?imbue@?$basic_streambuf@DU?$char_traits@D@std@@@std@@MAEXABVlocale@2@@Z 0042eff0 f i BootEncryption.obj
 0001:0002dff0       ??$destroy@PAU?$_Tree_node@U?$pair@$$CBHUHostDevice@@@std@@PAX@std@@@?$_Wrap_alloc@V?$allocator@U?$_Tree_node@U?$pair@$$CBHUHostDevice@@@std@@PAX@std@@@std@@@std@@QAEXPAPAU?$_Tree_node@U?$pair@$$CBHUHostDevice@@@std@@PAX@1@@Z 0042eff0 f i Dlgcode.obj
 0001:0002dff0       ??$destroy@PAU?$_Tree_node@U?$pair@$$CBV?$basic_string@DU?$char_traits@D@std@@V?$allocator@D@2@@std@@PAX@std@@PAX@std@@@?$_Wrap_alloc@V?$allocator@U?$_Tree_node@U?$pair@$$CBV?$basic_string@DU?$char_traits@D@std@@V?$allocator@D@2@@std@@PAX@std@@PAX@std@@@std@@@std@@QAEXPAPAU?$_Tree_node@U?$pair@$$CBV?$basic_string@DU?$char_traits@D@std@@V?$allocator@D@2@@std@@PAX@std@@PAX@1@@Z 0042eff0 f i Dictionary.obj
 0001:0002dff0       ?Show@UserAbort@GostCrypt@@UBEXPAUHWND__@@@Z 0042eff0 f i FormatCom.obj
 0001:0002dff0       ?imbue@?$basic_streambuf@_WU?$char_traits@_W@std@@@std@@MAEXABVlocale@2@@Z 0042eff0 f i Gstformat.obj
 0001:0002dff0       ??$destroy@PAU?$_Tree_node@U?$pair@$$CBKUPkcs11Session@GostCrypt@@@std@@PAX@std@@@?$_Wrap_alloc@V?$allocator@U?$_Tree_node@U?$pair@$$CBKUPkcs11Session@GostCrypt@@@std@@PAX@std@@@std@@@std@@QAEXPAPAU?$_Tree_node@U?$pair@$$CBKUPkcs11Session@GostCrypt@@@std@@PAX@1@@Z 0042eff0 f i SecurityToken.obj
 0001:0002dff0       ??$destroy@PAU?$_Tree_node@U?$pair@$$CBHPAX@std@@PAX@std@@@?$_Wrap_alloc@V?$allocator@U?$_Tree_node@U?$pair@$$CBHPAX@std@@PAX@std@@@std@@@std@@QAEXPAPAU?$_Tree_node@U?$pair@$$CBHPAX@std@@PAX@1@@Z 0042eff0 f i Dictionary.obj
 0001:0002dff0       ??$destroy@PAD@?$_Wrap_alloc@V?$allocator@D@std@@@std@@QAEXPAPAD@Z 0042eff0 f i Dlgcode.obj
 0001:0002e000       ??0?$_Wrap_alloc@V?$allocator@UHostDevice@@@std@@@std@@QAE@XZ 0042f000 f i Gstformat.obj
 0001:0002e000       ??0?$_Wrap_alloc@V?$allocator@D@std@@@std@@QAE@XZ 0042f000 f i Dlgcode.obj
 0001:0002e000       ??0?$_Wrap_alloc@V?$allocator@U?$_Tree_node@U?$pair@$$CBV?$basic_string@DU?$char_traits@D@std@@V?$allocator@D@2@@std@@PAX@std@@PAX@std@@@std@@@std@@QAE@XZ 0042f000 f i Dictionary.obj
 0001:0002e000       ??0?$_Wrap_alloc@V?$allocator@U?$_Tree_node@U?$pair@$$CBHPAX@std@@PAX@std@@@std@@@std@@QAE@XZ 0042f000 f i Dictionary.obj
 0001:0002e000       ??0?$_Wrap_alloc@V?$allocator@U?$_Tree_node@U?$pair@$$CBKUPkcs11Session@GostCrypt@@@std@@PAX@std@@@std@@@std@@QAE@XZ 0042f000 f i SecurityToken.obj
 0001:0002e010       ??E?$_Tree_unchecked_const_iterator@V?$_Tree_val@U?$_Tree_simple_types@U?$pair@$$CBV?$basic_string@DU?$char_traits@D@std@@V?$allocator@D@2@@std@@PAX@std@@@std@@@std@@U_Iterator_base0@2@@std@@QAEAAV01@XZ 0042f010 f i Dictionary.obj
 0001:0002e010       ??E?$_Tree_unchecked_const_iterator@V?$_Tree_val@U?$_Tree_simple_types@U?$pair@$$CBHPAX@std@@@std@@@std@@U_Iterator_base0@2@@std@@QAEAAV01@XZ 0042f010 f i Dictionary.obj
 0001:0002e010       ??E?$_Tree_unchecked_const_iterator@V?$_Tree_val@U?$_Tree_simple_types@U?$pair@$$CBHUHostDevice@@@std@@@std@@@std@@U_Iterator_base0@2@@std@@QAEAAV01@XZ 0042f010 f i Dlgcode.obj
 0001:0002e010       ??E?$_Tree_unchecked_const_iterator@V?$_Tree_val@U?$_Tree_simple_types@U?$pair@$$CBKUPkcs11Session@GostCrypt@@@std@@@std@@@std@@U_Iterator_base0@2@@std@@QAEAAV01@XZ 0042f010 f i SecurityToken.obj
 0001:0002e060       ??R?$less@V?$basic_string@DU?$char_traits@D@std@@V?$allocator@D@2@@std@@@std@@QBE_NABV?$basic_string@DU?$char_traits@D@std@@V?$allocator@D@2@@1@0@Z 0042f060 f i Dictionary.obj
 0001:0002e0c0       ?_Buyheadnode@?$_Tree_comp_alloc@V?$_Tmap_traits@HPAXU?$less@H@std@@V?$allocator@U?$pair@$$CBHPAX@std@@@2@$0A@@std@@@std@@QAEPAU?$_Tree_node@U?$pair@$$CBHPAX@std@@PAX@2@XZ 0042f0c0 f i Dictionary.obj
 0001:0002e0f0       ?_Buyheadnode@?$_Tree_comp_alloc@V?$_Tmap_traits@V?$basic_string@DU?$char_traits@D@std@@V?$allocator@D@2@@std@@PAXU?$less@V?$basic_string@DU?$char_traits@D@std@@V?$allocator@D@2@@std@@@2@V?$allocator@U?$pair@$$CBV?$basic_string@DU?$char_traits@D@std@@V?$allocator@D@2@@std@@PAX@std@@@2@$0A@@std@@@std@@QAEPAU?$_Tree_node@U?$pair@$$CBV?$basic_string@DU?$char_traits@D@std@@V?$allocator@D@2@@std@@PAX@std@@PAX@2@XZ 0042f0f0 f i Dictionary.obj
 0001:0002e120       ?_Buynode0@?$_Tree_comp_alloc@V?$_Tmap_traits@HPAXU?$less@H@std@@V?$allocator@U?$pair@$$CBHPAX@std@@@2@$0A@@std@@@std@@QAEPAU?$_Tree_node@U?$pair@$$CBHPAX@std@@PAX@2@XZ 0042f120 f i Dictionary.obj
 0001:0002e160       ?_Buynode0@?$_Tree_comp_alloc@V?$_Tmap_traits@V?$basic_string@DU?$char_traits@D@std@@V?$allocator@D@2@@std@@PAXU?$less@V?$basic_string@DU?$char_traits@D@std@@V?$allocator@D@2@@std@@@2@V?$allocator@U?$pair@$$CBV?$basic_string@DU?$char_traits@D@std@@V?$allocator@D@2@@std@@PAX@std@@@2@$0A@@std@@@std@@QAEPAU?$_Tree_node@U?$pair@$$CBV?$basic_string@DU?$char_traits@D@std@@V?$allocator@D@2@@std@@PAX@std@@PAX@2@XZ 0042f160 f i Dictionary.obj
 0001:0002e1a0       ?_Destroy_if_not_nil@?$_Tree@V?$_Tmap_traits@V?$basic_string@DU?$char_traits@D@std@@V?$allocator@D@2@@std@@PAXU?$less@V?$basic_string@DU?$char_traits@D@std@@V?$allocator@D@2@@std@@@2@V?$allocator@U?$pair@$$CBV?$basic_string@DU?$char_traits@D@std@@V?$allocator@D@2@@std@@PAX@std@@@2@$0A@@std@@@std@@IAEXPAU?$_Tree_node@U?$pair@$$CBV?$basic_string@DU?$char_traits@D@std@@V?$allocator@D@2@@std@@PAX@std@@PAX@2@@Z 0042f1a0 f i Dictionary.obj
 0001:0002e1f0       ?_Erase@?$_Tree@V?$_Tmap_traits@HPAXU?$less@H@std@@V?$allocator@U?$pair@$$CBHPAX@std@@@2@$0A@@std@@@std@@IAEXPAU?$_Tree_node@U?$pair@$$CBHPAX@std@@PAX@2@@Z 0042f1f0 f i Dictionary.obj
 0001:0002e1f0       ?_Erase@?$_Tree@V?$_Tmap_traits@KUPkcs11Session@GostCrypt@@U?$less@K@std@@V?$allocator@U?$pair@$$CBKUPkcs11Session@GostCrypt@@@std@@@4@$0A@@std@@@std@@IAEXPAU?$_Tree_node@U?$pair@$$CBKUPkcs11Session@GostCrypt@@@std@@PAX@2@@Z 0042f1f0 f i SecurityToken.obj
 0001:0002e230       ?_Erase@?$_Tree@V?$_Tmap_traits@V?$basic_string@DU?$char_traits@D@std@@V?$allocator@D@2@@std@@PAXU?$less@V?$basic_string@DU?$char_traits@D@std@@V?$allocator@D@2@@std@@@2@V?$allocator@U?$pair@$$CBV?$basic_string@DU?$char_traits@D@std@@V?$allocator@D@2@@std@@PAX@std@@@2@$0A@@std@@@std@@IAEXPAU?$_Tree_node@U?$pair@$$CBV?$basic_string@DU?$char_traits@D@std@@V?$allocator@D@2@@std@@PAX@std@@PAX@2@@Z 0042f230 f i Dictionary.obj
 0001:0002e2e0       ?_Lrotate@?$_Tree@V?$_Tmap_traits@HPAXU?$less@H@std@@V?$allocator@U?$pair@$$CBHPAX@std@@@2@$0A@@std@@@std@@IAEXPAU?$_Tree_node@U?$pair@$$CBHPAX@std@@PAX@2@@Z 0042f2e0 f i Dictionary.obj
 0001:0002e2e0       ?_Lrotate@?$_Tree@V?$_Tmap_traits@KUPkcs11Session@GostCrypt@@U?$less@K@std@@V?$allocator@U?$pair@$$CBKUPkcs11Session@GostCrypt@@@std@@@4@$0A@@std@@@std@@IAEXPAU?$_Tree_node@U?$pair@$$CBKUPkcs11Session@GostCrypt@@@std@@PAX@2@@Z 0042f2e0 f i SecurityToken.obj
 0001:0002e2e0       ?_Lrotate@?$_Tree@V?$_Tmap_traits@HUHostDevice@@U?$less@H@std@@V?$allocator@U?$pair@$$CBHUHostDevice@@@std@@@3@$0A@@std@@@std@@IAEXPAU?$_Tree_node@U?$pair@$$CBHUHostDevice@@@std@@PAX@2@@Z 0042f2e0 f i Dlgcode.obj
 0001:0002e2e0       ?_Lrotate@?$_Tree@V?$_Tmap_traits@V?$basic_string@DU?$char_traits@D@std@@V?$allocator@D@2@@std@@PAXU?$less@V?$basic_string@DU?$char_traits@D@std@@V?$allocator@D@2@@std@@@2@V?$allocator@U?$pair@$$CBV?$basic_string@DU?$char_traits@D@std@@V?$allocator@D@2@@std@@PAX@std@@@2@$0A@@std@@@std@@IAEXPAU?$_Tree_node@U?$pair@$$CBV?$basic_string@DU?$char_traits@D@std@@V?$allocator@D@2@@std@@PAX@std@@PAX@2@@Z 0042f2e0 f i Dictionary.obj
 0001:0002e340       ?clear@?$_Tree@V?$_Tmap_traits@HPAXU?$less@H@std@@V?$allocator@U?$pair@$$CBHPAX@std@@@2@$0A@@std@@@std@@QAEXXZ 0042f340 f i Dictionary.obj
 0001:0002e340       ?clear@?$_Tree@V?$_Tmap_traits@KUPkcs11Session@GostCrypt@@U?$less@K@std@@V?$allocator@U?$pair@$$CBKUPkcs11Session@GostCrypt@@@std@@@4@$0A@@std@@@std@@QAEXXZ 0042f340 f i SecurityToken.obj
 0001:0002e3c0       ?erase@?$_Tree@V?$_Tmap_traits@KUPkcs11Session@GostCrypt@@U?$less@K@std@@V?$allocator@U?$pair@$$CBKUPkcs11Session@GostCrypt@@@std@@@4@$0A@@std@@@std@@QAE?AV?$_Tree_iterator@V?$_Tree_val@U?$_Tree_simple_types@U?$pair@$$CBKUPkcs11Session@GostCrypt@@@std@@@std@@@std@@@2@V?$_Tree_const_iterator@V?$_Tree_val@U?$_Tree_simple_types@U?$pair@$$CBKUPkcs11Session@GostCrypt@@@std@@@std@@@std@@@2@0@Z 0042f3c0 f i SecurityToken.obj
 0001:0002e3c0       ?erase@?$_Tree@V?$_Tmap_traits@HPAXU?$less@H@std@@V?$allocator@U?$pair@$$CBHPAX@std@@@2@$0A@@std@@@std@@QAE?AV?$_Tree_iterator@V?$_Tree_val@U?$_Tree_simple_types@U?$pair@$$CBHPAX@std@@@std@@@std@@@2@V?$_Tree_const_iterator@V?$_Tree_val@U?$_Tree_simple_types@U?$pair@$$CBHPAX@std@@@std@@@std@@@2@0@Z 0042f3c0 f i Dictionary.obj
 0001:0002e460       ?erase@?$_Tree@V?$_Tmap_traits@KUPkcs11Session@GostCrypt@@U?$less@K@std@@V?$allocator@U?$pair@$$CBKUPkcs11Session@GostCrypt@@@std@@@4@$0A@@std@@@std@@QAE?AV?$_Tree_iterator@V?$_Tree_val@U?$_Tree_simple_types@U?$pair@$$CBKUPkcs11Session@GostCrypt@@@std@@@std@@@std@@@2@V?$_Tree_const_iterator@V?$_Tree_val@U?$_Tree_simple_types@U?$pair@$$CBKUPkcs11Session@GostCrypt@@@std@@@std@@@std@@@2@@Z 0042f460 f i SecurityToken.obj
 0001:0002e460       ?erase@?$_Tree@V?$_Tmap_traits@HPAXU?$less@H@std@@V?$allocator@U?$pair@$$CBHPAX@std@@@2@$0A@@std@@@std@@QAE?AV?$_Tree_iterator@V?$_Tree_val@U?$_Tree_simple_types@U?$pair@$$CBHPAX@std@@@std@@@std@@@2@V?$_Tree_const_iterator@V?$_Tree_val@U?$_Tree_simple_types@U?$pair@$$CBHPAX@std@@@std@@@std@@@2@@Z 0042f460 f i Dictionary.obj
 0001:0002e6e0       ?erase@?$_Tree@V?$_Tmap_traits@V?$basic_string@DU?$char_traits@D@std@@V?$allocator@D@2@@std@@PAXU?$less@V?$basic_string@DU?$char_traits@D@std@@V?$allocator@D@2@@std@@@2@V?$allocator@U?$pair@$$CBV?$basic_string@DU?$char_traits@D@std@@V?$allocator@D@2@@std@@PAX@std@@@2@$0A@@std@@@std@@QAE?AV?$_Tree_iterator@V?$_Tree_val@U?$_Tree_simple_types@U?$pair@$$CBV?$basic_string@DU?$char_traits@D@std@@V?$allocator@D@2@@std@@PAX@std@@@std@@@std@@@2@V?$_Tree_const_iterator@V?$_Tree_val@U?$_Tree_simple_types@U?$pair@$$CBV?$basic_string@DU?$char_traits@D@std@@V?$allocator@D@2@@std@@PAX@std@@@std@@@std@@@2@0@Z 0042f6e0 f i Dictionary.obj
 0001:0002e7d0       ?erase@?$_Tree@V?$_Tmap_traits@V?$basic_string@DU?$char_traits@D@std@@V?$allocator@D@2@@std@@PAXU?$less@V?$basic_string@DU?$char_traits@D@std@@V?$allocator@D@2@@std@@@2@V?$allocator@U?$pair@$$CBV?$basic_string@DU?$char_traits@D@std@@V?$allocator@D@2@@std@@PAX@std@@@2@$0A@@std@@@std@@QAE?AV?$_Tree_iterator@V?$_Tree_val@U?$_Tree_simple_types@U?$pair@$$CBV?$basic_string@DU?$char_traits@D@std@@V?$allocator@D@2@@std@@PAX@std@@@std@@@std@@@2@V?$_Tree_const_iterator@V?$_Tree_val@U?$_Tree_simple_types@U?$pair@$$CBV?$basic_string@DU?$char_traits@D@std@@V?$allocator@D@2@@std@@PAX@std@@@std@@@std@@@2@@Z 0042f7d0 f i Dictionary.obj
 0001:0002eac0       ?find@?$_Tree@V?$_Tmap_traits@V?$basic_string@DU?$char_traits@D@std@@V?$allocator@D@2@@std@@PAXU?$less@V?$basic_string@DU?$char_traits@D@std@@V?$allocator@D@2@@std@@@2@V?$allocator@U?$pair@$$CBV?$basic_string@DU?$char_traits@D@std@@V?$allocator@D@2@@std@@PAX@std@@@2@$0A@@std@@@std@@QAE?AV?$_Tree_iterator@V?$_Tree_val@U?$_Tree_simple_types@U?$pair@$$CBV?$basic_string@DU?$char_traits@D@std@@V?$allocator@D@2@@std@@PAX@std@@@std@@@std@@@2@ABV?$basic_string@DU?$char_traits@D@std@@V?$allocator@D@2@@2@@Z 0042fac0 f i Dictionary.obj
 0001:0002eb50       _AddDictionaryEntry        0042fb50 f   Dictionary.obj
 0001:0002ec00       _AddPoolData               0042fc00 f   Dictionary.obj
 0001:0002ec80       _ClearDictionaryPool       0042fc80 f   Dictionary.obj
 0001:0002ed00       _GetDictionaryValue        0042fd00 f   Dictionary.obj
 0001:0002edb0       _GetDictionaryValueByInt   0042fdb0 f   Dictionary.obj
 0001:0002ee00       ??$?0ABH$$Z$$V@?$pair@$$CBHUHostDevice@@@std@@QAE@Upiecewise_construct_t@1@V?$tuple@ABH@1@V?$tuple@$$V@1@@Z 0042fe00 f i Dlgcode.obj
 0001:0002ee70       ??$?6_WU?$char_traits@_W@std@@V?$allocator@_W@1@@std@@YAAAV?$basic_ostream@_WU?$char_traits@_W@std@@@0@AAV10@ABV?$basic_string@_WU?$char_traits@_W@std@@V?$allocator@_W@2@@0@@Z 0042fe70 f i Dlgcode.obj
 0001:0002f190       ??$?8DU?$char_traits@D@std@@V?$allocator@D@1@@std@@YA_NABV?$basic_string@DU?$char_traits@D@std@@V?$allocator@D@2@@0@PBD@Z 00430190 f i Dlgcode.obj
 0001:0002f200       ??$GetContainerForward@V?$basic_string@DU?$char_traits@D@std@@V?$allocator@D@2@@std@@@ForEach@GostCrypt@@SA?AU?$ContainerForward@V?$basic_string@DU?$char_traits@D@std@@V?$allocator@D@2@@std@@@01@ABV?$basic_string@DU?$char_traits@D@std@@V?$allocator@D@2@@std@@@Z 00430200 f i Dlgcode.obj
 0001:0002f220       ??$GetContainerForward@V?$list@KV?$allocator@K@std@@@std@@@ForEach@GostCrypt@@SA?AU?$ContainerForward@V?$list@KV?$allocator@K@std@@@std@@@01@ABV?$list@KV?$allocator@K@std@@@std@@@Z 00430220 f i Dlgcode.obj
 0001:0002f290       ??$GetContainerForward@V?$list@USecurityTokenInfo@GostCrypt@@V?$allocator@USecurityTokenInfo@GostCrypt@@@std@@@std@@@ForEach@GostCrypt@@SA?AU?$ContainerForward@V?$list@USecurityTokenInfo@GostCrypt@@V?$allocator@USecurityTokenInfo@GostCrypt@@@std@@@std@@@01@ABV?$list@USecurityTokenInfo@GostCrypt@@V?$allocator@USecurityTokenInfo@GostCrypt@@@std@@@std@@@Z 00430290 f i Dlgcode.obj
 0001:0002f300       ??$GetContainerForward@V?$list@USecurityTokenKeyfile@GostCrypt@@V?$allocator@USecurityTokenKeyfile@GostCrypt@@@std@@@std@@@ForEach@GostCrypt@@SA?AU?$ContainerForward@V?$list@USecurityTokenKeyfile@GostCrypt@@V?$allocator@USecurityTokenKeyfile@GostCrypt@@@std@@@std@@@01@ABV?$list@USecurityTokenKeyfile@GostCrypt@@V?$allocator@USecurityTokenKeyfile@GostCrypt@@@std@@@std@@@Z 00430300 f i Dlgcode.obj
 0001:0002f370       ??$GetContainerForward@V?$vector@USecurityTokenKeyfile@GostCrypt@@V?$allocator@USecurityTokenKeyfile@GostCrypt@@@std@@@std@@@ForEach@GostCrypt@@SA?AU?$ContainerForward@V?$vector@USecurityTokenKeyfile@GostCrypt@@V?$allocator@USecurityTokenKeyfile@GostCrypt@@@std@@@std@@@01@ABV?$vector@USecurityTokenKeyfile@GostCrypt@@V?$allocator@USecurityTokenKeyfile@GostCrypt@@@std@@@std@@@Z 00430370 f i Dlgcode.obj
 0001:0002f3e0       ??$_Buynode@K@?$_List_buy@KV?$allocator@K@std@@@std@@QAEPAU?$_List_node@KPAX@1@PAU21@0$$QAK@Z 004303e0 f i Dlgcode.obj
 0001:0002f3e0       ??$_Buynode@ABK@?$_List_buy@KV?$allocator@K@std@@@std@@QAEPAU?$_List_node@KPAX@1@PAU21@0ABK@Z 004303e0 f i Dlgcode.obj
 0001:0002f400       ??$_Buynode@ABUSecurityTokenInfo@GostCrypt@@@?$_List_buy@USecurityTokenInfo@GostCrypt@@V?$allocator@USecurityTokenInfo@GostCrypt@@@std@@@std@@QAEPAU?$_List_node@USecurityTokenInfo@GostCrypt@@PAX@1@PAU21@0ABUSecurityTokenInfo@GostCrypt@@@Z 00430400 f i Dlgcode.obj
 0001:0002f490       ??$_Buynode@ABUSecurityTokenKeyfile@GostCrypt@@@?$_List_buy@USecurityTokenKeyfile@GostCrypt@@V?$allocator@USecurityTokenKeyfile@GostCrypt@@@std@@@std@@QAEPAU?$_List_node@USecurityTokenKeyfile@GostCrypt@@PAX@1@PAU21@0ABUSecurityTokenKeyfile@GostCrypt@@@Z 00430490 f i Dlgcode.obj
 0001:0002f520       ??$_Buynode@ABUpiecewise_construct_t@std@@V?$tuple@ABH@2@V?$tuple@$$V@2@@?$_Tree_comp_alloc@V?$_Tmap_traits@HUHostDevice@@U?$less@H@std@@V?$allocator@U?$pair@$$CBHUHostDevice@@@std@@@3@$0A@@std@@@std@@QAEPAU?$_Tree_node@U?$pair@$$CBHUHostDevice@@@std@@PAX@1@ABUpiecewise_construct_t@1@$$QAV?$tuple@ABH@1@$$QAV?$tuple@$$V@1@@Z 00430520 f i Dlgcode.obj
 0001:0002f560       ??$_Buynode@USecurityTokenKeyfilePath@GostCrypt@@@?$_List_buy@USecurityTokenKeyfilePath@GostCrypt@@V?$allocator@USecurityTokenKeyfilePath@GostCrypt@@@std@@@std@@QAEPAU?$_List_node@USecurityTokenKeyfilePath@GostCrypt@@PAX@1@PAU21@0$$QAUSecurityTokenKeyfilePath@GostCrypt@@@Z 00430560 f i Dlgcode.obj
 0001:0002f5a0       ??$_Copy_unchecked@PAUHostDevice@@PAU1@@std@@YAPAUHostDevice@@PAU1@00@Z 004305a0 f i Dlgcode.obj
 0001:0002f5d0       ??$_Destroy_range@V?$allocator@USecurityTokenKeyfile@GostCrypt@@@std@@PAUSecurityTokenKeyfile@GostCrypt@@@std@@YAXPAUSecurityTokenKeyfile@GostCrypt@@0AAU?$_Wrap_alloc@V?$allocator@USecurityTokenKeyfile@GostCrypt@@@std@@@0@@Z 004305d0 f i Dlgcode.obj
 0001:0002f600       ??$_Insert_at@AAU?$pair@$$CBHUHostDevice@@@std@@PAU?$_Tree_node@U?$pair@$$CBHUHostDevice@@@std@@PAX@2@@?$_Tree@V?$_Tmap_traits@HUHostDevice@@U?$less@H@std@@V?$allocator@U?$pair@$$CBHUHostDevice@@@std@@@3@$0A@@std@@@std@@IAE?AV?$_Tree_iterator@V?$_Tree_val@U?$_Tree_simple_types@U?$pair@$$CBHUHostDevice@@@std@@@std@@@std@@@1@_NPAU?$_Tree_node@U?$pair@$$CBHUHostDevice@@@std@@PAX@1@AAU?$pair@$$CBHUHostDevice@@@1@1@Z 00430600 f i Dlgcode.obj
 0001:0002f7b0       ??$_Insert_hint@AAU?$pair@$$CBHUHostDevice@@@std@@PAU?$_Tree_node@U?$pair@$$CBHUHostDevice@@@std@@PAX@2@@?$_Tree@V?$_Tmap_traits@HUHostDevice@@U?$less@H@std@@V?$allocator@U?$pair@$$CBHUHostDevice@@@std@@@3@$0A@@std@@@std@@IAE?AV?$_Tree_iterator@V?$_Tree_val@U?$_Tree_simple_types@U?$pair@$$CBHUHostDevice@@@std@@@std@@@std@@@1@V?$_Tree_const_iterator@V?$_Tree_val@U?$_Tree_simple_types@U?$pair@$$CBHUHostDevice@@@std@@@std@@@std@@@1@AAU?$pair@$$CBHUHostDevice@@@1@PAU?$_Tree_node@U?$pair@$$CBHUHostDevice@@@std@@PAX@1@@Z 004307b0 f i Dlgcode.obj
 0001:0002f9e0       ??$_Insert_nohint@AAU?$pair@$$CBHUHostDevice@@@std@@PAU?$_Tree_node@U?$pair@$$CBHUHostDevice@@@std@@PAX@2@@?$_Tree@V?$_Tmap_traits@HUHostDevice@@U?$less@H@std@@V?$allocator@U?$pair@$$CBHUHostDevice@@@std@@@3@$0A@@std@@@std@@IAE?AU?$pair@V?$_Tree_iterator@V?$_Tree_val@U?$_Tree_simple_types@U?$pair@$$CBHUHostDevice@@@std@@@std@@@std@@@std@@_N@1@_NAAU?$pair@$$CBHUHostDevice@@@1@PAU?$_Tree_node@U?$pair@$$CBHUHostDevice@@@std@@PAX@1@@Z 004309e0 f i Dlgcode.obj
 0001:0002fb00       ??$_Insert_range@V?$_List_const_iterator@V?$_List_val@U?$_List_simple_types@K@std@@@std@@@std@@@?$list@KV?$allocator@K@std@@@std@@QAEXV?$_List_unchecked_const_iterator@V?$_List_val@U?$_List_simple_types@K@std@@@std@@U_Iterator_base0@2@@1@V?$_List_const_iterator@V?$_List_val@U?$_List_simple_types@K@std@@@std@@@1@1Uforward_iterator_tag@1@@Z 00430b00 f i Dlgcode.obj
 0001:0002fbd0       ??$_Insert_range@V?$_List_const_iterator@V?$_List_val@U?$_List_simple_types@USecurityTokenInfo@GostCrypt@@@std@@@std@@@std@@@?$list@USecurityTokenInfo@GostCrypt@@V?$allocator@USecurityTokenInfo@GostCrypt@@@std@@@std@@QAEXV?$_List_unchecked_const_iterator@V?$_List_val@U?$_List_simple_types@USecurityTokenInfo@GostCrypt@@@std@@@std@@U_Iterator_base0@2@@1@V?$_List_const_iterator@V?$_List_val@U?$_List_simple_types@USecurityTokenInfo@GostCrypt@@@std@@@std@@@1@1Uforward_iterator_tag@1@@Z 00430bd0 f i Dlgcode.obj
 0001:0002fca0       ??$_Insert_range@V?$_List_const_iterator@V?$_List_val@U?$_List_simple_types@USecurityTokenKeyfile@GostCrypt@@@std@@@std@@@std@@@?$list@USecurityTokenKeyfile@GostCrypt@@V?$allocator@USecurityTokenKeyfile@GostCrypt@@@std@@@std@@QAEXV?$_List_unchecked_const_iterator@V?$_List_val@U?$_List_simple_types@USecurityTokenKeyfile@GostCrypt@@@std@@@std@@U_Iterator_base0@2@@1@V?$_List_const_iterator@V?$_List_val@U?$_List_simple_types@USecurityTokenKeyfile@GostCrypt@@@std@@@std@@@1@1Uforward_iterator_tag@1@@Z 00430ca0 f i Dlgcode.obj
 0001:0002fd70       ??$_Try_emplace@ABH$$V@?$map@HUHostDevice@@U?$less@H@std@@V?$allocator@U?$pair@$$CBHUHostDevice@@@std@@@3@@std@@QAE?AU?$pair@V?$_Tree_iterator@V?$_Tree_val@U?$_Tree_simple_types@U?$pair@$$CBHUHostDevice@@@std@@@std@@@std@@@std@@_N@1@ABH@Z 00430d70 f i Dlgcode.obj
 0001:0002fe00       ??$_Ucopy@PAUHostDevice@@@?$vector@UHostDevice@@V?$allocator@UHostDevice@@@std@@@std@@IAEPAUHostDevice@@PAU2@00@Z 00430e00 f i Dlgcode.obj
 0001:0002fe30       ??$_Uninitialized_copy_al_unchecked1@PAUHostDevice@@PAU1@V?$allocator@UHostDevice@@@std@@@std@@YAPAUHostDevice@@PAU1@00AAU?$_Wrap_alloc@V?$allocator@UHostDevice@@@std@@@0@U_General_ptr_iterator_tag@0@U_Any_tag@0@@Z 00430e30 f i Dlgcode.obj
 0001:0002fe30       ??$_Uninitialized_copy_al_unchecked1@PBUHostDevice@@PAU1@V?$allocator@UHostDevice@@@std@@@std@@YAPAUHostDevice@@PBU1@0PAU1@AAU?$_Wrap_alloc@V?$allocator@UHostDevice@@@std@@@0@U_General_ptr_iterator_tag@0@U_Any_tag@0@@Z 00430e30 f i Gstformat.obj
 0001:0002fe30       ??$_Uninitialized_move_al_unchecked1@PAUHostDevice@@PAU1@V?$allocator@UHostDevice@@@std@@@std@@YAPAUHostDevice@@PAU1@00AAU?$_Wrap_alloc@V?$allocator@UHostDevice@@@std@@@0@U_General_ptr_iterator_tag@0@U_Any_tag@0@@Z 00430e30 f i Gstformat.obj
 0001:0002fed0       ??$_Uninitialized_copy_al_unchecked1@PBUSecurityTokenKeyfile@GostCrypt@@PAU12@V?$allocator@USecurityTokenKeyfile@GostCrypt@@@std@@@std@@YAPAUSecurityTokenKeyfile@GostCrypt@@PBU12@0PAU12@AAU?$_Wrap_alloc@V?$allocator@USecurityTokenKeyfile@GostCrypt@@@std@@@0@U_General_ptr_iterator_tag@0@U_Any_tag@0@@Z 00430ed0 f i Dlgcode.obj
 0001:0002ff70       ??0?$ContainerForward@V?$basic_string@DU?$char_traits@D@std@@V?$allocator@D@2@@std@@@ForEach@GostCrypt@@QAE@ABV?$basic_string@DU?$char_traits@D@std@@V?$allocator@D@2@@std@@@Z 00430f70 f i Dlgcode.obj
 0001:00030010       ??0?$basic_string@_WU?$char_traits@_W@std@@V?$allocator@_W@2@@std@@QAE@XZ 00431010 f i Dlgcode.obj
 0001:00030030       ??0?$basic_stringstream@_WU?$char_traits@_W@std@@V?$allocator@_W@2@@std@@QAE@H@Z 00431030 f i Dlgcode.obj
 0001:00030120       ??0?$list@KV?$allocator@K@std@@@std@@QAE@ABV01@@Z 00431120 f i Dlgcode.obj
 0001:000301c0       ??0?$list@USecurityTokenInfo@GostCrypt@@V?$allocator@USecurityTokenInfo@GostCrypt@@@std@@@std@@QAE@ABV01@@Z 004311c0 f i Dlgcode.obj
 0001:00030260       ??0?$list@USecurityTokenKeyfile@GostCrypt@@V?$allocator@USecurityTokenKeyfile@GostCrypt@@@std@@@std@@QAE@ABV01@@Z 00431260 f i Dlgcode.obj
 0001:00030300       ??0?$vector@EV?$allocator@E@std@@@std@@QAE@I@Z 00431300 f i Dlgcode.obj
 0001:00030350       ??0?$vector@USecurityTokenKeyfile@GostCrypt@@V?$allocator@USecurityTokenKeyfile@GostCrypt@@@std@@@std@@QAE@ABV01@@Z 00431350 f i Dlgcode.obj
 0001:00030440       ??0SecurityTokenInfo@GostCrypt@@QAE@ABU01@@Z 00431440 f i Dlgcode.obj
 0001:000304e0       ??0SecurityTokenKeyfile@GostCrypt@@QAE@ABU01@@Z 004314e0 f i Dlgcode.obj
 0001:000305a0       ??1?$ContainerForward@V?$basic_string@DU?$char_traits@D@std@@V?$allocator@D@2@@std@@@ForEach@GostCrypt@@UAE@XZ 004315a0 f i Dlgcode.obj
 0001:000305f0       ??1?$ContainerForward@V?$list@KV?$allocator@K@std@@@std@@@ForEach@GostCrypt@@UAE@XZ 004315f0 f i Dlgcode.obj
 0001:00030640       ??1?$ContainerForward@V?$list@USecurityTokenInfo@GostCrypt@@V?$allocator@USecurityTokenInfo@GostCrypt@@@std@@@std@@@ForEach@GostCrypt@@UAE@XZ 00431640 f i Dlgcode.obj
 0001:00030660       ??1?$ContainerForward@V?$list@USecurityTokenKeyfile@GostCrypt@@V?$allocator@USecurityTokenKeyfile@GostCrypt@@@std@@@std@@@ForEach@GostCrypt@@UAE@XZ 00431660 f i Dlgcode.obj
 0001:00030680       ??1?$ContainerForward@V?$vector@USecurityTokenKeyfile@GostCrypt@@V?$allocator@USecurityTokenKeyfile@GostCrypt@@@std@@@std@@@ForEach@GostCrypt@@UAE@XZ 00431680 f i Dlgcode.obj
 0001:000306a0       ??1?$auto_ptr@UGetPinFunctor@GostCrypt@@@std@@QAE@XZ 004316a0 f i Dlgcode.obj
 0001:000306a0       ??1?$auto_ptr@USendExceptionFunctor@GostCrypt@@@std@@QAE@XZ 004316a0 f i Dlgcode.obj
 0001:000306b0       ??1?$list@KV?$allocator@K@std@@@std@@QAE@XZ 004316b0 f i Dlgcode.obj
 0001:000306f0       ??1?$list@USecurityTokenInfo@GostCrypt@@V?$allocator@USecurityTokenInfo@GostCrypt@@@std@@@std@@QAE@XZ 004316f0 f i Dlgcode.obj
 0001:00030710       ??1?$list@USecurityTokenKeyfile@GostCrypt@@V?$allocator@USecurityTokenKeyfile@GostCrypt@@@std@@@std@@QAE@XZ 00431710 f i Dlgcode.obj
 0001:00030730       ??1?$vector@EV?$allocator@E@std@@@std@@QAE@XZ 00431730 f i Dlgcode.obj
 0001:00030790       ??1NewSecurityTokenKeyfileDlgProcParams@@QAE@XZ 00431790 f i Dlgcode.obj
 0001:000307d0       ??1SecurityTokenInfo@GostCrypt@@QAE@XZ 004317d0 f i Dlgcode.obj
 0001:00030840       ??1SecurityTokenKeyfile@GostCrypt@@QAE@XZ 00431840 f i Dlgcode.obj
 0001:000308c0       ??4?$vector@UHostDevice@@V?$allocator@UHostDevice@@@std@@@std@@QAEAAV01@ABV01@@Z 004318c0 f i Dlgcode.obj
 0001:00030aa0       ??4?$vector@USecurityTokenKeyfile@GostCrypt@@V?$allocator@USecurityTokenKeyfile@GostCrypt@@@std@@@std@@QAEAAV01@$$QAV01@@Z 00431aa0 f i Dlgcode.obj
 0001:00030ae0       ??4HostDevice@@QAEAAU0@ABU0@@Z 00431ae0 f i Dlgcode.obj
 0001:00030b90       ??6?$basic_ostream@DU?$char_traits@D@std@@@std@@QAEAAV01@K@Z 00431b90 f i Dlgcode.obj
 0001:00030dd0       ??6?$basic_ostream@DU?$char_traits@D@std@@@std@@QAEAAV01@P6AAAVios_base@1@AAV21@@Z@Z 00431dd0 f i Dlgcode.obj
 0001:00030e00       ??6?$basic_ostream@DU?$char_traits@D@std@@@std@@QAEAAV01@_K@Z 00431e00 f i Dlgcode.obj
 0001:00031050       ??6?$basic_ostream@_WU?$char_traits@_W@std@@@std@@QAEAAV01@K@Z 00432050 f i Dlgcode.obj
 0001:00031290       ??F?$_Tree_unchecked_const_iterator@V?$_Tree_val@U?$_Tree_simple_types@U?$pair@$$CBKUPkcs11Session@GostCrypt@@@std@@@std@@@std@@U_Iterator_base0@2@@std@@QAEAAV01@XZ 00432290 f i SecurityToken.obj
 0001:00031290       ??F?$_Tree_unchecked_const_iterator@V?$_Tree_val@U?$_Tree_simple_types@U?$pair@$$CBV?$basic_string@DU?$char_traits@D@std@@V?$allocator@D@2@@std@@PAX@std@@@std@@@std@@U_Iterator_base0@2@@std@@QAEAAV01@XZ 00432290 f i Dictionary.obj
 0001:00031290       ??F?$_Tree_unchecked_const_iterator@V?$_Tree_val@U?$_Tree_simple_types@U?$pair@$$CBHPAX@std@@@std@@@std@@U_Iterator_base0@2@@std@@QAEAAV01@XZ 00432290 f i Dictionary.obj
 0001:00031290       ??F?$_Tree_unchecked_const_iterator@V?$_Tree_val@U?$_Tree_simple_types@U?$pair@$$CBHUHostDevice@@@std@@@std@@@std@@U_Iterator_base0@2@@std@@QAEAAV01@XZ 00432290 f i Dlgcode.obj
 0001:00031370       ??_G?$ContainerForward@V?$basic_string@DU?$char_traits@D@std@@V?$allocator@D@2@@std@@@ForEach@GostCrypt@@UAEPAXI@Z 00432370 f i Dlgcode.obj
 0001:00031370       ??_E?$ContainerForward@V?$basic_string@DU?$char_traits@D@std@@V?$allocator@D@2@@std@@@ForEach@GostCrypt@@UAEPAXI@Z 00432370 f i Dlgcode.obj
 0001:000313d0       ??_E?$ContainerForward@V?$list@KV?$allocator@K@std@@@std@@@ForEach@GostCrypt@@UAEPAXI@Z 004323d0 f i Dlgcode.obj
 0001:000313d0       ??_G?$ContainerForward@V?$list@KV?$allocator@K@std@@@std@@@ForEach@GostCrypt@@UAEPAXI@Z 004323d0 f i Dlgcode.obj
 0001:00031400       ??_G?$ContainerForward@V?$list@USecurityTokenInfo@GostCrypt@@V?$allocator@USecurityTokenInfo@GostCrypt@@@std@@@std@@@ForEach@GostCrypt@@UAEPAXI@Z 00432400 f i Dlgcode.obj
 0001:00031400       ??_E?$ContainerForward@V?$list@USecurityTokenInfo@GostCrypt@@V?$allocator@USecurityTokenInfo@GostCrypt@@@std@@@std@@@ForEach@GostCrypt@@UAEPAXI@Z 00432400 f i Dlgcode.obj
 0001:00031440       ??_G?$ContainerForward@V?$list@USecurityTokenKeyfile@GostCrypt@@V?$allocator@USecurityTokenKeyfile@GostCrypt@@@std@@@std@@@ForEach@GostCrypt@@UAEPAXI@Z 00432440 f i Dlgcode.obj
 0001:00031440       ??_E?$ContainerForward@V?$list@USecurityTokenKeyfile@GostCrypt@@V?$allocator@USecurityTokenKeyfile@GostCrypt@@@std@@@std@@@ForEach@GostCrypt@@UAEPAXI@Z 00432440 f i Dlgcode.obj
 0001:00031480       ??_E?$ContainerForward@V?$vector@USecurityTokenKeyfile@GostCrypt@@V?$allocator@USecurityTokenKeyfile@GostCrypt@@@std@@@std@@@ForEach@GostCrypt@@UAEPAXI@Z 00432480 f i Dlgcode.obj
 0001:00031480       ??_G?$ContainerForward@V?$vector@USecurityTokenKeyfile@GostCrypt@@V?$allocator@USecurityTokenKeyfile@GostCrypt@@@std@@@std@@@ForEach@GostCrypt@@UAEPAXI@Z 00432480 f i Dlgcode.obj
 0001:000314b0       ??_EPinRequestHandler@?1??InitSecurityTokenLibrary@@YAHXZ@UAEPAXI@Z 004324b0 f i Dlgcode.obj
 0001:000314b0       ??_EGetPinFunctor@GostCrypt@@UAEPAXI@Z 004324b0 f i Dlgcode.obj
 0001:000314b0       ??_GPinRequestHandler@?1??InitSecurityTokenLibrary@@YAHXZ@UAEPAXI@Z 004324b0 f i Dlgcode.obj
 0001:000314b0       ??_GGetPinFunctor@GostCrypt@@UAEPAXI@Z 004324b0 f i Dlgcode.obj
 0001:000314e0       ??_GWarningHandler@?1??InitSecurityTokenLibrary@@YAHXZ@UAEPAXI@Z 004324e0 f i Dlgcode.obj
 0001:000314e0       ??_GSendExceptionFunctor@GostCrypt@@UAEPAXI@Z 004324e0 f i Dlgcode.obj
 0001:000314e0       ??_EWarningHandler@?1??InitSecurityTokenLibrary@@YAHXZ@UAEPAXI@Z 004324e0 f i Dlgcode.obj
 0001:000314e0       ??_ESendExceptionFunctor@GostCrypt@@UAEPAXI@Z 004324e0 f i Dlgcode.obj
 0001:00031510       ?AuxiliaryDlgProc@@YGHPAUHWND__@@IIJ@Z 00432510 f   Dlgcode.obj
 0001:000316e0       ?BrowseFilesInDir@@YAHPAUHWND__@@PAD11HHPA_WPB_W3@Z 004326e0 f   Dlgcode.obj
 0001:00031ff0       ?ExceptionHandler@@YGJPAU_EXCEPTION_POINTERS@@@Z 00432ff0 f   Dlgcode.obj
 0001:00032090       ?ExceptionHandlerThread@@YAXPAX@Z 00433090 f   Dlgcode.obj
 0001:00032df0       ?GetAvailableHostDevices@@YA?AV?$vector@UHostDevice@@V?$allocator@UHostDevice@@@std@@@std@@_N000@Z 00433df0 f   Dlgcode.obj
 0001:00033be0       ?GetDecoyOsInstructionsString@@YA?AV?$basic_string@_WU?$char_traits@_W@std@@V?$allocator@_W@2@@std@@XZ 00434be0 f   Dlgcode.obj
 0001:00034210       ?GetRescueDiskHelpString@@YA?AV?$basic_string@_WU?$char_traits@_W@std@@V?$allocator@_W@2@@std@@XZ 00435210 f   Dlgcode.obj
 0001:00034510       ?GetServiceConfigPath@@YA?AV?$basic_string@DU?$char_traits@D@std@@V?$allocator@D@2@@std@@PBD@Z 00435510 f   Dlgcode.obj
 0001:00034680       ?GetSysDevicePaths@@YAHPAUHWND__@@@Z 00435680 f   Dlgcode.obj
 0001:00034cf0       ?GetSysEncryptionPretestInfo2String@@YA?AV?$basic_string@_WU?$char_traits@_W@std@@V?$allocator@_W@2@@std@@XZ 00435cf0 f   Dlgcode.obj
 0001:00034e70       ?GetWindowsEdition@@YA?AV?$basic_string@DU?$char_traits@D@std@@V?$allocator@D@2@@std@@XZ 00435e70 f   Dlgcode.obj
 0001:00035580       ?GetWrongPasswordErrorMessage@@YA?AV?$basic_string@_WU?$char_traits@_W@std@@V?$allocator@_W@2@@std@@PAUHWND__@@@Z 00436580 f   Dlgcode.obj
 0001:00035680       ?HarddiskVolumePathToPartitionPath@@YA?AV?$basic_string@DU?$char_traits@D@std@@V?$allocator@D@2@@std@@ABV12@@Z 00436680 f   Dlgcode.obj
 0001:00035ab0       ?InvalidParameterHandler@@YAXPB_W00II@Z 00436ab0 f   Dlgcode.obj
 0001:00035ac0       ?IsNotEnd@?$ContainerForward@V?$basic_string@DU?$char_traits@D@std@@V?$allocator@D@2@@std@@@ForEach@GostCrypt@@UBE_NXZ 00436ac0 f i Dlgcode.obj
 0001:000362d0       ?Next@?$ContainerForward@V?$basic_string@DU?$char_traits@D@std@@V?$allocator@D@2@@std@@@ForEach@GostCrypt@@UBEXXZ 004372d0 f i Dlgcode.obj
 0001:000362e0       ?Next@?$ContainerForward@V?$list@KV?$allocator@K@std@@@std@@@ForEach@GostCrypt@@UBEXXZ 004372e0 f i Dlgcode.obj
 0001:000362e0       ?Next@?$ContainerForward@V?$list@USecurityTokenInfo@GostCrypt@@V?$allocator@USecurityTokenInfo@GostCrypt@@@std@@@std@@@ForEach@GostCrypt@@UBEXXZ 004372e0 f i Dlgcode.obj
 0001:000362e0       ?Next@?$ContainerForward@V?$list@UPartition@GostCrypt@@V?$allocator@UPartition@GostCrypt@@@std@@@std@@@ForEach@GostCrypt@@UBEXXZ 004372e0 f i BootEncryption.obj
 0001:000362e0       ?Next@?$ContainerForward@V?$list@USecurityTokenKeyfilePath@GostCrypt@@V?$allocator@USecurityTokenKeyfilePath@GostCrypt@@@std@@@std@@@ForEach@GostCrypt@@UBEXXZ 004372e0 f i Keyfiles.obj
 0001:000362e0       ?Next@?$ContainerForward@V?$list@USecurityTokenKeyfile@GostCrypt@@V?$allocator@USecurityTokenKeyfile@GostCrypt@@@std@@@std@@@ForEach@GostCrypt@@UBEXXZ 004372e0 f i Dlgcode.obj
 0001:00037300       ?SingleStringToWide@@YA?AV?$basic_string@_WU?$char_traits@_W@std@@V?$allocator@_W@2@@std@@ABV?$basic_string@DU?$char_traits@D@std@@V?$allocator@D@2@@2@@Z 00438300 f   Dlgcode.obj
 0001:000373e0       ?ToUpperCase@@YA?AV?$basic_string@DU?$char_traits@D@std@@V?$allocator@D@2@@std@@ABV12@@Z 004383e0 f   Dlgcode.obj
 0001:000375d0       ?Utf8StringToWide@@YA?AV?$basic_string@_WU?$char_traits@_W@std@@V?$allocator@_W@2@@std@@ABV?$basic_string@DU?$char_traits@D@std@@V?$allocator@D@2@@2@@Z 004385d0 f   Dlgcode.obj
 0001:000376b0       ?VolumeGuidPathToDevicePath@@YA?AV?$basic_string@DU?$char_traits@D@std@@V?$allocator@D@2@@std@@V12@@Z 004386b0 f   Dlgcode.obj
 0001:00037960       ?WideToSingleString@@YA?AV?$basic_string@DU?$char_traits@D@std@@V?$allocator@D@2@@std@@ABV?$basic_string@_WU?$char_traits@_W@std@@V?$allocator@_W@2@@2@@Z 00438960 f   Dlgcode.obj
 0001:00037a40       ?WideToUtf8String@@YA?AV?$basic_string@DU?$char_traits@D@std@@V?$allocator@D@2@@std@@ABV?$basic_string@_WU?$char_traits@_W@std@@V?$allocator@_W@2@@2@@Z 00438a40 f   Dlgcode.obj
 0001:00037b20       ?_Buy@?$vector@UHostDevice@@V?$allocator@UHostDevice@@@std@@@std@@IAE_NI@Z 00438b20 f i Dlgcode.obj
 0001:00037b80       ?_Buyheadnode@?$_Tree_comp_alloc@V?$_Tmap_traits@HUHostDevice@@U?$less@H@std@@V?$allocator@U?$pair@$$CBHUHostDevice@@@std@@@3@$0A@@std@@@std@@QAEPAU?$_Tree_node@U?$pair@$$CBHUHostDevice@@@std@@PAX@2@XZ 00438b80 f i Dlgcode.obj
 0001:00037bb0       ?_Buynode0@?$_List_alloc@U?$_List_base_types@KV?$allocator@K@std@@@std@@@std@@QAEPAU?$_List_node@KPAX@2@PAU32@0@Z 00438bb0 f i Dlgcode.obj
 0001:00037bf0       ?_Buynode0@?$_List_alloc@U?$_List_base_types@USecurityTokenInfo@GostCrypt@@V?$allocator@USecurityTokenInfo@GostCrypt@@@std@@@std@@@std@@QAEPAU?$_List_node@USecurityTokenInfo@GostCrypt@@PAX@2@PAU32@0@Z 00438bf0 f i Dlgcode.obj
 0001:00037c30       ?_Buynode0@?$_List_alloc@U?$_List_base_types@USecurityTokenKeyfilePath@GostCrypt@@V?$allocator@USecurityTokenKeyfilePath@GostCrypt@@@std@@@std@@@std@@QAEPAU?$_List_node@USecurityTokenKeyfilePath@GostCrypt@@PAX@2@PAU32@0@Z 00438c30 f i Dlgcode.obj
 0001:00037c70       ?_Buynode0@?$_Tree_comp_alloc@V?$_Tmap_traits@HUHostDevice@@U?$less@H@std@@V?$allocator@U?$pair@$$CBHUHostDevice@@@std@@@3@$0A@@std@@@std@@QAEPAU?$_Tree_node@U?$pair@$$CBHUHostDevice@@@std@@PAX@2@XZ 00438c70 f i Dlgcode.obj
 0001:00037cb0       ?_Destroy@?$vector@UHostDevice@@V?$allocator@UHostDevice@@@std@@@std@@IAEXPAUHostDevice@@0@Z 00438cb0 f i Dlgcode.obj
 0001:00037ce0       ?_Destroy_if_not_nil@?$_Tree@V?$_Tmap_traits@HUHostDevice@@U?$less@H@std@@V?$allocator@U?$pair@$$CBHUHostDevice@@@std@@@3@$0A@@std@@@std@@IAEXPAU?$_Tree_node@U?$pair@$$CBHUHostDevice@@@std@@PAX@2@@Z 00438ce0 f i Dlgcode.obj
 0001:00037d00       ?_Erase@?$_Tree@V?$_Tmap_traits@HUHostDevice@@U?$less@H@std@@V?$allocator@U?$pair@$$CBHUHostDevice@@@std@@@3@$0A@@std@@@std@@IAEXPAU?$_Tree_node@U?$pair@$$CBHUHostDevice@@@std@@PAX@2@@Z 00438d00 f i Dlgcode.obj
 0001:00037d40       ?_Tidy@?$list@KV?$allocator@K@std@@@std@@QAEXXZ 00438d40 f i Dlgcode.obj
 0001:00037d80       ?_Tidy@?$vector@EV?$allocator@E@std@@@std@@IAEXXZ 00438d80 f i Dlgcode.obj
 0001:00037df0       ?_Tidy@?$vector@USecurityTokenKeyfile@GostCrypt@@V?$allocator@USecurityTokenKeyfile@GostCrypt@@@std@@@std@@IAEXXZ 00438df0 f i Dlgcode.obj
 0001:00037e50       ?_Unchecked_erase@?$list@KV?$allocator@K@std@@@std@@QAEXV?$_List_unchecked_const_iterator@V?$_List_val@U?$_List_simple_types@K@std@@@std@@U_Iterator_base0@2@@2@@Z 00438e50 f i Dlgcode.obj
 0001:00037e80       ?_Unchecked_erase@?$list@USecurityTokenInfo@GostCrypt@@V?$allocator@USecurityTokenInfo@GostCrypt@@@std@@@std@@QAEXV?$_List_unchecked_const_iterator@V?$_List_val@U?$_List_simple_types@USecurityTokenInfo@GostCrypt@@@std@@@std@@U_Iterator_base0@2@@2@@Z 00438e80 f i Dlgcode.obj
 0001:00037ec0       ?_Unchecked_erase@?$list@USecurityTokenKeyfile@GostCrypt@@V?$allocator@USecurityTokenKeyfile@GostCrypt@@@std@@@std@@QAEXV?$_List_unchecked_const_iterator@V?$_List_val@U?$_List_simple_types@USecurityTokenKeyfile@GostCrypt@@@std@@@std@@U_Iterator_base0@2@@2@@Z 00438ec0 f i Dlgcode.obj
 0001:00037f00       ?_open@@YAHQBDHH@Z         00438f00 f i Dlgcode.obj
 0001:00037f30       ?allocate@?$allocator@UHostDevice@@@std@@QAEPAUHostDevice@@I@Z 00438f30 f i Gstformat.obj
 0001:00037f30       ?allocate@?$allocator@USecurityTokenKeyfile@GostCrypt@@@std@@QAEPAUSecurityTokenKeyfile@GostCrypt@@I@Z 00438f30 f i Dlgcode.obj
 0001:00037fa0       ?clear@?$list@USecurityTokenInfo@GostCrypt@@V?$allocator@USecurityTokenInfo@GostCrypt@@@std@@@std@@QAEXXZ 00438fa0 f i Dlgcode.obj
 0001:000380b0       ?clear@?$list@USecurityTokenKeyfile@GostCrypt@@V?$allocator@USecurityTokenKeyfile@GostCrypt@@@std@@@std@@QAEXXZ 004390b0 f i Dlgcode.obj
 0001:000380f0       ?dec@std@@YAAAVios_base@1@AAV21@@Z 004390f0 f i Dlgcode.obj
 0001:00038110       ?erase@?$_Tree@V?$_Tmap_traits@HUHostDevice@@U?$less@H@std@@V?$allocator@U?$pair@$$CBHUHostDevice@@@std@@@3@$0A@@std@@@std@@QAE?AV?$_Tree_iterator@V?$_Tree_val@U?$_Tree_simple_types@U?$pair@$$CBHUHostDevice@@@std@@@std@@@std@@@2@V?$_Tree_const_iterator@V?$_Tree_val@U?$_Tree_simple_types@U?$pair@$$CBHUHostDevice@@@std@@@std@@@std@@@2@0@Z 00439110 f i Dlgcode.obj
 0001:00038200       ?erase@?$_Tree@V?$_Tmap_traits@HUHostDevice@@U?$less@H@std@@V?$allocator@U?$pair@$$CBHUHostDevice@@@std@@@3@$0A@@std@@@std@@QAE?AV?$_Tree_iterator@V?$_Tree_val@U?$_Tree_simple_types@U?$pair@$$CBHUHostDevice@@@std@@@std@@@std@@@2@V?$_Tree_const_iterator@V?$_Tree_val@U?$_Tree_simple_types@U?$pair@$$CBHUHostDevice@@@std@@@std@@@std@@@2@@Z 00439200 f i Dlgcode.obj
 0001:00038490       ?find@?$_Tree@V?$_Tmap_traits@HUHostDevice@@U?$less@H@std@@V?$allocator@U?$pair@$$CBHUHostDevice@@@std@@@3@$0A@@std@@@std@@QAE?AV?$_Tree_iterator@V?$_Tree_val@U?$_Tree_simple_types@U?$pair@$$CBHUHostDevice@@@std@@@std@@@std@@@2@ABH@Z 00439490 f i Dlgcode.obj
 0001:000384e0       ?hex@std@@YAAAVios_base@1@AAV21@@Z 004394e0 f i Dlgcode.obj
 0001:00038500       ?push_back@?$list@KV?$allocator@K@std@@@std@@QAEXABK@Z 00439500 f i Dlgcode.obj
 0001:00038550       _AbortProcess              00439550 f   Dlgcode.obj
 0001:00038580       _AbortProcessSilent        00439580 f   Dlgcode.obj
 0001:00038590       _AboutDlgProc@16           00439590 f   Dlgcode.obj
 0001:000387c0       _AccommodateTextField      004397c0 f   Dlgcode.obj
 0001:00038a70       _AddComboPair              00439a70 f   Dlgcode.obj
 0001:00038aa0       _AddComboPairW             00439aa0 f   Dlgcode.obj
 0001:00038ad0       _ArrowWaitCursor           00439ad0 f   Dlgcode.obj
 0001:00038b00       _AskErrYesNo               00439b00 f   Dlgcode.obj
 0001:00038b40       _AskMultiChoice            00439b40 f   Dlgcode.obj
 0001:00038b80       _AskNoYes                  00439b80 f   Dlgcode.obj
 0001:00038bc0       _AskNonSysInPlaceEncryptionResume 00439bc0 f   Dlgcode.obj
 0001:00038cb0       _AskWarnNoYes              00439cb0 f   Dlgcode.obj
 0001:00038cf0       _AskWarnOkCancel           00439cf0 f   Dlgcode.obj
 0001:00038d30       _AskWarnYesNo              00439d30 f   Dlgcode.obj
 0001:00038d70       _AskWarnYesNoString        00439d70 f   Dlgcode.obj
 0001:00038da0       _AskWarnYesNoStringTopmost 00439da0 f   Dlgcode.obj
 0001:00038dd0       _AskYesNo                  00439dd0 f   Dlgcode.obj
 0001:00038e10       _BenchmarkDlgProc@16       00439e10 f   Dlgcode.obj
 0001:00039510       _BroadcastDeviceChange     0043a510 f   Dlgcode.obj
 0001:000396f0       _BrowseDirectories         0043a6f0 f   Dlgcode.obj
 0001:00039790       _BrowseFiles               0043a790 f   Dlgcode.obj
 0001:000397c0       _BufferContainsString      0043a7c0 f   Dlgcode.obj
 0001:00039860       _CheckButton               0043a860 f   Dlgcode.obj
 0001:00039880       _CheckCapsLock             0043a880 f   Dlgcode.obj
 0001:000398c0       _CheckFileExtension        0043a8c0 f   Dlgcode.obj
 0001:00039920       _CheckFileStreamWriteErrors 0043a920 f   Dlgcode.obj
 0001:000399c0       _CheckFilesystem           0043a9c0 f   Dlgcode.obj
 0001:00039ad0       _CipherTestDialogProc@16   0043aad0 f   Dlgcode.obj
 0001:0003a680       _CleanLastVisitedMRU       0043b680 f   Dlgcode.obj
 0001:0003a980       _ClearHistory              0043b980 f   Dlgcode.obj
 0001:0003aa00       _CloseDriverSetupMutex     0043ba00 f   Dlgcode.obj
 0001:0003aa40       _CloseNonSysInplaceEncMutex 0043ba40 f   Dlgcode.obj
 0001:0003aa80       _CloseStaticModelessWaitDlg 0043ba80 f   Dlgcode.obj
 0001:0003aaa0       _CloseSysEncMutex          0043baa0 f   Dlgcode.obj
 0001:0003aae0       _CloseVolume               0043bae0 f   Dlgcode.obj
 0001:0003ab40       _CloseVolumeExplorerWindows 0043bb40 f   Dlgcode.obj
 0001:0003ac60       _CompensateDPIFont         0043bc60 f   Dlgcode.obj
 0001:0003ace0       _CompensateXDPI            0043bce0 f   Dlgcode.obj
 0001:0003ad50       _CompensateYDPI            0043bd50 f   Dlgcode.obj
 0001:0003adc0       _ConfigReadInt             0043bdc0 f   Dlgcode.obj
 0001:0003ae20       _ConfigReadString          0043be20 f   Dlgcode.obj
 0001:0003ae50       _ConfigWriteBegin          0043be50 f   Dlgcode.obj
 0001:0003aef0       _ConfigWriteEnd            0043bef0 f   Dlgcode.obj
 0001:0003b050       _ConfigWriteInt            0043c050 f   Dlgcode.obj
 0001:0003b0f0       _ConfigWriteString         0043c0f0 f   Dlgcode.obj
 0001:0003b150       _CreateDriverSetupMutex    0043c150 f   Dlgcode.obj
 0001:0003b1b0       _CreateFullVolumePath      0043c1b0 f   Dlgcode.obj
 0001:0003b210       _CreateNonSysInplaceEncMutex 0043c210 f   Dlgcode.obj
 0001:0003b270       _CreateSysEncMutex         0043c270 f   Dlgcode.obj
 0001:0003b2d0       _CustomDlgProc@16          0043c2d0 f   Dlgcode.obj
 0001:0003b300       _DisableFileCompression    0043c300 f   Dlgcode.obj
 0001:0003b370       _DismountDrive             0043c370 f   Dlgcode.obj
 0001:0003b4e0       _DisplayStaticModelessWaitDlg 0043c4e0 f   Dlgcode.obj
 0001:0003b530       _DoDriverInstall           0043c530 f   Dlgcode.obj
 0001:0003b610       _DriverAttach              0043c610 f   Dlgcode.obj
 0001:0003ba10       _DriverUnload              0043ca10 f   Dlgcode.obj
 0001:0003bc20       _Error                     0043cc20 f   Dlgcode.obj
 0001:0003bc60       _ErrorDirect               0043cc60 f   Dlgcode.obj
 0001:0003bc90       _Extlink                   0043cc90 f   Dlgcode.obj
 0001:0003bd50       _FakeDosNameForDevice      0043cd50 f   Dlgcode.obj
 0001:0003bda0       _FileExists                0043cda0 f   Dlgcode.obj
 0001:0003be50       _FileHasReadOnlyAttribute  0043ce50 f   Dlgcode.obj
 0001:0003be70       _FileSystemAppearsEmpty    0043ce70 f   Dlgcode.obj
 0001:0003bef0       _FindString                0043cef0 f   Dlgcode.obj
 0001:0003bff0       _GSTFlushFile              0043cff0 f   Dlgcode.obj
 0001:0003c030       _GetCheckBox               0043d030 f   Dlgcode.obj
 0001:0003c060       _GetConfigPath             0043d060 f   Dlgcode.obj
 0001:0003c160       _GetDeviceInfo             0043d160 f   Dlgcode.obj
 0001:0003c1b0       _GetDeviceSize             0043d1b0 f   Dlgcode.obj
 0001:0003c250       _GetDiskDeviceDriveLetter  0043d250 f   Dlgcode.obj
 0001:0003c410       _GetDriveGeometry          0043d410 f   Dlgcode.obj
 0001:0003c4b0       _GetDriveLabel             0043d4b0 f   Dlgcode.obj
 0001:0003c510       _GetDriverRefCount         0043d510 f   Dlgcode.obj
 0001:0003c550       _GetFirstAvailableDrive    0043d550 f   Dlgcode.obj
 0001:0003c580       _GetLastAvailableDrive     0043d580 f   Dlgcode.obj
 0001:0003c5b0       _GetLegalNotices           0043d5b0 f   Dlgcode.obj
 0001:0003c630       _GetPartitionInfo          0043d630 f   Dlgcode.obj
 0001:0003c6c0       _GetPathType               0043d6c0 f   Dlgcode.obj
 0001:0003c770       _GetSizeString             0043d770 f   Dlgcode.obj
 0001:0003c9c0       _GetSpeedString            0043d9c0 f   Dlgcode.obj
 0001:0003cc10       _GetStatsFreeSpaceOnPartition 0043dc10 f   Dlgcode.obj
 0001:0003cde0       _GetSystemDriveLetter      0043dde0 f   Dlgcode.obj
 0001:0003ce40       _GetTextGfxHeight          0043de40 f   Dlgcode.obj
 0001:0003cea0       _GetTextGfxWidth           0043dea0 f   Dlgcode.obj
 0001:0003cf30       _GetWipeModeName           0043df30 f   Dlgcode.obj
 0001:0003cfb0       _HandleDriveNotReadyError  0043dfb0 f   Dlgcode.obj
 0001:0003d090       _InconsistencyResolved     0043e090 f   Dlgcode.obj
 0001:0003d100       _Info                      0043e100 f   Dlgcode.obj
 0001:0003d140       _InitApp                   0043e140 f   Dlgcode.obj
 0001:0003d6c0       _InitDialog                0043e6c0 f   Dlgcode.obj
 0001:0003dad0       _InitHelpFileName          0043ead0 f   Dlgcode.obj
 0001:0003dc10       _InitOSVersionInfo         0043ec10 f   Dlgcode.obj
 0001:0003de50       _InitSecurityTokenLibrary  0043ee50 f   Dlgcode.obj
 0001:0003dfb0       _InstanceHasSysEncMutex    0043efb0 f   Dlgcode.obj
 0001:0003dfc0       _Is64BitOs                 0043efc0 f   Dlgcode.obj
 0001:0003e030       _IsAdmin                   0043f030 f   Dlgcode.obj
 0001:0003e040       _IsBuiltInAdmin            0043f040 f   Dlgcode.obj
 0001:0003e120       _IsButtonChecked           0043f120 f   Dlgcode.obj
 0001:0003e140       _IsDeviceMounted           0043f140 f   Dlgcode.obj
 0001:0003e1a0       _IsDiskError               0043f1a0 f   Dlgcode.obj
 0001:0003e1e0       _IsDiskReadError           0043f1e0 f   Dlgcode.obj
 0001:0003e220       _IsFileOnReadOnlyFilesystem 0043f220 f   Dlgcode.obj
 0001:0003e2a0       _IsGostCryptInstallerRunning 0043f2a0 f   Dlgcode.obj
 0001:0003e2f0       _IsHiddenOSRunning         0043f2f0 f   Dlgcode.obj
 0001:0003e3a0       _IsMountedVolume           0043f3a0 f   Dlgcode.obj
 0001:0003e560       _IsNonInstallMode          0043f560 f   Dlgcode.obj
 0001:0003e710       _IsOSAtLeast               0043f710 f   Dlgcode.obj
 0001:0003e730       _IsOSVersionAtLeast        0043f730 f   Dlgcode.obj
 0001:0003e7e0       _IsPagingFileActive        0043f7e0 f   Dlgcode.obj
 0001:0003eaa0       _IsPagingFileWildcardActive 0043faa0 f   Dlgcode.obj
 0001:0003eb60       _IsServerOS                0043fb60 f   Dlgcode.obj
 0001:0003ebc0       _IsSystemDevicePath        0043fbc0 f   Dlgcode.obj
 0001:0003ece0       _IsUacSupported            0043fce0 f   Dlgcode.obj
 0001:0003ed90       _IsWindowsIsoBurnerAvailable 0043fd90 f   Dlgcode.obj
 0001:0003ee60       _KeyfileGeneratorDlgProc@16 0043fe60 f   Dlgcode.obj
 0001:0003f430       _LaunchWindowsIsoBurner    00440430 f   Dlgcode.obj
 0001:0003f550       _LeftPadString             00440550 f   Dlgcode.obj
 0001:0003f5a0       _LoadDefaultKeyFilesParam  004405a0 f   Dlgcode.obj
 0001:0003f670       _LoadFile                  00440670 f   Dlgcode.obj
 0001:0003f700       _LoadNonSysInPlaceEncSettings 00440700 f   Dlgcode.obj
 0001:0003f7c0       _LoadSysEncSettings        004407c0 f   Dlgcode.obj
 0001:0003f950       _LocalizeDialog            00440950 f   Dlgcode.obj
 0001:0003f9c0       _ManageStartupSeq          004409c0 f   Dlgcode.obj
 0001:0003fb50       _ManageStartupSeqWiz       00440b50 f   Dlgcode.obj
 0001:0003fc60       _MapResource               00440c60 f   Dlgcode.obj
 0001:0003fcb0       _MountVolume               00440cb0 f   Dlgcode.obj
 0001:00040940       _MultiChoiceDialogProc@16  00441940 f   Dlgcode.obj
 0001:000410f0       _NonSysInplaceEncInProgressElsewhere 004420f0 f   Dlgcode.obj
 0001:00041140       _NormalCursor              00442140 f   Dlgcode.obj
 0001:00041170       _OpenDevice                00442170 f   Dlgcode.obj
 0001:00041210       _OpenPageHelp              00442210 f   Dlgcode.obj
 0001:000412a0       _OpenVolume                004422a0 f   Dlgcode.obj
 0001:00041740       _OpenVolumeExplorerWindow  00442740 f   Dlgcode.obj
 0001:000417b0       _PopulateWipeModeCombo     004427b0 f   Dlgcode.obj
 0001:000418d0       _PrintHardCopyTextUTF16    004428d0 f   Dlgcode.obj
 0001:00041c60       _ProcessPaintMessages      00442c60 f   Dlgcode.obj
 0001:00041cc0       _RawDevicesDlgProc@16      00442cc0 f   Dlgcode.obj
 0001:00042960       _ReadDriverConfigurationFlags 00443960 f   Dlgcode.obj
 0001:00042960       ?ReadDriverConfigurationFlags@BootEncryption@GostCrypt@@QAEIXZ 00443960 f   BootEncryption.obj
 0001:00042990       _ReadEncryptionThreadPoolFreeCpuCountLimit 00443990 f   Dlgcode.obj
 0001:000429c0       _RedTick@16                004439c0 f   Dlgcode.obj
 0001:00042b90       _RegisterRedTick           00443b90 f   Dlgcode.obj
 0001:00042c10       _RelativePath2Absolute     00443c10 f   Dlgcode.obj
 0001:00042d00       _RemoveDeviceWriteProtection 00443d00 f   Dlgcode.obj
 0001:00042ee0       _RemoveFakeDosName         00443ee0 f   Dlgcode.obj
 0001:00042f00       _RemoveNonSysInPlaceEncNotifications 00443f00 f   Dlgcode.obj
 0001:00042fa0       _RenderBitmap              00443fa0 f   Dlgcode.obj
 0001:00043160       _ReportUnexpectedState     00444160 f   Dlgcode.obj
 0001:000431d0       _ResetCipherTest           004441d0 f   Dlgcode.obj
 0001:000435f0       _ResetCurrentDirectory     004445f0 f   Dlgcode.obj
 0001:00043670       _ResolveSymbolicLink       00444670 f   Dlgcode.obj
 0001:00043720       _RestartComputer           00444720 f   Dlgcode.obj
 0001:000437c0       _RestoreDefaultKeyFilesParam 004447c0 f   Dlgcode.obj
 0001:00043800       _SaveBufferToFile          00444800 f   Dlgcode.obj
 0001:000438c0       _SecurityTokenKeyfileDlgProc@16 004448c0 f   Dlgcode.obj
 0001:000445b0       _SecurityTokenPasswordDlgProc@16 004455b0 f   Dlgcode.obj
 0001:000448a0       _SelectAlgo                004458a0 f   Dlgcode.obj
 0001:00044920       _SelectMultipleFiles       00445920 f   Dlgcode.obj
 0001:00044b20       _SelectMultipleFilesNext   00445b20 f   Dlgcode.obj
 0001:00044bf0       _SetCheckBox               00445bf0 f   Dlgcode.obj
 0001:00044c20       _SplashDlgProc@16          00445c20 f   Dlgcode.obj
 0001:00044cd0       _TextInfoDialogBox         00445cd0 f   Dlgcode.obj
 0001:00044d00       _TextInfoDialogBoxDlgProc@16 00445d00 f   Dlgcode.obj
 0001:000450d0       _ToBootPwdField            004460d0 f   Dlgcode.obj
 0001:00045110       _ToHyperlink               00446110 f   Dlgcode.obj
 0001:00045170       _ToUNICODE                 00446170 f   Dlgcode.obj
 0001:00045210       _UnmountVolume             00446210 f   Dlgcode.obj
 0001:000453b0       _UnregisterRedTick         004463b0 f   Dlgcode.obj
 0001:000453d0       _UpperCaseCopy             004463d0 f   Dlgcode.obj
 0001:00045420       _UserEnrichRandomPool      00446420 f   Dlgcode.obj
 0001:00045470       _WaitCursor                00446470 f   Dlgcode.obj
 0001:000454a0       _Warning                   004464a0 f   Dlgcode.obj
 0001:000454e0       _WarningDirect             004464e0 f   Dlgcode.obj
 0001:00045510       __snprintf                 00446510 f i Dlgcode.obj
 0001:00045550       _cleanup                   00446550 f   Dlgcode.obj
 0001:00045700       _err_malloc                00446700 f   Dlgcode.obj
 0001:00045720       _handleError               00446720 f   Dlgcode.obj
 0001:00045af0       _handleWin32Error          00446af0 f   Dlgcode.obj
 0001:00045bc0       _swscanf_s                 00446bc0 f i Dlgcode.obj
 0001:00045bf0       _translateWin32Error       00446bf0 f   Dlgcode.obj
 0001:00045c40       _EncryptionThreadPoolBeginKeyDerivation 00446c40 f   EncryptionThreadPool.obj
 0001:00045d30       _EncryptionThreadPoolDoWork 00446d30 f   EncryptionThreadPool.obj
 0001:00045f40       _EncryptionThreadPoolStart 00446f40 f   EncryptionThreadPool.obj
 0001:000460c0       _EncryptionThreadPoolStop  004470c0 f   EncryptionThreadPool.obj
 0001:00046350       _GetEncryptionThreadCount  00447350 f   EncryptionThreadPool.obj
 0001:00046360       _GetMaxEncryptionThreadCount 00447360 f   EncryptionThreadPool.obj
 0001:00046370       _MirrorBytes16             00447370 f   Endian.obj
 0001:00046390       _MirrorBytes32             00447390 f   Endian.obj
 0001:000463c0       _MirrorBytes64             004473c0 f   Endian.obj
 0001:00046460       _FormatFat                 00447460 f   Fat.obj
 0001:00046b50       _GetFatParams              00447b50 f   Fat.obj
 0001:00046e40       _PutBoot                   00447e40 f   Fat.obj
 0001:00047030       _FlushFormatWriteBuffer    00448030 f   Format.obj
 0001:00047150       _FormatExCallback@12       00448150 f   Format.obj
 0001:00047170       _FormatNoFs                00448170 f   Format.obj
 0001:00047590       _FormatNtfs                00448590 f   Format.obj
 0001:00047770       _GSTFormatVolume           00448770 f   Format.obj
 0001:00048590       _GetVolumeDataAreaSize     00449590 f   Format.obj
 0001:00048730       _WriteSector               00449730 f   Format.obj
 0001:000487d0       ??$GetContainerForward@V?$list@USecurityTokenKeyfilePath@GostCrypt@@V?$allocator@USecurityTokenKeyfilePath@GostCrypt@@@std@@@std@@@ForEach@GostCrypt@@SA?AU?$ContainerForward@V?$list@USecurityTokenKeyfilePath@GostCrypt@@V?$allocator@USecurityTokenKeyfilePath@GostCrypt@@@std@@@std@@@01@ABV?$list@USecurityTokenKeyfilePath@GostCrypt@@V?$allocator@USecurityTokenKeyfilePath@GostCrypt@@@std@@@std@@@Z 004497d0 f i Keyfiles.obj
 0001:00048840       ??$_Buynode@ABUSecurityTokenKeyfilePath@GostCrypt@@@?$_List_buy@USecurityTokenKeyfilePath@GostCrypt@@V?$allocator@USecurityTokenKeyfilePath@GostCrypt@@@std@@@std@@QAEPAU?$_List_node@USecurityTokenKeyfilePath@GostCrypt@@PAX@1@PAU21@0ABUSecurityTokenKeyfilePath@GostCrypt@@@Z 00449840 f i Keyfiles.obj
 0001:000488f0       ??$_Insert_range@V?$_List_const_iterator@V?$_List_val@U?$_List_simple_types@USecurityTokenKeyfilePath@GostCrypt@@@std@@@std@@@std@@@?$list@USecurityTokenKeyfilePath@GostCrypt@@V?$allocator@USecurityTokenKeyfilePath@GostCrypt@@@std@@@std@@QAEXV?$_List_unchecked_const_iterator@V?$_List_val@U?$_List_simple_types@USecurityTokenKeyfilePath@GostCrypt@@@std@@@std@@U_Iterator_base0@2@@1@V?$_List_const_iterator@V?$_List_val@U?$_List_simple_types@USecurityTokenKeyfilePath@GostCrypt@@@std@@@std@@@1@1Uforward_iterator_tag@1@@Z 004498f0 f i Keyfiles.obj
 0001:000489c0       ??0?$list@USecurityTokenKeyfilePath@GostCrypt@@V?$allocator@USecurityTokenKeyfilePath@GostCrypt@@@std@@@std@@QAE@ABV01@@Z 004499c0 f i Keyfiles.obj
 0001:00048a60       ??0?$list@USecurityTokenKeyfilePath@GostCrypt@@V?$allocator@USecurityTokenKeyfilePath@GostCrypt@@@std@@@std@@QAE@XZ 00449a60 f i Keyfiles.obj
 0001:00048aa0       ??BSecurityTokenKeyfilePath@GostCrypt@@QBE?AV?$basic_string@_WU?$char_traits@_W@std@@V?$allocator@_W@2@@std@@XZ 00449aa0 f i Keyfiles.obj
 0001:00048ae0       ??_G?$ContainerForward@V?$list@USecurityTokenKeyfilePath@GostCrypt@@V?$allocator@USecurityTokenKeyfilePath@GostCrypt@@@std@@@std@@@ForEach@GostCrypt@@UAEPAXI@Z 00449ae0 f i Keyfiles.obj
 0001:00048ae0       ??_E?$ContainerForward@V?$list@USecurityTokenKeyfilePath@GostCrypt@@V?$allocator@USecurityTokenKeyfilePath@GostCrypt@@@std@@@std@@@ForEach@GostCrypt@@UAEPAXI@Z 00449ae0 f i Keyfiles.obj
 0001:00048b20       ?IsNotEnd@?$ContainerForward@V?$list@USecurityTokenKeyfile@GostCrypt@@V?$allocator@USecurityTokenKeyfile@GostCrypt@@@std@@@std@@@ForEach@GostCrypt@@UBE_NXZ 00449b20 f i Dlgcode.obj
 0001:00048b20       ?IsNotEnd@?$ContainerForward@V?$list@USecurityTokenInfo@GostCrypt@@V?$allocator@USecurityTokenInfo@GostCrypt@@@std@@@std@@@ForEach@GostCrypt@@UBE_NXZ 00449b20 f i Dlgcode.obj
 0001:00048b20       ?IsNotEnd@?$ContainerForward@V?$list@USecurityTokenKeyfilePath@GostCrypt@@V?$allocator@USecurityTokenKeyfilePath@GostCrypt@@@std@@@std@@@ForEach@GostCrypt@@UBE_NXZ 00449b20 f i Keyfiles.obj
 0001:00048b20       ?IsNotEnd@?$ContainerForward@V?$list@UPartition@GostCrypt@@V?$allocator@UPartition@GostCrypt@@@std@@@std@@@ForEach@GostCrypt@@UBE_NXZ 00449b20 f i BootEncryption.obj
 0001:00048b20       ?IsNotEnd@?$ContainerForward@V?$list@KV?$allocator@K@std@@@std@@@ForEach@GostCrypt@@UBE_NXZ 00449b20 f i Dlgcode.obj
 0001:00048b20       ?IsNotEnd@?$ContainerForward@V?$map@KUPkcs11Session@GostCrypt@@U?$less@K@std@@V?$allocator@U?$pair@$$CBKUPkcs11Session@GostCrypt@@@std@@@4@@std@@@ForEach@GostCrypt@@UBE_NXZ 00449b20 f i SecurityToken.obj
 0001:00048ed0       ?_Unchecked_erase@?$list@USecurityTokenKeyfilePath@GostCrypt@@V?$allocator@USecurityTokenKeyfilePath@GostCrypt@@@std@@@std@@QAEXV?$_List_unchecked_const_iterator@V?$_List_val@U?$_List_simple_types@USecurityTokenKeyfilePath@GostCrypt@@@std@@@std@@U_Iterator_base0@2@@2@@Z 00449ed0 f i Keyfiles.obj
 0001:00048f30       ?clear@?$list@USecurityTokenKeyfilePath@GostCrypt@@V?$allocator@USecurityTokenKeyfilePath@GostCrypt@@@std@@@std@@QAEXXZ 00449f30 f i Keyfiles.obj
 0001:00048fd0       _KeyFileAdd                00449fd0 f   Keyfiles.obj
 0001:00049030       _KeyFileCloneAll           0044a030 f   Keyfiles.obj
 0001:00049100       _KeyFileRemoveAll          0044a100 f   Keyfiles.obj
 0001:00049160       _KeyFilesApply             0044a160 f   Keyfiles.obj
 0001:000499d0       _KeyFilesDlgProc@16        0044a9d0 f   Keyfiles.obj
 0001:00049fc0       _GetActiveLangPackVersion  0044afc0 f   Language.obj
 0001:00049fd0       _GetFont                   0044afd0 f   Language.obj
 0001:00049fe0       _GetPreferredLangId        0044afe0 f   Language.obj
 0001:00049ff0       _GetString                 0044aff0 f   Language.obj
 0001:0004a020       _LanguageDlgProc@16        0044b020 f   Language.obj
 0001:0004a590       _LoadLanguageFile          0044b590 f   Language.obj
 0001:0004afd0       _SetPreferredLangId        0044bfd0 f   Language.obj
 0001:0004aff0       __swprintf                 0044bff0 f i Language.obj
 0001:0004b020       _CheckPasswordCharEncoding 0044c020 f   Password.obj
 0001:0004b100       _CheckPasswordLength       0044c100 f   Password.obj
 0001:0004b150       _VerifyPasswordAndUpdate   0044c150 f   Password.obj
 0001:0004b2d0       _derive_key_gosthash       0044c2d0 f   Pkcs5.obj
 0001:0004b3d0       _derive_key_stribog        0044c3d0 f   Pkcs5.obj
 0001:0004b4e0       _derive_key_whirlpool      0044c4e0 f   Pkcs5.obj
 0001:0004b5f0       _derive_u_gosthash         0044c5f0 f   Pkcs5.obj
 0001:0004b770       _derive_u_stribog          0044c770 f   Pkcs5.obj
 0001:0004b940       _derive_u_whirlpool        0044c940 f   Pkcs5.obj
 0001:0004bb10       _get_pkcs5_iteration_count 0044cb10 f   Pkcs5.obj
 0001:0004bb40       _hmac_gosthash             0044cb40 f   Pkcs5.obj
 0001:0004be90       _hmac_stribog              0044ce90 f   Pkcs5.obj
 0001:0004c200       _hmac_whirlpool            0044d200 f   Pkcs5.obj
 0001:0004c5e0       _InitProgressBar           0044d5e0 f   Progress.obj
 0001:0004c6b0       _UpdateProgressBar         0044d6b0 f   Progress.obj
 0001:0004c6d0       _UpdateProgressBarProc     0044d6d0 f   Progress.obj
 0001:0004cba0       _FastPoll                  0044dba0 f   Random.obj
 0001:0004cea0       _IsRandomNumberGeneratorStarted 0044dea0 f   Random.obj
 0001:0004ceb0       _IsRandomPoolEnrichedByUser 0044deb0 f   Random.obj
 0001:0004cec0       _KeyboardProc@12           0044dec0 f   Random.obj
 0001:0004d010       _MouseProc@12              0044e010 f   Random.obj
 0001:0004d500       _RandAddInt                0044e500 f   Random.obj
 0001:0004d610       _RandGetHashFunction       0044e610 f   Random.obj
 0001:0004d620       _RandSetHashFunction       0044e620 f   Random.obj
 0001:0004d650       _RandStop                  0044e650 f   Random.obj
 0001:0004d7a0       _RandaddBuf                0044e7a0 f   Random.obj
 0001:0004dad0       _RandgetBytes              0044ead0 f   Random.obj
 0001:0004dc20       _Randinit                  0044ec20 f   Random.obj
 0001:0004dd80       _Randmix                   0044ed80 f   Random.obj
 0001:0004e050       _RandpeekBytes             0044f050 f   Random.obj
 0001:0004e0b0       _SetRandomPoolEnrichedByUserStatus 0044f0b0 f   Random.obj
 0001:0004e0c0       _SlowPoll                  0044f0c0 f   Random.obj
 0001:0004e390       _DeleteLocalMachineRegistryKey 0044f390 f   Registry.obj
 0001:0004e400       _DeleteRegistryValue       0044f400 f   Registry.obj
 0001:0004e450       _GetStartupRegKeyName      0044f450 f   Registry.obj
 0001:0004e470       _ReadLocalMachineRegistryDword 0044f470 f   Registry.obj
 0001:0004e4e0       _ReadLocalMachineRegistryMultiString 0044f4e0 f   Registry.obj
 0001:0004e550       _ReadLocalMachineRegistryString 0044f550 f   Registry.obj
 0001:0004e5c0       _ReadRegistryBytes         0044f5c0 f   Registry.obj
 0001:0004e630       _ReadRegistryString        0044f630 f   Registry.obj
 0001:0004e710       _WriteLocalMachineRegistryDword 0044f710 f   Registry.obj
 0001:0004e790       _WriteLocalMachineRegistryMultiString 0044f790 f   Registry.obj
 0001:0004e810       _WriteLocalMachineRegistryString 0044f810 f   Registry.obj
 0001:0004e8b0       _WriteRegistryBytes        0044f8b0 f   Registry.obj
 0001:0004e920       _WriteRegistryString       0044f920 f   Registry.obj
 0001:0004e990       ??$?0U?$_Wrap_alloc@V?$allocator@U?$_Tree_node@U?$pair@$$CBKUPkcs11Session@GostCrypt@@@std@@PAX@std@@@std@@@std@@@?$_Tree@V?$_Tmap_traits@KUPkcs11Session@GostCrypt@@U?$less@K@std@@V?$allocator@U?$pair@$$CBKUPkcs11Session@GostCrypt@@@std@@@4@$0A@@std@@@std@@QAE@ABV01@$$QAU?$_Wrap_alloc@V?$allocator@U?$_Tree_node@U?$pair@$$CBKUPkcs11Session@GostCrypt@@@std@@PAX@std@@@std@@@1@@Z 0044f990 f i SecurityToken.obj
 0001:0004ea20       ??$?H_WU?$char_traits@_W@std@@V?$allocator@_W@1@@std@@YA?AV?$basic_string@_WU?$char_traits@_W@std@@V?$allocator@_W@2@@0@PB_W$$QAV10@@Z 0044fa20 f i SecurityToken.obj
 0001:0004ea80       ??$GetContainerForward@V?$map@KUPkcs11Session@GostCrypt@@U?$less@K@std@@V?$allocator@U?$pair@$$CBKUPkcs11Session@GostCrypt@@@std@@@4@@std@@@ForEach@GostCrypt@@SA?AU?$ContainerForward@V?$map@KUPkcs11Session@GostCrypt@@U?$less@K@std@@V?$allocator@U?$pair@$$CBKUPkcs11Session@GostCrypt@@@std@@@4@@std@@@01@ABV?$map@KUPkcs11Session@GostCrypt@@U?$less@K@std@@V?$allocator@U?$pair@$$CBKUPkcs11Session@GostCrypt@@@std@@@4@@std@@@Z 0044fa80 f i SecurityToken.obj
 0001:0004eb00       ??$GetContainerForward@V?$vector@KV?$allocator@K@std@@@std@@@ForEach@GostCrypt@@SA?AU?$ContainerForward@V?$vector@KV?$allocator@K@std@@@std@@@01@ABV?$vector@KV?$allocator@K@std@@@std@@@Z 0044fb00 f i SecurityToken.obj
 0001:0004eb70       ??$_Buynode@AAU?$pair@$$CBKUPkcs11Session@GostCrypt@@@std@@@?$_Tree_comp_alloc@V?$_Tmap_traits@KUPkcs11Session@GostCrypt@@U?$less@K@std@@V?$allocator@U?$pair@$$CBKUPkcs11Session@GostCrypt@@@std@@@4@$0A@@std@@@std@@QAEPAU?$_Tree_node@U?$pair@$$CBKUPkcs11Session@GostCrypt@@@std@@PAX@1@AAU?$pair@$$CBKUPkcs11Session@GostCrypt@@@1@@Z 0044fb70 f i SecurityToken.obj
 0001:0004eba0       ??$_Buynode@ABUpiecewise_construct_t@std@@V?$tuple@ABK@2@V?$tuple@$$V@2@@?$_Tree_comp_alloc@V?$_Tmap_traits@KUPkcs11Session@GostCrypt@@U?$less@K@std@@V?$allocator@U?$pair@$$CBKUPkcs11Session@GostCrypt@@@std@@@4@$0A@@std@@@std@@QAEPAU?$_Tree_node@U?$pair@$$CBKUPkcs11Session@GostCrypt@@@std@@PAX@1@ABUpiecewise_construct_t@1@$$QAV?$tuple@ABK@1@$$QAV?$tuple@$$V@1@@Z 0044fba0 f i SecurityToken.obj
 0001:0004ebd0       ??$_Buynode@USecurityTokenInfo@GostCrypt@@@?$_List_buy@USecurityTokenInfo@GostCrypt@@V?$allocator@USecurityTokenInfo@GostCrypt@@@std@@@std@@QAEPAU?$_List_node@USecurityTokenInfo@GostCrypt@@PAX@1@PAU21@0$$QAUSecurityTokenInfo@GostCrypt@@@Z 0044fbd0 f i SecurityToken.obj
 0001:0004ec40       ??$_Copy@U_Copy_tag@?$_Tree@V?$_Tmap_traits@KUPkcs11Session@GostCrypt@@U?$less@K@std@@V?$allocator@U?$pair@$$CBKUPkcs11Session@GostCrypt@@@std@@@4@$0A@@std@@@std@@@?$_Tree@V?$_Tmap_traits@KUPkcs11Session@GostCrypt@@U?$less@K@std@@V?$allocator@U?$pair@$$CBKUPkcs11Session@GostCrypt@@@std@@@4@$0A@@std@@@std@@IAEXABV01@U_Copy_tag@01@@Z 0044fc40 f i SecurityToken.obj
 0001:0004ecc0       ??$_Copy_nodes@U_Copy_tag@?$_Tree@V?$_Tmap_traits@KUPkcs11Session@GostCrypt@@U?$less@K@std@@V?$allocator@U?$pair@$$CBKUPkcs11Session@GostCrypt@@@std@@@4@$0A@@std@@@std@@@?$_Tree@V?$_Tmap_traits@KUPkcs11Session@GostCrypt@@U?$less@K@std@@V?$allocator@U?$pair@$$CBKUPkcs11Session@GostCrypt@@@std@@@4@$0A@@std@@@std@@IAEPAU?$_Tree_node@U?$pair@$$CBKUPkcs11Session@GostCrypt@@@std@@PAX@1@PAU21@0U_Copy_tag@01@@Z 0044fcc0 f i SecurityToken.obj
 0001:0004ed80       ??$_Insert_at@AAU?$pair@$$CBKUPkcs11Session@GostCrypt@@@std@@PAU?$_Tree_node@U?$pair@$$CBKUPkcs11Session@GostCrypt@@@std@@PAX@2@@?$_Tree@V?$_Tmap_traits@KUPkcs11Session@GostCrypt@@U?$less@K@std@@V?$allocator@U?$pair@$$CBKUPkcs11Session@GostCrypt@@@std@@@4@$0A@@std@@@std@@IAE?AV?$_Tree_iterator@V?$_Tree_val@U?$_Tree_simple_types@U?$pair@$$CBKUPkcs11Session@GostCrypt@@@std@@@std@@@std@@@1@_NPAU?$_Tree_node@U?$pair@$$CBKUPkcs11Session@GostCrypt@@@std@@PAX@1@AAU?$pair@$$CBKUPkcs11Session@GostCrypt@@@1@1@Z 0044fd80 f i SecurityToken.obj
 0001:0004ef20       ??$_Insert_hint@AAU?$pair@$$CBKUPkcs11Session@GostCrypt@@@std@@PAU?$_Tree_node@U?$pair@$$CBKUPkcs11Session@GostCrypt@@@std@@PAX@2@@?$_Tree@V?$_Tmap_traits@KUPkcs11Session@GostCrypt@@U?$less@K@std@@V?$allocator@U?$pair@$$CBKUPkcs11Session@GostCrypt@@@std@@@4@$0A@@std@@@std@@IAE?AV?$_Tree_iterator@V?$_Tree_val@U?$_Tree_simple_types@U?$pair@$$CBKUPkcs11Session@GostCrypt@@@std@@@std@@@std@@@1@V?$_Tree_const_iterator@V?$_Tree_val@U?$_Tree_simple_types@U?$pair@$$CBKUPkcs11Session@GostCrypt@@@std@@@std@@@std@@@1@AAU?$pair@$$CBKUPkcs11Session@GostCrypt@@@1@PAU?$_Tree_node@U?$pair@$$CBKUPkcs11Session@GostCrypt@@@std@@PAX@1@@Z 0044ff20 f i SecurityToken.obj
 0001:0004f110       ??$_Insert_nohint@AAU?$pair@$$CBKUPkcs11Session@GostCrypt@@@std@@PAU?$_Tree_node@U?$pair@$$CBKUPkcs11Session@GostCrypt@@@std@@PAX@2@@?$_Tree@V?$_Tmap_traits@KUPkcs11Session@GostCrypt@@U?$less@K@std@@V?$allocator@U?$pair@$$CBKUPkcs11Session@GostCrypt@@@std@@@4@$0A@@std@@@std@@IAE?AU?$pair@V?$_Tree_iterator@V?$_Tree_val@U?$_Tree_simple_types@U?$pair@$$CBKUPkcs11Session@GostCrypt@@@std@@@std@@@std@@@std@@_N@1@_NAAU?$pair@$$CBKUPkcs11Session@GostCrypt@@@1@PAU?$_Tree_node@U?$pair@$$CBKUPkcs11Session@GostCrypt@@@std@@PAX@1@@Z 00450110 f i SecurityToken.obj
 0001:0004f230       ??$_Try_emplace@ABK$$V@?$map@KUPkcs11Session@GostCrypt@@U?$less@K@std@@V?$allocator@U?$pair@$$CBKUPkcs11Session@GostCrypt@@@std@@@4@@std@@QAE?AU?$pair@V?$_Tree_iterator@V?$_Tree_val@U?$_Tree_simple_types@U?$pair@$$CBKUPkcs11Session@GostCrypt@@@std@@@std@@@std@@@std@@_N@1@ABK@Z 00450230 f i SecurityToken.obj
 0001:0004f2c0       ??$_Uninitialized_move_al_unchecked1@PAUSecurityTokenKeyfile@GostCrypt@@PAU12@V?$allocator@USecurityTokenKeyfile@GostCrypt@@@std@@@std@@YAPAUSecurityTokenKeyfile@GostCrypt@@PAU12@00AAU?$_Wrap_alloc@V?$allocator@USecurityTokenKeyfile@GostCrypt@@@std@@@0@U_General_ptr_iterator_tag@0@U_Any_tag@0@@Z 004502c0 f i SecurityToken.obj
 0001:0004f300       ??0?$vector@KV?$allocator@K@std@@@std@@QAE@ABV01@@Z 00450300 f i SecurityToken.obj
 0001:0004f390       ??0?$vector@KV?$allocator@K@std@@@std@@QAE@I@Z 00450390 f i SecurityToken.obj
 0001:0004f400       ??0InvalidSecurityTokenKeyfilePath@GostCrypt@@QAE@ABU01@@Z 00450400 f i SecurityToken.obj
 0001:0004f410       ??0Pkcs11Exception@GostCrypt@@QAE@ABU01@@Z 00450410 f i SecurityToken.obj
 0001:0004f440       ??0SecurityTokenKeyfile@GostCrypt@@QAE@$$QAU01@@Z 00450440 f i SecurityToken.obj
 0001:0004f4e0       ??0SecurityTokenKeyfile@GostCrypt@@QAE@ABUSecurityTokenKeyfilePath@1@@Z 004504e0 f   SecurityToken.obj
 0001:0004f6f0       ??0SecurityTokenKeyfileAlreadyExists@GostCrypt@@QAE@ABU01@@Z 004506f0 f i SecurityToken.obj
 0001:0004f700       ??0SecurityTokenKeyfileNotFound@GostCrypt@@QAE@ABU01@@Z 00450700 f i SecurityToken.obj
 0001:0004f710       ??0SecurityTokenLibraryNotInitialized@GostCrypt@@QAE@ABU01@@Z 00450710 f i SecurityToken.obj
 0001:0004f720       ??1?$ContainerForward@V?$map@KUPkcs11Session@GostCrypt@@U?$less@K@std@@V?$allocator@U?$pair@$$CBKUPkcs11Session@GostCrypt@@@std@@@4@@std@@@ForEach@GostCrypt@@UAE@XZ 00450720 f i SecurityToken.obj
 0001:0004f760       ??1?$ContainerForward@V?$vector@KV?$allocator@K@std@@@std@@@ForEach@GostCrypt@@UAE@XZ 00450760 f i SecurityToken.obj
 0001:0004f7a0       ??1?$_List_buy@KV?$allocator@K@std@@@std@@QAE@XZ 004507a0 f i Dlgcode.obj
 0001:0004f7a0       ??1?$_List_buy@USecurityTokenInfo@GostCrypt@@V?$allocator@USecurityTokenInfo@GostCrypt@@@std@@@std@@QAE@XZ 004507a0 f i Dlgcode.obj
 0001:0004f7a0       ??1?$_List_buy@UPartition@GostCrypt@@V?$allocator@UPartition@GostCrypt@@@std@@@std@@QAE@XZ 004507a0 f i BootEncryption.obj
 0001:0004f7a0       ??1?$_List_buy@USecurityTokenKeyfile@GostCrypt@@V?$allocator@USecurityTokenKeyfile@GostCrypt@@@std@@@std@@QAE@XZ 004507a0 f i Dlgcode.obj
 0001:0004f7a0       ??1?$_Tree_comp_alloc@V?$_Tmap_traits@KUPkcs11Session@GostCrypt@@U?$less@K@std@@V?$allocator@U?$pair@$$CBKUPkcs11Session@GostCrypt@@@std@@@4@$0A@@std@@@std@@QAE@XZ 004507a0 f i SecurityToken.obj
 0001:0004f7a0       ??1?$_List_buy@USecurityTokenKeyfilePath@GostCrypt@@V?$allocator@USecurityTokenKeyfilePath@GostCrypt@@@std@@@std@@QAE@XZ 004507a0 f i Keyfiles.obj
 0001:0004f7b0       ??1?$vector@KV?$allocator@K@std@@@std@@QAE@XZ 004507b0 f i SecurityToken.obj
 0001:0004f7e0       ??1?$vector@USecurityTokenKeyfile@GostCrypt@@V?$allocator@USecurityTokenKeyfile@GostCrypt@@@std@@@std@@QAE@XZ 004507e0 f i SecurityToken.obj
 0001:0004f8f0       ??4?$basic_string@_WU?$char_traits@_W@std@@V?$allocator@_W@2@@std@@QAEAAV01@$$QAV01@@Z 004508f0 f i SecurityToken.obj
 0001:0004f970       ??4?$vector@EV?$allocator@E@std@@@std@@QAEAAV01@$$QAV01@@Z 00450970 f i SecurityToken.obj
 0001:0004f9b0       ??4SecurityTokenInfo@GostCrypt@@QAEAAU01@$$QAU01@@Z 004509b0 f i SecurityToken.obj
 0001:0004fa90       ??4SecurityTokenKeyfile@GostCrypt@@QAEAAU01@ABU01@@Z 00450a90 f i SecurityToken.obj
 0001:0004fb10       ??6?$basic_ostream@_WU?$char_traits@_W@std@@@std@@QAEAAV01@_K@Z 00450b10 f i SecurityToken.obj
 0001:0004fd50       ??BPkcs11Exception@GostCrypt@@QBE?AV?$basic_string@DU?$char_traits@D@std@@V?$allocator@D@2@@std@@XZ 00450d50 f   SecurityToken.obj
 0001:0004ff90       ??BSecurityTokenKeyfile@GostCrypt@@QBE?AUSecurityTokenKeyfilePath@1@XZ 00450f90 f   SecurityToken.obj
 0001:000501c0       ??_G?$ContainerForward@V?$map@KUPkcs11Session@GostCrypt@@U?$less@K@std@@V?$allocator@U?$pair@$$CBKUPkcs11Session@GostCrypt@@@std@@@4@@std@@@ForEach@GostCrypt@@UAEPAXI@Z 004511c0 f i SecurityToken.obj
 0001:000501c0       ??_E?$ContainerForward@V?$map@KUPkcs11Session@GostCrypt@@U?$less@K@std@@V?$allocator@U?$pair@$$CBKUPkcs11Session@GostCrypt@@@std@@@4@@std@@@ForEach@GostCrypt@@UAEPAXI@Z 004511c0 f i SecurityToken.obj
 0001:00050210       ??_E?$ContainerForward@V?$vector@KV?$allocator@K@std@@@std@@@ForEach@GostCrypt@@UAEPAXI@Z 00451210 f i SecurityToken.obj
 0001:00050210       ??_G?$ContainerForward@V?$vector@KV?$allocator@K@std@@@std@@@ForEach@GostCrypt@@UAEPAXI@Z 00451210 f i SecurityToken.obj
 0001:00050270       ?CloseAllSessions@SecurityToken@GostCrypt@@SAXXZ 00451270 f   SecurityToken.obj
 0001:00050360       ?CloseLibrary@SecurityToken@GostCrypt@@SAXXZ 00451360 f   SecurityToken.obj
 0001:000503a0       ?CloseSession@SecurityToken@GostCrypt@@KAXK@Z 004513a0 f   SecurityToken.obj
 0001:00050470       ?CreateKeyfile@SecurityToken@GostCrypt@@SAXKAAV?$vector@EV?$allocator@E@std@@@std@@ABV?$basic_string@DU?$char_traits@D@std@@V?$allocator@D@2@@4@@Z 00451470 f   SecurityToken.obj
 0001:00050a60       ?DeleteKeyfile@SecurityToken@GostCrypt@@SAXABUSecurityTokenKeyfile@2@@Z 00451a60 f   SecurityToken.obj
 0001:00050ad0       ?GetAvailableKeyfiles@SecurityToken@GostCrypt@@SA?AV?$vector@USecurityTokenKeyfile@GostCrypt@@V?$allocator@USecurityTokenKeyfile@GostCrypt@@@std@@@std@@PAKV?$basic_string@_WU?$char_traits@_W@std@@V?$allocator@_W@2@@4@@Z 00451ad0 f   SecurityToken.obj
 0001:000512c0       ?GetAvailableTokens@SecurityToken@GostCrypt@@SA?AV?$list@USecurityTokenInfo@GostCrypt@@V?$allocator@USecurityTokenInfo@GostCrypt@@@std@@@std@@XZ 004522c0 f   SecurityToken.obj
 0001:00051610       ?GetKeyfileData@SecurityToken@GostCrypt@@SAXABUSecurityTokenKeyfile@2@AAV?$vector@EV?$allocator@E@std@@@std@@@Z 00452610 f   SecurityToken.obj
 0001:00051640       ?GetObjectAttribute@SecurityToken@GostCrypt@@KAXKKKAAV?$vector@EV?$allocator@E@std@@@std@@@Z 00452640 f   SecurityToken.obj
 0001:00051760       ?GetObjects@SecurityToken@GostCrypt@@KA?AV?$vector@KV?$allocator@K@std@@@std@@KK@Z 00452760 f   SecurityToken.obj
 0001:00051970       ?GetTokenInfo@SecurityToken@GostCrypt@@SA?AUSecurityTokenInfo@2@K@Z 00452970 f   SecurityToken.obj
 0001:00051b90       ?GetTokenSlots@SecurityToken@GostCrypt@@KA?AV?$list@KV?$allocator@K@std@@@std@@XZ 00452b90 f   SecurityToken.obj
 0001:00051d40       ?InitLibrary@SecurityToken@GostCrypt@@SAXABV?$basic_string@DU?$char_traits@D@std@@V?$allocator@D@2@@std@@V?$auto_ptr@UGetPinFunctor@GostCrypt@@@4@V?$auto_ptr@USendExceptionFunctor@GostCrypt@@@4@@Z 00452d40 f   SecurityToken.obj
 0001:00051ec0       ?IsKeyfilePathValid@SecurityToken@GostCrypt@@SA_NABV?$basic_string@_WU?$char_traits@_W@std@@V?$allocator@_W@2@@std@@@Z 00452ec0 f   SecurityToken.obj
 0001:00051ee0       ?IsNotEnd@?$ContainerForward@V?$vector@USecurityTokenKeyfile@GostCrypt@@V?$allocator@USecurityTokenKeyfile@GostCrypt@@@std@@@std@@@ForEach@GostCrypt@@UBE_NXZ 00452ee0 f i Dlgcode.obj
 0001:00051ee0       ?IsNotEnd@?$ContainerForward@V?$vector@UHostDevice@@V?$allocator@UHostDevice@@@std@@@std@@@ForEach@GostCrypt@@UBE_NXZ 00452ee0 f i Gstformat.obj
 0001:00051ee0       ?IsNotEnd@?$ContainerForward@V?$vector@KV?$allocator@K@std@@@std@@@ForEach@GostCrypt@@UBE_NXZ 00452ee0 f i SecurityToken.obj
 0001:00051f00       ?Login@SecurityToken@GostCrypt@@KAXKABV?$basic_string@DU?$char_traits@D@std@@V?$allocator@D@2@@std@@@Z 00452f00 f   SecurityToken.obj
 0001:00051fe0       ?LoginUserIfRequired@SecurityToken@GostCrypt@@KAXK@Z 00452fe0 f   SecurityToken.obj
 0001:00052530       ?Next@?$ContainerForward@V?$map@KUPkcs11Session@GostCrypt@@U?$less@K@std@@V?$allocator@U?$pair@$$CBKUPkcs11Session@GostCrypt@@@std@@@4@@std@@@ForEach@GostCrypt@@UBEXXZ 00453530 f i SecurityToken.obj
 0001:00052540       ?Next@?$ContainerForward@V?$vector@KV?$allocator@K@std@@@std@@@ForEach@GostCrypt@@UBEXXZ 00453540 f i SecurityToken.obj
 0001:00052550       ?OpenSession@SecurityToken@GostCrypt@@KAXK@Z 00453550 f   SecurityToken.obj
 0001:00052630       ?Show@InvalidSecurityTokenKeyfilePath@GostCrypt@@UBEXPAUHWND__@@@Z 00453630 f i SecurityToken.obj
 0001:00052640       ?Show@Pkcs11Exception@GostCrypt@@UBEXPAUHWND__@@@Z 00453640 f   SecurityToken.obj
 0001:00052b10       ?Show@SecurityTokenKeyfileAlreadyExists@GostCrypt@@UBEXPAUHWND__@@@Z 00453b10 f i SecurityToken.obj
 0001:00052b20       ?Show@SecurityTokenKeyfileNotFound@GostCrypt@@UBEXPAUHWND__@@@Z 00453b20 f i SecurityToken.obj
 0001:00052b30       ?Show@SecurityTokenLibraryNotInitialized@GostCrypt@@UBEXPAUHWND__@@@Z 00453b30 f i SecurityToken.obj
 0001:00052b50       ?_Buyheadnode@?$_Tree_comp_alloc@V?$_Tmap_traits@KUPkcs11Session@GostCrypt@@U?$less@K@std@@V?$allocator@U?$pair@$$CBKUPkcs11Session@GostCrypt@@@std@@@4@$0A@@std@@@std@@QAEPAU?$_Tree_node@U?$pair@$$CBKUPkcs11Session@GostCrypt@@@std@@PAX@2@XZ 00453b50 f i SecurityToken.obj
 0001:00052b80       ?_Buynode0@?$_Tree_comp_alloc@V?$_Tmap_traits@KUPkcs11Session@GostCrypt@@U?$less@K@std@@V?$allocator@U?$pair@$$CBKUPkcs11Session@GostCrypt@@@std@@@4@$0A@@std@@@std@@QAEPAU?$_Tree_node@U?$pair@$$CBKUPkcs11Session@GostCrypt@@@std@@PAX@2@XZ 00453b80 f i SecurityToken.obj
 0001:00052bc0       ?_Reallocate@?$vector@EV?$allocator@E@std@@@std@@IAEXI@Z 00453bc0 f i SecurityToken.obj
 0001:00052ca0       ?_Reallocate@?$vector@KV?$allocator@K@std@@@std@@IAEXI@Z 00453ca0 f i SecurityToken.obj
 0001:00052d00       ?_Reallocate@?$vector@USecurityTokenKeyfile@GostCrypt@@V?$allocator@USecurityTokenKeyfile@GostCrypt@@@std@@@std@@IAEXI@Z 00453d00 f i SecurityToken.obj
 0001:00052e00       ?_Reserve@?$vector@EV?$allocator@E@std@@@std@@IAEXI@Z 00453e00 f i SecurityToken.obj
 0001:00052e60       ?_Reserve@?$vector@KV?$allocator@K@std@@@std@@IAEXI@Z 00453e60 f i SecurityToken.obj
 0001:00052ed0       ?_Reserve@?$vector@USecurityTokenKeyfile@GostCrypt@@V?$allocator@USecurityTokenKeyfile@GostCrypt@@@std@@@std@@IAEXI@Z 00453ed0 f i SecurityToken.obj
 0001:00052f70       ?_Rrotate@?$_Tree@V?$_Tmap_traits@KUPkcs11Session@GostCrypt@@U?$less@K@std@@V?$allocator@U?$pair@$$CBKUPkcs11Session@GostCrypt@@@std@@@4@$0A@@std@@@std@@IAEXPAU?$_Tree_node@U?$pair@$$CBKUPkcs11Session@GostCrypt@@@std@@PAX@2@@Z 00453f70 f i SecurityToken.obj
 0001:00052f70       ?_Rrotate@?$_Tree@V?$_Tmap_traits@HUHostDevice@@U?$less@H@std@@V?$allocator@U?$pair@$$CBHUHostDevice@@@std@@@3@$0A@@std@@@std@@IAEXPAU?$_Tree_node@U?$pair@$$CBHUHostDevice@@@std@@PAX@2@@Z 00453f70 f i Dlgcode.obj
 0001:00052f70       ?_Rrotate@?$_Tree@V?$_Tmap_traits@HPAXU?$less@H@std@@V?$allocator@U?$pair@$$CBHPAX@std@@@2@$0A@@std@@@std@@IAEXPAU?$_Tree_node@U?$pair@$$CBHPAX@std@@PAX@2@@Z 00453f70 f i Dictionary.obj
 0001:00052f70       ?_Rrotate@?$_Tree@V?$_Tmap_traits@V?$basic_string@DU?$char_traits@D@std@@V?$allocator@D@2@@std@@PAXU?$less@V?$basic_string@DU?$char_traits@D@std@@V?$allocator@D@2@@std@@@2@V?$allocator@U?$pair@$$CBV?$basic_string@DU?$char_traits@D@std@@V?$allocator@D@2@@std@@PAX@std@@@2@$0A@@std@@@std@@IAEXPAU?$_Tree_node@U?$pair@$$CBV?$basic_string@DU?$char_traits@D@std@@V?$allocator@D@2@@std@@PAX@std@@PAX@2@@Z 00453f70 f i Dictionary.obj
 0001:00052fd0       ?allocate@?$allocator@K@std@@QAEPAKI@Z 00453fd0 f i SecurityToken.obj
 0001:00053040       ?deallocate@?$_Wrap_alloc@V?$allocator@K@std@@@std@@QAEXPAKI@Z 00454040 f i SecurityToken.obj
 0001:000530a0       ?find@?$basic_string@_WU?$char_traits@_W@std@@V?$allocator@_W@2@@std@@QBEIPB_WII@Z 004540a0 f i SecurityToken.obj
 0001:00053190       ?find_last_not_of@?$basic_string@DU?$char_traits@D@std@@V?$allocator@D@2@@std@@QBEIPBDII@Z 00454190 f i SecurityToken.obj
 0001:00053210       ?insert@?$basic_string@_WU?$char_traits@_W@std@@V?$allocator@_W@2@@std@@QAEAAV12@IPB_WI@Z 00454210 f i SecurityToken.obj
 0001:000533b0       ?push_back@?$vector@EV?$allocator@E@std@@@std@@QAEX$$QAE@Z 004543b0 f i SecurityToken.obj
 0001:00053410       ?push_back@?$vector@USecurityTokenKeyfile@GostCrypt@@V?$allocator@USecurityTokenKeyfile@GostCrypt@@@std@@@std@@QAEXABUSecurityTokenKeyfile@GostCrypt@@@Z 00454410 f i SecurityToken.obj
 0001:000534d0       _swscanf                   004544d0 f i SecurityToken.obj
 0001:00053500       _AutoTestAlgorithms        00454500 f   Tests.obj
 0001:000535e0       _CipherInit2               004545e0 f   Tests.obj
 0001:00053620       _TestLegacySectorBufEncryption 00454620 f   Tests.obj
 0001:00053810       _TestSectorBufEncryption   00454810 f   Tests.obj
 0001:00053d30       _test_hmac_gosthash        00454d30 f   Tests.obj
 0001:00053dc0       _test_hmac_stribog         00454dc0 f   Tests.obj
 0001:00053e50       _test_hmac_whirlpool       00454e50 f   Tests.obj
 0001:00053ee0       _test_pkcs5                00454ee0 f   Tests.obj
 0001:00054010       _CreateVolumeHeaderInMemory 00455010 f   Volumes.obj
 0001:00054740       _GetHeaderField32          00455740 f   Volumes.obj
 0001:00054760       _ReadEffectiveVolumeHeader 00455760 f   Volumes.obj
 0001:00054870       _ReadVolumeHeader          00455870 f   Volumes.obj
 0001:000551a0       _WriteEffectiveVolumeHeader 004561a0 f   Volumes.obj
 0001:00055300       _WriteRandomDataToReservedHeaderAreas 00456300 f   Volumes.obj
 0001:000555d0       _GetWipePassCount          004565d0 f   Wipe.obj
 0001:00055790       _WipeBuffer                00456790 f   Wipe.obj
 0001:00055860       _XmlFindElement            00456860 f   Xml.obj
 0001:000558f0       _XmlFindElementByAttributeValue 004568f0 f   Xml.obj
 0001:000559c0       _XmlGetAttributeText       004569c0 f   Xml.obj
 0001:00055b50       _XmlGetNodeText            00456b50 f   Xml.obj
 0001:00055c40       _XmlQuoteText              00456c40 f   Xml.obj
 0001:00055d10       _XmlWriteFooter            00456d10 f   Xml.obj
 0001:00055d30       _XmlWriteHeader            00456d30 f   Xml.obj
 0001:00055d50       _DecryptBufferXTS          00456d50 f   Xts.obj
 0001:00055d90       _DecryptBufferXTS8Byte     00456d90 f   Xts.obj
 0001:00056410       _EncryptBufferXTS          00457410 f   Xts.obj
 0001:00056450       _EncryptBufferXTS8Byte     00457450 f   Xts.obj
 0001:00056ad0       _gost_decrypt              00457ad0 f   crypto:GostCipher.obj
 0001:00056d80       _gost_encrypt              00457d80 f   crypto:GostCipher.obj
 0001:00057020       _gost_set_key              00458020 f   crypto:GostCipher.obj
 0001:00057160       _gost_xor_ks               00458160 f   crypto:GostCipher.obj
 0001:00057320       _F                         00458320 f   crypto:GrasshopperCipher.obj
 0001:000573b0       _L                         004583b0 f   crypto:GrasshopperCipher.obj
 0001:00057420       _L_inv                     00458420 f   crypto:GrasshopperCipher.obj
 0001:00057490       _R                         00458490 f   crypto:GrasshopperCipher.obj
 0001:00057510       _R_inv                     00458510 f   crypto:GrasshopperCipher.obj
 0001:00057590       _S                         00458590 f   crypto:GrasshopperCipher.obj
 0001:00057690       _S_inv                     00458690 f   crypto:GrasshopperCipher.obj
 0001:00057790       _grasshopper_decrypt       00458790 f   crypto:GrasshopperCipher.obj
 0001:00057a60       _grasshopper_encrypt       00458a60 f   crypto:GrasshopperCipher.obj
 0001:00057d30       _grasshopper_set_key       00458d30 f   crypto:GrasshopperCipher.obj
 0001:00059a30       _grasshopper_xor_ks        0045aa30 f   crypto:GrasshopperCipher.obj
 0001:00059c30       _ll                        0045ac30 f   crypto:GrasshopperCipher.obj
 0001:00059ce0       _WHIRLPOOL_add             0045ace0 f   crypto:Whirlpool.obj
 0001:00059ea0       _WHIRLPOOL_finalize        0045aea0 f   crypto:Whirlpool.obj
 0001:0005a320       _WHIRLPOOL_init            0045b320 f   crypto:Whirlpool.obj
 0001:0005bd00       _GOSTHASH_add              0045cd00 f   crypto:GostHash.obj
 0001:0005beb0       _GOSTHASH_finalize         0045ceb0 f   crypto:GostHash.obj
 0001:0005c010       _GOSTHASH_init             0045d010 f   crypto:GostHash.obj
 0001:0005cde0       _STRIBOG_add               0045dde0 f   crypto:Stribog.obj
 0001:0005d110       _STRIBOG_finalize          0045e110 f   crypto:Stribog.obj
 0001:0005d2e0       _STRIBOG_init              0045e2e0 f   crypto:Stribog.obj
 0001:0005d3a0       _g_N                       0045e3a0 f   crypto:Stribog.obj
 0001:0005d412       ??0_Init_locks@std@@QAE@XZ 0045e412 f   libcpmt:xlock.obj
 0001:0005d43f       ??0_Lockit@std@@QAE@H@Z    0045e43f f   libcpmt:xlock.obj
 0001:0005d470       ??1_Init_locks@std@@QAE@XZ 0045e470 f   libcpmt:xlock.obj
 0001:0005d497       ??1_Lockit@std@@QAE@XZ     0045e497 f   libcpmt:xlock.obj
 0001:0005d4b6       ?uncaught_exception@std@@YA_NXZ 0045e4b6 f   libcpmt:uncaught.obj
 0001:0005d4bb       ??0bad_alloc@std@@QAE@XZ   0045e4bb f i libcpmt:xthrow.obj
 0001:0005d4d3       ??0exception@std@@QAE@QBD@Z 0045e4d3 f i libcpmt:xthrow.obj
 0001:0005d50a       ??0length_error@std@@QAE@ABV01@@Z 0045e50a f i libcpmt:xthrow.obj
 0001:0005d525       ??0length_error@std@@QAE@PBD@Z 0045e525 f i libcpmt:xthrow.obj
 0001:0005d546       ??0logic_error@std@@QAE@ABV01@@Z 0045e546 f i libcpmt:xthrow.obj
 0001:0005d561       ??0out_of_range@std@@QAE@ABV01@@Z 0045e561 f i libcpmt:xthrow.obj
 0001:0005d57c       ??0out_of_range@std@@QAE@PBD@Z 0045e57c f i libcpmt:xthrow.obj
 0001:0005d59d       ??_Ebad_array_new_length@std@@UAEPAXI@Z 0045e59d f i LIBCMT:throw_bad_alloc.obj
 0001:0005d59d       ??_Eout_of_range@std@@UAEPAXI@Z 0045e59d f i libcpmt:xthrow.obj
 0001:0005d59d       ??_Gout_of_range@std@@UAEPAXI@Z 0045e59d f i libcpmt:xthrow.obj
 0001:0005d59d       ??_Gbad_array_new_length@std@@UAEPAXI@Z 0045e59d f i LIBCMT:throw_bad_alloc.obj
 0001:0005d59d       ??_Elogic_error@std@@UAEPAXI@Z 0045e59d f i libcpmt:xthrow.obj
 0001:0005d59d       ??_Glength_error@std@@UAEPAXI@Z 0045e59d f i libcpmt:xthrow.obj
 0001:0005d59d       ??_Gbad_exception@std@@UAEPAXI@Z 0045e59d f i libvcruntime:frame.obj
 0001:0005d59d       ??_Ebad_exception@std@@UAEPAXI@Z 0045e59d f i libvcruntime:frame.obj
 0001:0005d59d       ??_Elength_error@std@@UAEPAXI@Z 0045e59d f i libcpmt:xthrow.obj
 0001:0005d59d       ??_Glogic_error@std@@UAEPAXI@Z 0045e59d f i libcpmt:xthrow.obj
 0001:0005d5ca       ?_Xlength_error@std@@YAXPBD@Z 0045e5ca f   libcpmt:xthrow.obj
 0001:0005d5ea       ?_Xout_of_range@std@@YAXPBD@Z 0045e5ea f   libcpmt:xthrow.obj
 0001:0005d60a       __Getctype                 0045e60a f   libcpmt:_tolower.obj
 0001:0005d675       __Tolower                  0045e675 f   libcpmt:_tolower.obj
 0001:0005d76f       __Getcvt                   0045e76f f   libcpmt:xwctomb.obj
 0001:0005d7dc       __Wcrtomb                  0045e7dc f   libcpmt:xwctomb.obj
 0001:0005d83a       __Mbrtowc                  0045e83a f   libcpmt:xmbtowc.obj
 0001:0005d98d       __Getwctype                0045e98d f   libcpmt:xgetwctype.obj
 0001:0005d9b1       __Getwctypes               0045e9b1 f   libcpmt:xgetwctype.obj
 0001:0005d9d0       __Towlower                 0045e9d0 f   libcpmt:xtowlower.obj
 0001:0005da32       __Towupper                 0045ea32 f   libcpmt:xtowupper.obj
 0001:0005da98       ??0_Locimp@locale@std@@AAE@_N@Z 0045ea98 f i libcpmt:locale0.obj
 0001:0005dadb       ??1_Fac_node@std@@QAE@XZ   0045eadb f i libcpmt:locale0.obj
 0001:0005db3a       ??1_Fac_tidy_reg_t@std@@QAE@XZ 0045eb3a f i libcpmt:locale0.obj
 0001:0005db61       ??1_Locimp@locale@std@@MAE@XZ 0045eb61 f i libcpmt:locale0.obj
 0001:0005dbbc       ??4?$_Yarn@D@std@@QAEAAV01@PBD@Z 0045ebbc f i libcpmt:locale0.obj
 0001:0005dc10       ??_G_Locimp@locale@std@@MAEPAXI@Z 0045ec10 f i libcpmt:locale0.obj
 0001:0005dc10       ??_E_Locimp@locale@std@@MAEPAXI@Z 0045ec10 f i libcpmt:locale0.obj
 0001:0005dc32       ?_Facet_Register@std@@YAXPAV_Facet_base@1@@Z 0045ec32 f   libcpmt:locale0.obj
 0001:0005dc60       ?_Getgloballocale@locale@std@@CAPAV_Locimp@12@XZ 0045ec60 f   libcpmt:locale0.obj
 0001:0005dc66       ?_Init@locale@std@@CAPAV_Locimp@12@_N@Z 0045ec66 f   libcpmt:locale0.obj
 0001:0005dcf4       ?_Locimp_dtor@_Locimp@locale@std@@CAXPAV123@@Z 0045ecf4 f   libcpmt:locale0.obj
 0001:0005dd69       ?_Locinfo_ctor@_Locinfo@std@@SAXPAV12@PBD@Z 0045ed69 f   libcpmt:locale0.obj
 0001:0005ddb4       ?_Locinfo_dtor@_Locinfo@std@@SAXPAV12@@Z 0045edb4 f   libcpmt:locale0.obj
 0001:0005ddd6       ?_New_Locimp@_Locimp@locale@std@@CAPAV123@_N@Z 0045edd6 f   libcpmt:locale0.obj
 0001:0005ddfb       ?_Setgloballocale@locale@std@@CAXPAX@Z 0045edfb f   libcpmt:locale0.obj
 0001:0005de23       __Deletegloballocale       0045ee23 f   libcpmt:locale0.obj
 0001:0005de88       ?_Syserror_map@std@@YAPBDH@Z 0045ee88 f   libcpmt:syserror.obj
 0001:0005dead       ?_Addstd@ios_base@std@@SAXPAV12@@Z 0045eead f   libcpmt:ios.obj
 0001:0005defe       ?_Callfns@ios_base@std@@AAEXW4event@12@@Z 0045eefe f i libcpmt:ios.obj
 0001:0005df30       ?_Ios_base_dtor@ios_base@std@@CAXPAV12@@Z 0045ef30 f   libcpmt:ios.obj
 0001:0005df70       ?_Tidy@ios_base@std@@AAEXXZ 0045ef70 f i libcpmt:ios.obj
 0001:0005dfb8       __Toupper                  0045efb8 f   libcpmt:_toupper.obj
 0001:0005e0b2       __Mtxdst                   0045f0b2 f   libcpmt:xmtx.obj
 0001:0005e0c0       __Mtxinit                  0045f0c0 f   libcpmt:xmtx.obj
 0001:0005e0d7       __Mtxlock                  0045f0d7 f   libcpmt:xmtx.obj
 0001:0005e0e5       __Mtxunlock                0045f0e5 f   libcpmt:xmtx.obj
 0001:0005e0f3       ___crtLCMapStringA         0045f0f3 f   libcpmt:StlLCMapStringA.obj
 0001:0005e2f6       __freea_crt                0045f2f6 f i libcpmt:StlLCMapStringA.obj
 0001:0005e314       ___crtLCMapStringW         0045f314 f   libcpmt:StlLCMapStringW.obj
 0001:0005e34e       ??1_Init_atexit@@QAE@XZ    0045f34e f i libcpmt:iosptrs.obj
 0001:0005e3b2       ?_Atexit@@YAXP6AXXZ@Z      0045f3b2 f   libcpmt:iosptrs.obj
 0001:0005e78a       ___crtInitializeCriticalSectionEx 0045f78a f   libcpmt:winapisupp.obj
 0001:0005e7c2       _GetTableIndexFromLocaleName 0045f7c2 f   libcpmt:winapinls.obj
 0001:0005e810       ___crtDownlevelLocaleNameToLCID 0045f810 f   libcpmt:winapinls.obj
 0001:0005e83a       ___crtLCMapStringEx        0045f83a f   libcpmt:winapinls.obj
 0001:0005e890       ___wcsnicmp_ascii          0045f890 f   libcpmt:winapinls.obj
 0001:0005e903       ??3@YAXPAX@Z               0045f903 f   LIBCMT:delete_scalar.obj
 0001:0005e908       ??2@YAPAXI@Z               0045f908 f   LIBCMT:new_scalar.obj
 0001:0005e93b       ??3@YAXPAXI@Z              0045f93b f   LIBCMT:delete_scalar_size.obj
 0001:0005e949       @__security_check_cookie@4 0045f949 f   LIBCMT:_secchk_.obj
 0001:0005e95a       ??_Etype_info@@UAEPAXI@Z   0045f95a f i LIBCMT:std_type_info_static.obj
 0001:0005e95a       ??_Gtype_info@@UAEPAXI@Z   0045f95a f i LIBCMT:std_type_info_static.obj
 0001:0005e97d       ??$__crt_fast_encode_pointer@PAP6AXXZ@@YAPAP6AXXZQAP6AXXZ@Z 0045f97d f i LIBCMT:utility.obj
 0001:0005e97d       ??$__crt_fast_encode_pointer@P6GXPAU_RTL_CONDITION_VARIABLE@@@Z@@YAP6GXPAU_RTL_CONDITION_VARIABLE@@@ZQ6GX0@Z@Z 0045f97d f i LIBCMT:thread_safe_statics.obj
 0001:0005e97d       ??$__crt_fast_encode_pointer@P6GHPAU_RTL_CONDITION_VARIABLE@@PAU_RTL_CRITICAL_SECTION@@K@Z@@YAP6GHPAU_RTL_CONDITION_VARIABLE@@PAU_RTL_CRITICAL_SECTION@@K@ZQ6GH01K@Z@Z 0045f97d f i LIBCMT:thread_safe_statics.obj
 0001:0005e97d       ??$__crt_fast_encode_pointer@PAX@@YAPAXQAX@Z 0045f97d f i libvcruntime:winapi_downlevel.obj
 0001:0005e9de       ___scrt_acquire_startup_lock 0045f9de f   LIBCMT:utility.obj
 0001:0005ea13       ___scrt_initialize_crt     0045fa13 f   LIBCMT:utility.obj
 0001:0005ea4c       ___scrt_initialize_onexit_tables 0045fa4c f   LIBCMT:utility.obj
 0001:0005eae3       ___scrt_is_nonwritable_in_current_image 0045fae3 f   LIBCMT:utility.obj
 0001:0005eb6d       ___scrt_release_startup_lock 0045fb6d f   LIBCMT:utility.obj
 0001:0005eb8a       ___scrt_uninitialize_crt   0045fb8a f   LIBCMT:utility.obj
 0001:0005ebb2       __onexit                   0045fbb2 f   LIBCMT:utility.obj
 0001:0005ebed       _atexit                    0045fbed f   LIBCMT:utility.obj
 0001:0005ecde       __Init_thread_footer       0045fcde f   LIBCMT:thread_safe_statics.obj
 0001:0005ed1d       __Init_thread_header       0045fd1d f   LIBCMT:thread_safe_statics.obj
 0001:0005ed63       __Init_thread_lock         0045fd63 f   LIBCMT:thread_safe_statics.obj
 0001:0005ed6f       __Init_thread_notify       0045fd6f f   LIBCMT:thread_safe_statics.obj
 0001:0005edb0       __Init_thread_unlock       0045fdb0 f   LIBCMT:thread_safe_statics.obj
 0001:0005edbc       __Init_thread_wait         0045fdbc f   LIBCMT:thread_safe_statics.obj
 0001:0005ee30       __alldiv                   0045fe30 f   LIBCMT:lldiv.obj
 0001:0005eee0       __allmul                   0045fee0 f   LIBCMT:llmul.obj
 0001:0005ef20       __allrem                   0045ff20 f   LIBCMT:llrem.obj
 0001:0005efe0       __aulldiv                  0045ffe0 f   LIBCMT:ulldiv.obj
 0001:0005f050       __alloca_probe             00460050 f   LIBCMT:chkstk.obj
 0001:0005f050       __chkstk                   00460050 f   LIBCMT:chkstk.obj
 0001:0005f080       __ftoui3                   00460080 f   LIBCMT:_ftol3_.obj
 0001:0005f08f       __ftoul3                   0046008f f   LIBCMT:_ftol3_.obj
 0001:0005f09e       __ftol3                    0046009e f   LIBCMT:_ftol3_.obj
 0001:0005f0ab       __ftol3_NaN                004600ab f   LIBCMT:_ftol3_.obj
 0001:0005f0c3       __ftol3_work               004600c3 f   LIBCMT:_ftol3_.obj
 0001:0005f149       __ftol3_common             00460149 f   LIBCMT:_ftol3_.obj
 0001:0005f20b       __ftol3_arg_error          0046020b f   LIBCMT:_ftol3_.obj
 0001:0005f21d       __ftol3_except             0046021d f   LIBCMT:_ftol3_.obj
 0001:0005f261       __dtoui3                   00460261 f   LIBCMT:_ftol3_.obj
 0001:0005f270       __dtoul3                   00460270 f   LIBCMT:_ftol3_.obj
 0001:0005f27f       __dtol3                    0046027f f   LIBCMT:_ftol3_.obj
 0001:0005f28c       __dtol3_NaN                0046028c f   LIBCMT:_ftol3_.obj
 0001:0005f2a9       __dtol3_work               004602a9 f   LIBCMT:_ftol3_.obj
 0001:0005f390       __ultod3                   00460390 f   LIBCMT:_ftol3_.obj
 0001:0005f3d0       __ltod3                    004603d0 f   LIBCMT:_ftol3_.obj
 0001:0005f3f7       ??_U@YAPAXI@Z              004603f7 f   LIBCMT:new_array.obj
 0001:0005f400       ??_V@YAXPAX@Z              00460400 f   LIBCMT:delete_array.obj
 0001:0005f405       ___raise_securityfailure   00460405 f   LIBCMT:gs_report.obj
 0001:0005f42d       ___report_gsfailure        0046042d f   LIBCMT:gs_report.obj
 0001:0005f528       ___report_rangecheckfailure 00460528 f   LIBCMT:gs_report.obj
 0001:0005f534       ___report_securityfailure  00460534 f   LIBCMT:gs_report.obj
 0001:0005f610       __aullrem                  00460610 f   LIBCMT:ullrem.obj
 0001:0005f8ab       _WinMainCRTStartup         004608ab f   LIBCMT:exe_winmain.obj
 0001:0005f8c0       __aullshr                  004608c0 f   LIBCMT:ullshr.obj
 0001:0005f8df       @_guard_check_icall@4      004608df f i LIBCMT:checkcfg.obj
 0001:0005f8e5       __EH_epilog3               004608e5 f   LIBCMT:ehprolg3.obj
 0001:0005f8fa       __EH_prolog3               004608fa f   LIBCMT:ehprolg3.obj
 0001:0005f92e       __EH_prolog3_catch         0046092e f   LIBCMT:ehprolg3.obj
 0001:0005f970       __alloca_probe_16          00460970 f   LIBCMT:alloca16.obj
 0001:0005f986       __alloca_probe_8           00460986     LIBCMT:alloca16.obj
 0001:0005f99c       ??0bad_array_new_length@std@@QAE@ABV01@@Z 0046099c f i LIBCMT:throw_bad_alloc.obj
 0001:0005f9b7       ??0bad_array_new_length@std@@QAE@XZ 004609b7 f i LIBCMT:throw_bad_alloc.obj
 0001:0005f9cf       ?_Xbad_alloc@std@@YAXXZ    004609cf f   libcpmt:xthrow.obj
 0001:0005f9cf       ?__scrt_throw_std_bad_alloc@@YAXXZ 004609cf f   LIBCMT:throw_bad_alloc.obj
 0001:0005f9ec       ?__scrt_throw_std_bad_array_new_length@@YAXXZ 004609ec f   LIBCMT:throw_bad_alloc.obj
 0001:0005fa09       ___isa_available_init      00460a09 f   LIBCMT:_cpu_disp_.obj
 0001:0005fba3       __get_startup_argv_mode    00460ba3 f   LIBCMT:argv_mode.obj
 0001:0005fba7       ___scrt_is_ucrt_dll_in_use 00460ba7 f   LIBCMT:ucrt_detection.obj
 0001:0005fbb3       ___scrt_fastfail           00460bb3 f   LIBCMT:utility_desktop.obj
 0001:0005fcce       ___scrt_get_show_window_mode 00460cce f   LIBCMT:utility_desktop.obj
 0001:0005fd01       ___scrt_set_unhandled_exception_filter 00460d01 f   LIBCMT:utility_desktop.obj
 0001:0005fd0d       ___scrt_unhandled_exception_filter@4 00460d0d f   LIBCMT:utility_desktop.obj
 0001:0005fd4e       __crt_debugger_hook        00460d4e f   LIBCMT:utility_desktop.obj
 0001:0005fd60       __SEH_prolog4              00460d60 f   LIBCMT:_sehprolg4_.obj
 0001:0005fda6       __SEH_epilog4              00460da6 f   LIBCMT:_sehprolg4_.obj
 0001:0005fdbb       ___security_init_cookie    00460dbb f   LIBCMT:gs_support.obj
 0001:0005fe57       __get_startup_file_mode    00460e57 f   LIBCMT:file_mode.obj
 0001:0005fe5d       ?__scrt_initialize_type_info@@YAXXZ 00460e5d f   LIBCMT:tncleanup.obj
 0001:0005fe69       __initialize_default_precision 00460e69 f   LIBCMT:default_precision.obj
 0001:0005fe8a       ___scrt_initialize_default_local_stdio_options 00460e8a f   LIBCMT:default_local_stdio_options.obj
 0001:0005fea7       ___scrt_is_user_matherr_present 00460ea7 f   LIBCMT:matherr_detection.obj
 0001:0005feb3       ___scrt_get_dyn_tls_init_callback 00460eb3 f   LIBCMT:dyn_tls_init.obj
 0001:0005feb9       ___scrt_get_dyn_tls_dtor_callback 00460eb9 f   LIBCMT:dyn_tls_dtor.obj
 0001:0005febf       __RTC_Initialize           00460ebf f   LIBCMT:_initsect_.obj
 0001:0005feea       __RTC_Terminate            00460eea f   LIBCMT:_initsect_.obj
 0001:0005ff15       ??0CAtlBaseModule@ATL@@QAE@XZ 00460f15 f   atls:atlbase.obj
 0001:0005ff68       ??0_ATL_BASE_MODULE70@ATL@@QAE@XZ 00460f68 f i atls:atlbase.obj
 0001:0005ff8b       ??1CAtlBaseModule@ATL@@QAE@XZ 00460f8b f   atls:atlbase.obj
 0001:0005ffa1       ?Init@CComCriticalSection@ATL@@QAEJXZ 00460fa1 f i atls:atlbase.obj
 0001:0005ffcc       ?RemoveAll@?$CSimpleArray@PAUHINSTANCE__@@V?$CSimpleArrayEqualHelper@PAUHINSTANCE__@@@ATL@@@ATL@@QAEXXZ 00460fcc f i atls:atlbase.obj
 0001:0005ffe9       __get_purecall_handler     00460fe9 f   libvcruntime:purevirt.obj
 0001:00060008       __purecall                 00461008 f   libvcruntime:purevirt.obj
 0001:00060023       __CxxThrowException@8      00461023 f   libvcruntime:throw.obj
 0001:00060091       ?_CallCatchBlock2@@YAPAXPAUEHRegistrationNode@@PBU_s_FuncInfo@@PAXHK@Z 00461091 f   libvcruntime:trnsctrl.obj
 0001:000600f1       ?_CallSETranslator@@YAHPAUEHExceptionRecord@@PAUEHRegistrationNode@@PAX2PBU_s_FuncInfo@@H1@Z 004610f1 f   libvcruntime:trnsctrl.obj
 0001:000601ce       ?_GetRangeOfTrysToCheck@@YAPBU_s_TryBlockMapEntry@@PBU_s_FuncInfo@@HHPAI1@Z 004611ce f   libvcruntime:trnsctrl.obj
 0001:00060246       ?_JumpToContinuation@@YGXPAXPAUEHRegistrationNode@@@Z 00461246 f   libvcruntime:trnsctrl.obj
 0001:00060278       ?_UnwindNestedFrames@@YGXPAUEHRegistrationNode@@PAUEHExceptionRecord@@@Z 00461278 f   libvcruntime:trnsctrl.obj
 0001:000602cd       __CatchGuardHandler        004612cd f   libvcruntime:trnsctrl.obj
 0001:000602fe       __CreateFrameInfo          004612fe f   libvcruntime:trnsctrl.obj
 0001:00060322       __FindAndUnlinkFrame       00461322 f   libvcruntime:trnsctrl.obj
 0001:0006036c       __IsExceptionObjectToBeDestroyed 0046136c f   libvcruntime:trnsctrl.obj
 0001:00060392       __TranslatorGuardHandler   00461392 f   libvcruntime:trnsctrl.obj
 0001:00060431       ___CxxFrameHandler3        00461431 f   libvcruntime:trnsctrl.obj
 0001:00060467       ___DestructExceptionObject 00461467 f   libvcruntime:frame.obj
 0001:000604fb       ??0bad_exception@std@@QAE@ABV01@@Z 004614fb f i libvcruntime:frame.obj
 0001:00060516       ??0bad_exception@std@@QAE@XZ 00461516 f i libvcruntime:frame.obj
 0001:00060530       ??1bad_exception@std@@UAE@XZ 00461530 f i libvcruntime:frame.obj
 0001:00060530       ??1out_of_range@std@@UAE@XZ 00461530 f i libcpmt:xthrow.obj
 0001:00060530       ??1bad_array_new_length@std@@UAE@XZ 00461530 f i LIBCMT:throw_bad_alloc.obj
 0001:00060530       ??1length_error@std@@UAE@XZ 00461530 f i libcpmt:xthrow.obj
 0001:00060530       ??1failure@ios_base@std@@UAE@XZ 00461530 f i Gstformat.obj
 0001:00060530       ??1bad_alloc@std@@UAE@XZ   00461530 f i BootEncryption.obj
 0001:00060530       ??1bad_cast@std@@UAE@XZ    00461530 f i Gstformat.obj
 0001:00060530       ??1runtime_error@std@@UAE@XZ 00461530 f i Gstformat.obj
 0001:00060d5a       ?_CallMemberFunction0@@YGXQAX0@Z 00461d5a f i libvcruntime:frame.obj
 0001:00060d5a       ?_CallMemberFunction1@@YGXQAX00@Z 00461d5a f i libvcruntime:frame.obj
 0001:00060d5a       ?_CallMemberFunction2@@YGXQAX00H@Z 00461d5a f i libvcruntime:frame.obj
 0001:00060d61       ___AdjustPointer           00461d61 f   libvcruntime:frame.obj
 0001:00060d86       ___BuildCatchObject        00461d86 f   libvcruntime:frame.obj
 0001:00060e15       ___BuildCatchObjectHelper  00461e15 f   libvcruntime:frame.obj
 0001:00060f43       ___FrameUnwindFilter       00461f43 f   libvcruntime:frame.obj
 0001:00060f88       ___FrameUnwindToState      00461f88 f   libvcruntime:frame.obj
 0001:00061050       ___InternalCxxFrameHandler 00462050 f   libvcruntime:frame.obj
 0001:0006114c       ___TypeMatch               0046214c f   libvcruntime:frame.obj
 0001:000611da       ___std_terminate           004621da f   libvcruntime:frame.obj
 0001:000611df       ___uncaught_exception      004621df f   libvcruntime:frame.obj
 0001:000611f0       _memmove                   004621f0 f   libvcruntime:memmove.obj
 0001:00061770       _strstr                    00462770 f   libvcruntime:strstr.obj
 0001:000619d3       ___std_exception_copy      004629d3 f   libvcruntime:std_exception.obj
 0001:00061a36       ___std_exception_destroy   00462a36 f   libvcruntime:std_exception.obj
 0001:00061a60       _memcpy                    00462a60 f   libvcruntime:memcpy.obj
 0001:00061fe0       _memset                    00462fe0 f   libvcruntime:memset.obj
 0001:00062140       _memchr                    00463140 f   libvcruntime:memchr.obj
 0001:000621f0       _strchr                    004631f0 f   libvcruntime:strchr.obj
 0001:0006225e       ___from_strstr_to_strchr   0046325e     libvcruntime:strchr.obj
 0001:00062320       _strrchr                   00463320 f   libvcruntime:strrchr.obj
 0001:00062457       _wcsrchr                   00463457 f   libvcruntime:wcsrchr.obj
 0001:000624f8       _memcmp                    004634f8 f   libvcruntime:_memcmp_.obj
 0001:00063c78       ___vcrt_initialize         00464c78 f   libvcruntime:initialization.obj
 0001:00063ca1       ___vcrt_uninitialize       00464ca1 f   libvcruntime:initialization.obj
 0001:00063d00       __except_handler4          00464d00 f   libvcruntime:_chandler4_.obj
 0001:00063f87       ___vcrt_FlsAlloc           00464f87 f   libvcruntime:winapi_downlevel.obj
 0001:00063fc1       ___vcrt_FlsFree            00464fc1 f   libvcruntime:winapi_downlevel.obj
 0001:00063ffb       ___vcrt_FlsGetValue        00464ffb f   libvcruntime:winapi_downlevel.obj
 0001:00064035       ___vcrt_FlsSetValue        00465035 f   libvcruntime:winapi_downlevel.obj
 0001:00064072       ___vcrt_InitializeCriticalSectionEx 00465072 f   libvcruntime:winapi_downlevel.obj
 0001:000640b8       ___vcrt_initialize_winapi_thunks 004650b8 f   libvcruntime:winapi_downlevel.obj
 0001:000640f2       ___vcrt_uninitialize_winapi_thunks 004650f2 f   libvcruntime:winapi_downlevel.obj
 0001:00064124       ___std_type_info_compare   00465124 f   libvcruntime:std_type_info.obj
 0001:00064160       ___vcrt_initialize_pure_virtual_call_handler 00465160 f   libvcruntime:purevirt_data.obj
 0001:0006417d       ___vcrt_freefls@4          0046517d f   libvcruntime:per_thread_data.obj
 0001:00064199       ___vcrt_getptd             00465199 f   libvcruntime:per_thread_data.obj
 0001:000641a7       ___vcrt_getptd_noexit      004651a7 f   libvcruntime:per_thread_data.obj
 0001:00064239       ___vcrt_initialize_ptd     00465239 f   libvcruntime:per_thread_data.obj
 0001:0006426c       ___vcrt_uninitialize_ptd   0046526c f   libvcruntime:per_thread_data.obj
 0001:00064290       __CallSettingFrame@12      00465290 f   libvcruntime:lowhelpr.obj
 0001:000642b7       __NLG_Return               004652b7     libvcruntime:lowhelpr.obj
 0001:000642dc       _unexpected                004652dc f   libvcruntime:unexpected.obj
 0001:000642f8       ___vcrt_initialize_locks   004652f8 f   libvcruntime:locks.obj
 0001:00064334       ___vcrt_uninitialize_locks 00465334 f   libvcruntime:locks.obj
 0001:00064370       __local_unwind4            00465370 f   libvcruntime:_exsup4_.obj
 0001:00064446       __seh_longjmp_unwind4@4    00465446 f   libvcruntime:_exsup4_.obj
 0001:0006446e       @_EH4_CallFilterFunc@8     0046546e f   libvcruntime:_exsup4_.obj
 0001:00064485       @_EH4_TransferToHandler@8  00465485 f   libvcruntime:_exsup4_.obj
 0001:0006449e       @_EH4_GlobalUnwind2@8      0046549e f   libvcruntime:_exsup4_.obj
 0001:000644b7       @_EH4_LocalUnwind@16       004654b7 f   libvcruntime:_exsup4_.obj
 0001:000644d0       __global_unwind2           004654d0 f   libvcruntime:_exsup_.obj
 0001:00064535       __local_unwind2            00465535 f   libvcruntime:_exsup_.obj
 0001:000645b9       __abnormal_termination     004655b9 f   libvcruntime:_exsup_.obj
 0001:000645dc       __NLG_Notify1              004655dc f   libvcruntime:_exsup_.obj
 0001:000645e5       __NLG_Notify               004655e5 f   libvcruntime:_exsup_.obj
 0001:000645fc       __NLG_Dispatch2            004655fc     libvcruntime:_exsup_.obj
 0001:000645fc       __NLG_Dispatch             004655fc     libvcruntime:_exsup_.obj
 0001:00064604       __NLG_Call                 00465604 f   libvcruntime:_exsup_.obj
 0001:00064606       __NLG_Return2              00465606     libvcruntime:_exsup_.obj
 0001:00064607       ___acrt_call_reportfault   00465607 f   libucrt:invalid_parameter.obj
 0001:00064742       ___acrt_initialize_invalid_parameter_handler 00465742 f   libucrt:invalid_parameter.obj
 0001:00064756       __invalid_parameter        00465756 f   libucrt:invalid_parameter.obj
 0001:000647d1       __invalid_parameter_noinfo 004657d1 f   libucrt:invalid_parameter.obj
 0001:000647e1       __invalid_parameter_noinfo_noreturn 004657e1 f   libucrt:invalid_parameter.obj
 0001:000647fe       __invoke_watson            004657fe f   libucrt:invalid_parameter.obj
 0001:00064831       __set_invalid_parameter_handler 00465831 f   libucrt:invalid_parameter.obj
 0001:00064861       ___acrt_errno_from_os_error 00465861 f   libucrt:errno.obj
 0001:000648a4       ___acrt_errno_map_os_error 004658a4 f   libucrt:errno.obj
 0001:000648c7       ___doserrno                004658c7 f   libucrt:errno.obj
 0001:000648da       __errno                    004658da f   libucrt:errno.obj
 0001:000648ed       _wcscpy_s                  004658ed f   libucrt:wcscpy_s.obj
 0001:00064951       _wcsncpy                   00465951 f   libucrt:wcsncpy.obj
 0001:000649a0       _strcspn                   004659a0 f   libucrt:strcspn.obj
 0001:000649e6       ??0_LocaleUpdate@@QAE@QAU__crt_locale_pointers@@@Z 004659e6 f i libucrt:stricmp.obj
 0001:00064a69       ___ascii_stricmp           00465a69 f   libucrt:stricmp.obj
 0001:00064aa4       __stricmp                  00465aa4 f   libucrt:stricmp.obj
 0001:00064aec       __stricmp_l                00465aec f   libucrt:stricmp.obj
 0001:00064b90       _strncmp                   00465b90 f   libucrt:strncmp.obj
 0001:00064c10       _strncpy                   00465c10 f   libucrt:strncpy.obj
 0001:00064d34       _calloc                    00465d34 f   libucrt:calloc.obj
 0001:00064d3f       _free                      00465d3f f   libucrt:free.obj
 0001:00064d44       _malloc                    00465d44 f   libucrt:malloc.obj
 0001:00064ebc       ___scrt_is_managed_app     00465ebc f   LIBCMT:utility_desktop.obj
 0001:00064f6a       ___acrt_initialize_thread_local_exit_callback 00465f6a f   libucrt:exit.obj
 0001:00064f79       __c_exit                   00465f79 f   libucrt:exit.obj
 0001:00064f88       __cexit                    00465f88 f   libucrt:exit.obj
 0001:00064f97       __exit                     00465f97 f   libucrt:exit.obj
 0001:00064fad       __register_thread_local_exe_atexit_callback 00465fad f   libucrt:exit.obj
 0001:00064fe5       _exit                      00465fe5 f   libucrt:exit.obj
 0001:00064ffb       ??$is_overflow_condition@K@__crt_strtox@@YA_NIK@Z 00465ffb f i libucrt:atox.obj
 0001:0006502e       ??$is_overflow_condition@_K@__crt_strtox@@YA_NI_K@Z 0046602e f i libucrt:atox.obj
 0001:00065071       ??$make_c_string_character_source@D$$T@__crt_strtox@@YA?AV?$c_string_character_source@D@0@QBD$$T@Z 00466071 f i libucrt:atox.obj
 0001:00065071       ??$make_c_string_character_source@DPAPAD@__crt_strtox@@YA?AV?$c_string_character_source@D@0@QBDQAPAD@Z 00466071 f i libucrt:strtox.obj
 0001:00065071       ??$make_c_string_character_source@_W$$T@__crt_strtox@@YA?AV?$c_string_character_source@_W@0@QB_W$$T@Z 00466071 f i libucrt:atox.obj
 0001:00065071       ??$make_c_string_character_source@_WPAPA_W@__crt_strtox@@YA?AV?$c_string_character_source@_W@0@QB_WQAPA_W@Z 00466071 f i libucrt:strtox.obj
 0001:0006508c       ??$parse_integer@KV?$c_string_character_source@D@__crt_strtox@@@__crt_strtox@@YAKQAU__crt_locale_pointers@@V?$c_string_character_source@D@0@H_N@Z 0046608c f i libucrt:atox.obj
 0001:000652b4       ??$parse_integer@KV?$c_string_character_source@_W@__crt_strtox@@@__crt_strtox@@YAKQAU__crt_locale_pointers@@V?$c_string_character_source@_W@0@H_N@Z 004662b4 f i libucrt:atox.obj
 0001:00065999       ??$parse_integer@_KV?$c_string_character_source@D@__crt_strtox@@@__crt_strtox@@YA_KQAU__crt_locale_pointers@@V?$c_string_character_source@D@0@H_N@Z 00466999 f i libucrt:atox.obj
 0001:00065c3f       ??$parse_integer@_KV?$c_string_character_source@_W@__crt_strtox@@@__crt_strtox@@YA_KQAU__crt_locale_pointers@@V?$c_string_character_source@_W@0@H_N@Z 00466c3f f i libucrt:atox.obj
 0001:00066234       ?unget@?$c_string_character_source@D@__crt_strtox@@QAEXD@Z 00467234 f i libucrt:atox.obj
 0001:0006625c       ?unget@?$c_string_character_source@_W@__crt_strtox@@QAEX_W@Z 0046725c f i libucrt:atox.obj
 0001:00066288       __atoi64                   00467288 f   libucrt:atox.obj
 0001:000662b2       __chvalidchk_l             004672b2 f i libucrt:atox.obj
 0001:000662dc       __ischartype_l             004672dc f i libucrt:atox.obj
 0001:0006630f       __wtol                     0046730f f   libucrt:atox.obj
 0001:00066339       _atol                      00467339 f   libucrt:atox.obj
 0001:00066339       _atoi                      00467339 f   libucrt:atox.obj
 0001:00066363       _frexp                     00467363 f   libucrt:frexp.obj
 0001:0006655b       ??Rthread_parameter_free_policy@?A0xe57bf005@@QAEXQAU__acrt_thread_parameter@@@Z 0046755b f i libucrt:thread.obj
 0001:00066632       __beginthread              00467632 f   libucrt:thread.obj
 0001:000666be       __beginthreadex            004676be f   libucrt:thread.obj
 0001:00066743       __endthread                00467743 f   libucrt:thread.obj
 0001:0006674b       __endthreadex              0046774b f   libucrt:thread.obj
 0001:00066759       ??$?RV<lambda_db08b09ef7aa9d4f8620ce68402612bc>@@AAV<lambda_4f2c1eaeead2a5fc776db5b62ea0fb9b>@@V<lambda_3ae262bc35d4ba6a3825c4f6bcaaf95c>@@@?$__crt_seh_guarded_call@H@@QAEH$$QAV<lambda_db08b09ef7aa9d4f8620ce68402612bc>@@AAV<lambda_4f2c1eaeead2a5fc776db5b62ea0fb9b>@@$$QAV<lambda_3ae262bc35d4ba6a3825c4f6bcaaf95c>@@@Z 00467759 f i libucrt:output.obj
 0001:000667aa       ??$__acrt_lock_stream_and_call@V<lambda_4f2c1eaeead2a5fc776db5b62ea0fb9b>@@@@YAHQAU_iobuf@@$$QAV<lambda_4f2c1eaeead2a5fc776db5b62ea0fb9b>@@@Z 004677aa f i libucrt:output.obj
 0001:00066ec6       ??$count@D@formatting_buffer@__crt_stdio_output@@QBEIXZ 00467ec6 f i libucrt:output.obj
 0001:00066ede       ??$ensure_buffer_is_big_enough@D@formatting_buffer@__crt_stdio_output@@QAE_NI@Z 00467ede f i libucrt:output.obj
 0001:00066f64       ??$is_wide_character_specifier@D@__crt_stdio_output@@YA_N_KDW4length_modifier@0@@Z 00467f64 f i libucrt:output.obj
 0001:00066fa4       ??$is_wide_character_specifier@_W@__crt_stdio_output@@YA_N_K_WW4length_modifier@0@@Z 00467fa4 f i libucrt:output.obj
 0001:00066ff3       ??$scratch_data@D@formatting_buffer@__crt_stdio_output@@QAEPADXZ 00467ff3 f i libucrt:output.obj
 0001:00067011       ??$type_case_integer_parse_into_buffer@I@?$output_processor@_WV?$string_output_adapter@_W@__crt_stdio_output@@V?$standard_base@_WV?$string_output_adapter@_W@__crt_stdio_output@@@2@@__crt_stdio_output@@AAEXII_N@Z 00468011 f i libucrt:output.obj
 0001:00067011       ??$type_case_integer_parse_into_buffer@I@?$output_processor@DV?$string_output_adapter@D@__crt_stdio_output@@V?$format_validation_base@DV?$string_output_adapter@D@__crt_stdio_output@@@2@@__crt_stdio_output@@AAEXII_N@Z 00468011 f i libucrt:output.obj
 0001:00067011       ??$type_case_integer_parse_into_buffer@I@?$output_processor@DV?$stream_output_adapter@D@__crt_stdio_output@@V?$standard_base@DV?$stream_output_adapter@D@__crt_stdio_output@@@2@@__crt_stdio_output@@AAEXII_N@Z 00468011 f i libucrt:output.obj
 0001:00067011       ??$type_case_integer_parse_into_buffer@I@?$output_processor@DV?$string_output_adapter@D@__crt_stdio_output@@V?$standard_base@DV?$string_output_adapter@D@__crt_stdio_output@@@2@@__crt_stdio_output@@AAEXII_N@Z 00468011 f i libucrt:output.obj
 0001:00067011       ??$type_case_integer_parse_into_buffer@I@?$output_processor@_WV?$string_output_adapter@_W@__crt_stdio_output@@V?$format_validation_base@_WV?$string_output_adapter@_W@__crt_stdio_output@@@2@@__crt_stdio_output@@AAEXII_N@Z 00468011 f i libucrt:output.obj
 0001:00067086       ??$type_case_integer_parse_into_buffer@_K@?$output_processor@_WV?$string_output_adapter@_W@__crt_stdio_output@@V?$format_validation_base@_WV?$string_output_adapter@_W@__crt_stdio_output@@@2@@__crt_stdio_output@@AAEX_KI_N@Z 00468086 f i libucrt:output.obj
 0001:00067086       ??$type_case_integer_parse_into_buffer@_K@?$output_processor@_WV?$string_output_adapter@_W@__crt_stdio_output@@V?$standard_base@_WV?$string_output_adapter@_W@__crt_stdio_output@@@2@@__crt_stdio_output@@AAEX_KI_N@Z 00468086 f i libucrt:output.obj
 0001:00067086       ??$type_case_integer_parse_into_buffer@_K@?$output_processor@DV?$string_output_adapter@D@__crt_stdio_output@@V?$format_validation_base@DV?$string_output_adapter@D@__crt_stdio_output@@@2@@__crt_stdio_output@@AAEX_KI_N@Z 00468086 f i libucrt:output.obj
 0001:00067086       ??$type_case_integer_parse_into_buffer@_K@?$output_processor@DV?$string_output_adapter@D@__crt_stdio_output@@V?$standard_base@DV?$string_output_adapter@D@__crt_stdio_output@@@2@@__crt_stdio_output@@AAEX_KI_N@Z 00468086 f i libucrt:output.obj
 0001:00067086       ??$type_case_integer_parse_into_buffer@_K@?$output_processor@DV?$stream_output_adapter@D@__crt_stdio_output@@V?$standard_base@DV?$stream_output_adapter@D@__crt_stdio_output@@@2@@__crt_stdio_output@@AAEX_KI_N@Z 00468086 f i libucrt:output.obj
 0001:0006710e       ??$write_multiple_characters@V?$stream_output_adapter@D@__crt_stdio_output@@D@__crt_stdio_output@@YAXABV?$stream_output_adapter@D@0@DHQAH@Z 0046810e f i libucrt:output.obj
 0001:0006713a       ??$write_multiple_characters@V?$string_output_adapter@D@__crt_stdio_output@@D@__crt_stdio_output@@YAXABV?$string_output_adapter@D@0@DHQAH@Z 0046813a f i libucrt:output.obj
 0001:00067166       ??$write_multiple_characters@V?$string_output_adapter@_W@__crt_stdio_output@@D@__crt_stdio_output@@YAXABV?$string_output_adapter@_W@0@DHQAH@Z 00468166 f i libucrt:output.obj
 0001:00067197       ??0?$common_data@D@__crt_stdio_output@@IAE@XZ 00468197 f i libucrt:output.obj
 0001:000671de       ??0?$common_data@_W@__crt_stdio_output@@IAE@XZ 004681de f i libucrt:output.obj
 0001:0006722a       ??0?$output_adapter_data@DV?$stream_output_adapter@D@__crt_stdio_output@@@__crt_stdio_output@@IAE@ABV?$stream_output_adapter@D@1@_KQBDQAU__crt_locale_pointers@@QAD@Z 0046822a f i libucrt:output.obj
 0001:0006722a       ??0?$output_adapter_data@DV?$string_output_adapter@D@__crt_stdio_output@@@__crt_stdio_output@@IAE@ABV?$string_output_adapter@D@1@_KQBDQAU__crt_locale_pointers@@QAD@Z 0046822a f i libucrt:output.obj
 0001:00067266       ??0?$output_adapter_data@_WV?$string_output_adapter@_W@__crt_stdio_output@@@__crt_stdio_output@@IAE@ABV?$string_output_adapter@_W@1@_KQB_WQAU__crt_locale_pointers@@QAD@Z 00468266 f i libucrt:output.obj
 0001:000672a2       ??0?$output_processor@DV?$stream_output_adapter@D@__crt_stdio_output@@V?$standard_base@DV?$stream_output_adapter@D@__crt_stdio_output@@@2@@__crt_stdio_output@@QAE@ABV?$stream_output_adapter@D@1@_KQBDQAU__crt_locale_pointers@@QAD@Z 004682a2 f i libucrt:output.obj
 0001:000672a2       ??0?$output_processor@DV?$string_output_adapter@D@__crt_stdio_output@@V?$format_validation_base@DV?$string_output_adapter@D@__crt_stdio_output@@@2@@__crt_stdio_output@@QAE@ABV?$string_output_adapter@D@1@_KQBDQAU__crt_locale_pointers@@QAD@Z 004682a2 f i libucrt:output.obj
 0001:000672a2       ??0?$output_processor@DV?$string_output_adapter@D@__crt_stdio_output@@V?$standard_base@DV?$string_output_adapter@D@__crt_stdio_output@@@2@@__crt_stdio_output@@QAE@ABV?$string_output_adapter@D@1@_KQBDQAU__crt_locale_pointers@@QAD@Z 004682a2 f i libucrt:output.obj
 0001:000672d7       ??0?$output_processor@_WV?$string_output_adapter@_W@__crt_stdio_output@@V?$format_validation_base@_WV?$string_output_adapter@_W@__crt_stdio_output@@@2@@__crt_stdio_output@@QAE@ABV?$string_output_adapter@_W@1@_KQB_WQAU__crt_locale_pointers@@QAD@Z 004682d7 f i libucrt:output.obj
 0001:000672d7       ??0?$output_processor@_WV?$string_output_adapter@_W@__crt_stdio_output@@V?$standard_base@_WV?$string_output_adapter@_W@__crt_stdio_output@@@2@@__crt_stdio_output@@QAE@ABV?$string_output_adapter@_W@1@_KQB_WQAU__crt_locale_pointers@@QAD@Z 004682d7 f i libucrt:output.obj
 0001:0006730c       ??1formatting_buffer@__crt_stdio_output@@QAE@XZ 0046830c f i libucrt:output.obj
 0001:000673e3       ?crop_zeroes@__crt_stdio_output@@YAXPADQAU__crt_locale_pointers@@@Z 004683e3 f i libucrt:output.obj
 0001:0006743a       ?find_next_state@?$output_processor@DV?$string_output_adapter@D@__crt_stdio_output@@V?$standard_base@DV?$string_output_adapter@D@__crt_stdio_output@@@2@@__crt_stdio_output@@ABE?AW4state@2@DW432@@Z 0046843a f i libucrt:output.obj
 0001:0006743a       ?find_next_state@?$output_processor@DV?$stream_output_adapter@D@__crt_stdio_output@@V?$standard_base@DV?$stream_output_adapter@D@__crt_stdio_output@@@2@@__crt_stdio_output@@ABE?AW4state@2@DW432@@Z 0046843a f i libucrt:output.obj
 0001:0006746c       ?find_next_state@?$output_processor@DV?$string_output_adapter@D@__crt_stdio_output@@V?$format_validation_base@DV?$string_output_adapter@D@__crt_stdio_output@@@2@@__crt_stdio_output@@ABE?AW4state@2@DW432@@Z 0046846c f i libucrt:output.obj
 0001:000674a1       ?find_next_state@?$output_processor@_WV?$string_output_adapter@_W@__crt_stdio_output@@V?$format_validation_base@_WV?$string_output_adapter@_W@__crt_stdio_output@@@2@@__crt_stdio_output@@ABE?AW4state@2@_WW432@@Z 004684a1 f i libucrt:output.obj
 0001:000674d8       ?find_next_state@?$output_processor@_WV?$string_output_adapter@_W@__crt_stdio_output@@V?$standard_base@_WV?$string_output_adapter@_W@__crt_stdio_output@@@2@@__crt_stdio_output@@ABE?AW4state@2@_WW432@@Z 004684d8 f i libucrt:output.obj
 0001:0006750c       ?force_decimal_point@__crt_stdio_output@@YAXPADQAU__crt_locale_pointers@@@Z 0046850c f i libucrt:output.obj
 0001:00067568       ?parse_int_from_format_string@?$output_processor@DV?$string_output_adapter@D@__crt_stdio_output@@V?$standard_base@DV?$string_output_adapter@D@__crt_stdio_output@@@2@@__crt_stdio_output@@AAE_NQAH@Z 00468568 f i libucrt:output.obj
 0001:00067568       ?parse_int_from_format_string@?$output_processor@DV?$stream_output_adapter@D@__crt_stdio_output@@V?$standard_base@DV?$stream_output_adapter@D@__crt_stdio_output@@@2@@__crt_stdio_output@@AAE_NQAH@Z 00468568 f i libucrt:output.obj
 0001:00067568       ?parse_int_from_format_string@?$output_processor@DV?$string_output_adapter@D@__crt_stdio_output@@V?$format_validation_base@DV?$string_output_adapter@D@__crt_stdio_output@@@2@@__crt_stdio_output@@AAE_NQAH@Z 00468568 f i libucrt:output.obj
 0001:000675c4       ?parse_int_from_format_string@?$output_processor@_WV?$string_output_adapter@_W@__crt_stdio_output@@V?$standard_base@_WV?$string_output_adapter@_W@__crt_stdio_output@@@2@@__crt_stdio_output@@AAE_NQAH@Z 004685c4 f i libucrt:output.obj
 0001:000675c4       ?parse_int_from_format_string@?$output_processor@_WV?$string_output_adapter@_W@__crt_stdio_output@@V?$format_validation_base@_WV?$string_output_adapter@_W@__crt_stdio_output@@@2@@__crt_stdio_output@@AAE_NQAH@Z 004685c4 f i libucrt:output.obj
 0001:00067622       ?process@?$output_processor@DV?$stream_output_adapter@D@__crt_stdio_output@@V?$standard_base@DV?$stream_output_adapter@D@__crt_stdio_output@@@2@@__crt_stdio_output@@QAEHXZ 00468622 f i libucrt:output.obj
 0001:0006773e       ?process@?$output_processor@DV?$string_output_adapter@D@__crt_stdio_output@@V?$format_validation_base@DV?$string_output_adapter@D@__crt_stdio_output@@@2@@__crt_stdio_output@@QAEHXZ 0046873e f i libucrt:output.obj
 0001:00067866       ?process@?$output_processor@DV?$string_output_adapter@D@__crt_stdio_output@@V?$standard_base@DV?$string_output_adapter@D@__crt_stdio_output@@@2@@__crt_stdio_output@@QAEHXZ 00468866 f i libucrt:output.obj
 0001:00067982       ?process@?$output_processor@_WV?$string_output_adapter@_W@__crt_stdio_output@@V?$format_validation_base@_WV?$string_output_adapter@_W@__crt_stdio_output@@@2@@__crt_stdio_output@@QAEHXZ 00468982 f i libucrt:output.obj
 0001:00067ab2       ?process@?$output_processor@_WV?$string_output_adapter@_W@__crt_stdio_output@@V?$standard_base@_WV?$string_output_adapter@_W@__crt_stdio_output@@@2@@__crt_stdio_output@@QAEHXZ 00468ab2 f i libucrt:output.obj
 0001:00067bd2       ?state_case_flag@?$output_processor@DV?$stream_output_adapter@D@__crt_stdio_output@@V?$standard_base@DV?$stream_output_adapter@D@__crt_stdio_output@@@2@@__crt_stdio_output@@AAE_NXZ 00468bd2 f i libucrt:output.obj
 0001:00067bd2       ?state_case_flag@?$output_processor@DV?$string_output_adapter@D@__crt_stdio_output@@V?$format_validation_base@DV?$string_output_adapter@D@__crt_stdio_output@@@2@@__crt_stdio_output@@AAE_NXZ 00468bd2 f i libucrt:output.obj
 0001:00067bd2       ?state_case_flag@?$output_processor@DV?$string_output_adapter@D@__crt_stdio_output@@V?$standard_base@DV?$string_output_adapter@D@__crt_stdio_output@@@2@@__crt_stdio_output@@AAE_NXZ 00468bd2 f i libucrt:output.obj
 0001:00067c0f       ?state_case_flag@?$output_processor@_WV?$string_output_adapter@_W@__crt_stdio_output@@V?$standard_base@_WV?$string_output_adapter@_W@__crt_stdio_output@@@2@@__crt_stdio_output@@AAE_NXZ 00468c0f f i libucrt:output.obj
 0001:00067c0f       ?state_case_flag@?$output_processor@_WV?$string_output_adapter@_W@__crt_stdio_output@@V?$format_validation_base@_WV?$string_output_adapter@_W@__crt_stdio_output@@@2@@__crt_stdio_output@@AAE_NXZ 00468c0f f i libucrt:output.obj
 0001:00067c4c       ?state_case_normal@?$output_processor@DV?$stream_output_adapter@D@__crt_stdio_output@@V?$standard_base@DV?$stream_output_adapter@D@__crt_stdio_output@@@2@@__crt_stdio_output@@AAE_NXZ 00468c4c f i libucrt:output.obj
 0001:00067c6b       ?state_case_normal@?$output_processor@DV?$string_output_adapter@D@__crt_stdio_output@@V?$format_validation_base@DV?$string_output_adapter@D@__crt_stdio_output@@@2@@__crt_stdio_output@@AAE_NXZ 00468c6b f i libucrt:output.obj
 0001:00067c6b       ?state_case_normal@?$output_processor@DV?$string_output_adapter@D@__crt_stdio_output@@V?$standard_base@DV?$string_output_adapter@D@__crt_stdio_output@@@2@@__crt_stdio_output@@AAE_NXZ 00468c6b f i libucrt:output.obj
 0001:00067c8a       ?state_case_normal@?$output_processor@_WV?$string_output_adapter@_W@__crt_stdio_output@@V?$standard_base@_WV?$string_output_adapter@_W@__crt_stdio_output@@@2@@__crt_stdio_output@@AAE_NXZ 00468c8a f i libucrt:output.obj
 0001:00067c8a       ?state_case_normal@?$output_processor@_WV?$string_output_adapter@_W@__crt_stdio_output@@V?$format_validation_base@_WV?$string_output_adapter@_W@__crt_stdio_output@@@2@@__crt_stdio_output@@AAE_NXZ 00468c8a f i libucrt:output.obj
 0001:00067ca9       ?state_case_normal_common@?$output_processor@DV?$stream_output_adapter@D@__crt_stdio_output@@V?$standard_base@DV?$stream_output_adapter@D@__crt_stdio_output@@@2@@__crt_stdio_output@@AAE_NXZ 00468ca9 f i libucrt:output.obj
 0001:00067cd3       ?state_case_normal_common@?$output_processor@DV?$string_output_adapter@D@__crt_stdio_output@@V?$standard_base@DV?$string_output_adapter@D@__crt_stdio_output@@@2@@__crt_stdio_output@@AAE_NXZ 00468cd3 f i libucrt:output.obj
 0001:00067cd3       ?state_case_normal_common@?$output_processor@DV?$string_output_adapter@D@__crt_stdio_output@@V?$format_validation_base@DV?$string_output_adapter@D@__crt_stdio_output@@@2@@__crt_stdio_output@@AAE_NXZ 00468cd3 f i libucrt:output.obj
 0001:00067cfd       ?state_case_normal_common@?$output_processor@_WV?$string_output_adapter@_W@__crt_stdio_output@@V?$standard_base@_WV?$string_output_adapter@_W@__crt_stdio_output@@@2@@__crt_stdio_output@@AAE_NXZ 00468cfd f i libucrt:output.obj
 0001:00067cfd       ?state_case_normal_common@?$output_processor@_WV?$string_output_adapter@_W@__crt_stdio_output@@V?$format_validation_base@_WV?$string_output_adapter@_W@__crt_stdio_output@@@2@@__crt_stdio_output@@AAE_NXZ 00468cfd f i libucrt:output.obj
 0001:00067d18       ?state_case_normal_tchar@?$output_processor@DV?$stream_output_adapter@D@__crt_stdio_output@@V?$standard_base@DV?$stream_output_adapter@D@__crt_stdio_output@@@2@@__crt_stdio_output@@AAE_ND@Z 00468d18 f i libucrt:output.obj
 0001:00067d79       ?state_case_normal_tchar@?$output_processor@DV?$string_output_adapter@D@__crt_stdio_output@@V?$standard_base@DV?$string_output_adapter@D@__crt_stdio_output@@@2@@__crt_stdio_output@@AAE_ND@Z 00468d79 f i libucrt:output.obj
 0001:00067d79       ?state_case_normal_tchar@?$output_processor@DV?$string_output_adapter@D@__crt_stdio_output@@V?$format_validation_base@DV?$string_output_adapter@D@__crt_stdio_output@@@2@@__crt_stdio_output@@AAE_ND@Z 00468d79 f i libucrt:output.obj
 0001:00067dda       ?state_case_precision@?$output_processor@DV?$stream_output_adapter@D@__crt_stdio_output@@V?$standard_base@DV?$stream_output_adapter@D@__crt_stdio_output@@@2@@__crt_stdio_output@@AAE_NXZ 00468dda f i libucrt:output.obj
 0001:00067dda       ?state_case_precision@?$output_processor@DV?$string_output_adapter@D@__crt_stdio_output@@V?$format_validation_base@DV?$string_output_adapter@D@__crt_stdio_output@@@2@@__crt_stdio_output@@AAE_NXZ 00468dda f i libucrt:output.obj
 0001:00067dda       ?state_case_precision@?$output_processor@DV?$string_output_adapter@D@__crt_stdio_output@@V?$standard_base@DV?$string_output_adapter@D@__crt_stdio_output@@@2@@__crt_stdio_output@@AAE_NXZ 00468dda f i libucrt:output.obj
 0001:00067e02       ?state_case_precision@?$output_processor@_WV?$string_output_adapter@_W@__crt_stdio_output@@V?$standard_base@_WV?$string_output_adapter@_W@__crt_stdio_output@@@2@@__crt_stdio_output@@AAE_NXZ 00468e02 f i libucrt:output.obj
 0001:00067e02       ?state_case_precision@?$output_processor@_WV?$string_output_adapter@_W@__crt_stdio_output@@V?$format_validation_base@_WV?$string_output_adapter@_W@__crt_stdio_output@@@2@@__crt_stdio_output@@AAE_NXZ 00468e02 f i libucrt:output.obj
 0001:00067e2b       ?state_case_size@?$output_processor@DV?$stream_output_adapter@D@__crt_stdio_output@@V?$standard_base@DV?$stream_output_adapter@D@__crt_stdio_output@@@2@@__crt_stdio_output@@AAE_NXZ 00468e2b f i libucrt:output.obj
 0001:00067f94       ?state_case_size@?$output_processor@DV?$string_output_adapter@D@__crt_stdio_output@@V?$standard_base@DV?$string_output_adapter@D@__crt_stdio_output@@@2@@__crt_stdio_output@@AAE_NXZ 00468f94 f i libucrt:output.obj
 0001:00067f94       ?state_case_size@?$output_processor@DV?$string_output_adapter@D@__crt_stdio_output@@V?$format_validation_base@DV?$string_output_adapter@D@__crt_stdio_output@@@2@@__crt_stdio_output@@AAE_NXZ 00468f94 f i libucrt:output.obj
 0001:000680fd       ?state_case_size@?$output_processor@_WV?$string_output_adapter@_W@__crt_stdio_output@@V?$standard_base@_WV?$string_output_adapter@_W@__crt_stdio_output@@@2@@__crt_stdio_output@@AAE_NXZ 004690fd f i libucrt:output.obj
 0001:000680fd       ?state_case_size@?$output_processor@_WV?$string_output_adapter@_W@__crt_stdio_output@@V?$format_validation_base@_WV?$string_output_adapter@_W@__crt_stdio_output@@@2@@__crt_stdio_output@@AAE_NXZ 004690fd f i libucrt:output.obj
 0001:00068279       ?state_case_type@?$output_processor@DV?$stream_output_adapter@D@__crt_stdio_output@@V?$standard_base@DV?$stream_output_adapter@D@__crt_stdio_output@@@2@@__crt_stdio_output@@AAE_NXZ 00469279 f i libucrt:output.obj
 0001:000684a8       ?state_case_type@?$output_processor@DV?$string_output_adapter@D@__crt_stdio_output@@V?$format_validation_base@DV?$string_output_adapter@D@__crt_stdio_output@@@2@@__crt_stdio_output@@AAE_NXZ 004694a8 f i libucrt:output.obj
 0001:000684a8       ?state_case_type@?$output_processor@DV?$string_output_adapter@D@__crt_stdio_output@@V?$standard_base@DV?$string_output_adapter@D@__crt_stdio_output@@@2@@__crt_stdio_output@@AAE_NXZ 004694a8 f i libucrt:output.obj
 0001:000686d7       ?state_case_type@?$output_processor@_WV?$string_output_adapter@_W@__crt_stdio_output@@V?$standard_base@_WV?$string_output_adapter@_W@__crt_stdio_output@@@2@@__crt_stdio_output@@AAE_NXZ 004696d7 f i libucrt:output.obj
 0001:000686d7       ?state_case_type@?$output_processor@_WV?$string_output_adapter@_W@__crt_stdio_output@@V?$format_validation_base@_WV?$string_output_adapter@_W@__crt_stdio_output@@@2@@__crt_stdio_output@@AAE_NXZ 004696d7 f i libucrt:output.obj
 0001:00068934       ?state_case_width@?$output_processor@DV?$string_output_adapter@D@__crt_stdio_output@@V?$format_validation_base@DV?$string_output_adapter@D@__crt_stdio_output@@@2@@__crt_stdio_output@@AAE_NXZ 00469934 f i libucrt:output.obj
 0001:00068934       ?state_case_width@?$output_processor@DV?$string_output_adapter@D@__crt_stdio_output@@V?$standard_base@DV?$string_output_adapter@D@__crt_stdio_output@@@2@@__crt_stdio_output@@AAE_NXZ 00469934 f i libucrt:output.obj
 0001:00068934       ?state_case_width@?$output_processor@DV?$stream_output_adapter@D@__crt_stdio_output@@V?$standard_base@DV?$stream_output_adapter@D@__crt_stdio_output@@@2@@__crt_stdio_output@@AAE_NXZ 00469934 f i libucrt:output.obj
 0001:0006895f       ?state_case_width@?$output_processor@_WV?$string_output_adapter@_W@__crt_stdio_output@@V?$standard_base@_WV?$string_output_adapter@_W@__crt_stdio_output@@@2@@__crt_stdio_output@@AAE_NXZ 0046995f f i libucrt:output.obj
 0001:0006895f       ?state_case_width@?$output_processor@_WV?$string_output_adapter@_W@__crt_stdio_output@@V?$format_validation_base@_WV?$string_output_adapter@_W@__crt_stdio_output@@@2@@__crt_stdio_output@@AAE_NXZ 0046995f f i libucrt:output.obj
 0001:0006898b       ?to_integer_size@__crt_stdio_output@@YAIW4length_modifier@1@@Z 0046998b f i libucrt:output.obj
 0001:000689e7       ?type_case_Z@?$output_processor@DV?$string_output_adapter@D@__crt_stdio_output@@V?$standard_base@DV?$string_output_adapter@D@__crt_stdio_output@@@2@@__crt_stdio_output@@AAE_NXZ 004699e7 f i libucrt:output.obj
 0001:000689e7       ?type_case_Z@?$output_processor@DV?$string_output_adapter@D@__crt_stdio_output@@V?$format_validation_base@DV?$string_output_adapter@D@__crt_stdio_output@@@2@@__crt_stdio_output@@AAE_NXZ 004699e7 f i libucrt:output.obj
 0001:000689e7       ?type_case_Z@?$output_processor@DV?$stream_output_adapter@D@__crt_stdio_output@@V?$standard_base@DV?$stream_output_adapter@D@__crt_stdio_output@@@2@@__crt_stdio_output@@AAE_NXZ 004699e7 f i libucrt:output.obj
 0001:00068a4a       ?type_case_Z@?$output_processor@_WV?$string_output_adapter@_W@__crt_stdio_output@@V?$format_validation_base@_WV?$string_output_adapter@_W@__crt_stdio_output@@@2@@__crt_stdio_output@@AAE_NXZ 00469a4a f i libucrt:output.obj
 0001:00068a4a       ?type_case_Z@?$output_processor@_WV?$string_output_adapter@_W@__crt_stdio_output@@V?$standard_base@_WV?$string_output_adapter@_W@__crt_stdio_output@@@2@@__crt_stdio_output@@AAE_NXZ 00469a4a f i libucrt:output.obj
 0001:00068aad       ?type_case_a@?$output_processor@DV?$string_output_adapter@D@__crt_stdio_output@@V?$standard_base@DV?$string_output_adapter@D@__crt_stdio_output@@@2@@__crt_stdio_output@@AAE_NXZ 00469aad f i libucrt:output.obj
 0001:00068aad       ?type_case_a@?$output_processor@DV?$string_output_adapter@D@__crt_stdio_output@@V?$format_validation_base@DV?$string_output_adapter@D@__crt_stdio_output@@@2@@__crt_stdio_output@@AAE_NXZ 00469aad f i libucrt:output.obj
 0001:00068aad       ?type_case_a@?$output_processor@DV?$stream_output_adapter@D@__crt_stdio_output@@V?$standard_base@DV?$stream_output_adapter@D@__crt_stdio_output@@@2@@__crt_stdio_output@@AAE_NXZ 00469aad f i libucrt:output.obj
 0001:00068c07       ?type_case_a@?$output_processor@_WV?$string_output_adapter@_W@__crt_stdio_output@@V?$standard_base@_WV?$string_output_adapter@_W@__crt_stdio_output@@@2@@__crt_stdio_output@@AAE_NXZ 00469c07 f i libucrt:output.obj
 0001:00068c07       ?type_case_a@?$output_processor@_WV?$string_output_adapter@_W@__crt_stdio_output@@V?$format_validation_base@_WV?$string_output_adapter@_W@__crt_stdio_output@@@2@@__crt_stdio_output@@AAE_NXZ 00469c07 f i libucrt:output.obj
 0001:00068d79       ?type_case_c_tchar@?$output_processor@DV?$string_output_adapter@D@__crt_stdio_output@@V?$standard_base@DV?$string_output_adapter@D@__crt_stdio_output@@@2@@__crt_stdio_output@@AAE_ND@Z 00469d79 f i libucrt:output.obj
 0001:00068d79       ?type_case_c_tchar@?$output_processor@DV?$string_output_adapter@D@__crt_stdio_output@@V?$format_validation_base@DV?$string_output_adapter@D@__crt_stdio_output@@@2@@__crt_stdio_output@@AAE_ND@Z 00469d79 f i libucrt:output.obj
 0001:00068d79       ?type_case_c_tchar@?$output_processor@DV?$stream_output_adapter@D@__crt_stdio_output@@V?$standard_base@DV?$stream_output_adapter@D@__crt_stdio_output@@@2@@__crt_stdio_output@@AAE_ND@Z 00469d79 f i libucrt:output.obj
 0001:00068e09       ?type_case_c_tchar@?$output_processor@_WV?$string_output_adapter@_W@__crt_stdio_output@@V?$format_validation_base@_WV?$string_output_adapter@_W@__crt_stdio_output@@@2@@__crt_stdio_output@@AAE_N_W@Z 00469e09 f i libucrt:output.obj
 0001:00068e09       ?type_case_c_tchar@?$output_processor@_WV?$string_output_adapter@_W@__crt_stdio_output@@V?$standard_base@_WV?$string_output_adapter@_W@__crt_stdio_output@@@2@@__crt_stdio_output@@AAE_N_W@Z 00469e09 f i libucrt:output.obj
 0001:00068ea1       ?type_case_integer@?$output_processor@_WV?$string_output_adapter@_W@__crt_stdio_output@@V?$standard_base@_WV?$string_output_adapter@_W@__crt_stdio_output@@@2@@__crt_stdio_output@@AAE_NI_N@Z 00469ea1 f i libucrt:output.obj
 0001:00068ea1       ?type_case_integer@?$output_processor@_WV?$string_output_adapter@_W@__crt_stdio_output@@V?$format_validation_base@_WV?$string_output_adapter@_W@__crt_stdio_output@@@2@@__crt_stdio_output@@AAE_NI_N@Z 00469ea1 f i libucrt:output.obj
 0001:00068ea1       ?type_case_integer@?$output_processor@DV?$string_output_adapter@D@__crt_stdio_output@@V?$standard_base@DV?$string_output_adapter@D@__crt_stdio_output@@@2@@__crt_stdio_output@@AAE_NI_N@Z 00469ea1 f i libucrt:output.obj
 0001:00068ea1       ?type_case_integer@?$output_processor@DV?$string_output_adapter@D@__crt_stdio_output@@V?$format_validation_base@DV?$string_output_adapter@D@__crt_stdio_output@@@2@@__crt_stdio_output@@AAE_NI_N@Z 00469ea1 f i libucrt:output.obj
 0001:00068ea1       ?type_case_integer@?$output_processor@DV?$stream_output_adapter@D@__crt_stdio_output@@V?$standard_base@DV?$stream_output_adapter@D@__crt_stdio_output@@@2@@__crt_stdio_output@@AAE_NI_N@Z 00469ea1 f i libucrt:output.obj
 0001:00068feb       ?type_case_n@?$output_processor@_WV?$string_output_adapter@_W@__crt_stdio_output@@V?$standard_base@_WV?$string_output_adapter@_W@__crt_stdio_output@@@2@@__crt_stdio_output@@AAE_NXZ 00469feb f i libucrt:output.obj
 0001:00068feb       ?type_case_n@?$output_processor@DV?$stream_output_adapter@D@__crt_stdio_output@@V?$standard_base@DV?$stream_output_adapter@D@__crt_stdio_output@@@2@@__crt_stdio_output@@AAE_NXZ 00469feb f i libucrt:output.obj
 0001:00068feb       ?type_case_n@?$output_processor@DV?$string_output_adapter@D@__crt_stdio_output@@V?$standard_base@DV?$string_output_adapter@D@__crt_stdio_output@@@2@@__crt_stdio_output@@AAE_NXZ 00469feb f i libucrt:output.obj
 0001:00068feb       ?type_case_n@?$output_processor@DV?$string_output_adapter@D@__crt_stdio_output@@V?$format_validation_base@DV?$string_output_adapter@D@__crt_stdio_output@@@2@@__crt_stdio_output@@AAE_NXZ 00469feb f i libucrt:output.obj
 0001:00068feb       ?type_case_n@?$output_processor@_WV?$string_output_adapter@_W@__crt_stdio_output@@V?$format_validation_base@_WV?$string_output_adapter@_W@__crt_stdio_output@@@2@@__crt_stdio_output@@AAE_NXZ 00469feb f i libucrt:output.obj
 0001:0006905f       ?type_case_o@?$output_processor@_WV?$string_output_adapter@_W@__crt_stdio_output@@V?$standard_base@_WV?$string_output_adapter@_W@__crt_stdio_output@@@2@@__crt_stdio_output@@AAE_NXZ 0046a05f f i libucrt:output.obj
 0001:0006905f       ?type_case_o@?$output_processor@_WV?$string_output_adapter@_W@__crt_stdio_output@@V?$format_validation_base@_WV?$string_output_adapter@_W@__crt_stdio_output@@@2@@__crt_stdio_output@@AAE_NXZ 0046a05f f i libucrt:output.obj
 0001:0006905f       ?type_case_o@?$output_processor@DV?$string_output_adapter@D@__crt_stdio_output@@V?$standard_base@DV?$string_output_adapter@D@__crt_stdio_output@@@2@@__crt_stdio_output@@AAE_NXZ 0046a05f f i libucrt:output.obj
 0001:0006905f       ?type_case_o@?$output_processor@DV?$stream_output_adapter@D@__crt_stdio_output@@V?$standard_base@DV?$stream_output_adapter@D@__crt_stdio_output@@@2@@__crt_stdio_output@@AAE_NXZ 0046a05f f i libucrt:output.obj
 0001:0006905f       ?type_case_o@?$output_processor@DV?$string_output_adapter@D@__crt_stdio_output@@V?$format_validation_base@DV?$string_output_adapter@D@__crt_stdio_output@@@2@@__crt_stdio_output@@AAE_NXZ 0046a05f f i libucrt:output.obj
 0001:0006907e       ?type_case_p@?$output_processor@DV?$stream_output_adapter@D@__crt_stdio_output@@V?$standard_base@DV?$stream_output_adapter@D@__crt_stdio_output@@@2@@__crt_stdio_output@@AAE_NXZ 0046a07e f i libucrt:output.obj
 0001:0006907e       ?type_case_p@?$output_processor@_WV?$string_output_adapter@_W@__crt_stdio_output@@V?$format_validation_base@_WV?$string_output_adapter@_W@__crt_stdio_output@@@2@@__crt_stdio_output@@AAE_NXZ 0046a07e f i libucrt:output.obj
 0001:0006907e       ?type_case_p@?$output_processor@DV?$string_output_adapter@D@__crt_stdio_output@@V?$standard_base@DV?$string_output_adapter@D@__crt_stdio_output@@@2@@__crt_stdio_output@@AAE_NXZ 0046a07e f i libucrt:output.obj
 0001:0006907e       ?type_case_p@?$output_processor@DV?$string_output_adapter@D@__crt_stdio_output@@V?$format_validation_base@DV?$string_output_adapter@D@__crt_stdio_output@@@2@@__crt_stdio_output@@AAE_NXZ 0046a07e f i libucrt:output.obj
 0001:0006907e       ?type_case_p@?$output_processor@_WV?$string_output_adapter@_W@__crt_stdio_output@@V?$standard_base@_WV?$string_output_adapter@_W@__crt_stdio_output@@@2@@__crt_stdio_output@@AAE_NXZ 0046a07e f i libucrt:output.obj
 0001:00069096       ?type_case_s@?$output_processor@DV?$string_output_adapter@D@__crt_stdio_output@@V?$standard_base@DV?$string_output_adapter@D@__crt_stdio_output@@@2@@__crt_stdio_output@@AAE_NXZ 0046a096 f i libucrt:output.obj
 0001:00069096       ?type_case_s@?$output_processor@DV?$string_output_adapter@D@__crt_stdio_output@@V?$format_validation_base@DV?$string_output_adapter@D@__crt_stdio_output@@@2@@__crt_stdio_output@@AAE_NXZ 0046a096 f i libucrt:output.obj
 0001:00069096       ?type_case_s@?$output_processor@DV?$stream_output_adapter@D@__crt_stdio_output@@V?$standard_base@DV?$stream_output_adapter@D@__crt_stdio_output@@@2@@__crt_stdio_output@@AAE_NXZ 0046a096 f i libucrt:output.obj
 0001:00069109       ?type_case_s@?$output_processor@_WV?$string_output_adapter@_W@__crt_stdio_output@@V?$standard_base@_WV?$string_output_adapter@_W@__crt_stdio_output@@@2@@__crt_stdio_output@@AAE_NXZ 0046a109 f i libucrt:output.obj
 0001:00069109       ?type_case_s@?$output_processor@_WV?$string_output_adapter@_W@__crt_stdio_output@@V?$format_validation_base@_WV?$string_output_adapter@_W@__crt_stdio_output@@@2@@__crt_stdio_output@@AAE_NXZ 0046a109 f i libucrt:output.obj
 0001:0006917d       ?type_case_s_compute_narrow_string_length@?$output_processor@_WV?$string_output_adapter@_W@__crt_stdio_output@@V?$format_validation_base@_WV?$string_output_adapter@_W@__crt_stdio_output@@@2@@__crt_stdio_output@@ABEHH_W@Z 0046a17d f i libucrt:output.obj
 0001:0006917d       ?type_case_s_compute_narrow_string_length@?$output_processor@_WV?$string_output_adapter@_W@__crt_stdio_output@@V?$standard_base@_WV?$string_output_adapter@_W@__crt_stdio_output@@@2@@__crt_stdio_output@@ABEHH_W@Z 0046a17d f i libucrt:output.obj
 0001:000691bd       ?validate@?$stream_output_adapter@D@__crt_stdio_output@@QBE_NXZ 0046a1bd f i libucrt:output.obj
 0001:000691de       ?validate@?$c_string_character_source@_W@__crt_strtox@@QBE_NXZ 0046a1de f i libucrt:atox.obj
 0001:000691de       ?validate@?$string_output_adapter@_W@__crt_stdio_output@@QBE_NXZ 0046a1de f i libucrt:output.obj
 0001:000691de       ?validate@?$c_string_character_source@D@__crt_strtox@@QBE_NXZ 0046a1de f i libucrt:atox.obj
 0001:000691de       ?validate@?$string_output_adapter@D@__crt_stdio_output@@QBE_NXZ 0046a1de f i libucrt:output.obj
 0001:000691f9       ?validate_and_update_state_at_end_of_format_string@?$format_validation_base@DV?$string_output_adapter@D@__crt_stdio_output@@@__crt_stdio_output@@IBE_NXZ 0046a1f9 f i libucrt:output.obj
 0001:000691f9       ?validate_and_update_state_at_end_of_format_string@?$format_validation_base@_WV?$string_output_adapter@_W@__crt_stdio_output@@@__crt_stdio_output@@IBE_NXZ 0046a1f9 f i libucrt:output.obj
 0001:0006921b       ?validate_stream_is_ansi_if_required@?$__acrt_stdio_char_traits@D@@SA_NQAU_iobuf@@@Z 0046a21b f i libucrt:output.obj
 0001:0006929d       ?write_character@?$stream_output_adapter@D@__crt_stdio_output@@QBEXDQAH@Z 0046a29d f i libucrt:output.obj
 0001:000692da       ?write_character@?$string_output_adapter@D@__crt_stdio_output@@QBE_NDQAH@Z 0046a2da f i libucrt:output.obj
 0001:0006931c       ?write_character@?$string_output_adapter@_W@__crt_stdio_output@@QBE_N_WQAH@Z 0046a31c f i libucrt:output.obj
 0001:00069361       ?write_stored_string_tchar@?$output_processor@DV?$stream_output_adapter@D@__crt_stdio_output@@V?$standard_base@DV?$stream_output_adapter@D@__crt_stdio_output@@@2@@__crt_stdio_output@@AAE_ND@Z 0046a361 f i libucrt:output.obj
 0001:00069408       ?write_stored_string_tchar@?$output_processor@DV?$string_output_adapter@D@__crt_stdio_output@@V?$format_validation_base@DV?$string_output_adapter@D@__crt_stdio_output@@@2@@__crt_stdio_output@@AAE_ND@Z 0046a408 f i libucrt:output.obj
 0001:00069408       ?write_stored_string_tchar@?$output_processor@DV?$string_output_adapter@D@__crt_stdio_output@@V?$standard_base@DV?$string_output_adapter@D@__crt_stdio_output@@@2@@__crt_stdio_output@@AAE_ND@Z 0046a408 f i libucrt:output.obj
 0001:000694af       ?write_stored_string_tchar@?$output_processor@_WV?$string_output_adapter@_W@__crt_stdio_output@@V?$format_validation_base@_WV?$string_output_adapter@_W@__crt_stdio_output@@@2@@__crt_stdio_output@@AAE_N_W@Z 0046a4af f i libucrt:output.obj
 0001:000694af       ?write_stored_string_tchar@?$output_processor@_WV?$string_output_adapter@_W@__crt_stdio_output@@V?$standard_base@_WV?$string_output_adapter@_W@__crt_stdio_output@@@2@@__crt_stdio_output@@AAE_N_W@Z 0046a4af f i libucrt:output.obj
 0001:0006953a       ?write_string@?$stream_output_adapter@D@__crt_stdio_output@@QBEXQBDHQAH1@Z 0046a53a f i libucrt:output.obj
 0001:000695c4       ?write_string@?$string_output_adapter@D@__crt_stdio_output@@QBEXQBDHQAH1@Z 0046a5c4 f i libucrt:output.obj
 0001:00069657       ?write_string@?$string_output_adapter@_W@__crt_stdio_output@@QBEXQB_WHQAH1@Z 0046a657 f i libucrt:output.obj
 0001:000696f1       ___stdio_common_vfprintf   0046a6f1 f   libucrt:output.obj
 0001:00069768       ___stdio_common_vsprintf   0046a768 f   libucrt:output.obj
 0001:0006978c       ___stdio_common_vsprintf_s 0046a78c f   libucrt:output.obj
 0001:000697b0       ___stdio_common_vswprintf  0046a7b0 f   libucrt:output.obj
 0001:000697d4       ___stdio_common_vswprintf_s 0046a7d4 f   libucrt:output.obj
 0001:000697f8       __fclose_nolock            0046a7f8 f   libucrt:fclose.obj
 0001:0006986e       _fclose                    0046a86e f   libucrt:fclose.obj
 0001:000699af       _fopen                     0046a9af f   libucrt:fopen.obj
 0001:000699c6       ??$?RV<lambda_b0cac3301889906f8da68b04e3d9a7f4>@@AAV<lambda_9a20e10065b92b5193c3597a66cba9d4>@@V<lambda_24b35df97fd4c1fecac72a72d95cc146>@@@?$__crt_seh_guarded_call@H@@QAEH$$QAV<lambda_b0cac3301889906f8da68b04e3d9a7f4>@@AAV<lambda_9a20e10065b92b5193c3597a66cba9d4>@@$$QAV<lambda_24b35df97fd4c1fecac72a72d95cc146>@@@Z 0046a9c6 f i libucrt:fputs.obj
 0001:00069a17       ??$__acrt_lock_stream_and_call@V<lambda_9a20e10065b92b5193c3597a66cba9d4>@@@@YAHQAU_iobuf@@$$QAV<lambda_9a20e10065b92b5193c3597a66cba9d4>@@@Z 0046aa17 f i libucrt:fputs.obj
 0001:00069a8d       _fputs                     0046aa8d f   libucrt:fputs.obj
 0001:00069b68       _remove                    0046ab68 f   libucrt:unlink.obj
 0001:00069bb5       __access                   0046abb5 f   libucrt:access.obj
 0001:00069bcd       __access_s                 0046abcd f   libucrt:access.obj
 0001:00069c22       __chmod                    0046ac22 f   libucrt:chmod.obj
 0001:00069c77       _localeconv                0046ac77 f   libucrt:localeconv.obj
 0001:00069ca1       ??$assemble_floating_point_ind@N@__crt_strtox@@YAXAAN@Z 0046aca1 f i libucrt:input.obj
 0001:00069cd0       ??$assemble_floating_point_infinity@N@__crt_strtox@@YAX_NAAN@Z 0046acd0 f i libucrt:input.obj
 0001:00069d0f       ??$assemble_floating_point_qnan@N@__crt_strtox@@YAX_NAAN@Z 0046ad0f f i libucrt:input.obj
 0001:00069d4e       ??$assemble_floating_point_snan@N@__crt_strtox@@YAX_NAAN@Z 0046ad4e f i libucrt:input.obj
 0001:00069d92       ??$assemble_floating_point_value_t@M@__crt_strtox@@YA?AW4SLD_STATUS@@_NH_KAAM@Z 0046ad92 f i libucrt:input.obj
 0001:00069dc2       ??$assemble_floating_point_value_t@N@__crt_strtox@@YA?AW4SLD_STATUS@@_NH_KAAN@Z 0046adc2 f i libucrt:input.obj
 0001:00069e21       ??$assemble_floating_point_zero@N@__crt_strtox@@YAX_NAAN@Z 0046ae21 f i libucrt:input.obj
 0001:00069fce       ??$convert_decimal_string_to_floating_type@M@__crt_strtox@@YA?AW4SLD_STATUS@@ABUfloating_point_string@0@AAM@Z 0046afce f i libucrt:input.obj
 0001:00069ff1       ??$convert_decimal_string_to_floating_type@N@__crt_strtox@@YA?AW4SLD_STATUS@@ABUfloating_point_string@0@AAN@Z 0046aff1 f i libucrt:input.obj
 0001:0006a014       ??$convert_hexadecimal_string_to_floating_type@M@__crt_strtox@@YA?AW4SLD_STATUS@@ABUfloating_point_string@0@AAM@Z 0046b014 f i libucrt:input.obj
 0001:0006a037       ??$convert_hexadecimal_string_to_floating_type@N@__crt_strtox@@YA?AW4SLD_STATUS@@ABUfloating_point_string@0@AAN@Z 0046b037 f i libucrt:input.obj
 0001:0006a05a       ??$make_input_adapter_character_source@V?$string_input_adapter@D@__crt_stdio_input@@@__crt_strtox@@YA?AV?$input_adapter_character_source@V?$string_input_adapter@D@__crt_stdio_input@@@0@QAV?$string_input_adapter@D@__crt_stdio_input@@_KQA_N@Z 0046b05a f i libucrt:input.obj
 0001:0006a05a       ??$make_input_adapter_character_source@V?$string_input_adapter@_W@__crt_stdio_input@@@__crt_strtox@@YA?AV?$input_adapter_character_source@V?$string_input_adapter@_W@__crt_stdio_input@@@0@QAV?$string_input_adapter@_W@__crt_stdio_input@@_KQA_N@Z 0046b05a f i libucrt:input.obj
 0001:0006a078       ??$parse_floating_point@V?$input_adapter_character_source@V?$string_input_adapter@D@__crt_stdio_input@@@__crt_strtox@@M@__crt_strtox@@YA?AW4SLD_STATUS@@QAU__crt_locale_pointers@@V?$input_adapter_character_source@V?$string_input_adapter@D@__crt_stdio_input@@@0@QAM@Z 0046b078 f i libucrt:input.obj
 0001:0006a0f3       ??$parse_floating_point@V?$input_adapter_character_source@V?$string_input_adapter@D@__crt_stdio_input@@@__crt_strtox@@N@__crt_strtox@@YA?AW4SLD_STATUS@@QAU__crt_locale_pointers@@V?$input_adapter_character_source@V?$string_input_adapter@D@__crt_stdio_input@@@0@QAN@Z 0046b0f3 f i libucrt:input.obj
 0001:0006a16e       ??$parse_floating_point@V?$input_adapter_character_source@V?$string_input_adapter@_W@__crt_stdio_input@@@__crt_strtox@@M@__crt_strtox@@YA?AW4SLD_STATUS@@QAU__crt_locale_pointers@@V?$input_adapter_character_source@V?$string_input_adapter@_W@__crt_stdio_input@@@0@QAM@Z 0046b16e f i libucrt:input.obj
 0001:0006a1e9       ??$parse_floating_point@V?$input_adapter_character_source@V?$string_input_adapter@_W@__crt_stdio_input@@@__crt_strtox@@N@__crt_strtox@@YA?AW4SLD_STATUS@@QAU__crt_locale_pointers@@V?$input_adapter_character_source@V?$string_input_adapter@_W@__crt_stdio_input@@@0@QAN@Z 0046b1e9 f i libucrt:input.obj
 0001:0006a264       ??$parse_floating_point_from_source@V?$input_adapter_character_source@V?$string_input_adapter@D@__crt_stdio_input@@@__crt_strtox@@@__crt_strtox@@YA?AW4floating_point_parse_result@0@QAU__crt_locale_pointers@@AAV?$input_adapter_character_source@V?$string_input_adapter@D@__crt_stdio_input@@@0@AAUfloating_point_string@0@@Z 0046b264 f i libucrt:input.obj
 0001:0006a6cb       ??$parse_floating_point_from_source@V?$input_adapter_character_source@V?$string_input_adapter@_W@__crt_stdio_input@@@__crt_strtox@@@__crt_strtox@@YA?AW4floating_point_parse_result@0@QAU__crt_locale_pointers@@AAV?$input_adapter_character_source@V?$string_input_adapter@_W@__crt_stdio_input@@@0@AAUfloating_point_string@0@@Z 0046b6cb f i libucrt:input.obj
 0001:0006b4f9       ??$parse_floating_point_possible_infinity@DV?$input_adapter_character_source@V?$string_input_adapter@D@__crt_stdio_input@@@__crt_strtox@@_K@__crt_strtox@@YA?AW4floating_point_parse_result@0@AADAAV?$input_adapter_character_source@V?$string_input_adapter@D@__crt_stdio_input@@@0@_K@Z 0046c4f9 f i libucrt:input.obj
 0001:0006b5ba       ??$parse_floating_point_possible_infinity@_WV?$input_adapter_character_source@V?$string_input_adapter@_W@__crt_stdio_input@@@__crt_strtox@@_K@__crt_strtox@@YA?AW4floating_point_parse_result@0@AA_WAAV?$input_adapter_character_source@V?$string_input_adapter@_W@__crt_stdio_input@@@0@_K@Z 0046c5ba f i libucrt:input.obj
 0001:0006b689       ??$parse_floating_point_possible_nan@DV?$input_adapter_character_source@V?$string_input_adapter@D@__crt_stdio_input@@@__crt_strtox@@_K@__crt_strtox@@YA?AW4floating_point_parse_result@0@AADAAV?$input_adapter_character_source@V?$string_input_adapter@D@__crt_stdio_input@@@0@_K@Z 0046c689 f i libucrt:input.obj
 0001:0006b79b       ??$parse_floating_point_possible_nan@_WV?$input_adapter_character_source@V?$string_input_adapter@_W@__crt_stdio_input@@@__crt_strtox@@_K@__crt_strtox@@YA?AW4floating_point_parse_result@0@AA_WAAV?$input_adapter_character_source@V?$string_input_adapter@_W@__crt_stdio_input@@@0@_K@Z 0046c79b f i libucrt:input.obj
 0001:0006b8c7       ??$parse_floating_point_possible_nan_is_ind@DV?$input_adapter_character_source@V?$string_input_adapter@D@__crt_stdio_input@@@__crt_strtox@@@__crt_strtox@@YA_NAADAAV?$input_adapter_character_source@V?$string_input_adapter@D@__crt_stdio_input@@@0@@Z 0046c8c7 f i libucrt:input.obj
 0001:0006b901       ??$parse_floating_point_possible_nan_is_ind@_WV?$input_adapter_character_source@V?$string_input_adapter@_W@__crt_stdio_input@@@__crt_strtox@@@__crt_strtox@@YA_NAA_WAAV?$input_adapter_character_source@V?$string_input_adapter@_W@__crt_stdio_input@@@0@@Z 0046c901 f i libucrt:input.obj
 0001:0006b941       ??$parse_floating_point_possible_nan_is_snan@DV?$input_adapter_character_source@V?$string_input_adapter@D@__crt_stdio_input@@@__crt_strtox@@@__crt_strtox@@YA_NAADAAV?$input_adapter_character_source@V?$string_input_adapter@D@__crt_stdio_input@@@0@@Z 0046c941 f i libucrt:input.obj
 0001:0006b97b       ??$parse_floating_point_possible_nan_is_snan@_WV?$input_adapter_character_source@V?$string_input_adapter@_W@__crt_stdio_input@@@__crt_strtox@@@__crt_strtox@@YA_NAA_WAAV?$input_adapter_character_source@V?$string_input_adapter@_W@__crt_stdio_input@@@0@@Z 0046c97b f i libucrt:input.obj
 0001:0006b9bb       ??$parse_floating_point_write_result@M@__crt_strtox@@YA?AW4SLD_STATUS@@W4floating_point_parse_result@0@ABUfloating_point_string@0@QAM@Z 0046c9bb f i libucrt:input.obj
 0001:0006bacb       ??$parse_floating_point_write_result@N@__crt_strtox@@YA?AW4SLD_STATUS@@W4floating_point_parse_result@0@ABUfloating_point_string@0@QAN@Z 0046cacb f i libucrt:input.obj
 0001:0006bbcf       ??$parse_integer@_KV?$input_adapter_character_source@V?$string_input_adapter@D@__crt_stdio_input@@@__crt_strtox@@@__crt_strtox@@YA_KQAU__crt_locale_pointers@@V?$input_adapter_character_source@V?$string_input_adapter@D@__crt_stdio_input@@@0@H_N@Z 0046cbcf f i libucrt:input.obj
 0001:0006be80       ??$parse_integer@_KV?$input_adapter_character_source@V?$string_input_adapter@_W@__crt_stdio_input@@@__crt_strtox@@@__crt_strtox@@YA_KQAU__crt_locale_pointers@@V?$input_adapter_character_source@V?$string_input_adapter@_W@__crt_stdio_input@@@0@H_N@Z 0046ce80 f i libucrt:input.obj
 0001:0006c47f       ??$process_floating_point_specifier_t@M@?$input_processor@DV?$string_input_adapter@D@__crt_stdio_input@@@__crt_stdio_input@@AAE_NXZ 0046d47f f i libucrt:input.obj
 0001:0006c4e7       ??$process_floating_point_specifier_t@M@?$input_processor@_WV?$string_input_adapter@_W@__crt_stdio_input@@@__crt_stdio_input@@AAE_NXZ 0046d4e7 f i libucrt:input.obj
 0001:0006c54f       ??$process_floating_point_specifier_t@N@?$input_processor@DV?$string_input_adapter@D@__crt_stdio_input@@@__crt_stdio_input@@AAE_NXZ 0046d54f f i libucrt:input.obj
 0001:0006c5b7       ??$process_floating_point_specifier_t@N@?$input_processor@_WV?$string_input_adapter@_W@__crt_stdio_input@@@__crt_stdio_input@@AAE_NXZ 0046d5b7 f i libucrt:input.obj
 0001:0006c61f       ??$process_string_specifier_tchar@D@?$input_processor@DV?$string_input_adapter@D@__crt_stdio_input@@@__crt_stdio_input@@AAE_NW4conversion_mode@1@D@Z 0046d61f f i libucrt:input.obj
 0001:0006c781       ??$process_string_specifier_tchar@D@?$input_processor@_WV?$string_input_adapter@_W@__crt_stdio_input@@@__crt_stdio_input@@AAE_NW4conversion_mode@1@D@Z 0046d781 f i libucrt:input.obj
 0001:0006c8ec       ??$process_string_specifier_tchar@_W@?$input_processor@DV?$string_input_adapter@D@__crt_stdio_input@@@__crt_stdio_input@@AAE_NW4conversion_mode@1@_W@Z 0046d8ec f i libucrt:input.obj
 0001:0006ca58       ??$process_string_specifier_tchar@_W@?$input_processor@_WV?$string_input_adapter@_W@__crt_stdio_input@@@__crt_stdio_input@@AAE_NW4conversion_mode@1@_W@Z 0046da58 f i libucrt:input.obj
 0001:0006cbc4       ??$skip_whitespace@Vstring_input_adapter@__crt_stdio_input@@D@__crt_stdio_input@@YAHAAV?$string_input_adapter@D@0@QAU__crt_locale_pointers@@@Z 0046dbc4 f i libucrt:input.obj
 0001:0006cbf3       ??$skip_whitespace@Vstring_input_adapter@__crt_stdio_input@@_W@__crt_stdio_input@@YAGAAV?$string_input_adapter@_W@0@QAU__crt_locale_pointers@@@Z 0046dbf3 f i libucrt:input.obj
 0001:0006cc22       ??$write_floating_point@M@?$input_processor@DV?$string_input_adapter@D@__crt_stdio_input@@@__crt_stdio_input@@AAE_NABM@Z 0046dc22 f i libucrt:input.obj
 0001:0006cc59       ??$write_floating_point@M@?$input_processor@_WV?$string_input_adapter@_W@__crt_stdio_input@@@__crt_stdio_input@@AAE_NABM@Z 0046dc59 f i libucrt:input.obj
 0001:0006cc90       ??$write_floating_point@N@?$input_processor@DV?$string_input_adapter@D@__crt_stdio_input@@@__crt_stdio_input@@AAE_NABN@Z 0046dc90 f i libucrt:input.obj
 0001:0006cccd       ??$write_floating_point@N@?$input_processor@_WV?$string_input_adapter@_W@__crt_stdio_input@@@__crt_stdio_input@@AAE_NABN@Z 0046dccd f i libucrt:input.obj
 0001:0006cd0a       ??0?$format_string_parser@D@__crt_stdio_input@@QAE@_KQBE@Z 0046dd0a f i libucrt:input.obj
 0001:0006cd54       ??0?$format_string_parser@_W@__crt_stdio_input@@QAE@_KQB_W@Z 0046dd54 f i libucrt:input.obj
 0001:0006cd92       ??0?$input_adapter_character_source@V?$string_input_adapter@_W@__crt_stdio_input@@@__crt_strtox@@QAE@QAV?$string_input_adapter@_W@__crt_stdio_input@@_KQA_N@Z 0046dd92 f i libucrt:input.obj
 0001:0006cd92       ??0?$input_adapter_character_source@V?$string_input_adapter@D@__crt_stdio_input@@@__crt_strtox@@QAE@QAV?$string_input_adapter@D@__crt_stdio_input@@_KQA_N@Z 0046dd92 f i libucrt:input.obj
 0001:0006cdc3       ??0?$input_processor@DV?$string_input_adapter@D@__crt_stdio_input@@@__crt_stdio_input@@QAE@ABV?$string_input_adapter@D@1@_KQBDQAU__crt_locale_pointers@@QAD@Z 0046ddc3 f i libucrt:input.obj
 0001:0006ce0b       ??0?$input_processor@_WV?$string_input_adapter@_W@__crt_stdio_input@@@__crt_stdio_input@@QAE@ABV?$string_input_adapter@_W@1@_KQB_WQAU__crt_locale_pointers@@QAD@Z 0046de0b f i libucrt:input.obj
 0001:0006ce53       ??4?$__crt_unique_heap_ptr@DU__crt_internal_free_policy@@@@QAEAAV0@$$QAV0@@Z 0046de53 f i libucrt:output.obj
 0001:0006ce53       ??4?$__crt_unique_heap_ptr@EU__crt_internal_free_policy@@@@QAEAAV0@$$QAV0@@Z 0046de53 f i libucrt:input.obj
 0001:0006cecd       ?advance@?$format_string_parser@D@__crt_stdio_input@@QAE_NXZ 0046decd f i libucrt:input.obj
 0001:0006cfed       ?advance@?$format_string_parser@_W@__crt_stdio_input@@QAE_NXZ 0046dfed f i libucrt:input.obj
 0001:0006d0ef       ?as_double@floating_point_value@__crt_strtox@@QBEAANXZ 0046e0ef f i libucrt:input.obj
 0001:0006d114       ?as_float@floating_point_value@__crt_strtox@@QBEAAMXZ 0046e114 f i libucrt:input.obj
 0001:0006d139       ?assemble_floating_point_infinity@__crt_strtox@@YAX_NABVfloating_point_value@1@@Z 0046e139 f i libucrt:input.obj
 0001:0006d173       ?assemble_floating_point_value@__crt_strtox@@YA?AW4SLD_STATUS@@_KH_N1ABVfloating_point_value@1@@Z 0046e173 f i libucrt:input.obj
 0001:0006d4bf       ?assemble_floating_point_value_from_big_integer@__crt_strtox@@YA?AW4SLD_STATUS@@ABUbig_integer@1@I_N1ABVfloating_point_value@1@@Z 0046e4bf f i libucrt:input.obj
 0001:0006d64d       ?assemble_floating_point_zero@__crt_strtox@@YAX_NABVfloating_point_value@1@@Z 0046e64d f i libucrt:input.obj
 0001:0006d681       ?convert_decimal_string_to_floating_type_common@__crt_strtox@@YA?AW4SLD_STATUS@@ABUfloating_point_string@1@ABVfloating_point_value@1@@Z 0046e681 f i libucrt:input.obj
 0001:0006f444       ?convert_hexadecimal_string_to_floating_type_common@__crt_strtox@@YA?AW4SLD_STATUS@@ABUfloating_point_string@1@ABVfloating_point_value@1@@Z 00470444 f i libucrt:input.obj
 0001:0006f4f0       ?data@?$scanset_storage@$01@__crt_stdio_input@@QBEPAEXZ 004704f0 f i libucrt:input.obj
 0001:0006f52a       ?denormal_mantissa_mask@floating_point_value@__crt_strtox@@QBE_KXZ 0047052a f i libucrt:input.obj
 0001:0006f550       ?divide@__crt_strtox@@YA_KAAUbig_integer@1@ABU21@@Z 00470550 f i libucrt:input.obj
 0001:0006f9fe       ?get@?$input_adapter_character_source@V?$string_input_adapter@D@__crt_stdio_input@@@__crt_strtox@@QAEDXZ 004709fe f i libucrt:input.obj
 0001:0006fa38       ?get@?$input_adapter_character_source@V?$string_input_adapter@_W@__crt_stdio_input@@@__crt_strtox@@QAE_WXZ 00470a38 f i libucrt:input.obj
 0001:0006fa71       ?get@?$string_input_adapter@D@__crt_stdio_input@@QAEHXZ 00470a71 f i libucrt:input.obj
 0001:0006fa87       ?get@?$string_input_adapter@_W@__crt_stdio_input@@QAEGXZ 00470a87 f i libucrt:input.obj
 0001:0006faa1       ?invert@?$scanset_buffer@E@__crt_stdio_input@@QAEXXZ 00470aa1 f i libucrt:input.obj
 0001:0006fabf       ?invert@?$scanset_buffer@_W@__crt_stdio_input@@QAEXXZ 00470abf f i libucrt:input.obj
 0001:0006fae7       ?is_character_allowed_in_string@?$input_processor@DV?$string_input_adapter@D@__crt_stdio_input@@@__crt_stdio_input@@ABE_NW4conversion_mode@2@H@Z 00470ae7 f i libucrt:input.obj
 0001:0006fb2d       ?is_character_allowed_in_string@?$input_processor@_WV?$string_input_adapter@_W@__crt_stdio_input@@@__crt_stdio_input@@ABE_NW4conversion_mode@2@G@Z 00470b2d f i libucrt:input.obj
 0001:0006fb7a       ?length@?$format_string_parser@D@__crt_stdio_input@@QBEIXZ 00470b7a f i libucrt:input.obj
 0001:0006fbbb       ?length@?$format_string_parser@_W@__crt_stdio_input@@QBEIXZ 00470bbb f i libucrt:input.obj
 0001:0006fbfc       ?normal_mantissa_mask@floating_point_value@__crt_strtox@@QBE_KXZ 00470bfc f i libucrt:input.obj
 0001:0006fc13       ?process@?$input_processor@DV?$string_input_adapter@D@__crt_stdio_input@@@__crt_stdio_input@@QAEHXZ 00470c13 f i libucrt:input.obj
 0001:0006fc98       ?process@?$input_processor@_WV?$string_input_adapter@_W@__crt_stdio_input@@@__crt_stdio_input@@QAEHXZ 00470c98 f i libucrt:input.obj
 0001:0006fd26       ?process_character_count_specifier@?$input_processor@DV?$string_input_adapter@D@__crt_stdio_input@@@__crt_stdio_input@@AAE_NXZ 00470d26 f i libucrt:input.obj
 0001:0006fd40       ?process_character_count_specifier@?$input_processor@_WV?$string_input_adapter@_W@__crt_stdio_input@@@__crt_stdio_input@@AAE_NXZ 00470d40 f i libucrt:input.obj
 0001:0006fd5c       ?process_conversion_specifier@?$input_processor@DV?$string_input_adapter@D@__crt_stdio_input@@@__crt_stdio_input@@AAE_NXZ 00470d5c f i libucrt:input.obj
 0001:0006fdd0       ?process_conversion_specifier@?$input_processor@_WV?$string_input_adapter@_W@__crt_stdio_input@@@__crt_stdio_input@@AAE_NXZ 00470dd0 f i libucrt:input.obj
 0001:0006fe44       ?process_floating_point_specifier@?$input_processor@DV?$string_input_adapter@D@__crt_stdio_input@@@__crt_stdio_input@@AAE_NXZ 00470e44 f i libucrt:input.obj
 0001:0006fe74       ?process_floating_point_specifier@?$input_processor@_WV?$string_input_adapter@_W@__crt_stdio_input@@@__crt_stdio_input@@AAE_NXZ 00470e74 f i libucrt:input.obj
 0001:0006fea4       ?process_integer_specifier@?$input_processor@DV?$string_input_adapter@D@__crt_stdio_input@@@__crt_stdio_input@@AAE_NI_N@Z 00470ea4 f i libucrt:input.obj
 0001:0006ff0a       ?process_integer_specifier@?$input_processor@_WV?$string_input_adapter@_W@__crt_stdio_input@@@__crt_stdio_input@@AAE_NI_N@Z 00470f0a f i libucrt:input.obj
 0001:0006ff70       ?process_literal_character@?$input_processor@DV?$string_input_adapter@D@__crt_stdio_input@@@__crt_stdio_input@@AAE_NXZ 00470f70 f i libucrt:input.obj
 0001:0006ffa6       ?process_literal_character@?$input_processor@_WV?$string_input_adapter@_W@__crt_stdio_input@@@__crt_stdio_input@@AAE_NXZ 00470fa6 f i libucrt:input.obj
 0001:0006ffdb       ?process_literal_character_tchar@?$input_processor@DV?$string_input_adapter@D@__crt_stdio_input@@@__crt_stdio_input@@AAE_ND@Z 00470fdb f i libucrt:input.obj
 0001:00070031       ?process_state@?$input_processor@DV?$string_input_adapter@D@__crt_stdio_input@@@__crt_stdio_input@@AAE_NXZ 00471031 f i libucrt:input.obj
 0001:00070067       ?process_state@?$input_processor@_WV?$string_input_adapter@_W@__crt_stdio_input@@@__crt_stdio_input@@AAE_NXZ 00471067 f i libucrt:input.obj
 0001:0007009d       ?process_string_specifier@?$input_processor@DV?$string_input_adapter@D@__crt_stdio_input@@@__crt_stdio_input@@AAE_NW4conversion_mode@2@@Z 0047109d f i libucrt:input.obj
 0001:000700e5       ?process_string_specifier@?$input_processor@_WV?$string_input_adapter@_W@__crt_stdio_input@@@__crt_stdio_input@@AAE_NW4conversion_mode@2@@Z 004710e5 f i libucrt:input.obj
 0001:0007012d       ?process_whitespace@?$input_processor@DV?$string_input_adapter@D@__crt_stdio_input@@@__crt_stdio_input@@AAE_NXZ 0047112d f i libucrt:input.obj
 0001:0007014a       ?process_whitespace@?$input_processor@_WV?$string_input_adapter@_W@__crt_stdio_input@@@__crt_stdio_input@@AAE_NXZ 0047114a f i libucrt:input.obj
 0001:0007016a       ?reset@?$scanset_buffer@_W@__crt_stdio_input@@QAEXXZ 0047116a f i libucrt:input.obj
 0001:00070184       ?reset_token_state_for_error@?$format_string_parser@_W@__crt_stdio_input@@AAEXH@Z 00471184 f i libucrt:input.obj
 0001:000701af       ?restore_state@?$input_adapter_character_source@V?$string_input_adapter@D@__crt_stdio_input@@@__crt_strtox@@QAE_N_K@Z 004711af f i libucrt:input.obj
 0001:000701af       ?restore_state@?$input_adapter_character_source@V?$string_input_adapter@_W@__crt_stdio_input@@@__crt_strtox@@QAE_N_K@Z 004711af f i libucrt:input.obj
 0001:000701d4       ?scan_conversion_specifier@?$format_string_parser@D@__crt_stdio_input@@AAE_NXZ 004711d4 f i libucrt:input.obj
 0001:0007033f       ?scan_conversion_specifier@?$format_string_parser@_W@__crt_stdio_input@@AAE_NXZ 0047133f f i libucrt:input.obj
 0001:0007048b       ?scan_optional_assignment_suppressor@?$format_string_parser@_W@__crt_stdio_input@@AAEXXZ 0047148b f i libucrt:input.obj
 0001:0007049f       ?scan_optional_field_width@?$format_string_parser@D@__crt_stdio_input@@AAE_NXZ 0047149f f i libucrt:input.obj
 0001:0007053e       ?scan_optional_field_width@?$format_string_parser@_W@__crt_stdio_input@@AAE_NXZ 0047153e f i libucrt:input.obj
 0001:0007076a       ?scan_optional_length_modifier@?$format_string_parser@D@__crt_stdio_input@@AAEXXZ 0047176a f i libucrt:input.obj
 0001:0007088a       ?scan_optional_length_modifier@?$format_string_parser@_W@__crt_stdio_input@@AAEXXZ 0047188a f i libucrt:input.obj
 0001:000709bb       ?scan_optional_literal_character_trail_bytes_tchar@?$format_string_parser@D@__crt_stdio_input@@AAE_ND@Z 004719bb f i libucrt:input.obj
 0001:00070a10       ?scan_optional_wide_modifier@?$format_string_parser@D@__crt_stdio_input@@AAEXXZ 00471a10 f i libucrt:input.obj
 0001:00070a2e       ?scan_optional_wide_modifier@?$format_string_parser@_W@__crt_stdio_input@@AAEXXZ 00471a2e f i libucrt:input.obj
 0001:00070a58       ?scan_scanset_range@?$format_string_parser@D@__crt_stdio_input@@AAE_NXZ 00471a58 f i libucrt:input.obj
 0001:00070b5f       ?scan_scanset_range@?$format_string_parser@_W@__crt_stdio_input@@AAE_NXZ 00471b5f f i libucrt:input.obj
 0001:00070c6f       ?set@?$scanset_buffer@E@__crt_stdio_input@@QAEXE@Z 00471c6f f i libucrt:input.obj
 0001:00070c9a       ?set@?$scanset_buffer@_W@__crt_stdio_input@@QAEX_W@Z 00471c9a f i libucrt:input.obj
 0001:00070cca       ?set_wide_for_c_s_or_scanset@?$format_string_parser@D@__crt_stdio_input@@AAEXXZ 00471cca f i libucrt:input.obj
 0001:00070cea       ?set_wide_for_c_s_or_scanset@?$format_string_parser@_W@__crt_stdio_input@@AAEXXZ 00471cea f i libucrt:input.obj
 0001:00070d0a       ?should_default_to_wide@?$format_string_parser@_W@__crt_stdio_input@@AAE_N_W@Z 00471d0a f i libucrt:input.obj
 0001:00070d3d       ?test@?$scanset_buffer@E@__crt_stdio_input@@QBE_NE@Z 00471d3d f i libucrt:input.obj
 0001:00070d6e       ?test@?$scanset_buffer@_W@__crt_stdio_input@@QBE_N_W@Z 00471d6e f i libucrt:input.obj
 0001:00070da6       ?to_floating_point_length@__crt_stdio_input@@YAIW4length_modifier@1@@Z 00471da6 f i libucrt:input.obj
 0001:00070dc9       ?to_integer_length@__crt_stdio_input@@YAIW4length_modifier@1@@Z 00471dc9 f i libucrt:input.obj
 0001:00070e21       ?unget@?$input_adapter_character_source@V?$string_input_adapter@D@__crt_stdio_input@@@__crt_strtox@@QAEXD@Z 00471e21 f i libucrt:input.obj
 0001:00070e62       ?unget@?$input_adapter_character_source@V?$string_input_adapter@_W@__crt_stdio_input@@@__crt_strtox@@QAEX_W@Z 00471e62 f i libucrt:input.obj
 0001:00070ea7       ?unget@?$string_input_adapter@D@__crt_stdio_input@@QAEXH@Z 00471ea7 f i libucrt:input.obj
 0001:00070ec6       ?unget@?$string_input_adapter@_W@__crt_stdio_input@@QAEXG@Z 00471ec6 f i libucrt:input.obj
 0001:00070eec       ?validate@?$format_string_parser@D@__crt_stdio_input@@QBE_NXZ 00471eec f i libucrt:input.obj
 0001:00070eec       ?validate@?$format_string_parser@_W@__crt_stdio_input@@QBE_NXZ 00471eec f i libucrt:input.obj
 0001:00070f08       ?validate@?$input_adapter_character_source@V?$string_input_adapter@D@__crt_stdio_input@@@__crt_strtox@@QBE_NXZ 00471f08 f i libucrt:input.obj
 0001:00070f08       ?validate@?$input_adapter_character_source@V?$string_input_adapter@_W@__crt_stdio_input@@@__crt_strtox@@QBE_NXZ 00471f08 f i libucrt:input.obj
 0001:00070f29       ?validate@?$string_input_adapter@_W@__crt_stdio_input@@QAE_NXZ 00471f29 f i libucrt:input.obj
 0001:00070f29       ?validate@?$string_input_adapter@D@__crt_stdio_input@@QAE_NXZ 00471f29 f i libucrt:input.obj
 0001:00070f4b       ?write_character@?$input_processor@DV?$string_input_adapter@D@__crt_stdio_input@@@__crt_stdio_input@@AAE_NQA_WIAAPA_WAAID@Z 00471f4b f i libucrt:input.obj
 0001:00070fbc       ?write_character@?$input_processor@_WV?$string_input_adapter@_W@__crt_stdio_input@@@__crt_stdio_input@@AAE_NQADIAAPADAAI_W@Z 00471fbc f i libucrt:input.obj
 0001:00071044       ?write_integer@?$input_processor@DV?$string_input_adapter@D@__crt_stdio_input@@@__crt_stdio_input@@AAE_N_K_N@Z 00472044 f i libucrt:input.obj
 0001:000710bb       ?write_integer@?$input_processor@_WV?$string_input_adapter@_W@__crt_stdio_input@@@__crt_stdio_input@@AAE_N_K_N@Z 004720bb f i libucrt:input.obj
 0001:00071132       ___stdio_common_vsscanf    00472132 f   libucrt:input.obj
 0001:00071156       ___stdio_common_vswscanf   00472156 f   libucrt:input.obj
 0001:000711fb       __recalloc                 004721fb f   libucrt:recalloc.obj
 0001:00071206       __recalloc_base            00472206 f   libucrt:recalloc.obj
 0001:00071541       __tolower_l                00472541 f   libucrt:tolower_toupper.obj
 0001:0007155b       __toupper_l                0047255b f   libucrt:tolower_toupper.obj
 0001:00071575       _tolower                   00472575 f   libucrt:tolower_toupper.obj
 0001:000715a5       _toupper                   004725a5 f   libucrt:tolower_toupper.obj
 0001:000715d5       __waccess                  004725d5 f   libucrt:waccess.obj
 0001:000715ed       __waccess_s                004725ed f   libucrt:waccess.obj
 0001:0007172c       __time64                   0047272c f   libucrt:time.obj
 0001:0007176e       __isalnum_l                0047276e f i libucrt:_ctype.obj
 0001:000717a9       __isdigit_l                004727a9 f i libucrt:_ctype.obj
 0001:000717e1       __islower_l                004727e1 f i libucrt:_ctype.obj
 0001:00071819       __isspace_l                00472819 f i libucrt:_ctype.obj
 0001:00071851       __isupper_l                00472851 f i libucrt:_ctype.obj
 0001:00071889       _isalnum                   00472889 f i libucrt:_ctype.obj
 0001:000718b8       _isdigit                   004728b8 f i libucrt:_ctype.obj
 0001:000718e5       _islower                   004728e5 f i libucrt:_ctype.obj
 0001:00071912       _isspace                   00472912 f i libucrt:_ctype.obj
 0001:0007193f       _isupper                   0047293f f i libucrt:_ctype.obj
 0001:0007196c       __wcsicmp                  0047296c f   libucrt:wcsicmp.obj
 0001:00071a01       __wcsicmp_l                00472a01 f   libucrt:wcsicmp.obj
 0001:00071ae1       _strcpy_s                  00472ae1 f   libucrt:strcpy_s.obj
 0001:00071b3b       _strcat_s                  00472b3b f   libucrt:strcat_s.obj
 0001:00071ba4       _strtol                    00472ba4 f   libucrt:strtox.obj
 0001:00071bd0       _strtoull                  00472bd0 f   libucrt:strtox.obj
 0001:00071bfc       _wcstol                    00472bfc f   libucrt:strtox.obj
 0001:00071c28       _wcstoull                  00472c28 f   libucrt:strtox.obj
 0001:00071c54       _ferror                    00472c54 f   libucrt:feoferr.obj
 0001:00071c7f       ___acrt_stdio_flush_nolock 00472c7f f   libucrt:fflush.obj
 0001:00071ce5       __fflush_nolock            00472ce5 f   libucrt:fflush.obj
 0001:00071d2c       __flushall                 00472d2c f   libucrt:fflush.obj
 0001:00071e0d       _fflush                    00472e0d f   libucrt:fflush.obj
 0001:00071e66       __fileno                   00472e66 f   libucrt:fileno.obj
 0001:00071e8c       ??$?RV<lambda_123407a5e2ac06da108355a851863b7a>@@AAV<lambda_2fe9b910cf3cbf4a0ab98a02ba45b3ec>@@V<lambda_ae55bdf541ad94d75914d381c370e64d>@@@?$__crt_seh_guarded_call@H@@QAEH$$QAV<lambda_123407a5e2ac06da108355a851863b7a>@@AAV<lambda_2fe9b910cf3cbf4a0ab98a02ba45b3ec>@@$$QAV<lambda_ae55bdf541ad94d75914d381c370e64d>@@@Z 00472e8c f i libucrt:close.obj
 0001:00071f0e       ??$__acrt_lowio_lock_fh_and_call@V<lambda_2fe9b910cf3cbf4a0ab98a02ba45b3ec>@@@@YAHH$$QAV<lambda_2fe9b910cf3cbf4a0ab98a02ba45b3ec>@@@Z 00472f0e f i libucrt:close.obj
 0001:00071f36       __close                    00472f36 f   libucrt:close.obj
 0001:00071fb5       __close_nolock             00472fb5 f   libucrt:close.obj
 0001:00072051       ___acrt_lowio_create_handle_array 00473051 f   libucrt:osfinfo.obj
 0001:000720cb       ___acrt_lowio_destroy_handle_array 004730cb f   libucrt:osfinfo.obj
 0001:00072100       ___acrt_lowio_ensure_fh_exists 00473100 f   libucrt:osfinfo.obj
 0001:00072198       ___acrt_lowio_lock_fh      00473198 f   libucrt:osfinfo.obj
 0001:000721bb       ___acrt_lowio_set_os_handle 004731bb f   libucrt:osfinfo.obj
 0001:0007224f       ___acrt_lowio_unlock_fh    0047324f f   libucrt:osfinfo.obj
 0001:00072272       __alloc_osfhnd             00473272 f   libucrt:osfinfo.obj
 0001:00072384       __free_osfhnd              00473384 f   libucrt:osfinfo.obj
 0001:00072415       __get_osfhandle            00473415 f   libucrt:osfinfo.obj
 0001:00072a0f       __write                    00473a0f f   libucrt:write.obj
 0001:00072afa       __write_nolock             00473afa f   libucrt:write.obj
 0001:000732e0       __sopen_dispatch           004742e0 f   libucrt:open.obj
 0001:000732eb       __sopen_nolock             004742eb f   libucrt:open.obj
 0001:0007333c       __sopen_s                  0047433c f   libucrt:open.obj
 0001:0007335c       __wsopen_nolock            0047435c f   libucrt:open.obj
 0001:00073690       _ceil                      00474690 f   libucrt:ceil_pentium4.obj
 0001:000736d0       __ceil_pentium4            004746d0 f   libucrt:ceil_pentium4.obj
 0001:000737b0       _floor                     004747b0 f   libucrt:floor_pentium4.obj
 0001:000737f0       __floor_pentium4           004747f0 f   libucrt:floor_pentium4.obj
 0001:00073ca2       ??$loctotime@AAGAAGAAGAAGAAGAAGH@?$__crt_integer_traits@_J@@SA_JAAG00000$$QAH@Z 00474ca2 f i libucrt:stat.obj
 0001:00074098       __stat64i32                00475098 f   libucrt:stat.obj
 0001:000740f8       __fread_nolock_s           004750f8 f   libucrt:fread.obj
 0001:000742c4       _fread                     004752c4 f   libucrt:fread.obj
 0001:000742e1       _fread_s                   004752e1 f   libucrt:fread.obj
 0001:00074767       __findclose                00475767 f   libucrt:findfile.obj
 0001:0007478d       __findfirst64i32           0047578d f   libucrt:findfile.obj
 0001:00074798       __findnext64i32            00475798 f   libucrt:findfile.obj
 0001:000747f5       ___acrt_initialize_locks   004757f5 f   libucrt:locks.obj
 0001:00074836       ___acrt_lock               00475836 f   libucrt:locks.obj
 0001:0007484d       ___acrt_uninitialize_locks 0047584d f   libucrt:locks.obj
 0001:0007487e       ___acrt_unlock             0047587e f   libucrt:locks.obj
 0001:00074895       __lock_locales             00475895 f   libucrt:locks.obj
 0001:0007489e       __unlock_locales           0047589e f   libucrt:locks.obj
 0001:000748a7       __calloc_base              004758a7 f   libucrt:calloc_base.obj
 0001:00074904       ___pctype_func             00475904 f   libucrt:ctype.obj
 0001:0007492a       __wcsdup                   0047592a f   libucrt:wcsdup.obj
 0001:0007498b       ____lc_codepage_func       0047598b f   libucrt:initctype.obj
 0001:000749b2       ____lc_locale_name_func    004759b2 f   libucrt:initctype.obj
 0001:000749db       ____mb_cur_max_func        004759db f   libucrt:initctype.obj
 0001:00074a02       ___acrt_locale_initialize_ctype 00475a02 f   libucrt:initctype.obj
 0001:00074df9       __ismbblead                00475df9 f   libucrt:ismbbyte.obj
 0001:00074eae       _setlocale                 00475eae f   libucrt:setlocale.obj
 0001:0007500b       ___strncnt                 0047600b f   libucrt:strncnt.obj
 0001:00075027       __free_base                00476027 f   libucrt:free_base.obj
 0001:00075061       __malloc_base              00476061 f   libucrt:malloc_base.obj
 0001:000750af       _strnlen                   004760af f   libucrt:strnlen.obj
 0001:000751d6       _wcsnlen                   004761d6 f   libucrt:strnlen.obj
 0001:0007538d       _abort                     0047638d f   libucrt:abort.obj
 0001:000753d0       __realloc_base             004763d0 f   libucrt:realloc_base.obj
 0001:00075440       _pow                       00476440 f   libucrt:pow.obj
 0001:00075480       __CIpow                    00476480 f   libucrt:pow.obj
 0001:000754bb       __CIpow_default            004764bb f   libucrt:pow.obj
 0001:000754d4       __pow_default              004764d4     libucrt:pow.obj
 0001:000756c9       ??$__crt_time_is_leap_year@H@@YA_NH@Z 004766c9 f i libucrt:wcsftime.obj
 0001:0007570a       ___acrt_initialize_new_handler 0047670a f   libucrt:new_handler.obj
 0001:0007571e       __callnewh                 0047671e f   libucrt:new_handler.obj
 0001:00075762       __query_new_handler        00476762 f   libucrt:new_handler.obj
 0001:000757b4       __seh_filter_exe           004767b4 f   libucrt:exception_filter.obj
 0001:00075bc0       ___acrt_allocate_buffer_for_argv 00476bc0 f   libucrt:argv_parsing.obj
 0001:00075c15       __configure_narrow_argv    00476c15 f   libucrt:argv_parsing.obj
 0001:00075e27       ??$uninitialize@A6AXAAPAPAD@Z@?$dual_state_global@PAPAD@__crt_state_management@@QAEXA6AXAAPAPAD@Z@Z 00476e27 f i libucrt:environment_initialization.obj
 0001:00075e27       ??$uninitialize@A6AXAAPAPA_W@Z@?$dual_state_global@PAPA_W@__crt_state_management@@QAEXA6AXAAPAPA_W@Z@Z 00476e27 f i libucrt:environment_initialization.obj
 0001:00075e9d       ?__crt_compute_required_transform_buffer_count@@YAIIQB_W@Z 00476e9d f i libucrt:environment_initialization.obj
 0001:00075eb9       ?__crt_transform_string@@YAIIQB_WQADI@Z 00476eb9 f i libucrt:environment_initialization.obj
 0001:00075ed9       ___dcrt_get_or_create_narrow_environment_nolock 00476ed9 f   libucrt:environment_initialization.obj
 0001:00075ede       ___dcrt_uninitialize_environments_nolock 00476ede f   libucrt:environment_initialization.obj
 0001:00075f15       __initialize_narrow_environment 00476f15 f   libucrt:environment_initialization.obj
 0001:00075f1a       ??$?RV<lambda_800076c951b434888f4765a74a194fcc>@@AAV<lambda_4e60a939b0d047cfe11ddc22648dfba9>@@V<lambda_6dbb1268764f43b569ce7b67e331d33a>@@@?$__crt_seh_guarded_call@H@@QAEH$$QAV<lambda_800076c951b434888f4765a74a194fcc>@@AAV<lambda_4e60a939b0d047cfe11ddc22648dfba9>@@$$QAV<lambda_6dbb1268764f43b569ce7b67e331d33a>@@@Z 00476f1a f i libucrt:onexit.obj
 0001:00075f6b       ??$?RV<lambda_995298e7d72eb4c2aab26c0585b3abe5>@@AAV<lambda_275893d493268fdec8709772e3fcec0e>@@V<lambda_293819299cbf9a7022e18b56a874bb5c>@@@?$__crt_seh_guarded_call@H@@QAEH$$QAV<lambda_995298e7d72eb4c2aab26c0585b3abe5>@@AAV<lambda_275893d493268fdec8709772e3fcec0e>@@$$QAV<lambda_293819299cbf9a7022e18b56a874bb5c>@@@Z 00476f6b f i libucrt:onexit.obj
 0001:00075fbc       ??$__acrt_lock_and_call@V<lambda_275893d493268fdec8709772e3fcec0e>@@@@YAHW4__acrt_lock_id@@$$QAV<lambda_275893d493268fdec8709772e3fcec0e>@@@Z 00476fbc f i libucrt:onexit.obj
 0001:00075fe4       ??$__acrt_lock_and_call@V<lambda_4e60a939b0d047cfe11ddc22648dfba9>@@@@YAHW4__acrt_lock_id@@$$QAV<lambda_4e60a939b0d047cfe11ddc22648dfba9>@@@Z 00476fe4 f i libucrt:onexit.obj
 0001:0007626d       __crt_atexit               0047726d f   libucrt:onexit.obj
 0001:00076283       __execute_onexit_table     00477283 f   libucrt:onexit.obj
 0001:000762a0       __initialize_onexit_table  004772a0 f   libucrt:onexit.obj
 0001:000762dd       __register_onexit_function 004772dd f   libucrt:onexit.obj
 0001:00076335       __should_initialize_environment 00477335 f   LIBCMT:env_mode.obj
 0001:00076335       ___acrt_uninitialize_command_line 00477335 f   libucrt:argv_data.obj
 0001:000763f5       ___acrt_initialize         004773f5 f   libucrt:initialization.obj
 0001:00076407       ___acrt_uninitialize       00477407 f   libucrt:initialization.obj
 0001:00076419       __errcode                  00477419 f   libucrt:fpexcept.obj
 0001:0007644d       __except1                  0047744d f   libucrt:fpexcept.obj
 0001:0007651b       __handle_exc               0047751b f   libucrt:fpexcept.obj
 0001:000766fb       __raise_exc                004776fb f   libucrt:fpexcept.obj
 0001:0007671e       __raise_exc_ex             0047771e f   libucrt:fpexcept.obj
 0001:00076a0f       __set_errno_from_matherr   00477a0f f   libucrt:fpexcept.obj
 0001:00076a3e       __umatherr                 00477a3e f   libucrt:fpexcept.obj
 0001:00076ae0       __query_app_type           00477ae0 f   libucrt:report_runtime_error.obj
 0001:00076ae6       __set_app_type             00477ae6 f   libucrt:report_runtime_error.obj
 0001:00076af5       ___acrt_has_user_matherr   00477af5 f   libucrt:matherr.obj
 0001:00076b0e       ___acrt_initialize_user_matherr 00477b0e f   libucrt:matherr.obj
 0001:00076b22       ___acrt_invoke_user_matherr 00477b22 f   libucrt:matherr.obj
 0001:00076b6b       ___setusermatherr          00477b6b f   libucrt:matherr.obj
 0001:00076b80       __get_narrow_winmain_command_line 00477b80 f   libucrt:argv_winmain.obj
 0001:00076bd3       __initterm                 00477bd3 f   libucrt:initterm.obj
 0001:00076c2f       __initterm_e               00477c2f f   libucrt:initterm.obj
 0001:00076c74       __get_fmode                00477c74 f   libucrt:setmode.obj
 0001:00076ca0       __set_fmode                00477ca0 f   libucrt:setmode.obj
 0001:00076cdd       __setmode_nolock           00477cdd f   libucrt:setmode.obj
 0001:00076db0       ?sync@?$basic_streambuf@_WU?$char_traits@_W@std@@@std@@MAEHXZ 00477db0 f   Gstformat.obj
 0001:00076db0       __matherr                  00477db0 f   LIBCMT:matherr.obj
 0001:00076db0       __get_startup_commit_mode  00477db0 f   LIBCMT:commit_mode.obj
 0001:00076db0       ___scrt_initialize_winrt   00477db0 f   LIBCMT:utility_desktop.obj
 0001:00076db0       __get_startup_thread_locale_mode 00477db0 f   LIBCMT:thread_locale.obj
 0001:00076db0       __get_startup_new_mode     00477db0 f   LIBCMT:new_mode.obj
 0001:00076db0       ?sync@?$basic_streambuf@DU?$char_traits@D@std@@@std@@MAEHXZ 00477db0 f   BootEncryption.obj
 0001:00076db0       _CipherSupportsIntraDataUnitParallelization 00477db0 f   Crypto.obj
 0001:00076db3       ??$?RV<lambda_70818de7b02deff9841e8b0962a60ed9>@@AAV<lambda_2af78c5f5901b1372d98f9ab3177dfa6>@@AAV<lambda_f51fe5fd7c79a33db34fc9310f277369>@@@?$__crt_seh_guarded_call@X@@QAEX$$QAV<lambda_70818de7b02deff9841e8b0962a60ed9>@@AAV<lambda_2af78c5f5901b1372d98f9ab3177dfa6>@@AAV<lambda_f51fe5fd7c79a33db34fc9310f277369>@@@Z 00477db3 f i libucrt:wsetlocale.obj
 0001:00076dee       ??$?RV<lambda_c76fdea48760d5f9368b465f31df4405>@@AAV<lambda_e378711a6f6581bf7f0efd7cdf97f5d9>@@V<lambda_e927a58b2a85c081d733e8c6192ae2d2>@@@?$__crt_seh_guarded_call@X@@QAEX$$QAV<lambda_c76fdea48760d5f9368b465f31df4405>@@AAV<lambda_e378711a6f6581bf7f0efd7cdf97f5d9>@@$$QAV<lambda_e927a58b2a85c081d733e8c6192ae2d2>@@@Z 00477dee f i libucrt:wsetlocale.obj
 0001:00076e31       ??$__acrt_lock_and_call@V<lambda_e378711a6f6581bf7f0efd7cdf97f5d9>@@@@YAXW4__acrt_lock_id@@$$QAV<lambda_e378711a6f6581bf7f0efd7cdf97f5d9>@@@Z 00477e31 f i libucrt:wsetlocale.obj
 0001:00076fb3       ___acrt_copy_locale_name   00477fb3 f   libucrt:wsetlocale.obj
 0001:00077019       ___acrt_set_locale_changed 00478019 f   libucrt:wsetlocale.obj
 0001:00077024       ___acrt_uninitialize_locale 00478024 f   libucrt:wsetlocale.obj
 0001:00077076       ___lc_lctowcs              00478076 f   libucrt:wsetlocale.obj
 0001:000770e6       ___lc_wcstolc              004780e6 f   libucrt:wsetlocale.obj
 0001:00077215       __configthreadlocale       00478215 f   libucrt:wsetlocale.obj
 0001:000772a6       __expandlocale             004782a6 f   libucrt:wsetlocale.obj
 0001:0007761d       __wcscats                  0047861d f   libucrt:wsetlocale.obj
 0001:0007765e       __wsetlocale               0047865e f   libucrt:wsetlocale.obj
 0001:00077f28       __query_new_mode           00478f28 f   libucrt:new_mode.obj
 0001:00077f2e       __set_new_mode             00478f2e f   libucrt:new_mode.obj
 0001:00077f5d       ___p__commode              00478f5d f   libucrt:ncommode.obj
 0001:00077f63       _terminate                 00478f63 f   libucrt:terminate.obj
 0001:00077f9f       __controlfp_s              00478f9f f   libucrt:contrlfp.obj
 0001:00077ffe       ??$?RV<lambda_3518db117f0e7cdb002338c5d3c47b6c>@@AAV<lambda_b2ea41f6bbb362cd97d94c6828d90b61>@@V<lambda_abdedf541bb04549bc734292b4a045d4>@@@?$__crt_seh_guarded_call@X@@QAEX$$QAV<lambda_3518db117f0e7cdb002338c5d3c47b6c>@@AAV<lambda_b2ea41f6bbb362cd97d94c6828d90b61>@@$$QAV<lambda_abdedf541bb04549bc734292b4a045d4>@@@Z 00478ffe f i libucrt:per_thread_data.obj
 0001:0007804e       ??$?RV<lambda_51b6e8b1eb166f2a3faf91f424b38130>@@AAV<lambda_6250bd4b2a391816dd638c3bf72b0bcb>@@V<lambda_0b5a4a3e68152e1d9b943535f5f47bed>@@@?$__crt_seh_guarded_call@X@@QAEX$$QAV<lambda_51b6e8b1eb166f2a3faf91f424b38130>@@AAV<lambda_6250bd4b2a391816dd638c3bf72b0bcb>@@$$QAV<lambda_0b5a4a3e68152e1d9b943535f5f47bed>@@@Z 0047904e f i libucrt:per_thread_data.obj
 0001:000780af       ??$?RV<lambda_5b71d36f03204c0beab531769a5b5694>@@AAV<lambda_be2b3da3f62db62e9dad5dc70221a656>@@V<lambda_8f9ce462984622f9bf76b59e2aaaf805>@@@?$__crt_seh_guarded_call@X@@QAEX$$QAV<lambda_5b71d36f03204c0beab531769a5b5694>@@AAV<lambda_be2b3da3f62db62e9dad5dc70221a656>@@$$QAV<lambda_8f9ce462984622f9bf76b59e2aaaf805>@@@Z 004790af f i libucrt:per_thread_data.obj
 0001:000780fa       ??$?RV<lambda_9df27f884b057bc3edfc946cb5b7cf47>@@AAV<lambda_e69574bed617af4e071282c136b37893>@@V<lambda_cc0d902bcbbeb830f749456577db4721>@@@?$__crt_seh_guarded_call@X@@QAEX$$QAV<lambda_9df27f884b057bc3edfc946cb5b7cf47>@@AAV<lambda_e69574bed617af4e071282c136b37893>@@$$QAV<lambda_cc0d902bcbbeb830f749456577db4721>@@@Z 004790fa f i libucrt:per_thread_data.obj
 0001:00078142       ??$__acrt_lock_and_call@V<lambda_6250bd4b2a391816dd638c3bf72b0bcb>@@@@YAXW4__acrt_lock_id@@$$QAV<lambda_6250bd4b2a391816dd638c3bf72b0bcb>@@@Z 00479142 f i libucrt:per_thread_data.obj
 0001:0007816a       ??$__acrt_lock_and_call@V<lambda_b2ea41f6bbb362cd97d94c6828d90b61>@@@@YAXW4__acrt_lock_id@@$$QAV<lambda_b2ea41f6bbb362cd97d94c6828d90b61>@@@Z 0047916a f i libucrt:per_thread_data.obj
 0001:00078192       ??$__acrt_lock_and_call@V<lambda_be2b3da3f62db62e9dad5dc70221a656>@@@@YAXW4__acrt_lock_id@@$$QAV<lambda_be2b3da3f62db62e9dad5dc70221a656>@@@Z 00479192 f i libucrt:per_thread_data.obj
 0001:000781ba       ??$__acrt_lock_and_call@V<lambda_e69574bed617af4e071282c136b37893>@@@@YAXW4__acrt_lock_id@@$$QAV<lambda_e69574bed617af4e071282c136b37893>@@@Z 004791ba f i libucrt:per_thread_data.obj
 0001:00078370       ___acrt_getptd             00479370 f   libucrt:per_thread_data.obj
 0001:000783f4       ___acrt_getptd_noexit      004793f4 f   libucrt:per_thread_data.obj
 0001:00078479       ___acrt_initialize_ptd     00479479 f   libucrt:per_thread_data.obj
 0001:000784a5       ___acrt_uninitialize_ptd   004794a5 f   libucrt:per_thread_data.obj
 0001:000784bf       ___acrt_update_locale_info 004794bf f   libucrt:locale_update.obj
 0001:000784ec       ___acrt_update_multibyte_info 004794ec f   libucrt:locale_update.obj
 0001:0007855f       ??$?RV<lambda_9227be29367c048ad7fd93a717dcb1a1>@@AAV<lambda_a463b7b0560cfcaf9b17f27c6ef46564>@@V<lambda_ccea11b5727ccf69be64f5f5d9a08d9f>@@@?$__crt_seh_guarded_call@H@@QAEH$$QAV<lambda_9227be29367c048ad7fd93a717dcb1a1>@@AAV<lambda_a463b7b0560cfcaf9b17f27c6ef46564>@@$$QAV<lambda_ccea11b5727ccf69be64f5f5d9a08d9f>@@@Z 0047955f f i libucrt:winapi_thunks.obj
 0001:000785e3       ??$__acrt_lock_and_call@V<lambda_a463b7b0560cfcaf9b17f27c6ef46564>@@@@YAHW4__acrt_lock_id@@$$QAV<lambda_a463b7b0560cfcaf9b17f27c6ef46564>@@@Z 004795e3 f i libucrt:winapi_thunks.obj
 0001:0007860b       ??$__crt_fast_encode_pointer@P6AHPAU_exception@@@Z@@YAP6AHPAU_exception@@@ZQ6AH0@Z@Z 0047960b f i libucrt:matherr.obj
 0001:0007860b       ??$__crt_fast_encode_pointer@P6AXPB_W00II@Z@@YAP6AXPB_W00II@ZQ6AX000II@Z@Z 0047960b f i libucrt:invalid_parameter.obj
 0001:0007860b       ??$__crt_fast_encode_pointer@P6AHXZ@@YAP6AHXZQ6AHXZ@Z 0047960b f i libucrt:onexit.obj
 0001:0007860b       ??$__crt_fast_encode_pointer@P6GHPA_WKJ@Z@@YAP6GHPA_WKJ@ZQ6GH0KJ@Z@Z 0047960b f i libucrt:winapi_thunks.obj
 0001:0007860b       ??$__crt_fast_encode_pointer@P6GXPAXK0@Z@@YAP6GXPAXK0@ZQ6GX0K0@Z@Z 0047960b f i libucrt:exit.obj
 0001:0007875b       ___acrt_AreFileApisANSI@0  0047975b f   libucrt:winapi_thunks.obj
 0001:000787a9       ___acrt_CompareStringEx@36 004797a9 f   libucrt:winapi_thunks.obj
 0001:0007881d       ___acrt_EnumSystemLocalesEx@16 0047981d f   libucrt:winapi_thunks.obj
 0001:0007888a       ___acrt_FlsAlloc@4         0047988a f   libucrt:winapi_thunks.obj
 0001:000788e0       ___acrt_FlsFree@4          004798e0 f   libucrt:winapi_thunks.obj
 0001:00078936       ___acrt_FlsGetValue@4      00479936 f   libucrt:winapi_thunks.obj
 0001:0007898c       ___acrt_FlsSetValue@8      0047998c f   libucrt:winapi_thunks.obj
 0001:000789e5       ___acrt_GetFileInformationByHandleEx@16 004799e5 f   libucrt:winapi_thunks.obj
 0001:00078a48       ___acrt_GetLocaleInfoEx@16 00479a48 f   libucrt:winapi_thunks.obj
 0001:00078ab2       ___acrt_GetSystemTimePreciseAsFileTime@4 00479ab2 f   libucrt:winapi_thunks.obj
 0001:00078b08       ___acrt_GetUserDefaultLocaleName@8 00479b08 f   libucrt:winapi_thunks.obj
 0001:00078b6f       ___acrt_InitializeCriticalSectionEx@12 00479b6f f   libucrt:winapi_thunks.obj
 0001:00078bd1       ___acrt_IsValidLocaleName@4 00479bd1 f   libucrt:winapi_thunks.obj
 0001:00078c34       ___acrt_LCIDToLocaleName@16 00479c34 f   libucrt:winapi_thunks.obj
 0001:00078c9e       ___acrt_LCMapStringEx@36   00479c9e f   libucrt:winapi_thunks.obj
 0001:00078d26       ___acrt_LocaleNameToLCID@8 00479d26 f   libucrt:winapi_thunks.obj
 0001:00078d82       ___acrt_RoInitialize@4     00479d82 f   libucrt:winapi_thunks.obj
 0001:00078dd4       ___acrt_RoUninitialize@0   00479dd4 f   libucrt:winapi_thunks.obj
 0001:00078e1d       ___acrt_can_use_vista_locale_apis 00479e1d f   libucrt:winapi_thunks.obj
 0001:00078e29       ___acrt_initialize_winapi_thunks 00479e29 f   libucrt:winapi_thunks.obj
 0001:00078e4f       ___acrt_is_packaged_app    00479e4f f   libucrt:winapi_thunks.obj
 0001:00078ed6       ___acrt_uninitialize_winapi_thunks 00479ed6 f   libucrt:winapi_thunks.obj
 0001:00078f0c       _iswctype                  00479f0c f   libucrt:iswctype.obj
 0001:00078f6b       __isctype_l                00479f6b f   libucrt:isctype.obj
 0001:0007903d       __dsign                    0047a03d f   libucrt:nan.obj
 0001:0007904d       __decomp                   0047a04d f   libucrt:util.obj
 0001:00079121       __set_exp                  0047a121 f   libucrt:util.obj
 0001:00079150       __sptype                   0047a150 f   libucrt:util.obj
 0001:000791ae       ___set_fpsr_sse2           0047a1ae f   libucrt:fpctrl.obj
 0001:00079224       __clrfp                    0047a224 f   libucrt:fpctrl.obj
 0001:00079237       __ctrlfp                   0047a237 f   libucrt:fpctrl.obj
 0001:00079263       __set_statfp               0047a263 f   libucrt:fpctrl.obj
 0001:000792be       __statfp                   0047a2be f   libucrt:fpctrl.obj
 0001:000792d0       __mbtowc_l                 0047a2d0 f   libucrt:mbtowc.obj
 0001:000793ca       _mbtowc                    0047a3ca f   libucrt:mbtowc.obj
 0001:000793e4       __wctomb_s_l               0047a3e4 f   libucrt:wctomb.obj
 0001:00079505       _wctomb_s                  0047a505 f   libucrt:wctomb.obj
 0001:00079522       ?__acrt_fp_classify@@YA?AW4__acrt_fp_class@@ABN@Z 0047a522 f i libucrt:cvt.obj
 0001:0007958e       ?__acrt_fp_is_negative@@YA_NABN@Z 0047a58e f i libucrt:cvt.obj
 0001:00079ded       ___acrt_fp_format          0047aded f   libucrt:cvt.obj
 0001:00079f37       ___acrt_initialize_stdio   0047af37 f   libucrt:_file.obj
 0001:00079fff       ___acrt_iob_func           0047afff f   libucrt:_file.obj
 0001:0007a00f       ___acrt_uninitialize_stdio 0047b00f f   libucrt:_file.obj
 0001:0007a05b       __lock_file                0047b05b f   libucrt:_file.obj
 0001:0007a06f       __unlock_file              0047b06f f   libucrt:_file.obj
 0001:0007a083       __fputc_nolock             0047b083 f   libucrt:fputc.obj
 0001:0007a0ac       __get_printf_count_output  0047b0ac f   libucrt:printf_count_output.obj
 0001:0007a0c1       ___acrt_stdio_begin_temporary_buffering_nolock 0047b0c1 f   libucrt:_sftbuf.obj
 0001:0007a176       ___acrt_stdio_end_temporary_buffering_nolock 0047b176 f   libucrt:_sftbuf.obj
 0001:0007a31b       ___acrt_initialize_lowio   0047b31b f   libucrt:ioinit.obj
 0001:0007a371       ___acrt_uninitialize_lowio 0047b371 f   libucrt:ioinit.obj
 0001:0007a39d       ?__acrt_stdio_allocate_stream@@YA?AV__crt_stdio_stream@@XZ 0047b39d f   libucrt:stream.obj
 0001:0007a3fc       ?__acrt_stdio_free_stream@@YAXV__crt_stdio_stream@@@Z 0047b3fc f   libucrt:stream.obj
 0001:0007a4fa       ___acrt_stdio_free_buffer_nolock 0047b4fa f   libucrt:_freebuf.obj
 0001:0007a538       ??$__acrt_stdio_parse_mode@D@@YA?AU__acrt_stdio_stream_mode@@QBD@Z 0047b538 f i libucrt:openfile.obj
 0001:0007a7ef       ?__acrt_stdio_parse_mode_D@@YA_NAAU__acrt_stdio_stream_mode@@@Z 0047b7ef f i libucrt:openfile.obj
 0001:0007a80a       ?__acrt_stdio_parse_mode_T@@YA_NAAU__acrt_stdio_stream_mode@@@Z 0047b80a f i libucrt:openfile.obj
 0001:0007a829       ?__acrt_stdio_parse_mode_b@@YA_NAAU__acrt_stdio_stream_mode@@@Z 0047b829 f i libucrt:openfile.obj
 0001:0007a849       ?__acrt_stdio_parse_mode_c@@YA_NAAU__acrt_stdio_stream_mode@@AA_N@Z 0047b849 f i libucrt:openfile.obj
 0001:0007a86b       ?__acrt_stdio_parse_mode_n@@YA_NAAU__acrt_stdio_stream_mode@@AA_N@Z 0047b86b f i libucrt:openfile.obj
 0001:0007a88d       ?__acrt_stdio_parse_mode_plus@@YA_NAAU__acrt_stdio_stream_mode@@AA_N@Z 0047b88d f i libucrt:openfile.obj
 0001:0007a8c2       ?__acrt_stdio_parse_mode_t@@YA_NAAU__acrt_stdio_stream_mode@@@Z 0047b8c2 f i libucrt:openfile.obj
 0001:0007a8e2       __openfile                 0047b8e2 f   libucrt:openfile.obj
 0001:0007a8ed       __fwrite_nolock            0047b8ed f   libucrt:fwrite.obj
 0001:0007aa66       ___acrt_copy_path_to_wide_string 0047ba66 f   libucrt:string_utilities.obj
 0001:0007ab2d       ___acrt_copy_to_char       0047bb2d f   libucrt:string_utilities.obj
 0001:0007abe9       __wremove                  0047bbe9 f   libucrt:wunlink.obj
 0001:0007ac11       __wchmod                   0047bc11 f   libucrt:wchmod.obj
 0001:0007ac98       _fegetround                0047bc98 f   libucrt:fegetround.obj
 0001:0007aca3       __msize                    0047bca3 f   libucrt:msize.obj
 0001:0007acd6       __isleadbyte_l             0047bcd6 f i libucrt:_wctype.obj
 0001:0007af2c       ___acrt_LCMapStringA       0047bf2c f   libucrt:lcmapstringa.obj
 0001:0007af77       __towlower_l               0047bf77 f   libucrt:towlower.obj
 0001:0007b040       ??$?RV<lambda_61cee617f5178ae960314fd4d05640a0>@@AAV<lambda_6978c1fb23f02e42e1d9e99668cc68aa>@@V<lambda_9cd88cf8ad10232537feb2133f08c833>@@@?$__crt_seh_guarded_call@H@@QAEH$$QAV<lambda_61cee617f5178ae960314fd4d05640a0>@@AAV<lambda_6978c1fb23f02e42e1d9e99668cc68aa>@@$$QAV<lambda_9cd88cf8ad10232537feb2133f08c833>@@@Z 0047c040 f i libucrt:commit.obj
 0001:0007b0d8       ??$__acrt_lowio_lock_fh_and_call@V<lambda_6978c1fb23f02e42e1d9e99668cc68aa>@@@@YAHH$$QAV<lambda_6978c1fb23f02e42e1d9e99668cc68aa>@@@Z 0047c0d8 f i libucrt:commit.obj
 0001:0007b100       __commit                   0047c100 f   libucrt:commit.obj
 0001:0007b16f       __isatty                   0047c16f f   libucrt:isatty.obj
 0001:0007b348       __lseeki64                 0047c348 f   libucrt:lseek.obj
 0001:0007b363       __lseeki64_nolock          0047c363 f   libucrt:lseek.obj
 0001:0007b37e       __putwch_nolock            0047c37e f   libucrt:putwch.obj
 0001:0007b3c3       __chsize_nolock            0047c3c3 f   libucrt:chsize.obj
 0001:0007ba3c       __read                     0047ca3c f   libucrt:read.obj
 0001:0007bb4f       __read_nolock              0047cb4f f   libucrt:read.obj
 0001:0007bf04       ___libm_error_support      0047cf04 f   libucrt:libm_error.obj
 0001:0007c11c       ___acrt_initialize_sse2    0047d11c f   libucrt:mathfcns.obj
 0001:0007c12b       __ceil_default             0047d12b f   libucrt:ceil.obj
 0001:0007c1e4       __floor_default            0047d1e4 f   libucrt:floor.obj
 0001:0007c2ca       __getdrive                 0047d2ca f   libucrt:drive.obj
 0001:0007c44e       __wfullpath                0047d44e f   libucrt:fullpath.obj
 0001:0007c4a4       _wcspbrk                   0047d4a4 f   libucrt:wcspbrk.obj
 0001:0007c4e9       ??$__crt_time_elapsed_leap_years@H@@YAHH@Z 0047d4e9 f i libucrt:loctotime.obj
 0001:0007c705       ?__crt_time_is_day_valid@@YA_NHHH@Z 0047d705 f i libucrt:loctotime.obj
 0001:0007c74c       ___loctotime64_t           0047d74c f   libucrt:loctotime.obj
 0001:0007c8d8       ___acrt_stdio_refill_and_read_narrow_nolock 0047d8d8 f   libucrt:_filbuf.obj
 0001:0007c8e3       ___acrt_initialize_heap    0047d8e3 f   libucrt:heap_handle.obj
 0001:0007c8f4       ___acrt_uninitialize_heap  0047d8f4 f   libucrt:heap_handle.obj
 0001:0007c9f9       ___acrt_GetLocaleInfoA     0047d9f9 f   libucrt:getlocaleinfoa.obj
 0001:0007cbab       ___acrt_GetStringTypeA     0047dbab f   libucrt:getstringtypea.obj
 0001:0007ce41       __mbstowcs_s_l             0047de41 f   libucrt:mbstowcs.obj
 0001:0007cf24       _mbstowcs_s                0047df24 f   libucrt:mbstowcs.obj
 0001:0007d1c5       __wcstombs_s_l             0047e1c5 f   libucrt:wcstombs.obj
 0001:0007d292       ??$?RV<lambda_a048d3beccc847880fc8490e18b82769>@@AAV<lambda_ec61778202f4f5fc7e7711acc23c3bca>@@V<lambda_f7496a158712204296dd6628a163878e>@@@?$__crt_seh_guarded_call@P6AXH@Z@@QAEP6AXH@Z$$QAV<lambda_a048d3beccc847880fc8490e18b82769>@@AAV<lambda_ec61778202f4f5fc7e7711acc23c3bca>@@$$QAV<lambda_f7496a158712204296dd6628a163878e>@@@Z 0047e292 f i libucrt:signal.obj
 0001:0007d2ec       ??$__acrt_lock_and_call@V<lambda_ec61778202f4f5fc7e7711acc23c3bca>@@@@YAP6AXH@ZW4__acrt_lock_id@@$$QAV<lambda_ec61778202f4f5fc7e7711acc23c3bca>@@@Z 0047e2ec f i libucrt:signal.obj
 0001:0007d37e       ___acrt_get_sigabrt_handler 0047e37e f   libucrt:signal.obj
 0001:0007d395       ___acrt_initialize_signal_handlers 0047e395 f   libucrt:signal.obj
 0001:0007d3d0       ___fpecode                 0047e3d0 f   libucrt:signal.obj
 0001:0007d3d9       _raise                     0047e3d9 f   libucrt:signal.obj
 0001:0007d5e1       __fpclass                  0047e5e1 f   libucrt:ieeemisc.obj
 0001:0007d690       __CIpow_pentium4           0047e690 f   libucrt:pow_pentium4.obj
 0001:0007d6a9       __pow_pentium4             0047e6a9     libucrt:pow_pentium4.obj
 0001:0007e1c1       __fFEXP                    0047f1c1     libucrt:87tran.obj
 0001:0007e218       __rtinfpopse               0047f218     libucrt:87tran.obj
 0001:0007e21a       __rtinfnpopse              0047f21a     libucrt:87tran.obj
 0001:0007e22a       __fFLN                     0047f22a     libucrt:87tran.obj
 0001:0007e2df       __rtinfpop                 0047f2df     libucrt:87tran.obj
 0001:0007e2e1       __rtinfnpop                0047f2e1     libucrt:87tran.obj
 0001:0007e2fe       __ffexpm1                  0047f2fe     libucrt:87tran.obj
 0001:0007e3b0       __trandisp1                0047f3b0 f   libucrt:87disp.obj
 0001:0007e417       __trandisp2                0047f417 f   libucrt:87disp.obj
 0001:0007e4a3       __rttospopde               0047f4a3     libucrt:87disp.obj
 0001:0007e4a8       __rttospop                 0047f4a8     libucrt:87disp.obj
 0001:0007e4aa       __rtnospop                 0047f4aa     libucrt:87disp.obj
 0001:0007e4ac       __rttosnpop                0047f4ac     libucrt:87disp.obj
 0001:0007e4ad       __rtnospopde               0047f4ad     libucrt:87disp.obj
 0001:0007e4b4       __rtzeropop                0047f4b4     libucrt:87disp.obj
 0001:0007e4b6       __rtzeronpop               0047f4b6     libucrt:87disp.obj
 0001:0007e4bb       __rtzerospop               0047f4bb     libucrt:87disp.obj
 0001:0007e4c8       __rtonepop                 0047f4c8     libucrt:87disp.obj
 0001:0007e4ca       __rtonenpop                0047f4ca     libucrt:87disp.obj
 0001:0007e4cf       __tosnan1                  0047f4cf     libucrt:87disp.obj
 0001:0007e4fa       __nosnan2                  0047f4fa     libucrt:87disp.obj
 0001:0007e4fc       __tosnan2                  0047f4fc     libucrt:87disp.obj
 0001:0007e524       __nan2                     0047f524     libucrt:87disp.obj
 0001:0007e563       __rtindfpop                0047f563     libucrt:87disp.obj
 0001:0007e565       __rtindfnpop               0047f565     libucrt:87disp.obj
 0001:0007e576       __rttosnpopde              0047f576     libucrt:87disp.obj
 0001:0007e580       __rtatan2inf               0047f580     libucrt:87disp.obj
 0001:0007e59d       __rtchsifneg               0047f59d     libucrt:87disp.obj
 0001:0007e5b0       __startTwoArgErrorHandling 0047f5b0 f   libucrt:genexcep.obj
 0001:0007e5c7       __startOneArgErrorHandling 0047f5c7 f   libucrt:genexcep.obj
 0001:0007e610       __twoToTOS                 0047f610 f   libucrt:common.obj
 0001:0007e625       __load_CW                  0047f625 f   libucrt:common.obj
 0001:0007e63c       __convertTOStoQNaN         0047f63c f   libucrt:common.obj
 0001:0007e655       __fload_withFB             0047f655 f   libucrt:common.obj
 0001:0007e698       __checkTOS_withFB          0047f698 f   libucrt:common.obj
 0001:0007e6ae       __fast_exit                0047f6ae f   libucrt:common.obj
 0001:0007e6bb       __math_exit                0047f6bb f   libucrt:common.obj
 0001:0007e6e5       __check_overflow_exit      0047f6e5 f   libucrt:common.obj
 0001:0007e6f9       __check_range_exit         0047f6f9 f   libucrt:common.obj
 0001:0007e79c       __d_inttype                0047f79c f   libucrt:powhlp.obj
 0001:0007e806       __powhlp                   0047f806 f   libucrt:powhlp.obj
 0001:0007e931       ?initialize@?$dual_state_global@P6AHI@Z@__crt_state_management@@QAEXQ6AHI@Z@Z 0047f931 f i libucrt:new_handler.obj
 0001:0007e931       ?initialize@?$dual_state_global@H@__crt_state_management@@QAEXH@Z 0047f931 f i libucrt:timeset.obj
 0001:0007e931       ?initialize@?$dual_state_global@J@__crt_state_management@@QAEXJ@Z 0047f931 f i libucrt:timeset.obj
 0001:0007e931       ?initialize@?$dual_state_global@P6AXH@Z@__crt_state_management@@QAEXQ6AXH@Z@Z 0047f931 f i libucrt:signal.obj
 0001:0007e931       ?initialize@?$dual_state_global@P6AHPAU_exception@@@Z@__crt_state_management@@QAEXQ6AHPAU_exception@@@Z@Z 0047f931 f i libucrt:matherr.obj
 0001:0007e931       ?initialize@?$dual_state_global@PAPAD@__crt_state_management@@QAEXQAPAD@Z 0047f931 f i libucrt:environment_initialization.obj
 0001:0007e931       ?initialize@?$dual_state_global@P6AXPB_W00II@Z@__crt_state_management@@QAEXQ6AXPB_W00II@Z@Z 0047f931 f i libucrt:invalid_parameter.obj
 0001:0007e931       ?initialize@?$dual_state_global@PAU__crt_locale_data@@@__crt_state_management@@QAEXQAU__crt_locale_data@@@Z 0047f931 f i libucrt:initialization.obj
 0001:0007e962       ___acrt_initialize_timeset 0047f962 f   libucrt:timeset.obj
 0001:0007e999       ___daylight                0047f999 f   libucrt:timeset.obj
 0001:0007e99f       ___dstbias                 0047f99f f   libucrt:timeset.obj
 0001:0007e9a5       ___timezone                0047f9a5 f   libucrt:timeset.obj
 0001:0007e9ab       ___tzname                  0047f9ab f   libucrt:timeset.obj
 0001:0007e9b1       __get_daylight             0047f9b1 f   libucrt:timeset.obj
 0001:0007e9dd       __get_dstbias              0047f9dd f   libucrt:timeset.obj
 0001:0007ea09       __get_timezone             0047fa09 f   libucrt:timeset.obj
 0001:0007f17c       ___tzset                   0048017c f   libucrt:tzset.obj
 0001:0007f1cd       __isindst                  004801cd f   libucrt:tzset.obj
 0001:0007f5d9       ??1?$argument_list@D@?A0xb0e4b824@@QAE@XZ 004805d9 f i libucrt:argv_wildcards.obj
 0001:0007f5fe       ?append@?$argument_list@D@?A0xb0e4b824@@QAEHQAD@Z 004805fe f i libucrt:argv_wildcards.obj
 0001:0007f633       ?expand_if_necessary@?$argument_list@D@?A0xb0e4b824@@AAEHXZ 00480633 f i libucrt:argv_wildcards.obj
 0001:0007f6ba       ___acrt_expand_narrow_argv_wildcards 004806ba f   libucrt:argv_wildcards.obj
 0001:0007f6c5       ??$?RV<lambda_978dc153c237d78434369da87b74ff60>@@AAV<lambda_ad1ced32f4ac17aa236e5ef05d6b3b7c>@@V<lambda_4a8533e2866a575feecb8298ce776b0d>@@@?$__crt_seh_guarded_call@X@@QAEX$$QAV<lambda_978dc153c237d78434369da87b74ff60>@@AAV<lambda_ad1ced32f4ac17aa236e5ef05d6b3b7c>@@$$QAV<lambda_4a8533e2866a575feecb8298ce776b0d>@@@Z 004806c5 f i libucrt:mbctype.obj
 0001:0007f708       ??$__acrt_lock_and_call@V<lambda_ad1ced32f4ac17aa236e5ef05d6b3b7c>@@@@YAXW4__acrt_lock_id@@$$QAV<lambda_ad1ced32f4ac17aa236e5ef05d6b3b7c>@@@Z 00480708 f i libucrt:mbctype.obj
 0001:0007fb9f       ___acrt_initialize_multibyte 00480b9f f   libucrt:mbctype.obj
 0001:0007fbbd       ___acrt_update_thread_multibyte_data 00480bbd f   libucrt:mbctype.obj
 0001:0007fc5f       __setmbcp_nolock           00480c5f f   libucrt:mbctype.obj
 0001:0007fe50       ___acrt_initialize_command_line 00480e50 f   libucrt:argv_data.obj
 0001:0007fea0       ___dcrt_get_narrow_environment_from_os 00480ea0 f   libucrt:get_environment_from_os.obj
 0001:00080263       ___dcrt_set_variable_in_narrow_environment_nolock 00481263 f   libucrt:setenv.obj
 0001:0008026e       ___acrt_execute_initializers 0048126e f   libucrt:shared_initialization.obj
 0001:000802f1       ___acrt_execute_uninitializers 004812f1 f   libucrt:shared_initialization.obj
 0001:0008033e       _wcscat_s                  0048133e f   libucrt:wcscat_s.obj
 0001:00080480       _wcsncpy_s                 00481480 f   libucrt:wcsncpy_s.obj
 0001:0008048b       ___acrt_locale_free_monetary 0048148b f   libucrt:initmon.obj
 0001:00080589       ___acrt_locale_initialize_monetary 00481589 f   libucrt:initmon.obj
 0001:00080945       ___acrt_locale_free_numeric 00481945 f   libucrt:initnum.obj
 0001:000809ae       ___acrt_locale_initialize_numeric 004819ae f   libucrt:initnum.obj
 0001:00080e83       ___acrt_locale_free_time   00481e83 f   libucrt:inittime.obj
 0001:00080f67       ___acrt_locale_initialize_time 00481f67 f   libucrt:inittime.obj
 0001:00080fe6       _wcscspn                   00481fe6 f   libucrt:wcscspn.obj
 0001:00081036       _wcsncmp                   00482036 f   libucrt:wcsncmp.obj
 0001:00081070       ___acrt_add_locale_ref     00482070 f   libucrt:locale_refcounting.obj
 0001:000810ed       ___acrt_free_locale        004820ed f   libucrt:locale_refcounting.obj
 0001:00081237       ___acrt_locale_add_lc_time_reference 00482237 f   libucrt:locale_refcounting.obj
 0001:00081260       ___acrt_locale_free_lc_time_if_unreferenced 00482260 f   libucrt:locale_refcounting.obj
 0001:00081290       ___acrt_locale_release_lc_time_reference 00482290 f   libucrt:locale_refcounting.obj
 0001:000812b9       ___acrt_release_locale_ref 004822b9 f   libucrt:locale_refcounting.obj
 0001:0008133a       ___acrt_update_thread_locale_data 0048233a f   libucrt:locale_refcounting.obj
 0001:000813b1       __updatetlocinfoEx_nolock  004823b1 f   libucrt:locale_refcounting.obj
 0001:00081aff       ___acrt_get_qualified_locale 00482aff f   libucrt:get_qualified_locale.obj
 0001:00082437       ___acrt_get_qualified_locale_downlevel 00483437 f   libucrt:getqloc_downlevel.obj
 0001:000826e9       __clearfp                  004836e9 f   libucrt:ieee87.obj
 0001:000827c7       __control87                004837c7 f   libucrt:ieee87.obj
 0001:00082c1e       ___acrt_DownlevelLCIDToLocaleName 00483c1e f   libucrt:lcidtoname_downlevel.obj
 0001:00082cc8       ___acrt_DownlevelLocaleNameToLCID 00483cc8 f   libucrt:lcidtoname_downlevel.obj
 0001:00082cf4       ___acrt_fp_strflt_to_string 00483cf4 f   libucrt:_fptostr.obj
 0001:00082db0       ??0scoped_fp_state_reset@?A0x48fbfdd4@@QAE@XZ 00483db0 f i libucrt:cfout.obj
 0001:00082dda       ___acrt_fltout             00483dda f   libucrt:cfout.obj
 0001:00084353       ___acrt_stdio_flush_and_write_narrow_nolock 00485353 f   libucrt:_flsbuf.obj
 0001:0008435e       __fcloseall                0048535e f   libucrt:closeall.obj
 0001:000843fe       __wcsnicmp                 004853fe f   libucrt:wcsnicmp.obj
 0001:000844b6       __wcsnicmp_l               004854b6 f   libucrt:wcsnicmp.obj
 0001:000845b7       __strnicmp                 004855b7 f   libucrt:strnicmp.obj
 0001:00084623       __strnicmp_l               00485623 f   libucrt:strnicmp.obj
 0001:000846da       ___acrt_stdio_allocate_buffer_nolock 004856da f   libucrt:_getbuf.obj
 0001:000849da       __getfpcontrolword         004859da f   libucrt:_fenvutils.obj
 0001:00084a1d       __getfpstatusword          00485a1d f   libucrt:_fenvutils.obj
 0001:00084ac5       __setfpcontrolword         00485ac5 f   libucrt:_fenvutils.obj
 0001:00084b45       __setfpstatusword          00485b45 f   libucrt:_fenvutils.obj
 0001:00084bc5       ___acrt_LCMapStringW       00485bc5 f   libucrt:lcmapstringw.obj
 0001:00084c03       ___dcrt_lowio_initialize_console_output 00485c03 f   libucrt:initcon.obj
 0001:00084c22       ___dcrt_terminate_console_output 00485c22 f   libucrt:initcon.obj
 0001:00084c39       __frnd                     00485c39 f   libucrt:frnd.obj
 0001:00084e95       __wgetcwd                  00485e95 f   libucrt:getcwd.obj
 0001:00084f62       _strncpy_s                 00485f62 f   libucrt:strncpy_s.obj
 0001:00084f6d       __87except                 00485f6d f   libucrt:87except.obj
 0001:000851e5       _getenv_s                  004861e5 f   libucrt:getenv.obj
 0001:000852d0       _qsort                     004862d0 f   libucrt:qsort.obj
 0001:00085670       _strpbrk                   00486670 f   libucrt:strpbrk.obj
 0001:000856b0       __mbsdec                   004866b0 f   libucrt:mbsdec.obj
 0001:000856c7       __mbsdec_l                 004866c7 f   libucrt:mbsdec.obj
 0001:00085763       __strnicoll                00486763 f   libucrt:strnicol.obj
 0001:0008578c       __strnicoll_l              0048678c f   libucrt:strnicol.obj
 0001:00085943       __itow_s                   00486943 f   libucrt:xtoa.obj
 0001:00085978       _fegetenv                  00486978 f   libucrt:fegetenv.obj
 0001:00085995       _fesetenv                  00486995 f   libucrt:fesetenv.obj
 0001:000859de       _feholdexcept              004869de f   libucrt:feholdexcept.obj
 0001:00085a30       _log10                     00486a30 f   libucrt:log10.obj
 0001:00085a70       __CIlog10                  00486a70 f   libucrt:log10.obj
 0001:00085aab       __CIlog10_default          00486aab f   libucrt:log10.obj
 0001:00085abf       __log10_default            00486abf     libucrt:log10.obj
 0001:00085b80       ___ascii_strnicmp          00486b80 f   libucrt:_strnicm.obj
 0001:00085e89       ___acrt_CompareStringA     00486e89 f   libucrt:comparestringa.obj
 0001:00085ee0       __CIlog10_pentium4         00486ee0 f   libucrt:log10_pentium4.obj
 0001:00085ef8       __log10_pentium4           00486ef8     libucrt:log10_pentium4.obj
 0001:00086170       _IsProcessorFeaturePresent@4 00487170 f   kernel32:KERNEL32.dll
 0001:00086176       _RtlUnwind@16              00487176 f   kernel32:KERNEL32.dll
 0001:00086180       __FindPESection            00487180 f   LIBCMT:pesect.obj
 0001:000861d0       __IsNonwritableInCurrentImage 004871d0 f   LIBCMT:pesect.obj
 0001:00086290       __ValidateImageBase        00487290 f   LIBCMT:pesect.obj
 0001:000862d0       __aulldvrm                 004872d0 f   LIBCMT:ulldvrm.obj
 0001:00086370       __SEH_prolog4_GS           00487370 f   LIBCMT:_sehprolg4gs_.obj
 0001:000863b9       __SEH_epilog4_GS           004873b9 f   LIBCMT:_sehprolg4gs_.obj
 0001:000863d0       __allshl                   004873d0 f   LIBCMT:llshl.obj
 0001:000863f0       __alldvrm                  004873f0 f   LIBCMT:lldvrm.obj
 0001:000864d0       __ftol2_sse                004874d0 f   LIBCMT:_ftol2_.obj
 0001:000864d9       __ftol2_pentium4           004874d9 f   LIBCMT:_ftol2_.obj
 0001:000864ec       __ftol2_sse_excpt          004874ec f   LIBCMT:_ftol2_.obj
 0001:00086510       __ftol2                    00487510 f   LIBCMT:_ftol2_.obj
 0001:00086585       _wcschr                    00487585 f   libvcruntime:wcschr.obj
 0001:0008a0c0       ??__F_Static@?1???$_Immortalize@V_Iostream_error_category@std@@@std@@YAAAV_Iostream_error_category@0@XZ@YAXXZ 0048b0c0 f i Gstformat.obj
 0002:00000000       __imp__RegOpenKeyExA@20    0048c000     advapi32:ADVAPI32.dll
 0002:00000004       __imp__RegDeleteValueA@8   0048c004     advapi32:ADVAPI32.dll
 0002:00000008       __imp__RegDeleteKeyA@8     0048c008     advapi32:ADVAPI32.dll
 0002:0000000c       __imp__RegCreateKeyExA@36  0048c00c     advapi32:ADVAPI32.dll
 0002:00000010       __imp__CryptGenRandom@12   0048c010     advapi32:ADVAPI32.dll
 0002:00000014       __imp__CryptReleaseContext@8 0048c014     advapi32:ADVAPI32.dll
 0002:00000018       __imp__CryptAcquireContextA@20 0048c018     advapi32:ADVAPI32.dll
 0002:0000001c       __imp__StartServiceA@12    0048c01c     advapi32:ADVAPI32.dll
 0002:00000020       __imp__QueryServiceStatus@8 0048c020     advapi32:ADVAPI32.dll
 0002:00000024       __imp__ControlService@12   0048c024     advapi32:ADVAPI32.dll
 0002:00000028       __imp__LookupPrivilegeValueA@12 0048c028     advapi32:ADVAPI32.dll
 0002:0000002c       __imp__IsWellKnownSid@8    0048c02c     advapi32:ADVAPI32.dll
 0002:00000030       __imp__GetTokenInformation@20 0048c030     advapi32:ADVAPI32.dll
 0002:00000034       __imp__AdjustTokenPrivileges@24 0048c034     advapi32:ADVAPI32.dll
 0002:00000038       __imp__OpenProcessToken@12 0048c038     advapi32:ADVAPI32.dll
 0002:0000003c       __imp__OpenServiceA@12     0048c03c     advapi32:ADVAPI32.dll
 0002:00000040       __imp__OpenSCManagerA@12   0048c040     advapi32:ADVAPI32.dll
 0002:00000044       __imp__DeleteService@4     0048c044     advapi32:ADVAPI32.dll
 0002:00000048       __imp__CreateServiceA@52   0048c048     advapi32:ADVAPI32.dll
 0002:0000004c       __imp__CloseServiceHandle@4 0048c04c     advapi32:ADVAPI32.dll
 0002:00000050       __imp__ChangeServiceConfig2A@12 0048c050     advapi32:ADVAPI32.dll
 0002:00000054       __imp__ChangeServiceConfigA@44 0048c054     advapi32:ADVAPI32.dll
 0002:00000058       __imp__RegSetValueExA@24   0048c058     advapi32:ADVAPI32.dll
 0002:0000005c       __imp__RegCloseKey@4       0048c05c     advapi32:ADVAPI32.dll
 0002:00000060       __imp__RegQueryValueExA@24 0048c060     advapi32:ADVAPI32.dll
 0002:00000064       \177ADVAPI32_NULL_THUNK_DATA 0048c064     advapi32:ADVAPI32.dll
 0002:00000068       __imp__InitCommonControls@0 0048c068     comctl32:COMCTL32.dll
 0002:0000006c       \177COMCTL32_NULL_THUNK_DATA 0048c06c     comctl32:COMCTL32.dll
 0002:00000070       __imp__GetOpenFileNameW@4  0048c070     comdlg32:COMDLG32.dll
 0002:00000074       __imp__GetSaveFileNameW@4  0048c074     comdlg32:COMDLG32.dll
 0002:00000078       \177COMDLG32_NULL_THUNK_DATA 0048c078     comdlg32:COMDLG32.dll
 0002:0000007c       __imp__GetObjectA@12       0048c07c     gdi32:GDI32.dll
 0002:00000080       __imp__GetTextMetricsA@8   0048c080     gdi32:GDI32.dll
 0002:00000084       __imp__SetStretchBltMode@8 0048c084     gdi32:GDI32.dll
 0002:00000088       __imp__StretchBlt@44       0048c088     gdi32:GDI32.dll
 0002:0000008c       __imp__SetMapMode@8        0048c08c     gdi32:GDI32.dll
 0002:00000090       __imp__DeleteObject@4      0048c090     gdi32:GDI32.dll
 0002:00000094       __imp__BitBlt@36           0048c094     gdi32:GDI32.dll
 0002:00000098       __imp__MoveToEx@16         0048c098     gdi32:GDI32.dll
 0002:0000009c       __imp__CreateCompatibleDC@4 0048c09c     gdi32:GDI32.dll
 0002:000000a0       __imp__CreateFontIndirectW@4 0048c0a0     gdi32:GDI32.dll
 0002:000000a4       __imp__CreatePen@12        0048c0a4     gdi32:GDI32.dll
 0002:000000a8       __imp__DeleteDC@4          0048c0a8     gdi32:GDI32.dll
 0002:000000ac       __imp__GetCurrentObject@8  0048c0ac     gdi32:GDI32.dll
 0002:000000b0       __imp__GetDeviceCaps@8     0048c0b0     gdi32:GDI32.dll
 0002:000000b4       __imp__GetStockObject@4    0048c0b4     gdi32:GDI32.dll
 0002:000000b8       __imp__GetTextExtentPoint32W@16 0048c0b8     gdi32:GDI32.dll
 0002:000000bc       __imp__LineTo@12           0048c0bc     gdi32:GDI32.dll
 0002:000000c0       __imp__CreateCompatibleBitmap@12 0048c0c0     gdi32:GDI32.dll
 0002:000000c4       __imp__SelectObject@8      0048c0c4     gdi32:GDI32.dll
 0002:000000c8       \177GDI32_NULL_THUNK_DATA  0048c0c8     gdi32:GDI32.dll
 0002:000000cc       __imp__MultiByteToWideChar@24 0048c0cc     kernel32:KERNEL32.dll
 0002:000000d0       __imp__GetCommandLineW@0   0048c0d0     kernel32:KERNEL32.dll
 0002:000000d4       __imp__LocalFree@4         0048c0d4     kernel32:KERNEL32.dll
 0002:000000d8       __imp__SetCurrentDirectoryA@4 0048c0d8     kernel32:KERNEL32.dll
 0002:000000dc       __imp__GetCurrentDirectoryA@8 0048c0dc     kernel32:KERNEL32.dll
 0002:000000e0       __imp__FindFirstFileA@8    0048c0e0     kernel32:KERNEL32.dll
 0002:000000e4       __imp__FindNextFileA@8     0048c0e4     kernel32:KERNEL32.dll
 0002:000000e8       __imp__FlushFileBuffers@4  0048c0e8     kernel32:KERNEL32.dll
 0002:000000ec       __imp__GetFileAttributesA@4 0048c0ec     kernel32:KERNEL32.dll
 0002:000000f0       __imp__GetFileSize@8       0048c0f0     kernel32:KERNEL32.dll
 0002:000000f4       __imp__GetLogicalDrives@0  0048c0f4     kernel32:KERNEL32.dll
 0002:000000f8       __imp__GetVolumeInformationW@32 0048c0f8     kernel32:KERNEL32.dll
 0002:000000fc       __imp__SetFilePointer@16   0048c0fc     kernel32:KERNEL32.dll
 0002:00000100       __imp__UnhandledExceptionFilter@4 0048c100     kernel32:KERNEL32.dll
 0002:00000104       __imp__SetUnhandledExceptionFilter@4 0048c104     kernel32:KERNEL32.dll
 0002:00000108       __imp__SetErrorMode@4      0048c108     kernel32:KERNEL32.dll
 0002:0000010c       __imp__QueryPerformanceCounter@4 0048c10c     kernel32:KERNEL32.dll
 0002:00000110       __imp__QueryPerformanceFrequency@4 0048c110     kernel32:KERNEL32.dll
 0002:00000114       __imp__ReleaseMutex@4      0048c114     kernel32:KERNEL32.dll
 0002:00000118       __imp__WaitForSingleObject@8 0048c118     kernel32:KERNEL32.dll
 0002:0000011c       __imp__CreateMutexA@12     0048c11c     kernel32:KERNEL32.dll
 0002:00000120       __imp__GetCurrentProcess@0 0048c120     kernel32:KERNEL32.dll
 0002:00000124       __imp__GetCurrentProcessId@0 0048c124     kernel32:KERNEL32.dll
 0002:00000128       __imp__GetCurrentThread@0  0048c128     kernel32:KERNEL32.dll
 0002:0000012c       __imp__GetSystemInfo@4     0048c12c     kernel32:KERNEL32.dll
 0002:00000130       __imp__GetVersionExA@4     0048c130     kernel32:KERNEL32.dll
 0002:00000134       __imp__VirtualQuery@12     0048c134     kernel32:KERNEL32.dll
 0002:00000138       __imp__GetModuleFileNameW@12 0048c138     kernel32:KERNEL32.dll
 0002:0000013c       __imp__GetModuleHandleA@4  0048c13c     kernel32:KERNEL32.dll
 0002:00000140       __imp__GetProcAddress@8    0048c140     kernel32:KERNEL32.dll
 0002:00000144       __imp__LoadLibraryExA@12   0048c144     kernel32:KERNEL32.dll
 0002:00000148       __imp__LoadResource@8      0048c148     kernel32:KERNEL32.dll
 0002:0000014c       __imp__LockResource@4      0048c14c     kernel32:KERNEL32.dll
 0002:00000150       __imp__SizeofResource@8    0048c150     kernel32:KERNEL32.dll
 0002:00000154       __imp__FormatMessageW@28   0048c154     kernel32:KERNEL32.dll
 0002:00000158       __imp__OpenMutexA@12       0048c158     kernel32:KERNEL32.dll
 0002:0000015c       __imp__FindResourceA@12    0048c15c     kernel32:KERNEL32.dll
 0002:00000160       __imp__DefineDosDeviceA@12 0048c160     kernel32:KERNEL32.dll
 0002:00000164       __imp__QueryDosDeviceA@12  0048c164     kernel32:KERNEL32.dll
 0002:00000168       __imp__SetEvent@4          0048c168     kernel32:KERNEL32.dll
 0002:0000016c       __imp__ResetEvent@4        0048c16c     kernel32:KERNEL32.dll
 0002:00000170       __imp__CreateEventA@16     0048c170     kernel32:KERNEL32.dll
 0002:00000174       __imp__SetEndOfFile@4      0048c174     kernel32:KERNEL32.dll
 0002:00000178       __imp__SetThreadPriority@8 0048c178     kernel32:KERNEL32.dll
 0002:0000017c       __imp__FreeLibrary@4       0048c17c     kernel32:KERNEL32.dll
 0002:00000180       __imp__SetVolumeMountPointA@8 0048c180     kernel32:KERNEL32.dll
 0002:00000184       __imp__DeleteVolumeMountPointA@4 0048c184     kernel32:KERNEL32.dll
 0002:00000188       __imp__GetVolumeNameForVolumeMountPointA@12 0048c188     kernel32:KERNEL32.dll
 0002:0000018c       __imp__GetFileAttributesExA@12 0048c18c     kernel32:KERNEL32.dll
 0002:00000190       __imp__GetProcessHeap@0    0048c190     kernel32:KERNEL32.dll
 0002:00000194       __imp__InitializeCriticalSection@4 0048c194     kernel32:KERNEL32.dll
 0002:00000198       __imp__EnterCriticalSection@4 0048c198     kernel32:KERNEL32.dll
 0002:0000019c       __imp__LeaveCriticalSection@4 0048c19c     kernel32:KERNEL32.dll
 0002:000001a0       __imp__GetProcessTimes@20  0048c1a0     kernel32:KERNEL32.dll
 0002:000001a4       __imp__GetThreadTimes@20   0048c1a4     kernel32:KERNEL32.dll
 0002:000001a8       __imp__GlobalMemoryStatus@4 0048c1a8     kernel32:KERNEL32.dll
 0002:000001ac       __imp__GetProcessWorkingSetSize@12 0048c1ac     kernel32:KERNEL32.dll
 0002:000001b0       __imp__GetStartupInfoA@4   0048c1b0     kernel32:KERNEL32.dll
 0002:000001b4       __imp__LoadLibraryA@4      0048c1b4     kernel32:KERNEL32.dll
 0002:000001b8       __imp__IsValidCodePage@4   0048c1b8     kernel32:KERNEL32.dll
 0002:000001bc       __imp__GetTempPathA@8      0048c1bc     kernel32:KERNEL32.dll
 0002:000001c0       __imp__GetTimeZoneInformation@4 0048c1c0     kernel32:KERNEL32.dll
 0002:000001c4       __imp__GetFullPathNameW@16 0048c1c4     kernel32:KERNEL32.dll
 0002:000001c8       __imp__GetCurrentDirectoryW@8 0048c1c8     kernel32:KERNEL32.dll
 0002:000001cc       __imp__ReadConsoleW@20     0048c1cc     kernel32:KERNEL32.dll
 0002:000001d0       __imp__WriteConsoleW@20    0048c1d0     kernel32:KERNEL32.dll
 0002:000001d4       __imp__HeapSize@12         0048c1d4     kernel32:KERNEL32.dll
 0002:000001d8       __imp__SetFileAttributesW@8 0048c1d8     kernel32:KERNEL32.dll
 0002:000001dc       __imp__DeleteFileW@4       0048c1dc     kernel32:KERNEL32.dll
 0002:000001e0       __imp__EnumSystemLocalesW@8 0048c1e0     kernel32:KERNEL32.dll
 0002:000001e4       __imp__GetUserDefaultLCID@0 0048c1e4     kernel32:KERNEL32.dll
 0002:000001e8       __imp__IsValidLocale@8     0048c1e8     kernel32:KERNEL32.dll
 0002:000001ec       __imp__GetACP@0            0048c1ec     kernel32:KERNEL32.dll
 0002:000001f0       __imp__GetStdHandle@4      0048c1f0     kernel32:KERNEL32.dll
 0002:000001f4       __imp__HeapReAlloc@16      0048c1f4     kernel32:KERNEL32.dll
 0002:000001f8       __imp__HeapFree@12         0048c1f8     kernel32:KERNEL32.dll
 0002:000001fc       __imp__HeapAlloc@12        0048c1fc     kernel32:KERNEL32.dll
 0002:00000200       __imp__FindFirstFileExW@24 0048c200     kernel32:KERNEL32.dll
 0002:00000204       __imp__FileTimeToSystemTime@8 0048c204     kernel32:KERNEL32.dll
 0002:00000208       __imp__SystemTimeToTzSpecificLocalTime@12 0048c208     kernel32:KERNEL32.dll
 0002:0000020c       __imp__PeekNamedPipe@24    0048c20c     kernel32:KERNEL32.dll
 0002:00000210       __imp__GetDriveTypeW@4     0048c210     kernel32:KERNEL32.dll
 0002:00000214       __imp__GetConsoleMode@8    0048c214     kernel32:KERNEL32.dll
 0002:00000218       __imp__GetConsoleCP@0      0048c218     kernel32:KERNEL32.dll
 0002:0000021c       __imp__GetFileType@4       0048c21c     kernel32:KERNEL32.dll
 0002:00000220       __imp__SetStdHandle@8      0048c220     kernel32:KERNEL32.dll
 0002:00000224       __imp__GetFileAttributesExW@12 0048c224     kernel32:KERNEL32.dll
 0002:00000228       __imp__FreeLibraryAndExitThread@8 0048c228     kernel32:KERNEL32.dll
 0002:0000022c       __imp__ResumeThread@4      0048c22c     kernel32:KERNEL32.dll
 0002:00000230       __imp__ExitThread@4        0048c230     kernel32:KERNEL32.dll
 0002:00000234       __imp__CreateThread@24     0048c234     kernel32:KERNEL32.dll
 0002:00000238       __imp__GetModuleHandleExW@12 0048c238     kernel32:KERNEL32.dll
 0002:0000023c       __imp__ExitProcess@4       0048c23c     kernel32:KERNEL32.dll
 0002:00000240       __imp__LoadLibraryExW@12   0048c240     kernel32:KERNEL32.dll
 0002:00000244       __imp__RtlUnwind@16        0048c244     kernel32:KERNEL32.dll
 0002:00000248       __imp__OutputDebugStringW@4 0048c248     kernel32:KERNEL32.dll
 0002:0000024c       __imp__InitializeSListHead@4 0048c24c     kernel32:KERNEL32.dll
 0002:00000250       __imp__GetStartupInfoW@4   0048c250     kernel32:KERNEL32.dll
 0002:00000254       __imp__IsDebuggerPresent@0 0048c254     kernel32:KERNEL32.dll
 0002:00000258       __imp__IsProcessorFeaturePresent@4 0048c258     kernel32:KERNEL32.dll
 0002:0000025c       __imp__TerminateProcess@8  0048c25c     kernel32:KERNEL32.dll
 0002:00000260       __imp__WaitForSingleObjectEx@12 0048c260     kernel32:KERNEL32.dll
 0002:00000264       __imp__GetCPInfo@8         0048c264     kernel32:KERNEL32.dll
 0002:00000268       __imp__GetLocaleInfoW@16   0048c268     kernel32:KERNEL32.dll
 0002:0000026c       __imp__LCMapStringW@24     0048c26c     kernel32:KERNEL32.dll
 0002:00000270       __imp__CompareStringW@24   0048c270     kernel32:KERNEL32.dll
 0002:00000274       __imp__GetModuleHandleW@4  0048c274     kernel32:KERNEL32.dll
 0002:00000278       __imp__GetSystemTimeAsFileTime@4 0048c278     kernel32:KERNEL32.dll
 0002:0000027c       __imp__TlsFree@4           0048c27c     kernel32:KERNEL32.dll
 0002:00000280       __imp__TlsSetValue@8       0048c280     kernel32:KERNEL32.dll
 0002:00000284       __imp__TlsGetValue@4       0048c284     kernel32:KERNEL32.dll
 0002:00000288       __imp__TlsAlloc@0          0048c288     kernel32:KERNEL32.dll
 0002:0000028c       __imp__CreateEventW@16     0048c28c     kernel32:KERNEL32.dll
 0002:00000290       __imp__EncodePointer@4     0048c290     kernel32:KERNEL32.dll
 0002:00000294       __imp__GetStringTypeW@16   0048c294     kernel32:KERNEL32.dll
 0002:00000298       __imp__GetShortPathNameA@12 0048c298     kernel32:KERNEL32.dll
 0002:0000029c       __imp__GetSystemDirectoryA@8 0048c29c     kernel32:KERNEL32.dll
 0002:000002a0       __imp__DeleteCriticalSection@4 0048c2a0     kernel32:KERNEL32.dll
 0002:000002a4       __imp__InitializeCriticalSectionAndSpinCount@8 0048c2a4     kernel32:KERNEL32.dll
 0002:000002a8       __imp__RaiseException@16   0048c2a8     kernel32:KERNEL32.dll
 0002:000002ac       __imp__DecodePointer@4     0048c2ac     kernel32:KERNEL32.dll
 0002:000002b0       __imp__QueryDosDeviceW@12  0048c2b0     kernel32:KERNEL32.dll
 0002:000002b4       __imp__GetDriveTypeA@4     0048c2b4     kernel32:KERNEL32.dll
 0002:000002b8       __imp__FindVolumeClose@4   0048c2b8     kernel32:KERNEL32.dll
 0002:000002bc       __imp__FindNextVolumeW@12  0048c2bc     kernel32:KERNEL32.dll
 0002:000002c0       __imp__FindFirstVolumeW@8  0048c2c0     kernel32:KERNEL32.dll
 0002:000002c4       __imp__CreateDirectoryA@8  0048c2c4     kernel32:KERNEL32.dll
 0002:000002c8       __imp__WideCharToMultiByte@32 0048c2c8     kernel32:KERNEL32.dll
 0002:000002cc       __imp__CopyFileA@12        0048c2cc     kernel32:KERNEL32.dll
 0002:000002d0       __imp__DeleteFileA@4       0048c2d0     kernel32:KERNEL32.dll
 0002:000002d4       __imp__WriteFile@20        0048c2d4     kernel32:KERNEL32.dll
 0002:000002d8       __imp__FindNextFileW@8     0048c2d8     kernel32:KERNEL32.dll
 0002:000002dc       __imp__FindFirstFileW@8    0048c2dc     kernel32:KERNEL32.dll
 0002:000002e0       __imp__FindClose@4         0048c2e0     kernel32:KERNEL32.dll
 0002:000002e4       __imp__CreateFileW@28      0048c2e4     kernel32:KERNEL32.dll
 0002:000002e8       __imp__GetVolumePathNameA@12 0048c2e8     kernel32:KERNEL32.dll
 0002:000002ec       __imp__GetVolumeInformationA@32 0048c2ec     kernel32:KERNEL32.dll
 0002:000002f0       __imp__SetThreadExecutionState@4 0048c2f0     kernel32:KERNEL32.dll
 0002:000002f4       __imp__GetModuleFileNameA@12 0048c2f4     kernel32:KERNEL32.dll
 0002:000002f8       __imp__VirtualUnlock@8     0048c2f8     kernel32:KERNEL32.dll
 0002:000002fc       __imp__VirtualLock@8       0048c2fc     kernel32:KERNEL32.dll
 0002:00000300       __imp__GetTickCount@0      0048c300     kernel32:KERNEL32.dll
 0002:00000304       __imp__Sleep@4             0048c304     kernel32:KERNEL32.dll
 0002:00000308       __imp__DeviceIoControl@32  0048c308     kernel32:KERNEL32.dll
 0002:0000030c       __imp__SetLastError@4      0048c30c     kernel32:KERNEL32.dll
 0002:00000310       __imp__GetLastError@0      0048c310     kernel32:KERNEL32.dll
 0002:00000314       __imp__CloseHandle@4       0048c314     kernel32:KERNEL32.dll
 0002:00000318       __imp__SetFileTime@16      0048c318     kernel32:KERNEL32.dll
 0002:0000031c       __imp__SetFilePointerEx@20 0048c31c     kernel32:KERNEL32.dll
 0002:00000320       __imp__ReadFile@20         0048c320     kernel32:KERNEL32.dll
 0002:00000324       __imp__GetFileTime@16      0048c324     kernel32:KERNEL32.dll
 0002:00000328       __imp__GetFileSizeEx@8     0048c328     kernel32:KERNEL32.dll
 0002:0000032c       __imp__GetFileInformationByHandle@8 0048c32c     kernel32:KERNEL32.dll
 0002:00000330       __imp__GetDiskFreeSpaceExA@16 0048c330     kernel32:KERNEL32.dll
 0002:00000334       __imp__GetDiskFreeSpaceA@20 0048c334     kernel32:KERNEL32.dll
 0002:00000338       __imp__CreateFileA@28      0048c338     kernel32:KERNEL32.dll
 0002:0000033c       __imp__SetProcessShutdownParameters@8 0048c33c     kernel32:KERNEL32.dll
 0002:00000340       __imp__GetCurrentThreadId@0 0048c340     kernel32:KERNEL32.dll
 0002:00000344       __imp__InitializeCriticalSectionEx@12 0048c344     kernel32:KERNEL32.dll
 0002:00000348       __imp__GetOEMCP@0          0048c348     kernel32:KERNEL32.dll
 0002:0000034c       __imp__GetCommandLineA@0   0048c34c     kernel32:KERNEL32.dll
 0002:00000350       __imp__GetEnvironmentStringsW@0 0048c350     kernel32:KERNEL32.dll
 0002:00000354       __imp__FreeEnvironmentStringsW@4 0048c354     kernel32:KERNEL32.dll
 0002:00000358       __imp__SetEnvironmentVariableA@8 0048c358     kernel32:KERNEL32.dll
 0002:0000035c       __imp__FindFirstFileExA@24 0048c35c     kernel32:KERNEL32.dll
 0002:00000360       \177KERNEL32_NULL_THUNK_DATA 0048c360     kernel32:KERNEL32.dll
 0002:00000364       __imp__SysStringByteLen@4  0048c364     oleaut32:OLEAUT32.dll
 0002:00000368       __imp__SysFreeString@4     0048c368     oleaut32:OLEAUT32.dll
 0002:0000036c       __imp__SysAllocStringLen@8 0048c36c     oleaut32:OLEAUT32.dll
 0002:00000370       __imp__SysAllocStringByteLen@8 0048c370     oleaut32:OLEAUT32.dll
 0002:00000374       \177OLEAUT32_NULL_THUNK_DATA 0048c374     oleaut32:OLEAUT32.dll
 0002:00000378       __imp__SetupInstallFromInfSectionA@44 0048c378     setupapi:SETUPAPI.dll
 0002:0000037c       __imp__SetupCloseInfFile@4 0048c37c     setupapi:SETUPAPI.dll
 0002:00000380       __imp__SetupOpenInfFileA@16 0048c380     setupapi:SETUPAPI.dll
 0002:00000384       __imp__SetupDiOpenClassRegKey@8 0048c384     setupapi:SETUPAPI.dll
 0002:00000388       \177SETUPAPI_NULL_THUNK_DATA 0048c388     setupapi:SETUPAPI.dll
 0002:0000038c       __imp__DragFinish@4        0048c38c     shell32:SHELL32.dll
 0002:00000390       __imp__DragQueryFileA@16   0048c390     shell32:SHELL32.dll
 0002:00000394       __imp__IsUserAnAdmin@0     0048c394     shell32:SHELL32.dll
 0002:00000398       __imp__SHChangeNotify@16   0048c398     shell32:SHELL32.dll
 0002:0000039c       __imp__SHBrowseForFolderW@4 0048c39c     shell32:SHELL32.dll
 0002:000003a0       __imp__SHGetPathFromIDListA@8 0048c3a0     shell32:SHELL32.dll
 0002:000003a4       __imp__SHGetMalloc@4       0048c3a4     shell32:SHELL32.dll
 0002:000003a8       __imp__SHGetFileInfoA@20   0048c3a8     shell32:SHELL32.dll
 0002:000003ac       __imp__ShellExecuteW@24    0048c3ac     shell32:SHELL32.dll
 0002:000003b0       __imp__CommandLineToArgvW@8 0048c3b0     shell32:SHELL32.dll
 0002:000003b4       __imp__SHGetFolderPathA@20 0048c3b4     shell32:SHELL32.dll
 0002:000003b8       __imp__ShellExecuteA@24    0048c3b8     shell32:SHELL32.dll
 0002:000003bc       __imp__DragAcceptFiles@8   0048c3bc     shell32:SHELL32.dll
 0002:000003c0       \177SHELL32_NULL_THUNK_DATA 0048c3c0     shell32:SHELL32.dll
 0002:000003c4       __imp__LoadBitmapA@8       0048c3c4     user32:USER32.dll
 0002:000003c8       __imp__GetClassNameA@12    0048c3c8     user32:USER32.dll
 0002:000003cc       __imp__EnumChildWindows@12 0048c3cc     user32:USER32.dll
 0002:000003d0       __imp__SetWindowLongA@12   0048c3d0     user32:USER32.dll
 0002:000003d4       __imp__SetCursor@4         0048c3d4     user32:USER32.dll
 0002:000003d8       __imp__LoadCursorA@8       0048c3d8     user32:USER32.dll
 0002:000003dc       __imp__GetWindowTextW@12   0048c3dc     user32:USER32.dll
 0002:000003e0       __imp__GetDesktopWindow@0  0048c3e0     user32:USER32.dll
 0002:000003e4       __imp__BeginPaint@8        0048c3e4     user32:USER32.dll
 0002:000003e8       __imp__ReleaseDC@8         0048c3e8     user32:USER32.dll
 0002:000003ec       __imp__GetDC@4             0048c3ec     user32:USER32.dll
 0002:000003f0       __imp__SetForegroundWindow@4 0048c3f0     user32:USER32.dll
 0002:000003f4       __imp__LoadIconA@8         0048c3f4     user32:USER32.dll
 0002:000003f8       __imp__SystemParametersInfoW@16 0048c3f8     user32:USER32.dll
 0002:000003fc       __imp__GetWindowInfo@8     0048c3fc     user32:USER32.dll
 0002:00000400       __imp__SendDlgItemMessageW@20 0048c400     user32:USER32.dll
 0002:00000404       __imp__GetProcessWindowStation@0 0048c404     user32:USER32.dll
 0002:00000408       __imp__GetMessagePos@0     0048c408     user32:USER32.dll
 0002:0000040c       __imp__GetMessageTime@0    0048c40c     user32:USER32.dll
 0002:00000410       __imp__GetClipboardOwner@0 0048c410     user32:USER32.dll
 0002:00000414       __imp__GetClipboardViewer@0 0048c414     user32:USER32.dll
 0002:00000418       __imp__GetOpenClipboardWindow@0 0048c418     user32:USER32.dll
 0002:0000041c       __imp__GetInputState@0     0048c41c     user32:USER32.dll
 0002:00000420       __imp__GetFocus@0          0048c420     user32:USER32.dll
 0002:00000424       __imp__GetQueueStatus@4    0048c424     user32:USER32.dll
 0002:00000428       __imp__GetCapture@0        0048c428     user32:USER32.dll
 0002:0000042c       __imp__GetCursorPos@4      0048c42c     user32:USER32.dll
 0002:00000430       __imp__GetClientRect@8     0048c430     user32:USER32.dll
 0002:00000434       __imp__GetCaretPos@4       0048c434     user32:USER32.dll
 0002:00000438       __imp__GetMessageA@16      0048c438     user32:USER32.dll
 0002:0000043c       __imp__TranslateMessage@4  0048c43c     user32:USER32.dll
 0002:00000440       __imp__DispatchMessageA@4  0048c440     user32:USER32.dll
 0002:00000444       __imp__SetWindowsHookExA@16 0048c444     user32:USER32.dll
 0002:00000448       __imp__UnhookWindowsHookEx@4 0048c448     user32:USER32.dll
 0002:0000044c       __imp__CallNextHookEx@16   0048c44c     user32:USER32.dll
 0002:00000450       __imp__GetUpdateRect@12    0048c450     user32:USER32.dll
 0002:00000454       __imp__AppendMenuW@16      0048c454     user32:USER32.dll
 0002:00000458       __imp__AppendMenuA@16      0048c458     user32:USER32.dll
 0002:0000045c       __imp__GetSystemMenu@8     0048c45c     user32:USER32.dll
 0002:00000460       __imp__GetSystemMetrics@4  0048c460     user32:USER32.dll
 0002:00000464       __imp__GetKeyState@4       0048c464     user32:USER32.dll
 0002:00000468       __imp__DefDlgProcA@16      0048c468     user32:USER32.dll
 0002:0000046c       __imp__GetDialogBaseUnits@0 0048c46c     user32:USER32.dll
 0002:00000470       __imp__GetDlgCtrlID@4      0048c470     user32:USER32.dll
 0002:00000474       __imp__SendDlgItemMessageA@20 0048c474     user32:USER32.dll
 0002:00000478       __imp__SetDlgItemTextW@12  0048c478     user32:USER32.dll
 0002:0000047c       __imp__SetWindowPos@28     0048c47c     user32:USER32.dll
 0002:00000480       __imp__SetLayeredWindowAttributes@16 0048c480     user32:USER32.dll
 0002:00000484       __imp__CreateWindowExA@48  0048c484     user32:USER32.dll
 0002:00000488       __imp__RegisterClassExA@4  0048c488     user32:USER32.dll
 0002:0000048c       __imp__GetClassInfoA@12    0048c48c     user32:USER32.dll
 0002:00000490       __imp__RegisterClassA@4    0048c490     user32:USER32.dll
 0002:00000494       __imp__CallWindowProcA@20  0048c494     user32:USER32.dll
 0002:00000498       __imp__DefWindowProcA@16   0048c498     user32:USER32.dll
 0002:0000049c       __imp__SendMessageTimeoutA@28 0048c49c     user32:USER32.dll
 0002:000004a0       __imp__SendMessageW@16     0048c4a0     user32:USER32.dll
 0002:000004a4       __imp__ExitWindowsEx@8     0048c4a4     user32:USER32.dll
 0002:000004a8       __imp__TrackMouseEvent@4   0048c4a8     user32:USER32.dll
 0002:000004ac       __imp__wsprintfA           0048c4ac     user32:USER32.dll
 0002:000004b0       __imp__MessageBoxA@16      0048c4b0     user32:USER32.dll
 0002:000004b4       __imp__GetActiveWindow@0   0048c4b4     user32:USER32.dll
 0002:000004b8       __imp__UnregisterClassA@8  0048c4b8     user32:USER32.dll
 0002:000004bc       __imp__MapDialogRect@8     0048c4bc     user32:USER32.dll
 0002:000004c0       __imp__EnumWindows@8       0048c4c0     user32:USER32.dll
 0002:000004c4       __imp__GetParent@4         0048c4c4     user32:USER32.dll
 0002:000004c8       __imp__GetWindowLongA@8    0048c4c8     user32:USER32.dll
 0002:000004cc       __imp__MessageBeep@4       0048c4cc     user32:USER32.dll
 0002:000004d0       __imp__MessageBoxW@16      0048c4d0     user32:USER32.dll
 0002:000004d4       __imp__GetWindowRect@8     0048c4d4     user32:USER32.dll
 0002:000004d8       __imp__GetWindowTextLengthA@4 0048c4d8     user32:USER32.dll
 0002:000004dc       __imp__GetWindowTextA@12   0048c4dc     user32:USER32.dll
 0002:000004e0       __imp__SetWindowTextW@8    0048c4e0     user32:USER32.dll
 0002:000004e4       __imp__SetWindowTextA@8    0048c4e4     user32:USER32.dll
 0002:000004e8       __imp__InvalidateRect@12   0048c4e8     user32:USER32.dll
 0002:000004ec       __imp__EnableWindow@8      0048c4ec     user32:USER32.dll
 0002:000004f0       __imp__KillTimer@8         0048c4f0     user32:USER32.dll
 0002:000004f4       __imp__SetTimer@16         0048c4f4     user32:USER32.dll
 0002:000004f8       __imp__GetAsyncKeyState@4  0048c4f8     user32:USER32.dll
 0002:000004fc       __imp__SetFocus@4          0048c4fc     user32:USER32.dll
 0002:00000500       __imp__GetDlgItemTextA@16  0048c500     user32:USER32.dll
 0002:00000504       __imp__SetDlgItemTextA@12  0048c504     user32:USER32.dll
 0002:00000508       __imp__GetDlgItem@8        0048c508     user32:USER32.dll
 0002:0000050c       __imp__EndDialog@8         0048c50c     user32:USER32.dll
 0002:00000510       __imp__DialogBoxParamW@20  0048c510     user32:USER32.dll
 0002:00000514       __imp__CreateDialogParamW@20 0048c514     user32:USER32.dll
 0002:00000518       __imp__MoveWindow@24       0048c518     user32:USER32.dll
 0002:0000051c       __imp__ShowWindow@8        0048c51c     user32:USER32.dll
 0002:00000520       __imp__DestroyWindow@4     0048c520     user32:USER32.dll
 0002:00000524       __imp__IsWindow@4          0048c524     user32:USER32.dll
 0002:00000528       __imp__PostMessageA@16     0048c528     user32:USER32.dll
 0002:0000052c       __imp__SendMessageA@16     0048c52c     user32:USER32.dll
 0002:00000530       __imp__PeekMessageA@20     0048c530     user32:USER32.dll
 0002:00000534       __imp__GetKeyboardLayout@4 0048c534     user32:USER32.dll
 0002:00000538       __imp__LoadKeyboardLayoutA@8 0048c538     user32:USER32.dll
 0002:0000053c       __imp__wsprintfW           0048c53c     user32:USER32.dll
 0002:00000540       __imp__PostThreadMessageA@16 0048c540     user32:USER32.dll
 0002:00000544       __imp__EndPaint@8          0048c544     user32:USER32.dll
 0002:00000548       \177USER32_NULL_THUNK_DATA 0048c548     user32:USER32.dll
 0002:0000054c       __imp__CoGetObject@16      0048c54c     ole32:ole32.dll
 0002:00000550       __imp__StringFromGUID2@12  0048c550     ole32:ole32.dll
 0002:00000554       __imp__CoCreateInstance@20 0048c554     ole32:ole32.dll
 0002:00000558       __imp__CoInitialize@4      0048c558     ole32:ole32.dll
 0002:0000055c       __imp__CoRevokeClassObject@4 0048c55c     ole32:ole32.dll
 0002:00000560       __imp__CoRegisterClassObject@20 0048c560     ole32:ole32.dll
 0002:00000564       __imp__CoUninitialize@0    0048c564     ole32:ole32.dll
 0002:00000568       \177ole32_NULL_THUNK_DATA  0048c568     ole32:ole32.dll
 0002:0000056c       ___guard_check_icall_fptr  0048c56c     LIBCMT:guard_support.obj
 0002:00000570       ___xc_a                    0048c570     LIBCMT:initializers.obj
 0002:000005ac       ___xc_z                    0048c5ac     LIBCMT:initializers.obj
 0002:000005b0       ___xi_a                    0048c5b0     LIBCMT:initializers.obj
 0002:000005c4       ___acrt_stdio_initializer  0048c5c4     libucrt:stdio_initializer.obj
 0002:000005c8       ___acrt_tran_sse2_initializer 0048c5c8     libucrt:sse2_initializer.obj
 0002:000005cc       ___acrt_timeset_initializer 0048c5cc     libucrt:timeset_initializer.obj
 0002:000005d0       ___acrt_multibyte_initializer 0048c5d0     libucrt:multibyte_initializer.obj
 0002:000005d4       ___xi_z                    0048c5d4     LIBCMT:initializers.obj
 0002:000005d8       ___xl_a                    0048c5d8     LIBCMT:tlssup.obj
 0002:000005dc       ___xl_z                    0048c5dc     LIBCMT:tlssup.obj
 0002:000005e0       ___xp_a                    0048c5e0     LIBCMT:initializers.obj
 0002:000005e4       ___acrt_locale_terminator  0048c5e4     libucrt:locale_initializer.obj
 0002:000005e8       ___dcrt_console_output_terminator 0048c5e8     libucrt:console_output_initializer.obj
 0002:000005ec       ___acrt_stdio_terminator   0048c5ec     libucrt:stdio_initializer.obj
 0002:000005f0       ___xp_z                    0048c5f0     LIBCMT:initializers.obj
 0002:000005f4       ___xt_a                    0048c5f4     LIBCMT:initializers.obj
 0002:000005f8       ___xt_z                    0048c5f8     LIBCMT:initializers.obj
 0002:00000600       _LIBID_GostCryptFormatCom  0048c600     FormatCom.obj
 0002:00000610       _IID_IGostCryptFormatCom   0048c610     FormatCom.obj
 0002:00000620       _CLSID_GostCryptFormatCom  0048c620     FormatCom.obj
 0002:00000634       ??_7Exception@GostCrypt@@6B@ 0048c634     FormatCom.obj
 0002:0000063c       ??_7UserAbort@GostCrypt@@6B@ 0048c63c     FormatCom.obj
 0002:00000644       ??_7GostCryptFormatCom@@6B@ 0048c644     FormatCom.obj
 0002:00000680       ??_7?$GostCryptFactory@VGostCryptFormatCom@@@@6B@ 0048c680     FormatCom.obj
 0002:0000069c       ??_7exception@std@@6B@     0048c69c     Gstformat.obj
 0002:000006a4       ??_C@_0BC@EOODALEL@Unknown?5exception?$AA@ 0048c6a4     Gstformat.obj
 0002:000006bc       ??_7runtime_error@std@@6B@ 0048c6bc     Gstformat.obj
 0002:000006c8       ??_7bad_cast@std@@6B@      0048c6c8     Gstformat.obj
 0002:000006d0       ??_C@_08EPJLHIJG@bad?5cast?$AA@ 0048c6d0     Gstformat.obj
 0002:000006dc       ??_C@_0BA@ELKIONDK@bad?5locale?5name?$AA@ 0048c6dc     Gstformat.obj
 0002:000006ec       ??_C@_05LAPONLG@false?$AA@ 0048c6ec     Gstformat.obj
 0002:000006f4       ??_C@_04LOAJBDKD@true?$AA@ 0048c6f4     Gstformat.obj
 0002:00000700       ??_7_Facet_base@std@@6B@   0048c700     Gstformat.obj
 0002:0000070c       ??_C@_00CNPNBAHC@?$AA@     0048c70c     Gstformat.obj
 0002:00000714       ??_7?$ctype@_W@std@@6B@    0048c714     Gstformat.obj
 0002:00000754       ??_7error_category@std@@6B@ 0048c754     Gstformat.obj
 0002:00000770       ??_7_System_error@std@@6B@ 0048c770     Gstformat.obj
 0002:00000778       ??_C@_02LMMGGCAJ@?3?5?$AA@ 0048c778     Gstformat.obj
 0002:00000780       ??_7system_error@std@@6B@  0048c780     Gstformat.obj
 0002:0000078c       ??_7_Iostream_error_category@std@@6B@ 0048c78c     Gstformat.obj
 0002:000007a4       ??_C@_08LLGCOLLL@iostream?$AA@ 0048c7a4     Gstformat.obj
 0002:000007b0       ??_C@_0BG@PADBLCHM@iostream?5stream?5error?$AA@ 0048c7b0     Gstformat.obj
 0002:000007cc       ??_7failure@ios_base@std@@6B@ 0048c7cc     Gstformat.obj
 0002:000007d8       ??_7ios_base@std@@6B@      0048c7d8     Gstformat.obj
 0002:000007dc       ??_C@_0BF@PHHKMMFD@ios_base?3?3badbit?5set?$AA@ 0048c7dc     Gstformat.obj
 0002:000007f4       ??_C@_0BG@FMKFHCIL@ios_base?3?3failbit?5set?$AA@ 0048c7f4     Gstformat.obj
 0002:0000080c       ??_C@_0BF@OOHOMBOF@ios_base?3?3eofbit?5set?$AA@ 0048c80c     Gstformat.obj
 0002:00000824       ??_C@_09NKHKFHLH@GostCrypt?$AA@ 0048c824     Gstformat.obj
 0002:00000834       ??_7Container@ForEach@GostCrypt@@6B@ 0048c834     Gstformat.obj
 0002:00000840       ??_C@_07MDDLOGBN@?1q?5UAC?5?$AA@ 0048c840     Gstformat.obj
 0002:00000848       ??_C@_05KPBLJGDL@runas?$AA@ 0048c848     Gstformat.obj
 0002:00000850       ??_C@_0P@NDJDHMAP@UAC_INIT_ERROR?$AA@ 0048c850     Gstformat.obj
 0002:00000860       ??_C@_0BG@NJOIKHOP@System?5Encryption?4xml?$AA@ 0048c860     Gstformat.obj
 0002:00000878       ??_C@_0CE@LPCKNJKP@CANNOT_SAVE_SYS_ENCRYPTION_SETTI@ 0048c878     Gstformat.obj
 0002:0000089c       ??_C@_01NOFIACDB@w?$AA@    0048c89c     Gstformat.obj
 0002:000008a0       ??_C@_0BC@IEDCODCO@?6?7?$DMsysencryption?$DO?$AA@ 0048c8a0     Gstformat.obj
 0002:000008b4       ??_C@_0DE@HMBPOGIN@?6?7?7?$DMconfig?5key?$DN?$CCSystemEncryption@ 0048c8b4     Gstformat.obj
 0002:000008e8       ??_C@_0CG@BNNHBPIN@?6?7?7?$DMconfig?5key?$DN?$CCWipeMode?$CC?$DO?$CFd?$DM?1co@ 0048c8e8     Gstformat.obj
 0002:00000910       ??_C@_0BD@KMABOOHN@?6?7?$DM?1sysencryption?$DO?$AA@ 0048c910     Gstformat.obj
 0002:00000924       ??_C@_0CF@BOINGOPM@ERR_GETTING_SYSTEM_ENCRYPTION_ST@ 0048c924     Gstformat.obj
 0002:0000094c       ??_C@_0CI@FPFBOAHN@SYSTEM_ENCRYPTION_IN_PROGRESS_EL@ 0048c94c     Gstformat.obj
 0002:00000974       ??_C@_02CLCFLINC@?1e?$AA@  0048c974     Gstformat.obj
 0002:00000978       ??_C@_0N@PLOGBODB@StartOnLogon?$AA@ 0048c978     Gstformat.obj
 0002:00000988       ??_C@_0BM@GHIJBHNC@HiddenSectorDetectionStatus?$AA@ 0048c988     Gstformat.obj
 0002:000009a4       ??_C@_0BC@CGLEBHPJ@SaveVolumeHistory?$AA@ 0048c9a4     Gstformat.obj
 0002:000009b8       ??_C@_0BF@MIMCAHPI@SecurityTokenLibrary?$AA@ 0048c9b8     Gstformat.obj
 0002:000009d0       ??_C@_08BENDAOKD@Language?$AA@ 0048c9d0     Gstformat.obj
 0002:000009dc       ??_C@_0CA@HDGOHFPD@SYSTEM_ENCRYPTION_RESUME_PROMPT?$AA@ 0048c9dc     Gstformat.obj
 0002:000009fc       ??_C@_0CJ@GFEACENL@SYS_ENCRYPTION_OR_DECRYPTION_IN_@ 0048c9fc     Gstformat.obj
 0002:00000a28       ??_C@_0CC@MKLHADEI@SETUP_FAILED_BOOT_DRIVE_ENCRYPTE@ 0048ca28     Gstformat.obj
 0002:00000a4c       ??_C@_0BO@NAOLHLLP@ADMIN_PRIVILEGES_WARN_DEVICES?$AA@ 0048ca4c     Gstformat.obj
 0002:00000a6c       ??_C@_0CH@KNBCDPOB@ASK_ENCRYPT_PARTITION_INSTEAD_OF@ 0048ca6c     Gstformat.obj
 0002:00000a94       ??_C@_15IABLJNFO@?$AA?6?$AA?6?$AA?$AA@ 0048ca94     Gstformat.obj
 0002:00000a9c       ??_C@_0CB@CKHHFLEI@SYSDRIVE_NON_STANDARD_PARTITIONS@ 0048ca9c     Gstformat.obj
 0002:00000ac0       ??_C@_0CI@HLDNCEMH@WDE_UNSUPPORTED_FOR_EXTENDED_PAR@ 0048cac0     Gstformat.obj
 0002:00000ae8       ??_C@_0CA@DBKKOPEJ@WDE_EXTENDED_PARTITIONS_WARNING?$AA@ 0048cae8     Gstformat.obj
 0002:00000b08       ??_C@_0BH@HHEGHILA@WHOLE_SYC_DEVICE_RECOM?$AA@ 0048cb08     Gstformat.obj
 0002:00000b20       ??_C@_0CD@NPEEBJKE@HIDDEN_OS_PRECLUDES_SINGLE_KEY_W@ 0048cb20     Gstformat.obj
 0002:00000b44       ??_C@_09FFOCOHMH@?1zinplace?$AA@ 0048cb44     Gstformat.obj
 0002:00000b50       ??_C@_0DA@NNBJDAHG@CHOOSE_ENCRYPT_OR_DECRYPT_FINALI@ 0048cb50     Gstformat.obj
 0002:00000b80       ??_C@_0BK@CFANEEFJ@CHOOSE_ENCRYPT_OR_DECRYPT?$AA@ 0048cb80     Gstformat.obj
 0002:00000b9c       ??_C@_07CAOFPAJK@ENCRYPT?$AA@ 0048cb9c     Gstformat.obj
 0002:00000ba4       ??_C@_07OOEIKEPO@DECRYPT?$AA@ 0048cba4     Gstformat.obj
 0002:00000bac       ??_C@_08DDAIHKOO@IDCANCEL?$AA@ 0048cbac     Gstformat.obj
 0002:00000bb8       ??_C@_0O@POKHNLDL@GOST?528147?989?$AA@ 0048cbb8     Gstformat.obj
 0002:00000bc8       ??_C@_0BA@LGBFJNHH@MORE_INFO_ABOUT?$AA@ 0048cbc8     Gstformat.obj
 0002:00000bd8       ??_C@_09JHKBFGFC@GOST_HELP?$AA@ 0048cbd8     Gstformat.obj
 0002:00000be4       ??_C@_0BH@PJGBOAEF@TWO_LAYER_CASCADE_HELP?$AA@ 0048cbe4     Gstformat.obj
 0002:00000bfc       ??_C@_0BJ@CFADADFJ@THREE_LAYER_CASCADE_HELP?$AA@ 0048cbfc     Gstformat.obj
 0002:00000c18       ??_C@_0CA@EHDIKOJL@IDC_LINK_MORE_INFO_ABOUT_CIPHER?$AA@ 0048cc18     Gstformat.obj
 0002:00000c38       ??_C@_11LOCGONAA@?$AA?$AA@ 0048cc38     Gstformat.obj
 0002:00000c3c       ??_C@_09JHINKGCK@UISTR_YES?$AA@ 0048cc3c     Gstformat.obj
 0002:00000c48       ??_C@_08EOJLPPDK@UISTR_NO?$AA@ 0048cc48     Gstformat.obj
 0002:00000c54       ??_C@_04MOKMKBJN@NEXT?$AA@ 0048cc54     Gstformat.obj
 0002:00000c5c       ??_C@_04PKHKLFPJ@PREV?$AA@ 0048cc5c     Gstformat.obj
 0002:00000c64       ??_C@_06JHILMIHF@CANCEL?$AA@ 0048cc64     Gstformat.obj
 0002:00000c6c       ??_C@_0BI@FJOOBAJA@PROGRESS_STATUS_WAITING?$AA@ 0048cc6c     Gstformat.obj
 0002:00000c84       ??_C@_0BL@MHLPJIOG@PROGRESS_STATUS_DECRYPTING?$AA@ 0048cc84     Gstformat.obj
 0002:00000ca0       ??_C@_0BL@PONBLMNB@PROGRESS_STATUS_ENCRYPTING?$AA@ 0048cca0     Gstformat.obj
 0002:00000cbc       ??_C@_13HOIJIPNN@?$AA?5?$AA?$AA@ 0048ccbc     Gstformat.obj
 0002:00000cc0       ??_C@_09PJBBBIIP@IDC_PAUSE?$AA@ 0048ccc0     Gstformat.obj
 0002:00000ccc       ??_C@_06PPGAKMJI@RESUME?$AA@ 0048cccc     Gstformat.obj
 0002:00000cd4       ??_C@_0BJ@HKENJBII@PROGRESS_STATUS_FINISHED?$AA@ 0048ccd4     Gstformat.obj
 0002:00000cf0       ??_C@_0BH@LLAADOBF@PROGRESS_STATUS_PAUSED?$AA@ 0048ccf0     Gstformat.obj
 0002:00000d08       ??_C@_0BO@DMHMPBKC@PROCESSED_PORTION_100_PERCENT?$AA@ 0048cd08     Gstformat.obj
 0002:00000d28       ??_C@_01CLKCMJKC@?5?$AA@   0048cd28     Gstformat.obj
 0002:00000d2c       ??_C@_0CG@OIGJDCBH@FAILED_TO_INTERRUPT_SYSTEM_ENCRY@ 0048cd2c     Gstformat.obj
 0002:00000d54       ??_C@_0CD@HEMAICHN@FAILED_TO_RESUME_SYSTEM_ENCRYPTI@ 0048cd54     Gstformat.obj
 0002:00000d78       ??_C@_0BP@CJOANMAM@NONSYS_INPLACE_ENC_IN_PROGRESS?$AA@ 0048cd78     Gstformat.obj
 0002:00000d98       ??_C@_0BK@NECHGBNE@PROGRESS_STATUS_PREPARING?$AA@ 0048cd98     Gstformat.obj
 0002:00000db4       ??_C@_0BJ@EIBDNDIC@PROGRESS_STATUS_RESIZING?$AA@ 0048cdb4     Gstformat.obj
 0002:00000dd0       ??_C@_0BL@CIJLEOGN@PROGRESS_STATUS_FINALIZING?$AA@ 0048cdd0     Gstformat.obj
 0002:00000dec       ??_C@_0BG@IDPLALHN@PROGRESS_STATUS_ERROR?$AA@ 0048cdec     Gstformat.obj
 0002:00000e04       ??_C@_05KEELGAD@DEFER?$AA@ 0048ce04     Gstformat.obj
 0002:00000e0c       ??_C@_04LAOFCJDB@?5?$CFc?5?$AA@ 0048ce0c     Gstformat.obj
 0002:00000e14       ??_C@_03NJNOMAJF@?5?4?5?$AA@ 0048ce14     Gstformat.obj
 0002:00000e18       ??_C@_05BFHEBJNP@?$CF02X?5?$AA@ 0048ce18     Gstformat.obj
 0002:00000e20       ??_C@_01EEMJAFIK@?6?$AA@   0048ce20     Gstformat.obj
 0002:00000e28       ??_C@_1JO@BPJIPIJP@?$AA?$CK?$AA?$CK?$AA?$CK?$AA?$CK?$AA?$CK?$AA?$CK?$AA?$CK?$AA?$CK?$AA?$CK?$AA?$CK?$AA?$CK?$AA?$CK?$AA?$CK?$AA?$CK?$AA?$CK?$AA?$CK?$AA?$CK?$AA?$CK?$AA?$CK?$AA?$CK?$AA?$CK?$AA?$CK?$AA?$CK?$AA?$CK?$AA?$CK?$AA?$CK?$AA?$CK?$AA?$CK?$AA?$CK?$AA?$CK?$AA?$CK?$AA?$CK@ 0048ce28     Gstformat.obj
 0002:00000ec8       ??_C@_0BK@JMBFHJFE@TRIPLE_DOT_GLYPH_ELLIPSIS?$AA@ 0048cec8     Gstformat.obj
 0002:00000ee4       ??_C@_0BL@PHPLOOOK@FAILED_TO_INTERRUPT_WIPING?$AA@ 0048cee4     Gstformat.obj
 0002:00000f00       ??_C@_0BH@PKDMJBLN@FAILED_TO_START_WIPING?$AA@ 0048cf00     Gstformat.obj
 0002:00000f18       ??_C@_0O@JJNKJOK@ERR_MEM_ALLOC?$AA@ 0048cf18     Gstformat.obj
 0002:00000f28       ??_C@_0BL@MHDAJDPI@ADMIN_PRIVILEGES_WARN_NTFS?$AA@ 0048cf28     Gstformat.obj
 0002:00000f44       ??_C@_0P@EMHOIPJB@READONLYPROMPT?$AA@ 0048cf44     Gstformat.obj
 0002:00000f54       ??_C@_0BA@JEAHJACA@OVERWRITEPROMPT?$AA@ 0048cf54     Gstformat.obj
 0002:00000f64       ??_C@_0P@JKCBOPBP@ACCESSMODEFAIL?$AA@ 0048cf64     Gstformat.obj
 0002:00000f74       ??_C@_0M@IMAOAGMP@OUTOFMEMORY?$AA@ 0048cf74     Gstformat.obj
 0002:00000f80       ??_C@_0BM@DNIPKEFC@NO_FREE_DRIVE_FOR_OUTER_VOL?$AA@ 0048cf80     Gstformat.obj
 0002:00000f9c       ??_C@_0BF@IAAAEIAJ@CANT_MOUNT_OUTER_VOL?$AA@ 0048cf9c     Gstformat.obj
 0002:00000fb4       ??_C@_0BP@CBCIBGL@INPLACE_ENC_GENERIC_ERR_RESUME?$AA@ 0048cfb4     Gstformat.obj
 0002:00000fd4       ??_C@_0CC@GOJAHDJH@INPLACE_ENC_GENERIC_ERR_ALT_STEP@ 0048cfd4     Gstformat.obj
 0002:00000ff8       ??_C@_0O@OIAKNAOK@CREATE_FAILED?$AA@ 0048cff8     Gstformat.obj
 0002:00001008       ??_C@_0BM@NHKMKNFC@HIDVOL_FORMAT_FINISHED_HELP?$AA@ 0048d008     Gstformat.obj
 0002:00001024       ??_C@_0CB@KOCBDKDK@NONSYS_INPLACE_ENC_FINISHED_INFO@ 0048d024     Gstformat.obj
 0002:00001048       ??_C@_0BF@ELGDKJEM@FORMAT_FINISHED_INFO?$AA@ 0048d048     Gstformat.obj
 0002:00001060       ??_C@_0BG@PHMPDKJN@SPARSE_FILE_SIZE_NOTE?$AA@ 0048d060     Gstformat.obj
 0002:00001078       ??_C@_0BA@IDMMBDGF@FORMAT_FINISHED?$AA@ 0048d078     Gstformat.obj
 0002:00001088       ??_C@_0BM@JKEOLKCL@NONSYS_INPLACE_ENC_CANCELED?$AA@ 0048d088     Gstformat.obj
 0002:000010a4       ??_C@_0BA@NLOHJLIM@FORMAT_CANCELED?$AA@ 0048d0a4     Gstformat.obj
 0002:000010b4       ??_C@_0BI@DFBMOJJF@PASSWORD_HIDDEN_OS_NOTE?$AA@ 0048d0b4     Gstformat.obj
 0002:000010cc       ??_C@_0BN@GMGGDPEP@HIDDEN_OS_PRE_CIPHER_WARNING?$AA@ 0048d0cc     Gstformat.obj
 0002:000010ec       ??_C@_0BG@OMPICDCM@MAX_HIDVOL_SIZE_BYTES?$AA@ 0048d0ec     Gstformat.obj
 0002:00001104       ??_C@_0BC@DDPKPAD@DEVICE_FREE_BYTES?$AA@ 0048d104     Gstformat.obj
 0002:00001118       ??_C@_0BA@GNIBCOCE@DISK_FREE_BYTES?$AA@ 0048d118     Gstformat.obj
 0002:00001128       ??_C@_0BD@NCFPMHAA@MAX_HIDVOL_SIZE_KB?$AA@ 0048d128     Gstformat.obj
 0002:0000113c       ??_C@_0P@IKBGAMLK@DEVICE_FREE_KB?$AA@ 0048d13c     Gstformat.obj
 0002:0000114c       ??_C@_0N@LDEICJLE@DISK_FREE_KB?$AA@ 0048d14c     Gstformat.obj
 0002:0000115c       ??_C@_0BD@NGNCLLLC@MAX_HIDVOL_SIZE_MB?$AA@ 0048d15c     Gstformat.obj
 0002:00001170       ??_C@_0P@IOJLHAAI@DEVICE_FREE_MB?$AA@ 0048d170     Gstformat.obj
 0002:00001180       ??_C@_0N@LHMFFFAG@DISK_FREE_MB?$AA@ 0048d180     Gstformat.obj
 0002:00001190       ??_C@_0BD@NLEFDOGE@MAX_HIDVOL_SIZE_GB?$AA@ 0048d190     Gstformat.obj
 0002:000011a4       ??_C@_0P@IDAMPFNO@DEVICE_FREE_GB?$AA@ 0048d1a4     Gstformat.obj
 0002:000011b4       ??_C@_0N@LKFCNANA@DISK_FREE_GB?$AA@ 0048d1b4     Gstformat.obj
 0002:000011c4       ??_C@_0BC@LBACDGOD@CANNOT_CALC_SPACE?$AA@ 0048d1c4     Gstformat.obj
 0002:000011d8       ??_C@_1M@KGONCMNM@?$AA?$CF?$AAs?$AA?6?$AA?$CF?$AAs?$AA?$AA@ 0048d1d8     Gstformat.obj
 0002:000011e4       ??_C@_0BA@GFCNKOPI@CANT_ACCESS_VOL?$AA@ 0048d1e4     Gstformat.obj
 0002:000011f4       ??_C@_0BB@FNOFFGJI@CANT_GET_VOLSIZE?$AA@ 0048d1f4     Gstformat.obj
 0002:00001208       ??_C@_0BI@FCILOPDD@SECTOR_SIZE_UNSUPPORTED?$AA@ 0048d208     Gstformat.obj
 0002:00001220       ??_C@_0O@MKGMJGFE@EXT_PARTITION?$AA@ 0048d220     Gstformat.obj
 0002:00001230       ??_C@_1BK@GHMHFLJL@?$AA?5?$AA?$CI?$AA?$CF?$AAh?$AAc?$AA?3?$AA?5?$AA?8?$AA?$CF?$AAs?$AA?8?$AA?$CJ?$AA?$AA@ 0048d230     Gstformat.obj
 0002:0000124c       ??_C@_1BE@LDCEEKNB@?$AA?5?$AA?$CI?$AA?$CF?$AAh?$AAc?$AA?3?$AA?$CF?$AAs?$AA?$CJ?$AA?$AA@ 0048d24c     Gstformat.obj
 0002:00001260       ??_C@_0CL@KCMNHFDO@OVERWRITEPROMPT_DEVICE_HIDDEN_OS@ 0048d260     Gstformat.obj
 0002:0000128c       ??_C@_0BL@IMNAFHOP@NONSYS_INPLACE_ENC_CONFIRM?$AA@ 0048d28c     Gstformat.obj
 0002:000012a8       ??_C@_0BH@JPJDALOG@OVERWRITEPROMPT_DEVICE?$AA@ 0048d2a8     Gstformat.obj
 0002:000012c0       ??_C@_0DD@GFFEJLFD@OVERWRITEPROMPT_DEVICE_SECOND_WA@ 0048d2c0     Gstformat.obj
 0002:000012f4       ??_C@_0BP@IMKLJEFC@ERASE_FILES_BY_CREATING_VOLUME?$AA@ 0048d2f4     Gstformat.obj
 0002:00001314       ??_C@_0BC@ELOGDKJ@DRIVE_LETTER_ITEM?$AA@ 0048d314     Gstformat.obj
 0002:00001328       ??_C@_19KHPJIBCC@?$AA?$CF?$AAh?$AAc?$AA?3?$AA?$AA@ 0048d328     Gstformat.obj
 0002:00001334       ??_C@_13LBAGMAIH@?$AA?6?$AA?$AA@ 0048d334     Gstformat.obj
 0002:00001338       ??_C@_0L@PEDCDHCM@LABEL_ITEM?$AA@ 0048d338     Gstformat.obj
 0002:00001344       ??_C@_0CA@KEHLKHJA@NOT_APPLICABLE_OR_NOT_AVAILABLE?$AA@ 0048d344     Gstformat.obj
 0002:00001364       ??_C@_09DBGAMMMC@SIZE_ITEM?$AA@ 0048d364     Gstformat.obj
 0002:00001370       ??_C@_09BFNCKGCL@PATH_ITEM?$AA@ 0048d370     Gstformat.obj
 0002:0000137c       ??_C@_0BP@DGIMBADH@AFTER_FORMAT_DRIVE_LETTER_WARN?$AA@ 0048d37c     Gstformat.obj
 0002:000013a0       ??_7?$ContainerForward@V?$vector@UHostDevice@@V?$allocator@UHostDevice@@@std@@@std@@@ForEach@GostCrypt@@6B@ 0048d3a0     Gstformat.obj
 0002:000013b0       ??_7?$basic_ios@_WU?$char_traits@_W@std@@@std@@6B@ 0048d3b0     Gstformat.obj
 0002:000013b8       ??_7?$basic_istream@_WU?$char_traits@_W@std@@@std@@6B@ 0048d3b8     Gstformat.obj
 0002:000013c0       ??_7?$basic_ostream@_WU?$char_traits@_W@std@@@std@@6B@ 0048d3c0     Gstformat.obj
 0002:000013c8       ??_7?$basic_iostream@_WU?$char_traits@_W@std@@@std@@6B@ 0048d3c8     Gstformat.obj
 0002:000013cc       ??_8?$basic_iostream@_WU?$char_traits@_W@std@@@std@@7B?$basic_istream@_WU?$char_traits@_W@std@@@1@@ 0048d3cc     Gstformat.obj
 0002:000013d4       ??_8?$basic_iostream@_WU?$char_traits@_W@std@@@std@@7B?$basic_ostream@_WU?$char_traits@_W@std@@@1@@ 0048d3d4     Gstformat.obj
 0002:000013e0       ??_7?$basic_streambuf@_WU?$char_traits@_W@std@@@std@@6B@ 0048d3e0     Gstformat.obj
 0002:00001420       ??_7?$basic_stringbuf@_WU?$char_traits@_W@std@@V?$allocator@_W@2@@std@@6B@ 0048d420     Gstformat.obj
 0002:00001460       ??_7?$basic_stringstream@_WU?$char_traits@_W@std@@V?$allocator@_W@2@@std@@6B@ 0048d460     Gstformat.obj
 0002:00001464       ??_8?$basic_stringstream@_WU?$char_traits@_W@std@@V?$allocator@_W@2@@std@@7B?$basic_istream@_WU?$char_traits@_W@std@@@1@@ 0048d464     Gstformat.obj
 0002:0000146c       ??_8?$basic_stringstream@_WU?$char_traits@_W@std@@V?$allocator@_W@2@@std@@7B?$basic_ostream@_WU?$char_traits@_W@std@@@1@@ 0048d46c     Gstformat.obj
 0002:00001474       ??_C@_0BM@IHMEHMBJ@IDD_VOL_CREATION_WIZARD_DLG?$AA@ 0048d474     Gstformat.obj
 0002:00001490       ??_C@_0P@IDKFBPLE@FORMAT_PAGE_?$CFd?$AA@ 0048d490     Gstformat.obj
 0002:000014a0       ??_C@_0M@BGLIKHAN@INTRO_TITLE?$AA@ 0048d4a0     Gstformat.obj
 0002:000014ac       ??_C@_0BH@LFFPJFCG@SYSENC_TYPE_PAGE_TITLE?$AA@ 0048d4ac     Gstformat.obj
 0002:000014c4       ??_C@_0BI@FECPKDFP@SYSENC_HIDDEN_TYPE_HELP?$AA@ 0048d4c4     Gstformat.obj
 0002:000014dc       ??_C@_0BI@EEMGDNEH@SYSENC_NORMAL_TYPE_HELP?$AA@ 0048d4dc     Gstformat.obj
 0002:000014f4       ??_C@_0CG@CLMIJGGF@SYSENC_HIDDEN_OS_REQ_CHECK_PAGE_@ 0048d4f4     Gstformat.obj
 0002:0000151c       ??_C@_0CF@GBPOCIAL@SYSENC_HIDDEN_OS_REQ_CHECK_PAGE_@ 0048d51c     Gstformat.obj
 0002:00001544       ??_C@_0BK@FBGFJBLB@SYS_ENCRYPTION_SPAN_TITLE?$AA@ 0048d544     Gstformat.obj
 0002:00001560       ??_C@_0CJ@CMOPFEFD@SYS_ENCRYPTION_SPAN_WHOLE_SYS_DR@ 0048d560     Gstformat.obj
 0002:0000158c       ??_C@_0CA@IIEHPPGP@SYSENC_PRE_DRIVE_ANALYSIS_TITLE?$AA@ 0048d58c     Gstformat.obj
 0002:000015ac       ??_C@_0BP@FCJHFGGJ@SYSENC_PRE_DRIVE_ANALYSIS_HELP?$AA@ 0048d5ac     Gstformat.obj
 0002:000015cc       ??_C@_0BM@EGLOODHA@SYSENC_DRIVE_ANALYSIS_TITLE?$AA@ 0048d5cc     Gstformat.obj
 0002:000015e8       ??_C@_0BL@OAMDPDOH@SYSENC_DRIVE_ANALYSIS_INFO?$AA@ 0048d5e8     Gstformat.obj
 0002:00001604       ??_C@_0CK@KEHMFNIA@HIDDEN_SECTOR_DETECTION_FAILED_P@ 0048d604     Gstformat.obj
 0002:00001630       ??_C@_0BN@GHOENGPC@SKIP_HIDDEN_SECTOR_DETECTION?$AA@ 0048d630     Gstformat.obj
 0002:00001650       ??_C@_0BO@OEFOGNPK@RETRY_HIDDEN_SECTOR_DETECTION?$AA@ 0048d650     Gstformat.obj
 0002:00001670       ??_C@_08HBBNJJLH@IDC_EXIT?$AA@ 0048d670     Gstformat.obj
 0002:0000167c       ??_C@_0BK@NAIABFPC@SYS_MULTI_BOOT_MODE_TITLE?$AA@ 0048d67c     Gstformat.obj
 0002:00001698       ??_C@_0CE@HOKCHJKA@SYSENC_MULTI_BOOT_SYS_EQ_BOOT_TI@ 0048d698     Gstformat.obj
 0002:000016bc       ??_C@_0CD@ODHMCLM@SYSENC_MULTI_BOOT_SYS_EQ_BOOT_HE@ 0048d6bc     Gstformat.obj
 0002:000016e0       ??_C@_09BCPPDPEL@DIGIT_ONE?$AA@ 0048d6e0     Gstformat.obj
 0002:000016ec       ??_C@_0M@BAIFEFDO@TWO_OR_MORE?$AA@ 0048d6ec     Gstformat.obj
 0002:000016f8       ??_C@_0CH@IMKPMBEM@SYSENC_MULTI_BOOT_NBR_SYS_DRIVES@ 0048d6f8     Gstformat.obj
 0002:00001720       ??_C@_0CG@GBIPGAOP@SYSENC_MULTI_BOOT_NBR_SYS_DRIVES@ 0048d720     Gstformat.obj
 0002:00001748       ??_C@_0CF@MINJEEM@SYSENC_MULTI_BOOT_ADJACENT_SYS_T@ 0048d748     Gstformat.obj
 0002:00001770       ??_C@_0CE@CGLNKLHK@SYSENC_MULTI_BOOT_ADJACENT_SYS_H@ 0048d770     Gstformat.obj
 0002:00001794       ??_C@_0CL@PKMEBLJM@SYSENC_MULTI_BOOT_NONWIN_BOOT_LO@ 0048d794     Gstformat.obj
 0002:000017c0       ??_C@_0CK@NGBECAKP@SYSENC_MULTI_BOOT_NONWIN_BOOT_LO@ 0048d7c0     Gstformat.obj
 0002:000017ec       ??_C@_0CA@FOODICMO@SYSENC_MULTI_BOOT_OUTCOME_TITLE?$AA@ 0048d7ec     Gstformat.obj
 0002:0000180c       ??_C@_0BC@IMPHNJMH@VOLUME_TYPE_TITLE?$AA@ 0048d80c     Gstformat.obj
 0002:00001820       ??_C@_0BI@OMMJFNJB@HIDDEN_VOLUME_TYPE_HELP?$AA@ 0048d820     Gstformat.obj
 0002:00001838       ??_C@_0BI@OKEJAKDK@NORMAL_VOLUME_TYPE_HELP?$AA@ 0048d838     Gstformat.obj
 0002:00001850       ??_C@_0BN@CFKNBCJG@HIDDEN_VOL_WIZARD_MODE_TITLE?$AA@ 0048d850     Gstformat.obj
 0002:00001870       ??_C@_0CD@LJCMOGBH@HIDDEN_VOL_WIZARD_MODE_NORMAL_HE@ 0048d870     Gstformat.obj
 0002:00001894       ??_C@_0CD@BGGCLDPJ@HIDDEN_VOL_WIZARD_MODE_DIRECT_HE@ 0048d894     Gstformat.obj
 0002:000018b8       ??_C@_0BC@NHEENOIC@IDC_SELECT_DEVICE?$AA@ 0048d8b8     Gstformat.obj
 0002:000018cc       ??_C@_0BA@HOMDJPL@IDC_SELECT_FILE?$AA@ 0048d8cc     Gstformat.obj
 0002:000018dc       ??_C@_0CB@LOIOBDOO@FILE_HELP_HIDDEN_HOST_VOL_DIRECT@ 0048d8dc     Gstformat.obj
 0002:00001900       ??_C@_0BM@DMHDGBOJ@DEVICE_HELP_HIDDEN_HOST_VOL?$AA@ 0048d900     Gstformat.obj
 0002:0000191c       ??_C@_0M@JNOAPEGE@DEVICE_HELP?$AA@ 0048d91c     Gstformat.obj
 0002:00001928       ??_C@_0BK@JMGOJAKG@FILE_HELP_HIDDEN_HOST_VOL?$AA@ 0048d928     Gstformat.obj
 0002:00001944       ??_C@_09GPELPABL@FILE_HELP?$AA@ 0048d944     Gstformat.obj
 0002:00001950       ??_C@_0L@DGHBDDNJ@FILE_TITLE?$AA@ 0048d950     Gstformat.obj
 0002:0000195c       ??_C@_0CB@IJHCDAO@DEVICE_TRANSFORM_MODE_PAGE_TITLE@ 0048d95c     Gstformat.obj
 0002:00001980       ??_C@_0CH@CJGGIKCO@DEVICE_TRANSFORM_MODE_PAGE_FORMA@ 0048d980     Gstformat.obj
 0002:000019a8       ??_C@_0CI@FGJIGFAK@DEVICE_TRANSFORM_MODE_PAGE_INPLA@ 0048d9a8     Gstformat.obj
 0002:000019d0       ??_C@_0BN@PMMGMENG@HIDVOL_HOST_PRE_CIPHER_TITLE?$AA@ 0048d9d0     Gstformat.obj
 0002:000019f0       ??_C@_0CD@OMGBOOGK@HIDVOL_HOST_PRE_CIPHER_HELP_SYSE@ 0048d9f0     Gstformat.obj
 0002:00001a14       ??_C@_0BM@GCHOHFOK@HIDVOL_HOST_PRE_CIPHER_HELP?$AA@ 0048da14     Gstformat.obj
 0002:00001a30       ??_C@_0N@PJPEEMEG@INVALID_PATH?$AA@ 0048da30     Gstformat.obj
 0002:00001a40       ??_C@_0BI@JOBKEAGA@HIDVOL_PRE_CIPHER_TITLE?$AA@ 0048da40     Gstformat.obj
 0002:00001a58       ??_C@_0CF@OIPNIHCG@HIDDEN_VOLUME_TOO_SMALL_FOR_OS_C@ 0048da58     Gstformat.obj
 0002:00001a80       ??_C@_04GOLNGIJ@EXIT?$AA@  0048da80     Gstformat.obj
 0002:00001a88       ??_C@_0BK@FGHOHKMP@HIDDEN_OS_PRE_CIPHER_HELP?$AA@ 0048da88     Gstformat.obj
 0002:00001aa4       ??_C@_0BH@GDOHBMLG@HIDVOL_PRE_CIPHER_HELP?$AA@ 0048daa4     Gstformat.obj
 0002:00001abc       ??_C@_0BJ@GGKKJCIG@CIPHER_HIDVOL_HOST_TITLE?$AA@ 0048dabc     Gstformat.obj
 0002:00001ad8       ??_C@_0BE@JFKJAJEK@CIPHER_HIDVOL_TITLE?$AA@ 0048dad8     Gstformat.obj
 0002:00001aec       ??_C@_0N@IMFDFPGM@CIPHER_TITLE?$AA@ 0048daec     Gstformat.obj
 0002:00001afc       ??_C@_0BK@DEODNGPK@SIZE_HELP_HIDDEN_HOST_VOL?$AA@ 0048dafc     Gstformat.obj
 0002:00001b18       ??_C@_0BF@LOOCDJPI@SIZE_HELP_HIDDEN_VOL?$AA@ 0048db18     Gstformat.obj
 0002:00001b30       ??_C@_09BEBIICBL@SIZE_HELP?$AA@ 0048db30     Gstformat.obj
 0002:00001b3c       ??_C@_0BP@JPPBFIHO@SIZE_PARTITION_HIDDEN_VOL_HELP?$AA@ 0048db3c     Gstformat.obj
 0002:00001b5c       ??_C@_0CC@MIIACKDF@SIZE_PARTITION_HIDDEN_SYSENC_HEL@ 0048db5c     Gstformat.obj
 0002:00001b80       ??_C@_0BE@FGKMPGH@SIZE_PARTITION_HELP?$AA@ 0048db80     Gstformat.obj
 0002:00001b94       ??_C@_19LJDFFCJJ@?$AA?$CF?$AAs?$AA?$CF?$AAs?$AA?$AA@ 0048db94     Gstformat.obj
 0002:00001ba0       ??_C@_07NFANNNEC@UNKNOWN?$AA@ 0048dba0     Gstformat.obj
 0002:00001ba8       ??_C@_05OINFJHGD@?$CFI64u?$AA@ 0048dba8     Gstformat.obj
 0002:00001bb0       ??_C@_0BH@GBEPPLEC@SIZE_HIDVOL_HOST_TITLE?$AA@ 0048dbb0     Gstformat.obj
 0002:00001bc8       ??_C@_0BC@COPDBOHD@SIZE_HIDVOL_TITLE?$AA@ 0048dbc8     Gstformat.obj
 0002:00001bdc       ??_C@_0L@DGAKGAKL@SIZE_TITLE?$AA@ 0048dbdc     Gstformat.obj
 0002:00001be8       ??_C@_0CN@CCCDIOBF@NONSYS_INPLACE_ENC_RESUME_PASSWO@ 0048dbe8     Gstformat.obj
 0002:00001c18       ??_C@_0CE@MPBBLHJC@PASSWORD_HIDDENVOL_HOST_DIRECT_H@ 0048dc18     Gstformat.obj
 0002:00001c3c       ??_C@_08KENNMKEI@PASSWORD?$AA@ 0048dc3c     Gstformat.obj
 0002:00001c48       ??_C@_0BL@DDMDKDAG@PASSWORD_HIDVOL_HOST_TITLE?$AA@ 0048dc48     Gstformat.obj
 0002:00001c64       ??_C@_04JIMNDDED@?$CF08X?$AA@ 0048dc64     Gstformat.obj
 0002:00001c6c       ??_C@_08OKJEGFFL@00000409?$AA@ 0048dc6c     Gstformat.obj
 0002:00001c78       ??_C@_0CL@KAEHBIEI@CANT_CHANGE_KEYB_LAYOUT_FOR_SYS_@ 0048dc78     Gstformat.obj
 0002:00001ca4       ??_C@_0BB@MMDPAFIK@CANNOT_SET_TIMER?$AA@ 0048dca4     Gstformat.obj
 0002:00001cb8       ??_C@_0BO@EJBBHKGE@PASSWORD_SYSENC_OUTERVOL_HELP?$AA@ 0048dcb8     Gstformat.obj
 0002:00001cd8       ??_C@_0BN@OJJOHFMM@PASSWORD_HIDDENVOL_HOST_HELP?$AA@ 0048dcd8     Gstformat.obj
 0002:00001cf8       ??_C@_0O@MEODOKDB@PASSWORD_HELP?$AA@ 0048dcf8     Gstformat.obj
 0002:00001d08       ??_C@_0BI@PAGBOIIN@PASSWORD_HIDDEN_OS_HELP?$AA@ 0048dd08     Gstformat.obj
 0002:00001d20       ??_C@_0BI@MNFELCPB@PASSWORD_HIDDENVOL_HELP?$AA@ 0048dd20     Gstformat.obj
 0002:00001d38       ??_C@_0BJ@CPICCPLA@PASSWORD_HIDDEN_OS_TITLE?$AA@ 0048dd38     Gstformat.obj
 0002:00001d54       ??_C@_0BG@ILMPEOM@PASSWORD_HIDVOL_TITLE?$AA@ 0048dd54     Gstformat.obj
 0002:00001d6c       ??_C@_0P@ONGBFCBF@PASSWORD_TITLE?$AA@ 0048dd6c     Gstformat.obj
 0002:00001d7c       ??_C@_0BD@LCAKBGFA@FILESYS_PAGE_TITLE?$AA@ 0048dd7c     Gstformat.obj
 0002:00001d90       ??_C@_0BL@IEILEGP@FILESYS_PAGE_HELP_QUESTION?$AA@ 0048dd90     Gstformat.obj
 0002:00001dac       ??_C@_17MFDLPPFM@?$AA?6?$AA?6?$AA?6?$AA?$AA@ 0048ddac     Gstformat.obj
 0002:00001db4       ??_C@_0P@JPAMOBPC@NOTE_BEGINNING?$AA@ 0048ddb4     Gstformat.obj
 0002:00001dc4       ??_C@_0BO@NPNHCCNA@FILESYS_PAGE_HELP_EXPLANATION?$AA@ 0048ddc4     Gstformat.obj
 0002:00001de4       ??_C@_0CF@BDOPEICN@FILESYS_PAGE_HELP_EXPLANATION_HI@ 0048dde4     Gstformat.obj
 0002:00001e0c       ??_C@_0BN@DAHBFIJD@COLLECTING_RANDOM_DATA_TITLE?$AA@ 0048de0c     Gstformat.obj
 0002:00001e2c       ??_C@_0P@KEHBBAFI@KEYS_GEN_TITLE?$AA@ 0048de2c     Gstformat.obj
 0002:00001e3c       ??_C@_0M@IGHMLIGA@RESCUE_DISK?$AA@ 0048de3c     Gstformat.obj
 0002:00001e48       ??_C@_0BB@KBMALCGN@RESCUE_DISK_INFO?$AA@ 0048de48     Gstformat.obj
 0002:00001e5c       ??_C@_0BK@NAGNMEFO@RESCUE_DISK_CREATED_TITLE?$AA@ 0048de5c     Gstformat.obj
 0002:00001e78       ??_C@_0BM@GPDOJGLC@RESCUE_DISK_RECORDING_TITLE?$AA@ 0048de78     Gstformat.obj
 0002:00001e94       ??_C@_0CI@IHEJGKND@RESCUE_DISK_BURN_INFO_NONWIN_ISO@ 0048de94     Gstformat.obj
 0002:00001ebc       ??_C@_0BP@JAENMDIB@RESCUE_DISK_BURN_INFO_NO_CHECK?$AA@ 0048debc     Gstformat.obj
 0002:00001edc       ??_C@_0BG@KIJPDAJH@RESCUE_DISK_BURN_INFO?$AA@ 0048dedc     Gstformat.obj
 0002:00001ef4       ??_C@_0BD@CHINNFGJ@LAUNCH_WIN_ISOBURN?$AA@ 0048def4     Gstformat.obj
 0002:00001f08       ??_C@_0CA@OFKHEBFP@RESCUE_DISK_DISK_VERIFIED_TITLE?$AA@ 0048df08     Gstformat.obj
 0002:00001f28       ??_C@_0BK@PHEMJDOE@RESCUE_DISK_VERIFIED_INFO?$AA@ 0048df28     Gstformat.obj
 0002:00001f44       ??_C@_0BA@GEMFOMCA@WIPE_MODE_TITLE?$AA@ 0048df44     Gstformat.obj
 0002:00001f54       ??_C@_0BL@KPLPAAMG@INPLACE_ENC_WIPE_MODE_INFO?$AA@ 0048df54     Gstformat.obj
 0002:00001f70       ??_C@_0CB@PAHHLDJJ@HIDDEN_OS_CREATION_PREINFO_TITLE@ 0048df70     Gstformat.obj
 0002:00001f94       ??_C@_0CA@GFBCACCB@HIDDEN_OS_CREATION_PREINFO_HELP?$AA@ 0048df94     Gstformat.obj
 0002:00001fb4       ??_C@_05JLPDBANI@START?$AA@ 0048dfb4     Gstformat.obj
 0002:00001fbc       ??_C@_0BN@OJLMLLFE@SYS_ENCRYPTION_PRETEST_TITLE?$AA@ 0048dfbc     Gstformat.obj
 0002:00001fdc       ??_C@_0BM@OIIAJLEO@SYS_ENCRYPTION_PRETEST_INFO?$AA@ 0048dfdc     Gstformat.obj
 0002:00001ff8       ??_C@_04OIKJMBFP@TEST?$AA@ 0048dff8     Gstformat.obj
 0002:00002000       ??_C@_0CE@FEPHBNLJ@SYS_ENCRYPTION_PRETEST_RESULT_TI@ 0048e000     Gstformat.obj
 0002:00002024       ??_C@_0CD@BONEGKLO@SYS_ENCRYPTION_PRETEST_RESULT_IN@ 0048e024     Gstformat.obj
 0002:00002048       ??_C@_0L@MHHIHFIN@ENCRYPTION?$AA@ 0048e048     Gstformat.obj
 0002:00002054       ??_C@_0L@POBGFBLK@DECRYPTION?$AA@ 0048e054     Gstformat.obj
 0002:00002060       ??_C@_0BM@LFGBLAAC@SYSENC_ENCRYPTION_PAGE_INFO?$AA@ 0048e060     Gstformat.obj
 0002:0000207c       ??_C@_0CK@KEEMKNMD@NONSYS_INPLACE_ENC_RESUME_VOL_SE@ 0048e07c     Gstformat.obj
 0002:000020a8       ??_C@_0CI@MDGBIFPN@NONSYS_INPLACE_ENC_ENCRYPTION_PA@ 0048e0a8     Gstformat.obj
 0002:000020d0       ??_C@_0CC@LOJCKPNA@NONSYS_INPLACE_ENC_FINISHED_TITL@ 0048e0d0     Gstformat.obj
 0002:000020f4       ??_C@_08MFKGCNCO@FINALIZE?$AA@ 0048e0f4     Gstformat.obj
 0002:00002100       ??_C@_0BI@MEDALEIG@FORMAT_HIDVOL_HOST_HELP?$AA@ 0048e100     Gstformat.obj
 0002:00002118       ??_C@_0M@EEPPFDAO@FORMAT_HELP?$AA@ 0048e118     Gstformat.obj
 0002:00002124       ??_C@_0BJ@LIGEKHGE@FORMAT_HIDVOL_HOST_TITLE?$AA@ 0048e124     Gstformat.obj
 0002:00002140       ??_C@_0BE@CEEOMNDM@FORMAT_HIDVOL_TITLE?$AA@ 0048e140     Gstformat.obj
 0002:00002154       ??_C@_0N@FLIHGDJB@FORMAT_TITLE?$AA@ 0048e154     Gstformat.obj
 0002:00002164       ??_C@_0BA@LBGDFDPO@IDC_QUICKFORMAT?$AA@ 0048e164     Gstformat.obj
 0002:00002174       ??_C@_0M@GPMOAIEF@SPARSE_FILE?$AA@ 0048e174     Gstformat.obj
 0002:00002180       ??_C@_0EP@NPBFJCJA@?$CK?$CK?$CK?$CK?$CK?$CK?$CK?$CK?$CK?$CK?$CK?$CK?$CK?$CK?$CK?$CK?$CK?$CK?$CK?$CK?$CK?$CK?$CK?$CK?$CK?$CK?$CK?$CK?$CK?$CK?$CK?$CK@ 0048e180     Gstformat.obj
 0002:000021d0       ??_C@_07MGCPDNLD@DEFAULT?$AA@ 0048e1d0     Gstformat.obj
 0002:000021d8       ??_C@_17OFEDBPDO@?$AA0?$AA?4?$AA5?$AA?$AA@ 0048e1d8     Gstformat.obj
 0002:000021e0       ??_C@_02LODOGJEL@KB?$AA@   0048e1e0     Gstformat.obj
 0002:000021e4       ??_C@_04HPPAIJNK@NTFS?$AA@ 0048e1e4     Gstformat.obj
 0002:000021ec       ??_C@_03MPELFIKF@FAT?$AA@  0048e1ec     Gstformat.obj
 0002:000021f0       ??_C@_04OKGDLNCL@NONE?$AA@ 0048e1f0     Gstformat.obj
 0002:000021f8       ??_C@_03JMFMNIFM@?9?9?9?$AA@ 0048e1f8     Gstformat.obj
 0002:000021fc       ??_C@_06DPGELLJH@FORMAT?$AA@ 0048e1fc     Gstformat.obj
 0002:00002204       ??_C@_02LKLDBFPJ@MB?$AA@   0048e204     Gstformat.obj
 0002:00002208       ??_C@_1BC@JJPHEOJD@?$AA?$CF?$AAI?$AA6?$AA4?$AAd?$AA?5?$AA?$CF?$AAs?$AA?$AA@ 0048e208     Gstformat.obj
 0002:0000221c       ??_C@_0CA@NGPBKLAB@HIDVOL_HOST_FILLING_HELP_SYSENC?$AA@ 0048e21c     Gstformat.obj
 0002:0000223c       ??_C@_0BJ@NMHGGMKI@HIDVOL_HOST_FILLING_HELP?$AA@ 0048e23c     Gstformat.obj
 0002:00002258       ??_C@_0BK@GEKKOMHD@HIDVOL_HOST_FILLING_TITLE?$AA@ 0048e258     Gstformat.obj
 0002:00002274       ??_C@_0CH@DILBCENC@SYSENC_HIDDEN_VOL_FORMAT_FINISHE@ 0048e274     Gstformat.obj
 0002:0000229c       ??_C@_0BF@GBMPIMLF@FORMAT_FINISHED_HELP?$AA@ 0048e29c     Gstformat.obj
 0002:000022b4       ??_C@_0BN@DJMJCNLA@HIDVOL_FORMAT_FINISHED_TITLE?$AA@ 0048e2b4     Gstformat.obj
 0002:000022d4       ??_C@_0BG@HBBDJEK@FORMAT_FINISHED_TITLE?$AA@ 0048e2d4     Gstformat.obj
 0002:000022ec       ??_C@_0BE@KFFNPDGB@PageDialogProc?35088?$AA@ 0048e2ec     Gstformat.obj
 0002:00002300       ??_C@_0CE@LLANPMHF@SYSENC_HIDDEN_OS_INITIAL_INFO_TI@ 0048e300     Gstformat.obj
 0002:00002324       ??_C@_0BK@FHELJNGN@FIRST_HIDDEN_OS_BOOT_INFO?$AA@ 0048e324     Gstformat.obj
 0002:00002340       ??_C@_0CB@MMHOKPDB@SYSENC_HIDDEN_OS_WIPE_INFO_TITLE@ 0048e340     Gstformat.obj
 0002:00002364       ??_C@_0BL@KAEKPGLE@SYSENC_HIDDEN_OS_WIPE_INFO?$AA@ 0048e364     Gstformat.obj
 0002:00002380       ??_C@_0P@JJNKBKFB@WIPE_MODE_INFO?$AA@ 0048e380     Gstformat.obj
 0002:00002390       ??_C@_0CA@NHNKCAEG@DEVICE_WIPE_PAGE_INFO_HIDDEN_OS?$AA@ 0048e390     Gstformat.obj
 0002:000023b0       ??_C@_0BG@OABGGIFL@DEVICE_WIPE_PAGE_INFO?$AA@ 0048e3b0     Gstformat.obj
 0002:000023c8       ??_C@_0BH@IEGJMJEM@DEVICE_WIPE_PAGE_TITLE?$AA@ 0048e3c8     Gstformat.obj
 0002:000023e0       ??_C@_04LEEAJJHO@WIPE?$AA@ 0048e3e0     Gstformat.obj
 0002:000023e8       ??_C@_15OJKDPEFE@?$AA?5?$AA?5?$AA?$AA@ 0048e3e8     Gstformat.obj
 0002:000023f0       ??_C@_0CK@NCJGAECA@http?3?1?1www?4gostcrypt?4org?1redirec@ 0048e3f0     Gstformat.obj
 0002:0000241c       ??_C@_0CN@EDGNFMHB@FILESYS_PAGE_HELP_EXPLANATION_HI@ 0048e41c     Gstformat.obj
 0002:0000244c       ??_C@_0N@LNDFLMFM@FORMAT_ABORT?$AA@ 0048e44c     Gstformat.obj
 0002:0000245c       ??_C@_0CE@BFLBCKJG@http?3?1?1www?4ietf?4org?1rfc?1rfc5830?4@ 0048e45c     Gstformat.obj
 0002:00002480       ??_C@_0CK@PHDAOPJF@KEYFILES_NOT_SUPPORTED_FOR_SYS_E@ 0048e480     Gstformat.obj
 0002:000024ac       ??_C@_0L@GHEOANHD@OPEN_TITLE?$AA@ 0048e4ac     Gstformat.obj
 0002:000024b8       ??_C@_06OACPEFAM@Floppy?$AA@ 0048e4b8     Gstformat.obj
 0002:000024c0       ??_C@_0CG@FCGANOF@ALGO_NOT_SUPPORTED_FOR_SYS_ENCRY@ 0048e4c0     Gstformat.obj
 0002:000024e8       ??_C@_0BE@NLHJLKOB@CONFIRM_SPARSE_FILE?$AA@ 0048e4e8     Gstformat.obj
 0002:000024fc       ??_C@_0BC@LJAPGPK@WARN_QUICK_FORMAT?$AA@ 0048e4fc     Gstformat.obj
 0002:00002510       ??_C@_0EP@HCFFCIHD@?5?5?5?5?5?5?5?5?5?5?5?5?5?5?5?5?5?5?5?5?5?5?5?5?5?5?5?5?5?5?5?5@ 0048e510     Gstformat.obj
 0002:00002560       ??_C@_0BD@EJEDNFIG@CONFIRM_WIPE_ABORT?$AA@ 0048e560     Gstformat.obj
 0002:00002574       ??_C@_0BJ@CCHDLBFE@GST_INSTALLER_IS_RUNNING?$AA@ 0048e574     Gstformat.obj
 0002:00002590       ??_C@_0BL@JMGGGIDG@?2GostCrypt?5Rescue?5Disk?4iso?$AA@ 0048e590     Gstformat.obj
 0002:000025ac       ??_C@_04JFFKLGJF@?$CF02X?$AA@ 0048e5ac     Gstformat.obj
 0002:000025b4       ??_C@_0BK@ELCHMCAJ@ENABLE_BAD_SECTOR_ZEROING?$AA@ 0048e5b4     Gstformat.obj
 0002:000025d0       ??_C@_0CF@BKMHLPHL@DISCARD_UNREADABLE_ENCRYPTED_SEC@ 0048e5d0     Gstformat.obj
 0002:000025f8       ??_C@_0BL@LJPGNBNM@SYSTEM_ENCRYPTION_FINISHED?$AA@ 0048e5f8     Gstformat.obj
 0002:00002614       ??_C@_0BL@HGGGHBLG@SYSTEM_DECRYPTION_FINISHED?$AA@ 0048e614     Gstformat.obj
 0002:00002630       ??_C@_0BA@ICICKJJH@CONFIRM_RESTART?$AA@ 0048e630     Gstformat.obj
 0002:00002640       ??_C@_0BN@MNCKOJDH@KEYB_LAYOUT_CHANGE_PREVENTED?$AA@ 0048e640     Gstformat.obj
 0002:00002660       ??_C@_0CA@HGCGAMEK@KEYB_LAYOUT_SYS_ENC_EXPLANATION?$AA@ 0048e660     Gstformat.obj
 0002:00002680       ??_C@_0CF@OEJEFNLJ@ALT_KEY_CHARS_NOT_FOR_SYS_ENCRYP@ 0048e680     Gstformat.obj
 0002:000026a8       ??_C@_0BN@KCOCCGGE@SYS_DRIVE_SIZE_PROBE_TIMEOUT?$AA@ 0048e6a8     Gstformat.obj
 0002:000026c8       ??_C@_0CF@JGIFKPLM@WIPE_FINISHED_DECOY_SYSTEM_PARTI@ 0048e6c8     Gstformat.obj
 0002:000026f0       ??_C@_0BJ@EAMLJMAO@DECOY_OS_VERSION_WARNING?$AA@ 0048e6f0     Gstformat.obj
 0002:0000270c       ??_C@_0CB@MEPMKNNG@NONSYS_INPLACE_ENC_DEFER_CONFIRM@ 0048e70c     Gstformat.obj
 0002:00002730       ??_C@_0CA@MDOAMJOP@SYSTEM_DECRYPTION_DEFER_CONFIRM?$AA@ 0048e730     Gstformat.obj
 0002:00002750       ??_C@_0CA@OMHIMMHH@SYSTEM_ENCRYPTION_DEFER_CONFIRM?$AA@ 0048e750     Gstformat.obj
 0002:00002770       ??_C@_0CC@KDAJHHMG@CONFIRM_CANCEL_HIDDEN_OS_CREATIO@ 0048e770     Gstformat.obj
 0002:00002794       ??_C@_0BP@IFOLEKLB@CONFIRM_CANCEL_SYS_ENC_PRETEST?$AA@ 0048e794     Gstformat.obj
 0002:000027b4       ??_C@_0BH@KAHGPAJO@CONFIRM_EXIT_UNIVERSAL?$AA@ 0048e7b4     Gstformat.obj
 0002:000027cc       ??_C@_0BI@BGKLALIE@CONTAINER_ADMIN_WARNING?$AA@ 0048e7cc     Gstformat.obj
 0002:000027e4       ??_C@_0CI@HFDNHKMM@GAP_BETWEEN_SYS_AND_HIDDEN_OS_PA@ 0048e7e4     Gstformat.obj
 0002:0000280c       ??_C@_0BL@IDNPDOGL@DECOY_OS_REINSTALL_WARNING?$AA@ 0048e80c     Gstformat.obj
 0002:00002828       ??_C@_0CH@OILEALFF@HIDDEN_OS_WRITE_PROTECTION_EXPLA@ 0048e828     Gstformat.obj
 0002:00002850       ??_C@_0CG@LFCLDECM@HIDDEN_OS_WRITE_PROTECTION_BRIEF@ 0048e850     Gstformat.obj
 0002:00002878       ??_C@_02COKGDMEE@?1r?$AA@  0048e878     Gstformat.obj
 0002:0000287c       ??_C@_0BN@EDCHAEND@MULTI_BOOT_FOR_ADVANCED_ONLY?$AA@ 0048e87c     Gstformat.obj
 0002:0000289c       ??_C@_0BF@OEFLIJFC@HIDDEN_OS_MULTI_BOOT?$AA@ 0048e89c     Gstformat.obj
 0002:000028b4       ??_C@_0CF@PJBIBHBE@UNSUPPORTED_HIDDEN_OS_MULTI_BOOT@ 0048e8b4     Gstformat.obj
 0002:000028dc       ??_C@_0CH@PDMBGJBN@CONFIRM_HIDDEN_OS_EXTRA_BOOT_PAR@ 0048e8dc     Gstformat.obj
 0002:00002904       ??_C@_0BG@HEENEHGK@DECOY_OS_REQUIREMENTS?$AA@ 0048e904     Gstformat.obj
 0002:0000291c       ??_C@_0CE@BLBEBHP@SYS_PARTITION_MUST_BE_ON_BOOT_DR@ 0048e91c     Gstformat.obj
 0002:00002940       ??_C@_0DC@EAFFGLI@WDE_UNSUPPORTED_FOR_MULTIPLE_SYS@ 0048e940     Gstformat.obj
 0002:00002974       ??_C@_0CI@KANLNDNO@CUSTOM_BOOT_MANAGERS_IN_MBR_UNSU@ 0048e974     Gstformat.obj
 0002:0000299c       ??_C@_0BK@EHEECKKC@WINDOWS_BOOT_LOADER_HINTS?$AA@ 0048e99c     Gstformat.obj
 0002:000029b8       ??_C@_0BN@DOPCDKC@ADMIN_PRIVILEGES_WARN_HIDVOL?$AA@ 0048e9b8     Gstformat.obj
 0002:000029d8       ??_C@_0CK@NNPIGIED@HIDDEN_VOL_CREATION_UNDER_HIDDEN@ 0048e9d8     Gstformat.obj
 0002:00002a04       ??_C@_0CD@DKKKPMLO@DEVICE_SELECTED_IN_NON_DEVICE_MO@ 0048ea04     Gstformat.obj
 0002:00002a28       ??_C@_0BA@ECFGGOBI@ALREADY_MOUNTED?$AA@ 0048ea28     Gstformat.obj
 0002:00002a38       ??_C@_0BP@NCOMIFAB@CONFIRM_SYSTEM_ENCRYPTION_MODE?$AA@ 0048ea38     Gstformat.obj
 0002:00002a58       ??_C@_0BL@LHDMMKJO@EXE_FILE_EXTENSION_CONFIRM?$AA@ 0048ea58     Gstformat.obj
 0002:00002a74       ??_C@_0BH@BGCKDFKI@HIDDEN_VOL_HOST_SPARSE?$AA@ 0048ea74     Gstformat.obj
 0002:00002a8c       ??_C@_0CC@NCAFIIDC@NONSYS_INPLACE_ENC_CONFIRM_BACKU@ 0048ea8c     Gstformat.obj
 0002:00002ab0       ??_C@_0CD@HEIAMGDN@CONFIRM_CASCADE_FOR_SYS_ENCRYPTI@ 0048eab0     Gstformat.obj
 0002:00002ad4       ??_C@_0CA@HENDJLLF@NOTE_CASCADE_FOR_SYS_ENCRYPTION?$AA@ 0048ead4     Gstformat.obj
 0002:00002af4       ??_C@_05HNJNFBJJ@FAT32?$AA@ 0048eaf4     Gstformat.obj
 0002:00002afc       ??_C@_0BL@FEGMEEPN@VOLUME_TOO_LARGE_FOR_FAT32?$AA@ 0048eafc     Gstformat.obj
 0002:00002b18       ??_C@_0BL@IAHLEEBN@VOLUME_TOO_LARGE_FOR_WINXP?$AA@ 0048eb18     Gstformat.obj
 0002:00002b34       ??_C@_0CH@NJLIGNCF@FREE_SPACE_FOR_WRITING_TO_OUTER_@ 0048eb34     Gstformat.obj
 0002:00002b5c       ??_C@_0BJ@CPHEENHA@UNSUPPORTED_CHARS_IN_PWD?$AA@ 0048eb5c     Gstformat.obj
 0002:00002b78       ??_C@_0BP@BGCHIACG@CANNOT_RESTORE_KEYBOARD_LAYOUT?$AA@ 0048eb78     Gstformat.obj
 0002:00002b98       ??_C@_0BI@GNHKCMLM@CANT_DISMOUNT_OUTER_VOL?$AA@ 0048eb98     Gstformat.obj
 0002:00002bb0       ??_C@_0CK@DBNLNPHP@FOUND_NO_PARTITION_W_DEFERRED_IN@ 0048ebb0     Gstformat.obj
 0002:00002bdc       ??_C@_0DG@KNHACFHE@CANNOT_CREATE_NON_HIDDEN_NTFS_VO@ 0048ebdc     Gstformat.obj
 0002:00002c14       ??_C@_0CF@HFPIFBIF@CANNOT_SATISFY_OVER_4G_FILE_SIZE@ 0048ec14     Gstformat.obj
 0002:00002c3c       ??_C@_0BG@GLKAIFEA@CD_BURNER_NOT_PRESENT?$AA@ 0048ec3c     Gstformat.obj
 0002:00002c54       ??_C@_0CF@OBJIPJKN@CD_BURNER_NOT_PRESENT_WILL_STORE@ 0048ec54     Gstformat.obj
 0002:00002c7c       ??_C@_0CJ@FCOKHALJ@CD_BURNER_NOT_PRESENT_WILL_CONNE@ 0048ec7c     Gstformat.obj
 0002:00002ca8       ??_C@_0CE@FEAJEJEJ@CD_BURNER_NOT_PRESENT_CONNECTED_@ 0048eca8     Gstformat.obj
 0002:00002ccc       ??_C@_0CK@BHLKCEED@CD_BURNER_NOT_PRESENT_WILL_STORE@ 0048eccc     Gstformat.obj
 0002:00002cf8       ??_C@_0BP@EJPBDEFG@RESCUE_DISK_BURN_NO_CHECK_WARN?$AA@ 0048ecf8     Gstformat.obj
 0002:00002d18       ??_C@_0CH@GAGHEKIC@RESCUE_DISK_WIN_ISOBURN_PRELAUNC@ 0048ed18     Gstformat.obj
 0002:00002d40       ??_C@_0CL@LCMPFPDG@RESCUE_DISK_CHECK_FAILED_SENTENC@ 0048ed40     Gstformat.obj
 0002:00002d6c       ??_C@_0BJ@KDGMPLJF@RESCUE_DISK_CHECK_FAILED?$AA@ 0048ed6c     Gstformat.obj
 0002:00002d88       ??_C@_0P@BMFNBJAJ@WIPE_MODE_WARN?$AA@ 0048ed88     Gstformat.obj
 0002:00002d98       ??_C@_0BG@DGIFCGMK@PREBOOT_NOT_LOCALIZED?$AA@ 0048ed98     Gstformat.obj
 0002:00002db0       ??_C@_0CD@DFDNFFMK@CANNOT_INITIATE_HIDDEN_OS_CREATI@ 0048edb0     Gstformat.obj
 0002:00002dd4       ??_C@_0CH@MGEMKCIE@CANNOT_INITIATE_SYS_ENCRYPTION_P@ 0048edd4     Gstformat.obj
 0002:00002dfc       ??_C@_09PIOBCILE@?1acsysenc?$AA@ 0048edfc     Gstformat.obj
 0002:00002e08       ??_C@_0BN@EFIGHBDJ@OFFER_FAT_FORMAT_ALTERNATIVE?$AA@ 0048ee08     Gstformat.obj
 0002:00002e28       ??_C@_0CG@HAPBHPDC@FAT_NOT_AVAILABLE_FOR_SO_LARGE_V@ 0048ee28     Gstformat.obj
 0002:00002e50       ??_C@_0CK@PNCJJOHK@OUTER_VOLUME_TOO_SMALL_FOR_HIDDE@ 0048ee50     Gstformat.obj
 0002:00002e7c       ??_C@_0CM@PCAIDDLK@HIDDEN_VOL_HOST_UNSUPPORTED_FILE@ 0048ee7c     Gstformat.obj
 0002:00002ea8       ??_C@_0BJ@NALGNOGO@HIDDEN_VOL_HOST_NTFS_ASK?$AA@ 0048eea8     Gstformat.obj
 0002:00002ec4       ??_C@_0BP@NLBJKNFD@CONFIRM_FAT_FOR_FILES_OVER_4GB?$AA@ 0048eec4     Gstformat.obj
 0002:00002ee4       ??_C@_0BC@DADPIOMM@CLUSTER_TOO_SMALL?$AA@ 0048eee4     Gstformat.obj
 0002:00002ef8       ??_C@_0BD@NGECJJAH@FORMAT_IN_PROGRESS?$AA@ 0048eef8     Gstformat.obj
 0002:00002f0c       ??_C@_0CH@LLDBJBEP@CONFIRM_WIPE_START_DECOY_SYS_PAR@ 0048ef0c     Gstformat.obj
 0002:00002f34       ??_C@_0BD@ICCGDAH@CONFIRM_WIPE_START?$AA@ 0048ef34     Gstformat.obj
 0002:00002f48       ??_C@_0L@JGIDNNFC@?9Embedding?$AA@ 0048ef48     Gstformat.obj
 0002:00002f54       ??_C@_08BCLHLEKP@?1history?$AA@ 0048ef54     Gstformat.obj
 0002:00002f60       ??_C@_02JOILMGJP@?1h?$AA@  0048ef60     Gstformat.obj
 0002:00002f64       ??_C@_0M@IEGCIDAG@?1noisocheck?$AA@ 0048ef64     Gstformat.obj
 0002:00002f70       ??_C@_02MINBGBBJ@?1n?$AA@  0048ef70     Gstformat.obj
 0002:00002f74       ??_C@_05CMMBDMDD@?1quit?$AA@ 0048ef74     Gstformat.obj
 0002:00002f7c       ??_C@_02FILGPIH@?1q?$AA@   0048ef7c     Gstformat.obj
 0002:00002f80       ??_C@_09JABABBPB@?1tokenlib?$AA@ 0048ef80     Gstformat.obj
 0002:00002f8c       ??_C@_02EPEJHNNG@?1a?$AA@  0048ef8c     Gstformat.obj
 0002:00002f90       ??_C@_08FFGENEKE@?1csysenc?$AA@ 0048ef90     Gstformat.obj
 0002:00002f9c       ??_C@_02HNHPBPFE@?1c?$AA@  0048ef9c     Gstformat.obj
 0002:00002fa0       ??_C@_08FPKBNNLN@?1dsysenc?$AA@ 0048efa0     Gstformat.obj
 0002:00002fac       ??_C@_02DCDOIJJD@?1d?$AA@  0048efac     Gstformat.obj
 0002:00002fb0       ??_C@_07MFEOHHG@?1encdev?$AA@ 0048efb0     Gstformat.obj
 0002:00002fb8       ??_C@_08MEKEMIGM@?1isysenc?$AA@ 0048efb8     Gstformat.obj
 0002:00002fc4       ??_C@_02IHJAPHNO@?1i?$AA@  0048efc4     Gstformat.obj
 0002:00002fc8       ??_C@_0L@DLEMDKJB@?1prinplace?$AA@ 0048efc8     Gstformat.obj
 0002:00002fd4       ??_C@_02BMJAFOMG@?1p?$AA@  0048efd4     Gstformat.obj
 0002:00002fd8       ??_C@_09PMGMEKMI@?1risysenc?$AA@ 0048efd8     Gstformat.obj
 0002:00002fe4       ??_C@_07PFDFIFLD@?1sysenc?$AA@ 0048efe4     Gstformat.obj
 0002:00002fec       ??_C@_02DHLNANAF@?1s?$AA@  0048efec     Gstformat.obj
 0002:00002ff0       ??_C@_02OGHPLGEM@?1z?$AA@  0048eff0     Gstformat.obj
 0002:00002ff4       ??_C@_01EANLCPLP@y?$AA@    0048eff4     Gstformat.obj
 0002:00002ff8       ??_C@_03ICICOMAL@yes?$AA@  0048eff8     Gstformat.obj
 0002:00002ffc       ??_C@_01EFFIKLCJ@n?$AA@    0048effc     Gstformat.obj
 0002:00003000       ??_C@_02KAJCLHKP@no?$AA@   0048f000     Gstformat.obj
 0002:00003004       ??_C@_0BD@LGCKNJIO@COMMAND_LINE_ERROR?$AA@ 0048f004     Gstformat.obj
 0002:00003018       ??_C@_0BI@EIHCDBCC@NO_SPACE_FOR_HIDDEN_VOL?$AA@ 0048f018     Gstformat.obj
 0002:00003030       ??_C@_0BG@EDMDLNEK@CANT_ACCESS_OUTER_VOL?$AA@ 0048f030     Gstformat.obj
 0002:00003048       ??_C@_0BD@GJIBONDI@ERR_VOL_FORMAT_BAD?$AA@ 0048f048     Gstformat.obj
 0002:0000305c       ??_C@_0BN@PEDIFLNF@ERR_HIDDEN_NOT_NORMAL_VOLUME?$AA@ 0048f05c     Gstformat.obj
 0002:0000307c       ??_C@_0CG@DBCOIOLF@ERR_HIDDEN_VOL_HOST_ENCRYPTED_IN@ 0048f07c     Gstformat.obj
 0002:000030a4       ??_C@_0BF@GKHHEFAE@HIDDEN_VOL_HOST_NTFS?$AA@ 0048f0a4     Gstformat.obj
 0002:000030bc       ??_C@_0BI@JLECLIC@CANT_GET_OUTER_VOL_INFO?$AA@ 0048f0bc     Gstformat.obj
 0002:000030d4       ??_C@_0CE@PMECNFFM@HIDDEN_VOL_HOST_UNSUPPORTED_FILE@ 0048f0d4     Gstformat.obj
 0002:000030f8       ??_C@_0BG@BIDCCDPC@MountVolumesRemovable?$AA@ 0048f0f8     Gstformat.obj
 0002:00003110       ??_C@_0BI@IEBIBFIL@CANT_GET_CLUSTER_BITMAP?$AA@ 0048f110     Gstformat.obj
 0002:00003128       ??_C@_0CE@GLPLHHCP@AfterSysEncProgressWMInitTasks?39@ 0048f128     Gstformat.obj
 0002:0000314c       ??_C@_0BJ@KGJBOMKO@CANNOT_DECRYPT_HIDDEN_OS?$AA@ 0048f14c     Gstformat.obj
 0002:00003168       ??_C@_0BG@JNPKODLF@AfterWMInitTasks?39116?$AA@ 0048f168     Gstformat.obj
 0002:00003180       ??_C@_0CL@LHNBFDMB@SYSTEM_ENCRYPTION_SCHEDULED_BUT_@ 0048f180     Gstformat.obj
 0002:000031ac       ??_C@_0BC@BOICFCMD@NOTHING_TO_RESUME?$AA@ 0048f1ac     Gstformat.obj
 0002:000031c0       ??_C@_0CP@MHIMBFBH@SYS_PARTITION_OR_DRIVE_APPEARS_F@ 0048f1c0     Gstformat.obj
 0002:000031f0       ??_C@_0BG@BOBNFKFK@AfterWMInitTasks?39288?$AA@ 0048f1f0     Gstformat.obj
 0002:00003208       ??_C@_0BG@BEIDFAO@AfterWMInitTasks?39374?$AA@ 0048f208     Gstformat.obj
 0002:00003220       ??_C@_0BK@DFBAAIPH@BOOT_PRETEST_FAILED_RETRY?$AA@ 0048f220     Gstformat.obj
 0002:0000323c       ??_C@_0BL@BAAJMEPI@OS_WIPING_NOT_FINISHED_ASK?$AA@ 0048f23c     Gstformat.obj
 0002:00003258       ??_C@_0CE@BLKNBIFF@HIDDEN_OS_CREATION_NOT_FINISHED_@ 0048f258     Gstformat.obj
 0002:0000327c       ??_C@_0CN@NFNCFNOG@HIDDEN_OS_CREATION_NOT_FINISHED_@ 0048f27c     Gstformat.obj
 0002:000032ac       ??_C@_0DB@KJCGFBOB@HIDDEN_OS_CREATION_NOT_FINISHED_@ 0048f2ac     Gstformat.obj
 0002:000032e0       ??_C@_0DB@IJPDGLEP@HIDDEN_OS_CREATION_NOT_FINISHED_@ 0048f2e0     Gstformat.obj
 0002:00003314       ??_C@_0BG@JEMCACBK@AfterWMInitTasks?39509?$AA@ 0048f314     Gstformat.obj
 0002:0000332c       ??_C@_0N@PDPHKHCO@INIT_SYS_ENC?$AA@ 0048f32c     Gstformat.obj
 0002:0000333c       ??_C@_09PLHAEEAO@INIT_RAND?$AA@ 0048f33c     Gstformat.obj
 0002:00003348       ??_C@_08ELEAABKI@NODRIVER?$AA@ 0048f348     Gstformat.obj
 0002:00003354       ??_C@_0BG@DKEEGIEL@ERR_SELF_TESTS_FAILED?$AA@ 0048f354     Gstformat.obj
 0002:00003370       ??_7?$num_put@_WV?$ostreambuf_iterator@_WU?$char_traits@_W@std@@@std@@@std@@6B@ 0048f370     Gstformat.obj
 0002:0000339c       ??_C@_02BBAHNLBA@?$CFp?$AA@ 0048f39c     Gstformat.obj
 0002:000033a0       ??_C@_02CLHGNPPK@Lu?$AA@   0048f3a0     Gstformat.obj
 0002:000033a4       ??_C@_02HIKPPMOK@Ld?$AA@   0048f3a4     Gstformat.obj
 0002:000033a8       ??_C@_02BDDLJJBK@lu?$AA@   0048f3a8     Gstformat.obj
 0002:000033ac       ??_C@_02EAOCLKAK@ld?$AA@   0048f3ac     Gstformat.obj
 0002:000033b4       ??_7?$numpunct@_W@std@@6B@ 0048f3b4     Gstformat.obj
 0002:000033d4       ??_C@_02MDKMJEGG@eE?$AA@   0048f3d4     Gstformat.obj
 0002:000033d8       ??_C@_02OOPEBDOJ@pP?$AA@   0048f3d8     Gstformat.obj
 0002:000033dc       ??_C@_01LFCBOECM@?4?$AA@   0048f3dc     Gstformat.obj
 0002:000033e0       ??_C@_0BD@OLBABOEK@vector?$DMT?$DO?5too?5long?$AA@ 0048f3e0     Gstformat.obj
 0002:000033f4       ??_C@_0BA@JFNIOLAK@string?5too?5long?$AA@ 0048f3f4     Gstformat.obj
 0002:00003404       ??_C@_0BI@CFPLBAOH@invalid?5string?5position?$AA@ 0048f404     Gstformat.obj
 0002:00003420       __real@3feb333333333333    0048f420     Gstformat.obj
 0002:00003428       __real@4000cccccccccccd    0048f428     Gstformat.obj
 0002:00003430       __real@4058ff5c28f5c28f    0048f430     Gstformat.obj
 0002:00003438       __real@4202a05f20000000    0048f438     Gstformat.obj
 0002:00003440       __real@42b00000            0048f440     Gstformat.obj
 0002:00003450       __xmm@000000000000000000000019000000a2 0048f450     Gstformat.obj
 0002:00003460       __xmm@7fffffffffffffff7fffffffffffffff 0048f460     Gstformat.obj
 0002:00003470       __xmm@ffffffffffffffffffffffffffffffff 0048f470     Gstformat.obj
 0002:00003480       ??_C@_0CI@PMIJHGDI@OS_NOT_SUPPORTED_FOR_NONSYS_INPL@ 0048f480     InPlace.obj
 0002:000034a8       ??_C@_0BJ@IDFJMMLD@?2Device?2HarddiskVolume?$CFd?$AA@ 0048f4a8     InPlace.obj
 0002:000034c4       ??_C@_0BP@MDCLODBD@?2Device?2Harddisk?$CFd?2Partition?$CFd?$AA@ 0048f4c4     InPlace.obj
 0002:000034e4       ??_C@_0BJ@KPKOCMJM@INPLACE_ENC_INVALID_PATH?$AA@ 0048f4e4     InPlace.obj
 0002:00003500       ??_C@_0CG@BBECDHBI@RAW_DEV_NOT_SUPPORTED_FOR_INPLAC@ 0048f500     InPlace.obj
 0002:00003528       ??_C@_0CL@CAPGNNOA@INPLACE_ENC_CANT_ACCESS_OR_GET_I@ 0048f528     InPlace.obj
 0002:00003554       ??_C@_0CL@COOAAIGJ@ONLY_NTFS_SUPPORTED_FOR_NONSYS_I@ 0048f554     InPlace.obj
 0002:00003580       ??_C@_0DC@BPGKKGKD@ONLY_MOUNTED_VOL_SUPPORTED_FOR_N@ 0048f580     InPlace.obj
 0002:000035b4       ??_C@_0CP@BEBKAKBO@INPLACE_ENC_CANT_ACCESS_OR_GET_I@ 0048f5b4     InPlace.obj
 0002:000035e4       ??_C@_0CL@EKBFECDJ@PARTITION_TOO_SMALL_FOR_NONSYS_I@ 0048f5e4     InPlace.obj
 0002:00003610       ??_C@_0CJ@DJNLKEPP@NOT_ENOUGH_FREE_FILESYS_SPACE_FO@ 0048f610     InPlace.obj
 0002:0000363c       ??_C@_0BG@EBLNDPCA@CANNOT_RESIZE_FILESYS?$AA@ 0048f63c     InPlace.obj
 0002:00003654       ??_C@_0BI@KOHPIJFG@ZEROED_BAD_SECTOR_COUNT?$AA@ 0048f654     InPlace.obj
 0002:0000366c       ??_C@_0BK@KFDNCGEE@DEVICE_IN_USE_INPLACE_ENC?$AA@ 0048f66c     InPlace.obj
 0002:00003688       ??_C@_0CK@OMIEFGPE@INPLACE_ENC_CANT_LOCK_OR_DISMOUN@ 0048f688     InPlace.obj
 0002:000036b4       ??_C@_0CG@LMIKKFBM@VOL_LOCK_FAILED_OFFER_FORCED_DIS@ 0048f6b4     InPlace.obj
 0002:000036dc       ??_C@_0BO@LGBJGGOF@INPLACE_ENC_ALTERNATIVE_STEPS?$AA@ 0048f6dc     InPlace.obj
 0002:000036fc       ??_C@_02DPKJAMEF@?$CFd?$AA@ 0048f6fc     InPlace.obj
 0002:00003700       ??_C@_0BO@IBNLKCDC@In?9Place?5Encryption?5Wipe?5Algo?$AA@ 0048f700     InPlace.obj
 0002:00003720       ??_C@_0BE@NLGDPAAC@In?9Place?5Encryption?$AA@ 0048f720     InPlace.obj
 0002:00003734       ??_C@_15PKPONJIK@?$AA?2?$AA?$CK?$AA?$AA@ 0048f734     InPlace.obj
 0002:0000373c       ??_C@_19MJCDBCKE@?$AA?2?$AA?2?$AA?$DP?$AA?2?$AA?$AA@ 0048f73c     InPlace.obj
 0002:00003748       ??_C@_13JOFGPIOO@?$AA?4?$AA?$AA@ 0048f748     InPlace.obj
 0002:0000374c       ??_C@_15DDHGOCBH@?$AA?4?$AA?4?$AA?$AA@ 0048f74c     InPlace.obj
 0002:00003754       ??_C@_13FPGAJAPJ@?$AA?2?$AA?$AA@ 0048f754     InPlace.obj
 0002:00003758       ??_C@_15DBHGMMAD@?$AAX?$AA?3?$AA?$AA@ 0048f758     InPlace.obj
 0002:00003760       ??_C@_1DO@BMONIIMG@?$AAE?$AAl?$AAe?$AAv?$AAa?$AAt?$AAi?$AAo?$AAn?$AA?3?$AAA?$AAd?$AAm?$AAi?$AAn?$AAi?$AAs?$AAt?$AAr?$AAa?$AAt?$AAo?$AAr?$AA?$CB?$AAn?$AAe?$AAw?$AA?3?$AA?$CF?$AAs?$AA?$AA@ 0048f760     BaseCom.obj
 0002:000037a0       ??_C@_1M@LJLLCMEH@?$AAp?$AAt?$AA?9?$AAb?$AAr?$AA?$AA@ 0048f7a0     BootEncryption.obj
 0002:000037ac       ??_C@_1M@NCMONAAL@?$AAp?$AAt?$AA?9?$AAp?$AAt?$AA?$AA@ 0048f7ac     BootEncryption.obj
 0002:000037b8       ??_C@_1O@EAKMAJDN@?$AAq?$AAu?$AAz?$AA?9?$AAb?$AAo?$AA?$AA@ 0048f7b8     BootEncryption.obj
 0002:000037c8       ??_C@_1O@BHHPIGDN@?$AAq?$AAu?$AAz?$AA?9?$AAe?$AAc?$AA?$AA@ 0048f7c8     BootEncryption.obj
 0002:000037d8       ??_C@_1O@GBAPEKMJ@?$AAq?$AAu?$AAz?$AA?9?$AAp?$AAe?$AA?$AA@ 0048f7d8     BootEncryption.obj
 0002:000037e8       ??_C@_1M@CLGLEFBO@?$AAr?$AAo?$AA?9?$AAr?$AAo?$AA?$AA@ 0048f7e8     BootEncryption.obj
 0002:000037f4       ??_C@_1M@CEEDODME@?$AAr?$AAu?$AA?9?$AAr?$AAu?$AA?$AA@ 0048f7f4     BootEncryption.obj
 0002:00003800       ??_C@_1M@HPKKKMPP@?$AAs?$AAa?$AA?9?$AAi?$AAn?$AA?$AA@ 0048f800     BootEncryption.obj
 0002:0000380c       ??_C@_1M@BKMAIGOJ@?$AAs?$AAe?$AA?9?$AAf?$AAi?$AA?$AA@ 0048f80c     BootEncryption.obj
 0002:00003818       ??_C@_1M@NDPIFLFI@?$AAs?$AAe?$AA?9?$AAn?$AAo?$AA?$AA@ 0048f818     BootEncryption.obj
 0002:00003824       ??_C@_1M@DANKKHJ@?$AAs?$AAe?$AA?9?$AAs?$AAe?$AA?$AA@ 0048f824     BootEncryption.obj
 0002:00003830       ??_C@_1M@PNBLONPJ@?$AAs?$AAk?$AA?9?$AAs?$AAk?$AA?$AA@ 0048f830     BootEncryption.obj
 0002:0000383c       ??_C@_1M@LFMODOAL@?$AAs?$AAl?$AA?9?$AAs?$AAi?$AA?$AA@ 0048f83c     BootEncryption.obj
 0002:00003848       ??_C@_1O@DFKOMPG@?$AAs?$AAm?$AAa?$AA?9?$AAn?$AAo?$AA?$AA@ 0048f848     BootEncryption.obj
 0002:00003858       ??_C@_1O@NDKPBNNH@?$AAs?$AAm?$AAa?$AA?9?$AAs?$AAe?$AA?$AA@ 0048f858     BootEncryption.obj
 0002:00003868       ??_C@_1O@PLLKBHAB@?$AAs?$AAm?$AAj?$AA?9?$AAn?$AAo?$AA?$AA@ 0048f868     BootEncryption.obj
 0002:00003878       ??_C@_1O@CLEPOGCA@?$AAs?$AAm?$AAj?$AA?9?$AAs?$AAe?$AA?$AA@ 0048f878     BootEncryption.obj
 0002:00003888       ??_C@_1O@DLGJGKMK@?$AAs?$AAm?$AAn?$AA?9?$AAf?$AAi?$AA?$AA@ 0048f888     BootEncryption.obj
 0002:00003898       ??_C@_1O@OJDJGAJC@?$AAs?$AAm?$AAs?$AA?9?$AAf?$AAi?$AA?$AA@ 0048f898     BootEncryption.obj
 0002:000038a8       ??_C@_1M@BOFOGHPB@?$AAs?$AAq?$AA?9?$AAa?$AAl?$AA?$AA@ 0048f8a8     BootEncryption.obj
 0002:000038b4       ??_C@_1BG@LJBBIPGB@?$AAs?$AAr?$AA?9?$AAb?$AAa?$AA?9?$AAc?$AAy?$AAr?$AAl?$AA?$AA@ 0048f8b4     BootEncryption.obj
 0002:000038cc       ??_C@_1BG@JLBENFOE@?$AAs?$AAr?$AA?9?$AAb?$AAa?$AA?9?$AAl?$AAa?$AAt?$AAn?$AA?$AA@ 0048f8cc     BootEncryption.obj
 0002:000038e4       ??_C@_1BG@KODPNHE@?$AAs?$AAr?$AA?9?$AAs?$AAp?$AA?9?$AAc?$AAy?$AAr?$AAl?$AA?$AA@ 0048f8e4     BootEncryption.obj
 0002:000038fc       ??_C@_1BG@CIOGKHPB@?$AAs?$AAr?$AA?9?$AAs?$AAp?$AA?9?$AAl?$AAa?$AAt?$AAn?$AA?$AA@ 0048f8fc     BootEncryption.obj
 0002:00003914       ??_C@_1M@NGFJLMAC@?$AAs?$AAv?$AA?9?$AAf?$AAi?$AA?$AA@ 0048f914     BootEncryption.obj
 0002:00003920       ??_C@_1M@MPJEJAJC@?$AAs?$AAv?$AA?9?$AAs?$AAe?$AA?$AA@ 0048f920     BootEncryption.obj
 0002:0000392c       ??_C@_1M@MPNDHLFK@?$AAs?$AAw?$AA?9?$AAk?$AAe?$AA?$AA@ 0048f92c     BootEncryption.obj
 0002:00003938       ??_C@_1O@KOHBJJI@?$AAs?$AAy?$AAr?$AA?9?$AAs?$AAy?$AA?$AA@ 0048f938     BootEncryption.obj
 0002:00003948       ??_C@_1M@LDCEFHA@?$AAt?$AAa?$AA?9?$AAi?$AAn?$AA?$AA@ 0048f948     BootEncryption.obj
 0002:00003954       ??_C@_1M@CNJOFAK@?$AAt?$AAe?$AA?9?$AAi?$AAn?$AA?$AA@ 0048f954     BootEncryption.obj
 0002:00003960       ??_C@_1M@GNAECACD@?$AAt?$AAh?$AA?9?$AAt?$AAh?$AA?$AA@ 0048f960     BootEncryption.obj
 0002:0000396c       ??_C@_1M@CHBIHOJO@?$AAt?$AAn?$AA?9?$AAz?$AAa?$AA?$AA@ 0048f96c     BootEncryption.obj
 0002:00003978       ??_C@_1M@GCCMIGPJ@?$AAt?$AAr?$AA?9?$AAt?$AAr?$AA?$AA@ 0048f978     BootEncryption.obj
 0002:00003984       ??_C@_1M@CELMCNBK@?$AAt?$AAt?$AA?9?$AAr?$AAu?$AA?$AA@ 0048f984     BootEncryption.obj
 0002:00003990       ??_C@_1M@KLMCELGA@?$AAu?$AAk?$AA?9?$AAu?$AAa?$AA?$AA@ 0048f990     BootEncryption.obj
 0002:0000399c       ??_C@_1M@EPAJJAJF@?$AAu?$AAr?$AA?9?$AAp?$AAk?$AA?$AA@ 0048f99c     BootEncryption.obj
 0002:000039a8       ??_C@_1BG@GEGPMCDJ@?$AAu?$AAz?$AA?9?$AAu?$AAz?$AA?9?$AAc?$AAy?$AAr?$AAl?$AA?$AA@ 0048f9a8     BootEncryption.obj
 0002:000039c0       ??_C@_1BG@EGGKJILM@?$AAu?$AAz?$AA?9?$AAu?$AAz?$AA?9?$AAl?$AAa?$AAt?$AAn?$AA?$AA@ 0048f9c0     BootEncryption.obj
 0002:000039d8       ??_C@_1M@GFOCLFF@?$AAv?$AAi?$AA?9?$AAv?$AAn?$AA?$AA@ 0048f9d8     BootEncryption.obj
 0002:000039e4       ??_C@_1M@CPAMEDFI@?$AAx?$AAh?$AA?9?$AAz?$AAa?$AA?$AA@ 0048f9e4     BootEncryption.obj
 0002:000039f0       ??_C@_1O@EBKIFIGN@?$AAz?$AAh?$AA?9?$AAc?$AAh?$AAs?$AA?$AA@ 0048f9f0     BootEncryption.obj
 0002:00003a00       ??_C@_1O@NMHPGANE@?$AAz?$AAh?$AA?9?$AAc?$AAh?$AAt?$AA?$AA@ 0048fa00     BootEncryption.obj
 0002:00003a10       ??_C@_1M@LPINJOMC@?$AAz?$AAh?$AA?9?$AAc?$AAn?$AA?$AA@ 0048fa10     BootEncryption.obj
 0002:00003a1c       ??_C@_1M@OCJEJODD@?$AAz?$AAh?$AA?9?$AAh?$AAk?$AA?$AA@ 0048fa1c     BootEncryption.obj
 0002:00003a28       ??_C@_1M@DNDLJINH@?$AAz?$AAh?$AA?9?$AAm?$AAo?$AA?$AA@ 0048fa28     BootEncryption.obj
 0002:00003a34       ??_C@_1M@MBFDNDND@?$AAz?$AAh?$AA?9?$AAs?$AAg?$AA?$AA@ 0048fa34     BootEncryption.obj
 0002:00003a40       ??_C@_1M@IMEPLEPE@?$AAz?$AAh?$AA?9?$AAt?$AAw?$AA?$AA@ 0048fa40     BootEncryption.obj
 0002:00003a4c       ??_C@_1M@BBGHNHJP@?$AAz?$AAu?$AA?9?$AAz?$AAa?$AA?$AA@ 0048fa4c     BootEncryption.obj
 0002:00003a58       ??_C@_15EMKDOKLE@?$AAa?$AAr?$AA?$AA@ 0048fa58     BootEncryption.obj
 0002:00003a60       ??_C@_15KNPADPLH@?$AAb?$AAg?$AA?$AA@ 0048fa60     BootEncryption.obj
 0002:00003a68       ??_C@_15EDMHLDMO@?$AAc?$AAa?$AA?$AA@ 0048fa68     BootEncryption.obj
 0002:00003a70       ??_C@_1O@BPEAJADD@?$AAz?$AAh?$AA?9?$AAC?$AAH?$AAS?$AA?$AA@ 0048fa70     BootEncryption.obj
 0002:00003a80       ??_C@_15LJNHCMNK@?$AAc?$AAs?$AA?$AA@ 0048fa80     BootEncryption.obj
 0002:00003a88       ??_C@_15FOMCIDHG@?$AAd?$AAa?$AA?$AA@ 0048fa88     BootEncryption.obj
 0002:00003a90       ??_C@_15NBKABECB@?$AAd?$AAe?$AA?$AA@ 0048fa90     BootEncryption.obj
 0002:00003a98       ??_C@_15GHPEIIAO@?$AAe?$AAl?$AA?$AA@ 0048fa98     BootEncryption.obj
 0002:00003aa0       ??_C@_15MNPNEAIF@?$AAe?$AAn?$AA?$AA@ 0048faa0     BootEncryption.obj
 0002:00003aa8       ??_C@_15GPIOMPMH@?$AAe?$AAs?$AA?$AA@ 0048faa8     BootEncryption.obj
 0002:00003ab0       ??_C@_15NGLOAKJC@?$AAf?$AAi?$AA?$AA@ 0048fab0     BootEncryption.obj
 0002:00003ab8       ??_C@_15FBKGNKAM@?$AAf?$AAr?$AA?$AA@ 0048fab8     BootEncryption.obj
 0002:00003ac0       ??_C@_15KGGCNEFK@?$AAh?$AAe?$AA?$AA@ 0048fac0     BootEncryption.obj
 0002:00003ac8       ??_C@_15PGHLIDMF@?$AAh?$AAu?$AA?$AA@ 0048fac8     BootEncryption.obj
 0002:00003ad0       ??_C@_15BIEMAPLM@?$AAi?$AAs?$AA?$AA@ 0048fad0     BootEncryption.obj
 0002:00003ad8       ??_C@_15IFJLDHAF@?$AAi?$AAt?$AA?$AA@ 0048fad8     BootEncryption.obj
 0002:00003ae0       ??_C@_15GEMIOCAG@?$AAj?$AAa?$AA?$AA@ 0048fae0     BootEncryption.obj
 0002:00003ae8       ??_C@_15EPELEGJA@?$AAk?$AAo?$AA?$AA@ 0048fae8     BootEncryption.obj
 0002:00003af0       ??_C@_15NDDHIMN@?$AAn?$AAl?$AA?$AA@ 0048faf0     BootEncryption.obj
 0002:00003af8       ??_C@_15BPIGNHCD@?$AAn?$AAo?$AA?$AA@ 0048faf8     BootEncryption.obj
 0002:00003b00       ??_C@_15DEOPBLCG@?$AAp?$AAl?$AA?$AA@ 0048fb00     BootEncryption.obj
 0002:00003b08       ??_C@_15KBECGEFG@?$AAp?$AAt?$AA?$AA@ 0048fb08     BootEncryption.obj
 0002:00003b10       ??_C@_15GLJCBFMD@?$AAr?$AAo?$AA?$AA@ 0048fb10     BootEncryption.obj
 0002:00003b18       ??_C@_15FEDGKCDI@?$AAr?$AAu?$AA?$AA@ 0048fb18     BootEncryption.obj
 0002:00003b20       ??_C@_15GLKMLLHM@?$AAh?$AAr?$AA?$AA@ 0048fb20     BootEncryption.obj
 0002:00003b28       ??_C@_15CPKMFBDB@?$AAs?$AAk?$AA?$AA@ 0048fb28     BootEncryption.obj
 0002:00003b30       ??_C@_15BAAIOGMK@?$AAs?$AAq?$AA?$AA@ 0048fb30     BootEncryption.obj
 0002:00003b38       ??_C@_15INNPNOHD@?$AAs?$AAv?$AA?$AA@ 0048fb38     BootEncryption.obj
 0002:00003b40       ??_C@_15CABMMOGH@?$AAt?$AAh?$AA?$AA@ 0048fb40     BootEncryption.obj
 0002:00003b48       ??_C@_15BPLIHJJM@?$AAt?$AAr?$AA?$AA@ 0048fb48     BootEncryption.obj
 0002:00003b50       ??_C@_15NEOEKKDJ@?$AAu?$AAr?$AA?$AA@ 0048fb50     BootEncryption.obj
 0002:00003b58       ??_C@_15NFICGAJK@?$AAi?$AAd?$AA?$AA@ 0048fb58     BootEncryption.obj
 0002:00003b60       ??_C@_15PJPFLCCM@?$AAu?$AAk?$AA?$AA@ 0048fb60     BootEncryption.obj
 0002:00003b68       ??_C@_15HPJPHDM@?$AAb?$AAe?$AA?$AA@ 0048fb68     BootEncryption.obj
 0002:00003b70       ??_C@_15LCHLGJII@?$AAs?$AAl?$AA?$AA@ 0048fb70     BootEncryption.obj
 0002:00003b78       ??_C@_15PCFJPHHO@?$AAe?$AAt?$AA?$AA@ 0048fb78     BootEncryption.obj
 0002:00003b80       ??_C@_15HPFPGODN@?$AAl?$AAv?$AA?$AA@ 0048fb80     BootEncryption.obj
 0002:00003b88       ??_C@_15NFFGKGLG@?$AAl?$AAt?$AA?$AA@ 0048fb88     BootEncryption.obj
 0002:00003b90       ??_C@_15BDAKCCHN@?$AAf?$AAa?$AA?$AA@ 0048fb90     BootEncryption.obj
 0002:00003b98       ??_C@_15NFGIAIAJ@?$AAv?$AAi?$AA?$AA@ 0048fb98     BootEncryption.obj
 0002:00003ba0       ??_C@_15LMKNDMHN@?$AAh?$AAy?$AA?$AA@ 0048fba0     BootEncryption.obj
 0002:00003ba8       ??_C@_15IJBHMCFL@?$AAa?$AAz?$AA?$AA@ 0048fba8     BootEncryption.obj
 0002:00003bb0       ??_C@_15EKOFJABL@?$AAe?$AAu?$AA?$AA@ 0048fbb0     BootEncryption.obj
 0002:00003bb8       ??_C@_15BGHADCNK@?$AAm?$AAk?$AA?$AA@ 0048fbb8     BootEncryption.obj
 0002:00003bc0       ??_C@_15JDNICKHM@?$AAa?$AAf?$AA?$AA@ 0048fbc0     BootEncryption.obj
 0002:00003bc8       ??_C@_15KPJEDBKD@?$AAk?$AAa?$AA?$AA@ 0048fbc8     BootEncryption.obj
 0002:00003bd0       ??_C@_15PDNFFFEO@?$AAf?$AAo?$AA?$AA@ 0048fbd0     BootEncryption.obj
 0002:00003bd8       ??_C@_15OMLEGLOC@?$AAh?$AAi?$AA?$AA@ 0048fbd8     BootEncryption.obj
 0002:00003be0       ??_C@_15IDNNENKK@?$AAm?$AAs?$AA?$AA@ 0048fbe0     BootEncryption.obj
 0002:00003be8       ??_C@_15MACJNBMH@?$AAk?$AAk?$AA?$AA@ 0048fbe8     BootEncryption.obj
 0002:00003bf0       ??_C@_15DKDJEOND@?$AAk?$AAy?$AA?$AA@ 0048fbf0     BootEncryption.obj
 0002:00003bf8       ??_C@_15DFGDLJBG@?$AAs?$AAw?$AA?$AA@ 0048fbf8     BootEncryption.obj
 0002:00003c00       ??_C@_15BBFAICNG@?$AAu?$AAz?$AA?$AA@ 0048fc00     BootEncryption.obj
 0002:00003c08       ??_C@_15DKNDCGEA@?$AAt?$AAt?$AA?$AA@ 0048fc08     BootEncryption.obj
 0002:00003c10       ??_C@_15MGIFMDPL@?$AAp?$AAa?$AA?$AA@ 0048fc10     BootEncryption.obj
 0002:00003c18       ??_C@_15HCNDBBA@?$AAg?$AAu?$AA?$AA@ 0048fc18     BootEncryption.obj
 0002:00003c20       ??_C@_15FNBEIBON@?$AAt?$AAa?$AA?$AA@ 0048fc20     BootEncryption.obj
 0002:00003c28       ??_C@_15NCHGBGLK@?$AAt?$AAe?$AA?$AA@ 0048fc28     BootEncryption.obj
 0002:00003c30       ??_C@_15PHPHCBPF@?$AAk?$AAn?$AA?$AA@ 0048fc30     BootEncryption.obj
 0002:00003c38       ??_C@_15DLGBCKMP@?$AAm?$AAr?$AA?$AA@ 0048fc38     BootEncryption.obj
 0002:00003c40       ??_C@_15EABBLBFF@?$AAs?$AAa?$AA?$AA@ 0048fc40     BootEncryption.obj
 0002:00003c48       ??_C@_15CBKOMCOI@?$AAm?$AAn?$AA?$AA@ 0048fc48     BootEncryption.obj
 0002:00003c50       ??_C@_15CKDMCJAF@?$AAg?$AAl?$AA?$AA@ 0048fc50     BootEncryption.obj
 0002:00003c58       ??_C@_17CNJFBPG@?$AAk?$AAo?$AAk?$AA?$AA@ 0048fc58     BootEncryption.obj
 0002:00003c60       ??_C@_17FFBJICPL@?$AAs?$AAy?$AAr?$AA?$AA@ 0048fc60     BootEncryption.obj
 0002:00003c68       ??_C@_17KPNDCPAF@?$AAd?$AAi?$AAv?$AA?$AA@ 0048fc68     BootEncryption.obj
 0002:00003c70       ??_C@_1M@OKAHONE@?$AAa?$AAr?$AA?9?$AAS?$AAA?$AA?$AA@ 0048fc70     BootEncryption.obj
 0002:00003c7c       ??_C@_1M@FFFIGIGK@?$AAb?$AAg?$AA?9?$AAB?$AAG?$AA?$AA@ 0048fc7c     BootEncryption.obj
 0002:00003c88       ??_C@_1M@BJNKEDC@?$AAc?$AAa?$AA?9?$AAE?$AAS?$AA?$AA@ 0048fc88     BootEncryption.obj
 0002:00003c94       ??_C@_1M@CLNBBOPM@?$AAz?$AAh?$AA?9?$AAT?$AAW?$AA?$AA@ 0048fc94     BootEncryption.obj
 0002:00003ca0       ??_C@_1M@IJJHFJHA@?$AAc?$AAs?$AA?9?$AAC?$AAZ?$AA?$AA@ 0048fca0     BootEncryption.obj
 0002:00003cac       ??_C@_1M@CLPEOBGI@?$AAd?$AAa?$AA?9?$AAD?$AAK?$AA?$AA@ 0048fcac     BootEncryption.obj
 0002:00003cb8       ??_C@_1M@MCMADGCB@?$AAd?$AAe?$AA?9?$AAD?$AAE?$AA?$AA@ 0048fcb8     BootEncryption.obj
 0002:00003cc4       ??_C@_1M@OOCKEMAM@?$AAe?$AAl?$AA?9?$AAG?$AAR?$AA?$AA@ 0048fcc4     BootEncryption.obj
 0002:00003cd0       ??_C@_1M@BMHNFIME@?$AAe?$AAn?$AA?9?$AAU?$AAS?$AA?$AA@ 0048fcd0     BootEncryption.obj
 0002:00003cdc       ??_C@_1M@DDNJFGID@?$AAf?$AAi?$AA?9?$AAF?$AAI?$AA?$AA@ 0048fcdc     BootEncryption.obj
 0002:00003ce8       ??_C@_1M@GLIPPMAC@?$AAf?$AAr?$AA?9?$AAF?$AAR?$AA?$AA@ 0048fce8     BootEncryption.obj
 0002:00003cf4       ??_C@_1M@GFMCHPE@?$AAh?$AAe?$AA?9?$AAI?$AAL?$AA?$AA@ 0048fcf4     BootEncryption.obj
 0002:00003d00       ??_C@_1M@MHLPGNKM@?$AAh?$AAu?$AA?9?$AAH?$AAU?$AA?$AA@ 0048fd00     BootEncryption.obj
 0002:00003d0c       ??_C@_1M@LPDDNNPN@?$AAi?$AAs?$AA?9?$AAI?$AAS?$AA?$AA@ 0048fd0c     BootEncryption.obj
 0002:00003d18       ??_C@_1M@MADIPODN@?$AAi?$AAt?$AA?9?$AAI?$AAT?$AA?$AA@ 0048fd18     BootEncryption.obj
 0002:00003d24       ??_C@_1M@HPNHIDJI@?$AAj?$AAa?$AA?9?$AAJ?$AAP?$AA?$AA@ 0048fd24     BootEncryption.obj
 0002:00003d30       ??_C@_1M@JLOOOEGK@?$AAk?$AAo?$AA?9?$AAK?$AAR?$AA?$AA@ 0048fd30     BootEncryption.obj
 0002:00003d3c       ??_C@_1M@IHBJJGG@?$AAn?$AAl?$AA?9?$AAN?$AAL?$AA?$AA@ 0048fd3c     BootEncryption.obj
 0002:00003d48       ??_C@_1M@EANAGDL@?$AAn?$AAb?$AA?9?$AAN?$AAO?$AA?$AA@ 0048fd48     BootEncryption.obj
 0002:00003d54       ??_C@_1M@NEIEMEGP@?$AAp?$AAl?$AA?9?$AAP?$AAL?$AA?$AA@ 0048fd54     BootEncryption.obj
 0002:00003d60       ??_C@_1M@BOCFIGEP@?$AAp?$AAt?$AA?9?$AAB?$AAR?$AA?$AA@ 0048fd60     BootEncryption.obj
 0002:00003d6c       ??_C@_1M@IMPFOPBG@?$AAr?$AAo?$AA?9?$AAR?$AAO?$AA?$AA@ 0048fd6c     BootEncryption.obj
 0002:00003d78       ??_C@_1M@IDNNEJMM@?$AAr?$AAu?$AA?9?$AAR?$AAU?$AA?$AA@ 0048fd78     BootEncryption.obj
 0002:00003d84       ??_C@_1M@LILEEOGM@?$AAh?$AAr?$AA?9?$AAH?$AAR?$AA?$AA@ 0048fd84     BootEncryption.obj
 0002:00003d90       ??_C@_1M@FKIFEHPB@?$AAs?$AAk?$AA?9?$AAS?$AAK?$AA?$AA@ 0048fd90     BootEncryption.obj
 0002:00003d9c       ??_C@_1M@LJMAMNPJ@?$AAs?$AAq?$AA?9?$AAA?$AAL?$AA?$AA@ 0048fd9c     BootEncryption.obj
 0002:00003da8       ??_C@_1M@GIAKDKJK@?$AAs?$AAv?$AA?9?$AAS?$AAE?$AA?$AA@ 0048fda8     BootEncryption.obj
 0002:00003db4       ??_C@_1M@MKJKIKCL@?$AAt?$AAh?$AA?9?$AAT?$AAH?$AA?$AA@ 0048fdb4     BootEncryption.obj
 0002:00003dc0       ??_C@_1M@MFLCCMPB@?$AAt?$AAr?$AA?9?$AAT?$AAR?$AA?$AA@ 0048fdc0     BootEncryption.obj
 0002:00003dcc       ??_C@_1M@OIJHDKJN@?$AAu?$AAr?$AA?9?$AAP?$AAK?$AA?$AA@ 0048fdcc     BootEncryption.obj
 0002:00003dd8       ??_C@_1M@LHIPCIEK@?$AAi?$AAd?$AA?9?$AAI?$AAD?$AA?$AA@ 0048fdd8     BootEncryption.obj
 0002:00003de4       ??_C@_1M@MFMOBGI@?$AAu?$AAk?$AA?9?$AAU?$AAA?$AA?$AA@ 0048fde4     BootEncryption.obj
 0002:00003df0       ??_C@_1M@OBGLJIPL@?$AAb?$AAe?$AA?9?$AAB?$AAY?$AA?$AA@ 0048fdf0     BootEncryption.obj
 0002:00003dfc       ??_C@_1M@BCFAJEAD@?$AAs?$AAl?$AA?9?$AAS?$AAI?$AA?$AA@ 0048fdfc     BootEncryption.obj
 0002:00003e08       ??_C@_1M@FKFFEDDN@?$AAe?$AAt?$AA?9?$AAE?$AAE?$AA?$AA@ 0048fe08     BootEncryption.obj
 0002:00003e14       ??_C@_1M@KGKKAACI@?$AAl?$AAv?$AA?9?$AAL?$AAV?$AA?$AA@ 0048fe14     BootEncryption.obj
 0002:00003e20       ??_C@_1M@IFGBIJO@?$AAl?$AAt?$AA?9?$AAL?$AAT?$AA?$AA@ 0048fe20     BootEncryption.obj
 0002:00003e2c       ??_C@_1M@FGEAHEDM@?$AAf?$AAa?$AA?9?$AAI?$AAR?$AA?$AA@ 0048fe2c     BootEncryption.obj
 0002:00003e38       ??_C@_1M@KBMAIBFN@?$AAv?$AAi?$AA?9?$AAV?$AAN?$AA?$AA@ 0048fe38     BootEncryption.obj
 0002:00003e44       ??_C@_1M@GPCBKDJK@?$AAh?$AAy?$AA?9?$AAA?$AAM?$AA?$AA@ 0048fe44     BootEncryption.obj
 0002:00003e50       ??_C@_1BG@BECMDDJB@?$AAa?$AAz?$AA?9?$AAA?$AAZ?$AA?9?$AAL?$AAa?$AAt?$AAn?$AA?$AA@ 0048fe50     BootEncryption.obj
 0002:00003e68       ??_C@_1M@MAOFCAEA@?$AAe?$AAu?$AA?9?$AAE?$AAS?$AA?$AA@ 0048fe68     BootEncryption.obj
 0002:00003e74       ??_C@_1M@IGHABKPI@?$AAm?$AAk?$AA?9?$AAM?$AAK?$AA?$AA@ 0048fe74     BootEncryption.obj
 0002:00003e80       ??_C@_1M@IAIGNEJG@?$AAt?$AAn?$AA?9?$AAZ?$AAA?$AA?$AA@ 0048fe80     BootEncryption.obj
 0002:00003e8c       ??_C@_1M@IIJCOJFA@?$AAx?$AAh?$AA?9?$AAZ?$AAA?$AA?$AA@ 0048fe8c     BootEncryption.obj
 0002:00003e98       ??_C@_1M@LGPJHNJH@?$AAz?$AAu?$AA?9?$AAZ?$AAA?$AA?$AA@ 0048fe98     BootEncryption.obj
 0002:00003ea4       ??_C@_1M@HOKAOIO@?$AAa?$AAf?$AA?9?$AAZ?$AAA?$AA?$AA@ 0048fea4     BootEncryption.obj
 0002:00003eb0       ??_C@_1M@DPCLHLIE@?$AAk?$AAa?$AA?9?$AAG?$AAE?$AA?$AA@ 0048feb0     BootEncryption.obj
 0002:00003ebc       ??_C@_1M@BLKMHJBI@?$AAf?$AAo?$AA?9?$AAF?$AAO?$AA?$AA@ 0048febc     BootEncryption.obj
 0002:00003ec8       ??_C@_1M@LGGJAPPB@?$AAh?$AAi?$AA?9?$AAI?$AAN?$AA?$AA@ 0048fec8     BootEncryption.obj
 0002:00003ed4       ??_C@_1M@FIKPIHFE@?$AAm?$AAt?$AA?9?$AAM?$AAT?$AA?$AA@ 0048fed4     BootEncryption.obj
 0002:00003ee0       ??_C@_1M@HEGGPBFA@?$AAs?$AAe?$AA?9?$AAN?$AAO?$AA?$AA@ 0048fee0     BootEncryption.obj
 0002:00003eec       ??_C@_1M@EIBJEEPA@?$AAm?$AAs?$AA?9?$AAM?$AAY?$AA?$AA@ 0048feec     BootEncryption.obj
 0002:00003ef8       ??_C@_1M@FHLBGMPP@?$AAk?$AAk?$AA?9?$AAK?$AAZ?$AA?$AA@ 0048fef8     BootEncryption.obj
 0002:00003f04       ??_C@_1M@NGJJLCGI@?$AAk?$AAy?$AA?9?$AAK?$AAG?$AA?$AA@ 0048ff04     BootEncryption.obj
 0002:00003f10       ??_C@_1M@GIENNBFC@?$AAs?$AAw?$AA?9?$AAK?$AAE?$AA?$AA@ 0048ff10     BootEncryption.obj
 0002:00003f1c       ??_C@_1BG@NDGMJIMJ@?$AAu?$AAz?$AA?9?$AAU?$AAZ?$AA?9?$AAL?$AAa?$AAt?$AAn?$AA?$AA@ 0048ff1c     BootEncryption.obj
 0002:00003f34       ??_C@_1M@IDCCIHBC@?$AAt?$AAt?$AA?9?$AAR?$AAU?$AA?$AA@ 0048ff34     BootEncryption.obj
 0002:00003f40       ??_C@_1M@LOICPMOJ@?$AAb?$AAn?$AA?9?$AAI?$AAN?$AA?$AA@ 0048ff40     BootEncryption.obj
 0002:00003f4c       ??_C@_1M@KPKKNEAH@?$AAp?$AAa?$AA?9?$AAI?$AAN?$AA?$AA@ 0048ff4c     BootEncryption.obj
 0002:00003f58       ??_C@_1M@PJGPPBOG@?$AAg?$AAu?$AA?9?$AAI?$AAN?$AA?$AA@ 0048ff58     BootEncryption.obj
 0002:00003f64       ??_C@_1M@KMKMOPHI@?$AAt?$AAa?$AA?9?$AAI?$AAN?$AA?$AA@ 0048ff64     BootEncryption.obj
 0002:00003f70       ??_C@_1M@KFEHEPAC@?$AAt?$AAe?$AA?9?$AAI?$AAN?$AA?$AA@ 0048ff70     BootEncryption.obj
 0002:00003f7c       ??_C@_1M@CDCLMGHI@?$AAk?$AAn?$AA?9?$AAI?$AAN?$AA?$AA@ 0048ff7c     BootEncryption.obj
 0002:00003f88       ??_C@_1M@MIODLDKF@?$AAm?$AAl?$AA?9?$AAI?$AAN?$AA?$AA@ 0048ff88     BootEncryption.obj
 0002:00003f94       ??_C@_1M@PBIEACPO@?$AAm?$AAr?$AA?9?$AAI?$AAN?$AA?$AA@ 0048ff94     BootEncryption.obj
 0002:00003fa0       ??_C@_1M@NIDEAGPH@?$AAs?$AAa?$AA?9?$AAI?$AAN?$AA?$AA@ 0048ffa0     BootEncryption.obj
 0002:00003fac       ??_C@_1M@FHIHCBIO@?$AAm?$AAn?$AA?9?$AAM?$AAN?$AA?$AA@ 0048ffac     BootEncryption.obj
 0002:00003fb8       ??_C@_1M@JAIJPENP@?$AAc?$AAy?$AA?9?$AAG?$AAB?$AA?$AA@ 0048ffb8     BootEncryption.obj
 0002:00003fc4       ??_C@_1M@PHGFBEPN@?$AAg?$AAl?$AA?9?$AAE?$AAS?$AA?$AA@ 0048ffc4     BootEncryption.obj
 0002:00003fd0       ??_C@_1O@KPIPDNCP@?$AAk?$AAo?$AAk?$AA?9?$AAI?$AAN?$AA?$AA@ 0048ffd0     BootEncryption.obj
 0002:00003fe0       ??_C@_1O@KNHJLDJA@?$AAs?$AAy?$AAr?$AA?9?$AAS?$AAY?$AA?$AA@ 0048ffe0     BootEncryption.obj
 0002:00003ff0       ??_C@_1O@MKEKBLAH@?$AAd?$AAi?$AAv?$AA?9?$AAM?$AAV?$AA?$AA@ 0048fff0     BootEncryption.obj
 0002:00004000       ??_C@_1O@OHDCKDDF@?$AAq?$AAu?$AAz?$AA?9?$AAB?$AAO?$AA?$AA@ 00490000     BootEncryption.obj
 0002:00004010       ??_C@_1M@LEPJNLFD@?$AAn?$AAs?$AA?9?$AAZ?$AAA?$AA?$AA@ 00490010     BootEncryption.obj
 0002:0000401c       ??_C@_1M@OMLEIIJB@?$AAm?$AAi?$AA?9?$AAN?$AAZ?$AA?$AA@ 0049001c     BootEncryption.obj
 0002:00004028       ??_C@_1M@PMPEAILG@?$AAa?$AAr?$AA?9?$AAI?$AAQ?$AA?$AA@ 00490028     BootEncryption.obj
 0002:00004034       ??_C@_1M@BIBDDEMK@?$AAz?$AAh?$AA?9?$AAC?$AAN?$AA?$AA@ 00490034     BootEncryption.obj
 0002:00004040       ??_C@_1M@CNKPNOEE@?$AAd?$AAe?$AA?9?$AAC?$AAH?$AA?$AA@ 00490040     BootEncryption.obj
 0002:0000404c       ??_C@_1M@LKMGMLKO@?$AAe?$AAn?$AA?9?$AAG?$AAB?$AA?$AA@ 0049004c     BootEncryption.obj
 0002:00004058       ??_C@_1M@PGKJFFGL@?$AAe?$AAs?$AA?9?$AAM?$AAX?$AA?$AA@ 00490058     BootEncryption.obj
 0002:00004064       ??_C@_1M@DNNANBDC@?$AAf?$AAr?$AA?9?$AAB?$AAE?$AA?$AA@ 00490064     BootEncryption.obj
 0002:00004070       ??_C@_1M@HLGMDFHM@?$AAi?$AAt?$AA?9?$AAC?$AAH?$AA?$AA@ 00490070     BootEncryption.obj
 0002:0000407c       ??_C@_1M@CLLBGJH@?$AAn?$AAl?$AA?9?$AAB?$AAE?$AA?$AA@ 0049007c     BootEncryption.obj
 0002:00004088       ??_C@_1M@BODBOGLF@?$AAn?$AAn?$AA?9?$AAN?$AAO?$AA?$AA@ 00490088     BootEncryption.obj
 0002:00004094       ??_C@_1M@HFFAHKAD@?$AAp?$AAt?$AA?9?$AAP?$AAT?$AA?$AA@ 00490094     BootEncryption.obj
 0002:000040a0       ??_C@_1BG@LNOAKHIE@?$AAs?$AAr?$AA?9?$AAS?$AAP?$AA?9?$AAL?$AAa?$AAt?$AAn?$AA?$AA@ 004900a0     BootEncryption.obj
 0002:000040b8       ??_C@_1M@HBMHBGAK@?$AAs?$AAv?$AA?9?$AAF?$AAI?$AA?$AA@ 004900b8     BootEncryption.obj
 0002:000040c4       ??_C@_1BG@DGCJGJBE@?$AAa?$AAz?$AA?9?$AAA?$AAZ?$AA?9?$AAC?$AAy?$AAr?$AAl?$AA?$AA@ 004900c4     BootEncryption.obj
 0002:000040dc       ??_C@_1M@KEJDAAHB@?$AAs?$AAe?$AA?9?$AAS?$AAE?$AA?$AA@ 004900dc     BootEncryption.obj
 0002:000040e8       ??_C@_1M@HEIBJJAD@?$AAm?$AAs?$AA?9?$AAB?$AAN?$AA?$AA@ 004900e8     BootEncryption.obj
 0002:000040f4       ??_C@_1BG@PBGJMCEM@?$AAu?$AAz?$AA?9?$AAU?$AAZ?$AA?9?$AAC?$AAy?$AAr?$AAl?$AA?$AA@ 004900f4     BootEncryption.obj
 0002:0000410c       ??_C@_1O@LAOBCMDF@?$AAq?$AAu?$AAz?$AA?9?$AAE?$AAC?$AA?$AA@ 0049010c     BootEncryption.obj
 0002:0000411c       ??_C@_1M@POEEMAIO@?$AAa?$AAr?$AA?9?$AAE?$AAG?$AA?$AA@ 0049011c     BootEncryption.obj
 0002:00004128       ??_C@_1M@EFAKDEDL@?$AAz?$AAh?$AA?9?$AAH?$AAK?$AA?$AA@ 00490128     BootEncryption.obj
 0002:00004134       ??_C@_1M@HKKIJHGI@?$AAd?$AAe?$AA?9?$AAA?$AAT?$AA?$AA@ 00490134     BootEncryption.obj
 0002:00004140       ??_C@_1M@KBFBEHJF@?$AAe?$AAn?$AA?9?$AAA?$AAU?$AA?$AA@ 00490140     BootEncryption.obj
 0002:0000414c       ??_C@_1M@MNPLFAAH@?$AAe?$AAs?$AA?9?$AAE?$AAS?$AA?$AA@ 0049014c     BootEncryption.obj
 0002:00004158       ??_C@_1M@HJOOJFMA@?$AAf?$AAr?$AA?9?$AAC?$AAA?$AA?$AA@ 00490158     BootEncryption.obj
 0002:00004164       ??_C@_1BG@JPOFPNAB@?$AAs?$AAr?$AA?9?$AAS?$AAP?$AA?9?$AAC?$AAy?$AAr?$AAl?$AA?$AA@ 00490164     BootEncryption.obj
 0002:0000417c       ??_C@_1M@LNFOCMOB@?$AAs?$AAe?$AA?9?$AAF?$AAI?$AA?$AA@ 0049017c     BootEncryption.obj
 0002:00004188       ??_C@_1O@MGJBOAMB@?$AAq?$AAu?$AAz?$AA?9?$AAP?$AAE?$AA?$AA@ 00490188     BootEncryption.obj
 0002:00004198       ??_C@_1M@GJINLBOK@?$AAa?$AAr?$AA?9?$AAL?$AAY?$AA?$AA@ 00490198     BootEncryption.obj
 0002:000041a4       ??_C@_1M@GGMNHJNL@?$AAz?$AAh?$AA?9?$AAS?$AAG?$AA?$AA@ 004901a4     BootEncryption.obj
 0002:000041b0       ??_C@_1M@HOIKODND@?$AAd?$AAe?$AA?9?$AAL?$AAU?$AA?$AA@ 004901b0     BootEncryption.obj
 0002:000041bc       ??_C@_1M@DDOCCGFG@?$AAe?$AAn?$AA?9?$AAC?$AAA?$AA?$AA@ 004901bc     BootEncryption.obj
 0002:000041c8       ??_C@_1M@BNOEMJLF@?$AAe?$AAs?$AA?9?$AAG?$AAT?$AA?$AA@ 004901c8     BootEncryption.obj
 0002:000041d4       ??_C@_1M@EOGNKEK@?$AAf?$AAr?$AA?9?$AAC?$AAH?$AA?$AA@ 004901d4     BootEncryption.obj
 0002:000041e0       ??_C@_1M@FLIDJFHL@?$AAh?$AAr?$AA?9?$AAB?$AAA?$AA?$AA@ 004901e0     BootEncryption.obj
 0002:000041ec       ??_C@_1O@FMCELNAJ@?$AAs?$AAm?$AAj?$AA?9?$AAN?$AAO?$AA?$AA@ 004901ec     BootEncryption.obj
 0002:000041fc       ??_C@_1M@JHGLJMGJ@?$AAa?$AAr?$AA?9?$AAD?$AAZ?$AA?$AA@ 004901fc     BootEncryption.obj
 0002:00004208       ??_C@_1M@JKKFDCNP@?$AAz?$AAh?$AA?9?$AAM?$AAO?$AA?$AA@ 00490208     BootEncryption.obj
 0002:00004214       ??_C@_1M@GEEFALPE@?$AAd?$AAe?$AA?9?$AAL?$AAI?$AA?$AA@ 00490214     BootEncryption.obj
 0002:00004220       ??_C@_1M@IGEOFBG@?$AAe?$AAn?$AA?9?$AAN?$AAZ?$AA?$AA@ 00490220     BootEncryption.obj
 0002:0000422c       ??_C@_1M@KDBONEHP@?$AAe?$AAs?$AA?9?$AAC?$AAR?$AA?$AA@ 0049022c     BootEncryption.obj
 0002:00004238       ??_C@_1M@FHMDOHNN@?$AAf?$AAr?$AA?9?$AAL?$AAU?$AA?$AA@ 00490238     BootEncryption.obj
 0002:00004244       ??_C@_1BG@NFKKMAFG@?$AAb?$AAs?$AA?9?$AAB?$AAA?$AA?9?$AAL?$AAa?$AAt?$AAn?$AA?$AA@ 00490244     BootEncryption.obj
 0002:0000425c       ??_C@_1O@IMNBEMCI@?$AAs?$AAm?$AAj?$AA?9?$AAS?$AAE?$AA?$AA@ 0049025c     BootEncryption.obj
 0002:0000426c       ??_C@_1M@DHHMBNDP@?$AAa?$AAr?$AA?9?$AAM?$AAA?$AA?$AA@ 0049026c     BootEncryption.obj
 0002:00004278       ??_C@_1M@BNBLJCGH@?$AAe?$AAn?$AA?9?$AAI?$AAE?$AA?$AA@ 00490278     BootEncryption.obj
 0002:00004284       ??_C@_1M@GEPAFMDL@?$AAe?$AAs?$AA?9?$AAP?$AAA?$AA?$AA@ 00490284     BootEncryption.obj
 0002:00004290       ??_C@_1M@OJONDMDL@?$AAf?$AAr?$AA?9?$AAM?$AAC?$AA?$AA@ 00490290     BootEncryption.obj
 0002:0000429c       ??_C@_1BG@OBCNFJB@?$AAs?$AAr?$AA?9?$AAB?$AAA?$AA?9?$AAL?$AAa?$AAt?$AAn?$AA?$AA@ 0049029c     BootEncryption.obj
 0002:000042b4       ??_C@_1O@KEMEEGPO@?$AAs?$AAm?$AAa?$AA?9?$AAN?$AAO?$AA?$AA@ 004902b4     BootEncryption.obj
 0002:000042c4       ??_C@_1M@ELMGFODK@?$AAa?$AAr?$AA?9?$AAT?$AAN?$AA?$AA@ 004902c4     BootEncryption.obj
 0002:000042d0       ??_C@_1M@BHDLHFAF@?$AAe?$AAn?$AA?9?$AAZ?$AAA?$AA?$AA@ 004902d0     BootEncryption.obj
 0002:000042dc       ??_C@_1M@BMGIGLIF@?$AAe?$AAs?$AA?9?$AAD?$AAO?$AA?$AA@ 004902dc     BootEncryption.obj
 0002:000042e8       ??_C@_1BG@CMBHIPBE@?$AAs?$AAr?$AA?9?$AAB?$AAA?$AA?9?$AAC?$AAy?$AAr?$AAl?$AA?$AA@ 004902e8     BootEncryption.obj
 0002:00004300       ??_C@_1O@HEDBLHNP@?$AAs?$AAm?$AAa?$AA?9?$AAS?$AAE?$AA?$AA@ 00490300     BootEncryption.obj
 0002:00004310       ??_C@_1M@DAGCADIM@?$AAa?$AAr?$AA?9?$AAO?$AAM?$AA?$AA@ 00490310     BootEncryption.obj
 0002:0000431c       ??_C@_1M@FODLMICG@?$AAe?$AAn?$AA?9?$AAJ?$AAM?$AA?$AA@ 0049031c     BootEncryption.obj
 0002:00004328       ??_C@_1M@DNMLCIHB@?$AAe?$AAs?$AA?9?$AAV?$AAE?$AA?$AA@ 00490328     BootEncryption.obj
 0002:00004334       ??_C@_1O@EOKHMKJK@?$AAs?$AAm?$AAs?$AA?9?$AAF?$AAI?$AA?$AA@ 00490334     BootEncryption.obj
 0002:00004344       ??_C@_1M@CAFJMKOF@?$AAa?$AAr?$AA?9?$AAY?$AAE?$AA?$AA@ 00490344     BootEncryption.obj
 0002:00004350       ??_C@_1M@CBFHIJLI@?$AAe?$AAn?$AA?9?$AAC?$AAB?$AA?$AA@ 00490350     BootEncryption.obj
 0002:0000435c       ??_C@_1M@BGNFLDN@?$AAe?$AAs?$AA?9?$AAC?$AAO?$AA?$AA@ 0049035c     BootEncryption.obj
 0002:00004368       ??_C@_1O@JMPHMAMC@?$AAs?$AAm?$AAn?$AA?9?$AAF?$AAI?$AA?$AA@ 00490368     BootEncryption.obj
 0002:00004378       ??_C@_1M@JLANABKE@?$AAa?$AAr?$AA?9?$AAS?$AAY?$AA?$AA@ 00490378     BootEncryption.obj
 0002:00004384       ??_C@_1M@HPKGCFGN@?$AAe?$AAn?$AA?9?$AAB?$AAZ?$AA?$AA@ 00490384     BootEncryption.obj
 0002:00004390       ??_C@_1M@OLJCMLGM@?$AAe?$AAs?$AA?9?$AAP?$AAE?$AA?$AA@ 00490390     BootEncryption.obj
 0002:0000439c       ??_C@_1M@MKKGFKLE@?$AAa?$AAr?$AA?9?$AAJ?$AAO?$AA?$AA@ 0049039c     BootEncryption.obj
 0002:000043a8       ??_C@_1M@EKPGLDNI@?$AAe?$AAn?$AA?9?$AAT?$AAT?$AA?$AA@ 004903a8     BootEncryption.obj
 0002:000043b4       ??_C@_1M@OONGHFHE@?$AAe?$AAs?$AA?9?$AAA?$AAR?$AA?$AA@ 004903b4     BootEncryption.obj
 0002:000043c0       ??_C@_1M@OOJFGBHE@?$AAa?$AAr?$AA?9?$AAL?$AAB?$AA?$AA@ 004903c0     BootEncryption.obj
 0002:000043cc       ??_C@_1M@GCEJHNEG@?$AAe?$AAn?$AA?9?$AAZ?$AAW?$AA?$AA@ 004903cc     BootEncryption.obj
 0002:000043d8       ??_C@_1M@JNOCAHJI@?$AAe?$AAs?$AA?9?$AAE?$AAC?$AA?$AA@ 004903d8     BootEncryption.obj
 0002:000043e4       ??_C@_1M@JEFHPGGB@?$AAa?$AAr?$AA?9?$AAK?$AAW?$AA?$AA@ 004903e4     BootEncryption.obj
 0002:000043f0       ??_C@_1M@MLKIBJOJ@?$AAe?$AAn?$AA?9?$AAP?$AAH?$AA?$AA@ 004903f0     BootEncryption.obj
 0002:000043fc       ??_C@_1M@BDNIPEND@?$AAe?$AAs?$AA?9?$AAC?$AAL?$AA?$AA@ 004903fc     BootEncryption.obj
 0002:00004408       ??_C@_1M@MPNMEKBD@?$AAa?$AAr?$AA?9?$AAA?$AAE?$AA?$AA@ 00490408     BootEncryption.obj
 0002:00004414       ??_C@_1M@KBJALCPI@?$AAe?$AAs?$AA?9?$AAU?$AAY?$AA?$AA@ 00490414     BootEncryption.obj
 0002:00004420       ??_C@_1M@LLCCOAGA@?$AAa?$AAr?$AA?9?$AAB?$AAH?$AA?$AA@ 00490420     BootEncryption.obj
 0002:0000442c       ??_C@_1M@PBFNCDEL@?$AAe?$AAs?$AA?9?$AAP?$AAY?$AA?$AA@ 0049042c     BootEncryption.obj
 0002:00004438       ??_C@_1M@EDGINPNP@?$AAa?$AAr?$AA?9?$AAQ?$AAA?$AA?$AA@ 00490438     BootEncryption.obj
 0002:00004444       ??_C@_1M@MKDBIIJI@?$AAe?$AAs?$AA?9?$AAB?$AAO?$AA?$AA@ 00490444     BootEncryption.obj
 0002:00004450       ??_C@_1M@CPKKEBLD@?$AAe?$AAs?$AA?9?$AAS?$AAV?$AA?$AA@ 00490450     BootEncryption.obj
 0002:0000445c       ??_C@_1M@NDBGMMJL@?$AAe?$AAs?$AA?9?$AAH?$AAN?$AA?$AA@ 0049045c     BootEncryption.obj
 0002:00004468       ??_C@_1M@JIJIBHDP@?$AAe?$AAs?$AA?9?$AAN?$AAI?$AA?$AA@ 00490468     BootEncryption.obj
 0002:00004474       ??_C@_1M@CGFMKEEK@?$AAe?$AAs?$AA?9?$AAP?$AAR?$AA?$AA@ 00490474     BootEncryption.obj
 0002:00004480       ??_C@_1O@ICJHKIIK@?$AAz?$AAh?$AA?9?$AAC?$AAH?$AAT?$AA?$AA@ 00490480     BootEncryption.obj
 0002:00004490       ??_C@_15CLNEJCE@?$AAs?$AAr?$AA?$AA@ 00490490     BootEncryption.obj
 0002:00004498       ??_C@_1M@KAHEKEIG@?$AAa?$AAf?$AA?9?$AAz?$AAa?$AA?$AA@ 00490498     BootEncryption.obj
 0002:000044a4       ??_C@_1M@GIECOABL@?$AAa?$AAr?$AA?9?$AAa?$AAe?$AA?$AA@ 004904a4     BootEncryption.obj
 0002:000044b0       ??_C@_1M@BMLMEKGI@?$AAa?$AAr?$AA?9?$AAb?$AAh?$AA?$AA@ 004904b0     BootEncryption.obj
 0002:000044bc       ??_C@_1M@DAPFDGGB@?$AAa?$AAr?$AA?9?$AAd?$AAz?$AA?$AA@ 004904bc     BootEncryption.obj
 0002:000044c8       ??_C@_1M@FJNKGKIG@?$AAa?$AAr?$AA?9?$AAe?$AAg?$AA?$AA@ 004904c8     BootEncryption.obj
 0002:000044d4       ??_C@_1M@FLGKKCLO@?$AAa?$AAr?$AA?9?$AAi?$AAq?$AA?$AA@ 004904d4     BootEncryption.obj
 0002:000044e0       ??_C@_1M@GNDIPALM@?$AAa?$AAr?$AA?9?$AAj?$AAo?$AA?$AA@ 004904e0     BootEncryption.obj
 0002:000044ec       ??_C@_1M@DDMJFMGJ@?$AAa?$AAr?$AA?9?$AAk?$AAw?$AA?$AA@ 004904ec     BootEncryption.obj
 0002:000044f8       ??_C@_1M@EJALMLHM@?$AAa?$AAr?$AA?9?$AAl?$AAb?$AA?$AA@ 004904f8     BootEncryption.obj
 0002:00004504       ??_C@_1M@MOBDBLOC@?$AAa?$AAr?$AA?9?$AAl?$AAy?$AA?$AA@ 00490504     BootEncryption.obj
 0002:00004510       ??_C@_1M@JAOCLHDH@?$AAa?$AAr?$AA?9?$AAm?$AAa?$AA?$AA@ 00490510     BootEncryption.obj
 0002:0000451c       ??_C@_1M@JHPMKJIE@?$AAa?$AAr?$AA?9?$AAo?$AAm?$AA?$AA@ 0049051c     BootEncryption.obj
 0002:00004528       ??_C@_1M@OEPGHFNH@?$AAa?$AAr?$AA?9?$AAq?$AAa?$AA?$AA@ 00490528     BootEncryption.obj
 0002:00004534       ??_C@_1M@KJDONENM@?$AAa?$AAr?$AA?9?$AAs?$AAa?$AA?$AA@ 00490534     BootEncryption.obj
 0002:00004540       ??_C@_1M@DMJDKLKM@?$AAa?$AAr?$AA?9?$AAs?$AAy?$AA?$AA@ 00490540     BootEncryption.obj
 0002:0000454c       ??_C@_1M@OMFIPEDC@?$AAa?$AAr?$AA?9?$AAt?$AAn?$AA?$AA@ 0049054c     BootEncryption.obj
 0002:00004558       ??_C@_1M@IHMHGAON@?$AAa?$AAr?$AA?9?$AAy?$AAe?$AA?$AA@ 00490558     BootEncryption.obj
 0002:00004564       ??_C@_1BG@KDCPGJGB@?$AAa?$AAz?$AA?9?$AAa?$AAz?$AA?9?$AAc?$AAy?$AAr?$AAl?$AA?$AA@ 00490564     BootEncryption.obj
 0002:0000457c       ??_C@_1BG@IBCKDDOE@?$AAa?$AAz?$AA?9?$AAa?$AAz?$AA?9?$AAl?$AAa?$AAt?$AAn?$AA?$AA@ 0049057c     BootEncryption.obj
 0002:00004594       ??_C@_1M@EGPFDCPD@?$AAb?$AAe?$AA?9?$AAb?$AAy?$AA?$AA@ 00490594     BootEncryption.obj
 0002:000045a0       ??_C@_1M@PCMGMCGC@?$AAb?$AAg?$AA?9?$AAb?$AAg?$AA?$AA@ 004905a0     BootEncryption.obj
 0002:000045ac       ??_C@_1M@BJBMFGOB@?$AAb?$AAn?$AA?9?$AAi?$AAn?$AA?$AA@ 004905ac     BootEncryption.obj
 0002:000045b8       ??_C@_1BG@EAKMMACD@?$AAb?$AAs?$AA?9?$AAb?$AAa?$AA?9?$AAl?$AAa?$AAt?$AAn?$AA?$AA@ 004905b8     BootEncryption.obj
 0002:000045d0       ??_C@_1M@KGADAODK@?$AAc?$AAa?$AA?9?$AAe?$AAs?$AA?$AA@ 004905d0     BootEncryption.obj
 0002:000045dc       ??_C@_1M@COAJPDHI@?$AAc?$AAs?$AA?9?$AAc?$AAz?$AA?$AA@ 004905dc     BootEncryption.obj
 0002:000045e8       ??_C@_1M@DHBHFONH@?$AAc?$AAy?$AA?9?$AAg?$AAb?$AA?$AA@ 004905e8     BootEncryption.obj
 0002:000045f4       ??_C@_1M@IMGKELGA@?$AAd?$AAa?$AA?9?$AAd?$AAk?$AA?$AA@ 004905f4     BootEncryption.obj
 0002:00004600       ??_C@_1M@NNDGDNGA@?$AAd?$AAe?$AA?9?$AAa?$AAt?$AA?$AA@ 00490600     BootEncryption.obj
 0002:0000460c       ??_C@_1M@IKDBHEEM@?$AAd?$AAe?$AA?9?$AAc?$AAh?$AA?$AA@ 0049060c     BootEncryption.obj
 0002:00004618       ??_C@_1M@GFFOJMCJ@?$AAd?$AAe?$AA?9?$AAd?$AAe?$AA?$AA@ 00490618     BootEncryption.obj
 0002:00004624       ??_C@_1M@MDNLKBPM@?$AAd?$AAe?$AA?9?$AAl?$AAi?$AA?$AA@ 00490624     BootEncryption.obj
 0002:00004630       ??_C@_1M@NJBEEJNL@?$AAd?$AAe?$AA?9?$AAl?$AAu?$AA?$AA@ 00490630     BootEncryption.obj
 0002:0000463c       ??_C@_1O@GNNELBAP@?$AAd?$AAi?$AAv?$AA?9?$AAm?$AAv?$AA?$AA@ 0049063c     BootEncryption.obj
 0002:0000464c       ??_C@_1M@EJLEOGAE@?$AAe?$AAl?$AA?9?$AAg?$AAr?$AA?$AA@ 0049064c     BootEncryption.obj
 0002:00004658       ??_C@_1M@GMPONJN@?$AAe?$AAn?$AA?9?$AAa?$AAu?$AA?$AA@ 00490658     BootEncryption.obj
 0002:00004664       ??_C@_1M@NIDIIPGF@?$AAe?$AAn?$AA?9?$AAb?$AAz?$AA?$AA@ 00490664     BootEncryption.obj
 0002:00004670       ??_C@_1M@JEHMIMFO@?$AAe?$AAn?$AA?9?$AAc?$AAa?$AA?$AA@ 00490670     BootEncryption.obj
 0002:0000467c       ??_C@_1M@IGMJCDLA@?$AAe?$AAn?$AA?9?$AAc?$AAb?$AA?$AA@ 0049067c     BootEncryption.obj
 0002:00004688       ??_C@_1M@BNFIGBKG@?$AAe?$AAn?$AA?9?$AAg?$AAb?$AA?$AA@ 00490688     BootEncryption.obj
 0002:00004694       ??_C@_1M@LKIFDIGP@?$AAe?$AAn?$AA?9?$AAi?$AAe?$AA?$AA@ 00490694     BootEncryption.obj
 0002:000046a0       ??_C@_1M@PJKFGCCO@?$AAe?$AAn?$AA?9?$AAj?$AAm?$AA?$AA@ 004906a0     BootEncryption.obj
 0002:000046ac       ??_C@_1M@KPPKEPBO@?$AAe?$AAn?$AA?9?$AAn?$AAz?$AA?$AA@ 004906ac     BootEncryption.obj
 0002:000046b8       ??_C@_1M@GMDGLDOB@?$AAe?$AAn?$AA?9?$AAp?$AAh?$AA?$AA@ 004906b8     BootEncryption.obj
 0002:000046c4       ??_C@_1M@ONGIBJNA@?$AAe?$AAn?$AA?9?$AAt?$AAt?$AA?$AA@ 004906c4     BootEncryption.obj
 0002:000046d0       ??_C@_1M@LLODPCMM@?$AAe?$AAn?$AA?9?$AAu?$AAs?$AA?$AA@ 004906d0     BootEncryption.obj
 0002:000046dc       ??_C@_1M@LAKFNPAN@?$AAe?$AAn?$AA?9?$AAz?$AAa?$AA?$AA@ 004906dc     BootEncryption.obj
 0002:000046e8       ??_C@_1M@MFNHNHEO@?$AAe?$AAn?$AA?9?$AAz?$AAw?$AA?$AA@ 004906e8     BootEncryption.obj
 0002:000046f4       ??_C@_1M@EJEINPHM@?$AAe?$AAs?$AA?9?$AAa?$AAr?$AA?$AA@ 004906f4     BootEncryption.obj
 0002:00004700       ??_C@_1M@GNKPCCJA@?$AAe?$AAs?$AA?9?$AAb?$AAo?$AA?$AA@ 00490700     BootEncryption.obj
 0002:0000470c       ??_C@_1M@LEEGFONL@?$AAe?$AAs?$AA?9?$AAc?$AAl?$AA?$AA@ 0049070c     BootEncryption.obj
 0002:00004718       ??_C@_1M@KGPDPBDF@?$AAe?$AAs?$AA?9?$AAc?$AAo?$AA?$AA@ 00490718     BootEncryption.obj
 0002:00004724       ??_C@_1M@EIAHOHH@?$AAe?$AAs?$AA?9?$AAc?$AAr?$AA?$AA@ 00490724     BootEncryption.obj
 0002:00004730       ??_C@_1M@LLPGMBIN@?$AAe?$AAs?$AA?9?$AAd?$AAo?$AA?$AA@ 00490730     BootEncryption.obj
 0002:0000473c       ??_C@_1M@DKHMKNJA@?$AAe?$AAs?$AA?9?$AAe?$AAc?$AA?$AA@ 0049073c     BootEncryption.obj
 0002:00004748       ??_C@_1M@GKGFPKAP@?$AAe?$AAs?$AA?9?$AAe?$AAs?$AA?$AA@ 00490748     BootEncryption.obj
 0002:00004754       ??_C@_1M@LKHKGDLN@?$AAe?$AAs?$AA?9?$AAg?$AAt?$AA?$AA@ 00490754     BootEncryption.obj
 0002:00004760       ??_C@_1M@HEIIGGJD@?$AAe?$AAs?$AA?9?$AAh?$AAn?$AA?$AA@ 00490760     BootEncryption.obj
 0002:0000476c       ??_C@_1M@FBDHPPGD@?$AAe?$AAs?$AA?9?$AAm?$AAx?$AA?$AA@ 0049076c     BootEncryption.obj
 0002:00004778       ??_C@_1M@DPAGLNDH@?$AAe?$AAs?$AA?9?$AAn?$AAi?$AA?$AA@ 00490778     BootEncryption.obj
 0002:00004784       ??_C@_1M@MDGOPGDD@?$AAe?$AAs?$AA?9?$AAp?$AAa?$AA?$AA@ 00490784     BootEncryption.obj
 0002:00004790       ??_C@_1M@EMAMGBGE@?$AAe?$AAs?$AA?9?$AAp?$AAe?$AA?$AA@ 00490790     BootEncryption.obj
 0002:0000479c       ??_C@_1M@IBMCAOEC@?$AAe?$AAs?$AA?9?$AAp?$AAr?$AA?$AA@ 0049079c     BootEncryption.obj
 0002:000047a8       ??_C@_1M@FGMDIJED@?$AAe?$AAs?$AA?9?$AAp?$AAy?$AA?$AA@ 004907a8     BootEncryption.obj
 0002:000047b4       ??_C@_1M@IIDEOLLL@?$AAe?$AAs?$AA?9?$AAs?$AAv?$AA?$AA@ 004907b4     BootEncryption.obj
 0002:000047c0       ??_C@_1M@GAOBIPA@?$AAe?$AAs?$AA?9?$AAu?$AAy?$AA?$AA@ 004907c0     BootEncryption.obj
 0002:000047cc       ??_C@_1M@JKFFICHJ@?$AAe?$AAs?$AA?9?$AAv?$AAe?$AA?$AA@ 004907cc     BootEncryption.obj
 0002:000047d8       ??_C@_1M@PNMLOJDF@?$AAe?$AAt?$AA?9?$AAe?$AAe?$AA?$AA@ 004907d8     BootEncryption.obj
 0002:000047e4       ??_C@_1M@GHHLIKEI@?$AAe?$AAu?$AA?9?$AAe?$AAs?$AA?$AA@ 004907e4     BootEncryption.obj
 0002:000047f0       ??_C@_1M@PBNONODE@?$AAf?$AAa?$AA?9?$AAi?$AAr?$AA?$AA@ 004907f0     BootEncryption.obj
 0002:000047fc       ??_C@_1M@JEEHPMIL@?$AAf?$AAi?$AA?9?$AAf?$AAi?$AA?$AA@ 004907fc     BootEncryption.obj
 0002:00004808       ??_C@_1M@LMDCNDBA@?$AAf?$AAo?$AA?9?$AAf?$AAo?$AA?$AA@ 00490808     BootEncryption.obj
 0002:00004814       ??_C@_1M@JKEOHLDK@?$AAf?$AAr?$AA?9?$AAb?$AAe?$AA?$AA@ 00490814     BootEncryption.obj
 0002:00004820       ??_C@_1M@NOHADPMI@?$AAf?$AAr?$AA?9?$AAc?$AAa?$AA?$AA@ 00490820     BootEncryption.obj
 0002:0000482c       ??_C@_1M@KDHIHAEC@?$AAf?$AAr?$AA?9?$AAc?$AAh?$AA?$AA@ 0049082c     BootEncryption.obj
 0002:00004838       ??_C@_1M@MMBBFGAK@?$AAf?$AAr?$AA?9?$AAf?$AAr?$AA?$AA@ 00490838     BootEncryption.obj
 0002:00004844       ??_C@_1M@PAFNENNF@?$AAf?$AAr?$AA?9?$AAl?$AAu?$AA?$AA@ 00490844     BootEncryption.obj
 0002:00004850       ??_C@_1M@EOHDJGDD@?$AAf?$AAr?$AA?9?$AAm?$AAc?$AA?$AA@ 00490850     BootEncryption.obj
 0002:0000485c       ??_C@_1M@FAPLLOPF@?$AAg?$AAl?$AA?9?$AAe?$AAs?$AA?$AA@ 0049085c     BootEncryption.obj
 0002:00004868       ??_C@_1M@FOPBFLOO@?$AAg?$AAu?$AA?9?$AAi?$AAn?$AA?$AA@ 00490868     BootEncryption.obj
 0002:00004874       ??_C@_1M@KBMCINPM@?$AAh?$AAe?$AA?9?$AAi?$AAl?$AA?$AA@ 00490874     BootEncryption.obj
 0002:00004880       ??_C@_1M@BBPHKFPJ@?$AAh?$AAi?$AA?9?$AAi?$AAn?$AA?$AA@ 00490880     BootEncryption.obj
 0002:0000488c       ??_C@_1M@PMBNDPHD@?$AAh?$AAr?$AA?9?$AAb?$AAa?$AA?$AA@ 0049088c     BootEncryption.obj
 0002:00004898       ??_C@_1M@BPCKOEGE@?$AAh?$AAr?$AA?9?$AAh?$AAr?$AA?$AA@ 00490898     BootEncryption.obj
 0002:000048a4       ??_C@_1M@GACBMHKE@?$AAh?$AAu?$AA?9?$AAh?$AAu?$AA?$AA@ 004908a4     BootEncryption.obj
 0002:000048b0       ??_C@_1M@MILPAJJC@?$AAh?$AAy?$AA?9?$AAa?$AAm?$AA?$AA@ 004908b0     BootEncryption.obj
 0002:000048bc       ??_C@_1M@BABBICEC@?$AAi?$AAd?$AA?9?$AAi?$AAd?$AA?$AA@ 004908bc     BootEncryption.obj
 0002:000048c8       ??_C@_1M@BIKNHHPF@?$AAi?$AAs?$AA?9?$AAi?$AAs?$AA?$AA@ 004908c8     BootEncryption.obj
 0002:000048d4       ??_C@_1M@NMPCJPHE@?$AAi?$AAt?$AA?9?$AAc?$AAh?$AA?$AA@ 004908d4     BootEncryption.obj
 0002:000048e0       ??_C@_1M@GHKGFEDF@?$AAi?$AAt?$AA?9?$AAi?$AAt?$AA?$AA@ 004908e0     BootEncryption.obj
 0002:000048ec       ??_C@_1M@NIEJCJJA@?$AAj?$AAa?$AA?9?$AAj?$AAp?$AA?$AA@ 004908ec     BootEncryption.obj
 0002:000048f8       ??_C@_1M@JILFNBIM@?$AAk?$AAa?$AA?9?$AAg?$AAe?$AA?$AA@ 004908f8     BootEncryption.obj
 0002:00004904       ??_C@_1M@PACPMGPH@?$AAk?$AAk?$AA?9?$AAk?$AAz?$AA?$AA@ 00490904     BootEncryption.obj
 0002:00004910       ??_C@_1M@IELFGMHA@?$AAk?$AAn?$AA?9?$AAi?$AAn?$AA?$AA@ 00490910     BootEncryption.obj
 0002:0000491c       ??_C@_1O@IBBJHCH@?$AAk?$AAo?$AAk?$AA?9?$AAi?$AAn?$AA?$AA@ 0049091c     BootEncryption.obj
 0002:0000492c       ??_C@_1M@DMHAEOGC@?$AAk?$AAo?$AA?9?$AAk?$AAr?$AA?$AA@ 0049092c     BootEncryption.obj
 0002:00004938       ??_C@_1M@HBAHBIGA@?$AAk?$AAy?$AA?9?$AAk?$AAg?$AA?$AA@ 00490938     BootEncryption.obj
 0002:00004944       ??_C@_1M@KPMILCJG@?$AAl?$AAt?$AA?9?$AAl?$AAt?$AA?$AA@ 00490944     BootEncryption.obj
 0002:00004950       ??_C@_1M@BDEKKCA@?$AAl?$AAv?$AA?9?$AAl?$AAv?$AA?$AA@ 00490950     BootEncryption.obj
 0002:0000495c       ??_C@_1M@ELCKCCJJ@?$AAm?$AAi?$AA?9?$AAn?$AAz?$AA?$AA@ 0049095c     BootEncryption.obj
 0002:00004968       ??_C@_1M@CBOOLAPA@?$AAm?$AAk?$AA?9?$AAm?$AAk?$AA?$AA@ 00490968     BootEncryption.obj
 0002:00004974       ??_C@_1M@GPHNBJKN@?$AAm?$AAl?$AA?9?$AAi?$AAn?$AA?$AA@ 00490974     BootEncryption.obj
 0002:00004980       ??_C@_1M@PABJILIG@?$AAm?$AAn?$AA?9?$AAm?$AAn?$AA?$AA@ 00490980     BootEncryption.obj
 0002:0000498c       ??_C@_1M@FGBKKIPG@?$AAm?$AAr?$AA?9?$AAi?$AAn?$AA?$AA@ 0049098c     BootEncryption.obj
 0002:00004998       ??_C@_1M@NDBPDDAL@?$AAm?$AAs?$AA?9?$AAb?$AAn?$AA?$AA@ 00490998     BootEncryption.obj
 0002:000049a4       ??_C@_1M@OPIHOOPI@?$AAm?$AAs?$AA?9?$AAm?$AAy?$AA?$AA@ 004909a4     BootEncryption.obj
 0002:000049b0       ??_C@_1M@PPDBCNFM@?$AAm?$AAt?$AA?9?$AAm?$AAt?$AA?$AA@ 004909b0     BootEncryption.obj
 0002:000049bc       ??_C@_1M@KDJDKMDD@?$AAn?$AAb?$AA?9?$AAn?$AAo?$AA?$AA@ 004909bc     BootEncryption.obj
 0002:000049c8       ??_C@_1M@KFCFLMJP@?$AAn?$AAl?$AA?9?$AAb?$AAe?$AA?$AA@ 004909c8     BootEncryption.obj
 0002:000049d4       ??_C@_1M@KPOPDDGO@?$AAn?$AAl?$AA?9?$AAn?$AAl?$AA?$AA@ 004909d4     BootEncryption.obj
 0002:000049e0       ??_C@_1M@LJKPEMLN@?$AAn?$AAn?$AA?9?$AAn?$AAo?$AA?$AA@ 004909e0     BootEncryption.obj
 0002:000049ec       ??_C@_1M@BDGHHBFL@?$AAn?$AAs?$AA?9?$AAz?$AAa?$AA?$AA@ 004909ec     BootEncryption.obj
 0002:000049f8       ??_C@_1M@IDEHOAP@?$AAp?$AAa?$AA?9?$AAi?$AAn?$AA?$AA@ 004909f8     BootEncryption.obj
 0002:00004a04       ??_C@_1M@HDBKGOGH@?$AAp?$AAl?$AA?9?$AAp?$AAl?$AA?$AA@ 00490a04     BootEncryption.obj
 0002:00004a14       ??_7bad_alloc@std@@6B@     00490a14     BootEncryption.obj
 0002:00004a1c       ??_C@_0P@GHFPNOJB@bad?5allocation?$AA@ 00490a1c     BootEncryption.obj
 0002:00004a30       ??_7?$ctype@D@std@@6B@     00490a30     BootEncryption.obj
 0002:00004a60       ??_7SystemException@GostCrypt@@6B@ 00490a60     BootEncryption.obj
 0002:00004a68       ??_7ErrorException@GostCrypt@@6B@ 00490a68     BootEncryption.obj
 0002:00004a70       ??_7ParameterIncorrect@GostCrypt@@6B@ 00490a70     BootEncryption.obj
 0002:00004a74       ??_C@_01PKGAHCOL@?$CJ?$AA@ 00490a74     BootEncryption.obj
 0002:00004a78       ??_C@_0IM@CKBKFPJM@Parameter?5incorrect?4?6?6?6?$CIIf?5you?5r@ 00490a78     BootEncryption.obj
 0002:00004b08       ??_7TimeOut@GostCrypt@@6B@ 00490b08     BootEncryption.obj
 0002:00004b0c       ??_C@_1BA@BKONPLFM@?$AAT?$AAi?$AAm?$AAe?$AAo?$AAu?$AAt?$AA?$AA@ 00490b0c     BootEncryption.obj
 0002:00004b1c       ??_C@_0CD@HBGHDAEL@GostCrypt?3?3Elevator?3?3CallDriver?3@ 00490b1c     BootEncryption.obj
 0002:00004b40       ??_C@_0CD@BFALPFEP@GostCrypt?3?3Elevator?3?3CallDriver?3@ 00490b40     BootEncryption.obj
 0002:00004b64       ??_C@_0CH@HCJBBEHF@GostCrypt?3?3Elevator?3?3ReadWriteFi@ 00490b64     BootEncryption.obj
 0002:00004b8c       ??_C@_04GBDIODIA@?2?2?4?2?$AA@ 00490b8c     BootEncryption.obj
 0002:00004b98       ??_7?$ContainerForward@V?$list@UPartition@GostCrypt@@V?$allocator@UPartition@GostCrypt@@@std@@@std@@@ForEach@GostCrypt@@6B@ 00490b98     BootEncryption.obj
 0002:00004ba4       ??_C@_0DH@EHEJHGNE@GostCrypt?3?3BootEncryption?3?3GetPa@ 00490ba4     BootEncryption.obj
 0002:00004bdc       ??_C@_0BM@FBNGAMD@SYSTEM_PARTITION_NOT_ACTIVE?$AA@ 00490bdc     BootEncryption.obj
 0002:00004bf8       ??_C@_0CE@MAHFALCP@NO_PARTITION_FOLLOWS_BOOT_PARTIT@ 00490bf8     BootEncryption.obj
 0002:00004c1c       ??_C@_0CH@NLNOGBOO@PARTITION_TOO_SMALL_FOR_HIDDEN_O@ 00490c1c     BootEncryption.obj
 0002:00004c44       ??_C@_0CC@PECBFKPM@PARTITION_TOO_SMALL_FOR_HIDDEN_O@ 00490c44     BootEncryption.obj
 0002:00004c68       ??_C@_05FHMJPCKA@Start?$AA@ 00490c68     BootEncryption.obj
 0002:00004c70       ??_C@_0CM@LCJDGIOL@SYSTEM?2CurrentControlSet?2Service@ 00490c70     BootEncryption.obj
 0002:00004c9c       ??_C@_0BM@DMJIFPGL@FOR_MORE_INFO_ON_PARTITIONS?$AA@ 00490c9c     BootEncryption.obj
 0002:00004cb8       ??_C@_0CE@LDACPNCN@TWO_SYSTEMS_IN_ONE_PARTITION_REM@ 00490cb8     BootEncryption.obj
 0002:00004cdc       ??_C@_09JCILFBFB@gostcrypt?$AA@ 00490cdc     BootEncryption.obj
 0002:00004ce8       ??_C@_0BH@EJBOALFB@?2drivers?2gostcrypt?4sys?$AA@ 00490ce8     BootEncryption.obj
 0002:00004d00       ??_C@_01KICIPPFI@?2?$AA@   00490d00     BootEncryption.obj
 0002:00004d04       ??_C@_06IBDJIBGI@Filter?$AA@ 00490d04     BootEncryption.obj
 0002:00004d0c       ??_C@_17LGGGMOOB@?$AA?$CF?$AAh?$AAs?$AA?$AA@ 00490d0c     BootEncryption.obj
 0002:00004d18       ??_7?$basic_ios@DU?$char_traits@D@std@@@std@@6B@ 00490d18     BootEncryption.obj
 0002:00004d20       ??_7?$basic_istream@DU?$char_traits@D@std@@@std@@6B@ 00490d20     BootEncryption.obj
 0002:00004d28       ??_7?$basic_ostream@DU?$char_traits@D@std@@@std@@6B@ 00490d28     BootEncryption.obj
 0002:00004d30       ??_7?$basic_iostream@DU?$char_traits@D@std@@@std@@6B@ 00490d30     BootEncryption.obj
 0002:00004d34       ??_8?$basic_iostream@DU?$char_traits@D@std@@@std@@7B?$basic_istream@DU?$char_traits@D@std@@@1@@ 00490d34     BootEncryption.obj
 0002:00004d3c       ??_8?$basic_iostream@DU?$char_traits@D@std@@@std@@7B?$basic_ostream@DU?$char_traits@D@std@@@1@@ 00490d3c     BootEncryption.obj
 0002:00004d48       ??_7?$basic_streambuf@DU?$char_traits@D@std@@@std@@6B@ 00490d48     BootEncryption.obj
 0002:00004d88       ??_7?$basic_stringbuf@DU?$char_traits@D@std@@V?$allocator@D@2@@std@@6B@ 00490d88     BootEncryption.obj
 0002:00004dc8       ??_7?$basic_stringstream@DU?$char_traits@D@std@@V?$allocator@D@2@@std@@6B@ 00490dc8     BootEncryption.obj
 0002:00004dcc       ??_8?$basic_stringstream@DU?$char_traits@D@std@@V?$allocator@D@2@@std@@7B?$basic_istream@DU?$char_traits@D@std@@@1@@ 00490dcc     BootEncryption.obj
 0002:00004dd4       ??_8?$basic_stringstream@DU?$char_traits@D@std@@V?$allocator@D@2@@std@@7B?$basic_ostream@DU?$char_traits@D@std@@@1@@ 00490dd4     BootEncryption.obj
 0002:00004ddc       ??_C@_0L@DPPABKKK@?2Partition?$AA@ 00490ddc     BootEncryption.obj
 0002:00004de8       ??_C@_0BB@EPPOJBJL@?2Device?2Harddisk?$AA@ 00490de8     BootEncryption.obj
 0002:00004dfc       ??_C@_01JLIPDDHJ@?3?$AA@   00490dfc     BootEncryption.obj
 0002:00004e00       ??_C@_0M@OJHKIMBP@?2Partition0?$AA@ 00490e00     BootEncryption.obj
 0002:00004e0c       ??_C@_0CN@FBLLBALE@GostCrypt?3?3BootEncryption?3?3GetTe@ 00490e0c     BootEncryption.obj
 0002:00004e3c       ??_C@_0DE@OACJGKF@GostCrypt?3?3BootEncryption?3?3GetVo@ 00490e3c     BootEncryption.obj
 0002:00004e70       ??_C@_0EB@HMOPBABC@GostCrypt?3?3BootEncryption?3?3Syste@ 00490e70     BootEncryption.obj
 0002:00004eb4       ??_C@_08OINNAHG@?2bootmgr?$AA@ 00490eb4     BootEncryption.obj
 0002:00004ec0       ??_C@_06JLGNLLFE@?2ntldr?$AA@ 00490ec0     BootEncryption.obj
 0002:00004ec8       ??_C@_1BC@EONGMCPP@?$AA?2?$AAb?$AAo?$AAo?$AAt?$AAm?$AAg?$AAr?$AA?$AA@ 00490ec8     BootEncryption.obj
 0002:00004edc       ??_C@_1O@MIGMNGND@?$AA?2?$AAn?$AAt?$AAl?$AAd?$AAr?$AA?$AA@ 00490edc     BootEncryption.obj
 0002:00004eec       ??_C@_0O@ICNEBHDC@PhysicalDrive?$AA@ 00490eec     BootEncryption.obj
 0002:00004efc       ??_C@_0DM@OMHMHGFL@GostCrypt?3?3BootEncryption?3?3GetSy@ 00490efc     BootEncryption.obj
 0002:00004f38       ??_C@_0DJ@BHABFNLC@GostCrypt?3?3BootEncryption?3?3Creat@ 00490f38     BootEncryption.obj
 0002:00004f74       ??_C@_0DJ@HLLFALOF@GostCrypt?3?3BootEncryption?3?3Creat@ 00490f74     BootEncryption.obj
 0002:00004fb0       ??_C@_03POBHGEJB@BIN?$AA@  00490fb0     BootEncryption.obj
 0002:00004fb4       ??_C@_0DJ@EIEBADFA@GostCrypt?3?3BootEncryption?3?3Creat@ 00490fb4     BootEncryption.obj
 0002:00004ff0       ??_C@_0DJ@PCOOIHML@GostCrypt?3?3BootEncryption?3?3Creat@ 00490ff0     BootEncryption.obj
 0002:0000502c       ??_C@_0DJ@LNKPBBAM@GostCrypt?3?3BootEncryption?3?3Creat@ 0049102c     BootEncryption.obj
 0002:00005068       ??_C@_0DJ@PDCMONPM@GostCrypt?3?3BootEncryption?3?3Creat@ 00491068     BootEncryption.obj
 0002:000050a4       ??_C@_0DF@DPDHMAHA@GostCrypt?3?3BootEncryption?3?3ReadB@ 004910a4     BootEncryption.obj
 0002:000050dc       ??_C@_0BE@GPJOEGCF@ERROR_MBR_PROTECTED?$AA@ 004910dc     BootEncryption.obj
 0002:000050f0       ??_C@_0DB@GOMJMIPK@GostCrypt?3?3BootEncryption?3?3Start@ 004910f0     BootEncryption.obj
 0002:00005124       ??_C@_0DB@KGBAECPC@GostCrypt?3?3BootEncryption?3?3Start@ 00491124     BootEncryption.obj
 0002:00005158       ??_C@_0DB@BCHMFGII@GostCrypt?3?3BootEncryption?3?3Start@ 00491158     BootEncryption.obj
 0002:0000518c       ??_C@_0DL@OJIEGNGA@GostCrypt?3?3BootEncryption?3?3WipeH@ 0049118c     BootEncryption.obj
 0002:000051c8       ??_C@_0DL@LMFKBOII@GostCrypt?3?3BootEncryption?3?3WipeH@ 004911c8     BootEncryption.obj
 0002:00005204       ??_C@_0L@CANDMBMO@?2GostCrypt?$AA@ 00491204     BootEncryption.obj
 0002:00005210       ??_C@_0BH@KENEBBHH@Original?5System?5Loader?$AA@ 00491210     BootEncryption.obj
 0002:00005228       ??_C@_0DF@KLIDFACM@GostCrypt?3?3BootEncryption?3?3Creat@ 00491228     BootEncryption.obj
 0002:00005260       ??_C@_07NKOFPJFH@?$ABCD001?$AB?$AA@ 00491260     BootEncryption.obj
 0002:00005268       ??_C@_0CB@MBJIJKGC@GostCrypt?5Rescue?5Disk?5?5?5?5?5?5?5?5?5?5?5@ 00491268     BootEncryption.obj
 0002:0000528c       ??_C@_0BO@DHOJLLGB@CD001?$ABEL?5TORITO?5SPECIFICATION?$AA@ 0049128c     BootEncryption.obj
 0002:000052ac       ??_C@_07DAAEPPCP@?$PPCD001?$AB?$AA@ 004912ac     BootEncryption.obj
 0002:000052b4       ??_C@_0DF@NJKAADBI@GostCrypt?3?3BootEncryption?3?3Creat@ 004912b4     BootEncryption.obj
 0002:000052ec       ??_C@_0CH@FHEPLLOO@SYS_LOADER_UNAVAILABLE_FOR_RESCU@ 004912ec     BootEncryption.obj
 0002:00005314       ??_C@_03OPPAHFLA@X?3?2?$AA@ 00491314     BootEncryption.obj
 0002:00005318       ??_C@_0DB@MFFJFGID@GostCrypt?3?3BootEncryption?3?3Verif@ 00491318     BootEncryption.obj
 0002:0000534c       ??_C@_02EHLIIHJM@X?3?$AA@  0049134c     BootEncryption.obj
 0002:00005350       ??_C@_0DD@EBKOHCHJ@GostCrypt?3?3BootEncryption?3?3Creat@ 00491350     BootEncryption.obj
 0002:00005384       ??_C@_0DD@COJOPAEA@GostCrypt?3?3BootEncryption?3?3Creat@ 00491384     BootEncryption.obj
 0002:000053b8       ??_C@_0DE@FGBLJEP@GostCrypt?3?3BootEncryption?3?3Insta@ 004913b8     BootEncryption.obj
 0002:000053ec       ??_C@_0CC@HLAJAJLP@GST_BOOT_LOADER_ALREADY_INSTALLE@ 004913ec     BootEncryption.obj
 0002:00005410       ??_C@_0DE@DNAHMIJK@GostCrypt?3?3BootEncryption?3?3Resto@ 00491410     BootEncryption.obj
 0002:00005444       ??_C@_0N@KPKBADH@UpperFilters?$AA@ 00491444     BootEncryption.obj
 0002:00005454       ??_C@_0O@IAPAHIFF@gostcrypt?4sys?$AA@ 00491454     BootEncryption.obj
 0002:00005464       ??_C@_0M@DBKHNNPD@DumpFilters?$AA@ 00491464     BootEncryption.obj
 0002:00005470       ??_C@_0CO@FIPMIJLN@SYSTEM?2CurrentControlSet?2Control@ 00491470     BootEncryption.obj
 0002:000054a0       ??_C@_0CP@OJIEODCG@GostCrypt?3?3BootEncryption?3?3Regis@ 004914a0     BootEncryption.obj
 0002:000054d0       ??_C@_0BM@CLKNIPKP@?2gostcrypt_driver_setup?4inf?$AA@ 004914d0     BootEncryption.obj
 0002:000054ec       ??_C@_03CGLHDMIP@?$CC?$AN?6?$AA@ 004914ec     BootEncryption.obj
 0002:000054f0       ??_C@_02JGFLNPEJ@?0?$CC?$AA@ 004914f0     BootEncryption.obj
 0002:000054f4       ??_C@_04FLCDBBKO@0008?$AA@ 004914f4     BootEncryption.obj
 0002:000054fc       ??_C@_04JBLMLCOF@8002?$AA@ 004914fc     BootEncryption.obj
 0002:00005504       ??_C@_08OHAGLOJG@?$CC?00x0001?$AA@ 00491504     BootEncryption.obj
 0002:00005510       ??_C@_0CN@EJNJANKE@Reg?$DNgostcrypt_reg?$AN?6?$AN?6?$FLgostcrypt_@ 00491510     BootEncryption.obj
 0002:00005540       ??_C@_03LDFMNCOE@Add?$AA@  00491540     BootEncryption.obj
 0002:00005544       ??_C@_03ENJJMCOJ@Del?$AA@  00491544     BootEncryption.obj
 0002:00005548       ??_C@_0O@MJBIBBDL@?$FLgostcrypt?$FN?$AN?6?$AA@ 00491548     BootEncryption.obj
 0002:00005558       ??_C@_0DF@LDCHKMLL@GostCrypt?3?3BootEncryption?3?3Regis@ 00491558     BootEncryption.obj
 0002:00005590       ??_C@_0O@GKOBNEPO@GostCrypt?4exe?$AA@ 00491590     BootEncryption.obj
 0002:000055a0       ??_C@_09ENFKIOHO@Event?5Log?$AA@ 004915a0     BootEncryption.obj
 0002:000055ac       ??_C@_0BK@KLJIEDOC@?$CC?5?1systemFavoritesService?$AA@ 004915ac     BootEncryption.obj
 0002:000055c8       ??_C@_01BJJEKLCA@?$CC?$AA@ 004915c8     BootEncryption.obj
 0002:000055cc       ??_C@_0BL@LDDPDLLO@GostCrypt?5System?5Favorites?$AA@ 004915cc     BootEncryption.obj
 0002:000055e8       ??_C@_0BJ@IIGMOCCE@GostCryptSystemFavorites?$AA@ 004915e8     BootEncryption.obj
 0002:00005604       ??_C@_0CK@KHOKHPEC@Mounts?5GostCrypt?5system?5favorite@ 00491604     BootEncryption.obj
 0002:00005630       ??_C@_07LMLHFMEG@Service?$AA@ 00491630     BootEncryption.obj
 0002:00005638       ??_C@_0EL@MKLMKGDH@SYSTEM?2CurrentControlSet?2Control@ 00491638     BootEncryption.obj
 0002:00005688       ??_C@_0EL@ELDIGJGM@SYSTEM?2CurrentControlSet?2Control@ 00491688     BootEncryption.obj
 0002:000056d4       ??_C@_0DC@DDPDEKGA@SYSTEM?2CurrentControlSet?2Control@ 004916d4     BootEncryption.obj
 0002:00005708       ??_C@_0DC@PMGJGMIM@SYSTEM?2CurrentControlSet?2Control@ 00491708     BootEncryption.obj
 0002:0000573c       ??_C@_0CJ@BKBFFPJL@SYS_ENCRYPTION_UNSUPPORTED_ON_CU@ 0049173c     BootEncryption.obj
 0002:00005768       ??_C@_0CI@OBNNMOKO@SYS_ENCRYPTION_UNSUPPORTED_ON_VI@ 00491768     BootEncryption.obj
 0002:00005790       ??_C@_0BO@EPIDJGMK@FEATURE_REQUIRES_INSTALLATION?$AA@ 00491790     BootEncryption.obj
 0002:000057b0       ??_C@_0BL@CEKJKLIB@GPT_BOOT_DRIVE_UNSUPPORTED?$AA@ 004917b0     BootEncryption.obj
 0002:000057cc       ??_C@_0CE@HGBKLHHD@SYSENC_UNSUPPORTED_FOR_DYNAMIC_D@ 004917cc     BootEncryption.obj
 0002:000057f0       ??_C@_0BJ@HICFFOOK@NO_SPACE_FOR_BOOT_LOADER?$AA@ 004917f0     BootEncryption.obj
 0002:0000580c       ??_C@_0CE@NNOADDIE@SYSENC_UNSUPPORTED_SECTOR_SIZE_B@ 0049180c     BootEncryption.obj
 0002:00005830       ??_C@_0CA@PKMHCFDK@WINDOWS_NOT_ON_BOOT_DRIVE_ERROR?$AA@ 00491830     BootEncryption.obj
 0002:00005850       ??_C@_0M@BHFNFFHI@PagingFiles?$AA@ 00491850     BootEncryption.obj
 0002:00005860       ??_C@_0ED@FMLJHJOD@System?2CurrentControlSet?2Control@ 00491860     BootEncryption.obj
 0002:000058a4       ??_C@_0CH@FJCBOPJI@RESTRICT_PAGING_FILES_TO_SYS_PAR@ 004918a4     BootEncryption.obj
 0002:000058cc       ??_C@_0CM@BBEONPDF@LEAKS_OUTSIDE_SYSPART_UNIVERSAL_@ 004918cc     BootEncryption.obj
 0002:000058f8       ??_C@_0CB@KMEGGAHA@PAGING_FILE_NOT_ON_SYS_PARTITION@ 004918f8     BootEncryption.obj
 0002:0000591c       ??_C@_05JLNEMJLN@dummy?$AA@ 0049191c     BootEncryption.obj
 0002:00005924       ??_C@_0CC@GBKHKMEM@USER_PROFILE_NOT_ON_SYS_PARTITIO@ 00491924     BootEncryption.obj
 0002:00005948       ??_C@_0BK@HBDIJMEI@TEMP_NOT_ON_SYS_PARTITION?$AA@ 00491948     BootEncryption.obj
 0002:00005964       ??_C@_0CK@JKIDFDHF@GostCrypt?3?3BootEncryption?3?3Deins@ 00491964     BootEncryption.obj
 0002:00005990       ??_C@_0CK@HMMKEFKJ@GostCrypt?3?3BootEncryption?3?3Deins@ 00491990     BootEncryption.obj
 0002:000059bc       ??_C@_0BK@DNPPNAJB@SYS_LOADER_RESTORE_FAILED?$AA@ 004919bc     BootEncryption.obj
 0002:000059d8       ??_C@_0CI@DLMOLIMI@GostCrypt?3?3BootEncryption?3?3Insta@ 004919d8     BootEncryption.obj
 0002:00005a00       ??_C@_0DI@OHOEDBDC@GostCrypt?3?3BootEncryption?3?3Prepa@ 00491a00     BootEncryption.obj
 0002:00005a38       ??_C@_0DE@NDCLNHEC@GostCrypt?3?3BootEncryption?3?3Prepa@ 00491a38     BootEncryption.obj
 0002:00005a6c       ??_C@_0CM@NPKCCOOP@WHOLE_DRIVE_ENCRYPTION_PREVENTED@ 00491a6c     BootEncryption.obj
 0002:00005a98       ??_C@_0BE@GGLBNJIB@X?3?2pagefile?4sys?50?50?$AA@ 00491a98     BootEncryption.obj
 0002:00005aac       ??_C@_0BA@NANEHOFP@GostCryptConfig?$AA@ 00491aac     BootEncryption.obj
 0002:00005abc       ??_C@_0DA@BMPPEFPA@GostCrypt?3?3BootEncryption?3?3Start@ 00491abc     BootEncryption.obj
 0002:00005aec       ??_C@_0DA@BCJAFCLE@GostCrypt?3?3BootEncryption?3?3Start@ 00491aec     BootEncryption.obj
 0002:00005b20       ??_7?$num_put@DV?$ostreambuf_iterator@DU?$char_traits@D@std@@@std@@@std@@6B@ 00491b20     BootEncryption.obj
 0002:00005b50       ??_7?$numpunct@D@std@@6B@  00491b50     BootEncryption.obj
 0002:00005b70       ??_C@_0BB@MOGOBHAF@list?$DMT?$DO?5too?5long?$AA@ 00491b70     BootEncryption.obj
 0002:00005b88       __real@3ff0cccccccccccd    00491b88     BootEncryption.obj
 0002:00005b90       ??_C@_0BE@GKKPACCB@IDD_COMMANDHELP_DLG?$AA@ 00491b90     Cmdline.obj
 0002:00005ba4       ??_C@_0BI@HHPEFDNB@Command?5line?5options?3?6?6?$AA@ 00491ba4     Cmdline.obj
 0002:00005bbc       ??_C@_06EEAEEKCL@?$CFs?7?$CFs?6?$AA@ 00491bbc     Cmdline.obj
 0002:00005bc4       ??_C@_0M@COMBLGLD@History?4xml?$AA@ 00491bc4     Combo.obj
 0002:00005bd0       ??_C@_06EMCPHFGM@volume?$AA@ 00491bd0     Combo.obj
 0002:00005bd8       ??_C@_0M@MCACFAKG@?6?7?$DMhistory?$DO?$AA@ 00491bd8     Combo.obj
 0002:00005be4       ??_C@_0BH@PGAPGLND@?6?7?7?$DMvolume?$DO?$CFs?$DM?1volume?$DO?$AA@ 00491be4     Combo.obj
 0002:00005bfc       ??_C@_0N@GOMGLJCI@?6?7?$DM?1history?$DO?$AA@ 00491bfc     Combo.obj
 0002:00005c0c       ??_C@_0BB@BMJBGELP@Gost?5Grasshopper?$AA@ 00491c0c     Crypto.obj
 0002:00005c20       ??_C@_0BC@IEIFLFFI@GOST?5R?534?411?92012?$AA@ 00491c20     Crypto.obj
 0002:00005c34       ??_C@_0BA@KDEBPBMN@GOST?5R?534?411?994?$AA@ 00491c34     Crypto.obj
 0002:00005c44       ??_C@_09HLDHDDJL@Whirlpool?$AA@ 00491c44     Crypto.obj
 0002:00005c50       ??_C@_01OGPIMHDM@?$DP?$AA@ 00491c50     Crypto.obj
 0002:00005c54       ??_C@_01JOAMLHOP@?9?$AA@   00491c54     Crypto.obj
 0002:00005c58       ??_C@_0BE@JONHPENG@map?1set?$DMT?$DO?5too?5long?$AA@ 00491c58     Dictionary.obj
 0002:00005c70       ??_C@_0BL@NECJIJNL@NO_PKCS11_MODULE_SPECIFIED?$AA@ 00491c70     Dlgcode.obj
 0002:00005c8c       ??_C@_0BK@OPPAPAFF@PKCS11_MODULE_INIT_FAILED?$AA@ 00491c8c     Dlgcode.obj
 0002:00005cac       ??_7GetPinFunctor@GostCrypt@@6B@ 00491cac     Dlgcode.obj
 0002:00005cb8       ??_7SendExceptionFunctor@GostCrypt@@6B@ 00491cb8     Dlgcode.obj
 0002:00005cc0       ??_C@_09ODDMBMG@CustomDlg?$AA@ 00491cc0     Dlgcode.obj
 0002:00005ccc       ??_C@_09EPIDNIBP@SplashDlg?$AA@ 00491ccc     Dlgcode.obj
 0002:00005cdc       ??_7?$ContainerForward@V?$basic_string@DU?$char_traits@D@std@@V?$allocator@D@2@@std@@@ForEach@GostCrypt@@6B@ 00491cdc     Dlgcode.obj
 0002:00005ce8       ??_C@_08MBBBEOPI@?2Device?2?$AA@ 00491ce8     Dlgcode.obj
 0002:00005cf4       ??_C@_0N@DANNJCFD@gostcrypt?$CFlu?$AA@ 00491cf4     Dlgcode.obj
 0002:00005d04       ??_C@_06DIBEOEIP@?2?2?4?2?$CFs?$AA@ 00491d04     Dlgcode.obj
 0002:00005d0c       ??_C@_0BC@GIPDODAO@ERR_ACCESS_DENIED?$AA@ 00491d0c     Dlgcode.obj
 0002:00005d20       ??_C@_0BD@NLNANBEJ@ERR_HARDWARE_ERROR?$AA@ 00491d20     Dlgcode.obj
 0002:00005d34       ??_C@_0O@JLGCPBGA@IDD_ABOUT_DLG?$AA@ 00491d34     Dlgcode.obj
 0002:00005d44       ??_C@_0BC@CFCNFPNP@www?4gostcrypt?4org?$AA@ 00491d44     Dlgcode.obj
 0002:00005d58       ??_C@_05OJPKCACG@1?43?41?$AA@ 00491d58     Dlgcode.obj
 0002:00005d60       ??_C@_0N@BPJNLKPO@GostCrypt?5?$CFs?$AA@ 00491d60     Dlgcode.obj
 0002:00005d70       ??_C@_0DF@NEDIGDMJ@Released?5by?5the?5GostCrypt?5develo@ 00491d70     Dlgcode.obj
 0002:00005da8       ??_C@_0DCE@DDNKAONB@Portions?5of?5this?5software?5are?5ba@ 00491da8     Dlgcode.obj
 0002:000060cc       ??_C@_0BK@EMBCECD@http?3?1?1www?4gostcrypt?4org?1?$AA@ 004920cc     Dlgcode.obj
 0002:000060e8       ??_C@_0M@IGCGEGAM@font_normal?$AA@ 004920e8     Dlgcode.obj
 0002:000060f4       ??_C@_1BA@HANLFFFG@?$AAd?$AAe?$AAf?$AAa?$AAu?$AAl?$AAt?$AA?$AA@ 004920f4     Dlgcode.obj
 0002:00006104       ??_C@_1O@FPBPJIKI@?$AAT?$AAa?$AAh?$AAo?$AAm?$AAa?$AA?$AA@ 00492104     Dlgcode.obj
 0002:00006114       ??_C@_1BI@GNONBDFP@?$AAC?$AAo?$AAu?$AAr?$AAi?$AAe?$AAr?$AA?5?$AAN?$AAe?$AAw?$AA?$AA@ 00492114     Dlgcode.obj
 0002:0000612c       ??_C@_06DILOELAE@NOFONT?$AA@ 0049212c     Dlgcode.obj
 0002:00006134       ??_C@_09KDCDAOMH@font_bold?$AA@ 00492134     Dlgcode.obj
 0002:00006140       ??_C@_1M@KAKMLIHO@?$AAA?$AAr?$AAi?$AAa?$AAl?$AA?$AA@ 00492140     Dlgcode.obj
 0002:0000614c       ??_C@_0L@NMFINBBB@font_title?$AA@ 0049214c     Dlgcode.obj
 0002:00006158       ??_C@_1CA@MBPOLHGL@?$AAT?$AAi?$AAm?$AAe?$AAs?$AA?5?$AAN?$AAe?$AAw?$AA?5?$AAR?$AAo?$AAm?$AAa?$AAn?$AA?$AA@ 00492158     Dlgcode.obj
 0002:00006178       ??_C@_0L@MOFKMHPH@font_fixed?$AA@ 00492178     Dlgcode.obj
 0002:00006184       ??_C@_1BO@CJPKCNHF@?$AAL?$AAu?$AAc?$AAi?$AAd?$AAa?$AA?5?$AAC?$AAo?$AAn?$AAs?$AAo?$AAl?$AAe?$AA?$AA@ 00492184     Dlgcode.obj
 0002:000061a4       ??_C@_08KAINEBEN@ABOUTBOX?$AA@ 004921a4     Dlgcode.obj
 0002:000061b0       ??_C@_07EFPKBNGC@REDTICK?$AA@ 004921b0     Dlgcode.obj
 0002:000061b8       ??_C@_0P@GHLKBIBG@WIPE_MODE_NONE?$AA@ 004921b8     Dlgcode.obj
 0002:000061c8       ??_C@_0BB@NCGBCPHN@WIPE_MODE_1_RAND?$AA@ 004921c8     Dlgcode.obj
 0002:000061dc       ??_C@_0BF@CKGIKNEN@WIPE_MODE_3_DOD_5220?$AA@ 004921dc     Dlgcode.obj
 0002:000061f4       ??_C@_0BF@JKLBNOMP@WIPE_MODE_7_DOD_5220?$AA@ 004921f4     Dlgcode.obj
 0002:0000620c       ??_C@_0BF@OGMMPIGE@WIPE_MODE_35_GUTMANN?$AA@ 0049220c     Dlgcode.obj
 0002:00006224       ??_C@_09MFFJIMND@Partition?$AA@ 00492224     Dlgcode.obj
 0002:00006230       ??_C@_0L@MAFJOMBB@Partition0?$AA@ 00492230     Dlgcode.obj
 0002:0000623c       ??_C@_0BF@FDOOMICI@PARTITION_UPPER_CASE?$AA@ 0049223c     Dlgcode.obj
 0002:00006254       ??_C@_0BF@DEJBIFMK@PARTITION_LOWER_CASE?$AA@ 00492254     Dlgcode.obj
 0002:0000626c       ??_C@_0P@KFCBFOIJ@HarddiskVolume?$AA@ 0049226c     Dlgcode.obj
 0002:0000627c       ??_C@_0BC@IAHBOHIP@VOLUME_UPPER_CASE?$AA@ 0049227c     Dlgcode.obj
 0002:00006290       ??_C@_0BC@OHAOKKGN@VOLUME_LOWER_CASE?$AA@ 00492290     Dlgcode.obj
 0002:000062a4       ??_C@_0BC@EBLCOINE@DEVICE_UPPER_CASE?$AA@ 004922a4     Dlgcode.obj
 0002:000062b8       ??_C@_0BC@CGMNKFDG@DEVICE_LOWER_CASE?$AA@ 004922b8     Dlgcode.obj
 0002:000062d0       ??_7?$ContainerForward@V?$list@KV?$allocator@K@std@@@std@@@ForEach@GostCrypt@@6B@ 004922d0     Dlgcode.obj
 0002:000062dc       ??_C@_0BH@KPCDNAAO@EXCEPTION_REPORT_TITLE?$AA@ 004922dc     Dlgcode.obj
 0002:000062f4       ??_C@_0BF@JIKAMFDK@EXCEPTION_REPORT_EXT?$AA@ 004922f4     Dlgcode.obj
 0002:0000630c       ??_C@_0M@OOEJBPPK@dbghelp?4dll?$AA@ 0049230c     Dlgcode.obj
 0002:00006318       ??_C@_0O@KGBKFDLO@SymGetOptions?$AA@ 00492318     Dlgcode.obj
 0002:00006328       ??_C@_0O@LIDFOEPH@SymSetOptions?$AA@ 00492328     Dlgcode.obj
 0002:00006338       ??_C@_0O@MCMFENKA@SymInitialize?$AA@ 00492338     Dlgcode.obj
 0002:00006348       ??_C@_0BJ@OOGADJNM@SymFunctionTableAccess64?$AA@ 00492348     Dlgcode.obj
 0002:00006364       ??_C@_0BD@JCAKOMOK@SymGetModuleBase64?$AA@ 00492364     Dlgcode.obj
 0002:00006378       ??_C@_0M@FJINHFIC@StackWalk64?$AA@ 00492378     Dlgcode.obj
 0002:00006384       ??_C@_0M@GHNAPHBH@SymFromAddr?$AA@ 00492384     Dlgcode.obj
 0002:00006390       ??_C@_01NEMOKFLO@?$DN?$AA@ 00492390     Dlgcode.obj
 0002:00006394       ??_C@_03EGAGLKPK@?$CGst?$AA@ 00492394     Dlgcode.obj
 0002:00006398       ??_C@_03BPHHBGPB@?$DN0x?$AA@ 00492398     Dlgcode.obj
 0002:0000639c       ??_C@_0BA@EIBJDAPB@?$CGlangpack?$DN?$CFs_?$CFs?$AA@ 0049239c     Dlgcode.obj
 0002:000063ac       ??_C@_06DLEPGFEF@format?$AA@ 004923ac     Dlgcode.obj
 0002:000063b4       ??_C@_03OLPMMCEF@x64?$AA@  004923b4     Dlgcode.obj
 0002:000063b8       ??_C@_03NDFEINMN@x86?$AA@  004923b8     Dlgcode.obj
 0002:000063c0       ??_C@_0JB@MLJIHOID@https?3?1?1www?4gostcrypt?4org?1applin@ 004923c0     Dlgcode.obj
 0002:00006454       ??_C@_0BB@PFGPMKFM@EXCEPTION_REPORT?$AA@ 00492454     Dlgcode.obj
 0002:00006468       ??_C@_04PMOCAHAA@open?$AA@ 00492468     Dlgcode.obj
 0002:00006470       ??_C@_0BN@PKGEAFIB@EXCEPTION_REPORT_EXT_FILESEL?$AA@ 00492470     Dlgcode.obj
 0002:00006490       ??_C@_0CK@NOADNGOE@Global?2GostCrypt?5System?5Encrypti@ 00492490     Dlgcode.obj
 0002:000064bc       ??_C@_0CM@BEIDGOGA@Global?2GostCrypt?5In?9Place?5Encryp@ 004924bc     Dlgcode.obj
 0002:000064e8       ??_C@_0BO@JOPFAKIM@Global?2GostCrypt?5Driver?5Setup?$AA@ 004924e8     Dlgcode.obj
 0002:00006508       ??_C@_0BH@JMLDCLIN@Global?2GostCrypt?5Setup?$AA@ 00492508     Dlgcode.obj
 0002:00006520       ??_C@_0CA@MKBHDAPB@GostCryptEncryptionFreeCpuCount?$AA@ 00492520     Dlgcode.obj
 0002:00006540       ??_C@_06HEJKKHEK@config?$AA@ 00492540     Dlgcode.obj
 0002:00006548       ??_C@_03ICHNJLJF@key?$AA@  00492548     Dlgcode.obj
 0002:0000654c       ??_C@_0BH@GJIMGGMJ@SystemEncryptionStatus?$AA@ 0049254c     Dlgcode.obj
 0002:00006564       ??_C@_08OAECLFAP@WipeMode?$AA@ 00492564     Dlgcode.obj
 0002:00006570       ??_C@_09IDILIKHG@NO_OS_VER?$AA@ 00492570     Dlgcode.obj
 0002:0000657c       ??_C@_0CI@MDCPAMLM@SetCurrentProcessExplicitAppUser@ 0049257c     Dlgcode.obj
 0002:000065a4       ??_C@_0M@KFDNOLCO@shell32?4dll?$AA@ 004925a4     Dlgcode.obj
 0002:000065b0       ??_C@_1DM@PACGJHBK@?$AAG?$AAo?$AAs?$AAt?$AAC?$AAr?$AAy?$AAp?$AAt?$AAF?$AAo?$AAu?$AAn?$AAd?$AAa?$AAt?$AAi?$AAo?$AAn?$AA?4?$AAG?$AAo?$AAs?$AAt?$AAC?$AAr?$AAy?$AAp?$AAt?$AA?$AA@ 004925b0     Dlgcode.obj
 0002:000065ec       ??_C@_0P@IEEIGCBO@UNSUPPORTED_OS?$AA@ 004925ec     Dlgcode.obj
 0002:000065fc       ??_C@_0BF@FAAJOFOJ@LARGE_IDE_WARNING_2K?$AA@ 004925fc     Dlgcode.obj
 0002:00006614       ??_C@_0DD@HENCBNAN@SYSTEM?2CurrentControlSet?2Service@ 00492614     Dlgcode.obj
 0002:00006648       ??_C@_0N@MGFEFGLL@EnableBigLba?$AA@ 00492648     Dlgcode.obj
 0002:00006658       ??_C@_0BO@CHBDAIFD@LARGE_IDE_WARNING_2K_REGISTRY?$AA@ 00492658     Dlgcode.obj
 0002:00006678       ??_C@_0CI@KAEBDPBB@System?2CurrentControlSet?2Control@ 00492678     Dlgcode.obj
 0002:000066a0       ??_C@_0BF@LMHPGAIF@LARGE_IDE_WARNING_XP?$AA@ 004926a0     Dlgcode.obj
 0002:000066b8       ??_C@_06FGFHJIJL@?$CD32770?$AA@ 004926b8     Dlgcode.obj
 0002:000066c0       ??_C@_0O@PKFAAFKJ@INIT_REGISTER?$AA@ 004926c0     Dlgcode.obj
 0002:000066d0       ??_C@_0N@KPDNKMDE@riched20?4dll?$AA@ 004926d0     Dlgcode.obj
 0002:000066e0       ??_C@_0O@HCBFIMAP@INIT_RICHEDIT?$AA@ 004926e0     Dlgcode.obj
 0002:000066f0       ??_C@_02LFNMGJAP@en?$AA@   004926f0     Dlgcode.obj
 0002:000066f4       ??_C@_0BJ@ELFIPPEB@GostCrypt?5User?5Guide?4pdf?$AA@ 004926f4     Dlgcode.obj
 0002:00006710       ??_C@_0BM@JHDHCLPC@GostCrypt?5User?5Guide?4?$CFs?4pdf?$AA@ 00492710     Dlgcode.obj
 0002:0000672c       ??_C@_0CH@LFBCKMNM@SYS_ENCRYPTION_PRETEST_INFO2_POR@ 0049272c     Dlgcode.obj
 0002:00006754       ??_C@_0CH@PKFDDKBL@SYS_ENCRYPTION_PRETEST_INFO2_POR@ 00492754     Dlgcode.obj
 0002:0000677c       ??_C@_0CH@ODEIALFK@SYS_ENCRYPTION_PRETEST_INFO2_POR@ 0049277c     Dlgcode.obj
 0002:000067a4       ??_C@_0CH@MIGFFIJJ@SYS_ENCRYPTION_PRETEST_INFO2_POR@ 004927a4     Dlgcode.obj
 0002:000067cc       ??_C@_0BL@BIFKAJPO@RESCUE_DISK_HELP_PORTION_9?$AA@ 004927cc     Dlgcode.obj
 0002:000067e8       ??_C@_0BL@BEBDILP@RESCUE_DISK_HELP_PORTION_8?$AA@ 004927e8     Dlgcode.obj
 0002:00006804       ??_C@_0BL@IGNJCEHA@RESCUE_DISK_HELP_PORTION_7?$AA@ 00492804     Dlgcode.obj
 0002:00006820       ??_C@_0BL@JPMCBFDB@RESCUE_DISK_HELP_PORTION_6?$AA@ 00492820     Dlgcode.obj
 0002:0000683c       ??_C@_0BL@LEOPEGPC@RESCUE_DISK_HELP_PORTION_5?$AA@ 0049283c     Dlgcode.obj
 0002:00006858       ??_C@_0BL@KNPEHHLD@RESCUE_DISK_HELP_PORTION_4?$AA@ 00492858     Dlgcode.obj
 0002:00006874       ??_C@_0BL@OCLFOBHE@RESCUE_DISK_HELP_PORTION_3?$AA@ 00492874     Dlgcode.obj
 0002:00006890       ??_C@_0BL@PLKONADF@RESCUE_DISK_HELP_PORTION_2?$AA@ 00492890     Dlgcode.obj
 0002:000068ac       ??_C@_0BL@NAIDIDPG@RESCUE_DISK_HELP_PORTION_1?$AA@ 004928ac     Dlgcode.obj
 0002:000068c8       ??_C@_0CB@MBHBFDO@DECOY_OS_INSTRUCTIONS_PORTION_18@ 004928c8     Dlgcode.obj
 0002:000068ec       ??_C@_0CB@ILIPAJPB@DECOY_OS_INSTRUCTIONS_PORTION_17@ 004928ec     Dlgcode.obj
 0002:00006910       ??_C@_0CB@JCJEDILA@DECOY_OS_INSTRUCTIONS_PORTION_16@ 00492910     Dlgcode.obj
 0002:00006934       ??_C@_0CB@LJLJGLHD@DECOY_OS_INSTRUCTIONS_PORTION_15@ 00492934     Dlgcode.obj
 0002:00006958       ??_C@_0CB@KAKCFKDC@DECOY_OS_INSTRUCTIONS_PORTION_14@ 00492958     Dlgcode.obj
 0002:0000697c       ??_C@_0CB@OPODMMPF@DECOY_OS_INSTRUCTIONS_PORTION_13@ 0049297c     Dlgcode.obj
 0002:000069a0       ??_C@_0CB@PGPIPNLE@DECOY_OS_INSTRUCTIONS_PORTION_12@ 004929a0     Dlgcode.obj
 0002:000069c4       ??_C@_0CB@NNNFKOHH@DECOY_OS_INSTRUCTIONS_PORTION_11@ 004929c4     Dlgcode.obj
 0002:000069e8       ??_C@_0CB@MEMOJPDG@DECOY_OS_INSTRUCTIONS_PORTION_10@ 004929e8     Dlgcode.obj
 0002:00006a0c       ??_C@_0CA@EBNFDEFN@DECOY_OS_INSTRUCTIONS_PORTION_9?$AA@ 00492a0c     Dlgcode.obj
 0002:00006a2c       ??_C@_0CA@FIMOAFBM@DECOY_OS_INSTRUCTIONS_PORTION_8?$AA@ 00492a2c     Dlgcode.obj
 0002:00006a4c       ??_C@_0CA@NPFGBJND@DECOY_OS_INSTRUCTIONS_PORTION_7?$AA@ 00492a4c     Dlgcode.obj
 0002:00006a6c       ??_C@_0CA@MGENCIJC@DECOY_OS_INSTRUCTIONS_PORTION_6?$AA@ 00492a6c     Dlgcode.obj
 0002:00006a8c       ??_C@_0CA@ONGAHLFB@DECOY_OS_INSTRUCTIONS_PORTION_5?$AA@ 00492a8c     Dlgcode.obj
 0002:00006aac       ??_C@_0CA@PEHLEKBA@DECOY_OS_INSTRUCTIONS_PORTION_4?$AA@ 00492aac     Dlgcode.obj
 0002:00006acc       ??_C@_0CA@LLDKNMNH@DECOY_OS_INSTRUCTIONS_PORTION_3?$AA@ 00492acc     Dlgcode.obj
 0002:00006aec       ??_C@_0CA@KCCBONJG@DECOY_OS_INSTRUCTIONS_PORTION_2?$AA@ 00492aec     Dlgcode.obj
 0002:00006b0c       ??_C@_0CA@IJAMLOFF@DECOY_OS_INSTRUCTIONS_PORTION_1?$AA@ 00492b0c     Dlgcode.obj
 0002:00006b2c       ??_C@_0BI@OOMIJPBL@LEGAL_NOTICES_DLG_TITLE?$AA@ 00492b2c     Dlgcode.obj
 0002:00006b44       ??_C@_0BJ@OAHHFEJL@Pre?9Boot?5Troubleshooting?$AA@ 00492b44     Dlgcode.obj
 0002:00006b60       ??_C@_0BL@LGNEPEIP@GostCrypt?5Rescue?5Disk?5Help?$AA@ 00492b60     Dlgcode.obj
 0002:00006b7c       ??_C@_0BH@DOMMMACL@How?5to?5Create?5Decoy?5OS?$AA@ 00492b7c     Dlgcode.obj
 0002:00006b94       ??_C@_0CK@GKLMBFMH@EXTRA_BOOT_PARTITION_REMOVAL_INS@ 00492b94     Dlgcode.obj
 0002:00006bc0       ??_C@_0CD@IBNJCEOK@How?5to?5Remove?5Extra?5Boot?5Partiti@ 00492bc0     Dlgcode.obj
 0002:00006be4       ??_C@_04OJAHODMC@Text?$AA@ 00492be4     Dlgcode.obj
 0002:00006bec       ??_C@_0BD@OAMDNKIF@IDD_RAWDEVICES_DLG?$AA@ 00492bec     Dlgcode.obj
 0002:00006c00       ??_C@_06CDNPEPDB@DEVICE?$AA@ 00492c00     Dlgcode.obj
 0002:00006c08       ??_C@_05JLAEHEHI@DRIVE?$AA@ 00492c08     Dlgcode.obj
 0002:00006c10       ??_C@_04EMFHLKGI@SIZE?$AA@ 00492c10     Dlgcode.obj
 0002:00006c18       ??_C@_05EILEDKCG@LABEL?$AA@ 00492c18     Dlgcode.obj
 0002:00006c20       ??_C@_0L@IJFHJLKD@RAWDEVICES?$AA@ 00492c20     Dlgcode.obj
 0002:00006c2c       ??_C@_0P@MBKJGBEM@REMOVABLE_DISK?$AA@ 00492c2c     Dlgcode.obj
 0002:00006c3c       ??_C@_1M@DJFDNGE@?$AA?$CF?$AAs?$AA?5?$AA?$CF?$AAd?$AA?$AA@ 00492c3c     Dlgcode.obj
 0002:00006c48       ??_C@_08IPBANHMA@HARDDISK?$AA@ 00492c48     Dlgcode.obj
 0002:00006c54       ??_C@_13EBCNDICG@?$AA?3?$AA?$AA@ 00492c54     Dlgcode.obj
 0002:00006c58       ??_C@_0CA@MMDKGOOF@FORMAT_DEVICE_FOR_ADVANCED_ONLY?$AA@ 00492c58     Dlgcode.obj
 0002:00006c78       ??_C@_0CN@DJPENAJO@CONFIRM_CHANGE_WIZARD_MODE_TO_FI@ 00492c78     Dlgcode.obj
 0002:00006ca8       ??_C@_0CJ@GBJECFP@DEVICE_PARTITIONS_ERR_W_INPLACE_@ 00492ca8     Dlgcode.obj
 0002:00006cd4       ??_C@_0CA@KIHOPKHK@WHOLE_NONSYS_DEVICE_ENC_CONFIRM?$AA@ 00492cd4     Dlgcode.obj
 0002:00006cf4       ??_C@_0BP@KPLJJAIG@System32?2drivers?2gostcrypt?4sys?$AA@ 00492cf4     Dlgcode.obj
 0002:00006d14       ??_C@_0BG@NAJKGDG@DRIVER_INSTALL_FAILED?$AA@ 00492d14     Dlgcode.obj
 0002:00006d2c       ??_C@_0P@ENPEEPKD@?2gostcrypt?4sys?$AA@ 00492d2c     Dlgcode.obj
 0002:00006d3c       ??_C@_0BD@MABFJNKI@?2gostcrypt?9x64?4sys?$AA@ 00492d3c     Dlgcode.obj
 0002:00006d50       ??_C@_0BB@DLIKOOJL@DRIVER_NOT_FOUND?$AA@ 00492d50     Dlgcode.obj
 0002:00006d64       ??_C@_0BI@HINAFLMC@ADMIN_PRIVILEGES_DRIVER?$AA@ 00492d64     Dlgcode.obj
 0002:00006d7c       ??_C@_0O@PFCBNFDJ@?2?2?4?2GostCrypt?$AA@ 00492d7c     Dlgcode.obj
 0002:00006d8c       ??_C@_0M@BLEDMAHO@GST_VOLUMES?$AA@ 00492d8c     Dlgcode.obj
 0002:00006d98       ??_C@_09EEODDAII@ALL_FILES?$AA@ 00492d98     Dlgcode.obj
 0002:00006da8       ??_C@_1EO@HPAMBPDO@?$AA?$CF?$AAl?$AAs?$AA?5?$AA?$CI?$AA?$CK?$AA?4?$AA?$CK?$AA?$CJ?$AA?$CF?$AAc?$AA?$CK?$AA?4?$AA?$CK?$AA?$CF?$AAc?$AA?$CF?$AAl?$AAs?$AA?5?$AA?$CI?$AA?$CK?$AA?4?$AAg?$AAs?$AAt?$AA?$CJ?$AA?$CF?$AAc?$AA?$CK?$AA?4?$AAg@ 00492da8     Dlgcode.obj
 0002:00006df8       ??_C@_0BK@LAEGKAMJ@PASSWORD_OR_KEYFILE_WRONG?$AA@ 00492df8     Dlgcode.obj
 0002:00006e14       ??_C@_0P@MKGPOAFK@PASSWORD_WRONG?$AA@ 00492e14     Dlgcode.obj
 0002:00006e24       ??_C@_0BL@JMLKAJFL@PASSWORD_WRONG_CAPSLOCK_ON?$AA@ 00492e24     Dlgcode.obj
 0002:00006e40       ??_C@_09IILMPLJM@NOT_FOUND?$AA@ 00492e40     Dlgcode.obj
 0002:00006e4c       ??_C@_0BB@HBDCANKP@OPENFILES_DRIVER?$AA@ 00492e4c     Dlgcode.obj
 0002:00006e60       ??_C@_0P@DNONBLBD@OPENFILES_LOCK?$AA@ 00492e60     Dlgcode.obj
 0002:00006e70       ??_C@_0P@HPMGPOAF@VOL_SIZE_WRONG?$AA@ 00492e70     Dlgcode.obj
 0002:00006e80       ??_C@_0BK@FLKCANLN@COMPRESSION_NOT_SUPPORTED?$AA@ 00492e80     Dlgcode.obj
 0002:00006e9c       ??_C@_0P@BKLABIJI@WRONG_VOL_TYPE?$AA@ 00492e9c     Dlgcode.obj
 0002:00006eac       ??_C@_0M@KFLNHABP@VOL_SEEKING?$AA@ 00492eac     Dlgcode.obj
 0002:00006eb8       ??_C@_0BI@BFLHAGLK@ERR_CIPHER_INIT_FAILURE?$AA@ 00492eb8     Dlgcode.obj
 0002:00006ed0       ??_C@_0BJ@DGGCCNCK@ERR_CIPHER_INIT_WEAK_KEY?$AA@ 00492ed0     Dlgcode.obj
 0002:00006eec       ??_C@_0BE@NEFDJEPG@VOL_ALREADY_MOUNTED?$AA@ 00492eec     Dlgcode.obj
 0002:00006f00       ??_C@_0BB@GLPAMHI@FILE_OPEN_FAILED?$AA@ 00492f00     Dlgcode.obj
 0002:00006f14       ??_C@_0BB@JCPIJGNN@VOL_MOUNT_FAILED?$AA@ 00492f14     Dlgcode.obj
 0002:00006f28       ??_C@_0P@ECPPAAM@NO_FREE_DRIVES?$AA@ 00492f28     Dlgcode.obj
 0002:00006f38       ??_C@_0O@ILOHOCOF@ACCESS_DENIED?$AA@ 00492f38     Dlgcode.obj
 0002:00006f48       ??_C@_0P@LICKOHFP@DRIVER_VERSION?$AA@ 00492f48     Dlgcode.obj
 0002:00006f58       ??_C@_0BF@LDKGLOCG@NEW_VERSION_REQUIRED?$AA@ 00492f58     Dlgcode.obj
 0002:00006f70       ??_C@_0BN@JLJPGHCL@ERR_ENCRYPTION_NOT_COMPLETED?$AA@ 00492f70     Dlgcode.obj
 0002:00006f90       ??_C@_0CC@BGLNMIMN@ERR_NONSYS_INPLACE_ENC_INCOMPLET@ 00492f90     Dlgcode.obj
 0002:00006fb4       ??_C@_0CF@MBJPLKGL@ERR_SYS_HIDVOL_HEAD_REENC_MODE_W@ 00492fb4     Dlgcode.obj
 0002:00006fdc       ??_C@_0BI@NIGJHOFH@ERR_PARAMETER_INCORRECT?$AA@ 00492fdc     Dlgcode.obj
 0002:00006ff4       ??_C@_0M@FDOCLIJD@ERR_UNKNOWN?$AA@ 00492ff4     Dlgcode.obj
 0002:00007000       ??_C@_0BE@BADKJOBO@CANNOT_WRITE_FILE_X?$AA@ 00493000     Dlgcode.obj
 0002:00007014       ??_C@_06LKBCGDFD@Button?$AA@ 00493014     Dlgcode.obj
 0002:0000701c       ??_C@_06KJMEDNIB@Static?$AA@ 0049301c     Dlgcode.obj
 0002:00007024       ??_C@_04CGJNICGF@?$CFc?3?2?$AA@ 00493024     Dlgcode.obj
 0002:0000702c       ??_C@_0O@DMIKDLEM@CabinetWClass?$AA@ 0049302c     Dlgcode.obj
 0002:0000703c       ??_C@_02LHCEJACP@GB?$AA@   0049303c     Dlgcode.obj
 0002:00007040       ??_C@_02KJEEINAG@TB?$AA@   00493040     Dlgcode.obj
 0002:00007044       ??_C@_02KOENCFNK@PB?$AA@   00493044     Dlgcode.obj
 0002:00007048       ??_C@_04ELFAHOMP@BYTE?$AA@ 00493048     Dlgcode.obj
 0002:00007050       ??_C@_1BA@PMDFMIGE@?$AA?$CF?$AA?4?$AA1?$AAf?$AA?5?$AA?$CF?$AAs?$AA?$AA@ 00493050     Dlgcode.obj
 0002:00007060       ??_C@_0L@JKBICCNN@KB_PER_SEC?$AA@ 00493060     Dlgcode.obj
 0002:0000706c       ??_C@_0L@HCKNOIJO@MB_PER_SEC?$AA@ 0049306c     Dlgcode.obj
 0002:00007078       ??_C@_0L@JAACLABK@GB_PER_SEC?$AA@ 00493078     Dlgcode.obj
 0002:00007084       ??_C@_0L@KHBGBCNA@TB_PER_SEC?$AA@ 00493084     Dlgcode.obj
 0002:00007090       ??_C@_0L@BHMPGBFC@PB_PER_SEC?$AA@ 00493090     Dlgcode.obj
 0002:0000709c       ??_C@_09OHHMGFOM@B_PER_SEC?$AA@ 0049309c     Dlgcode.obj
 0002:000070a8       ??_C@_0BB@CMDEHNDL@ERR_PERF_COUNTER?$AA@ 004930a8     Dlgcode.obj
 0002:000070bc       ??_C@_0BC@LMCINEGC@IDD_BENCHMARK_DLG?$AA@ 004930bc     Dlgcode.obj
 0002:000070d0       ??_C@_09KPCECDGB@ALGORITHM?$AA@ 004930d0     Dlgcode.obj
 0002:000070dc       ??_C@_04CKNGLJGJ@MEAN?$AA@ 004930dc     Dlgcode.obj
 0002:000070e4       ??_C@_0BJ@CAIGIJEE@ALPHABETICAL_CATEGORIZED?$AA@ 004930e4     Dlgcode.obj
 0002:00007100       ??_C@_0L@CNNDFAGN@MEAN_SPEED?$AA@ 00493100     Dlgcode.obj
 0002:0000710c       ??_C@_1O@LDNKGOGH@?$AA1?$AA0?$AA0?$AA?5?$AA?$CF?$AAs?$AA?$AA@ 0049310c     Dlgcode.obj
 0002:0000711c       ??_C@_1O@KKHGOBHM@?$AA5?$AA0?$AA0?$AA?5?$AA?$CF?$AAs?$AA?$AA@ 0049311c     Dlgcode.obj
 0002:0000712c       ??_C@_19EMNJIHCO@?$AA1?$AA?5?$AA?$CF?$AAs?$AA?$AA@ 0049312c     Dlgcode.obj
 0002:00007138       ??_C@_19EFDCCHFE@?$AA5?$AA?5?$AA?$CF?$AAs?$AA?$AA@ 00493138     Dlgcode.obj
 0002:00007144       ??_C@_1M@LEMIDIGC@?$AA1?$AA0?$AA?5?$AA?$CF?$AAs?$AA?$AA@ 00493144     Dlgcode.obj
 0002:00007150       ??_C@_1M@LHMOADBN@?$AA5?$AA0?$AA?5?$AA?$CF?$AAs?$AA?$AA@ 00493150     Dlgcode.obj
 0002:0000715c       ??_C@_1O@MPLLELLM@?$AA2?$AA0?$AA0?$AA?5?$AA?$CF?$AAs?$AA?$AA@ 0049315c     Dlgcode.obj
 0002:0000716c       ??_C@_0P@OLANKFFE@UISTR_DISABLED?$AA@ 0049316c     Dlgcode.obj
 0002:0000717c       ??_C@_0BC@OLBIFKJH@NUMBER_OF_THREADS?$AA@ 0049317c     Dlgcode.obj
 0002:00007190       ??_C@_0CJ@DPNMADAJ@LIMITED_THREAD_COUNT_AFFECTS_PER@ 00493190     Dlgcode.obj
 0002:000071bc       ??_C@_0BL@HFEGJCP@IDD_RANDOM_POOL_ENRICHMENT?$AA@ 004931bc     Dlgcode.obj
 0002:000071d8       ??_C@_0BG@HKFCCDBK@IDD_KEYFILE_GENERATOR?$AA@ 004931d8     Dlgcode.obj
 0002:000071f0       ??_C@_0BA@CBDNBIND@KEYFILE_CREATED?$AA@ 004931f0     Dlgcode.obj
 0002:00007200       ??_C@_0BE@LMGFCBMP@IDD_CIPHER_TEST_DLG?$AA@ 00493200     Dlgcode.obj
 0002:00007214       ??_C@_0N@ICLIKEKJ@TESTS_FAILED?$AA@ 00493214     Dlgcode.obj
 0002:00007224       ??_C@_0N@KEJMMFLH@TESTS_PASSED?$AA@ 00493224     Dlgcode.obj
 0002:00007234       ??_C@_0O@HIHJOOAG@TEST_KEY_SIZE?$AA@ 00493234     Dlgcode.obj
 0002:00007244       ??_C@_0BE@EILEFIMF@TEST_PLAINTEXT_SIZE?$AA@ 00493244     Dlgcode.obj
 0002:00007258       ??_C@_0BF@ONCDDKDD@TEST_CIPHERTEXT_SIZE?$AA@ 00493258     Dlgcode.obj
 0002:00007270       ??_C@_0CC@KLEPGHII@TEST_INCORRECT_SECONDARY_KEY_SIZ@ 00493270     Dlgcode.obj
 0002:00007294       ??_C@_0CD@CMIOHKDK@TEST_INCORRECT_TEST_DATA_UNIT_SI@ 00493294     Dlgcode.obj
 0002:000072b8       ??_C@_04NOJCDH@?$CF02x?$AA@ 004932b8     Dlgcode.obj
 0002:000072c0       ??_C@_02JLHCEMDI@64?$AA@   004932c0     Dlgcode.obj
 0002:000072c8       ??_C@_0EB@CBHPLKKO@00000000000000000000000000000000@ 004932c8     Dlgcode.obj
 0002:0000730c       ??_C@_01GBGANLPD@0?$AA@    0049330c     Dlgcode.obj
 0002:00007310       ??_C@_0BB@GHIALFFI@0000000000000000?$AA@ 00493310     Dlgcode.obj
 0002:00007324       ??_C@_03CPCFKGMH@256?$AA@  00493324     Dlgcode.obj
 0002:00007328       ??_C@_03KGFMDCCC@128?$AA@  00493328     Dlgcode.obj
 0002:00007330       ??_C@_0EB@JNGLHFFN@8899aabbccddeeff0011223344556677@ 00493330     Dlgcode.obj
 0002:00007374       ??_C@_0CB@NGEPPHFA@1122334455667700ffeeddccbbaa9988@ 00493374     Dlgcode.obj
 0002:00007398       ??_C@_0CB@KLIODADE@00000000000000000000000000000000@ 00493398     Dlgcode.obj
 0002:000073bc       ??_C@_0M@MKBGBFGO@CAPSLOCK_ON?$AA@ 004933bc     Dlgcode.obj
 0002:000073c8       ??_C@_04OOOHIFAO@?4asa?$AA@ 004933c8     Dlgcode.obj
 0002:000073d0       ??_C@_04LNDOKGBO@?4asp?$AA@ 004933d0     Dlgcode.obj
 0002:000073d8       ??_C@_05BNFEPADL@?4aspx?$AA@ 004933d8     Dlgcode.obj
 0002:000073e0       ??_C@_03DAKFKKAH@?4ax?$AA@ 004933e0     Dlgcode.obj
 0002:000073e4       ??_C@_04JLAECNCN@?4bas?$AA@ 004933e4     Dlgcode.obj
 0002:000073ec       ??_C@_04NEEFLLOK@?4bat?$AA@ 004933ec     Dlgcode.obj
 0002:000073f4       ??_C@_04GKHLBAIJ@?4bin?$AA@ 004933f4     Dlgcode.obj
 0002:000073fc       ??_C@_04DNKKNDNF@?4cer?$AA@ 004933fc     Dlgcode.obj
 0002:00007404       ??_C@_04PICIEOBI@?4chm?$AA@ 00493404     Dlgcode.obj
 0002:0000740c       ??_C@_04HILJPKAL@?4clb?$AA@ 0049340c     Dlgcode.obj
 0002:00007414       ??_C@_04CPCBDHLK@?4cmd?$AA@ 00493414     Dlgcode.obj
 0002:0000741c       ??_C@_04GHKFJLLC@?4cnt?$AA@ 0049341c     Dlgcode.obj
 0002:00007424       ??_C@_04FFJDPJDA@?4cnv?$AA@ 00493424     Dlgcode.obj
 0002:0000742c       ??_C@_04PNGHFIJN@?4com?$AA@ 0049342c     Dlgcode.obj
 0002:00007434       ??_C@_04PDAGINJB@?4cpl?$AA@ 00493434     Dlgcode.obj
 0002:0000743c       ??_C@_04NNKIFKME@?4cpx?$AA@ 0049343c     Dlgcode.obj
 0002:00007444       ??_C@_04HCJJMBKG@?4crt?$AA@ 00493444     Dlgcode.obj
 0002:0000744c       ??_C@_04JFCMPGMM@?4csh?$AA@ 0049344c     Dlgcode.obj
 0002:00007454       ??_C@_04HLONOPDM@?4dll?$AA@ 00493454     Dlgcode.obj
 0002:0000745c       ??_C@_04NNHIJLJN@?4drv?$AA@ 0049345c     Dlgcode.obj
 0002:00007464       ??_C@_04KBABJHPM@?4dtd?$AA@ 00493464     Dlgcode.obj
 0002:0000746c       ??_C@_04JLMDILM@?4exe?$AA@ 0049346c     Dlgcode.obj
 0002:00007474       ??_C@_04CMLMHBEG@?4fxp?$AA@ 00493474     Dlgcode.obj
 0002:0000747c       ??_C@_04JJJHJDPF@?4grp?$AA@ 0049347c     Dlgcode.obj
 0002:00007484       ??_C@_04JIAFODPJ@?4h1s?$AA@ 00493484     Dlgcode.obj
 0002:0000748c       ??_C@_04NHEMANNJ@?4hlp?$AA@ 0049348c     Dlgcode.obj
 0002:00007494       ??_C@_04JGKANMAB@?4hta?$AA@ 00493494     Dlgcode.obj
 0002:0000749c       ??_C@_04FJIHOGJP@?4ime?$AA@ 0049349c     Dlgcode.obj
 0002:000074a4       ??_C@_04HAOMALAF@?4inf?$AA@ 004934a4     Dlgcode.obj
 0002:000074ac       ??_C@_04EHFJONBB@?4ins?$AA@ 004934ac     Dlgcode.obj
 0002:000074b4       ??_C@_04HIIKIOPB@?4isp?$AA@ 004934b4     Dlgcode.obj
 0002:000074bc       ??_C@_04FGOIMLLH@?4its?$AA@ 004934bc     Dlgcode.obj
 0002:000074c4       ??_C@_03NPAEJMCN@?4js?$AA@ 004934c4     Dlgcode.obj
 0002:000074c8       ??_C@_04FNIKMHAL@?4jse?$AA@ 004934c8     Dlgcode.obj
 0002:000074d0       ??_C@_04FAJINOCD@?4ksh?$AA@ 004934d0     Dlgcode.obj
 0002:000074d8       ??_C@_04PCJMIFHK@?4lnk?$AA@ 004934d8     Dlgcode.obj
 0002:000074e0       ??_C@_04MGOELJON@?4mad?$AA@ 004934e0     Dlgcode.obj
 0002:000074e8       ??_C@_04PENCNLGP@?4maf?$AA@ 004934e8     Dlgcode.obj
 0002:000074f0       ??_C@_04ONMJOKCO@?4mag?$AA@ 004934f0     Dlgcode.obj
 0002:000074f8       ??_C@_04BHCGACKE@?4mam?$AA@ 004934f8     Dlgcode.obj
 0002:00007500       ??_C@_04DMALFBGH@?4man?$AA@ 00493500     Dlgcode.obj
 0002:00007508       ??_C@_04PBFBFPPJ@?4maq?$AA@ 00493508     Dlgcode.obj
 0002:00007510       ??_C@_04NKHMAMDK@?4mar?$AA@ 00493510     Dlgcode.obj
 0002:00007518       ??_C@_04MDGHDNHL@?4mas?$AA@ 00493518     Dlgcode.obj
 0002:00007520       ??_C@_04IMCGKLLM@?4mat?$AA@ 00493520     Dlgcode.obj
 0002:00007528       ??_C@_04JFDNJKPN@?4mau?$AA@ 00493528     Dlgcode.obj
 0002:00007530       ??_C@_04LOBAMJDO@?4mav?$AA@ 00493530     Dlgcode.obj
 0002:00007538       ??_C@_04KHALPIHP@?4maw?$AA@ 00493538     Dlgcode.obj
 0002:00007540       ??_C@_04LNFIIPED@?4mda?$AA@ 00493540     Dlgcode.obj
 0002:00007548       ??_C@_04JGHFNMIA@?4mdb?$AA@ 00493548     Dlgcode.obj
 0002:00007550       ??_C@_04NJDEEKEH@?4mde?$AA@ 00493550     Dlgcode.obj
 0002:00007558       ??_C@_04IKONGJFH@?4mdt?$AA@ 00493558     Dlgcode.obj
 0002:00007560       ??_C@_04KBMADKJE@?4mdw?$AA@ 00493560     Dlgcode.obj
 0002:00007568       ??_C@_04BEGOEENJ@?4mdz?$AA@ 00493568     Dlgcode.obj
 0002:00007570       ??_C@_04JGAHFIDE@?4msc?$AA@ 00493570     Dlgcode.obj
 0002:00007578       ??_C@_04GMOILALO@?4msi?$AA@ 00493578     Dlgcode.obj
 0002:00007580       ??_C@_04PHOIBJKG@?4msp?$AA@ 00493580     Dlgcode.obj
 0002:00007588       ??_C@_04JDIENMKC@?4mst?$AA@ 00493588     Dlgcode.obj
 0002:00007590       ??_C@_04GIGFMMAM@?4mui?$AA@ 00493590     Dlgcode.obj
 0002:00007598       ??_C@_04NJAKABMG@?4nls?$AA@ 00493598     Dlgcode.obj
 0002:000075a0       ??_C@_04IJBOPIFF@?4ocx?$AA@ 004935a0     Dlgcode.obj
 0002:000075a8       ??_C@_04HEIKDMLH@?4ops?$AA@ 004935a8     Dlgcode.obj
 0002:000075b0       ??_C@_04KMEOLMKH@?4pal?$AA@ 004935b0     Dlgcode.obj
 0002:000075b8       ??_C@_04GHBDOCMB@?4pcd?$AA@ 004935b8     Dlgcode.obj
 0002:000075c0       ??_C@_04FILCAFJF@?4pif?$AA@ 004935c0     Dlgcode.obj
 0002:000075c8       ??_C@_04EIMBEJAE@?4prf?$AA@ 004935c8     Dlgcode.obj
 0002:000075d0       ??_C@_04FBNKHIEF@?4prg?$AA@ 004935d0     Dlgcode.obj
 0002:000075d8       ??_C@_04DBPHFDOA@?4pst?$AA@ 004935d8     Dlgcode.obj
 0002:000075e0       ??_C@_04OCLKAFDL@?4reg?$AA@ 004935e0     Dlgcode.obj
 0002:000075e8       ??_C@_04EHJACPKN@?4scf?$AA@ 004935e8     Dlgcode.obj
 0002:000075f0       ??_C@_04GJDOPIPI@?4scr?$AA@ 004935f0     Dlgcode.obj
 0002:000075f8       ??_C@_04DPGEFPHO@?4sct?$AA@ 004935f8     Dlgcode.obj
 0002:00007600       ??_C@_04CPKJAFEI@?4shb?$AA@ 00493600     Dlgcode.obj
 0002:00007608       ??_C@_04HMHACGFI@?4shs?$AA@ 00493608     Dlgcode.obj
 0002:00007610       ??_C@_04GBJEOPBP@?4sys?$AA@ 00493610     Dlgcode.obj
 0002:00007618       ??_C@_04LFHHJFCN@?4tlb?$AA@ 00493618     Dlgcode.obj
 0002:00007620       ??_C@_04NKPJABLD@?4tsp?$AA@ 00493620     Dlgcode.obj
 0002:00007628       ??_C@_04IFPAFBLM@?4url?$AA@ 00493628     Dlgcode.obj
 0002:00007630       ??_C@_03JJOBOFCJ@?4vb?$AA@ 00493630     Dlgcode.obj
 0002:00007634       ??_C@_04FKKBOGGL@?4vbe?$AA@ 00493634     Dlgcode.obj
 0002:0000763c       ??_C@_04EGDJFDLM@?4vbs?$AA@ 0049363c     Dlgcode.obj
 0002:00007644       ??_C@_09JNHDLKLO@?4vsmacros?$AA@ 00493644     Dlgcode.obj
 0002:00007650       ??_C@_04FLNNJKPL@?4vss?$AA@ 00493650     Dlgcode.obj
 0002:00007658       ??_C@_04BEJMAMDM@?4vst?$AA@ 00493658     Dlgcode.obj
 0002:00007660       ??_C@_04DPLBFPPP@?4vsw?$AA@ 00493660     Dlgcode.obj
 0002:00007668       ??_C@_03MLPKKMAO@?4ws?$AA@ 00493668     Dlgcode.obj
 0002:0000766c       ??_C@_04KJKDOPMP@?4wsc?$AA@ 0049366c     Dlgcode.obj
 0002:00007674       ??_C@_04NENEBLIK@?4wsf?$AA@ 00493674     Dlgcode.obj
 0002:0000767c       ??_C@_04EKFHDGAE@?4wsh?$AA@ 0049367c     Dlgcode.obj
 0002:00007684       ??_C@_04LOIBGJFO@?4xsd?$AA@ 00493684     Dlgcode.obj
 0002:0000768c       ??_C@_04HGFIODFG@?4xsl?$AA@ 0049368c     Dlgcode.obj
 0002:00007694       ??_C@_04GNGOLJF@?4386?$AA@ 00493694     Dlgcode.obj
 0002:0000769c       ??_C@_04FOHEGJHC@?4acm?$AA@ 0049369c     Dlgcode.obj
 0002:000076a4       ??_C@_04JDOCPFPP@?4ade?$AA@ 004936a4     Dlgcode.obj
 0002:000076ac       ??_C@_04KEFHBDOL@?4adp?$AA@ 004936ac     Dlgcode.obj
 0002:000076b4       ??_C@_04DCMADPCF@?4ani?$AA@ 004936b4     Dlgcode.obj
 0002:000076bc       ??_C@_04LPHIBIEH@?4app?$AA@ 004936bc     Dlgcode.obj
 0002:000076c4       ??_C@_04JDJAHBEL@?4asd?$AA@ 004936c4     Dlgcode.obj
 0002:000076cc       ??_C@_04KBKGBDMJ@?4asf?$AA@ 004936cc     Dlgcode.obj
 0002:000076d4       ??_C@_04HFOHCMBG@?4asx?$AA@ 004936d4     Dlgcode.obj
 0002:000076dc       ??_C@_04HCOOIEMK@?4awx?$AA@ 004936dc     Dlgcode.obj
 0002:000076e4       ??_C@_04HHONFNHK@?4boo?$AA@ 004936e4     Dlgcode.obj
 0002:000076ec       ??_C@_04GCBFBPPI@?4bz2?$AA@ 004936ec     Dlgcode.obj
 0002:000076f4       ??_C@_04BCMGGOLH@?4cdf?$AA@ 004936f4     Dlgcode.obj
 0002:000076fc       ??_C@_06POIMOJKC@?4class?$AA@ 004936fc     Dlgcode.obj
 0002:00007704       ??_C@_05GCBAOBBN@?4dhtm?$AA@ 00493704     Dlgcode.obj
 0002:0000770c       ??_C@_06KKCMFIJD@?4dhtml?$AA@ 0049370c     Dlgcode.obj
 0002:00007714       ??_C@_04FAMALMPP@?4dlo?$AA@ 00493714     Dlgcode.obj
 0002:0000771c       ??_C@_04DIHMAKOE@?4emf?$AA@ 0049371c     Dlgcode.obj
 0002:00007724       ??_C@_04MCJDOCGO@?4eml?$AA@ 00493724     Dlgcode.obj
 0002:0000772c       ??_C@_04FDPPLPOO@?4flt?$AA@ 0049372c     Dlgcode.obj
 0002:00007734       ??_C@_04FBLJABLH@?4fot?$AA@ 00493734     Dlgcode.obj
 0002:0000773c       ??_C@_03GBOLEDH@?4gz?$AA@  0049373c     Dlgcode.obj
 0002:00007740       ??_C@_04DKBFJDAN@?4htm?$AA@ 00493740     Dlgcode.obj
 0002:00007748       ??_C@_05LHMDENIF@?4html?$AA@ 00493748     Dlgcode.obj
 0002:00007750       ??_C@_04PHHEBHMK@?4ini?$AA@ 00493750     Dlgcode.obj
 0002:00007758       ??_C@_04LCFBANHC@?4j2k?$AA@ 00493758     Dlgcode.obj
 0002:00007760       ??_C@_04EHKLDEID@?4jar?$AA@ 00493760     Dlgcode.obj
 0002:00007768       ??_C@_04GMEKPFFD@?4jff?$AA@ 00493768     Dlgcode.obj
 0002:00007770       ??_C@_04GHBGLCGO@?4jif?$AA@ 00493770     Dlgcode.obj
 0002:00007778       ??_C@_04POJMDHDM@?4jmh?$AA@ 00493778     Dlgcode.obj
 0002:00007780       ??_C@_04HLECJFKK@?4jng?$AA@ 00493780     Dlgcode.obj
 0002:00007788       ??_C@_04KKDGLCMB@?4jp2?$AA@ 00493788     Dlgcode.obj
 0002:00007790       ??_C@_04FPMMHJFC@?4jpe?$AA@ 00493790     Dlgcode.obj
 0002:00007798       ??_C@_05KPIGABMB@?4jpeg?$AA@ 00493798     Dlgcode.obj
 0002:000077a0       ??_C@_04GNPKBLNA@?4jpg?$AA@ 004937a0     Dlgcode.obj
 0002:000077a8       ??_C@_04EPFEHOMD@?4lsp?$AA@ 004937a8     Dlgcode.obj
 0002:000077b0       ??_C@_04MMHKJEOH@?4mod?$AA@ 004937b0     Dlgcode.obj
 0002:000077b8       ??_C@_04MJHJENFH@?4nws?$AA@ 004937b8     Dlgcode.obj
 0002:000077c0       ??_C@_04PACIOCLB@?4obj?$AA@ 004937c0     Dlgcode.obj
 0002:000077c8       ??_C@_04DCGPEFLD@?4olb?$AA@ 004937c8     Dlgcode.obj
 0002:000077d0       ??_C@_04HDEPAGHI@?4osd?$AA@ 004937d0     Dlgcode.obj
 0002:000077d8       ??_C@_04LCEIGNIC@?4ov1?$AA@ 004937d8     Dlgcode.obj
 0002:000077e0       ??_C@_04JJGFDOEB@?4ov2?$AA@ 004937e0     Dlgcode.obj
 0002:000077e8       ??_C@_04IAHOAPAA@?4ov3?$AA@ 004937e8     Dlgcode.obj
 0002:000077f0       ??_C@_04LNFNEOJL@?4ovl?$AA@ 004937f0     Dlgcode.obj
 0002:000077f8       ??_C@_04GJBMHBEE@?4ovr?$AA@ 004937f8     Dlgcode.obj
 0002:00007800       ??_C@_04HOMEEBJD@?4pdr?$AA@ 00493800     Dlgcode.obj
 0002:00007808       ??_C@_04LBNIPBFE@?4pgm?$AA@ 00493808     Dlgcode.obj
 0002:00007810       ??_C@_04EFOINKHF@?4php?$AA@ 00493810     Dlgcode.obj
 0002:00007818       ??_C@_04ECCNOALK@?4pkg?$AA@ 00493818     Dlgcode.obj
 0002:00007820       ??_C@_03DOPLEBF@?4pl?$AA@  00493820     Dlgcode.obj
 0002:00007824       ??_C@_04EEOGCCFB@?4png?$AA@ 00493824     Dlgcode.obj
 0002:0000782c       ??_C@_04CEMLAJPE@?4pot?$AA@ 0049382c     Dlgcode.obj
 0002:00007834       ??_C@_04HMPAHLHO@?4pps?$AA@ 00493834     Dlgcode.obj
 0002:0000783c       ??_C@_04DDLBONLJ@?4ppt?$AA@ 0049383c     Dlgcode.obj
 0002:00007844       ??_C@_04LMPJOIKA@?4ps1?$AA@ 00493844     Dlgcode.obj
 0002:0000784c       ??_C@_07KMHCJKCL@?4ps1xml?$AA@ 0049384c     Dlgcode.obj
 0002:00007854       ??_C@_05HPAPKHGM@?4psc1?$AA@ 00493854     Dlgcode.obj
 0002:0000785c       ??_C@_04NCAGELPD@?4rar?$AA@ 0049385c     Dlgcode.obj
 0002:00007864       ??_C@_04BLKDLNGL@?4rpl?$AA@ 00493864     Dlgcode.obj
 0002:0000786c       ??_C@_04OGEFPNDN@?4rtf?$AA@ 0049386c     Dlgcode.obj
 0002:00007874       ??_C@_04EGFCEFJK@?4sbf?$AA@ 00493874     Dlgcode.obj
 0002:0000787c       ??_C@_07PPFPDIDE@?4script?$AA@ 0049387c     Dlgcode.obj
 0002:00007884       ??_C@_03GFMFMPEI@?4sh?$AA@ 00493884     Dlgcode.obj
 0002:00007888       ??_C@_04EIEFGIL@?4sha?$AA@ 00493888     Dlgcode.obj
 0002:00007890       ??_C@_05LANAKKIP@?4shtm?$AA@ 00493890     Dlgcode.obj
 0002:00007898       ??_C@_06LEPPGKLA@?4shtml?$AA@ 00493898     Dlgcode.obj
 0002:000078a0       ??_C@_04KDBPNKAO@?4spl?$AA@ 004938a0     Dlgcode.obj
 0002:000078a8       ??_C@_04FMLPCEAB@?4swf?$AA@ 004938a8     Dlgcode.obj
 0002:000078b0       ??_C@_04PHGNBECP@?4tar?$AA@ 004938b0     Dlgcode.obj
 0002:000078b8       ??_C@_04DLDJOCJF@?4tgz?$AA@ 004938b8     Dlgcode.obj
 0002:000078c0       ??_C@_04MMEBIPMJ@?4tmp?$AA@ 004938c0     Dlgcode.obj
 0002:000078c8       ??_C@_04MDCOKCOB@?4ttf?$AA@ 004938c8     Dlgcode.obj
 0002:000078d0       ??_C@_04EHPLDJIL@?4vcs?$AA@ 004938d0     Dlgcode.obj
 0002:000078d8       ??_C@_04JIOGEBGJ@?4vlm?$AA@ 004938d8     Dlgcode.obj
 0002:000078e0       ??_C@_04FCALPBIM@?4vxd?$AA@ 004938e0     Dlgcode.obj
 0002:000078e8       ??_C@_04LBPPCIEH@?4vxo?$AA@ 004938e8     Dlgcode.obj
 0002:000078f0       ??_C@_04CDBCGAHB@?4wiz?$AA@ 004938f0     Dlgcode.obj
 0002:000078f8       ??_C@_04DJEBBHEN@?4wll?$AA@ 004938f8     Dlgcode.obj
 0002:00007900       ??_C@_04PAFKPHHC@?4wmd?$AA@ 00493900     Dlgcode.obj
 0002:00007908       ??_C@_04MCGMJFPA@?4wmf?$AA@ 00493908     Dlgcode.obj
 0002:00007910       ??_C@_04PFNJHDOE@?4wms?$AA@ 00493910     Dlgcode.obj
 0002:00007918       ??_C@_04CEBLMIKN@?4wmz?$AA@ 00493918     Dlgcode.obj
 0002:00007920       ??_C@_04KLOFFBJG@?4wpc?$AA@ 00493920     Dlgcode.obj
 0002:00007928       ??_C@_04GGHDMNBL@?4wwk?$AA@ 00493928     Dlgcode.obj
 0002:00007930       ??_C@_05MHAAJLJO@?4xhtm?$AA@ 00493930     Dlgcode.obj
 0002:00007938       ??_C@_06NODIJKHD@?4xhtml?$AA@ 00493938     Dlgcode.obj
 0002:00007940       ??_C@_03NPMOFKN@?4xl?$AA@  00493940     Dlgcode.obj
 0002:00007944       ??_C@_04GAOAGNCM@?4xml?$AA@ 00493944     Dlgcode.obj
 0002:0000794c       ??_C@_04CLJHFACG@?4zip?$AA@ 0049394c     Dlgcode.obj
 0002:00007954       ??_C@_03GKKCJKIH@?47z?$AA@ 00493954     Dlgcode.obj
 0002:00007958       ??_C@_1DA@HFFKBABD@?$AA?2?$AAD?$AAe?$AAv?$AAi?$AAc?$AAe?$AA?2?$AAG?$AAo?$AAs?$AAt?$AAC?$AAr?$AAy?$AAp?$AAt?$AAV?$AAo?$AAl?$AAu?$AAm?$AAe?$AA?$AA@ 00493958     Dlgcode.obj
 0002:00007988       ??_C@_05EMECODII@?$CFls?$CFc?$AA@ 00493988     Dlgcode.obj
 0002:00007990       ??_C@_0BJ@PCMNJMOK@DRIVE_LETTER_UNAVAILABLE?$AA@ 00493990     Dlgcode.obj
 0002:000079ac       ??_C@_04HMNMCKMH@?2?2?$DP?2?$AA@ 004939ac     Dlgcode.obj
 0002:000079b4       ??_C@_07HBPFMAGN@Volume?$HL?$AA@ 004939b4     Dlgcode.obj
 0002:000079bc       ??_C@_02EKJJMPLG@?$HN?2?$AA@ 004939bc     Dlgcode.obj
 0002:000079c0       ??_C@_02HDBGODGB@?2?2?$AA@ 004939c0     Dlgcode.obj
 0002:000079c4       ??_C@_03IDDIGDHP@UNC?$AA@  004939c4     Dlgcode.obj
 0002:000079c8       ??_C@_1DK@KHADBPEJ@?$AA?2?$AAD?$AAe?$AAv?$AAi?$AAc?$AAe?$AA?2?$AAH?$AAa?$AAr?$AAd?$AAd?$AAi?$AAs?$AAk?$AA?$CF?$AAd?$AA?2?$AAP?$AAa?$AAr?$AAt?$AAi?$AAt?$AAi?$AAo?$AAn?$AA?$AA@ 004939c8     Dlgcode.obj
 0002:00007a04       ??_C@_0BD@NBNNICAF@FILE_IN_USE_FAILED?$AA@ 00493a04     Dlgcode.obj
 0002:00007a18       ??_C@_0M@CLFBJLHD@FILE_IN_USE?$AA@ 00493a18     Dlgcode.obj
 0002:00007a24       ??_C@_0BN@CEPHIDFC@?2Device?2Harddisk?$CFd?2Partition?$AA@ 00493a24     Dlgcode.obj
 0002:00007a44       ??_C@_1DM@FMJIKGBL@?$AA?2?$AAD?$AAe?$AAv?$AAi?$AAc?$AAe?$AA?2?$AAH?$AAa?$AAr?$AAd?$AAd?$AAi?$AAs?$AAk?$AA?$CF?$AAd?$AA?2?$AAP?$AAa?$AAr?$AAt?$AAi?$AAt?$AAi?$AAo?$AAn?$AA0?$AA?$AA@ 00493a44     Dlgcode.obj
 0002:00007a80       ??_C@_0CI@EOBACLIE@HIDDEN_VOL_PROT_PASSWORD_US_KEYB@ 00493a80     Dlgcode.obj
 0002:00007aa8       ??_C@_0CE@NGBHCJPO@HEADER_DAMAGED_AUTO_USED_HEADER_@ 00493aa8     Dlgcode.obj
 0002:00007acc       ??_C@_0BF@GHMEOCNL@MOUNTED_VOLUME_DIRTY?$AA@ 00493acc     Dlgcode.obj
 0002:00007ae4       ??_C@_0CD@HGDBCKJG@MOUNTED_CONTAINER_FORCED_READ_ON@ 00493ae4     Dlgcode.obj
 0002:00007b08       ??_C@_0CA@HAHCAFMF@MOUNTED_DEVICE_FORCED_READ_ONLY?$AA@ 00493b08     Dlgcode.obj
 0002:00007b28       ??_C@_0DB@LCJCCDBH@MOUNTED_DEVICE_FORCED_READ_ONLY_@ 00493b28     Dlgcode.obj
 0002:00007b5c       ??_C@_0BH@GHLJCPDI@?2Device?2HarddiskVolume?$AA@ 00493b5c     Dlgcode.obj
 0002:00007b74       ??_C@_0CD@MHPFPHDI@ASK_REMOVE_DEVICE_WRITE_PROTECTI@ 00493b74     Dlgcode.obj
 0002:00007b98       ??_C@_0BE@NAPDCKKE@UNMOUNT_LOCK_FAILED?$AA@ 00493b98     Dlgcode.obj
 0002:00007bac       ??_C@_0P@INOOLPM@UNMOUNT_FAILED?$AA@ 00493bac     Dlgcode.obj
 0002:00007bbc       ??_C@_06OLPECHEJ@?2?$DP?$DP?2?$CFs?$AA@ 00493bbc     Dlgcode.obj
 0002:00007bc4       ??_C@_0DK@IFNHFOHB@Software?2Microsoft?2Windows?2Curre@ 00493bc4     Dlgcode.obj
 0002:00007c00       ??_C@_09IMBMLODE@EnableLUA?$AA@ 00493c00     Dlgcode.obj
 0002:00007c0c       ??_C@_1BK@LABJKOM@?$AA?2?$AAD?$AAo?$AAs?$AAD?$AAe?$AAv?$AAi?$AAc?$AAe?$AAs?$AA?2?$AA?$AA@ 00493c0c     Dlgcode.obj
 0002:00007c28       ??_C@_04IOIMBAGL@?1p?5?$CC?$AA@ 00493c28     Dlgcode.obj
 0002:00007c30       ??_C@_02DEBJNODD@?$PP?$PO?$AA@ 00493c30     Dlgcode.obj
 0002:00007c34       ??_C@_07MAJILGNB@notepad?$AA@ 00493c34     Dlgcode.obj
 0002:00007c3c       ??_C@_0M@GKPCCOCO@?2GostCrypt?2?$AA@ 00493c3c     Dlgcode.obj
 0002:00007c48       ??_C@_0DO@MNMIDBOE@Software?2Microsoft?2Windows?2Curre@ 00493c48     Dlgcode.obj
 0002:00007c88       ??_C@_0BK@NFGDLGMG@?$CC?5?1q?5preferences?5?1a?5logon?$AA@ 00493c88     Dlgcode.obj
 0002:00007ca4       ??_C@_0M@JCEADJGE@?5?1a?5devices?$AA@ 00493ca4     Dlgcode.obj
 0002:00007cb0       ??_C@_0O@LOPOCHJI@?5?1a?5favorites?$AA@ 00493cb0     Dlgcode.obj
 0002:00007cc0       ??_C@_02KOPDJAMB@?$CC?5?$AA@ 00493cc0     Dlgcode.obj
 0002:00007cc4       ??_C@_0BB@GBMFPGPM@GostCrypt?5Format?$AA@ 00493cc4     Dlgcode.obj
 0002:00007cd8       ??_C@_04MBHGDIPH@Pidl?$AA@ 00493cd8     Dlgcode.obj
 0002:00007ce0       ??_C@_0EN@FCPBNDLP@Software?2Microsoft?2Windows?2Curre@ 00493ce0     Dlgcode.obj
 0002:00007d30       ??_C@_02HAOIJKIC@?$CFc?$AA@ 00493d30     Dlgcode.obj
 0002:00007d34       ??_C@_0BE@KHAIBFAM@CLEAN_WINMRU_FAILED?$AA@ 00493d34     Dlgcode.obj
 0002:00007d48       ??_C@_09FBJLNPFF@MRUListEx?$AA@ 00493d48     Dlgcode.obj
 0002:00007d58       ??_C@_0EP@FIHCEBDK@Software?2Microsoft?2Windows?2Curre@ 00493d58     Dlgcode.obj
 0002:00007da8       ??_C@_07GIFPBEK@MRUList?$AA@ 00493da8     Dlgcode.obj
 0002:00007db0       ??_C@_0EL@PILLFCOM@Software?2Microsoft?2Windows?2Curre@ 00493db0     Dlgcode.obj
 0002:00007dfc       ??_C@_0BJ@FNCHKEAA@GetSystemWow64DirectoryA?$AA@ 00493dfc     Dlgcode.obj
 0002:00007e18       ??_C@_08PNLNEKOB@kernel32?$AA@ 00493e18     Dlgcode.obj
 0002:00007e24       ??_C@_1BE@NJGOLFGO@?$AAG?$AAo?$AAs?$AAt?$AAC?$AAr?$AAy?$AAp?$AAt?$AA?$AA@ 00493e24     Dlgcode.obj
 0002:00007e38       ??_C@_0BC@FNANDAA@Configuration?4xml?$AA@ 00493e38     Dlgcode.obj
 0002:00007e4c       ??_C@_0BC@COHEMPD@?6?7?$DMconfiguration?$DO?$AA@ 00493e4c     Dlgcode.obj
 0002:00007e60       ??_C@_0CA@EGANCHGG@?6?7?7?$DMconfig?5key?$DN?$CC?$CFs?$CC?$DO?$CFs?$DM?1config?$DO?$AA@ 00493e60     Dlgcode.obj
 0002:00007e80       ??_C@_0BD@CKNEEBKA@?6?7?$DM?1configuration?$DO?$AA@ 00493e80     Dlgcode.obj
 0002:00007e94       ??_C@_0BC@HCJJOEDJ@HELP_READER_ERROR?$AA@ 00493e94     Dlgcode.obj
 0002:00007ea8       ??_C@_0BF@CEDLNBLM@Default?5Keyfiles?4xml?$AA@ 00493ea8     Dlgcode.obj
 0002:00007ec0       ??_C@_07OLOEDEPC@keyfile?$AA@ 00493ec0     Dlgcode.obj
 0002:00007ec8       ??_C@_0P@LKABJJMO@IsWow64Process?$AA@ 00493ec8     Dlgcode.obj
 0002:00007ed8       ??_C@_0BE@POPFGFGJ@SeShutdownPrivilege?$AA@ 00493ed8     Dlgcode.obj
 0002:00007eec       ??_C@_03JECLAOEA@win?$AA@  00493eec     Dlgcode.obj
 0002:00007ef0       ??_C@_0CN@LCMFDIEF@SOFTWARE?2Microsoft?2Windows?5NT?2Cu@ 00493ef0     Dlgcode.obj
 0002:00007f20       ??_C@_0M@MNPNDAHP@ProductName?$AA@ 00493f20     Dlgcode.obj
 0002:00007f2c       ??_C@_04OJDKMIMG@2000?$AA@ 00493f2c     Dlgcode.obj
 0002:00007f34       ??_C@_02HFGDGGPD@xp?$AA@   00493f34     Dlgcode.obj
 0002:00007f38       ??_C@_05GHINFEPM@?9home?$AA@ 00493f38     Dlgcode.obj
 0002:00007f40       ??_C@_04NOKDIIJN@?9pro?$AA@ 00493f40     Dlgcode.obj
 0002:00007f48       ??_C@_04MCBHJLAF@2003?$AA@ 00493f48     Dlgcode.obj
 0002:00007f50       ??_C@_05FBPADAKE@vista?$AA@ 00493f50     Dlgcode.obj
 0002:00007f58       ??_C@_04CBODECMO@2008?$AA@ 00493f58     Dlgcode.obj
 0002:00007f60       ??_C@_01COCBENDE@7?$AA@    00493f60     Dlgcode.obj
 0002:00007f64       ??_C@_06HHKOBDNA@2008r2?$AA@ 00493f64     Dlgcode.obj
 0002:00007f6c       ??_C@_07ODEEFNBO@?9server?$AA@ 00493f6c     Dlgcode.obj
 0002:00007f74       ??_C@_08NMMAHDIF@Standard?$AA@ 00493f74     Dlgcode.obj
 0002:00007f80       ??_C@_09OBBBAFJO@?9standard?$AA@ 00493f80     Dlgcode.obj
 0002:00007f8c       ??_C@_0N@KIDDKEAC@Professional?$AA@ 00493f8c     Dlgcode.obj
 0002:00007f9c       ??_C@_08IHAGPJCB@Business?$AA@ 00493f9c     Dlgcode.obj
 0002:00007fa8       ??_C@_09LKNHIPDK@?9business?$AA@ 00493fa8     Dlgcode.obj
 0002:00007fb4       ??_C@_0L@DCNJHNHF@Enterprise?$AA@ 00493fb4     Dlgcode.obj
 0002:00007fc0       ??_C@_0M@CCIJFPDH@?9enterprise?$AA@ 00493fc0     Dlgcode.obj
 0002:00007fcc       ??_C@_0L@OOPFNAF@Datacenter?$AA@ 00493fcc     Dlgcode.obj
 0002:00007fd8       ??_C@_0M@BOLPHPEH@?9datacenter?$AA@ 00493fd8     Dlgcode.obj
 0002:00007fe4       ??_C@_08DIOBIMMC@Ultimate?$AA@ 00493fe4     Dlgcode.obj
 0002:00007ff0       ??_C@_09FDAPKNJ@?9ultimate?$AA@ 00493ff0     Dlgcode.obj
 0002:00007ffc       ??_C@_08KHECKGMK@?9starter?$AA@ 00493ffc     Dlgcode.obj
 0002:00008008       ??_C@_05NIKDGMHP@Basic?$AA@ 00494008     Dlgcode.obj
 0002:00008010       ??_C@_06FNMLEPMI@?9basic?$AA@ 00494010     Dlgcode.obj
 0002:00008018       ??_C@_04DFMLABPB@?9x64?$AA@ 00494018     Dlgcode.obj
 0002:00008020       ??_C@_03PFGLPIPP@?9sp?$AA@ 00494020     Dlgcode.obj
 0002:00008024       ??_C@_0CL@PBEPCFPL@SYSTEM?2CurrentControlSet?2Service@ 00494024     Dlgcode.obj
 0002:00008050       ??_C@_0M@PNKDIFLK@NoAutoMount?$AA@ 00494050     Dlgcode.obj
 0002:0000805c       ??_C@_0BH@DCKIMKAI@SYS_AUTOMOUNT_DISABLED?$AA@ 0049405c     Dlgcode.obj
 0002:00008074       ??_C@_0BI@GBJLPDI@SYS_ASSIGN_DRIVE_LETTER?$AA@ 00494074     Dlgcode.obj
 0002:0000808c       ??_C@_0BH@KELIABGB@DEVICE_NOT_READY_ERROR?$AA@ 0049408c     Dlgcode.obj
 0002:000080a4       ??_C@_0BH@GEMJKNEE@INCONSISTENCY_RESOLVED?$AA@ 004940a4     Dlgcode.obj
 0002:000080bc       ??_C@_0BB@FLLBKCCB@UNEXPECTED_STATE?$AA@ 004940bc     Dlgcode.obj
 0002:000080d0       ??_C@_06EFIGOLMA@?2?2?4?2X?3?$AA@ 004940d0     Dlgcode.obj
 0002:000080d8       ??_C@_0BA@OFMBGJKB@X?3?2pagefile?4sys?$AA@ 004940d8     Dlgcode.obj
 0002:000080e8       ??_C@_03EJABLKAK@?$DP?3?2?$AA@ 004940e8     Dlgcode.obj
 0002:000080ec       ??_C@_0BD@PPCCOPON@IDD_TOKEN_PASSWORD?$AA@ 004940ec     Dlgcode.obj
 0002:00008100       ??_C@_0BF@EKLCPBAN@ENTER_TOKEN_PASSWORD?$AA@ 00494100     Dlgcode.obj
 0002:0000811c       ??_7?$ContainerForward@V?$list@USecurityTokenInfo@GostCrypt@@V?$allocator@USecurityTokenInfo@GostCrypt@@@std@@@std@@@ForEach@GostCrypt@@6B@ 0049411c     Dlgcode.obj
 0002:00008128       ??_C@_0BG@LFJKCHMB@IDD_NEW_TOKEN_KEYFILE?$AA@ 00494128     Dlgcode.obj
 0002:00008140       ??_C@_0BA@PNGOBCAF@NO_TOKENS_FOUND?$AA@ 00494140     Dlgcode.obj
 0002:00008150       ??_C@_15FOBPOKEL@?$AA?$FN?$AA?5?$AA?$AA@ 00494150     Dlgcode.obj
 0002:00008158       ??_C@_13MCLHKIEA@?$AA?$FL?$AA?$AA@ 00494158     Dlgcode.obj
 0002:00008160       ??_7?$ContainerForward@V?$vector@USecurityTokenKeyfile@GostCrypt@@V?$allocator@USecurityTokenKeyfile@GostCrypt@@@std@@@std@@@ForEach@GostCrypt@@6B@ 00494160     Dlgcode.obj
 0002:00008170       ??_7?$ContainerForward@V?$list@USecurityTokenKeyfile@GostCrypt@@V?$allocator@USecurityTokenKeyfile@GostCrypt@@@std@@@std@@@ForEach@GostCrypt@@6B@ 00494170     Dlgcode.obj
 0002:0000817c       ??_C@_0BG@NCEDCOKN@SELECT_TOKEN_KEYFILES?$AA@ 0049417c     Dlgcode.obj
 0002:00008194       ??_C@_0BD@HDBJEGLD@IDD_TOKEN_KEYFILES?$AA@ 00494194     Dlgcode.obj
 0002:000081a8       ??_C@_0O@FCMHIAOH@TOKEN_SLOT_ID?$AA@ 004941a8     Dlgcode.obj
 0002:000081b8       ??_C@_0L@NGNPCFGO@TOKEN_NAME?$AA@ 004941b8     Dlgcode.obj
 0002:000081c4       ??_C@_0BI@IHKDKJBG@TOKEN_DATA_OBJECT_LABEL?$AA@ 004941c4     Dlgcode.obj
 0002:000081dc       ??_C@_0P@CDPPHMOE@SELECT_KEYFILE?$AA@ 004941dc     Dlgcode.obj
 0002:000081ec       ??_C@_0BB@PPCMEB@KEYFILE_EXPORTED?$AA@ 004941ec     Dlgcode.obj
 0002:00008200       ??_C@_0BJ@BMFGOBOD@CONFIRM_SEL_FILES_DELETE?$AA@ 00494200     Dlgcode.obj
 0002:00008220       ??_7PinRequestHandler@?1??InitSecurityTokenLibrary@@YAHXZ@6B@ 00494220     Dlgcode.obj
 0002:0000822c       ??_7WarningHandler@?1??InitSecurityTokenLibrary@@YAHXZ@6B@ 0049422c     Dlgcode.obj
 0002:00008234       ??_C@_0BO@JFNCHGE@FILESYS_REPAIR_CONFIRM_BACKUP?$AA@ 00494234     Dlgcode.obj
 0002:00008254       ??_C@_0N@CFJEDEAE@REPAIRING_FS?$AA@ 00494254     Dlgcode.obj
 0002:00008264       ??_C@_0M@DMNKLGFJ@CHECKING_FS?$AA@ 00494264     Dlgcode.obj
 0002:00008270       ??_C@_1EM@PJNCBGHJ@?$AA?1?$AAC?$AA?5?$AAe?$AAc?$AAh?$AAo?$AA?5?$AA?$CF?$AAs?$AA?5?$AA?$CG?$AA?5?$AAc?$AAh?$AAk?$AAd?$AAs?$AAk?$AA?5?$AA?$CF?$AAh?$AAs?$AA?5?$AA?1?$AAF?$AA?5?$AA?1?$AAX?$AA?5?$AA?$CG?$AA?5@ 00494270     Dlgcode.obj
 0002:000082c0       ??_C@_1EA@HMCMLJPJ@?$AA?1?$AAC?$AA?5?$AAe?$AAc?$AAh?$AAo?$AA?5?$AA?$CF?$AAs?$AA?5?$AA?$CG?$AA?5?$AAc?$AAh?$AAk?$AAd?$AAs?$AAk?$AA?5?$AA?$CF?$AAh?$AAs?$AA?5?$AA?$CG?$AA?5?$AAp?$AAa?$AAu?$AAs?$AAe?$AA?$AA@ 004942c0     Dlgcode.obj
 0002:00008300       ??_C@_1BA@DBKIDAPL@?$AAc?$AAm?$AAd?$AA?4?$AAe?$AAx?$AAe?$AA?$AA@ 00494300     Dlgcode.obj
 0002:00008310       ??_C@_1M@CDHIAJCD@?$AAr?$AAu?$AAn?$AAa?$AAs?$AA?$AA@ 00494310     Dlgcode.obj
 0002:0000831c       ??_C@_19BDAJEHDN@?$AAo?$AAp?$AAe?$AAn?$AA?$AA@ 0049431c     Dlgcode.obj
 0002:00008328       ??_C@_0CB@FLOKBEFC@NONSYS_INPLACE_ENC_RESUME_PROMPT@ 00494328     Dlgcode.obj
 0002:0000834c       ??_C@_0CM@MNHDIPFC@ASK_NONSYS_INPLACE_ENC_NOTIFICAT@ 0049434c     Dlgcode.obj
 0002:00008378       ??_C@_0BB@DBNBKEPD@DO_NOT_PROMPT_ME?$AA@ 00494378     Dlgcode.obj
 0002:0000838c       ??_C@_0BC@OBEHEBCI@KEEP_PROMPTING_ME?$AA@ 0049438c     Dlgcode.obj
 0002:000083a0       ??_C@_0CN@CEHMIIEP@NONSYS_INPLACE_ENC_NOTIFICATION_@ 004943a0     Dlgcode.obj
 0002:000083d0       ??_C@_0CK@GCBAHDNG@?$CFs?2GostCrypt_Write_Protection_Re@ 004943d0     Dlgcode.obj
 0002:000083fc       ??_C@_0CP@HCNNGBFB@?$CFs?2GostCrypt_Write_Protection_Re@ 004943fc     Dlgcode.obj
 0002:0000842c       ??_C@_0CI@FDJHAAPA@?$EAdiskpart?5?1s?5?$CC?$CFs?$CC?6?$EApause?6?$EAdel?5?$CC?$CF@ 0049442c     Dlgcode.obj
 0002:00008454       ??_C@_0CP@DIEKEDPA@select?5disk?5?$CFd?6attributes?5disk?5c@ 00494454     Dlgcode.obj
 0002:00008484       ??_C@_0DG@HAFOMLKA@select?5partition?5?$CFd?6attributes?5v@ 00494484     Dlgcode.obj
 0002:000084bc       ??_C@_05DAJPPLDE@exit?6?$AA@ 004944bc     Dlgcode.obj
 0002:000084c4       ??_C@_0N@HOCBKDMB@?2isoburn?4exe?$AA@ 004944c4     Dlgcode.obj
 0002:000084d4       ??_C@_0M@JJLAKNKG@isoburn?4exe?$AA@ 004944d4     Dlgcode.obj
 0002:000084e0       ??_C@_1DO@HBNMGCKD@?$AA?2?$AAD?$AAe?$AAv?$AAi?$AAc?$AAe?$AA?2?$AAH?$AAa?$AAr?$AAd?$AAd?$AAi?$AAs?$AAk?$AA?$CF?$AAd?$AA?2?$AAP?$AAa?$AAr?$AAt?$AAi?$AAt?$AAi?$AAo?$AAn?$AA?$CF?$AAd?$AA?$AA@ 004944e0     Dlgcode.obj
 0002:00008520       __real@0000000000000000    00494520     Dlgcode.obj
 0002:00008528       __real@3f50000000000000    00494528     Dlgcode.obj
 0002:00008530       __real@3feff7ced916872b    00494530     Dlgcode.obj
 0002:00008538       __real@3ff0000000000000    00494538     Dlgcode.obj
 0002:00008540       __real@4059000000000000    00494540     Dlgcode.obj
 0002:00008548       __real@407a700000000000    00494548     Dlgcode.obj
 0002:00008550       __real@407ca00000000000    00494550     Dlgcode.obj
 0002:00008558       __real@c028000000000000    00494558     Dlgcode.obj
 0002:00008560       __xmm@00000003000000020000000100000000 00494560     Dlgcode.obj
 0002:00008570       __xmm@00000190000000000000000000000000 00494570     Dlgcode.obj
 0002:00008580       __xmm@000013e0000013df000013dd000013dc 00494580     Dlgcode.obj
 0002:00008590       __xmm@000013e3000013e3000013e3000013e3 00494590     Dlgcode.obj
 0002:000085a0       ??_C@_08PGBLPCGG@MSDOS5?40?$AA@ 004945a0     Fat.obj
 0002:000085ac       ??_C@_08JPOPGMJJ@FAT12?5?5?5?$AA@ 004945ac     Fat.obj
 0002:000085b8       ??_C@_08GKGPMKFJ@FAT16?5?5?5?$AA@ 004945b8     Fat.obj
 0002:000085c4       ??_C@_08NCCHMNJC@FAT32?5?5?5?$AA@ 004945c4     Fat.obj
 0002:000085d0       ??_C@_0BN@NJIOHEOP@FORMAT_CANT_DISMOUNT_FILESYS?$AA@ 004945d0     Format.obj
 0002:000085f0       ??_C@_0BF@LPDGKFHG@DEVICE_IN_USE_FORMAT?$AA@ 004945f0     Format.obj
 0002:00008608       ??_C@_0M@BCIBMEHP@NO?5NAME?5?5?5?5?$AA@ 00494608     Format.obj
 0002:00008614       ??_C@_0BB@FNPBIAIE@FORMAT_NTFS_STOP?$AA@ 00494614     Format.obj
 0002:00008628       ??_C@_0BC@NBGKCIGC@CANT_MOUNT_VOLUME?$AA@ 00494628     Format.obj
 0002:0000863c       ??_C@_0BF@OLCHNIN@CANT_DISMOUNT_VOLUME?$AA@ 0049463c     Format.obj
 0002:00008654       ??_C@_0BL@GAPIEOII@FORMAT_NTFS_FAILED_ASK_FAT?$AA@ 00494654     Format.obj
 0002:00008670       ??_C@_0BD@KDGBHLHC@FORMAT_NTFS_FAILED?$AA@ 00494670     Format.obj
 0002:00008684       ??_C@_09IFOENPLD@fmifs?4dll?$AA@ 00494684     Format.obj
 0002:00008690       ??_C@_08KDJACLKO@FormatEx?$AA@ 00494690     Format.obj
 0002:0000869c       ??_C@_15GKAHMKIN@?$AA?3?$AA?2?$AA?$AA@ 0049469c     Format.obj
 0002:000086a4       ??_C@_19ENNDBEJL@?$AAN?$AAT?$AAF?$AAS?$AA?$AA@ 004946a4     Format.obj
 0002:00008cb0       ??_C@_02JDPG@rb?$AA@       00494cb0     Keyfiles.obj
 0002:00008cb4       ??_C@_0BE@BKNFAOGD@ERR_PROCESS_KEYFILE?$AA@ 00494cb4     Keyfiles.obj
 0002:00008cc8       ??_C@_06BNHEIDIH@?$CFs?2?$CK?4?$CK?$AA@ 00494cc8     Keyfiles.obj
 0002:00008cd0       ??_C@_0BJ@LAFEHOHO@ERR_PROCESS_KEYFILE_PATH?$AA@ 00494cd0     Keyfiles.obj
 0002:00008cec       ??_C@_06GIIGBPHC@?$CFs?$CFc?$CFs?$AA@ 00494cec     Keyfiles.obj
 0002:00008cf4       ??_C@_0BH@EHNHOJEI@ERR_KEYFILE_PATH_EMPTY?$AA@ 00494cf4     Keyfiles.obj
 0002:00008d10       ??_7?$ContainerForward@V?$list@USecurityTokenKeyfilePath@GostCrypt@@V?$allocator@USecurityTokenKeyfilePath@GostCrypt@@@std@@@std@@@ForEach@GostCrypt@@6B@ 00494d10     Keyfiles.obj
 0002:00008d1c       ??_C@_0N@OGGIJBFO@IDD_KEYFILES?$AA@ 00494d1c     Keyfiles.obj
 0002:00008d2c       ??_C@_07BGLJIIHG@KEYFILE?$AA@ 00494d2c     Keyfiles.obj
 0002:00008d34       ??_C@_0O@JNGBBDK@KEYFILES_NOTE?$AA@ 00494d34     Keyfiles.obj
 0002:00008d44       ??_C@_0BE@EJPKDEGH@SELECT_KEYFILE_PATH?$AA@ 00494d44     Keyfiles.obj
 0002:00008d58       ??_C@_03FJEFHLHG@Xml?$AA@  00494d58     Language.obj
 0002:00008d5c       ??_C@_1BO@DAKOOJFM@?$AA?2?$AAL?$AAa?$AAn?$AAg?$AAu?$AAa?$AAg?$AAe?$AA?$CK?$AA?4?$AAx?$AAm?$AAl?$AA?$AA@ 00494d5c     Language.obj
 0002:00008d7c       ??_C@_07MMBOFDEG@control?$AA@ 00494d7c     Language.obj
 0002:00008d84       ??_C@_06ICGJLFIM@string?$AA@ 00494d84     Language.obj
 0002:00008d8c       ??_C@_0N@MFNNBINO@localization?$AA@ 00494d8c     Language.obj
 0002:00008d9c       ??_C@_0N@LEFFHNKM@prog?9version?$AA@ 00494d9c     Language.obj
 0002:00008dac       ??_C@_05KOLFGEDA@DEBUG?$AA@ 00494dac     Language.obj
 0002:00008db8       ??_C@_1EAG@FAENFIFC@?$AAT?$AAh?$AAe?$AA?5?$AAi?$AAn?$AAs?$AAt?$AAa?$AAl?$AAl?$AAe?$AAd?$AA?5?$AAl?$AAa?$AAn?$AAg?$AAu?$AAa?$AAg?$AAe?$AA?5?$AAp?$AAa?$AAc?$AAk?$AA?5?$AAi?$AAs?$AA?5?$AAi@ 00494db8     Language.obj
 0002:000091c0       ??_C@_08JGCCIMAA@language?$AA@ 004951c0     Language.obj
 0002:000091cc       ??_C@_06CLEJICHF@langid?$AA@ 004951cc     Language.obj
 0002:000091d4       ??_C@_07CPCPJPKL@version?$AA@ 004951d4     Language.obj
 0002:000091dc       ??_C@_04EFPADHIC@font?$AA@ 004951dc     Language.obj
 0002:000091e4       ??_C@_04IOHABJIC@lang?$AA@ 004951e4     Language.obj
 0002:000091ec       ??_C@_04POCOPAPC@face?$AA@ 004951ec     Language.obj
 0002:000091f4       ??_C@_04IAGNFIBA@size?$AA@ 004951f4     Language.obj
 0002:000091fc       ??_C@_05DONAFDKA@font_?$AA@ 004951fc     Language.obj
 0002:00009204       ??_C@_05ENKANFLO@class?$AA@ 00495204     Language.obj
 0002:0000920c       ??_C@_0DB@KHINFMBF@GostCrypt?3?5Unknown?5?8?2?8?5escape?5se@ 0049520c     Language.obj
 0002:00009240       ??_C@_0CN@GDBBBHBL@GostCrypt?3?5Error?5while?5decoding?5@ 00495240     Language.obj
 0002:00009270       ??_C@_04BAADKBID@IDOK?$AA@ 00495270     Language.obj
 0002:00009278       ??_C@_07CIAHAGHC@IDCLOSE?$AA@ 00495278     Language.obj
 0002:00009280       ??_C@_06CALLMKCG@IDHELP?$AA@ 00495280     Language.obj
 0002:00009288       ??_C@_06OENKJGA@Header?$AA@ 00495288     Language.obj
 0002:00009290       ??_C@_0O@MBEIEFFD@?$CDdefine?5?$CFs?5?$CFd?$AA@ 00495290     Language.obj
 0002:000092a0       ??_C@_0N@CHAAEAGP@IDD_LANGUAGE?$AA@ 004952a0     Language.obj
 0002:000092b0       ??_C@_04MEMAJGDJ@name?$AA@ 004952b0     Language.obj
 0002:000092b8       ??_C@_1BA@CLLEDPIF@?$AAE?$AAn?$AAg?$AAl?$AAi?$AAs?$AAh?$AA?$AA@ 004952b8     Language.obj
 0002:000092c8       ??_C@_15KHFHDPFH@?$AA?9?$AA?9?$AA?$AA@ 004952c8     Language.obj
 0002:000092d0       ??_C@_0BC@KEBBFOHL@LANG_PACK_VERSION?$AA@ 004952d0     Language.obj
 0002:000092e4       ??_C@_0M@DOLNAGBN@translators?$AA@ 004952e4     Language.obj
 0002:000092f0       ??_C@_0BM@OECEHKD@?$CGlangpackversion?$DN?$CFs?$CGlang?$DN?$CFs?$AA@ 004952f0     Language.obj
 0002:0000930c       ??_C@_0CK@MLINDFGB@http?3?1?1www?4gostcrypt?4org?1redirec@ 0049530c     Language.obj
 0002:00009338       ??_C@_1BE@ONAPIBAL@?$AA?$FL?$AA?$DP?$AA?$FN?$AA?$CF?$AAh?$AAs?$AA?$FL?$AA?$DP?$AA?$FN?$AA?$AA@ 00495338     Language.obj
 0002:0000934c       ??_C@_0BI@FPFPGNBO@PASSWORD_LENGTH_WARNING?$AA@ 0049534c     Password.obj
 0002:00009370       __xmm@36363636363636363636363636363636 00495370     Pkcs5.obj
 0002:00009380       __xmm@5c5c5c5c5c5c5c5c5c5c5c5c5c5c5c5c 00495380     Pkcs5.obj
 0002:00009390       ??_C@_07JJOGDNLC@SECONDS?$AA@ 00495390     Progress.obj
 0002:00009398       ??_C@_07JPNPDFOO@MINUTES?$AA@ 00495398     Progress.obj
 0002:000093a0       ??_C@_05HFOIBCBM@HOURS?$AA@ 004953a0     Progress.obj
 0002:000093a8       ??_C@_04EFPNNCJL@DAYS?$AA@ 004953a8     Progress.obj
 0002:000093b0       ??_C@_0BM@HDAHKLF@PROCESSED_PORTION_X_PERCENT?$AA@ 004953b0     Progress.obj
 0002:000093cc       ??_C@_1BE@GLDKIDIH@?$AA?$CF?$AAI?$AA6?$AA4?$AAd?$AA?5?$AA?$CF?$AAs?$AA?5?$AA?$AA@ 004953cc     Progress.obj
 0002:000093e0       ??_C@_17GMPJMPF@?$AA?$CF?$AAs?$AA?5?$AA?$AA@ 004953e0     Progress.obj
 0002:000093e8       __real@3f1a36e2eb1c432d    004953e8     Progress.obj
 0002:000093f0       __real@3f50624dd2f1a9fc    004953f0     Progress.obj
 0002:000093f8       __real@4058fffffffeed1f    004953f8     Progress.obj
 0002:00009400       __real@40c3880000000000    00495400     Progress.obj
 0002:00009408       ??_C@_0BL@BENPDJPG@ERR_NOT_ENOUGH_RANDOM_DATA?$AA@ 00495408     Random.obj
 0002:00009424       ??_C@_0DA@NKLICLFP@SYSTEM?2CurrentControlSet?2Control@ 00495424     Random.obj
 0002:00009454       ??_C@_0M@GGPOPAAP@ProductType?$AA@ 00495454     Random.obj
 0002:00009460       ??_C@_05LELOMLIF@WinNT?$AA@ 00495460     Random.obj
 0002:00009468       ??_C@_0N@HNENINMF@NETAPI32?4DLL?$AA@ 00495468     Random.obj
 0002:00009478       ??_C@_0BB@NIBHPBJM@NetStatisticsGet?$AA@ 00495478     Random.obj
 0002:0000948c       ??_C@_0BB@HGFPEPHK@NetApiBufferSize?$AA@ 0049548c     Random.obj
 0002:000094a0       ??_C@_0BB@EODNGDFL@NetApiBufferFree?$AA@ 004954a0     Random.obj
 0002:000094b4       ??_C@_1CE@MINGJEKI@?$AAL?$AAa?$AAn?$AAm?$AAa?$AAn?$AAW?$AAo?$AAr?$AAk?$AAs?$AAt?$AAa?$AAt?$AAi?$AAo?$AAn?$AA?$AA@ 004954b4     Random.obj
 0002:000094d8       ??_C@_1BK@FJCAAMNP@?$AAL?$AAa?$AAn?$AAm?$AAa?$AAn?$AAS?$AAe?$AAr?$AAv?$AAe?$AAr?$AA?$AA@ 004954d8     Random.obj
 0002:000094f4       ??_C@_0BE@JBDFGGOO@?2?2?4?2PhysicalDrive?$CFd?$AA@ 004954f4     Random.obj
 0002:00009508       ??_C@_0N@PGJGCAIL@tVersion?2Run?$AA@ 00495508     Registry.obj
 0002:00009518       ??_C@_0CC@HPOBEDNL@Software?2Microsoft?2Windows?2Curre@ 00495518     Registry.obj
 0002:0000953c       ??_C@_04HDOCAJNK@?$CFs?$CFs?$AA@ 0049553c     Registry.obj
 0002:00009548       ??_7Pkcs11Exception@GostCrypt@@6B@ 00495548     SecurityToken.obj
 0002:00009550       ??_7SecurityTokenLibraryNotInitialized@GostCrypt@@6B@ 00495550     SecurityToken.obj
 0002:00009558       ??_7InvalidSecurityTokenKeyfilePath@GostCrypt@@6B@ 00495558     SecurityToken.obj
 0002:0000955c       ??_C@_0BL@JIBHLIDC@INVALID_TOKEN_KEYFILE_PATH?$AA@ 0049555c     SecurityToken.obj
 0002:0000957c       ??_7SecurityTokenKeyfileAlreadyExists@GostCrypt@@6B@ 0049557c     SecurityToken.obj
 0002:00009580       ??_C@_0BN@LMLDGKPH@TOKEN_KEYFILE_ALREADY_EXISTS?$AA@ 00495580     SecurityToken.obj
 0002:000095a4       ??_7SecurityTokenKeyfileNotFound@GostCrypt@@6B@ 004955a4     SecurityToken.obj
 0002:000095a8       ??_C@_0BI@BBCBGCML@TOKEN_KEYFILE_NOT_FOUND?$AA@ 004955a8     SecurityToken.obj
 0002:000095c0       ??_C@_1CC@OMDFECBP@?$AAt?$AAo?$AAk?$AAe?$AAn?$AA?3?$AA?1?$AA?1?$AAs?$AAl?$AAo?$AAt?$AA?1?$AA?$CF?$AAl?$AAu?$AA?$AA@ 004955c0     SecurityToken.obj
 0002:000095e4       ??_C@_1O@HIAFDIDB@?$AA?1?$AAf?$AAi?$AAl?$AAe?$AA?1?$AA?$AA@ 004955e4     SecurityToken.obj
 0002:000095f4       ??_C@_1BM@IPMKACB@?$AAt?$AAo?$AAk?$AAe?$AAn?$AA?3?$AA?1?$AA?1?$AAs?$AAl?$AAo?$AAt?$AA?1?$AA?$AA@ 004955f4     SecurityToken.obj
 0002:00009614       ??_7?$ContainerForward@V?$map@KUPkcs11Session@GostCrypt@@U?$less@K@std@@V?$allocator@U?$pair@$$CBKUPkcs11Session@GostCrypt@@@std@@@4@@std@@@ForEach@GostCrypt@@6B@ 00495614     SecurityToken.obj
 0002:00009620       ??_C@_0CL@GPMOMIPC@GostCrypt?3?3SecurityToken?3?3CloseS@ 00495620     SecurityToken.obj
 0002:0000964c       ??_C@_0CM@EILIPAOO@GostCrypt?3?3SecurityToken?3?3Create@ 0049564c     SecurityToken.obj
 0002:0000967c       ??_7?$ContainerForward@V?$vector@KV?$allocator@K@std@@@std@@@ForEach@GostCrypt@@6B@ 0049567c     SecurityToken.obj
 0002:00009688       ??_C@_0CJ@KMNLDKPC@GostCrypt?3?3SecurityToken?3?3GetObj@ 00495688     SecurityToken.obj
 0002:000096b4       ??_C@_0DB@KHBANPMA@GostCrypt?3?3SecurityToken?3?3GetObj@ 004956b4     SecurityToken.obj
 0002:000096e8       ??_C@_1BC@ELBDEFGA@?$AAt?$AAo?$AAk?$AAe?$AAn?$AA?3?$AA?1?$AA?1?$AA?$AA@ 004956e8     SecurityToken.obj
 0002:000096fc       ??_C@_01IPJKGB@?$CD?$AA@   004956fc     SecurityToken.obj
 0002:00009700       ??_C@_0BC@GHFGDNNP@C_GetFunctionList?$AA@ 00495700     SecurityToken.obj
 0002:000099c8       ??_C@_0L@JIDCKNME@CKR_CANCEL?$AA@ 004959c8     SecurityToken.obj
 0002:000099d4       ??_C@_0BA@HHDKGBBP@CKR_HOST_MEMORY?$AA@ 004959d4     SecurityToken.obj
 0002:000099e4       ??_C@_0BE@FOAEJLLC@CKR_SLOT_ID_INVALID?$AA@ 004959e4     SecurityToken.obj
 0002:000099f8       ??_C@_0BC@BPPOLCIH@CKR_GENERAL_ERROR?$AA@ 004959f8     SecurityToken.obj
 0002:00009a0c       ??_C@_0BE@DIFKEOGI@CKR_FUNCTION_FAILED?$AA@ 00495a0c     SecurityToken.obj
 0002:00009a20       ??_C@_0BC@LNHMJFHC@CKR_ARGUMENTS_BAD?$AA@ 00495a20     SecurityToken.obj
 0002:00009a34       ??_C@_0N@KFPEOGN@CKR_NO_EVENT?$AA@ 00495a34     SecurityToken.obj
 0002:00009a44       ??_C@_0BL@NDINCBKJ@CKR_NEED_TO_CREATE_THREADS?$AA@ 00495a44     SecurityToken.obj
 0002:00009a60       ??_C@_0O@OHMKMDKB@CKR_CANT_LOCK?$AA@ 00495a60     SecurityToken.obj
 0002:00009a70       ??_C@_0BI@IDDIMLAI@CKR_ATTRIBUTE_READ_ONLY?$AA@ 00495a70     SecurityToken.obj
 0002:00009a88       ??_C@_0BI@LPANBEIN@CKR_ATTRIBUTE_SENSITIVE?$AA@ 00495a88     SecurityToken.obj
 0002:00009aa0       ??_C@_0BL@CJHMMHEH@CKR_ATTRIBUTE_TYPE_INVALID?$AA@ 00495aa0     SecurityToken.obj
 0002:00009abc       ??_C@_0BM@LMONJDMA@CKR_ATTRIBUTE_VALUE_INVALID?$AA@ 00495abc     SecurityToken.obj
 0002:00009ad8       ??_C@_0BB@HONBBNLK@CKR_DATA_INVALID?$AA@ 00495ad8     SecurityToken.obj
 0002:00009aec       ??_C@_0BD@BPCFCEOF@CKR_DATA_LEN_RANGE?$AA@ 00495aec     SecurityToken.obj
 0002:00009b00       ??_C@_0BB@OAEPJIAO@CKR_DEVICE_ERROR?$AA@ 00495b00     SecurityToken.obj
 0002:00009b14       ??_C@_0BC@EDKNPIJF@CKR_DEVICE_MEMORY?$AA@ 00495b14     SecurityToken.obj
 0002:00009b28       ??_C@_0BD@CLPGKOPG@CKR_DEVICE_REMOVED?$AA@ 00495b28     SecurityToken.obj
 0002:00009b3c       ??_C@_0BL@HMMBAKLE@CKR_ENCRYPTED_DATA_INVALID?$AA@ 00495b3c     SecurityToken.obj
 0002:00009b58       ??_C@_0BN@CHFIOLM@CKR_ENCRYPTED_DATA_LEN_RANGE?$AA@ 00495b58     SecurityToken.obj
 0002:00009b78       ??_C@_0BG@GFNGJBLD@CKR_FUNCTION_CANCELED?$AA@ 00495b78     SecurityToken.obj
 0002:00009b90       ??_C@_0BK@CPMALGEH@CKR_FUNCTION_NOT_PARALLEL?$AA@ 00495b90     SecurityToken.obj
 0002:00009bac       ??_C@_0BL@FLCFPGMF@CKR_FUNCTION_NOT_SUPPORTED?$AA@ 00495bac     SecurityToken.obj
 0002:00009bc8       ??_C@_0BH@JBCBCIHC@CKR_KEY_HANDLE_INVALID?$AA@ 00495bc8     SecurityToken.obj
 0002:00009be0       ??_C@_0BD@DCCEPOIK@CKR_KEY_SIZE_RANGE?$AA@ 00495be0     SecurityToken.obj
 0002:00009bf4       ??_C@_0BK@FBLHAPGA@CKR_KEY_TYPE_INCONSISTENT?$AA@ 00495bf4     SecurityToken.obj
 0002:00009c10       ??_C@_0BD@CADJPHKC@CKR_KEY_NOT_NEEDED?$AA@ 00495c10     SecurityToken.obj
 0002:00009c24       ??_C@_0BA@PBNACHHM@CKR_KEY_CHANGED?$AA@ 00495c24     SecurityToken.obj
 0002:00009c34       ??_C@_0P@CIJPGKMN@CKR_KEY_NEEDED?$AA@ 00495c34     SecurityToken.obj
 0002:00009c44       ??_C@_0BF@GCBGIGLD@CKR_KEY_INDIGESTIBLE?$AA@ 00495c44     SecurityToken.obj
 0002:00009c5c       ??_C@_0BP@PCNBFOEJ@CKR_KEY_FUNCTION_NOT_PERMITTED?$AA@ 00495c5c     SecurityToken.obj
 0002:00009c7c       ??_C@_0BG@IEKNAGOL@CKR_KEY_NOT_WRAPPABLE?$AA@ 00495c7c     SecurityToken.obj
 0002:00009c94       ??_C@_0BG@OIKHBDLJ@CKR_KEY_UNEXTRACTABLE?$AA@ 00495c94     SecurityToken.obj
 0002:00009cac       ??_C@_0BG@FIBINAPL@CKR_MECHANISM_INVALID?$AA@ 00495cac     SecurityToken.obj
 0002:00009cc4       ??_C@_0BM@NHMBLBHF@CKR_MECHANISM_PARAM_INVALID?$AA@ 00495cc4     SecurityToken.obj
 0002:00009ce0       ??_C@_0BK@NIGFIGL@CKR_OBJECT_HANDLE_INVALID?$AA@ 00495ce0     SecurityToken.obj
 0002:00009cfc       ??_C@_0BF@LACBDJFM@CKR_OPERATION_ACTIVE?$AA@ 00495cfc     SecurityToken.obj
 0002:00009d14       ??_C@_0BO@NIGNIKB@CKR_OPERATION_NOT_INITIALIZED?$AA@ 00495d14     SecurityToken.obj
 0002:00009d34       ??_C@_0BC@PIDGDJNE@CKR_PIN_INCORRECT?$AA@ 00495d34     SecurityToken.obj
 0002:00009d48       ??_C@_0BA@PDLKJELN@CKR_PIN_INVALID?$AA@ 00495d48     SecurityToken.obj
 0002:00009d58       ??_C@_0BC@MEAAAEMN@CKR_PIN_LEN_RANGE?$AA@ 00495d58     SecurityToken.obj
 0002:00009d6c       ??_C@_0BA@PPOOFJBC@CKR_PIN_EXPIRED?$AA@ 00495d6c     SecurityToken.obj
 0002:00009d7c       ??_C@_0P@JGPCDBMN@CKR_PIN_LOCKED?$AA@ 00495d7c     SecurityToken.obj
 0002:00009d8c       ??_C@_0BD@EFPEBFCO@CKR_SESSION_CLOSED?$AA@ 00495d8c     SecurityToken.obj
 0002:00009da0       ??_C@_0BC@GFNLAALM@CKR_SESSION_COUNT?$AA@ 00495da0     SecurityToken.obj
 0002:00009db4       ??_C@_0BL@JFEIAJEO@CKR_SESSION_HANDLE_INVALID?$AA@ 00495db4     SecurityToken.obj
 0002:00009dd0       ??_C@_0CD@CNJKDODF@CKR_SESSION_PARALLEL_NOT_SUPPORT@ 00495dd0     SecurityToken.obj
 0002:00009df4       ??_C@_0BG@NACFPKBK@CKR_SESSION_READ_ONLY?$AA@ 00495df4     SecurityToken.obj
 0002:00009e0c       ??_C@_0BD@CJEENIOI@CKR_SESSION_EXISTS?$AA@ 00495e0c     SecurityToken.obj
 0002:00009e20       ??_C@_0BN@FEECMDLD@CKR_SESSION_READ_ONLY_EXISTS?$AA@ 00495e20     SecurityToken.obj
 0002:00009e40       ??_C@_0CB@MOHOJDLI@CKR_SESSION_READ_WRITE_SO_EXISTS@ 00495e40     SecurityToken.obj
 0002:00009e64       ??_C@_0BG@FJFGJBPL@CKR_SIGNATURE_INVALID?$AA@ 00495e64     SecurityToken.obj
 0002:00009e7c       ??_C@_0BI@BCEJLCCN@CKR_SIGNATURE_LEN_RANGE?$AA@ 00495e7c     SecurityToken.obj
 0002:00009e94       ??_C@_0BI@OKLBFCJN@CKR_TEMPLATE_INCOMPLETE?$AA@ 00495e94     SecurityToken.obj
 0002:00009eac       ??_C@_0BK@NFOMODKD@CKR_TEMPLATE_INCONSISTENT?$AA@ 00495eac     SecurityToken.obj
 0002:00009ec8       ??_C@_0BG@GJCOFLCP@CKR_TOKEN_NOT_PRESENT?$AA@ 00495ec8     SecurityToken.obj
 0002:00009ee0       ??_C@_0BJ@DKIDJOKM@CKR_TOKEN_NOT_RECOGNIZED?$AA@ 00495ee0     SecurityToken.obj
 0002:00009efc       ??_C@_0BK@LICPHIEK@CKR_TOKEN_WRITE_PROTECTED?$AA@ 00495efc     SecurityToken.obj
 0002:00009f18       ??_C@_0CC@BHIKKBJK@CKR_UNWRAPPING_KEY_HANDLE_INVALI@ 00495f18     SecurityToken.obj
 0002:00009f3c       ??_C@_0BO@EDNGDMCF@CKR_UNWRAPPING_KEY_SIZE_RANGE?$AA@ 00495f3c     SecurityToken.obj
 0002:00009f5c       ??_C@_0CF@FNADNHJM@CKR_UNWRAPPING_KEY_TYPE_INCONSIS@ 00495f5c     SecurityToken.obj
 0002:00009f84       ??_C@_0BL@HHCLDMIB@CKR_USER_ALREADY_LOGGED_IN?$AA@ 00495f84     SecurityToken.obj
 0002:00009fa0       ??_C@_0BH@PHIJDFPC@CKR_USER_NOT_LOGGED_IN?$AA@ 00495fa0     SecurityToken.obj
 0002:00009fb8       ??_C@_0BN@CJFMMEDO@CKR_USER_PIN_NOT_INITIALIZED?$AA@ 00495fb8     SecurityToken.obj
 0002:00009fd8       ??_C@_0BG@ECPOFDO@CKR_USER_TYPE_INVALID?$AA@ 00495fd8     SecurityToken.obj
