; Listing generated by Microsoft (R) Optimizing Compiler Version 19.00.24215.1 

	TITLE	C:\Users\Alexis\Documents\FinalGostCrypt\Sources_GostCrypt_Windows_1.3.1\Format\FormatCom.cpp
	.686P
	.XMM
	include listing.inc
	.model	flat

INCLUDELIB LIBCMT
INCLUDELIB OLDNAMES

PUBLIC	??_C@_0BB@BEBMGMDO@atlTraceDBClient?$AA@	; `string'
PUBLIC	??_C@_0BD@KOADKDIA@atlTraceDBProvider?$AA@	; `string'
PUBLIC	_LIBID_GostCryptFormatCom
PUBLIC	_IID_IGostCryptFormatCom
PUBLIC	??_C@_0P@LNEGBOLO@atlTraceSnapin?$AA@		; `string'
PUBLIC	_CLSID_GostCryptFormatCom
PUBLIC	??_C@_0BA@MCBFIDIC@atlTraceNotImpl?$AA@		; `string'
PUBLIC	??_C@_0BD@PJPCCAKP@atlTraceAllocation?$AA@	; `string'
PUBLIC	??_C@_0BC@PGMFNIFA@atlTraceException?$AA@	; `string'
PUBLIC	??_C@_0N@BNNILHBE@atlTraceTime?$AA@		; `string'
PUBLIC	??_C@_0O@MEOJAOKK@atlTraceCache?$AA@		; `string'
PUBLIC	??_C@_0BA@IDBKCKK@atlTraceStencil?$AA@		; `string'
PUBLIC	??_C@_0P@MBNHGHMI@atlTraceString?$AA@		; `string'
PUBLIC	??_C@_0M@IOBBMAHG@atlTraceMap?$AA@		; `string'
PUBLIC	??_C@_0N@FEAAACHD@atlTraceUtil?$AA@		; `string'
PUBLIC	??_C@_0BB@DNJDADMG@atlTraceSecurity?$AA@	; `string'
PUBLIC	??_C@_0N@KLPNCFEE@atlTraceSync?$AA@		; `string'
PUBLIC	??_C@_0O@KHOBHOBJ@atlTraceISAPI?$AA@		; `string'
PUBLIC	??_C@_0BA@MKMIKKJB@atlTraceGeneral?$AA@		; `string'
PUBLIC	??_C@_0M@DGPFJEBB@atlTraceCOM?$AA@		; `string'
PUBLIC	??_C@_0L@LHELAKBP@atlTraceQI?$AA@		; `string'
PUBLIC	??_C@_0BC@MALHFBAO@atlTraceRegistrar?$AA@	; `string'
PUBLIC	??_C@_0BB@ILPPDKFL@atlTraceRefcount?$AA@	; `string'
PUBLIC	??_C@_0BC@DGHHNKDC@atlTraceWindowing?$AA@	; `string'
PUBLIC	??_C@_0BB@GHKJKKIE@atlTraceControls?$AA@	; `string'
PUBLIC	??_C@_0BA@DKOAAGGM@atlTraceHosting?$AA@		; `string'
_BSS	SEGMENT
?ObjectCount@@3JC DD 01H DUP (?)			; ObjectCount
_BSS	ENDS
;	COMDAT ??_C@_0BA@DKOAAGGM@atlTraceHosting?$AA@
CONST	SEGMENT
??_C@_0BA@DKOAAGGM@atlTraceHosting?$AA@ DB 'atlTraceHosting', 00H ; `string'
CONST	ENDS
;	COMDAT ??_C@_0BB@GHKJKKIE@atlTraceControls?$AA@
CONST	SEGMENT
??_C@_0BB@GHKJKKIE@atlTraceControls?$AA@ DB 'atlTraceControls', 00H ; `string'
CONST	ENDS
;	COMDAT ??_C@_0BC@DGHHNKDC@atlTraceWindowing?$AA@
CONST	SEGMENT
??_C@_0BC@DGHHNKDC@atlTraceWindowing?$AA@ DB 'atlTraceWindowing', 00H ; `string'
CONST	ENDS
;	COMDAT ??_C@_0BB@ILPPDKFL@atlTraceRefcount?$AA@
CONST	SEGMENT
??_C@_0BB@ILPPDKFL@atlTraceRefcount?$AA@ DB 'atlTraceRefcount', 00H ; `string'
CONST	ENDS
;	COMDAT ??_C@_0BC@MALHFBAO@atlTraceRegistrar?$AA@
CONST	SEGMENT
??_C@_0BC@MALHFBAO@atlTraceRegistrar?$AA@ DB 'atlTraceRegistrar', 00H ; `string'
CONST	ENDS
;	COMDAT ??_C@_0L@LHELAKBP@atlTraceQI?$AA@
CONST	SEGMENT
??_C@_0L@LHELAKBP@atlTraceQI?$AA@ DB 'atlTraceQI', 00H	; `string'
CONST	ENDS
;	COMDAT ??_C@_0M@DGPFJEBB@atlTraceCOM?$AA@
CONST	SEGMENT
??_C@_0M@DGPFJEBB@atlTraceCOM?$AA@ DB 'atlTraceCOM', 00H ; `string'
CONST	ENDS
;	COMDAT ??_C@_0BA@MKMIKKJB@atlTraceGeneral?$AA@
CONST	SEGMENT
??_C@_0BA@MKMIKKJB@atlTraceGeneral?$AA@ DB 'atlTraceGeneral', 00H ; `string'
CONST	ENDS
;	COMDAT ??_C@_0O@KHOBHOBJ@atlTraceISAPI?$AA@
CONST	SEGMENT
??_C@_0O@KHOBHOBJ@atlTraceISAPI?$AA@ DB 'atlTraceISAPI', 00H ; `string'
CONST	ENDS
;	COMDAT ??_C@_0N@KLPNCFEE@atlTraceSync?$AA@
CONST	SEGMENT
??_C@_0N@KLPNCFEE@atlTraceSync?$AA@ DB 'atlTraceSync', 00H ; `string'
CONST	ENDS
;	COMDAT ??_C@_0BB@DNJDADMG@atlTraceSecurity?$AA@
CONST	SEGMENT
??_C@_0BB@DNJDADMG@atlTraceSecurity?$AA@ DB 'atlTraceSecurity', 00H ; `string'
CONST	ENDS
;	COMDAT ??_C@_0N@FEAAACHD@atlTraceUtil?$AA@
CONST	SEGMENT
??_C@_0N@FEAAACHD@atlTraceUtil?$AA@ DB 'atlTraceUtil', 00H ; `string'
CONST	ENDS
;	COMDAT ??_C@_0M@IOBBMAHG@atlTraceMap?$AA@
CONST	SEGMENT
??_C@_0M@IOBBMAHG@atlTraceMap?$AA@ DB 'atlTraceMap', 00H ; `string'
CONST	ENDS
;	COMDAT ??_C@_0P@MBNHGHMI@atlTraceString?$AA@
CONST	SEGMENT
??_C@_0P@MBNHGHMI@atlTraceString?$AA@ DB 'atlTraceString', 00H ; `string'
CONST	ENDS
;	COMDAT ??_C@_0BA@IDBKCKK@atlTraceStencil?$AA@
CONST	SEGMENT
??_C@_0BA@IDBKCKK@atlTraceStencil?$AA@ DB 'atlTraceStencil', 00H ; `string'
CONST	ENDS
;	COMDAT ??_C@_0O@MEOJAOKK@atlTraceCache?$AA@
CONST	SEGMENT
??_C@_0O@MEOJAOKK@atlTraceCache?$AA@ DB 'atlTraceCache', 00H ; `string'
CONST	ENDS
;	COMDAT ??_C@_0N@BNNILHBE@atlTraceTime?$AA@
CONST	SEGMENT
??_C@_0N@BNNILHBE@atlTraceTime?$AA@ DB 'atlTraceTime', 00H ; `string'
CONST	ENDS
;	COMDAT ??_C@_0BC@PGMFNIFA@atlTraceException?$AA@
CONST	SEGMENT
??_C@_0BC@PGMFNIFA@atlTraceException?$AA@ DB 'atlTraceException', 00H ; `string'
CONST	ENDS
;	COMDAT ??_C@_0BD@PJPCCAKP@atlTraceAllocation?$AA@
CONST	SEGMENT
??_C@_0BD@PJPCCAKP@atlTraceAllocation?$AA@ DB 'atlTraceAllocation', 00H ; `string'
CONST	ENDS
;	COMDAT ??_C@_0BA@MCBFIDIC@atlTraceNotImpl?$AA@
CONST	SEGMENT
??_C@_0BA@MCBFIDIC@atlTraceNotImpl?$AA@ DB 'atlTraceNotImpl', 00H ; `string'
CONST	ENDS
;	COMDAT ??_C@_0P@LNEGBOLO@atlTraceSnapin?$AA@
CONST	SEGMENT
??_C@_0P@LNEGBOLO@atlTraceSnapin?$AA@ DB 'atlTraceSnapin', 00H ; `string'
CONST	ENDS
CONST	SEGMENT
_LIBID_GostCryptFormatCom DD 0a7df958cH
	DW	0716H
	DW	049e9H
	DB	08cH
	DB	03eH
	DB	053H
	DB	0a7H
	DB	075H
	DB	079H
	DB	075H
	DB	076H
_IID_IGostCryptFormatCom DD 09ee02955H
	DW	0174aH
	DW	048f1H
	DB	082H
	DB	0cH
	DB	02H
	DB	02fH
	DB	032H
	DB	07bH
	DB	0e1H
	DB	09H
_CLSID_GostCryptFormatCom DD 0777dcdfdH
	DW	0c330H
	DW	0480bH
	DB	0b5H
	DB	082H
	DB	0b0H
	DB	02bH
	DB	057H
	DB	058H
	DB	0cH
	DB	0c9H
CONST	ENDS
;	COMDAT ??_C@_0BD@KOADKDIA@atlTraceDBProvider?$AA@
CONST	SEGMENT
??_C@_0BD@KOADKDIA@atlTraceDBProvider?$AA@ DB 'atlTraceDBProvider', 00H ; `string'
CONST	ENDS
;	COMDAT ??_C@_0BB@BEBMGMDO@atlTraceDBClient?$AA@
CONST	SEGMENT
??_C@_0BB@BEBMGMDO@atlTraceDBClient?$AA@ DB 'atlTraceDBClient', 00H ; `string'
CONST	ENDS
PUBLIC	?_AtlInitializeCriticalSectionEx@ATL@@YAHPAU_RTL_CRITICAL_SECTION@@KK@Z ; ATL::_AtlInitializeCriticalSectionEx
PUBLIC	??0Exception@GostCrypt@@QAE@ABU01@@Z		; GostCrypt::Exception::Exception
PUBLIC	?Show@UserAbort@GostCrypt@@UBEXPAUHWND__@@@Z	; GostCrypt::UserAbort::Show
PUBLIC	??0UserAbort@GostCrypt@@QAE@ABU01@@Z		; GostCrypt::UserAbort::UserAbort
PUBLIC	?GetElevatedInstance@@YAPAUIGostCryptFormatCom@@PAUHWND__@@@Z ; GetElevatedInstance
PUBLIC	_ComServerFormat
PUBLIC	_UacFormatNtfs
PUBLIC	_UacAnalyzeHiddenVolumeHost
PUBLIC	?AddRef@GostCryptFormatCom@@UAGKXZ		; GostCryptFormatCom::AddRef
PUBLIC	?Release@GostCryptFormatCom@@UAGKXZ		; GostCryptFormatCom::Release
PUBLIC	?QueryInterface@GostCryptFormatCom@@UAGJABU_GUID@@PAPAX@Z ; GostCryptFormatCom::QueryInterface
PUBLIC	?CallDriver@GostCryptFormatCom@@UAGKKPA_WPAPA_W@Z ; GostCryptFormatCom::CallDriver
PUBLIC	?CopyFileA@GostCryptFormatCom@@UAGKPA_W0@Z	; GostCryptFormatCom::CopyFileA
PUBLIC	?DeleteFileA@GostCryptFormatCom@@UAGKPA_W@Z	; GostCryptFormatCom::DeleteFileA
PUBLIC	?FormatNtfs@GostCryptFormatCom@@UAGHHH@Z	; GostCryptFormatCom::FormatNtfs
PUBLIC	?AnalyzeHiddenVolumeHost@GostCryptFormatCom@@UAGHJPAH_J0PA_J@Z ; GostCryptFormatCom::AnalyzeHiddenVolumeHost
PUBLIC	?ReadWriteFile@GostCryptFormatCom@@UAGKHHPA_WPAPA_W_KIPAK@Z ; GostCryptFormatCom::ReadWriteFile
PUBLIC	?RegisterFilterDriver@GostCryptFormatCom@@UAGKHH@Z ; GostCryptFormatCom::RegisterFilterDriver
PUBLIC	?RegisterSystemFavoritesService@GostCryptFormatCom@@UAGKH@Z ; GostCryptFormatCom::RegisterSystemFavoritesService
PUBLIC	?SetDriverServiceStartType@GostCryptFormatCom@@UAGKK@Z ; GostCryptFormatCom::SetDriverServiceStartType
PUBLIC	?IsPagingFileActive@GostCryptFormatCom@@UAGHH@Z	; GostCryptFormatCom::IsPagingFileActive
PUBLIC	?WriteLocalMachineRegistryDwordValue@GostCryptFormatCom@@UAGKPA_W0K@Z ; GostCryptFormatCom::WriteLocalMachineRegistryDwordValue
PUBLIC	?AddRef@?$GostCryptFactory@VGostCryptFormatCom@@@@UAGKXZ ; GostCryptFactory<GostCryptFormatCom>::AddRef
PUBLIC	?Release@?$GostCryptFactory@VGostCryptFormatCom@@@@UAGKXZ ; GostCryptFactory<GostCryptFormatCom>::Release
PUBLIC	?QueryInterface@?$GostCryptFactory@VGostCryptFormatCom@@@@UAGJABU_GUID@@PAPAX@Z ; GostCryptFactory<GostCryptFormatCom>::QueryInterface
PUBLIC	?CreateInstance@?$GostCryptFactory@VGostCryptFormatCom@@@@UAGJPAUIUnknown@@ABU_GUID@@PAPAX@Z ; GostCryptFactory<GostCryptFormatCom>::CreateInstance
PUBLIC	?LockServer@?$GostCryptFactory@VGostCryptFormatCom@@@@UAGJH@Z ; GostCryptFactory<GostCryptFormatCom>::LockServer
PUBLIC	?IsServerLocked@?$GostCryptFactory@VGostCryptFormatCom@@@@UAE_NXZ ; GostCryptFactory<GostCryptFormatCom>::IsServerLocked
PUBLIC	?atlTraceGeneral@ATL@@3V?$CTraceCategoryEx@$00$0A@@1@A ; ATL::atlTraceGeneral
PUBLIC	?atlTraceCOM@ATL@@3V?$CTraceCategoryEx@$01$0A@@1@A ; ATL::atlTraceCOM
PUBLIC	?atlTraceQI@ATL@@3V?$CTraceCategoryEx@$03$0A@@1@A ; ATL::atlTraceQI
PUBLIC	?atlTraceRegistrar@ATL@@3V?$CTraceCategoryEx@$07$0A@@1@A ; ATL::atlTraceRegistrar
PUBLIC	?atlTraceRefcount@ATL@@3V?$CTraceCategoryEx@$0BA@$0A@@1@A ; ATL::atlTraceRefcount
PUBLIC	?atlTraceWindowing@ATL@@3V?$CTraceCategoryEx@$0CA@$0A@@1@A ; ATL::atlTraceWindowing
PUBLIC	?atlTraceControls@ATL@@3V?$CTraceCategoryEx@$0EA@$0A@@1@A ; ATL::atlTraceControls
PUBLIC	?atlTraceHosting@ATL@@3V?$CTraceCategoryEx@$0IA@$0A@@1@A ; ATL::atlTraceHosting
PUBLIC	?atlTraceDBClient@ATL@@3V?$CTraceCategoryEx@$0BAA@$0A@@1@A ; ATL::atlTraceDBClient
PUBLIC	?atlTraceDBProvider@ATL@@3V?$CTraceCategoryEx@$0CAA@$0A@@1@A ; ATL::atlTraceDBProvider
PUBLIC	?atlTraceSnapin@ATL@@3V?$CTraceCategoryEx@$0EAA@$0A@@1@A ; ATL::atlTraceSnapin
PUBLIC	?atlTraceNotImpl@ATL@@3V?$CTraceCategoryEx@$0IAA@$0A@@1@A ; ATL::atlTraceNotImpl
PUBLIC	?atlTraceAllocation@ATL@@3V?$CTraceCategoryEx@$0BAAA@$0A@@1@A ; ATL::atlTraceAllocation
PUBLIC	?atlTraceException@ATL@@3V?$CTraceCategoryEx@$0CAAA@$0A@@1@A ; ATL::atlTraceException
PUBLIC	?atlTraceTime@ATL@@3V?$CTraceCategoryEx@$0EAAA@$0A@@1@A ; ATL::atlTraceTime
PUBLIC	?atlTraceCache@ATL@@3V?$CTraceCategoryEx@$0IAAA@$0A@@1@A ; ATL::atlTraceCache
PUBLIC	?atlTraceStencil@ATL@@3V?$CTraceCategoryEx@$0BAAAA@$0A@@1@A ; ATL::atlTraceStencil
PUBLIC	?atlTraceString@ATL@@3V?$CTraceCategoryEx@$0CAAAA@$0A@@1@A ; ATL::atlTraceString
PUBLIC	?atlTraceMap@ATL@@3V?$CTraceCategoryEx@$0EAAAA@$0A@@1@A ; ATL::atlTraceMap
PUBLIC	?atlTraceUtil@ATL@@3V?$CTraceCategoryEx@$0IAAAA@$0A@@1@A ; ATL::atlTraceUtil
PUBLIC	?atlTraceSecurity@ATL@@3V?$CTraceCategoryEx@$0BAAAAA@$0A@@1@A ; ATL::atlTraceSecurity
PUBLIC	?atlTraceSync@ATL@@3V?$CTraceCategoryEx@$0CAAAAA@$0A@@1@A ; ATL::atlTraceSync
PUBLIC	?atlTraceISAPI@ATL@@3V?$CTraceCategoryEx@$0EAAAAA@$0A@@1@A ; ATL::atlTraceISAPI
PUBLIC	??_7Exception@GostCrypt@@6B@			; GostCrypt::Exception::`vftable'
PUBLIC	??_7UserAbort@GostCrypt@@6B@			; GostCrypt::UserAbort::`vftable'
PUBLIC	??_7GostCryptFormatCom@@6B@			; GostCryptFormatCom::`vftable'
PUBLIC	??_7?$GostCryptFactory@VGostCryptFormatCom@@@@6B@ ; GostCryptFactory<GostCryptFormatCom>::`vftable'
PUBLIC	__TI2?AUUserAbort@GostCrypt@@
PUBLIC	__CTA2?AUUserAbort@GostCrypt@@
PUBLIC	??_R0?AUUserAbort@GostCrypt@@@8			; GostCrypt::UserAbort `RTTI Type Descriptor'
PUBLIC	__CT??_R0?AUUserAbort@GostCrypt@@@8??0UserAbort@GostCrypt@@QAE@ABU01@@Z4
PUBLIC	??_R0?AUException@GostCrypt@@@8			; GostCrypt::Exception `RTTI Type Descriptor'
PUBLIC	__CT??_R0?AUException@GostCrypt@@@8??0Exception@GostCrypt@@QAE@ABU01@@Z4
PUBLIC	??_R0?AUIUnknown@@@8				; IUnknown `RTTI Type Descriptor'
PUBLIC	??_R3IUnknown@@8				; IUnknown::`RTTI Class Hierarchy Descriptor'
PUBLIC	??_R2IUnknown@@8				; IUnknown::`RTTI Base Class Array'
PUBLIC	??_R1A@?0A@EA@IUnknown@@8			; IUnknown::`RTTI Base Class Descriptor at (0,-1,0,64)'
PUBLIC	??_R0?AUIClassFactory@@@8			; IClassFactory `RTTI Type Descriptor'
PUBLIC	??_R3IClassFactory@@8				; IClassFactory::`RTTI Class Hierarchy Descriptor'
PUBLIC	??_R2IClassFactory@@8				; IClassFactory::`RTTI Base Class Array'
PUBLIC	??_R1A@?0A@EA@IClassFactory@@8			; IClassFactory::`RTTI Base Class Descriptor at (0,-1,0,64)'
PUBLIC	??_R4Exception@GostCrypt@@6B@			; GostCrypt::Exception::`RTTI Complete Object Locator'
PUBLIC	??_R3Exception@GostCrypt@@8			; GostCrypt::Exception::`RTTI Class Hierarchy Descriptor'
PUBLIC	??_R2Exception@GostCrypt@@8			; GostCrypt::Exception::`RTTI Base Class Array'
PUBLIC	??_R1A@?0A@EA@Exception@GostCrypt@@8		; GostCrypt::Exception::`RTTI Base Class Descriptor at (0,-1,0,64)'
PUBLIC	??_R4UserAbort@GostCrypt@@6B@			; GostCrypt::UserAbort::`RTTI Complete Object Locator'
PUBLIC	??_R3UserAbort@GostCrypt@@8			; GostCrypt::UserAbort::`RTTI Class Hierarchy Descriptor'
PUBLIC	??_R2UserAbort@GostCrypt@@8			; GostCrypt::UserAbort::`RTTI Base Class Array'
PUBLIC	??_R1A@?0A@EA@UserAbort@GostCrypt@@8		; GostCrypt::UserAbort::`RTTI Base Class Descriptor at (0,-1,0,64)'
PUBLIC	??_R0?AUIGostCryptFormatCom@@@8			; IGostCryptFormatCom `RTTI Type Descriptor'
PUBLIC	??_R3IGostCryptFormatCom@@8			; IGostCryptFormatCom::`RTTI Class Hierarchy Descriptor'
PUBLIC	??_R2IGostCryptFormatCom@@8			; IGostCryptFormatCom::`RTTI Base Class Array'
PUBLIC	??_R1A@?0A@EA@IGostCryptFormatCom@@8		; IGostCryptFormatCom::`RTTI Base Class Descriptor at (0,-1,0,64)'
PUBLIC	??_R4GostCryptFormatCom@@6B@			; GostCryptFormatCom::`RTTI Complete Object Locator'
PUBLIC	??_R0?AVGostCryptFormatCom@@@8			; GostCryptFormatCom `RTTI Type Descriptor'
PUBLIC	??_R3GostCryptFormatCom@@8			; GostCryptFormatCom::`RTTI Class Hierarchy Descriptor'
PUBLIC	??_R2GostCryptFormatCom@@8			; GostCryptFormatCom::`RTTI Base Class Array'
PUBLIC	??_R1A@?0A@EA@GostCryptFormatCom@@8		; GostCryptFormatCom::`RTTI Base Class Descriptor at (0,-1,0,64)'
PUBLIC	??_R4?$GostCryptFactory@VGostCryptFormatCom@@@@6B@ ; GostCryptFactory<GostCryptFormatCom>::`RTTI Complete Object Locator'
PUBLIC	??_R0?AV?$GostCryptFactory@VGostCryptFormatCom@@@@@8 ; GostCryptFactory<GostCryptFormatCom> `RTTI Type Descriptor'
PUBLIC	??_R3?$GostCryptFactory@VGostCryptFormatCom@@@@8 ; GostCryptFactory<GostCryptFormatCom>::`RTTI Class Hierarchy Descriptor'
PUBLIC	??_R2?$GostCryptFactory@VGostCryptFormatCom@@@@8 ; GostCryptFactory<GostCryptFormatCom>::`RTTI Base Class Array'
PUBLIC	??_R1A@?0A@EA@?$GostCryptFactory@VGostCryptFormatCom@@@@8 ; GostCryptFactory<GostCryptFormatCom>::`RTTI Base Class Descriptor at (0,-1,0,64)'
EXTRN	__purecall:PROC
EXTRN	??2@YAPAXI@Z:PROC				; operator new
EXTRN	??3@YAXPAXI@Z:PROC				; operator delete
EXTRN	__imp__InitializeCriticalSectionEx@12:PROC
EXTRN	__imp__GetCurrentThreadId@0:PROC
EXTRN	__imp__SetProcessShutdownParameters@8:PROC
EXTRN	__imp__GetMessageA@16:PROC
EXTRN	__imp__TranslateMessage@4:PROC
EXTRN	__imp__DispatchMessageA@4:PROC
EXTRN	__imp__PostThreadMessageA@16:PROC
EXTRN	__imp__CoUninitialize@0:PROC
EXTRN	__imp__CoRegisterClassObject@20:PROC
EXTRN	__imp__CoRevokeClassObject@4:PROC
EXTRN	__imp__CoInitialize@4:PROC
EXTRN	?CallDriver@BaseCom@@SAKKPA_WPAPA_W@Z:PROC	; BaseCom::CallDriver
EXTRN	?CopyFileA@BaseCom@@SAKPA_W0@Z:PROC		; BaseCom::CopyFileA
EXTRN	?DeleteFileA@BaseCom@@SAKPA_W@Z:PROC		; BaseCom::DeleteFileA
EXTRN	?IsPagingFileActive@BaseCom@@SAHH@Z:PROC	; BaseCom::IsPagingFileActive
EXTRN	?ReadWriteFile@BaseCom@@SAKHHPA_WPAPA_W_KIPAK@Z:PROC ; BaseCom::ReadWriteFile
EXTRN	?RegisterFilterDriver@BaseCom@@SAKHH@Z:PROC	; BaseCom::RegisterFilterDriver
EXTRN	?RegisterSystemFavoritesService@BaseCom@@SAKH@Z:PROC ; BaseCom::RegisterSystemFavoritesService
EXTRN	?SetDriverServiceStartType@BaseCom@@SAKK@Z:PROC	; BaseCom::SetDriverServiceStartType
EXTRN	?WriteLocalMachineRegistryDwordValue@BaseCom@@SAKPA_W0K@Z:PROC ; BaseCom::WriteLocalMachineRegistryDwordValue
EXTRN	?ComGetInstanceBase@@YAHPAUHWND__@@ABU_GUID@@1PAPAX@Z:PROC ; ComGetInstanceBase
EXTRN	_IsUacSupported:PROC
EXTRN	_FormatNtfs:PROC
EXTRN	_AnalyzeHiddenVolumeHost:PROC
EXTRN	@__security_check_cookie@4:PROC
EXTRN	__CxxThrowException@8:PROC
EXTRN	___CxxFrameHandler3:PROC
EXTRN	_IID_IUnknown:BYTE
EXTRN	_IID_IClassFactory:BYTE
EXTRN	??_7type_info@@6B@:QWORD			; type_info::`vftable'
EXTRN	_UacElevated:DWORD
EXTRN	___security_cookie:DWORD
;	COMDAT ?atlTraceGeneral@ATL@@3V?$CTraceCategoryEx@$00$0A@@1@A
_BSS	SEGMENT
?atlTraceGeneral@ATL@@3V?$CTraceCategoryEx@$00$0A@@1@A DD 01H DUP (?) ; ATL::atlTraceGeneral
_BSS	ENDS
;	COMDAT ?atlTraceCOM@ATL@@3V?$CTraceCategoryEx@$01$0A@@1@A
_BSS	SEGMENT
?atlTraceCOM@ATL@@3V?$CTraceCategoryEx@$01$0A@@1@A DD 01H DUP (?) ; ATL::atlTraceCOM
_BSS	ENDS
;	COMDAT ?atlTraceQI@ATL@@3V?$CTraceCategoryEx@$03$0A@@1@A
_BSS	SEGMENT
?atlTraceQI@ATL@@3V?$CTraceCategoryEx@$03$0A@@1@A DD 01H DUP (?) ; ATL::atlTraceQI
_BSS	ENDS
;	COMDAT ?atlTraceRegistrar@ATL@@3V?$CTraceCategoryEx@$07$0A@@1@A
_BSS	SEGMENT
?atlTraceRegistrar@ATL@@3V?$CTraceCategoryEx@$07$0A@@1@A DD 01H DUP (?) ; ATL::atlTraceRegistrar
_BSS	ENDS
;	COMDAT ?atlTraceRefcount@ATL@@3V?$CTraceCategoryEx@$0BA@$0A@@1@A
_BSS	SEGMENT
?atlTraceRefcount@ATL@@3V?$CTraceCategoryEx@$0BA@$0A@@1@A DD 01H DUP (?) ; ATL::atlTraceRefcount
_BSS	ENDS
;	COMDAT ?atlTraceWindowing@ATL@@3V?$CTraceCategoryEx@$0CA@$0A@@1@A
_BSS	SEGMENT
?atlTraceWindowing@ATL@@3V?$CTraceCategoryEx@$0CA@$0A@@1@A DD 01H DUP (?) ; ATL::atlTraceWindowing
_BSS	ENDS
;	COMDAT ?atlTraceControls@ATL@@3V?$CTraceCategoryEx@$0EA@$0A@@1@A
_BSS	SEGMENT
?atlTraceControls@ATL@@3V?$CTraceCategoryEx@$0EA@$0A@@1@A DD 01H DUP (?) ; ATL::atlTraceControls
_BSS	ENDS
;	COMDAT ?atlTraceHosting@ATL@@3V?$CTraceCategoryEx@$0IA@$0A@@1@A
_BSS	SEGMENT
?atlTraceHosting@ATL@@3V?$CTraceCategoryEx@$0IA@$0A@@1@A DD 01H DUP (?) ; ATL::atlTraceHosting
_BSS	ENDS
;	COMDAT ?atlTraceDBClient@ATL@@3V?$CTraceCategoryEx@$0BAA@$0A@@1@A
_BSS	SEGMENT
?atlTraceDBClient@ATL@@3V?$CTraceCategoryEx@$0BAA@$0A@@1@A DD 01H DUP (?) ; ATL::atlTraceDBClient
_BSS	ENDS
;	COMDAT ?atlTraceDBProvider@ATL@@3V?$CTraceCategoryEx@$0CAA@$0A@@1@A
_BSS	SEGMENT
?atlTraceDBProvider@ATL@@3V?$CTraceCategoryEx@$0CAA@$0A@@1@A DD 01H DUP (?) ; ATL::atlTraceDBProvider
_BSS	ENDS
;	COMDAT ?atlTraceSnapin@ATL@@3V?$CTraceCategoryEx@$0EAA@$0A@@1@A
_BSS	SEGMENT
?atlTraceSnapin@ATL@@3V?$CTraceCategoryEx@$0EAA@$0A@@1@A DD 01H DUP (?) ; ATL::atlTraceSnapin
_BSS	ENDS
;	COMDAT ?atlTraceNotImpl@ATL@@3V?$CTraceCategoryEx@$0IAA@$0A@@1@A
_BSS	SEGMENT
?atlTraceNotImpl@ATL@@3V?$CTraceCategoryEx@$0IAA@$0A@@1@A DD 01H DUP (?) ; ATL::atlTraceNotImpl
_BSS	ENDS
;	COMDAT ?atlTraceAllocation@ATL@@3V?$CTraceCategoryEx@$0BAAA@$0A@@1@A
_BSS	SEGMENT
?atlTraceAllocation@ATL@@3V?$CTraceCategoryEx@$0BAAA@$0A@@1@A DD 01H DUP (?) ; ATL::atlTraceAllocation
_BSS	ENDS
;	COMDAT ?atlTraceException@ATL@@3V?$CTraceCategoryEx@$0CAAA@$0A@@1@A
_BSS	SEGMENT
?atlTraceException@ATL@@3V?$CTraceCategoryEx@$0CAAA@$0A@@1@A DD 01H DUP (?) ; ATL::atlTraceException
_BSS	ENDS
;	COMDAT ?atlTraceTime@ATL@@3V?$CTraceCategoryEx@$0EAAA@$0A@@1@A
_BSS	SEGMENT
?atlTraceTime@ATL@@3V?$CTraceCategoryEx@$0EAAA@$0A@@1@A DD 01H DUP (?) ; ATL::atlTraceTime
_BSS	ENDS
;	COMDAT ?atlTraceCache@ATL@@3V?$CTraceCategoryEx@$0IAAA@$0A@@1@A
_BSS	SEGMENT
?atlTraceCache@ATL@@3V?$CTraceCategoryEx@$0IAAA@$0A@@1@A DD 01H DUP (?) ; ATL::atlTraceCache
_BSS	ENDS
;	COMDAT ?atlTraceStencil@ATL@@3V?$CTraceCategoryEx@$0BAAAA@$0A@@1@A
_BSS	SEGMENT
?atlTraceStencil@ATL@@3V?$CTraceCategoryEx@$0BAAAA@$0A@@1@A DD 01H DUP (?) ; ATL::atlTraceStencil
_BSS	ENDS
;	COMDAT ?atlTraceString@ATL@@3V?$CTraceCategoryEx@$0CAAAA@$0A@@1@A
_BSS	SEGMENT
?atlTraceString@ATL@@3V?$CTraceCategoryEx@$0CAAAA@$0A@@1@A DD 01H DUP (?) ; ATL::atlTraceString
_BSS	ENDS
;	COMDAT ?atlTraceMap@ATL@@3V?$CTraceCategoryEx@$0EAAAA@$0A@@1@A
_BSS	SEGMENT
?atlTraceMap@ATL@@3V?$CTraceCategoryEx@$0EAAAA@$0A@@1@A DD 01H DUP (?) ; ATL::atlTraceMap
_BSS	ENDS
;	COMDAT ?atlTraceUtil@ATL@@3V?$CTraceCategoryEx@$0IAAAA@$0A@@1@A
_BSS	SEGMENT
?atlTraceUtil@ATL@@3V?$CTraceCategoryEx@$0IAAAA@$0A@@1@A DD 01H DUP (?) ; ATL::atlTraceUtil
_BSS	ENDS
;	COMDAT ?atlTraceSecurity@ATL@@3V?$CTraceCategoryEx@$0BAAAAA@$0A@@1@A
_BSS	SEGMENT
?atlTraceSecurity@ATL@@3V?$CTraceCategoryEx@$0BAAAAA@$0A@@1@A DD 01H DUP (?) ; ATL::atlTraceSecurity
_BSS	ENDS
;	COMDAT ?atlTraceSync@ATL@@3V?$CTraceCategoryEx@$0CAAAAA@$0A@@1@A
_BSS	SEGMENT
?atlTraceSync@ATL@@3V?$CTraceCategoryEx@$0CAAAAA@$0A@@1@A DD 01H DUP (?) ; ATL::atlTraceSync
_BSS	ENDS
;	COMDAT ?atlTraceISAPI@ATL@@3V?$CTraceCategoryEx@$0EAAAAA@$0A@@1@A
_BSS	SEGMENT
?atlTraceISAPI@ATL@@3V?$CTraceCategoryEx@$0EAAAAA@$0A@@1@A DD 01H DUP (?) ; ATL::atlTraceISAPI
_BSS	ENDS
;	COMDAT ??_R1A@?0A@EA@?$GostCryptFactory@VGostCryptFormatCom@@@@8
rdata$r	SEGMENT
??_R1A@?0A@EA@?$GostCryptFactory@VGostCryptFormatCom@@@@8 DD FLAT:??_R0?AV?$GostCryptFactory@VGostCryptFormatCom@@@@@8 ; GostCryptFactory<GostCryptFormatCom>::`RTTI Base Class Descriptor at (0,-1,0,64)'
	DD	02H
	DD	00H
	DD	0ffffffffH
	DD	00H
	DD	040H
	DD	FLAT:??_R3?$GostCryptFactory@VGostCryptFormatCom@@@@8
rdata$r	ENDS
;	COMDAT ??_R2?$GostCryptFactory@VGostCryptFormatCom@@@@8
rdata$r	SEGMENT
??_R2?$GostCryptFactory@VGostCryptFormatCom@@@@8 DD FLAT:??_R1A@?0A@EA@?$GostCryptFactory@VGostCryptFormatCom@@@@8 ; GostCryptFactory<GostCryptFormatCom>::`RTTI Base Class Array'
	DD	FLAT:??_R1A@?0A@EA@IClassFactory@@8
	DD	FLAT:??_R1A@?0A@EA@IUnknown@@8
rdata$r	ENDS
;	COMDAT ??_R3?$GostCryptFactory@VGostCryptFormatCom@@@@8
rdata$r	SEGMENT
??_R3?$GostCryptFactory@VGostCryptFormatCom@@@@8 DD 00H	; GostCryptFactory<GostCryptFormatCom>::`RTTI Class Hierarchy Descriptor'
	DD	00H
	DD	03H
	DD	FLAT:??_R2?$GostCryptFactory@VGostCryptFormatCom@@@@8
rdata$r	ENDS
;	COMDAT ??_R0?AV?$GostCryptFactory@VGostCryptFormatCom@@@@@8
data$r	SEGMENT
??_R0?AV?$GostCryptFactory@VGostCryptFormatCom@@@@@8 DD FLAT:??_7type_info@@6B@ ; GostCryptFactory<GostCryptFormatCom> `RTTI Type Descriptor'
	DD	00H
	DB	'.?AV?$GostCryptFactory@VGostCryptFormatCom@@@@', 00H
data$r	ENDS
;	COMDAT ??_R4?$GostCryptFactory@VGostCryptFormatCom@@@@6B@
rdata$r	SEGMENT
??_R4?$GostCryptFactory@VGostCryptFormatCom@@@@6B@ DD 00H ; GostCryptFactory<GostCryptFormatCom>::`RTTI Complete Object Locator'
	DD	00H
	DD	00H
	DD	FLAT:??_R0?AV?$GostCryptFactory@VGostCryptFormatCom@@@@@8
	DD	FLAT:??_R3?$GostCryptFactory@VGostCryptFormatCom@@@@8
rdata$r	ENDS
;	COMDAT ??_R1A@?0A@EA@GostCryptFormatCom@@8
rdata$r	SEGMENT
??_R1A@?0A@EA@GostCryptFormatCom@@8 DD FLAT:??_R0?AVGostCryptFormatCom@@@8 ; GostCryptFormatCom::`RTTI Base Class Descriptor at (0,-1,0,64)'
	DD	02H
	DD	00H
	DD	0ffffffffH
	DD	00H
	DD	040H
	DD	FLAT:??_R3GostCryptFormatCom@@8
rdata$r	ENDS
;	COMDAT ??_R2GostCryptFormatCom@@8
rdata$r	SEGMENT
??_R2GostCryptFormatCom@@8 DD FLAT:??_R1A@?0A@EA@GostCryptFormatCom@@8 ; GostCryptFormatCom::`RTTI Base Class Array'
	DD	FLAT:??_R1A@?0A@EA@IGostCryptFormatCom@@8
	DD	FLAT:??_R1A@?0A@EA@IUnknown@@8
rdata$r	ENDS
;	COMDAT ??_R3GostCryptFormatCom@@8
rdata$r	SEGMENT
??_R3GostCryptFormatCom@@8 DD 00H			; GostCryptFormatCom::`RTTI Class Hierarchy Descriptor'
	DD	00H
	DD	03H
	DD	FLAT:??_R2GostCryptFormatCom@@8
rdata$r	ENDS
;	COMDAT ??_R0?AVGostCryptFormatCom@@@8
data$r	SEGMENT
??_R0?AVGostCryptFormatCom@@@8 DD FLAT:??_7type_info@@6B@ ; GostCryptFormatCom `RTTI Type Descriptor'
	DD	00H
	DB	'.?AVGostCryptFormatCom@@', 00H
data$r	ENDS
;	COMDAT ??_R4GostCryptFormatCom@@6B@
rdata$r	SEGMENT
??_R4GostCryptFormatCom@@6B@ DD 00H			; GostCryptFormatCom::`RTTI Complete Object Locator'
	DD	00H
	DD	00H
	DD	FLAT:??_R0?AVGostCryptFormatCom@@@8
	DD	FLAT:??_R3GostCryptFormatCom@@8
rdata$r	ENDS
;	COMDAT ??_R1A@?0A@EA@IGostCryptFormatCom@@8
rdata$r	SEGMENT
??_R1A@?0A@EA@IGostCryptFormatCom@@8 DD FLAT:??_R0?AUIGostCryptFormatCom@@@8 ; IGostCryptFormatCom::`RTTI Base Class Descriptor at (0,-1,0,64)'
	DD	01H
	DD	00H
	DD	0ffffffffH
	DD	00H
	DD	040H
	DD	FLAT:??_R3IGostCryptFormatCom@@8
rdata$r	ENDS
;	COMDAT ??_R2IGostCryptFormatCom@@8
rdata$r	SEGMENT
??_R2IGostCryptFormatCom@@8 DD FLAT:??_R1A@?0A@EA@IGostCryptFormatCom@@8 ; IGostCryptFormatCom::`RTTI Base Class Array'
	DD	FLAT:??_R1A@?0A@EA@IUnknown@@8
rdata$r	ENDS
;	COMDAT ??_R3IGostCryptFormatCom@@8
rdata$r	SEGMENT
??_R3IGostCryptFormatCom@@8 DD 00H			; IGostCryptFormatCom::`RTTI Class Hierarchy Descriptor'
	DD	00H
	DD	02H
	DD	FLAT:??_R2IGostCryptFormatCom@@8
rdata$r	ENDS
;	COMDAT ??_R0?AUIGostCryptFormatCom@@@8
data$r	SEGMENT
??_R0?AUIGostCryptFormatCom@@@8 DD FLAT:??_7type_info@@6B@ ; IGostCryptFormatCom `RTTI Type Descriptor'
	DD	00H
	DB	'.?AUIGostCryptFormatCom@@', 00H
data$r	ENDS
;	COMDAT ??_R1A@?0A@EA@UserAbort@GostCrypt@@8
rdata$r	SEGMENT
??_R1A@?0A@EA@UserAbort@GostCrypt@@8 DD FLAT:??_R0?AUUserAbort@GostCrypt@@@8 ; GostCrypt::UserAbort::`RTTI Base Class Descriptor at (0,-1,0,64)'
	DD	01H
	DD	00H
	DD	0ffffffffH
	DD	00H
	DD	040H
	DD	FLAT:??_R3UserAbort@GostCrypt@@8
rdata$r	ENDS
;	COMDAT ??_R2UserAbort@GostCrypt@@8
rdata$r	SEGMENT
??_R2UserAbort@GostCrypt@@8 DD FLAT:??_R1A@?0A@EA@UserAbort@GostCrypt@@8 ; GostCrypt::UserAbort::`RTTI Base Class Array'
	DD	FLAT:??_R1A@?0A@EA@Exception@GostCrypt@@8
rdata$r	ENDS
;	COMDAT ??_R3UserAbort@GostCrypt@@8
rdata$r	SEGMENT
??_R3UserAbort@GostCrypt@@8 DD 00H			; GostCrypt::UserAbort::`RTTI Class Hierarchy Descriptor'
	DD	00H
	DD	02H
	DD	FLAT:??_R2UserAbort@GostCrypt@@8
rdata$r	ENDS
;	COMDAT ??_R4UserAbort@GostCrypt@@6B@
rdata$r	SEGMENT
??_R4UserAbort@GostCrypt@@6B@ DD 00H			; GostCrypt::UserAbort::`RTTI Complete Object Locator'
	DD	00H
	DD	00H
	DD	FLAT:??_R0?AUUserAbort@GostCrypt@@@8
	DD	FLAT:??_R3UserAbort@GostCrypt@@8
rdata$r	ENDS
;	COMDAT ??_R1A@?0A@EA@Exception@GostCrypt@@8
rdata$r	SEGMENT
??_R1A@?0A@EA@Exception@GostCrypt@@8 DD FLAT:??_R0?AUException@GostCrypt@@@8 ; GostCrypt::Exception::`RTTI Base Class Descriptor at (0,-1,0,64)'
	DD	00H
	DD	00H
	DD	0ffffffffH
	DD	00H
	DD	040H
	DD	FLAT:??_R3Exception@GostCrypt@@8
rdata$r	ENDS
;	COMDAT ??_R2Exception@GostCrypt@@8
rdata$r	SEGMENT
??_R2Exception@GostCrypt@@8 DD FLAT:??_R1A@?0A@EA@Exception@GostCrypt@@8 ; GostCrypt::Exception::`RTTI Base Class Array'
rdata$r	ENDS
;	COMDAT ??_R3Exception@GostCrypt@@8
rdata$r	SEGMENT
??_R3Exception@GostCrypt@@8 DD 00H			; GostCrypt::Exception::`RTTI Class Hierarchy Descriptor'
	DD	00H
	DD	01H
	DD	FLAT:??_R2Exception@GostCrypt@@8
rdata$r	ENDS
;	COMDAT ??_R4Exception@GostCrypt@@6B@
rdata$r	SEGMENT
??_R4Exception@GostCrypt@@6B@ DD 00H			; GostCrypt::Exception::`RTTI Complete Object Locator'
	DD	00H
	DD	00H
	DD	FLAT:??_R0?AUException@GostCrypt@@@8
	DD	FLAT:??_R3Exception@GostCrypt@@8
rdata$r	ENDS
;	COMDAT ??_R1A@?0A@EA@IClassFactory@@8
rdata$r	SEGMENT
??_R1A@?0A@EA@IClassFactory@@8 DD FLAT:??_R0?AUIClassFactory@@@8 ; IClassFactory::`RTTI Base Class Descriptor at (0,-1,0,64)'
	DD	01H
	DD	00H
	DD	0ffffffffH
	DD	00H
	DD	040H
	DD	FLAT:??_R3IClassFactory@@8
rdata$r	ENDS
;	COMDAT ??_R2IClassFactory@@8
rdata$r	SEGMENT
??_R2IClassFactory@@8 DD FLAT:??_R1A@?0A@EA@IClassFactory@@8 ; IClassFactory::`RTTI Base Class Array'
	DD	FLAT:??_R1A@?0A@EA@IUnknown@@8
rdata$r	ENDS
;	COMDAT ??_R3IClassFactory@@8
rdata$r	SEGMENT
??_R3IClassFactory@@8 DD 00H				; IClassFactory::`RTTI Class Hierarchy Descriptor'
	DD	00H
	DD	02H
	DD	FLAT:??_R2IClassFactory@@8
rdata$r	ENDS
;	COMDAT ??_R0?AUIClassFactory@@@8
data$r	SEGMENT
??_R0?AUIClassFactory@@@8 DD FLAT:??_7type_info@@6B@	; IClassFactory `RTTI Type Descriptor'
	DD	00H
	DB	'.?AUIClassFactory@@', 00H
data$r	ENDS
;	COMDAT ??_R1A@?0A@EA@IUnknown@@8
rdata$r	SEGMENT
??_R1A@?0A@EA@IUnknown@@8 DD FLAT:??_R0?AUIUnknown@@@8	; IUnknown::`RTTI Base Class Descriptor at (0,-1,0,64)'
	DD	00H
	DD	00H
	DD	0ffffffffH
	DD	00H
	DD	040H
	DD	FLAT:??_R3IUnknown@@8
rdata$r	ENDS
;	COMDAT ??_R2IUnknown@@8
rdata$r	SEGMENT
??_R2IUnknown@@8 DD FLAT:??_R1A@?0A@EA@IUnknown@@8	; IUnknown::`RTTI Base Class Array'
rdata$r	ENDS
;	COMDAT ??_R3IUnknown@@8
rdata$r	SEGMENT
??_R3IUnknown@@8 DD 00H					; IUnknown::`RTTI Class Hierarchy Descriptor'
	DD	00H
	DD	01H
	DD	FLAT:??_R2IUnknown@@8
rdata$r	ENDS
;	COMDAT ??_R0?AUIUnknown@@@8
data$r	SEGMENT
??_R0?AUIUnknown@@@8 DD FLAT:??_7type_info@@6B@		; IUnknown `RTTI Type Descriptor'
	DD	00H
	DB	'.?AUIUnknown@@', 00H
data$r	ENDS
;	COMDAT __CT??_R0?AUException@GostCrypt@@@8??0Exception@GostCrypt@@QAE@ABU01@@Z4
xdata$x	SEGMENT
__CT??_R0?AUException@GostCrypt@@@8??0Exception@GostCrypt@@QAE@ABU01@@Z4 DD 00H
	DD	FLAT:??_R0?AUException@GostCrypt@@@8
	DD	00H
	DD	0ffffffffH
	ORG $+4
	DD	04H
	DD	FLAT:??0Exception@GostCrypt@@QAE@ABU01@@Z
xdata$x	ENDS
;	COMDAT ??_R0?AUException@GostCrypt@@@8
data$r	SEGMENT
??_R0?AUException@GostCrypt@@@8 DD FLAT:??_7type_info@@6B@ ; GostCrypt::Exception `RTTI Type Descriptor'
	DD	00H
	DB	'.?AUException@GostCrypt@@', 00H
data$r	ENDS
;	COMDAT __CT??_R0?AUUserAbort@GostCrypt@@@8??0UserAbort@GostCrypt@@QAE@ABU01@@Z4
xdata$x	SEGMENT
__CT??_R0?AUUserAbort@GostCrypt@@@8??0UserAbort@GostCrypt@@QAE@ABU01@@Z4 DD 00H
	DD	FLAT:??_R0?AUUserAbort@GostCrypt@@@8
	DD	00H
	DD	0ffffffffH
	ORG $+4
	DD	04H
	DD	FLAT:??0UserAbort@GostCrypt@@QAE@ABU01@@Z
xdata$x	ENDS
;	COMDAT ??_R0?AUUserAbort@GostCrypt@@@8
data$r	SEGMENT
??_R0?AUUserAbort@GostCrypt@@@8 DD FLAT:??_7type_info@@6B@ ; GostCrypt::UserAbort `RTTI Type Descriptor'
	DD	00H
	DB	'.?AUUserAbort@GostCrypt@@', 00H
data$r	ENDS
;	COMDAT __CTA2?AUUserAbort@GostCrypt@@
xdata$x	SEGMENT
__CTA2?AUUserAbort@GostCrypt@@ DD 02H
	DD	FLAT:__CT??_R0?AUUserAbort@GostCrypt@@@8??0UserAbort@GostCrypt@@QAE@ABU01@@Z4
	DD	FLAT:__CT??_R0?AUException@GostCrypt@@@8??0Exception@GostCrypt@@QAE@ABU01@@Z4
xdata$x	ENDS
;	COMDAT __TI2?AUUserAbort@GostCrypt@@
xdata$x	SEGMENT
__TI2?AUUserAbort@GostCrypt@@ DD 00H
	DD	00H
	DD	00H
	DD	FLAT:__CTA2?AUUserAbort@GostCrypt@@
xdata$x	ENDS
;	COMDAT ??_7?$GostCryptFactory@VGostCryptFormatCom@@@@6B@
CONST	SEGMENT
??_7?$GostCryptFactory@VGostCryptFormatCom@@@@6B@ DD FLAT:??_R4?$GostCryptFactory@VGostCryptFormatCom@@@@6B@ ; GostCryptFactory<GostCryptFormatCom>::`vftable'
	DD	FLAT:?QueryInterface@?$GostCryptFactory@VGostCryptFormatCom@@@@UAGJABU_GUID@@PAPAX@Z
	DD	FLAT:?AddRef@?$GostCryptFactory@VGostCryptFormatCom@@@@UAGKXZ
	DD	FLAT:?Release@?$GostCryptFactory@VGostCryptFormatCom@@@@UAGKXZ
	DD	FLAT:?CreateInstance@?$GostCryptFactory@VGostCryptFormatCom@@@@UAGJPAUIUnknown@@ABU_GUID@@PAPAX@Z
	DD	FLAT:?LockServer@?$GostCryptFactory@VGostCryptFormatCom@@@@UAGJH@Z
	DD	FLAT:?IsServerLocked@?$GostCryptFactory@VGostCryptFormatCom@@@@UAE_NXZ
CONST	ENDS
;	COMDAT ??_7GostCryptFormatCom@@6B@
CONST	SEGMENT
??_7GostCryptFormatCom@@6B@ DD FLAT:??_R4GostCryptFormatCom@@6B@ ; GostCryptFormatCom::`vftable'
	DD	FLAT:?QueryInterface@GostCryptFormatCom@@UAGJABU_GUID@@PAPAX@Z
	DD	FLAT:?AddRef@GostCryptFormatCom@@UAGKXZ
	DD	FLAT:?Release@GostCryptFormatCom@@UAGKXZ
	DD	FLAT:?AnalyzeHiddenVolumeHost@GostCryptFormatCom@@UAGHJPAH_J0PA_J@Z
	DD	FLAT:?CallDriver@GostCryptFormatCom@@UAGKKPA_WPAPA_W@Z
	DD	FLAT:?CopyFileA@GostCryptFormatCom@@UAGKPA_W0@Z
	DD	FLAT:?DeleteFileA@GostCryptFormatCom@@UAGKPA_W@Z
	DD	FLAT:?FormatNtfs@GostCryptFormatCom@@UAGHHH@Z
	DD	FLAT:?IsPagingFileActive@GostCryptFormatCom@@UAGHH@Z
	DD	FLAT:?ReadWriteFile@GostCryptFormatCom@@UAGKHHPA_WPAPA_W_KIPAK@Z
	DD	FLAT:?RegisterFilterDriver@GostCryptFormatCom@@UAGKHH@Z
	DD	FLAT:?RegisterSystemFavoritesService@GostCryptFormatCom@@UAGKH@Z
	DD	FLAT:?SetDriverServiceStartType@GostCryptFormatCom@@UAGKK@Z
	DD	FLAT:?WriteLocalMachineRegistryDwordValue@GostCryptFormatCom@@UAGKPA_W0K@Z
CONST	ENDS
;	COMDAT ??_7UserAbort@GostCrypt@@6B@
CONST	SEGMENT
??_7UserAbort@GostCrypt@@6B@ DD FLAT:??_R4UserAbort@GostCrypt@@6B@ ; GostCrypt::UserAbort::`vftable'
	DD	FLAT:?Show@UserAbort@GostCrypt@@UBEXPAUHWND__@@@Z
CONST	ENDS
;	COMDAT ??_7Exception@GostCrypt@@6B@
CONST	SEGMENT
??_7Exception@GostCrypt@@6B@ DD FLAT:??_R4Exception@GostCrypt@@6B@ ; GostCrypt::Exception::`vftable'
	DD	FLAT:__purecall
CONST	ENDS
;	COMDAT xdata$x
xdata$x	SEGMENT
__ehfuncinfo$??1?$CComPtr@UIGostCryptFormatCom@@@ATL@@QAE@XZ DD 019930522H
	DD	00H
	DD	00H
	DD	2 DUP(00H)
	DD	2 DUP(00H)
	DD	00H
	DD	05H
xdata$x	ENDS
; Function compile flags: /Ogtp
;	COMDAT ??1?$CComPtr@UIGostCryptFormatCom@@@ATL@@QAE@XZ
_TEXT	SEGMENT
__$EHRec$ = -12						; size = 12
??1?$CComPtr@UIGostCryptFormatCom@@@ATL@@QAE@XZ PROC	; ATL::CComPtr<IGostCryptFormatCom>::~CComPtr<IGostCryptFormatCom>, COMDAT
; _this$ = ecx
  00000	55		 push	 ebp
  00001	8b ec		 mov	 ebp, esp
  00003	6a ff		 push	 -1
  00005	68 00 00 00 00	 push	 __ehhandler$??1?$CComPtr@UIGostCryptFormatCom@@@ATL@@QAE@XZ
  0000a	64 a1 00 00 00
	00		 mov	 eax, DWORD PTR fs:0
  00010	50		 push	 eax
  00011	a1 00 00 00 00	 mov	 eax, DWORD PTR ___security_cookie
  00016	33 c5		 xor	 eax, ebp
  00018	50		 push	 eax
  00019	8d 45 f4	 lea	 eax, DWORD PTR __$EHRec$[ebp]
  0001c	64 a3 00 00 00
	00		 mov	 DWORD PTR fs:0, eax
  00022	8b 09		 mov	 ecx, DWORD PTR [ecx]
  00024	85 c9		 test	 ecx, ecx
  00026	74 06		 je	 SHORT $LN4@CComPtr
  00028	8b 01		 mov	 eax, DWORD PTR [ecx]
  0002a	51		 push	 ecx
  0002b	ff 50 08	 call	 DWORD PTR [eax+8]
$LN4@CComPtr:
  0002e	8b 4d f4	 mov	 ecx, DWORD PTR __$EHRec$[ebp]
  00031	64 89 0d 00 00
	00 00		 mov	 DWORD PTR fs:0, ecx
  00038	59		 pop	 ecx
  00039	8b e5		 mov	 esp, ebp
  0003b	5d		 pop	 ebp
  0003c	c3		 ret	 0
_TEXT	ENDS
;	COMDAT text$x
text$x	SEGMENT
__ehhandler$??1?$CComPtr@UIGostCryptFormatCom@@@ATL@@QAE@XZ:
  00000	8b 54 24 08	 mov	 edx, DWORD PTR [esp+8]
  00004	8d 42 0c	 lea	 eax, DWORD PTR [edx+12]
  00007	8b 4a fc	 mov	 ecx, DWORD PTR [edx-4]
  0000a	33 c8		 xor	 ecx, eax
  0000c	e8 00 00 00 00	 call	 @__security_check_cookie@4
  00011	b8 00 00 00 00	 mov	 eax, OFFSET __ehfuncinfo$??1?$CComPtr@UIGostCryptFormatCom@@@ATL@@QAE@XZ
  00016	e9 00 00 00 00	 jmp	 ___CxxFrameHandler3
text$x	ENDS
??1?$CComPtr@UIGostCryptFormatCom@@@ATL@@QAE@XZ ENDP	; ATL::CComPtr<IGostCryptFormatCom>::~CComPtr<IGostCryptFormatCom>
; Function compile flags: /Ogtp
; File c:\program files (x86)\microsoft visual studio 14.0\vc\atlmfc\include\atlcomcli.h
;	COMDAT ??0?$CComPtr@UIGostCryptFormatCom@@@ATL@@QAE@XZ
_TEXT	SEGMENT
??0?$CComPtr@UIGostCryptFormatCom@@@ATL@@QAE@XZ PROC	; ATL::CComPtr<IGostCryptFormatCom>::CComPtr<IGostCryptFormatCom>, COMDAT
; _this$ = ecx

; 320  :     {

  00000	c7 01 00 00 00
	00		 mov	 DWORD PTR [ecx], 0

; 321  :     }

  00006	8b c1		 mov	 eax, ecx
  00008	c3		 ret	 0
??0?$CComPtr@UIGostCryptFormatCom@@@ATL@@QAE@XZ ENDP	; ATL::CComPtr<IGostCryptFormatCom>::CComPtr<IGostCryptFormatCom>
_TEXT	ENDS
; Function compile flags: /Ogtp
; File c:\program files (x86)\microsoft visual studio 14.0\vc\atlmfc\include\atlcomcli.h
;	COMDAT ??C?$CComPtrBase@UIGostCryptFormatCom@@@ATL@@QBEPAV?$_NoAddRefReleaseOnCComPtr@UIGostCryptFormatCom@@@1@XZ
_TEXT	SEGMENT
??C?$CComPtrBase@UIGostCryptFormatCom@@@ATL@@QBEPAV?$_NoAddRefReleaseOnCComPtr@UIGostCryptFormatCom@@@1@XZ PROC ; ATL::CComPtrBase<IGostCryptFormatCom>::operator->, COMDAT
; _this$ = ecx

; 197  :         ATLASSERT(p!=NULL);
; 198  :         return (_NoAddRefReleaseOnCComPtr<T>*)p;

  00000	8b 01		 mov	 eax, DWORD PTR [ecx]

; 199  :     }

  00002	c3		 ret	 0
??C?$CComPtrBase@UIGostCryptFormatCom@@@ATL@@QBEPAV?$_NoAddRefReleaseOnCComPtr@UIGostCryptFormatCom@@@1@XZ ENDP ; ATL::CComPtrBase<IGostCryptFormatCom>::operator->
_TEXT	ENDS
; Function compile flags: /Ogtp
; File c:\program files (x86)\microsoft visual studio 14.0\vc\atlmfc\include\atlcomcli.h
;	COMDAT ??I?$CComPtrBase@UIGostCryptFormatCom@@@ATL@@QAEPAPAUIGostCryptFormatCom@@XZ
_TEXT	SEGMENT
??I?$CComPtrBase@UIGostCryptFormatCom@@@ATL@@QAEPAPAUIGostCryptFormatCom@@XZ PROC ; ATL::CComPtrBase<IGostCryptFormatCom>::operator&, COMDAT
; _this$ = ecx

; 192  :         ATLASSERT(p==NULL);
; 193  :         return &p;

  00000	8b c1		 mov	 eax, ecx

; 194  :     }

  00002	c3		 ret	 0
??I?$CComPtrBase@UIGostCryptFormatCom@@@ATL@@QAEPAPAUIGostCryptFormatCom@@XZ ENDP ; ATL::CComPtrBase<IGostCryptFormatCom>::operator&
_TEXT	ENDS
; Function compile flags: /Ogtp
; File c:\program files (x86)\microsoft visual studio 14.0\vc\atlmfc\include\atlcomcli.h
;	COMDAT ??1?$CComPtrBase@UIGostCryptFormatCom@@@ATL@@QAE@XZ
_TEXT	SEGMENT
??1?$CComPtrBase@UIGostCryptFormatCom@@@ATL@@QAE@XZ PROC ; ATL::CComPtrBase<IGostCryptFormatCom>::~CComPtrBase<IGostCryptFormatCom>, COMDAT
; _this$ = ecx

; 176  :         if (p)

  00000	8b 09		 mov	 ecx, DWORD PTR [ecx]
  00002	85 c9		 test	 ecx, ecx
  00004	74 06		 je	 SHORT $LN2@CComPtrBas

; 177  :             p->Release();

  00006	8b 01		 mov	 eax, DWORD PTR [ecx]
  00008	51		 push	 ecx
  00009	ff 50 08	 call	 DWORD PTR [eax+8]
$LN2@CComPtrBas:

; 178  :     }

  0000c	c3		 ret	 0
??1?$CComPtrBase@UIGostCryptFormatCom@@@ATL@@QAE@XZ ENDP ; ATL::CComPtrBase<IGostCryptFormatCom>::~CComPtrBase<IGostCryptFormatCom>
_TEXT	ENDS
; Function compile flags: /Ogtp
; File c:\program files (x86)\microsoft visual studio 14.0\vc\atlmfc\include\atlcomcli.h
;	COMDAT ??0?$CComPtrBase@UIGostCryptFormatCom@@@ATL@@IAE@XZ
_TEXT	SEGMENT
??0?$CComPtrBase@UIGostCryptFormatCom@@@ATL@@IAE@XZ PROC ; ATL::CComPtrBase<IGostCryptFormatCom>::CComPtrBase<IGostCryptFormatCom>, COMDAT
; _this$ = ecx

; 157  :     {
; 158  :         p = NULL;

  00000	c7 01 00 00 00
	00		 mov	 DWORD PTR [ecx], 0

; 159  :     }

  00006	8b c1		 mov	 eax, ecx
  00008	c3		 ret	 0
??0?$CComPtrBase@UIGostCryptFormatCom@@@ATL@@IAE@XZ ENDP ; ATL::CComPtrBase<IGostCryptFormatCom>::CComPtrBase<IGostCryptFormatCom>
_TEXT	ENDS
; Function compile flags: /Ogtp
; File c:\users\alexis\documents\finalgostcrypt\sources_gostcrypt_windows_1.3.1\format\formatcom.cpp
;	COMDAT ?ComGetInstance@@YAHPAUHWND__@@PAPAUIGostCryptFormatCom@@@Z
_TEXT	SEGMENT
_hWnd$ = 8						; size = 4
_gstServer$ = 12					; size = 4
?ComGetInstance@@YAHPAUHWND__@@PAPAUIGostCryptFormatCom@@@Z PROC ; ComGetInstance, COMDAT

; 328  : {

  00000	55		 push	 ebp
  00001	8b ec		 mov	 ebp, esp

; 329  : 	return ComGetInstanceBase (hWnd, CLSID_GostCryptFormatCom, IID_IGostCryptFormatCom, (void **) gstServer);

  00003	ff 75 0c	 push	 DWORD PTR _gstServer$[ebp]
  00006	68 00 00 00 00	 push	 OFFSET _IID_IGostCryptFormatCom
  0000b	68 00 00 00 00	 push	 OFFSET _CLSID_GostCryptFormatCom
  00010	ff 75 08	 push	 DWORD PTR _hWnd$[ebp]
  00013	e8 00 00 00 00	 call	 ?ComGetInstanceBase@@YAHPAUHWND__@@ABU_GUID@@1PAPAX@Z ; ComGetInstanceBase
  00018	83 c4 10	 add	 esp, 16			; 00000010H

; 330  : }

  0001b	5d		 pop	 ebp
  0001c	c3		 ret	 0
?ComGetInstance@@YAHPAUHWND__@@PAPAUIGostCryptFormatCom@@@Z ENDP ; ComGetInstance
_TEXT	ENDS
; Function compile flags: /Ogtp
;	COMDAT ??_G?$GostCryptFactory@VGostCryptFormatCom@@@@QAEPAXI@Z
_TEXT	SEGMENT
___flags$ = 8						; size = 4
??_G?$GostCryptFactory@VGostCryptFormatCom@@@@QAEPAXI@Z PROC ; GostCryptFactory<GostCryptFormatCom>::`scalar deleting destructor', COMDAT
; _this$ = ecx
  00000	55		 push	 ebp
  00001	8b ec		 mov	 ebp, esp
  00003	f6 45 08 01	 test	 BYTE PTR ___flags$[ebp], 1
  00007	56		 push	 esi
  00008	8b f1		 mov	 esi, ecx
  0000a	c7 06 00 00 00
	00		 mov	 DWORD PTR [esi], OFFSET ??_7?$GostCryptFactory@VGostCryptFormatCom@@@@6B@
  00010	74 0b		 je	 SHORT $LN7@scalar
  00012	6a 10		 push	 16			; 00000010H
  00014	56		 push	 esi
  00015	e8 00 00 00 00	 call	 ??3@YAXPAXI@Z		; operator delete
  0001a	83 c4 08	 add	 esp, 8
$LN7@scalar:
  0001d	8b c6		 mov	 eax, esi
  0001f	5e		 pop	 esi
  00020	5d		 pop	 ebp
  00021	c2 04 00	 ret	 4
??_G?$GostCryptFactory@VGostCryptFormatCom@@@@QAEPAXI@Z ENDP ; GostCryptFactory<GostCryptFormatCom>::`scalar deleting destructor'
_TEXT	ENDS
; Function compile flags: /Ogtp
; File c:\users\alexis\documents\finalgostcrypt\sources_gostcrypt_windows_1.3.1\common\basecom.h
;	COMDAT ?IsServerLocked@?$GostCryptFactory@VGostCryptFormatCom@@@@UAE_NXZ
_TEXT	SEGMENT
?IsServerLocked@?$GostCryptFactory@VGostCryptFormatCom@@@@UAE_NXZ PROC ; GostCryptFactory<GostCryptFormatCom>::IsServerLocked, COMDAT
; _this$ = ecx

; 86   : 	{

  00000	83 79 0c 00	 cmp	 DWORD PTR [ecx+12], 0
  00004	0f 9f c0	 setg	 al

; 87   : 		return ServerLockCount > 0;
; 88   : 	}

  00007	c3		 ret	 0
?IsServerLocked@?$GostCryptFactory@VGostCryptFormatCom@@@@UAE_NXZ ENDP ; GostCryptFactory<GostCryptFormatCom>::IsServerLocked
_TEXT	ENDS
; Function compile flags: /Ogtp
; File c:\users\alexis\documents\finalgostcrypt\sources_gostcrypt_windows_1.3.1\common\basecom.h
;	COMDAT ?LockServer@?$GostCryptFactory@VGostCryptFormatCom@@@@UAGJH@Z
_TEXT	SEGMENT
_this$ = 8						; size = 4
_fLock$ = 12						; size = 4
?LockServer@?$GostCryptFactory@VGostCryptFormatCom@@@@UAGJH@Z PROC ; GostCryptFactory<GostCryptFormatCom>::LockServer, COMDAT

; 71   : 	{

  00000	55		 push	 ebp
  00001	8b ec		 mov	 ebp, esp

; 72   : 		if (fLock)

  00003	83 7d 0c 00	 cmp	 DWORD PTR _fLock$[ebp], 0
  00007	74 0d		 je	 SHORT $LN2@LockServer

; 73   : 		{
; 74   : 			InterlockedIncrement (&ServerLockCount);

  00009	8b 45 08	 mov	 eax, DWORD PTR _this$[ebp]
  0000c	f0 ff 40 0c	 lock	  inc	 DWORD PTR [eax+12]

; 80   : 		}
; 81   : 
; 82   : 		return S_OK;

  00010	33 c0		 xor	 eax, eax

; 83   : 	}

  00012	5d		 pop	 ebp
  00013	c2 08 00	 ret	 8
$LN2@LockServer:

; 75   : 		}
; 76   : 		else
; 77   : 		{
; 78   : 			if (!InterlockedDecrement (&ServerLockCount))

  00016	8b 4d 08	 mov	 ecx, DWORD PTR _this$[ebp]
  00019	83 c8 ff	 or	 eax, -1
  0001c	f0 0f c1 41 0c	 lock	  xadd	 DWORD PTR [ecx+12], eax
  00021	75 12		 jne	 SHORT $LN6@LockServer

; 79   : 				PostThreadMessage (MessageThreadId, WM_APP, 0, 0);

  00023	6a 00		 push	 0
  00025	6a 00		 push	 0
  00027	68 00 80 00 00	 push	 32768			; 00008000H
  0002c	ff 71 04	 push	 DWORD PTR [ecx+4]
  0002f	ff 15 00 00 00
	00		 call	 DWORD PTR __imp__PostThreadMessageA@16
$LN6@LockServer:

; 80   : 		}
; 81   : 
; 82   : 		return S_OK;

  00035	33 c0		 xor	 eax, eax

; 83   : 	}

  00037	5d		 pop	 ebp
  00038	c2 08 00	 ret	 8
?LockServer@?$GostCryptFactory@VGostCryptFormatCom@@@@UAGJH@Z ENDP ; GostCryptFactory<GostCryptFormatCom>::LockServer
_TEXT	ENDS
; Function compile flags: /Ogtp
; File c:\users\alexis\documents\finalgostcrypt\sources_gostcrypt_windows_1.3.1\common\basecom.h
;	COMDAT ?CreateInstance@?$GostCryptFactory@VGostCryptFormatCom@@@@UAGJPAUIUnknown@@ABU_GUID@@PAPAX@Z
_TEXT	SEGMENT
_this$ = 8						; size = 4
$T1 = 12						; size = 4
_pUnkOuter$ = 12					; size = 4
_riid$ = 16						; size = 4
_ppvObject$ = 20					; size = 4
?CreateInstance@?$GostCryptFactory@VGostCryptFormatCom@@@@UAGJPAUIUnknown@@ABU_GUID@@PAPAX@Z PROC ; GostCryptFactory<GostCryptFormatCom>::CreateInstance, COMDAT

; 54   : 	{

  00000	55		 push	 ebp
  00001	8b ec		 mov	 ebp, esp

; 55   : 		if (pUnkOuter != NULL)

  00003	83 7d 0c 00	 cmp	 DWORD PTR _pUnkOuter$[ebp], 0
  00007	74 09		 je	 SHORT $LN2@CreateInst

; 56   : 			return CLASS_E_NOAGGREGATION;

  00009	b8 10 01 04 80	 mov	 eax, -2147221232	; 80040110H

; 68   : 	}

  0000e	5d		 pop	 ebp
  0000f	c2 10 00	 ret	 16			; 00000010H
$LN2@CreateInst:
  00012	56		 push	 esi

; 57   : 
; 58   : 		GSTlass *gst = new GSTlass (MessageThreadId);

  00013	6a 10		 push	 16			; 00000010H
  00015	e8 00 00 00 00	 call	 ??2@YAPAXI@Z		; operator new
  0001a	8b f0		 mov	 esi, eax
  0001c	83 c4 04	 add	 esp, 4
  0001f	89 75 0c	 mov	 DWORD PTR $T1[ebp], esi
  00022	85 f6		 test	 esi, esi
  00024	74 6e		 je	 SHORT $LN21@CreateInst
  00026	8b 4d 08	 mov	 ecx, DWORD PTR _this$[ebp]
  00029	57		 push	 edi
  0002a	8b 49 04	 mov	 ecx, DWORD PTR [ecx+4]
  0002d	c7 06 00 00 00
	00		 mov	 DWORD PTR [esi], OFFSET ??_7GostCryptFormatCom@@6B@
  00033	89 4e 04	 mov	 DWORD PTR [esi+4], ecx
  00036	c7 46 08 00 00
	00 00		 mov	 DWORD PTR [esi+8], 0
  0003d	c7 46 0c 00 00
	00 00		 mov	 DWORD PTR [esi+12], 0
  00044	f0 ff 05 00 00
	00 00		 lock	  inc	 DWORD PTR ?ObjectCount@@3JC

; 61   : 
; 62   : 		HRESULT hr = gst->QueryInterface (riid, ppvObject);

  0004b	ff 75 14	 push	 DWORD PTR _ppvObject$[ebp]
  0004e	8b 06		 mov	 eax, DWORD PTR [esi]
  00050	ff 75 10	 push	 DWORD PTR _riid$[ebp]
  00053	56		 push	 esi
  00054	ff 10		 call	 DWORD PTR [eax]
  00056	8b f8		 mov	 edi, eax

; 63   : 
; 64   : 		if (hr)

  00058	85 ff		 test	 edi, edi
  0005a	74 30		 je	 SHORT $LN14@CreateInst

; 65   : 			delete gst;

  0005c	c7 06 00 00 00
	00		 mov	 DWORD PTR [esi], OFFSET ??_7GostCryptFormatCom@@6B@
  00062	83 c9 ff	 or	 ecx, -1
  00065	f0 0f c1 0d 00
	00 00 00	 lock	  xadd	 DWORD PTR ?ObjectCount@@3JC, ecx
  0006d	75 12		 jne	 SHORT $LN18@CreateInst
  0006f	6a 00		 push	 0
  00071	6a 00		 push	 0
  00073	68 00 80 00 00	 push	 32768			; 00008000H
  00078	ff 76 04	 push	 DWORD PTR [esi+4]
  0007b	ff 15 00 00 00
	00		 call	 DWORD PTR __imp__PostThreadMessageA@16
$LN18@CreateInst:
  00081	6a 10		 push	 16			; 00000010H
  00083	56		 push	 esi
  00084	e8 00 00 00 00	 call	 ??3@YAXPAXI@Z		; operator delete
  00089	83 c4 08	 add	 esp, 8
$LN14@CreateInst:

; 66   : 
; 67   : 		return hr;

  0008c	8b c7		 mov	 eax, edi
  0008e	5f		 pop	 edi
  0008f	5e		 pop	 esi

; 68   : 	}

  00090	5d		 pop	 ebp
  00091	c2 10 00	 ret	 16			; 00000010H
$LN21@CreateInst:

; 59   : 		if (gst == NULL)
; 60   : 			return E_OUTOFMEMORY;

  00094	b8 0e 00 07 80	 mov	 eax, -2147024882	; 8007000eH
  00099	5e		 pop	 esi

; 68   : 	}

  0009a	5d		 pop	 ebp
  0009b	c2 10 00	 ret	 16			; 00000010H
?CreateInstance@?$GostCryptFactory@VGostCryptFormatCom@@@@UAGJPAUIUnknown@@ABU_GUID@@PAPAX@Z ENDP ; GostCryptFactory<GostCryptFormatCom>::CreateInstance
_TEXT	ENDS
; Function compile flags: /Ogtp
; File c:\users\alexis\documents\finalgostcrypt\sources_gostcrypt_windows_1.3.1\common\basecom.h
;	COMDAT ?QueryInterface@?$GostCryptFactory@VGostCryptFormatCom@@@@UAGJABU_GUID@@PAPAX@Z
_TEXT	SEGMENT
_this$ = 8						; size = 4
_riid$ = 12						; size = 4
_ppvObject$ = 16					; size = 4
?QueryInterface@?$GostCryptFactory@VGostCryptFormatCom@@@@UAGJABU_GUID@@PAPAX@Z PROC ; GostCryptFactory<GostCryptFormatCom>::QueryInterface, COMDAT

; 40   : 	{

  00000	55		 push	 ebp
  00001	8b ec		 mov	 ebp, esp

; 41   : 		if (riid == IID_IUnknown || riid == IID_IClassFactory)

  00003	8b 4d 0c	 mov	 ecx, DWORD PTR _riid$[ebp]
  00006	8b d1		 mov	 edx, ecx
  00008	56		 push	 esi
  00009	57		 push	 edi
  0000a	be 00 00 00 00	 mov	 esi, OFFSET _IID_IUnknown
  0000f	bf 0c 00 00 00	 mov	 edi, 12			; 0000000cH
$LL16@QueryInter:
  00014	8b 02		 mov	 eax, DWORD PTR [edx]
  00016	3b 06		 cmp	 eax, DWORD PTR [esi]
  00018	75 0d		 jne	 SHORT $LN15@QueryInter
  0001a	83 c2 04	 add	 edx, 4
  0001d	83 c6 04	 add	 esi, 4
  00020	83 ef 04	 sub	 edi, 4
  00023	73 ef		 jae	 SHORT $LL16@QueryInter
  00025	eb 1b		 jmp	 SHORT $LN4@QueryInter
$LN15@QueryInter:
  00027	ba 00 00 00 00	 mov	 edx, OFFSET _IID_IClassFactory
  0002c	be 0c 00 00 00	 mov	 esi, 12			; 0000000cH
$LL19@QueryInter:
  00031	8b 01		 mov	 eax, DWORD PTR [ecx]
  00033	3b 02		 cmp	 eax, DWORD PTR [edx]
  00035	75 21		 jne	 SHORT $LN18@QueryInter
  00037	83 c1 04	 add	 ecx, 4
  0003a	83 c2 04	 add	 edx, 4
  0003d	83 ee 04	 sub	 esi, 4
  00040	73 ef		 jae	 SHORT $LL19@QueryInter
$LN4@QueryInter:

; 42   : 			*ppvObject = this;

  00042	8b 4d 08	 mov	 ecx, DWORD PTR _this$[ebp]
  00045	8b 45 10	 mov	 eax, DWORD PTR _ppvObject$[ebp]

; 47   : 		}
; 48   : 
; 49   : 		AddRef ();

  00048	51		 push	 ecx
  00049	89 08		 mov	 DWORD PTR [eax], ecx
  0004b	8b 01		 mov	 eax, DWORD PTR [ecx]
  0004d	ff 50 04	 call	 DWORD PTR [eax+4]
  00050	5f		 pop	 edi

; 50   : 		return S_OK;

  00051	33 c0		 xor	 eax, eax
  00053	5e		 pop	 esi

; 51   : 	}

  00054	5d		 pop	 ebp
  00055	c2 0c 00	 ret	 12			; 0000000cH
$LN18@QueryInter:

; 43   : 		else
; 44   : 		{
; 45   : 			*ppvObject = NULL;

  00058	8b 45 10	 mov	 eax, DWORD PTR _ppvObject$[ebp]
  0005b	5f		 pop	 edi
  0005c	5e		 pop	 esi
  0005d	c7 00 00 00 00
	00		 mov	 DWORD PTR [eax], 0

; 46   : 			return E_NOINTERFACE;

  00063	b8 02 40 00 80	 mov	 eax, -2147467262	; 80004002H

; 51   : 	}

  00068	5d		 pop	 ebp
  00069	c2 0c 00	 ret	 12			; 0000000cH
?QueryInterface@?$GostCryptFactory@VGostCryptFormatCom@@@@UAGJABU_GUID@@PAPAX@Z ENDP ; GostCryptFactory<GostCryptFormatCom>::QueryInterface
_TEXT	ENDS
; Function compile flags: /Ogtp
; File c:\users\alexis\documents\finalgostcrypt\sources_gostcrypt_windows_1.3.1\common\basecom.h
;	COMDAT ?Release@?$GostCryptFactory@VGostCryptFormatCom@@@@UAGKXZ
_TEXT	SEGMENT
_this$ = 8						; size = 4
?Release@?$GostCryptFactory@VGostCryptFormatCom@@@@UAGKXZ PROC ; GostCryptFactory<GostCryptFormatCom>::Release, COMDAT

; 30   : 	{

  00000	55		 push	 ebp
  00001	8b ec		 mov	 ebp, esp

; 31   : 		ULONG r = InterlockedDecrement (&RefCount) + 1;

  00003	8b 45 08	 mov	 eax, DWORD PTR _this$[ebp]
  00006	56		 push	 esi
  00007	83 ce ff	 or	 esi, -1
  0000a	f0 0f c1 70 08	 lock	  xadd	 DWORD PTR [eax+8], esi
  0000f	4e		 dec	 esi
  00010	83 c6 01	 add	 esi, 1

; 32   : 
; 33   : 		if (r == 0)

  00013	75 15		 jne	 SHORT $LN14@Release

; 34   : 			delete this;

  00015	85 c0		 test	 eax, eax
  00017	74 11		 je	 SHORT $LN14@Release
  00019	6a 10		 push	 16			; 00000010H
  0001b	50		 push	 eax
  0001c	c7 00 00 00 00
	00		 mov	 DWORD PTR [eax], OFFSET ??_7?$GostCryptFactory@VGostCryptFormatCom@@@@6B@
  00022	e8 00 00 00 00	 call	 ??3@YAXPAXI@Z		; operator delete
  00027	83 c4 08	 add	 esp, 8
$LN14@Release:

; 35   : 
; 36   : 		return r;

  0002a	8b c6		 mov	 eax, esi
  0002c	5e		 pop	 esi

; 37   : 	}

  0002d	5d		 pop	 ebp
  0002e	c2 04 00	 ret	 4
?Release@?$GostCryptFactory@VGostCryptFormatCom@@@@UAGKXZ ENDP ; GostCryptFactory<GostCryptFormatCom>::Release
_TEXT	ENDS
; Function compile flags: /Ogtp
; File c:\users\alexis\documents\finalgostcrypt\sources_gostcrypt_windows_1.3.1\common\basecom.h
;	COMDAT ?AddRef@?$GostCryptFactory@VGostCryptFormatCom@@@@UAGKXZ
_TEXT	SEGMENT
_this$ = 8						; size = 4
?AddRef@?$GostCryptFactory@VGostCryptFormatCom@@@@UAGKXZ PROC ; GostCryptFactory<GostCryptFormatCom>::AddRef, COMDAT

; 25   : 	{

  00000	55		 push	 ebp
  00001	8b ec		 mov	 ebp, esp

; 26   : 		return InterlockedIncrement (&RefCount) - 1;

  00003	8b 4d 08	 mov	 ecx, DWORD PTR _this$[ebp]
  00006	b8 01 00 00 00	 mov	 eax, 1
  0000b	f0 0f c1 41 08	 lock	  xadd	 DWORD PTR [ecx+8], eax
  00010	40		 inc	 eax
  00011	48		 dec	 eax

; 27   : 	}

  00012	5d		 pop	 ebp
  00013	c2 04 00	 ret	 4
?AddRef@?$GostCryptFactory@VGostCryptFormatCom@@@@UAGKXZ ENDP ; GostCryptFactory<GostCryptFormatCom>::AddRef
_TEXT	ENDS
; Function compile flags: /Ogtp
; File c:\users\alexis\documents\finalgostcrypt\sources_gostcrypt_windows_1.3.1\common\basecom.h
;	COMDAT ??1?$GostCryptFactory@VGostCryptFormatCom@@@@QAE@XZ
_TEXT	SEGMENT
??1?$GostCryptFactory@VGostCryptFormatCom@@@@QAE@XZ PROC ; GostCryptFactory<GostCryptFormatCom>::~GostCryptFactory<GostCryptFormatCom>, COMDAT
; _this$ = ecx

; 22   : 	~GostCryptFactory () { }

  00000	c7 01 00 00 00
	00		 mov	 DWORD PTR [ecx], OFFSET ??_7?$GostCryptFactory@VGostCryptFormatCom@@@@6B@
  00006	c3		 ret	 0
??1?$GostCryptFactory@VGostCryptFormatCom@@@@QAE@XZ ENDP ; GostCryptFactory<GostCryptFormatCom>::~GostCryptFactory<GostCryptFormatCom>
_TEXT	ENDS
; Function compile flags: /Ogtp
; File c:\users\alexis\documents\finalgostcrypt\sources_gostcrypt_windows_1.3.1\common\basecom.h
;	COMDAT ??0?$GostCryptFactory@VGostCryptFormatCom@@@@QAE@K@Z
_TEXT	SEGMENT
_messageThreadId$ = 8					; size = 4
??0?$GostCryptFactory@VGostCryptFormatCom@@@@QAE@K@Z PROC ; GostCryptFactory<GostCryptFormatCom>::GostCryptFactory<GostCryptFormatCom>, COMDAT
; _this$ = ecx

; 20   : 		RefCount (1), ServerLockCount (0), MessageThreadId (messageThreadId) { }

  00000	55		 push	 ebp
  00001	8b ec		 mov	 ebp, esp
  00003	8b 45 08	 mov	 eax, DWORD PTR _messageThreadId$[ebp]
  00006	89 41 04	 mov	 DWORD PTR [ecx+4], eax
  00009	8b c1		 mov	 eax, ecx
  0000b	c7 01 00 00 00
	00		 mov	 DWORD PTR [ecx], OFFSET ??_7?$GostCryptFactory@VGostCryptFormatCom@@@@6B@
  00011	c7 41 08 01 00
	00 00		 mov	 DWORD PTR [ecx+8], 1
  00018	c7 41 0c 00 00
	00 00		 mov	 DWORD PTR [ecx+12], 0
  0001f	5d		 pop	 ebp
  00020	c2 04 00	 ret	 4
??0?$GostCryptFactory@VGostCryptFormatCom@@@@QAE@K@Z ENDP ; GostCryptFactory<GostCryptFormatCom>::GostCryptFactory<GostCryptFormatCom>
_TEXT	ENDS
; Function compile flags: /Ogtp
;	COMDAT ??_GGostCryptFormatCom@@QAEPAXI@Z
_TEXT	SEGMENT
___flags$ = 8						; size = 4
??_GGostCryptFormatCom@@QAEPAXI@Z PROC			; GostCryptFormatCom::`scalar deleting destructor', COMDAT
; _this$ = ecx
  00000	55		 push	 ebp
  00001	8b ec		 mov	 ebp, esp
  00003	56		 push	 esi
  00004	8b f1		 mov	 esi, ecx
  00006	83 c8 ff	 or	 eax, -1
  00009	c7 06 00 00 00
	00		 mov	 DWORD PTR [esi], OFFSET ??_7GostCryptFormatCom@@6B@
  0000f	f0 0f c1 05 00
	00 00 00	 lock	  xadd	 DWORD PTR ?ObjectCount@@3JC, eax
  00017	75 12		 jne	 SHORT $LN5@scalar
  00019	6a 00		 push	 0
  0001b	6a 00		 push	 0
  0001d	68 00 80 00 00	 push	 32768			; 00008000H
  00022	ff 76 04	 push	 DWORD PTR [esi+4]
  00025	ff 15 00 00 00
	00		 call	 DWORD PTR __imp__PostThreadMessageA@16
$LN5@scalar:
  0002b	f6 45 08 01	 test	 BYTE PTR ___flags$[ebp], 1
  0002f	74 0b		 je	 SHORT $LN8@scalar
  00031	6a 10		 push	 16			; 00000010H
  00033	56		 push	 esi
  00034	e8 00 00 00 00	 call	 ??3@YAXPAXI@Z		; operator delete
  00039	83 c4 08	 add	 esp, 8
$LN8@scalar:
  0003c	8b c6		 mov	 eax, esi
  0003e	5e		 pop	 esi
  0003f	5d		 pop	 ebp
  00040	c2 04 00	 ret	 4
??_GGostCryptFormatCom@@QAEPAXI@Z ENDP			; GostCryptFormatCom::`scalar deleting destructor'
_TEXT	ENDS
; Function compile flags: /Ogtp
; File c:\users\alexis\documents\finalgostcrypt\sources_gostcrypt_windows_1.3.1\format\formatcom.cpp
;	COMDAT ?WriteLocalMachineRegistryDwordValue@GostCryptFormatCom@@UAGKPA_W0K@Z
_TEXT	SEGMENT
_this$ = 8						; size = 4
_keyPath$ = 12						; size = 4
_valueName$ = 16					; size = 4
_value$ = 20						; size = 4
?WriteLocalMachineRegistryDwordValue@GostCryptFormatCom@@UAGKPA_W0K@Z PROC ; GostCryptFormatCom::WriteLocalMachineRegistryDwordValue, COMDAT

; 264  : 	{

  00000	55		 push	 ebp
  00001	8b ec		 mov	 ebp, esp

; 265  : 		return BaseCom::WriteLocalMachineRegistryDwordValue (keyPath, valueName, value);

  00003	ff 75 14	 push	 DWORD PTR _value$[ebp]
  00006	ff 75 10	 push	 DWORD PTR _valueName$[ebp]
  00009	ff 75 0c	 push	 DWORD PTR _keyPath$[ebp]
  0000c	e8 00 00 00 00	 call	 ?WriteLocalMachineRegistryDwordValue@BaseCom@@SAKPA_W0K@Z ; BaseCom::WriteLocalMachineRegistryDwordValue
  00011	83 c4 0c	 add	 esp, 12			; 0000000cH

; 266  : 	}

  00014	5d		 pop	 ebp
  00015	c2 10 00	 ret	 16			; 00000010H
?WriteLocalMachineRegistryDwordValue@GostCryptFormatCom@@UAGKPA_W0K@Z ENDP ; GostCryptFormatCom::WriteLocalMachineRegistryDwordValue
_TEXT	ENDS
; Function compile flags: /Ogtp
; File c:\users\alexis\documents\finalgostcrypt\sources_gostcrypt_windows_1.3.1\format\formatcom.cpp
;	COMDAT ?IsPagingFileActive@GostCryptFormatCom@@UAGHH@Z
_TEXT	SEGMENT
_this$ = 8						; size = 4
_checkNonWindowsPartitionsOnly$ = 12			; size = 4
?IsPagingFileActive@GostCryptFormatCom@@UAGHH@Z PROC	; GostCryptFormatCom::IsPagingFileActive, COMDAT

; 249  : 	{

  00000	55		 push	 ebp
  00001	8b ec		 mov	 ebp, esp

; 250  : 		return BaseCom::IsPagingFileActive (checkNonWindowsPartitionsOnly);

  00003	ff 75 0c	 push	 DWORD PTR _checkNonWindowsPartitionsOnly$[ebp]
  00006	e8 00 00 00 00	 call	 ?IsPagingFileActive@BaseCom@@SAHH@Z ; BaseCom::IsPagingFileActive
  0000b	83 c4 04	 add	 esp, 4

; 251  : 	}

  0000e	5d		 pop	 ebp
  0000f	c2 08 00	 ret	 8
?IsPagingFileActive@GostCryptFormatCom@@UAGHH@Z ENDP	; GostCryptFormatCom::IsPagingFileActive
_TEXT	ENDS
; Function compile flags: /Ogtp
; File c:\users\alexis\documents\finalgostcrypt\sources_gostcrypt_windows_1.3.1\format\formatcom.cpp
;	COMDAT ?SetDriverServiceStartType@GostCryptFormatCom@@UAGKK@Z
_TEXT	SEGMENT
_this$ = 8						; size = 4
_startType$ = 12					; size = 4
?SetDriverServiceStartType@GostCryptFormatCom@@UAGKK@Z PROC ; GostCryptFormatCom::SetDriverServiceStartType, COMDAT

; 236  : 	{

  00000	55		 push	 ebp
  00001	8b ec		 mov	 ebp, esp

; 237  : 		return BaseCom::SetDriverServiceStartType (startType);

  00003	ff 75 0c	 push	 DWORD PTR _startType$[ebp]
  00006	e8 00 00 00 00	 call	 ?SetDriverServiceStartType@BaseCom@@SAKK@Z ; BaseCom::SetDriverServiceStartType
  0000b	83 c4 04	 add	 esp, 4

; 238  : 	}

  0000e	5d		 pop	 ebp
  0000f	c2 08 00	 ret	 8
?SetDriverServiceStartType@GostCryptFormatCom@@UAGKK@Z ENDP ; GostCryptFormatCom::SetDriverServiceStartType
_TEXT	ENDS
; Function compile flags: /Ogtp
; File c:\users\alexis\documents\finalgostcrypt\sources_gostcrypt_windows_1.3.1\format\formatcom.cpp
;	COMDAT ?RegisterSystemFavoritesService@GostCryptFormatCom@@UAGKH@Z
_TEXT	SEGMENT
_this$ = 8						; size = 4
_registerService$ = 12					; size = 4
?RegisterSystemFavoritesService@GostCryptFormatCom@@UAGKH@Z PROC ; GostCryptFormatCom::RegisterSystemFavoritesService, COMDAT

; 223  : 	{

  00000	55		 push	 ebp
  00001	8b ec		 mov	 ebp, esp

; 224  : 		return BaseCom::RegisterSystemFavoritesService (registerService);

  00003	ff 75 0c	 push	 DWORD PTR _registerService$[ebp]
  00006	e8 00 00 00 00	 call	 ?RegisterSystemFavoritesService@BaseCom@@SAKH@Z ; BaseCom::RegisterSystemFavoritesService
  0000b	83 c4 04	 add	 esp, 4

; 225  : 	}

  0000e	5d		 pop	 ebp
  0000f	c2 08 00	 ret	 8
?RegisterSystemFavoritesService@GostCryptFormatCom@@UAGKH@Z ENDP ; GostCryptFormatCom::RegisterSystemFavoritesService
_TEXT	ENDS
; Function compile flags: /Ogtp
; File c:\users\alexis\documents\finalgostcrypt\sources_gostcrypt_windows_1.3.1\format\formatcom.cpp
;	COMDAT ?RegisterFilterDriver@GostCryptFormatCom@@UAGKHH@Z
_TEXT	SEGMENT
_this$ = 8						; size = 4
_registerDriver$ = 12					; size = 4
_filterType$ = 16					; size = 4
?RegisterFilterDriver@GostCryptFormatCom@@UAGKHH@Z PROC	; GostCryptFormatCom::RegisterFilterDriver, COMDAT

; 210  : 	{

  00000	55		 push	 ebp
  00001	8b ec		 mov	 ebp, esp

; 211  : 		return BaseCom::RegisterFilterDriver (registerDriver, filterType);

  00003	ff 75 10	 push	 DWORD PTR _filterType$[ebp]
  00006	ff 75 0c	 push	 DWORD PTR _registerDriver$[ebp]
  00009	e8 00 00 00 00	 call	 ?RegisterFilterDriver@BaseCom@@SAKHH@Z ; BaseCom::RegisterFilterDriver
  0000e	83 c4 08	 add	 esp, 8

; 212  : 	}

  00011	5d		 pop	 ebp
  00012	c2 0c 00	 ret	 12			; 0000000cH
?RegisterFilterDriver@GostCryptFormatCom@@UAGKHH@Z ENDP	; GostCryptFormatCom::RegisterFilterDriver
_TEXT	ENDS
; Function compile flags: /Ogtp
; File c:\users\alexis\documents\finalgostcrypt\sources_gostcrypt_windows_1.3.1\format\formatcom.cpp
;	COMDAT ?ReadWriteFile@GostCryptFormatCom@@UAGKHHPA_WPAPA_W_KIPAK@Z
_TEXT	SEGMENT
_this$ = 8						; size = 4
_write$ = 12						; size = 4
_device$ = 16						; size = 4
_filePath$ = 20						; size = 4
_bufferBstr$ = 24					; size = 4
_offset$ = 28						; size = 8
_size$ = 36						; size = 4
_sizeDone$ = 40						; size = 4
?ReadWriteFile@GostCryptFormatCom@@UAGKHHPA_WPAPA_W_KIPAK@Z PROC ; GostCryptFormatCom::ReadWriteFile, COMDAT

; 196  : 	{

  00000	55		 push	 ebp
  00001	8b ec		 mov	 ebp, esp

; 197  : 		return BaseCom::ReadWriteFile (write, device, filePath, bufferBstr, offset, size, sizeDone);

  00003	ff 75 28	 push	 DWORD PTR _sizeDone$[ebp]
  00006	ff 75 24	 push	 DWORD PTR _size$[ebp]
  00009	ff 75 20	 push	 DWORD PTR _offset$[ebp+4]
  0000c	ff 75 1c	 push	 DWORD PTR _offset$[ebp]
  0000f	ff 75 18	 push	 DWORD PTR _bufferBstr$[ebp]
  00012	ff 75 14	 push	 DWORD PTR _filePath$[ebp]
  00015	ff 75 10	 push	 DWORD PTR _device$[ebp]
  00018	ff 75 0c	 push	 DWORD PTR _write$[ebp]
  0001b	e8 00 00 00 00	 call	 ?ReadWriteFile@BaseCom@@SAKHHPA_WPAPA_W_KIPAK@Z ; BaseCom::ReadWriteFile
  00020	83 c4 20	 add	 esp, 32			; 00000020H

; 198  : 	}

  00023	5d		 pop	 ebp
  00024	c2 24 00	 ret	 36			; 00000024H
?ReadWriteFile@GostCryptFormatCom@@UAGKHHPA_WPAPA_W_KIPAK@Z ENDP ; GostCryptFormatCom::ReadWriteFile
_TEXT	ENDS
; Function compile flags: /Ogtp
; File c:\users\alexis\documents\finalgostcrypt\sources_gostcrypt_windows_1.3.1\format\formatcom.cpp
;	COMDAT ?AnalyzeHiddenVolumeHost@GostCryptFormatCom@@UAGHJPAH_J0PA_J@Z
_TEXT	SEGMENT
_this$ = 8						; size = 4
_hwndDlg$ = 12						; size = 4
_driveNo$ = 16						; size = 4
_hiddenVolHostSize$ = 20				; size = 8
_realClusterSize$ = 28					; size = 4
_nbrFreeClusters$ = 32					; size = 4
?AnalyzeHiddenVolumeHost@GostCryptFormatCom@@UAGHJPAH_J0PA_J@Z PROC ; GostCryptFormatCom::AnalyzeHiddenVolumeHost, COMDAT

; 176  : 	{

  00000	55		 push	 ebp
  00001	8b ec		 mov	 ebp, esp

; 177  : 		return ::AnalyzeHiddenVolumeHost (

  00003	ff 75 20	 push	 DWORD PTR _nbrFreeClusters$[ebp]
  00006	ff 75 1c	 push	 DWORD PTR _realClusterSize$[ebp]
  00009	ff 75 18	 push	 DWORD PTR _hiddenVolHostSize$[ebp+4]
  0000c	ff 75 14	 push	 DWORD PTR _hiddenVolHostSize$[ebp]
  0000f	ff 75 10	 push	 DWORD PTR _driveNo$[ebp]
  00012	ff 75 0c	 push	 DWORD PTR _hwndDlg$[ebp]
  00015	e8 00 00 00 00	 call	 _AnalyzeHiddenVolumeHost
  0001a	83 c4 18	 add	 esp, 24			; 00000018H

; 178  : 			(HWND) hwndDlg, driveNo, hiddenVolHostSize, realClusterSize, nbrFreeClusters);
; 179  : 	}

  0001d	5d		 pop	 ebp
  0001e	c2 1c 00	 ret	 28			; 0000001cH
?AnalyzeHiddenVolumeHost@GostCryptFormatCom@@UAGHJPAH_J0PA_J@Z ENDP ; GostCryptFormatCom::AnalyzeHiddenVolumeHost
_TEXT	ENDS
; Function compile flags: /Ogtp
; File c:\users\alexis\documents\finalgostcrypt\sources_gostcrypt_windows_1.3.1\format\formatcom.cpp
;	COMDAT ?FormatNtfs@GostCryptFormatCom@@UAGHHH@Z
_TEXT	SEGMENT
_this$ = 8						; size = 4
_driveNo$ = 12						; size = 4
_clusterSize$ = 16					; size = 4
?FormatNtfs@GostCryptFormatCom@@UAGHHH@Z PROC		; GostCryptFormatCom::FormatNtfs, COMDAT

; 159  : 	{

  00000	55		 push	 ebp
  00001	8b ec		 mov	 ebp, esp

; 160  : 		return ::FormatNtfs (driveNo, clusterSize);

  00003	ff 75 10	 push	 DWORD PTR _clusterSize$[ebp]
  00006	ff 75 0c	 push	 DWORD PTR _driveNo$[ebp]
  00009	e8 00 00 00 00	 call	 _FormatNtfs
  0000e	83 c4 08	 add	 esp, 8

; 161  : 	}

  00011	5d		 pop	 ebp
  00012	c2 0c 00	 ret	 12			; 0000000cH
?FormatNtfs@GostCryptFormatCom@@UAGHHH@Z ENDP		; GostCryptFormatCom::FormatNtfs
_TEXT	ENDS
; Function compile flags: /Ogtp
; File c:\users\alexis\documents\finalgostcrypt\sources_gostcrypt_windows_1.3.1\format\formatcom.cpp
;	COMDAT ?DeleteFileA@GostCryptFormatCom@@UAGKPA_W@Z
_TEXT	SEGMENT
_this$ = 8						; size = 4
_file$ = 12						; size = 4
?DeleteFileA@GostCryptFormatCom@@UAGKPA_W@Z PROC	; GostCryptFormatCom::DeleteFileA, COMDAT

; 145  : 	{

  00000	55		 push	 ebp
  00001	8b ec		 mov	 ebp, esp

; 146  : 		return BaseCom::DeleteFile (file);

  00003	ff 75 0c	 push	 DWORD PTR _file$[ebp]
  00006	e8 00 00 00 00	 call	 ?DeleteFileA@BaseCom@@SAKPA_W@Z ; BaseCom::DeleteFileA
  0000b	83 c4 04	 add	 esp, 4

; 147  : 	}

  0000e	5d		 pop	 ebp
  0000f	c2 08 00	 ret	 8
?DeleteFileA@GostCryptFormatCom@@UAGKPA_W@Z ENDP	; GostCryptFormatCom::DeleteFileA
_TEXT	ENDS
; Function compile flags: /Ogtp
; File c:\users\alexis\documents\finalgostcrypt\sources_gostcrypt_windows_1.3.1\format\formatcom.cpp
;	COMDAT ?CopyFileA@GostCryptFormatCom@@UAGKPA_W0@Z
_TEXT	SEGMENT
_this$ = 8						; size = 4
_sourceFile$ = 12					; size = 4
_destinationFile$ = 16					; size = 4
?CopyFileA@GostCryptFormatCom@@UAGKPA_W0@Z PROC		; GostCryptFormatCom::CopyFileA, COMDAT

; 132  : 	{

  00000	55		 push	 ebp
  00001	8b ec		 mov	 ebp, esp

; 133  : 		return BaseCom::CopyFile (sourceFile, destinationFile);

  00003	ff 75 10	 push	 DWORD PTR _destinationFile$[ebp]
  00006	ff 75 0c	 push	 DWORD PTR _sourceFile$[ebp]
  00009	e8 00 00 00 00	 call	 ?CopyFileA@BaseCom@@SAKPA_W0@Z ; BaseCom::CopyFileA
  0000e	83 c4 08	 add	 esp, 8

; 134  : 	}

  00011	5d		 pop	 ebp
  00012	c2 0c 00	 ret	 12			; 0000000cH
?CopyFileA@GostCryptFormatCom@@UAGKPA_W0@Z ENDP		; GostCryptFormatCom::CopyFileA
_TEXT	ENDS
; Function compile flags: /Ogtp
; File c:\users\alexis\documents\finalgostcrypt\sources_gostcrypt_windows_1.3.1\format\formatcom.cpp
;	COMDAT ?CallDriver@GostCryptFormatCom@@UAGKKPA_WPAPA_W@Z
_TEXT	SEGMENT
_this$ = 8						; size = 4
_ioctl$ = 12						; size = 4
_input$ = 16						; size = 4
_output$ = 20						; size = 4
?CallDriver@GostCryptFormatCom@@UAGKKPA_WPAPA_W@Z PROC	; GostCryptFormatCom::CallDriver, COMDAT

; 118  : 	{

  00000	55		 push	 ebp
  00001	8b ec		 mov	 ebp, esp

; 119  : 		return BaseCom::CallDriver (ioctl, input, output);

  00003	ff 75 14	 push	 DWORD PTR _output$[ebp]
  00006	ff 75 10	 push	 DWORD PTR _input$[ebp]
  00009	ff 75 0c	 push	 DWORD PTR _ioctl$[ebp]
  0000c	e8 00 00 00 00	 call	 ?CallDriver@BaseCom@@SAKKPA_WPAPA_W@Z ; BaseCom::CallDriver
  00011	83 c4 0c	 add	 esp, 12			; 0000000cH

; 120  : 	}

  00014	5d		 pop	 ebp
  00015	c2 10 00	 ret	 16			; 00000010H
?CallDriver@GostCryptFormatCom@@UAGKKPA_WPAPA_W@Z ENDP	; GostCryptFormatCom::CallDriver
_TEXT	ENDS
; Function compile flags: /Ogtp
; File c:\users\alexis\documents\finalgostcrypt\sources_gostcrypt_windows_1.3.1\format\formatcom.cpp
;	COMDAT ?QueryInterface@GostCryptFormatCom@@UAGJABU_GUID@@PAPAX@Z
_TEXT	SEGMENT
_this$ = 8						; size = 4
_riid$ = 12						; size = 4
_ppvObject$ = 16					; size = 4
?QueryInterface@GostCryptFormatCom@@UAGJABU_GUID@@PAPAX@Z PROC ; GostCryptFormatCom::QueryInterface, COMDAT

; 94   : 	{

  00000	55		 push	 ebp
  00001	8b ec		 mov	 ebp, esp

; 95   : 		if (riid == IID_IUnknown || riid == IID_IGostCryptFormatCom)

  00003	8b 4d 0c	 mov	 ecx, DWORD PTR _riid$[ebp]
  00006	8b d1		 mov	 edx, ecx
  00008	56		 push	 esi
  00009	57		 push	 edi
  0000a	be 00 00 00 00	 mov	 esi, OFFSET _IID_IUnknown
  0000f	bf 0c 00 00 00	 mov	 edi, 12			; 0000000cH
$LL16@QueryInter:
  00014	8b 02		 mov	 eax, DWORD PTR [edx]
  00016	3b 06		 cmp	 eax, DWORD PTR [esi]
  00018	75 0d		 jne	 SHORT $LN15@QueryInter
  0001a	83 c2 04	 add	 edx, 4
  0001d	83 c6 04	 add	 esi, 4
  00020	83 ef 04	 sub	 edi, 4
  00023	73 ef		 jae	 SHORT $LL16@QueryInter
  00025	eb 1b		 jmp	 SHORT $LN4@QueryInter
$LN15@QueryInter:
  00027	ba 00 00 00 00	 mov	 edx, OFFSET _IID_IGostCryptFormatCom
  0002c	be 0c 00 00 00	 mov	 esi, 12			; 0000000cH
$LL19@QueryInter:
  00031	8b 01		 mov	 eax, DWORD PTR [ecx]
  00033	3b 02		 cmp	 eax, DWORD PTR [edx]
  00035	75 21		 jne	 SHORT $LN18@QueryInter
  00037	83 c1 04	 add	 ecx, 4
  0003a	83 c2 04	 add	 edx, 4
  0003d	83 ee 04	 sub	 esi, 4
  00040	73 ef		 jae	 SHORT $LL19@QueryInter
$LN4@QueryInter:

; 96   : 			*ppvObject = this;

  00042	8b 4d 08	 mov	 ecx, DWORD PTR _this$[ebp]
  00045	8b 45 10	 mov	 eax, DWORD PTR _ppvObject$[ebp]

; 101  : 		}
; 102  : 
; 103  : 		AddRef ();

  00048	51		 push	 ecx
  00049	89 08		 mov	 DWORD PTR [eax], ecx
  0004b	8b 01		 mov	 eax, DWORD PTR [ecx]
  0004d	ff 50 04	 call	 DWORD PTR [eax+4]
  00050	5f		 pop	 edi

; 104  : 		return S_OK;

  00051	33 c0		 xor	 eax, eax
  00053	5e		 pop	 esi

; 105  : 	}

  00054	5d		 pop	 ebp
  00055	c2 0c 00	 ret	 12			; 0000000cH
$LN18@QueryInter:

; 97   : 		else
; 98   : 		{
; 99   : 			*ppvObject = NULL;

  00058	8b 45 10	 mov	 eax, DWORD PTR _ppvObject$[ebp]
  0005b	5f		 pop	 edi
  0005c	5e		 pop	 esi
  0005d	c7 00 00 00 00
	00		 mov	 DWORD PTR [eax], 0

; 100  : 			return E_NOINTERFACE;

  00063	b8 02 40 00 80	 mov	 eax, -2147467262	; 80004002H

; 105  : 	}

  00068	5d		 pop	 ebp
  00069	c2 0c 00	 ret	 12			; 0000000cH
?QueryInterface@GostCryptFormatCom@@UAGJABU_GUID@@PAPAX@Z ENDP ; GostCryptFormatCom::QueryInterface
_TEXT	ENDS
; Function compile flags: /Ogtp
; File c:\users\alexis\documents\finalgostcrypt\sources_gostcrypt_windows_1.3.1\format\formatcom.cpp
;	COMDAT ?Release@GostCryptFormatCom@@UAGKXZ
_TEXT	SEGMENT
_this$ = 8						; size = 4
?Release@GostCryptFormatCom@@UAGKXZ PROC		; GostCryptFormatCom::Release, COMDAT

; 73   : 	{

  00000	55		 push	 ebp
  00001	8b ec		 mov	 ebp, esp
  00003	56		 push	 esi

; 74   : 		if (!InterlockedDecrement (&RefCount))

  00004	8b 75 08	 mov	 esi, DWORD PTR _this$[ebp]
  00007	83 c9 ff	 or	 ecx, -1
  0000a	8b c1		 mov	 eax, ecx
  0000c	8d 56 08	 lea	 edx, DWORD PTR [esi+8]
  0000f	f0 0f c1 02	 lock	  xadd	 DWORD PTR [edx], eax
  00013	75 39		 jne	 SHORT $LN2@Release

; 75   : 		{
; 76   : 			delete this;

  00015	85 f6		 test	 esi, esi
  00017	74 2e		 je	 SHORT $LN7@Release
  00019	c7 06 00 00 00
	00		 mov	 DWORD PTR [esi], OFFSET ??_7GostCryptFormatCom@@6B@
  0001f	f0 0f c1 0d 00
	00 00 00	 lock	  xadd	 DWORD PTR ?ObjectCount@@3JC, ecx
  00027	49		 dec	 ecx
  00028	75 12		 jne	 SHORT $LN11@Release
  0002a	6a 00		 push	 0
  0002c	6a 00		 push	 0
  0002e	68 00 80 00 00	 push	 32768			; 00008000H
  00033	ff 76 04	 push	 DWORD PTR [esi+4]
  00036	ff 15 00 00 00
	00		 call	 DWORD PTR __imp__PostThreadMessageA@16
$LN11@Release:
  0003c	6a 10		 push	 16			; 00000010H
  0003e	56		 push	 esi
  0003f	e8 00 00 00 00	 call	 ??3@YAXPAXI@Z		; operator delete
  00044	83 c4 08	 add	 esp, 8
$LN7@Release:

; 77   : 			return 0;

  00047	33 c0		 xor	 eax, eax
  00049	5e		 pop	 esi

; 81   : 	}

  0004a	5d		 pop	 ebp
  0004b	c2 04 00	 ret	 4
$LN2@Release:

; 78   : 		}
; 79   : 
; 80   : 		return RefCount;

  0004e	8b 02		 mov	 eax, DWORD PTR [edx]
  00050	5e		 pop	 esi

; 81   : 	}

  00051	5d		 pop	 ebp
  00052	c2 04 00	 ret	 4
?Release@GostCryptFormatCom@@UAGKXZ ENDP		; GostCryptFormatCom::Release
_TEXT	ENDS
; Function compile flags: /Ogtp
; File c:\users\alexis\documents\finalgostcrypt\sources_gostcrypt_windows_1.3.1\format\formatcom.cpp
;	COMDAT ?AddRef@GostCryptFormatCom@@UAGKXZ
_TEXT	SEGMENT
_this$ = 8						; size = 4
?AddRef@GostCryptFormatCom@@UAGKXZ PROC			; GostCryptFormatCom::AddRef, COMDAT

; 61   : 	{

  00000	55		 push	 ebp
  00001	8b ec		 mov	 ebp, esp

; 62   : 		return InterlockedIncrement (&RefCount);

  00003	8b 4d 08	 mov	 ecx, DWORD PTR _this$[ebp]
  00006	b8 01 00 00 00	 mov	 eax, 1
  0000b	f0 0f c1 41 08	 lock	  xadd	 DWORD PTR [ecx+8], eax
  00010	40		 inc	 eax

; 63   : 	}

  00011	5d		 pop	 ebp
  00012	c2 04 00	 ret	 4
?AddRef@GostCryptFormatCom@@UAGKXZ ENDP			; GostCryptFormatCom::AddRef
_TEXT	ENDS
; Function compile flags: /Ogtp
; File c:\users\alexis\documents\finalgostcrypt\sources_gostcrypt_windows_1.3.1\format\formatcom.cpp
;	COMDAT ??1GostCryptFormatCom@@QAE@XZ
_TEXT	SEGMENT
??1GostCryptFormatCom@@QAE@XZ PROC			; GostCryptFormatCom::~GostCryptFormatCom, COMDAT
; _this$ = ecx

; 48   : 	{

  00000	c7 01 00 00 00
	00		 mov	 DWORD PTR [ecx], OFFSET ??_7GostCryptFormatCom@@6B@

; 49   : 		if (InterlockedDecrement (&ObjectCount) == 0)

  00006	83 c8 ff	 or	 eax, -1
  00009	f0 0f c1 05 00
	00 00 00	 lock	  xadd	 DWORD PTR ?ObjectCount@@3JC, eax
  00011	75 12		 jne	 SHORT $LN2@GostCryptF

; 50   : 			PostThreadMessage (MessageThreadId, WM_APP, 0, 0);

  00013	6a 00		 push	 0
  00015	6a 00		 push	 0
  00017	68 00 80 00 00	 push	 32768			; 00008000H
  0001c	ff 71 04	 push	 DWORD PTR [ecx+4]
  0001f	ff 15 00 00 00
	00		 call	 DWORD PTR __imp__PostThreadMessageA@16
$LN2@GostCryptF:

; 51   : 	}

  00025	c3		 ret	 0
??1GostCryptFormatCom@@QAE@XZ ENDP			; GostCryptFormatCom::~GostCryptFormatCom
_TEXT	ENDS
; Function compile flags: /Ogtp
; File c:\users\alexis\documents\finalgostcrypt\sources_gostcrypt_windows_1.3.1\format\formatcom.cpp
;	COMDAT ??0GostCryptFormatCom@@QAE@K@Z
_TEXT	SEGMENT
_messageThreadId$ = 8					; size = 4
??0GostCryptFormatCom@@QAE@K@Z PROC			; GostCryptFormatCom::GostCryptFormatCom, COMDAT
; _this$ = ecx

; 43   : 	{

  00000	55		 push	 ebp
  00001	8b ec		 mov	 ebp, esp

; 41   : 		MessageThreadId (messageThreadId),

  00003	8b 45 08	 mov	 eax, DWORD PTR _messageThreadId$[ebp]

; 43   : 	{

  00006	c7 01 00 00 00
	00		 mov	 DWORD PTR [ecx], OFFSET ??_7GostCryptFormatCom@@6B@
  0000c	89 41 04	 mov	 DWORD PTR [ecx+4], eax
  0000f	c7 41 08 00 00
	00 00		 mov	 DWORD PTR [ecx+8], 0
  00016	c7 41 0c 00 00
	00 00		 mov	 DWORD PTR [ecx+12], 0

; 44   : 		InterlockedIncrement (&ObjectCount);

  0001d	f0 ff 05 00 00
	00 00		 lock	  inc	 DWORD PTR ?ObjectCount@@3JC

; 45   : 	}

  00024	8b c1		 mov	 eax, ecx
  00026	5d		 pop	 ebp
  00027	c2 04 00	 ret	 4
??0GostCryptFormatCom@@QAE@K@Z ENDP			; GostCryptFormatCom::GostCryptFormatCom
_TEXT	ENDS
; Function compile flags: /Ogtp
; File c:\users\alexis\documents\finalgostcrypt\sources_gostcrypt_windows_1.3.1\format\formatcom.cpp
;	COMDAT _UacAnalyzeHiddenVolumeHost
_TEXT	SEGMENT
_gst$ = -4						; size = 4
_hwndDlg$ = 8						; size = 4
_driveNo$ = 12						; size = 4
_hiddenVolHostSize$ = 16				; size = 8
_realClusterSize$ = 24					; size = 4
_nbrFreeClusters$ = 28					; size = 4
_UacAnalyzeHiddenVolumeHost PROC			; COMDAT

; 394  : {

  00000	55		 push	 ebp
  00001	8b ec		 mov	 ebp, esp
  00003	51		 push	 ecx
  00004	56		 push	 esi

; 395  : 	CComPtr<IGostCryptFormatCom> gst;
; 396  : 	int r;
; 397  : 
; 398  : 	CoInitialize (NULL);

  00005	6a 00		 push	 0
  00007	c7 45 fc 00 00
	00 00		 mov	 DWORD PTR _gst$[ebp], 0
  0000e	ff 15 00 00 00
	00		 call	 DWORD PTR __imp__CoInitialize@4

; 399  : 
; 400  : 	if (ComGetInstance (hwndDlg, &gst))

  00014	8b 75 08	 mov	 esi, DWORD PTR _hwndDlg$[ebp]
  00017	8d 45 fc	 lea	 eax, DWORD PTR _gst$[ebp]
  0001a	50		 push	 eax
  0001b	68 00 00 00 00	 push	 OFFSET _IID_IGostCryptFormatCom
  00020	68 00 00 00 00	 push	 OFFSET _CLSID_GostCryptFormatCom
  00025	56		 push	 esi
  00026	e8 00 00 00 00	 call	 ?ComGetInstanceBase@@YAHPAUHWND__@@ABU_GUID@@1PAPAX@Z ; ComGetInstanceBase
  0002b	83 c4 10	 add	 esp, 16			; 00000010H
  0002e	85 c0		 test	 eax, eax
  00030	74 1d		 je	 SHORT $LN2@UacAnalyze

; 401  : 		r = gst->AnalyzeHiddenVolumeHost ((LONG_PTR) hwndDlg, driveNo, hiddenVolHostSize, realClusterSize, nbrFreeClusters);

  00032	ff 75 1c	 push	 DWORD PTR _nbrFreeClusters$[ebp]
  00035	8b 45 fc	 mov	 eax, DWORD PTR _gst$[ebp]
  00038	ff 75 18	 push	 DWORD PTR _realClusterSize$[ebp]
  0003b	ff 75 14	 push	 DWORD PTR _hiddenVolHostSize$[ebp+4]
  0003e	8b 08		 mov	 ecx, DWORD PTR [eax]
  00040	ff 75 10	 push	 DWORD PTR _hiddenVolHostSize$[ebp]
  00043	ff 75 0c	 push	 DWORD PTR _driveNo$[ebp]
  00046	56		 push	 esi
  00047	50		 push	 eax
  00048	ff 51 0c	 call	 DWORD PTR [ecx+12]
  0004b	8b f0		 mov	 esi, eax

; 402  : 	else

  0004d	eb 02		 jmp	 SHORT $LN3@UacAnalyze
$LN2@UacAnalyze:

; 403  : 		r = 0;

  0004f	33 f6		 xor	 esi, esi
$LN3@UacAnalyze:

; 404  : 
; 405  : 	CoUninitialize ();

  00051	ff 15 00 00 00
	00		 call	 DWORD PTR __imp__CoUninitialize@0

; 406  : 
; 407  : 	return r;

  00057	8b 45 fc	 mov	 eax, DWORD PTR _gst$[ebp]
  0005a	85 c0		 test	 eax, eax
  0005c	74 06		 je	 SHORT $LN21@UacAnalyze
  0005e	8b 08		 mov	 ecx, DWORD PTR [eax]
  00060	50		 push	 eax
  00061	ff 51 08	 call	 DWORD PTR [ecx+8]
$LN21@UacAnalyze:
  00064	8b c6		 mov	 eax, esi
  00066	5e		 pop	 esi

; 408  : }

  00067	8b e5		 mov	 esp, ebp
  00069	5d		 pop	 ebp
  0006a	c3		 ret	 0
_UacAnalyzeHiddenVolumeHost ENDP
_TEXT	ENDS
; Function compile flags: /Ogtp
; File c:\users\alexis\documents\finalgostcrypt\sources_gostcrypt_windows_1.3.1\format\formatcom.cpp
;	COMDAT _UacFormatNtfs
_TEXT	SEGMENT
_gst$ = -4						; size = 4
_hWnd$ = 8						; size = 4
_driveNo$ = 12						; size = 4
_clusterSize$ = 16					; size = 4
_UacFormatNtfs PROC					; COMDAT

; 363  : {

  00000	55		 push	 ebp
  00001	8b ec		 mov	 ebp, esp
  00003	51		 push	 ecx
  00004	56		 push	 esi

; 364  : 	CComPtr<IGostCryptFormatCom> gst;
; 365  : 	int r;
; 366  : 
; 367  : 	CoInitialize (NULL);

  00005	6a 00		 push	 0
  00007	c7 45 fc 00 00
	00 00		 mov	 DWORD PTR _gst$[ebp], 0
  0000e	ff 15 00 00 00
	00		 call	 DWORD PTR __imp__CoInitialize@4

; 368  : 
; 369  : 	if (ComGetInstance (hWnd, &gst))

  00014	8d 45 fc	 lea	 eax, DWORD PTR _gst$[ebp]
  00017	50		 push	 eax
  00018	68 00 00 00 00	 push	 OFFSET _IID_IGostCryptFormatCom
  0001d	68 00 00 00 00	 push	 OFFSET _CLSID_GostCryptFormatCom
  00022	ff 75 08	 push	 DWORD PTR _hWnd$[ebp]
  00025	e8 00 00 00 00	 call	 ?ComGetInstanceBase@@YAHPAUHWND__@@ABU_GUID@@1PAPAX@Z ; ComGetInstanceBase
  0002a	83 c4 10	 add	 esp, 16			; 00000010H
  0002d	85 c0		 test	 eax, eax
  0002f	74 13		 je	 SHORT $LN2@UacFormatN

; 370  : 		r = gst->FormatNtfs (driveNo, clusterSize);

  00031	8b 45 fc	 mov	 eax, DWORD PTR _gst$[ebp]
  00034	ff 75 10	 push	 DWORD PTR _clusterSize$[ebp]
  00037	ff 75 0c	 push	 DWORD PTR _driveNo$[ebp]
  0003a	8b 08		 mov	 ecx, DWORD PTR [eax]
  0003c	50		 push	 eax
  0003d	ff 51 1c	 call	 DWORD PTR [ecx+28]
  00040	8b f0		 mov	 esi, eax

; 371  : 	else

  00042	eb 02		 jmp	 SHORT $LN3@UacFormatN
$LN2@UacFormatN:

; 372  : 		r = 0;

  00044	33 f6		 xor	 esi, esi
$LN3@UacFormatN:

; 373  : 
; 374  : 	CoUninitialize ();

  00046	ff 15 00 00 00
	00		 call	 DWORD PTR __imp__CoUninitialize@0

; 375  : 
; 376  : 	return r;

  0004c	8b 45 fc	 mov	 eax, DWORD PTR _gst$[ebp]
  0004f	85 c0		 test	 eax, eax
  00051	74 06		 je	 SHORT $LN21@UacFormatN
  00053	8b 08		 mov	 ecx, DWORD PTR [eax]
  00055	50		 push	 eax
  00056	ff 51 08	 call	 DWORD PTR [ecx+8]
$LN21@UacFormatN:
  00059	8b c6		 mov	 eax, esi
  0005b	5e		 pop	 esi

; 377  : }

  0005c	8b e5		 mov	 esp, ebp
  0005e	5d		 pop	 ebp
  0005f	c3		 ret	 0
_UacFormatNtfs ENDP
_TEXT	ENDS
; Function compile flags: /Ogtp
; File c:\users\alexis\documents\finalgostcrypt\sources_gostcrypt_windows_1.3.1\format\formatcom.cpp
;	COMDAT _ComServerFormat
_TEXT	SEGMENT
_msg$ = -48						; size = 28
_factory$ = -20						; size = 16
_cookie$ = -4						; size = 4
_ComServerFormat PROC					; COMDAT

; 285  : {

  00000	55		 push	 ebp
  00001	8b ec		 mov	 ebp, esp
  00003	83 ec 30	 sub	 esp, 48			; 00000030H
  00006	53		 push	 ebx
  00007	56		 push	 esi
  00008	57		 push	 edi

; 286  : 	SetProcessShutdownParameters (0x100, 0);

  00009	6a 00		 push	 0
  0000b	68 00 01 00 00	 push	 256			; 00000100H
  00010	ff 15 00 00 00
	00		 call	 DWORD PTR __imp__SetProcessShutdownParameters@8

; 287  : 
; 288  : 	GostCryptFactory<GostCryptFormatCom> factory (GetCurrentThreadId ());

  00016	ff 15 00 00 00
	00		 call	 DWORD PTR __imp__GetCurrentThreadId@0
  0001c	c7 45 ec 00 00
	00 00		 mov	 DWORD PTR _factory$[ebp], OFFSET ??_7?$GostCryptFactory@VGostCryptFormatCom@@@@6B@
  00023	89 45 f0	 mov	 DWORD PTR _factory$[ebp+4], eax
  00026	c7 45 f4 01 00
	00 00		 mov	 DWORD PTR _factory$[ebp+8], 1
  0002d	c7 45 f8 00 00
	00 00		 mov	 DWORD PTR _factory$[ebp+12], 0

; 289  : 	DWORD cookie;
; 290  : 
; 291  : 	if (IsUacSupported ())

  00034	e8 00 00 00 00	 call	 _IsUacSupported
  00039	8b 0d 00 00 00
	00		 mov	 ecx, DWORD PTR _UacElevated
  0003f	85 c0		 test	 eax, eax

; 292  : 		UacElevated = TRUE;
; 293  : 
; 294  : 	if (CoRegisterClassObject (CLSID_GostCryptFormatCom, (LPUNKNOWN) &factory,
; 295  : 		CLSCTX_LOCAL_SERVER, REGCLS_SINGLEUSE, &cookie) != S_OK)

  00041	8d 45 fc	 lea	 eax, DWORD PTR _cookie$[ebp]
  00044	ba 01 00 00 00	 mov	 edx, 1
  00049	50		 push	 eax
  0004a	6a 00		 push	 0
  0004c	6a 04		 push	 4
  0004e	8d 45 ec	 lea	 eax, DWORD PTR _factory$[ebp]
  00051	0f 45 ca	 cmovne	 ecx, edx
  00054	50		 push	 eax
  00055	68 00 00 00 00	 push	 OFFSET _CLSID_GostCryptFormatCom
  0005a	89 0d 00 00 00
	00		 mov	 DWORD PTR _UacElevated, ecx
  00060	ff 15 00 00 00
	00		 call	 DWORD PTR __imp__CoRegisterClassObject@20
  00066	85 c0		 test	 eax, eax
  00068	75 74		 jne	 SHORT $LN25@ComServerF

; 296  : 		return FALSE;
; 297  : 
; 298  : 	MSG msg;
; 299  : 	while (int r = GetMessage (&msg, NULL, 0, 0))

  0006a	8b 35 00 00 00
	00		 mov	 esi, DWORD PTR __imp__GetMessageA@16
  00070	50		 push	 eax
  00071	50		 push	 eax
  00072	50		 push	 eax
  00073	8d 45 d0	 lea	 eax, DWORD PTR _msg$[ebp]
  00076	50		 push	 eax
  00077	ff d6		 call	 esi
  00079	85 c0		 test	 eax, eax
  0007b	74 4c		 je	 SHORT $LN26@ComServerF
  0007d	8b 3d 00 00 00
	00		 mov	 edi, DWORD PTR __imp__TranslateMessage@4
  00083	8b 1d 00 00 00
	00		 mov	 ebx, DWORD PTR __imp__DispatchMessageA@4
  00089	0f 1f 80 00 00
	00 00		 npad	 7
$LL2@ComServerF:

; 300  : 	{
; 301  : 		if (r == -1)

  00090	83 f8 ff	 cmp	 eax, -1
  00093	74 49		 je	 SHORT $LN25@ComServerF

; 302  : 			return FALSE;
; 303  : 
; 304  : 		TranslateMessage (&msg);

  00095	8d 45 d0	 lea	 eax, DWORD PTR _msg$[ebp]
  00098	50		 push	 eax
  00099	ff d7		 call	 edi

; 305  : 		DispatchMessage (&msg);

  0009b	8d 45 d0	 lea	 eax, DWORD PTR _msg$[ebp]
  0009e	50		 push	 eax
  0009f	ff d3		 call	 ebx

; 306  : 
; 307  : 		if (msg.message == WM_APP
; 308  : 			&& ObjectCount < 1
; 309  : 			&& !factory.IsServerLocked ())

  000a1	81 7d d4 00 80
	00 00		 cmp	 DWORD PTR _msg$[ebp+4], 32768 ; 00008000H
  000a8	75 0f		 jne	 SHORT $LN7@ComServerF
  000aa	83 3d 00 00 00
	00 01		 cmp	 DWORD PTR ?ObjectCount@@3JC, 1
  000b1	7d 06		 jge	 SHORT $LN7@ComServerF
  000b3	83 7d f8 00	 cmp	 DWORD PTR _factory$[ebp+12], 0
  000b7	7e 10		 jle	 SHORT $LN26@ComServerF
$LN7@ComServerF:

; 296  : 		return FALSE;
; 297  : 
; 298  : 	MSG msg;
; 299  : 	while (int r = GetMessage (&msg, NULL, 0, 0))

  000b9	6a 00		 push	 0
  000bb	6a 00		 push	 0
  000bd	6a 00		 push	 0
  000bf	8d 45 d0	 lea	 eax, DWORD PTR _msg$[ebp]
  000c2	50		 push	 eax
  000c3	ff d6		 call	 esi
  000c5	85 c0		 test	 eax, eax
  000c7	75 c7		 jne	 SHORT $LL2@ComServerF
$LN26@ComServerF:

; 310  : 			break;
; 311  : 	}
; 312  : 	CoRevokeClassObject (cookie);

  000c9	ff 75 fc	 push	 DWORD PTR _cookie$[ebp]
  000cc	ff 15 00 00 00
	00		 call	 DWORD PTR __imp__CoRevokeClassObject@4
  000d2	5f		 pop	 edi
  000d3	5e		 pop	 esi

; 313  : 
; 314  : 	return TRUE;

  000d4	b8 01 00 00 00	 mov	 eax, 1
  000d9	5b		 pop	 ebx

; 315  : }

  000da	8b e5		 mov	 esp, ebp
  000dc	5d		 pop	 ebp
  000dd	c3		 ret	 0
$LN25@ComServerF:
  000de	5f		 pop	 edi
  000df	5e		 pop	 esi

; 313  : 
; 314  : 	return TRUE;

  000e0	33 c0		 xor	 eax, eax
  000e2	5b		 pop	 ebx

; 315  : }

  000e3	8b e5		 mov	 esp, ebp
  000e5	5d		 pop	 ebp
  000e6	c3		 ret	 0
_ComServerFormat ENDP
_TEXT	ENDS
; Function compile flags: /Ogtp
; File c:\users\alexis\documents\finalgostcrypt\sources_gostcrypt_windows_1.3.1\format\formatcom.cpp
;	COMDAT ?GetElevatedInstance@@YAPAUIGostCryptFormatCom@@PAUHWND__@@@Z
_TEXT	SEGMENT
_instance$ = -8						; size = 4
$T1 = -4						; size = 4
_parent$ = 8						; size = 4
?GetElevatedInstance@@YAPAUIGostCryptFormatCom@@PAUHWND__@@@Z PROC ; GetElevatedInstance, COMDAT

; 342  : {

  00000	55		 push	 ebp
  00001	8b ec		 mov	 ebp, esp
  00003	83 ec 08	 sub	 esp, 8

; 343  : 	IGostCryptFormatCom *instance;
; 344  : 
; 345  : 	if (!ComGetInstance (parent, &instance))

  00006	8d 45 f8	 lea	 eax, DWORD PTR _instance$[ebp]
  00009	50		 push	 eax
  0000a	68 00 00 00 00	 push	 OFFSET _IID_IGostCryptFormatCom
  0000f	68 00 00 00 00	 push	 OFFSET _CLSID_GostCryptFormatCom
  00014	ff 75 08	 push	 DWORD PTR _parent$[ebp]
  00017	e8 00 00 00 00	 call	 ?ComGetInstanceBase@@YAHPAUHWND__@@ABU_GUID@@1PAPAX@Z ; ComGetInstanceBase
  0001c	83 c4 10	 add	 esp, 16			; 00000010H
  0001f	85 c0		 test	 eax, eax
  00021	74 07		 je	 SHORT $LN12@GetElevate

; 347  : 
; 348  : 	return instance;

  00023	8b 45 f8	 mov	 eax, DWORD PTR _instance$[ebp]

; 349  : }

  00026	8b e5		 mov	 esp, ebp
  00028	5d		 pop	 ebp
  00029	c3		 ret	 0
$LN12@GetElevate:

; 346  : 		throw UserAbort (SRC_POS);

  0002a	68 00 00 00 00	 push	 OFFSET __TI2?AUUserAbort@GostCrypt@@
  0002f	8d 45 fc	 lea	 eax, DWORD PTR $T1[ebp]
  00032	c7 45 fc 00 00
	00 00		 mov	 DWORD PTR $T1[ebp], OFFSET ??_7UserAbort@GostCrypt@@6B@
  00039	50		 push	 eax
  0003a	e8 00 00 00 00	 call	 __CxxThrowException@8
$LN14@GetElevate:
$LN11@GetElevate:
  0003f	cc		 int	 3
?GetElevatedInstance@@YAPAUIGostCryptFormatCom@@PAUHWND__@@@Z ENDP ; GetElevatedInstance
_TEXT	ENDS
; Function compile flags: /Ogtp
;	COMDAT ??0IGostCryptFormatCom@@QAE@XZ
_TEXT	SEGMENT
??0IGostCryptFormatCom@@QAE@XZ PROC			; IGostCryptFormatCom::IGostCryptFormatCom, COMDAT
; _this$ = ecx
  00000	8b c1		 mov	 eax, ecx
  00002	c3		 ret	 0
??0IGostCryptFormatCom@@QAE@XZ ENDP			; IGostCryptFormatCom::IGostCryptFormatCom
_TEXT	ENDS
; Function compile flags: /Ogtp
;	COMDAT ??0UserAbort@GostCrypt@@QAE@ABU01@@Z
_TEXT	SEGMENT
___that$ = 8						; size = 4
??0UserAbort@GostCrypt@@QAE@ABU01@@Z PROC		; GostCrypt::UserAbort::UserAbort, COMDAT
; _this$ = ecx
  00000	c7 01 00 00 00
	00		 mov	 DWORD PTR [ecx], OFFSET ??_7UserAbort@GostCrypt@@6B@
  00006	8b c1		 mov	 eax, ecx
  00008	c2 04 00	 ret	 4
??0UserAbort@GostCrypt@@QAE@ABU01@@Z ENDP		; GostCrypt::UserAbort::UserAbort
_TEXT	ENDS
; Function compile flags: /Ogtp
; File c:\users\alexis\documents\finalgostcrypt\sources_gostcrypt_windows_1.3.1\common\exception.h
;	COMDAT ?Show@UserAbort@GostCrypt@@UBEXPAUHWND__@@@Z
_TEXT	SEGMENT
_parent$ = 8						; size = 4
?Show@UserAbort@GostCrypt@@UBEXPAUHWND__@@@Z PROC	; GostCrypt::UserAbort::Show, COMDAT
; _this$ = ecx

; 74   : 		void Show (HWND parent) const { }

  00000	c2 04 00	 ret	 4
?Show@UserAbort@GostCrypt@@UBEXPAUHWND__@@@Z ENDP	; GostCrypt::UserAbort::Show
_TEXT	ENDS
; Function compile flags: /Ogtp
; File c:\users\alexis\documents\finalgostcrypt\sources_gostcrypt_windows_1.3.1\common\exception.h
;	COMDAT ??0UserAbort@GostCrypt@@QAE@PBD@Z
_TEXT	SEGMENT
_srcPos$ = 8						; size = 4
??0UserAbort@GostCrypt@@QAE@PBD@Z PROC			; GostCrypt::UserAbort::UserAbort, COMDAT
; _this$ = ecx

; 73   : 		UserAbort (const char *srcPos) { }

  00000	c7 01 00 00 00
	00		 mov	 DWORD PTR [ecx], OFFSET ??_7UserAbort@GostCrypt@@6B@
  00006	8b c1		 mov	 eax, ecx
  00008	c2 04 00	 ret	 4
??0UserAbort@GostCrypt@@QAE@PBD@Z ENDP			; GostCrypt::UserAbort::UserAbort
_TEXT	ENDS
; Function compile flags: /Ogtp
;	COMDAT ??0Exception@GostCrypt@@QAE@ABU01@@Z
_TEXT	SEGMENT
___that$ = 8						; size = 4
??0Exception@GostCrypt@@QAE@ABU01@@Z PROC		; GostCrypt::Exception::Exception, COMDAT
; _this$ = ecx
  00000	c7 01 00 00 00
	00		 mov	 DWORD PTR [ecx], OFFSET ??_7Exception@GostCrypt@@6B@
  00006	8b c1		 mov	 eax, ecx
  00008	c2 04 00	 ret	 4
??0Exception@GostCrypt@@QAE@ABU01@@Z ENDP		; GostCrypt::Exception::Exception
_TEXT	ENDS
; Function compile flags: /Ogtp
;	COMDAT ??0Exception@GostCrypt@@QAE@XZ
_TEXT	SEGMENT
??0Exception@GostCrypt@@QAE@XZ PROC			; GostCrypt::Exception::Exception, COMDAT
; _this$ = ecx
  00000	c7 01 00 00 00
	00		 mov	 DWORD PTR [ecx], OFFSET ??_7Exception@GostCrypt@@6B@
  00006	8b c1		 mov	 eax, ecx
  00008	c3		 ret	 0
??0Exception@GostCrypt@@QAE@XZ ENDP			; GostCrypt::Exception::Exception
_TEXT	ENDS
; Function compile flags: /Ogtp
; File c:\program files (x86)\microsoft visual studio 14.0\vc\atlmfc\include\atlwinverapi.h
;	COMDAT ?_AtlInitializeCriticalSectionEx@ATL@@YAHPAU_RTL_CRITICAL_SECTION@@KK@Z
_TEXT	SEGMENT
_lpCriticalSection$ = 8					; size = 4
_dwSpinCount$ = 12					; size = 4
_Flags$ = 16						; size = 4
?_AtlInitializeCriticalSectionEx@ATL@@YAHPAU_RTL_CRITICAL_SECTION@@KK@Z PROC ; ATL::_AtlInitializeCriticalSectionEx, COMDAT

; 727  : {

  00000	55		 push	 ebp
  00001	8b ec		 mov	 ebp, esp

; 728  : #if (NTDDI_VERSION >= NTDDI_VISTA) && !defined(_USING_V110_SDK71_) && !defined(_ATL_XP_TARGETING)
; 729  : 	// InitializeCriticalSectionEx is available in Vista or later, desktop or store apps
; 730  : 	return ::InitializeCriticalSectionEx(lpCriticalSection, dwSpinCount, Flags);

  00003	ff 75 10	 push	 DWORD PTR _Flags$[ebp]
  00006	ff 75 0c	 push	 DWORD PTR _dwSpinCount$[ebp]
  00009	ff 75 08	 push	 DWORD PTR _lpCriticalSection$[ebp]
  0000c	ff 15 00 00 00
	00		 call	 DWORD PTR __imp__InitializeCriticalSectionEx@12

; 731  : #else
; 732  : 	UNREFERENCED_PARAMETER(Flags);
; 733  : 
; 734  : 	// ...otherwise fall back to using InitializeCriticalSectionAndSpinCount.
; 735  : 	return ::InitializeCriticalSectionAndSpinCount(lpCriticalSection, dwSpinCount);
; 736  : #endif
; 737  : }

  00012	5d		 pop	 ebp
  00013	c3		 ret	 0
?_AtlInitializeCriticalSectionEx@ATL@@YAHPAU_RTL_CRITICAL_SECTION@@KK@Z ENDP ; ATL::_AtlInitializeCriticalSectionEx
_TEXT	ENDS
; Function compile flags: /Ogtp
; File c:\program files (x86)\microsoft visual studio 14.0\vc\atlmfc\include\atltrace.h
;	COMDAT ??0?$CTraceCategoryEx@$0EAAAAA@$0A@@ATL@@QAE@PBD@Z
_TEXT	SEGMENT
_pszCategoryName$ = 8					; size = 4
??0?$CTraceCategoryEx@$0EAAAAA@$0A@@ATL@@QAE@PBD@Z PROC	; ATL::CTraceCategoryEx<4194304,0>::CTraceCategoryEx<4194304,0>, COMDAT
; _this$ = ecx

; 496  : 	(void)pszCategoryName;
; 497  : }

  00000	8b c1		 mov	 eax, ecx
  00002	c2 04 00	 ret	 4
??0?$CTraceCategoryEx@$0EAAAAA@$0A@@ATL@@QAE@PBD@Z ENDP	; ATL::CTraceCategoryEx<4194304,0>::CTraceCategoryEx<4194304,0>
_TEXT	ENDS
; Function compile flags: /Ogtp
; File c:\program files (x86)\microsoft visual studio 14.0\vc\atlmfc\include\atltrace.h
;	COMDAT ??0?$CTraceCategoryEx@$0CAAAAA@$0A@@ATL@@QAE@PBD@Z
_TEXT	SEGMENT
_pszCategoryName$ = 8					; size = 4
??0?$CTraceCategoryEx@$0CAAAAA@$0A@@ATL@@QAE@PBD@Z PROC	; ATL::CTraceCategoryEx<2097152,0>::CTraceCategoryEx<2097152,0>, COMDAT
; _this$ = ecx

; 496  : 	(void)pszCategoryName;
; 497  : }

  00000	8b c1		 mov	 eax, ecx
  00002	c2 04 00	 ret	 4
??0?$CTraceCategoryEx@$0CAAAAA@$0A@@ATL@@QAE@PBD@Z ENDP	; ATL::CTraceCategoryEx<2097152,0>::CTraceCategoryEx<2097152,0>
_TEXT	ENDS
; Function compile flags: /Ogtp
; File c:\program files (x86)\microsoft visual studio 14.0\vc\atlmfc\include\atltrace.h
;	COMDAT ??0?$CTraceCategoryEx@$0BAAAAA@$0A@@ATL@@QAE@PBD@Z
_TEXT	SEGMENT
_pszCategoryName$ = 8					; size = 4
??0?$CTraceCategoryEx@$0BAAAAA@$0A@@ATL@@QAE@PBD@Z PROC	; ATL::CTraceCategoryEx<1048576,0>::CTraceCategoryEx<1048576,0>, COMDAT
; _this$ = ecx

; 496  : 	(void)pszCategoryName;
; 497  : }

  00000	8b c1		 mov	 eax, ecx
  00002	c2 04 00	 ret	 4
??0?$CTraceCategoryEx@$0BAAAAA@$0A@@ATL@@QAE@PBD@Z ENDP	; ATL::CTraceCategoryEx<1048576,0>::CTraceCategoryEx<1048576,0>
_TEXT	ENDS
; Function compile flags: /Ogtp
; File c:\program files (x86)\microsoft visual studio 14.0\vc\atlmfc\include\atltrace.h
;	COMDAT ??0?$CTraceCategoryEx@$0EAAAA@$0A@@ATL@@QAE@PBD@Z
_TEXT	SEGMENT
_pszCategoryName$ = 8					; size = 4
??0?$CTraceCategoryEx@$0EAAAA@$0A@@ATL@@QAE@PBD@Z PROC	; ATL::CTraceCategoryEx<262144,0>::CTraceCategoryEx<262144,0>, COMDAT
; _this$ = ecx

; 496  : 	(void)pszCategoryName;
; 497  : }

  00000	8b c1		 mov	 eax, ecx
  00002	c2 04 00	 ret	 4
??0?$CTraceCategoryEx@$0EAAAA@$0A@@ATL@@QAE@PBD@Z ENDP	; ATL::CTraceCategoryEx<262144,0>::CTraceCategoryEx<262144,0>
_TEXT	ENDS
; Function compile flags: /Ogtp
; File c:\program files (x86)\microsoft visual studio 14.0\vc\atlmfc\include\atltrace.h
;	COMDAT ??0?$CTraceCategoryEx@$0CAAAA@$0A@@ATL@@QAE@PBD@Z
_TEXT	SEGMENT
_pszCategoryName$ = 8					; size = 4
??0?$CTraceCategoryEx@$0CAAAA@$0A@@ATL@@QAE@PBD@Z PROC	; ATL::CTraceCategoryEx<131072,0>::CTraceCategoryEx<131072,0>, COMDAT
; _this$ = ecx

; 496  : 	(void)pszCategoryName;
; 497  : }

  00000	8b c1		 mov	 eax, ecx
  00002	c2 04 00	 ret	 4
??0?$CTraceCategoryEx@$0CAAAA@$0A@@ATL@@QAE@PBD@Z ENDP	; ATL::CTraceCategoryEx<131072,0>::CTraceCategoryEx<131072,0>
_TEXT	ENDS
; Function compile flags: /Ogtp
; File c:\program files (x86)\microsoft visual studio 14.0\vc\atlmfc\include\atltrace.h
;	COMDAT ??0?$CTraceCategoryEx@$0BAAAA@$0A@@ATL@@QAE@PBD@Z
_TEXT	SEGMENT
_pszCategoryName$ = 8					; size = 4
??0?$CTraceCategoryEx@$0BAAAA@$0A@@ATL@@QAE@PBD@Z PROC	; ATL::CTraceCategoryEx<65536,0>::CTraceCategoryEx<65536,0>, COMDAT
; _this$ = ecx

; 496  : 	(void)pszCategoryName;
; 497  : }

  00000	8b c1		 mov	 eax, ecx
  00002	c2 04 00	 ret	 4
??0?$CTraceCategoryEx@$0BAAAA@$0A@@ATL@@QAE@PBD@Z ENDP	; ATL::CTraceCategoryEx<65536,0>::CTraceCategoryEx<65536,0>
_TEXT	ENDS
; Function compile flags: /Ogtp
; File c:\program files (x86)\microsoft visual studio 14.0\vc\atlmfc\include\atltrace.h
;	COMDAT ??0?$CTraceCategoryEx@$0IAAA@$0A@@ATL@@QAE@PBD@Z
_TEXT	SEGMENT
_pszCategoryName$ = 8					; size = 4
??0?$CTraceCategoryEx@$0IAAA@$0A@@ATL@@QAE@PBD@Z PROC	; ATL::CTraceCategoryEx<32768,0>::CTraceCategoryEx<32768,0>, COMDAT
; _this$ = ecx

; 496  : 	(void)pszCategoryName;
; 497  : }

  00000	8b c1		 mov	 eax, ecx
  00002	c2 04 00	 ret	 4
??0?$CTraceCategoryEx@$0IAAA@$0A@@ATL@@QAE@PBD@Z ENDP	; ATL::CTraceCategoryEx<32768,0>::CTraceCategoryEx<32768,0>
_TEXT	ENDS
; Function compile flags: /Ogtp
; File c:\program files (x86)\microsoft visual studio 14.0\vc\atlmfc\include\atltrace.h
;	COMDAT ??0?$CTraceCategoryEx@$0EAAA@$0A@@ATL@@QAE@PBD@Z
_TEXT	SEGMENT
_pszCategoryName$ = 8					; size = 4
??0?$CTraceCategoryEx@$0EAAA@$0A@@ATL@@QAE@PBD@Z PROC	; ATL::CTraceCategoryEx<16384,0>::CTraceCategoryEx<16384,0>, COMDAT
; _this$ = ecx

; 496  : 	(void)pszCategoryName;
; 497  : }

  00000	8b c1		 mov	 eax, ecx
  00002	c2 04 00	 ret	 4
??0?$CTraceCategoryEx@$0EAAA@$0A@@ATL@@QAE@PBD@Z ENDP	; ATL::CTraceCategoryEx<16384,0>::CTraceCategoryEx<16384,0>
_TEXT	ENDS
; Function compile flags: /Ogtp
; File c:\program files (x86)\microsoft visual studio 14.0\vc\atlmfc\include\atltrace.h
;	COMDAT ??0?$CTraceCategoryEx@$0CAAA@$0A@@ATL@@QAE@PBD@Z
_TEXT	SEGMENT
_pszCategoryName$ = 8					; size = 4
??0?$CTraceCategoryEx@$0CAAA@$0A@@ATL@@QAE@PBD@Z PROC	; ATL::CTraceCategoryEx<8192,0>::CTraceCategoryEx<8192,0>, COMDAT
; _this$ = ecx

; 496  : 	(void)pszCategoryName;
; 497  : }

  00000	8b c1		 mov	 eax, ecx
  00002	c2 04 00	 ret	 4
??0?$CTraceCategoryEx@$0CAAA@$0A@@ATL@@QAE@PBD@Z ENDP	; ATL::CTraceCategoryEx<8192,0>::CTraceCategoryEx<8192,0>
_TEXT	ENDS
; Function compile flags: /Ogtp
; File c:\program files (x86)\microsoft visual studio 14.0\vc\atlmfc\include\atltrace.h
;	COMDAT ??0?$CTraceCategoryEx@$0BAAA@$0A@@ATL@@QAE@PBD@Z
_TEXT	SEGMENT
_pszCategoryName$ = 8					; size = 4
??0?$CTraceCategoryEx@$0BAAA@$0A@@ATL@@QAE@PBD@Z PROC	; ATL::CTraceCategoryEx<4096,0>::CTraceCategoryEx<4096,0>, COMDAT
; _this$ = ecx

; 496  : 	(void)pszCategoryName;
; 497  : }

  00000	8b c1		 mov	 eax, ecx
  00002	c2 04 00	 ret	 4
??0?$CTraceCategoryEx@$0BAAA@$0A@@ATL@@QAE@PBD@Z ENDP	; ATL::CTraceCategoryEx<4096,0>::CTraceCategoryEx<4096,0>
_TEXT	ENDS
; Function compile flags: /Ogtp
; File c:\program files (x86)\microsoft visual studio 14.0\vc\atlmfc\include\atltrace.h
;	COMDAT ??0?$CTraceCategoryEx@$0IAA@$0A@@ATL@@QAE@PBD@Z
_TEXT	SEGMENT
_pszCategoryName$ = 8					; size = 4
??0?$CTraceCategoryEx@$0IAA@$0A@@ATL@@QAE@PBD@Z PROC	; ATL::CTraceCategoryEx<2048,0>::CTraceCategoryEx<2048,0>, COMDAT
; _this$ = ecx

; 496  : 	(void)pszCategoryName;
; 497  : }

  00000	8b c1		 mov	 eax, ecx
  00002	c2 04 00	 ret	 4
??0?$CTraceCategoryEx@$0IAA@$0A@@ATL@@QAE@PBD@Z ENDP	; ATL::CTraceCategoryEx<2048,0>::CTraceCategoryEx<2048,0>
_TEXT	ENDS
; Function compile flags: /Ogtp
; File c:\program files (x86)\microsoft visual studio 14.0\vc\atlmfc\include\atltrace.h
;	COMDAT ??0?$CTraceCategoryEx@$0EAA@$0A@@ATL@@QAE@PBD@Z
_TEXT	SEGMENT
_pszCategoryName$ = 8					; size = 4
??0?$CTraceCategoryEx@$0EAA@$0A@@ATL@@QAE@PBD@Z PROC	; ATL::CTraceCategoryEx<1024,0>::CTraceCategoryEx<1024,0>, COMDAT
; _this$ = ecx

; 496  : 	(void)pszCategoryName;
; 497  : }

  00000	8b c1		 mov	 eax, ecx
  00002	c2 04 00	 ret	 4
??0?$CTraceCategoryEx@$0EAA@$0A@@ATL@@QAE@PBD@Z ENDP	; ATL::CTraceCategoryEx<1024,0>::CTraceCategoryEx<1024,0>
_TEXT	ENDS
; Function compile flags: /Ogtp
; File c:\program files (x86)\microsoft visual studio 14.0\vc\atlmfc\include\atltrace.h
;	COMDAT ??0?$CTraceCategoryEx@$0CAA@$0A@@ATL@@QAE@PBD@Z
_TEXT	SEGMENT
_pszCategoryName$ = 8					; size = 4
??0?$CTraceCategoryEx@$0CAA@$0A@@ATL@@QAE@PBD@Z PROC	; ATL::CTraceCategoryEx<512,0>::CTraceCategoryEx<512,0>, COMDAT
; _this$ = ecx

; 496  : 	(void)pszCategoryName;
; 497  : }

  00000	8b c1		 mov	 eax, ecx
  00002	c2 04 00	 ret	 4
??0?$CTraceCategoryEx@$0CAA@$0A@@ATL@@QAE@PBD@Z ENDP	; ATL::CTraceCategoryEx<512,0>::CTraceCategoryEx<512,0>
_TEXT	ENDS
; Function compile flags: /Ogtp
; File c:\program files (x86)\microsoft visual studio 14.0\vc\atlmfc\include\atltrace.h
;	COMDAT ??0?$CTraceCategoryEx@$0BAA@$0A@@ATL@@QAE@PBD@Z
_TEXT	SEGMENT
_pszCategoryName$ = 8					; size = 4
??0?$CTraceCategoryEx@$0BAA@$0A@@ATL@@QAE@PBD@Z PROC	; ATL::CTraceCategoryEx<256,0>::CTraceCategoryEx<256,0>, COMDAT
; _this$ = ecx

; 496  : 	(void)pszCategoryName;
; 497  : }

  00000	8b c1		 mov	 eax, ecx
  00002	c2 04 00	 ret	 4
??0?$CTraceCategoryEx@$0BAA@$0A@@ATL@@QAE@PBD@Z ENDP	; ATL::CTraceCategoryEx<256,0>::CTraceCategoryEx<256,0>
_TEXT	ENDS
; Function compile flags: /Ogtp
; File c:\program files (x86)\microsoft visual studio 14.0\vc\atlmfc\include\atltrace.h
;	COMDAT ??0?$CTraceCategoryEx@$0IA@$0A@@ATL@@QAE@PBD@Z
_TEXT	SEGMENT
_pszCategoryName$ = 8					; size = 4
??0?$CTraceCategoryEx@$0IA@$0A@@ATL@@QAE@PBD@Z PROC	; ATL::CTraceCategoryEx<128,0>::CTraceCategoryEx<128,0>, COMDAT
; _this$ = ecx

; 496  : 	(void)pszCategoryName;
; 497  : }

  00000	8b c1		 mov	 eax, ecx
  00002	c2 04 00	 ret	 4
??0?$CTraceCategoryEx@$0IA@$0A@@ATL@@QAE@PBD@Z ENDP	; ATL::CTraceCategoryEx<128,0>::CTraceCategoryEx<128,0>
_TEXT	ENDS
; Function compile flags: /Ogtp
; File c:\program files (x86)\microsoft visual studio 14.0\vc\atlmfc\include\atltrace.h
;	COMDAT ??0?$CTraceCategoryEx@$0EA@$0A@@ATL@@QAE@PBD@Z
_TEXT	SEGMENT
_pszCategoryName$ = 8					; size = 4
??0?$CTraceCategoryEx@$0EA@$0A@@ATL@@QAE@PBD@Z PROC	; ATL::CTraceCategoryEx<64,0>::CTraceCategoryEx<64,0>, COMDAT
; _this$ = ecx

; 496  : 	(void)pszCategoryName;
; 497  : }

  00000	8b c1		 mov	 eax, ecx
  00002	c2 04 00	 ret	 4
??0?$CTraceCategoryEx@$0EA@$0A@@ATL@@QAE@PBD@Z ENDP	; ATL::CTraceCategoryEx<64,0>::CTraceCategoryEx<64,0>
_TEXT	ENDS
; Function compile flags: /Ogtp
; File c:\program files (x86)\microsoft visual studio 14.0\vc\atlmfc\include\atltrace.h
;	COMDAT ??0?$CTraceCategoryEx@$0CA@$0A@@ATL@@QAE@PBD@Z
_TEXT	SEGMENT
_pszCategoryName$ = 8					; size = 4
??0?$CTraceCategoryEx@$0CA@$0A@@ATL@@QAE@PBD@Z PROC	; ATL::CTraceCategoryEx<32,0>::CTraceCategoryEx<32,0>, COMDAT
; _this$ = ecx

; 496  : 	(void)pszCategoryName;
; 497  : }

  00000	8b c1		 mov	 eax, ecx
  00002	c2 04 00	 ret	 4
??0?$CTraceCategoryEx@$0CA@$0A@@ATL@@QAE@PBD@Z ENDP	; ATL::CTraceCategoryEx<32,0>::CTraceCategoryEx<32,0>
_TEXT	ENDS
; Function compile flags: /Ogtp
; File c:\program files (x86)\microsoft visual studio 14.0\vc\atlmfc\include\atltrace.h
;	COMDAT ??0?$CTraceCategoryEx@$0BA@$0A@@ATL@@QAE@PBD@Z
_TEXT	SEGMENT
_pszCategoryName$ = 8					; size = 4
??0?$CTraceCategoryEx@$0BA@$0A@@ATL@@QAE@PBD@Z PROC	; ATL::CTraceCategoryEx<16,0>::CTraceCategoryEx<16,0>, COMDAT
; _this$ = ecx

; 496  : 	(void)pszCategoryName;
; 497  : }

  00000	8b c1		 mov	 eax, ecx
  00002	c2 04 00	 ret	 4
??0?$CTraceCategoryEx@$0BA@$0A@@ATL@@QAE@PBD@Z ENDP	; ATL::CTraceCategoryEx<16,0>::CTraceCategoryEx<16,0>
_TEXT	ENDS
; Function compile flags: /Ogtp
; File c:\program files (x86)\microsoft visual studio 14.0\vc\atlmfc\include\atltrace.h
;	COMDAT ??0?$CTraceCategoryEx@$07$0A@@ATL@@QAE@PBD@Z
_TEXT	SEGMENT
_pszCategoryName$ = 8					; size = 4
??0?$CTraceCategoryEx@$07$0A@@ATL@@QAE@PBD@Z PROC	; ATL::CTraceCategoryEx<8,0>::CTraceCategoryEx<8,0>, COMDAT
; _this$ = ecx

; 496  : 	(void)pszCategoryName;
; 497  : }

  00000	8b c1		 mov	 eax, ecx
  00002	c2 04 00	 ret	 4
??0?$CTraceCategoryEx@$07$0A@@ATL@@QAE@PBD@Z ENDP	; ATL::CTraceCategoryEx<8,0>::CTraceCategoryEx<8,0>
_TEXT	ENDS
; Function compile flags: /Ogtp
; File c:\program files (x86)\microsoft visual studio 14.0\vc\atlmfc\include\atltrace.h
;	COMDAT ??0?$CTraceCategoryEx@$03$0A@@ATL@@QAE@PBD@Z
_TEXT	SEGMENT
_pszCategoryName$ = 8					; size = 4
??0?$CTraceCategoryEx@$03$0A@@ATL@@QAE@PBD@Z PROC	; ATL::CTraceCategoryEx<4,0>::CTraceCategoryEx<4,0>, COMDAT
; _this$ = ecx

; 496  : 	(void)pszCategoryName;
; 497  : }

  00000	8b c1		 mov	 eax, ecx
  00002	c2 04 00	 ret	 4
??0?$CTraceCategoryEx@$03$0A@@ATL@@QAE@PBD@Z ENDP	; ATL::CTraceCategoryEx<4,0>::CTraceCategoryEx<4,0>
_TEXT	ENDS
; Function compile flags: /Ogtp
; File c:\program files (x86)\microsoft visual studio 14.0\vc\atlmfc\include\atltrace.h
;	COMDAT ??0?$CTraceCategoryEx@$01$0A@@ATL@@QAE@PBD@Z
_TEXT	SEGMENT
_pszCategoryName$ = 8					; size = 4
??0?$CTraceCategoryEx@$01$0A@@ATL@@QAE@PBD@Z PROC	; ATL::CTraceCategoryEx<2,0>::CTraceCategoryEx<2,0>, COMDAT
; _this$ = ecx

; 496  : 	(void)pszCategoryName;
; 497  : }

  00000	8b c1		 mov	 eax, ecx
  00002	c2 04 00	 ret	 4
??0?$CTraceCategoryEx@$01$0A@@ATL@@QAE@PBD@Z ENDP	; ATL::CTraceCategoryEx<2,0>::CTraceCategoryEx<2,0>
_TEXT	ENDS
; Function compile flags: /Ogtp
; File c:\program files (x86)\microsoft visual studio 14.0\vc\atlmfc\include\atltrace.h
;	COMDAT ??0?$CTraceCategoryEx@$00$0A@@ATL@@QAE@PBD@Z
_TEXT	SEGMENT
_pszCategoryName$ = 8					; size = 4
??0?$CTraceCategoryEx@$00$0A@@ATL@@QAE@PBD@Z PROC	; ATL::CTraceCategoryEx<1,0>::CTraceCategoryEx<1,0>, COMDAT
; _this$ = ecx

; 496  : 	(void)pszCategoryName;
; 497  : }

  00000	8b c1		 mov	 eax, ecx
  00002	c2 04 00	 ret	 4
??0?$CTraceCategoryEx@$00$0A@@ATL@@QAE@PBD@Z ENDP	; ATL::CTraceCategoryEx<1,0>::CTraceCategoryEx<1,0>
_TEXT	ENDS
; Function compile flags: /Ogtp
; File c:\program files (x86)\microsoft visual studio 14.0\vc\atlmfc\include\atltrace.h
;	COMDAT ??0?$CTraceCategoryEx@$0IAAAA@$0A@@ATL@@QAE@PBD@Z
_TEXT	SEGMENT
_pszCategoryName$ = 8					; size = 4
??0?$CTraceCategoryEx@$0IAAAA@$0A@@ATL@@QAE@PBD@Z PROC	; ATL::CTraceCategoryEx<524288,0>::CTraceCategoryEx<524288,0>, COMDAT
; _this$ = ecx

; 496  : 	(void)pszCategoryName;
; 497  : }

  00000	8b c1		 mov	 eax, ecx
  00002	c2 04 00	 ret	 4
??0?$CTraceCategoryEx@$0IAAAA@$0A@@ATL@@QAE@PBD@Z ENDP	; ATL::CTraceCategoryEx<524288,0>::CTraceCategoryEx<524288,0>
_TEXT	ENDS
; Function compile flags: /Ogtp
;	COMDAT ??0IClassFactory@@QAE@XZ
_TEXT	SEGMENT
??0IClassFactory@@QAE@XZ PROC				; IClassFactory::IClassFactory, COMDAT
; _this$ = ecx
  00000	8b c1		 mov	 eax, ecx
  00002	c3		 ret	 0
??0IClassFactory@@QAE@XZ ENDP				; IClassFactory::IClassFactory
_TEXT	ENDS
; Function compile flags: /Ogtp
;	COMDAT ??0IUnknown@@QAE@XZ
_TEXT	SEGMENT
??0IUnknown@@QAE@XZ PROC				; IUnknown::IUnknown, COMDAT
; _this$ = ecx
  00000	8b c1		 mov	 eax, ecx
  00002	c3		 ret	 0
??0IUnknown@@QAE@XZ ENDP				; IUnknown::IUnknown
_TEXT	ENDS
; Function compile flags: /Ogtp
; File c:\program files (x86)\windows kits\8.1\include\shared\guiddef.h
;	COMDAT _==
_TEXT	SEGMENT
tv79 = -4						; size = 4
_guidOne$ = 8						; size = 4
_guidOther$ = 12					; size = 4
_==	PROC						; COMDAT

; 193  : {

  00000	55		 push	 ebp
  00001	8b ec		 mov	 ebp, esp
  00003	51		 push	 ecx

; 194  :     return !!IsEqualGUID(guidOne,guidOther);

  00004	8b 55 08	 mov	 edx, DWORD PTR _guidOne$[ebp]
  00007	8b 45 0c	 mov	 eax, DWORD PTR _guidOther$[ebp]
  0000a	56		 push	 esi
  0000b	be 0c 00 00 00	 mov	 esi, 12			; 0000000cH
$LL7@:
  00010	8b 0a		 mov	 ecx, DWORD PTR [edx]
  00012	3b 08		 cmp	 ecx, DWORD PTR [eax]
  00014	75 1a		 jne	 SHORT $LN6@
  00016	83 c2 04	 add	 edx, 4
  00019	83 c0 04	 add	 eax, 4
  0001c	83 ee 04	 sub	 esi, 4
  0001f	73 ef		 jae	 SHORT $LL7@
  00021	c7 45 fc 01 00
	00 00		 mov	 DWORD PTR tv79[ebp], 1
  00028	8a 45 fc	 mov	 al, BYTE PTR tv79[ebp]
  0002b	5e		 pop	 esi

; 195  : }

  0002c	8b e5		 mov	 esp, ebp
  0002e	5d		 pop	 ebp
  0002f	c3		 ret	 0
$LN6@:

; 194  :     return !!IsEqualGUID(guidOne,guidOther);

  00030	c7 45 fc 00 00
	00 00		 mov	 DWORD PTR tv79[ebp], 0
  00037	8a 45 fc	 mov	 al, BYTE PTR tv79[ebp]
  0003a	5e		 pop	 esi

; 195  : }

  0003b	8b e5		 mov	 esp, ebp
  0003d	5d		 pop	 ebp
  0003e	c3		 ret	 0
_==	ENDP
_TEXT	ENDS
; Function compile flags: /Ogtp
; File c:\program files (x86)\windows kits\8.1\include\shared\guiddef.h
;	COMDAT _IsEqualGUID
_TEXT	SEGMENT
_rguid1$ = 8						; size = 4
_rguid2$ = 12						; size = 4
_IsEqualGUID PROC					; COMDAT

; 160  : {

  00000	55		 push	 ebp
  00001	8b ec		 mov	 ebp, esp

; 161  :     return !memcmp(&rguid1, &rguid2, sizeof(GUID));

  00003	8b 55 08	 mov	 edx, DWORD PTR _rguid1$[ebp]
  00006	8b 45 0c	 mov	 eax, DWORD PTR _rguid2$[ebp]
  00009	56		 push	 esi
  0000a	be 0c 00 00 00	 mov	 esi, 12			; 0000000cH
  0000f	90		 npad	 1
$LL5@IsEqualGUI:
  00010	8b 0a		 mov	 ecx, DWORD PTR [edx]
  00012	3b 08		 cmp	 ecx, DWORD PTR [eax]
  00014	75 13		 jne	 SHORT $LN4@IsEqualGUI
  00016	83 c2 04	 add	 edx, 4
  00019	83 c0 04	 add	 eax, 4
  0001c	83 ee 04	 sub	 esi, 4
  0001f	73 ef		 jae	 SHORT $LL5@IsEqualGUI
  00021	b8 01 00 00 00	 mov	 eax, 1
  00026	5e		 pop	 esi

; 162  : }

  00027	5d		 pop	 ebp
  00028	c3		 ret	 0
$LN4@IsEqualGUI:

; 161  :     return !memcmp(&rguid1, &rguid2, sizeof(GUID));

  00029	33 c0		 xor	 eax, eax
  0002b	5e		 pop	 esi

; 162  : }

  0002c	5d		 pop	 ebp
  0002d	c3		 ret	 0
_IsEqualGUID ENDP
_TEXT	ENDS
END
