; Listing generated by Microsoft (R) Optimizing Compiler Version 19.00.24215.1 

	TITLE	C:\Users\Alexis\Documents\FinalGostCrypt\Sources_GostCrypt_Windows_1.3.1\Format\Gstformat.c
	.686P
	.XMM
	include listing.inc
	.model	flat

INCLUDELIB LIBCMT
INCLUDELIB OLDNAMES

PUBLIC	?BootEncObj@@3PAVBootEncryption@GostCrypt@@A	; BootEncObj
PUBLIC	?BootEncStatus@@3UBootEncryptionStatus@@A	; BootEncStatus
PUBLIC	?nCurPageNo@@3HA				; nCurPageNo
PUBLIC	?nLastPageNo@@3HA				; nLastPageNo
PUBLIC	?bHiddenOS@@3HC					; bHiddenOS
PUBLIC	?bDirectSysEncMode@@3HA				; bDirectSysEncMode
PUBLIC	?bDirectSysEncModeCommand@@3HA			; bDirectSysEncModeCommand
PUBLIC	?DirectDeviceEncMode@@3HA			; DirectDeviceEncMode
PUBLIC	?DirectNonSysInplaceEncResumeMode@@3HA		; DirectNonSysInplaceEncResumeMode
PUBLIC	?DirectPromptNonSysInplaceEncResumeMode@@3HA	; DirectPromptNonSysInplaceEncResumeMode
PUBLIC	?bDeviceTransformModeChoiceMade@@3HA		; bDeviceTransformModeChoiceMade
PUBLIC	?nNeedToStoreFilesOver4GB@@3HA			; nNeedToStoreFilesOver4GB
PUBLIC	?nVolumeEA@@3HA					; nVolumeEA
PUBLIC	?bSystemEncryptionInProgress@@3HA		; bSystemEncryptionInProgress
PUBLIC	?bWholeSysDrive@@3HA				; bWholeSysDrive
PUBLIC	?bSysEncDriveAnalysisInProgress@@3HC		; bSysEncDriveAnalysisInProgress
PUBLIC	?bSysEncDriveAnalysisTimeOutOccurred@@3HC	; bSysEncDriveAnalysisTimeOutOccurred
PUBLIC	?SysEncDetectHiddenSectors@@3HA			; SysEncDetectHiddenSectors
PUBLIC	?SysEncDriveAnalysisStart@@3HA			; SysEncDriveAnalysisStart
PUBLIC	?bDontVerifyRescueDisk@@3HA			; bDontVerifyRescueDisk
PUBLIC	?bFirstSysEncResumeDone@@3HA			; bFirstSysEncResumeDone
PUBLIC	?nMultiBoot@@3HA				; nMultiBoot
PUBLIC	?bHiddenVol@@3HC				; bHiddenVol
PUBLIC	?bHiddenVolFinished@@3HC			; bHiddenVolFinished
PUBLIC	?hiddenVolHostDriveNo@@3HA			; hiddenVolHostDriveNo
PUBLIC	?realClusterSize@@3HA				; realClusterSize
PUBLIC	?hash_algo@@3HA					; hash_algo
PUBLIC	?nUIVolumeSize@@3_KA				; nUIVolumeSize
PUBLIC	?nVolumeSize@@3_KA				; nVolumeSize
PUBLIC	?nHiddenVolHostSize@@3_KA			; nHiddenVolHostSize
PUBLIC	?nMaximumHiddenVolSize@@3_JA			; nMaximumHiddenVolSize
PUBLIC	?nbrFreeClusters@@3_JA				; nbrFreeClusters
PUBLIC	?nMultiplier@@3HA				; nMultiplier
PUBLIC	?szFileName@@3PADA				; szFileName
PUBLIC	?szDiskFile@@3PADA				; szDiskFile
PUBLIC	?szRescueDiskISO@@3PADA				; szRescueDiskISO
PUBLIC	?bDeviceWipeInProgress@@3HA			; bDeviceWipeInProgress
PUBLIC	?bTryToCorrectReadErrors@@3HC			; bTryToCorrectReadErrors
PUBLIC	?DiscardUnreadableEncryptedSectors@@3HC		; DiscardUnreadableEncryptedSectors
PUBLIC	?bVolTransformThreadRunning@@3HC		; bVolTransformThreadRunning
PUBLIC	?bVolTransformThreadToRun@@3HC			; bVolTransformThreadToRun
PUBLIC	?bConfirmQuit@@3HC				; bConfirmQuit
PUBLIC	?bConfirmQuitSysEncPretest@@3HC			; bConfirmQuitSysEncPretest
PUBLIC	?bDevice@@3HA					; bDevice
PUBLIC	?hRandPool@@3RAUHWND__@@A			; hRandPool
PUBLIC	?hRandPoolSys@@3RAUHWND__@@A			; hRandPoolSys
PUBLIC	?hPasswordInputField@@3RAUHWND__@@A		; hPasswordInputField
PUBLIC	?hVerifyPasswordInputField@@3RAUHWND__@@A	; hVerifyPasswordInputField
PUBLIC	?hbmWizardBitmapRescaled@@3PAUHBITMAP__@@A	; hbmWizardBitmapRescaled
PUBLIC	?OrigKeyboardLayout@@3PADA			; OrigKeyboardLayout
PUBLIC	?bKeyboardLayoutChanged@@3HA			; bKeyboardLayoutChanged
PUBLIC	?bKeybLayoutAltKeyWarningShown@@3HA		; bKeybLayoutAltKeyWarningShown
PUBLIC	?bWarnOuterVolSuitableFileSys@@3HA		; bWarnOuterVolSuitableFileSys
PUBLIC	?volumePassword@@3UPassword@@A			; volumePassword
PUBLIC	?szVerify@@3PADA				; szVerify
PUBLIC	?szRawPassword@@3PADA				; szRawPassword
PUBLIC	?bHistoryCmdLine@@3HA				; bHistoryCmdLine
PUBLIC	?ComServerMode@@3HA				; ComServerMode
PUBLIC	?randPool@@3PAEA				; randPool
PUBLIC	?lastRandPool@@3PAEA				; lastRandPool
PUBLIC	?outRandPoolDispBuffer@@3PAEA			; outRandPoolDispBuffer
PUBLIC	?bDisplayPoolContents@@3HA			; bDisplayPoolContents
PUBLIC	?bSparseFileSwitch@@3HC				; bSparseFileSwitch
PUBLIC	?quickFormat@@3HC				; quickFormat
PUBLIC	?fileSystem@@3HC				; fileSystem
PUBLIC	?clusterSize@@3HC				; clusterSize
PUBLIC	?SysEncMultiBootCfg@@3USYSENC_MULTIBOOT_CFG@@A	; SysEncMultiBootCfg
PUBLIC	?SysEncMultiBootCfgOutcome@@3PA_WA		; SysEncMultiBootCfgOutcome
PUBLIC	_showKeys
PUBLIC	_hMasterKey
PUBLIC	_hHeaderKey
PUBLIC	_bHiddenVolHost
PUBLIC	_bHiddenVolDirect
PUBLIC	_bRemovableHostDevice
PUBLIC	_bWarnDeviceFormatAdvanced
PUBLIC	_hCurPage
PUBLIC	_bVolTransformThreadCancel
PUBLIC	_bInPlaceEncNonSysResumed
PUBLIC	_bFirstNonSysInPlaceEncResumeDone
PUBLIC	_bInPlaceEncNonSys
PUBLIC	_NonSysInplaceEncBytesDone
PUBLIC	_NonSysInplaceEncTotalSize
PUBLIC	_nPbar
PUBLIC	_WizardMode
PUBLIC	_HeaderKeyGUIView
PUBLIC	_MasterKeyGUIView
PUBLIC	_NonSysInplaceEncStatus
_BSS	SEGMENT
?BootEncObj@@3PAVBootEncryption@GostCrypt@@A DD 01H DUP (?) ; BootEncObj
?BootEncStatus@@3UBootEncryptionStatus@@A DB 05eH DUP (?) ; BootEncStatus
	ALIGN	4

?bHiddenOS@@3HC DD 01H DUP (?)				; bHiddenOS
?bDirectSysEncMode@@3HA DD 01H DUP (?)			; bDirectSysEncMode
?bDirectSysEncModeCommand@@3HA DD 01H DUP (?)		; bDirectSysEncModeCommand
?DirectDeviceEncMode@@3HA DD 01H DUP (?)		; DirectDeviceEncMode
?DirectNonSysInplaceEncResumeMode@@3HA DD 01H DUP (?)	; DirectNonSysInplaceEncResumeMode
?DirectPromptNonSysInplaceEncResumeMode@@3HA DD 01H DUP (?) ; DirectPromptNonSysInplaceEncResumeMode
?bDeviceTransformModeChoiceMade@@3HA DD 01H DUP (?)	; bDeviceTransformModeChoiceMade
?nNeedToStoreFilesOver4GB@@3HA DD 01H DUP (?)		; nNeedToStoreFilesOver4GB
?bSystemEncryptionInProgress@@3HA DD 01H DUP (?)	; bSystemEncryptionInProgress
?bWholeSysDrive@@3HA DD 01H DUP (?)			; bWholeSysDrive
?bSysEncDriveAnalysisInProgress@@3HC DD 01H DUP (?)	; bSysEncDriveAnalysisInProgress
?bSysEncDriveAnalysisTimeOutOccurred@@3HC DD 01H DUP (?) ; bSysEncDriveAnalysisTimeOutOccurred
?SysEncDriveAnalysisStart@@3HA DD 01H DUP (?)		; SysEncDriveAnalysisStart
?bDontVerifyRescueDisk@@3HA DD 01H DUP (?)		; bDontVerifyRescueDisk
?bFirstSysEncResumeDone@@3HA DD 01H DUP (?)		; bFirstSysEncResumeDone
?nMultiBoot@@3HA DD 01H DUP (?)				; nMultiBoot
?bHiddenVol@@3HC DD 01H DUP (?)				; bHiddenVol
?bHiddenVolFinished@@3HC DD 01H DUP (?)			; bHiddenVolFinished
?realClusterSize@@3HA DD 01H DUP (?)			; realClusterSize
?nUIVolumeSize@@3_KA DQ 01H DUP (?)			; nUIVolumeSize
?nVolumeSize@@3_KA DQ 01H DUP (?)			; nVolumeSize
?nHiddenVolHostSize@@3_KA DQ 01H DUP (?)		; nHiddenVolHostSize
?nMaximumHiddenVolSize@@3_JA DQ 01H DUP (?)		; nMaximumHiddenVolSize
?nbrFreeClusters@@3_JA DQ 01H DUP (?)			; nbrFreeClusters
?szFileName@@3PADA DB 0105H DUP (?)			; szFileName
	ALIGN	4

?szDiskFile@@3PADA DB 0105H DUP (?)			; szDiskFile
	ALIGN	4

?szRescueDiskISO@@3PADA DB 0105H DUP (?)		; szRescueDiskISO
	ALIGN	4

?bDeviceWipeInProgress@@3HA DD 01H DUP (?)		; bDeviceWipeInProgress
?bTryToCorrectReadErrors@@3HC DD 01H DUP (?)		; bTryToCorrectReadErrors
?DiscardUnreadableEncryptedSectors@@3HC DD 01H DUP (?)	; DiscardUnreadableEncryptedSectors
?bVolTransformThreadRunning@@3HC DD 01H DUP (?)		; bVolTransformThreadRunning
?bVolTransformThreadToRun@@3HC DD 01H DUP (?)		; bVolTransformThreadToRun
?bConfirmQuit@@3HC DD 01H DUP (?)			; bConfirmQuit
?bConfirmQuitSysEncPretest@@3HC DD 01H DUP (?)		; bConfirmQuitSysEncPretest
?bDevice@@3HA DD 01H DUP (?)				; bDevice
?hRandPool@@3RAUHWND__@@A DD 01H DUP (?)		; hRandPool
?hRandPoolSys@@3RAUHWND__@@A DD 01H DUP (?)		; hRandPoolSys
?hPasswordInputField@@3RAUHWND__@@A DD 01H DUP (?)	; hPasswordInputField
?hVerifyPasswordInputField@@3RAUHWND__@@A DD 01H DUP (?) ; hVerifyPasswordInputField
?hbmWizardBitmapRescaled@@3PAUHBITMAP__@@A DD 01H DUP (?) ; hbmWizardBitmapRescaled
?bKeyboardLayoutChanged@@3HA DD 01H DUP (?)		; bKeyboardLayoutChanged
?bKeybLayoutAltKeyWarningShown@@3HA DD 01H DUP (?)	; bKeybLayoutAltKeyWarningShown
?volumePassword@@3UPassword@@A DB 048H DUP (?)		; volumePassword
?szVerify@@3PADA DB 041H DUP (?)			; szVerify
	ALIGN	4

?szRawPassword@@3PADA DB 041H DUP (?)			; szRawPassword
	ALIGN	4

?bHistoryCmdLine@@3HA DD 01H DUP (?)			; bHistoryCmdLine
?ComServerMode@@3HA DD 01H DUP (?)			; ComServerMode
?randPool@@3PAEA DB 078H DUP (?)			; randPool
?lastRandPool@@3PAEA DB 078H DUP (?)			; lastRandPool
?outRandPoolDispBuffer@@3PAEA DB 0172H DUP (?)		; outRandPoolDispBuffer
	ALIGN	4

?bSparseFileSwitch@@3HC DD 01H DUP (?)			; bSparseFileSwitch
?quickFormat@@3HC DD 01H DUP (?)			; quickFormat
?fileSystem@@3HC DD 01H DUP (?)				; fileSystem
?clusterSize@@3HC DD 01H DUP (?)			; clusterSize
?SysEncMultiBootCfg@@3USYSENC_MULTIBOOT_CFG@@A DB 014H DUP (?) ; SysEncMultiBootCfg
_hMasterKey DD	01H DUP (?)
_hHeaderKey DD	01H DUP (?)
_bHiddenVolHost DD 01H DUP (?)
_bHiddenVolDirect DD 01H DUP (?)
_bRemovableHostDevice DD 01H DUP (?)
_hCurPage DD	01H DUP (?)
_bVolTransformThreadCancel DD 01H DUP (?)
_bInPlaceEncNonSysResumed DD 01H DUP (?)
_bFirstNonSysInPlaceEncResumeDone DD 01H DUP (?)
_bInPlaceEncNonSys DD 01H DUP (?)
	ALIGN	8

_NonSysInplaceEncBytesDone DQ 01H DUP (?)
_NonSysInplaceEncTotalSize DQ 01H DUP (?)
_nPbar	DD	01H DUP (?)
_WizardMode DD	01H DUP (?)
_HeaderKeyGUIView DB 040H DUP (?)
_MasterKeyGUIView DB 040H DUP (?)
_NonSysInplaceEncStatus DD 01H DUP (?)
_BSS	ENDS
_DATA	SEGMENT
?nCurPageNo@@3HA DD 0ffffffffH				; nCurPageNo
?nLastPageNo@@3HA DD 0ffffffffH				; nLastPageNo
?nVolumeEA@@3HA DD 01H					; nVolumeEA
?SysEncDetectHiddenSectors@@3HA DD 0ffffffffH		; SysEncDetectHiddenSectors
?hiddenVolHostDriveNo@@3HA DD 0ffffffffH		; hiddenVolHostDriveNo
?hash_algo@@3HA DD 01H					; hash_algo
?nMultiplier@@3HA DD 0100000H				; nMultiplier
?OrigKeyboardLayout@@3PADA DB '00000409', 00H		; OrigKeyboardLayout
	ORG $+3
?bWarnOuterVolSuitableFileSys@@3HA DD 01H		; bWarnOuterVolSuitableFileSys
?bDisplayPoolContents@@3HA DD 01H			; bDisplayPoolContents
?SysEncMultiBootCfgOutcome@@3PA_WA DW 04eH		; SysEncMultiBootCfgOutcome
	DW	02fH
	DW	041H
	DW	00H
	ORG $+8184
_showKeys DD	01H
_bWarnDeviceFormatAdvanced DD 01H
_DATA	ENDS
PUBLIC	_WinMain@16
PUBLIC	___local_stdio_printf_options
PUBLIC	??$__vcrt_va_start_verify_argument_type@QB_W@@YAXXZ ; __vcrt_va_start_verify_argument_type<wchar_t const * const>
PUBLIC	__snwprintf
PUBLIC	_swprintf_s
PUBLIC	??$__vcrt_va_start_verify_argument_type@PB_W@@YAXXZ ; __vcrt_va_start_verify_argument_type<wchar_t const *>
PUBLIC	?swprintf@@YAHQA_WQB_WZZ			; swprintf
PUBLIC	_fprintf
PUBLIC	??$__vcrt_va_start_verify_argument_type@QBD@@YAXXZ ; __vcrt_va_start_verify_argument_type<char const * const>
PUBLIC	_sprintf
PUBLIC	_sprintf_s
PUBLIC	??0exception@std@@QAE@ABV01@@Z			; std::exception::exception
PUBLIC	??1exception@std@@UAE@XZ			; std::exception::~exception
PUBLIC	?what@exception@std@@UBEPBDXZ			; std::exception::what
PUBLIC	??_Gexception@std@@UAEPAXI@Z			; std::exception::`scalar deleting destructor'
PUBLIC	??3@YAXPAX0@Z					; operator delete
PUBLIC	?allocate@?$_Wrap_alloc@V?$allocator@D@std@@@std@@QAEPADI@Z ; std::_Wrap_alloc<std::allocator<char> >::allocate
PUBLIC	?deallocate@?$_Wrap_alloc@V?$allocator@D@std@@@std@@QAEXPADI@Z ; std::_Wrap_alloc<std::allocator<char> >::deallocate
PUBLIC	??0?$basic_string@DU?$char_traits@D@std@@V?$allocator@D@2@@std@@QAE@PBD@Z ; std::basic_string<char,std::char_traits<char>,std::allocator<char> >::basic_string<char,std::char_traits<char>,std::allocator<char> >
PUBLIC	?_Assign_rv@?$basic_string@DU?$char_traits@D@std@@V?$allocator@D@2@@std@@QAEX$$QAV12@@Z ; std::basic_string<char,std::char_traits<char>,std::allocator<char> >::_Assign_rv
PUBLIC	??1?$basic_string@DU?$char_traits@D@std@@V?$allocator@D@2@@std@@QAE@XZ ; std::basic_string<char,std::char_traits<char>,std::allocator<char> >::~basic_string<char,std::char_traits<char>,std::allocator<char> >
PUBLIC	?append@?$basic_string@DU?$char_traits@D@std@@V?$allocator@D@2@@std@@QAEAAV12@ABV12@II@Z ; std::basic_string<char,std::char_traits<char>,std::allocator<char> >::append
PUBLIC	?append@?$basic_string@DU?$char_traits@D@std@@V?$allocator@D@2@@std@@QAEAAV12@PBDI@Z ; std::basic_string<char,std::char_traits<char>,std::allocator<char> >::append
PUBLIC	?append@?$basic_string@DU?$char_traits@D@std@@V?$allocator@D@2@@std@@QAEAAV12@ID@Z ; std::basic_string<char,std::char_traits<char>,std::allocator<char> >::append
PUBLIC	?assign@?$basic_string@DU?$char_traits@D@std@@V?$allocator@D@2@@std@@QAEAAV12@ABV12@II@Z ; std::basic_string<char,std::char_traits<char>,std::allocator<char> >::assign
PUBLIC	?assign@?$basic_string@DU?$char_traits@D@std@@V?$allocator@D@2@@std@@QAEAAV12@PBDI@Z ; std::basic_string<char,std::char_traits<char>,std::allocator<char> >::assign
PUBLIC	?erase@?$basic_string@DU?$char_traits@D@std@@V?$allocator@D@2@@std@@QAEAAV12@II@Z ; std::basic_string<char,std::char_traits<char>,std::allocator<char> >::erase
PUBLIC	?_Chassign@?$basic_string@DU?$char_traits@D@std@@V?$allocator@D@2@@std@@QAEXIID@Z ; std::basic_string<char,std::char_traits<char>,std::allocator<char> >::_Chassign
PUBLIC	?_Copy@?$basic_string@DU?$char_traits@D@std@@V?$allocator@D@2@@std@@QAEXII@Z ; std::basic_string<char,std::char_traits<char>,std::allocator<char> >::_Copy
PUBLIC	??1runtime_error@std@@UAE@XZ			; std::runtime_error::~runtime_error
PUBLIC	??0runtime_error@std@@QAE@ABV01@@Z		; std::runtime_error::runtime_error
PUBLIC	??_Gruntime_error@std@@UAEPAXI@Z		; std::runtime_error::`scalar deleting destructor'
PUBLIC	??1bad_cast@std@@UAE@XZ				; std::bad_cast::~bad_cast
PUBLIC	??0bad_cast@std@@QAE@ABV01@@Z			; std::bad_cast::bad_cast
PUBLIC	??_Gbad_cast@std@@UAEPAXI@Z			; std::bad_cast::`scalar deleting destructor'
PUBLIC	??0_Locinfo@std@@QAE@PBD@Z			; std::_Locinfo::_Locinfo
PUBLIC	??1_Locinfo@std@@QAE@XZ				; std::_Locinfo::~_Locinfo
PUBLIC	??1?$_Yarn@D@std@@QAE@XZ			; std::_Yarn<char>::~_Yarn<char>
PUBLIC	??1?$_Yarn@_W@std@@QAE@XZ			; std::_Yarn<wchar_t>::~_Yarn<wchar_t>
PUBLIC	??1_Facet_base@std@@UAE@XZ			; std::_Facet_base::~_Facet_base
PUBLIC	??_G_Facet_base@std@@UAEPAXI@Z			; std::_Facet_base::`scalar deleting destructor'
PUBLIC	?_Incref@facet@locale@std@@UAEXXZ		; std::locale::facet::_Incref
PUBLIC	?_Decref@facet@locale@std@@UAEPAV_Facet_base@3@XZ ; std::locale::facet::_Decref
PUBLIC	??1facet@locale@std@@MAE@XZ			; std::locale::facet::~facet
PUBLIC	??_Gfacet@locale@std@@MAEPAXI@Z			; std::locale::facet::`scalar deleting destructor'
PUBLIC	??1locale@std@@QAE@XZ				; std::locale::~locale
PUBLIC	??$_Maklocstr@_W@std@@YAPA_WPBDPA_WABU_Cvtvec@@@Z ; std::_Maklocstr<wchar_t>
PUBLIC	??_Gctype_base@std@@UAEPAXI@Z			; std::ctype_base::`scalar deleting destructor'
PUBLIC	??0?$ctype@_W@std@@QAE@ABV_Locinfo@1@I@Z	; std::ctype<wchar_t>::ctype<wchar_t>
PUBLIC	?_Getcat@?$ctype@_W@std@@SAIPAPBVfacet@locale@2@PBV42@@Z ; std::ctype<wchar_t>::_Getcat
PUBLIC	??1?$ctype@_W@std@@MAE@XZ			; std::ctype<wchar_t>::~ctype<wchar_t>
PUBLIC	?do_is@?$ctype@_W@std@@MBE_NF_W@Z		; std::ctype<wchar_t>::do_is
PUBLIC	?do_is@?$ctype@_W@std@@MBEPB_WPB_W0PAF@Z	; std::ctype<wchar_t>::do_is
PUBLIC	?do_scan_is@?$ctype@_W@std@@MBEPB_WFPB_W0@Z	; std::ctype<wchar_t>::do_scan_is
PUBLIC	?do_scan_not@?$ctype@_W@std@@MBEPB_WFPB_W0@Z	; std::ctype<wchar_t>::do_scan_not
PUBLIC	?do_tolower@?$ctype@_W@std@@MBE_W_W@Z		; std::ctype<wchar_t>::do_tolower
PUBLIC	?do_tolower@?$ctype@_W@std@@MBEPB_WPA_WPB_W@Z	; std::ctype<wchar_t>::do_tolower
PUBLIC	?do_toupper@?$ctype@_W@std@@MBE_W_W@Z		; std::ctype<wchar_t>::do_toupper
PUBLIC	?do_toupper@?$ctype@_W@std@@MBEPB_WPA_WPB_W@Z	; std::ctype<wchar_t>::do_toupper
PUBLIC	?do_widen@?$ctype@_W@std@@MBE_WD@Z		; std::ctype<wchar_t>::do_widen
PUBLIC	?do_widen@?$ctype@_W@std@@MBEPBDPBD0PA_W@Z	; std::ctype<wchar_t>::do_widen
PUBLIC	?do_narrow@?$ctype@_W@std@@MBED_WD@Z		; std::ctype<wchar_t>::do_narrow
PUBLIC	?do_narrow@?$ctype@_W@std@@MBEPB_WPB_W0DPAD@Z	; std::ctype<wchar_t>::do_narrow
PUBLIC	??_G?$ctype@_W@std@@MAEPAXI@Z			; std::ctype<wchar_t>::`scalar deleting destructor'
PUBLIC	??1error_category@std@@UAE@XZ			; std::error_category::~error_category
PUBLIC	?default_error_condition@error_category@std@@UBE?AVerror_condition@2@H@Z ; std::error_category::default_error_condition
PUBLIC	?equivalent@error_category@std@@UBE_NHABVerror_condition@2@@Z ; std::error_category::equivalent
PUBLIC	?equivalent@error_category@std@@UBE_NABVerror_code@2@H@Z ; std::error_category::equivalent
PUBLIC	??_Gerror_category@std@@UAEPAXI@Z		; std::error_category::`scalar deleting destructor'
PUBLIC	?message@error_code@std@@QBE?AV?$basic_string@DU?$char_traits@D@std@@V?$allocator@D@2@@2@XZ ; std::error_code::message
PUBLIC	?_Makestr@_System_error@std@@CA?AV?$basic_string@DU?$char_traits@D@std@@V?$allocator@D@2@@2@Verror_code@2@V32@@Z ; std::_System_error::_Makestr
PUBLIC	??0_System_error@std@@IAE@Verror_code@1@ABV?$basic_string@DU?$char_traits@D@std@@V?$allocator@D@2@@1@@Z ; std::_System_error::_System_error
PUBLIC	??0_System_error@std@@QAE@ABV01@@Z		; std::_System_error::_System_error
PUBLIC	??_G_System_error@std@@UAEPAXI@Z		; std::_System_error::`scalar deleting destructor'
PUBLIC	??0system_error@std@@QAE@Verror_code@1@PBD@Z	; std::system_error::system_error
PUBLIC	??0system_error@std@@QAE@ABV01@@Z		; std::system_error::system_error
PUBLIC	??_Gsystem_error@std@@UAEPAXI@Z			; std::system_error::`scalar deleting destructor'
PUBLIC	?name@_Generic_error_category@std@@UBEPBDXZ	; std::_Generic_error_category::name
PUBLIC	?message@_Generic_error_category@std@@UBE?AV?$basic_string@DU?$char_traits@D@std@@V?$allocator@D@2@@2@H@Z ; std::_Generic_error_category::message
PUBLIC	??_G_Generic_error_category@std@@UAEPAXI@Z	; std::_Generic_error_category::`scalar deleting destructor'
PUBLIC	?name@_Iostream_error_category@std@@UBEPBDXZ	; std::_Iostream_error_category::name
PUBLIC	?message@_Iostream_error_category@std@@UBE?AV?$basic_string@DU?$char_traits@D@std@@V?$allocator@D@2@@2@H@Z ; std::_Iostream_error_category::message
PUBLIC	??_G_Iostream_error_category@std@@UAEPAXI@Z	; std::_Iostream_error_category::`scalar deleting destructor'
PUBLIC	??$_Immortalize@V_Iostream_error_category@std@@@std@@YAAAV_Iostream_error_category@0@XZ ; std::_Immortalize<std::_Iostream_error_category>
PUBLIC	??1failure@ios_base@std@@UAE@XZ			; std::ios_base::failure::~failure
PUBLIC	??0failure@ios_base@std@@QAE@ABV012@@Z		; std::ios_base::failure::failure
PUBLIC	??_Gfailure@ios_base@std@@UAEPAXI@Z		; std::ios_base::failure::`scalar deleting destructor'
PUBLIC	?clear@ios_base@std@@QAEXH@Z			; std::ios_base::clear
PUBLIC	?getloc@ios_base@std@@QBE?AVlocale@2@XZ		; std::ios_base::getloc
PUBLIC	??1ios_base@std@@UAE@XZ				; std::ios_base::~ios_base
PUBLIC	?_Init@ios_base@std@@IAEXXZ			; std::ios_base::_Init
PUBLIC	??_Gios_base@std@@UAEPAXI@Z			; std::ios_base::`scalar deleting destructor'
PUBLIC	?deallocate@?$allocator@_W@std@@QAEXPA_WI@Z	; std::allocator<wchar_t>::deallocate
PUBLIC	?allocate@?$allocator@_W@std@@QAEPA_WI@Z	; std::allocator<wchar_t>::allocate
PUBLIC	?deallocate@?$_Wrap_alloc@V?$allocator@_W@std@@@std@@QAEXPA_WI@Z ; std::_Wrap_alloc<std::allocator<wchar_t> >::deallocate
PUBLIC	??0?$basic_string@_WU?$char_traits@_W@std@@V?$allocator@_W@2@@std@@QAE@PB_W@Z ; std::basic_string<wchar_t,std::char_traits<wchar_t>,std::allocator<wchar_t> >::basic_string<wchar_t,std::char_traits<wchar_t>,std::allocator<wchar_t> >
PUBLIC	?_Assign_rv@?$basic_string@_WU?$char_traits@_W@std@@V?$allocator@_W@2@@std@@QAEX$$QAV12@@Z ; std::basic_string<wchar_t,std::char_traits<wchar_t>,std::allocator<wchar_t> >::_Assign_rv
PUBLIC	??1?$basic_string@_WU?$char_traits@_W@std@@V?$allocator@_W@2@@std@@QAE@XZ ; std::basic_string<wchar_t,std::char_traits<wchar_t>,std::allocator<wchar_t> >::~basic_string<wchar_t,std::char_traits<wchar_t>,std::allocator<wchar_t> >
PUBLIC	?append@?$basic_string@_WU?$char_traits@_W@std@@V?$allocator@_W@2@@std@@QAEAAV12@ABV12@II@Z ; std::basic_string<wchar_t,std::char_traits<wchar_t>,std::allocator<wchar_t> >::append
PUBLIC	?append@?$basic_string@_WU?$char_traits@_W@std@@V?$allocator@_W@2@@std@@QAEAAV12@PB_WI@Z ; std::basic_string<wchar_t,std::char_traits<wchar_t>,std::allocator<wchar_t> >::append
PUBLIC	?assign@?$basic_string@_WU?$char_traits@_W@std@@V?$allocator@_W@2@@std@@QAEAAV12@ABV12@II@Z ; std::basic_string<wchar_t,std::char_traits<wchar_t>,std::allocator<wchar_t> >::assign
PUBLIC	?assign@?$basic_string@_WU?$char_traits@_W@std@@V?$allocator@_W@2@@std@@QAEAAV12@PB_WI@Z ; std::basic_string<wchar_t,std::char_traits<wchar_t>,std::allocator<wchar_t> >::assign
PUBLIC	?assign@?$basic_string@_WU?$char_traits@_W@std@@V?$allocator@_W@2@@std@@QAEAAV12@I_W@Z ; std::basic_string<wchar_t,std::char_traits<wchar_t>,std::allocator<wchar_t> >::assign
PUBLIC	?insert@?$basic_string@_WU?$char_traits@_W@std@@V?$allocator@_W@2@@std@@QAEAAV12@II_W@Z ; std::basic_string<wchar_t,std::char_traits<wchar_t>,std::allocator<wchar_t> >::insert
PUBLIC	?erase@?$basic_string@_WU?$char_traits@_W@std@@V?$allocator@_W@2@@std@@QAEAAV12@II@Z ; std::basic_string<wchar_t,std::char_traits<wchar_t>,std::allocator<wchar_t> >::erase
PUBLIC	?_Chassign@?$basic_string@_WU?$char_traits@_W@std@@V?$allocator@_W@2@@std@@QAEXII_W@Z ; std::basic_string<wchar_t,std::char_traits<wchar_t>,std::allocator<wchar_t> >::_Chassign
PUBLIC	?_Copy@?$basic_string@_WU?$char_traits@_W@std@@V?$allocator@_W@2@@std@@QAEXII@Z ; std::basic_string<wchar_t,std::char_traits<wchar_t>,std::allocator<wchar_t> >::_Copy
PUBLIC	??1HostDevice@@QAE@XZ				; HostDevice::~HostDevice
PUBLIC	?allocate@?$allocator@UHostDevice@@@std@@QAEPAUHostDevice@@I@Z ; std::allocator<HostDevice>::allocate
PUBLIC	??0?$_Wrap_alloc@V?$allocator@UHostDevice@@@std@@@std@@QAE@XZ ; std::_Wrap_alloc<std::allocator<HostDevice> >::_Wrap_alloc<std::allocator<HostDevice> >
PUBLIC	?deallocate@?$_Wrap_alloc@V?$allocator@UHostDevice@@@std@@@std@@QAEXPAUHostDevice@@I@Z ; std::_Wrap_alloc<std::allocator<HostDevice> >::deallocate
PUBLIC	??0?$vector@UHostDevice@@V?$allocator@UHostDevice@@@std@@@std@@QAE@ABV01@@Z ; std::vector<HostDevice,std::allocator<HostDevice> >::vector<HostDevice,std::allocator<HostDevice> >
PUBLIC	??1?$vector@UHostDevice@@V?$allocator@UHostDevice@@@std@@@std@@QAE@XZ ; std::vector<HostDevice,std::allocator<HostDevice> >::~vector<HostDevice,std::allocator<HostDevice> >
PUBLIC	?push_back@?$vector@UHostDevice@@V?$allocator@UHostDevice@@@std@@@std@@QAEXABUHostDevice@@@Z ; std::vector<HostDevice,std::allocator<HostDevice> >::push_back
PUBLIC	?clear@?$vector@UHostDevice@@V?$allocator@UHostDevice@@@std@@@std@@QAEXXZ ; std::vector<HostDevice,std::allocator<HostDevice> >::clear
PUBLIC	?_Reallocate@?$vector@UHostDevice@@V?$allocator@UHostDevice@@@std@@@std@@IAEXI@Z ; std::vector<HostDevice,std::allocator<HostDevice> >::_Reallocate
PUBLIC	?_Reserve@?$vector@UHostDevice@@V?$allocator@UHostDevice@@@std@@@std@@IAEXI@Z ; std::vector<HostDevice,std::allocator<HostDevice> >::_Reserve
PUBLIC	?_Tidy@?$vector@UHostDevice@@V?$allocator@UHostDevice@@@std@@@std@@IAEXXZ ; std::vector<HostDevice,std::allocator<HostDevice> >::_Tidy
PUBLIC	??0HostDevice@@QAE@ABU0@@Z			; HostDevice::HostDevice
PUBLIC	??1Partition@GostCrypt@@QAE@XZ			; GostCrypt::Partition::~Partition
PUBLIC	?clear@?$list@UPartition@GostCrypt@@V?$allocator@UPartition@GostCrypt@@@std@@@std@@QAEXXZ ; std::list<GostCrypt::Partition,std::allocator<GostCrypt::Partition> >::clear
PUBLIC	??1SystemDriveConfiguration@GostCrypt@@QAE@XZ	; GostCrypt::SystemDriveConfiguration::~SystemDriveConfiguration
PUBLIC	??1Container@ForEach@GostCrypt@@UAE@XZ		; GostCrypt::ForEach::Container::~Container
PUBLIC	??_GContainer@ForEach@GostCrypt@@UAEPAXI@Z	; GostCrypt::ForEach::Container::`scalar deleting destructor'
PUBLIC	_ComboSelChangeEA
PUBLIC	_PrintFreeSpace
PUBLIC	_DisplaySizingErrorText
PUBLIC	_EnableDisableFileNext
PUBLIC	_QueryFreeSpace
PUBLIC	_HandleOldAssignedDriveLetter
PUBLIC	_PageDialogProc@16
PUBLIC	_MainDialogProc@16
PUBLIC	_ExtractCommandLine
PUBLIC	_DisplayRandPool
PUBLIC	_DisplayPortionsOfKeys
PUBLIC	_DetermineMaxHiddenVolSize
PUBLIC	_IsSparseFile
PUBLIC	_GetFileVolSize
PUBLIC	_SwitchWizardToSysEncMode
PUBLIC	_SwitchWizardToFileContainerMode
PUBLIC	_ShowNonSysInPlaceEncUIStatus
PUBLIC	_UpdateNonSysInPlaceEncControls
PUBLIC	_MountHiddenVolHost
PUBLIC	_AnalyzeHiddenVolumeHost
PUBLIC	_ScanVolClusterBitmap
PUBLIC	??$?HDU?$char_traits@D@std@@V?$allocator@D@1@@std@@YA?AV?$basic_string@DU?$char_traits@D@std@@V?$allocator@D@2@@0@$$QAV10@ABV10@@Z ; std::operator+<char,std::char_traits<char>,std::allocator<char> >
PUBLIC	??$?H_WU?$char_traits@_W@std@@V?$allocator@_W@1@@std@@YA?AV?$basic_string@_WU?$char_traits@_W@std@@V?$allocator@_W@2@@0@$$QAV10@PB_W@Z ; std::operator+<wchar_t,std::char_traits<wchar_t>,std::allocator<wchar_t> >
PUBLIC	?SwitchWizardToNonSysDeviceMode@@YAXXZ		; SwitchWizardToNonSysDeviceMode
PUBLIC	?SwitchWizardToHiddenOSMode@@YAHXZ		; SwitchWizardToHiddenOSMode
PUBLIC	?SwitchWizardToNonSysInplaceEncResumeMode@@YAXXZ ; SwitchWizardToNonSysInplaceEncResumeMode
PUBLIC	?GetSystemPartitionSize@@YA_JXZ			; GetSystemPartitionSize
PUBLIC	??$GetContainerForward@V?$vector@UHostDevice@@V?$allocator@UHostDevice@@@std@@@std@@@ForEach@GostCrypt@@SA?AU?$ContainerForward@V?$vector@UHostDevice@@V?$allocator@UHostDevice@@@std@@@std@@@01@ABV?$vector@UHostDevice@@V?$allocator@UHostDevice@@@std@@@std@@@Z ; GostCrypt::ForEach::GetContainerForward<std::vector<HostDevice,std::allocator<HostDevice> > >
PUBLIC	?IsNotEnd@?$ContainerForward@V?$vector@UHostDevice@@V?$allocator@UHostDevice@@@std@@@std@@@ForEach@GostCrypt@@UBE_NXZ ; GostCrypt::ForEach::ContainerForward<std::vector<HostDevice,std::allocator<HostDevice> > >::IsNotEnd
PUBLIC	?Next@?$ContainerForward@V?$vector@UHostDevice@@V?$allocator@UHostDevice@@@std@@@std@@@ForEach@GostCrypt@@UBEXXZ ; GostCrypt::ForEach::ContainerForward<std::vector<HostDevice,std::allocator<HostDevice> > >::Next
PUBLIC	??1?$ContainerForward@V?$vector@UHostDevice@@V?$allocator@UHostDevice@@@std@@@std@@@ForEach@GostCrypt@@UAE@XZ ; GostCrypt::ForEach::ContainerForward<std::vector<HostDevice,std::allocator<HostDevice> > >::~ContainerForward<std::vector<HostDevice,std::allocator<HostDevice> > >
PUBLIC	??_G?$ContainerForward@V?$vector@UHostDevice@@V?$allocator@UHostDevice@@@std@@@std@@@ForEach@GostCrypt@@UAEPAXI@Z ; GostCrypt::ForEach::ContainerForward<std::vector<HostDevice,std::allocator<HostDevice> > >::`scalar deleting destructor'
PUBLIC	??1?$basic_ios@_WU?$char_traits@_W@std@@@std@@UAE@XZ ; std::basic_ios<wchar_t,std::char_traits<wchar_t> >::~basic_ios<wchar_t,std::char_traits<wchar_t> >
PUBLIC	?init@?$basic_ios@_WU?$char_traits@_W@std@@@std@@IAEXPAV?$basic_streambuf@_WU?$char_traits@_W@std@@@2@_N@Z ; std::basic_ios<wchar_t,std::char_traits<wchar_t> >::init
PUBLIC	??_G?$basic_ios@_WU?$char_traits@_W@std@@@std@@UAEPAXI@Z ; std::basic_ios<wchar_t,std::char_traits<wchar_t> >::`scalar deleting destructor'
PUBLIC	??1?$basic_istream@_WU?$char_traits@_W@std@@@std@@UAE@XZ ; std::basic_istream<wchar_t,std::char_traits<wchar_t> >::~basic_istream<wchar_t,std::char_traits<wchar_t> >
PUBLIC	??_G?$basic_istream@_WU?$char_traits@_W@std@@@std@@UAEPAXI@Z ; std::basic_istream<wchar_t,std::char_traits<wchar_t> >::`scalar deleting destructor'
PUBLIC	??1?$basic_ostream@_WU?$char_traits@_W@std@@@std@@UAE@XZ ; std::basic_ostream<wchar_t,std::char_traits<wchar_t> >::~basic_ostream<wchar_t,std::char_traits<wchar_t> >
PUBLIC	?_Osfx@?$basic_ostream@_WU?$char_traits@_W@std@@@std@@QAEXXZ ; std::basic_ostream<wchar_t,std::char_traits<wchar_t> >::_Osfx
PUBLIC	??6?$basic_ostream@_WU?$char_traits@_W@std@@@std@@QAEAAV01@_J@Z ; std::basic_ostream<wchar_t,std::char_traits<wchar_t> >::operator<<
PUBLIC	?flush@?$basic_ostream@_WU?$char_traits@_W@std@@@std@@QAEAAV12@XZ ; std::basic_ostream<wchar_t,std::char_traits<wchar_t> >::flush
PUBLIC	??_G?$basic_ostream@_WU?$char_traits@_W@std@@@std@@UAEPAXI@Z ; std::basic_ostream<wchar_t,std::char_traits<wchar_t> >::`scalar deleting destructor'
PUBLIC	??1?$basic_iostream@_WU?$char_traits@_W@std@@@std@@UAE@XZ ; std::basic_iostream<wchar_t,std::char_traits<wchar_t> >::~basic_iostream<wchar_t,std::char_traits<wchar_t> >
PUBLIC	??_G?$basic_iostream@_WU?$char_traits@_W@std@@@std@@UAEPAXI@Z ; std::basic_iostream<wchar_t,std::char_traits<wchar_t> >::`scalar deleting destructor'
PUBLIC	??_D?$basic_iostream@_WU?$char_traits@_W@std@@@std@@QAEXXZ ; std::basic_iostream<wchar_t,std::char_traits<wchar_t> >::`vbase destructor'
PUBLIC	??1?$basic_stringstream@_WU?$char_traits@_W@std@@V?$allocator@_W@2@@std@@UAE@XZ ; std::basic_stringstream<wchar_t,std::char_traits<wchar_t>,std::allocator<wchar_t> >::~basic_stringstream<wchar_t,std::char_traits<wchar_t>,std::allocator<wchar_t> >
PUBLIC	?str@?$basic_stringstream@_WU?$char_traits@_W@std@@V?$allocator@_W@2@@std@@QBE?AV?$basic_string@_WU?$char_traits@_W@std@@V?$allocator@_W@2@@2@XZ ; std::basic_stringstream<wchar_t,std::char_traits<wchar_t>,std::allocator<wchar_t> >::str
PUBLIC	??0?$basic_streambuf@_WU?$char_traits@_W@std@@@std@@IAE@XZ ; std::basic_streambuf<wchar_t,std::char_traits<wchar_t> >::basic_streambuf<wchar_t,std::char_traits<wchar_t> >
PUBLIC	??1?$basic_streambuf@_WU?$char_traits@_W@std@@@std@@UAE@XZ ; std::basic_streambuf<wchar_t,std::char_traits<wchar_t> >::~basic_streambuf<wchar_t,std::char_traits<wchar_t> >
PUBLIC	?_Lock@?$basic_streambuf@_WU?$char_traits@_W@std@@@std@@UAEXXZ ; std::basic_streambuf<wchar_t,std::char_traits<wchar_t> >::_Lock
PUBLIC	?_Unlock@?$basic_streambuf@_WU?$char_traits@_W@std@@@std@@UAEXXZ ; std::basic_streambuf<wchar_t,std::char_traits<wchar_t> >::_Unlock
PUBLIC	?_Gnavail@?$basic_streambuf@_WU?$char_traits@_W@std@@@std@@IBE_JXZ ; std::basic_streambuf<wchar_t,std::char_traits<wchar_t> >::_Gnavail
PUBLIC	?_Pnavail@?$basic_streambuf@_WU?$char_traits@_W@std@@@std@@IBE_JXZ ; std::basic_streambuf<wchar_t,std::char_traits<wchar_t> >::_Pnavail
PUBLIC	?overflow@?$basic_streambuf@_WU?$char_traits@_W@std@@@std@@MAEGG@Z ; std::basic_streambuf<wchar_t,std::char_traits<wchar_t> >::overflow
PUBLIC	?pbackfail@?$basic_streambuf@_WU?$char_traits@_W@std@@@std@@MAEGG@Z ; std::basic_streambuf<wchar_t,std::char_traits<wchar_t> >::pbackfail
PUBLIC	?showmanyc@?$basic_streambuf@_WU?$char_traits@_W@std@@@std@@MAE_JXZ ; std::basic_streambuf<wchar_t,std::char_traits<wchar_t> >::showmanyc
PUBLIC	?underflow@?$basic_streambuf@_WU?$char_traits@_W@std@@@std@@MAEGXZ ; std::basic_streambuf<wchar_t,std::char_traits<wchar_t> >::underflow
PUBLIC	?uflow@?$basic_streambuf@_WU?$char_traits@_W@std@@@std@@MAEGXZ ; std::basic_streambuf<wchar_t,std::char_traits<wchar_t> >::uflow
PUBLIC	?xsgetn@?$basic_streambuf@_WU?$char_traits@_W@std@@@std@@MAE_JPA_W_J@Z ; std::basic_streambuf<wchar_t,std::char_traits<wchar_t> >::xsgetn
PUBLIC	?xsputn@?$basic_streambuf@_WU?$char_traits@_W@std@@@std@@MAE_JPB_W_J@Z ; std::basic_streambuf<wchar_t,std::char_traits<wchar_t> >::xsputn
PUBLIC	?seekoff@?$basic_streambuf@_WU?$char_traits@_W@std@@@std@@MAE?AV?$fpos@U_Mbstatet@@@2@_JHH@Z ; std::basic_streambuf<wchar_t,std::char_traits<wchar_t> >::seekoff
PUBLIC	?seekpos@?$basic_streambuf@_WU?$char_traits@_W@std@@@std@@MAE?AV?$fpos@U_Mbstatet@@@2@V32@H@Z ; std::basic_streambuf<wchar_t,std::char_traits<wchar_t> >::seekpos
PUBLIC	?setbuf@?$basic_streambuf@_WU?$char_traits@_W@std@@@std@@MAEPAV12@PA_W_J@Z ; std::basic_streambuf<wchar_t,std::char_traits<wchar_t> >::setbuf
PUBLIC	?sync@?$basic_streambuf@_WU?$char_traits@_W@std@@@std@@MAEHXZ ; std::basic_streambuf<wchar_t,std::char_traits<wchar_t> >::sync
PUBLIC	?imbue@?$basic_streambuf@_WU?$char_traits@_W@std@@@std@@MAEXABVlocale@2@@Z ; std::basic_streambuf<wchar_t,std::char_traits<wchar_t> >::imbue
PUBLIC	??_G?$basic_streambuf@_WU?$char_traits@_W@std@@@std@@UAEPAXI@Z ; std::basic_streambuf<wchar_t,std::char_traits<wchar_t> >::`scalar deleting destructor'
PUBLIC	??1?$basic_stringbuf@_WU?$char_traits@_W@std@@V?$allocator@_W@2@@std@@UAE@XZ ; std::basic_stringbuf<wchar_t,std::char_traits<wchar_t>,std::allocator<wchar_t> >::~basic_stringbuf<wchar_t,std::char_traits<wchar_t>,std::allocator<wchar_t> >
PUBLIC	?str@?$basic_stringbuf@_WU?$char_traits@_W@std@@V?$allocator@_W@2@@std@@QBE?AV?$basic_string@_WU?$char_traits@_W@std@@V?$allocator@_W@2@@2@XZ ; std::basic_stringbuf<wchar_t,std::char_traits<wchar_t>,std::allocator<wchar_t> >::str
PUBLIC	?overflow@?$basic_stringbuf@_WU?$char_traits@_W@std@@V?$allocator@_W@2@@std@@MAEGG@Z ; std::basic_stringbuf<wchar_t,std::char_traits<wchar_t>,std::allocator<wchar_t> >::overflow
PUBLIC	?pbackfail@?$basic_stringbuf@_WU?$char_traits@_W@std@@V?$allocator@_W@2@@std@@MAEGG@Z ; std::basic_stringbuf<wchar_t,std::char_traits<wchar_t>,std::allocator<wchar_t> >::pbackfail
PUBLIC	?underflow@?$basic_stringbuf@_WU?$char_traits@_W@std@@V?$allocator@_W@2@@std@@MAEGXZ ; std::basic_stringbuf<wchar_t,std::char_traits<wchar_t>,std::allocator<wchar_t> >::underflow
PUBLIC	?seekoff@?$basic_stringbuf@_WU?$char_traits@_W@std@@V?$allocator@_W@2@@std@@MAE?AV?$fpos@U_Mbstatet@@@2@_JHH@Z ; std::basic_stringbuf<wchar_t,std::char_traits<wchar_t>,std::allocator<wchar_t> >::seekoff
PUBLIC	?seekpos@?$basic_stringbuf@_WU?$char_traits@_W@std@@V?$allocator@_W@2@@std@@MAE?AV?$fpos@U_Mbstatet@@@2@V32@H@Z ; std::basic_stringbuf<wchar_t,std::char_traits<wchar_t>,std::allocator<wchar_t> >::seekpos
PUBLIC	?_Tidy@?$basic_stringbuf@_WU?$char_traits@_W@std@@V?$allocator@_W@2@@std@@IAEXXZ ; std::basic_stringbuf<wchar_t,std::char_traits<wchar_t>,std::allocator<wchar_t> >::_Tidy
PUBLIC	??_G?$basic_stringbuf@_WU?$char_traits@_W@std@@V?$allocator@_W@2@@std@@UAEPAXI@Z ; std::basic_stringbuf<wchar_t,std::char_traits<wchar_t>,std::allocator<wchar_t> >::`scalar deleting destructor'
PUBLIC	??_G?$basic_stringstream@_WU?$char_traits@_W@std@@V?$allocator@_W@2@@std@@UAEPAXI@Z ; std::basic_stringstream<wchar_t,std::char_traits<wchar_t>,std::allocator<wchar_t> >::`scalar deleting destructor'
PUBLIC	??_D?$basic_stringstream@_WU?$char_traits@_W@std@@V?$allocator@_W@2@@std@@QAEXXZ ; std::basic_stringstream<wchar_t,std::char_traits<wchar_t>,std::allocator<wchar_t> >::`vbase destructor'
PUBLIC	??$?6_WU?$char_traits@_W@std@@@std@@YAAAV?$basic_ostream@_WU?$char_traits@_W@std@@@0@AAV10@PB_W@Z ; std::operator<<<wchar_t,std::char_traits<wchar_t> >
PUBLIC	??1_Sentry_base@?$basic_ostream@_WU?$char_traits@_W@std@@@std@@QAE@XZ ; std::basic_ostream<wchar_t,std::char_traits<wchar_t> >::_Sentry_base::~_Sentry_base
PUBLIC	??0sentry@?$basic_ostream@_WU?$char_traits@_W@std@@@std@@QAE@AAV12@@Z ; std::basic_ostream<wchar_t,std::char_traits<wchar_t> >::sentry::sentry
PUBLIC	??1sentry@?$basic_ostream@_WU?$char_traits@_W@std@@@std@@QAE@XZ ; std::basic_ostream<wchar_t,std::char_traits<wchar_t> >::sentry::~sentry
PUBLIC	??$use_facet@V?$num_put@_WV?$ostreambuf_iterator@_WU?$char_traits@_W@std@@@std@@@std@@@std@@YAABV?$num_put@_WV?$ostreambuf_iterator@_WU?$char_traits@_W@std@@@std@@@0@ABVlocale@0@@Z ; std::use_facet<std::num_put<wchar_t,std::ostreambuf_iterator<wchar_t,std::char_traits<wchar_t> > > >
PUBLIC	?_Getcat@?$num_put@_WV?$ostreambuf_iterator@_WU?$char_traits@_W@std@@@std@@@std@@SAIPAPBVfacet@locale@2@PBV42@@Z ; std::num_put<wchar_t,std::ostreambuf_iterator<wchar_t,std::char_traits<wchar_t> > >::_Getcat
PUBLIC	??1?$num_put@_WV?$ostreambuf_iterator@_WU?$char_traits@_W@std@@@std@@@std@@MAE@XZ ; std::num_put<wchar_t,std::ostreambuf_iterator<wchar_t,std::char_traits<wchar_t> > >::~num_put<wchar_t,std::ostreambuf_iterator<wchar_t,std::char_traits<wchar_t> > >
PUBLIC	?do_put@?$num_put@_WV?$ostreambuf_iterator@_WU?$char_traits@_W@std@@@std@@@std@@MBE?AV?$ostreambuf_iterator@_WU?$char_traits@_W@std@@@2@V32@AAVios_base@2@_W_N@Z ; std::num_put<wchar_t,std::ostreambuf_iterator<wchar_t,std::char_traits<wchar_t> > >::do_put
PUBLIC	?do_put@?$num_put@_WV?$ostreambuf_iterator@_WU?$char_traits@_W@std@@@std@@@std@@MBE?AV?$ostreambuf_iterator@_WU?$char_traits@_W@std@@@2@V32@AAVios_base@2@_WJ@Z ; std::num_put<wchar_t,std::ostreambuf_iterator<wchar_t,std::char_traits<wchar_t> > >::do_put
PUBLIC	?do_put@?$num_put@_WV?$ostreambuf_iterator@_WU?$char_traits@_W@std@@@std@@@std@@MBE?AV?$ostreambuf_iterator@_WU?$char_traits@_W@std@@@2@V32@AAVios_base@2@_WK@Z ; std::num_put<wchar_t,std::ostreambuf_iterator<wchar_t,std::char_traits<wchar_t> > >::do_put
PUBLIC	?do_put@?$num_put@_WV?$ostreambuf_iterator@_WU?$char_traits@_W@std@@@std@@@std@@MBE?AV?$ostreambuf_iterator@_WU?$char_traits@_W@std@@@2@V32@AAVios_base@2@_W_J@Z ; std::num_put<wchar_t,std::ostreambuf_iterator<wchar_t,std::char_traits<wchar_t> > >::do_put
PUBLIC	?do_put@?$num_put@_WV?$ostreambuf_iterator@_WU?$char_traits@_W@std@@@std@@@std@@MBE?AV?$ostreambuf_iterator@_WU?$char_traits@_W@std@@@2@V32@AAVios_base@2@_W_K@Z ; std::num_put<wchar_t,std::ostreambuf_iterator<wchar_t,std::char_traits<wchar_t> > >::do_put
PUBLIC	?do_put@?$num_put@_WV?$ostreambuf_iterator@_WU?$char_traits@_W@std@@@std@@@std@@MBE?AV?$ostreambuf_iterator@_WU?$char_traits@_W@std@@@2@V32@AAVios_base@2@_WN@Z ; std::num_put<wchar_t,std::ostreambuf_iterator<wchar_t,std::char_traits<wchar_t> > >::do_put
PUBLIC	?do_put@?$num_put@_WV?$ostreambuf_iterator@_WU?$char_traits@_W@std@@@std@@@std@@MBE?AV?$ostreambuf_iterator@_WU?$char_traits@_W@std@@@2@V32@AAVios_base@2@_WO@Z ; std::num_put<wchar_t,std::ostreambuf_iterator<wchar_t,std::char_traits<wchar_t> > >::do_put
PUBLIC	?do_put@?$num_put@_WV?$ostreambuf_iterator@_WU?$char_traits@_W@std@@@std@@@std@@MBE?AV?$ostreambuf_iterator@_WU?$char_traits@_W@std@@@2@V32@AAVios_base@2@_WPBX@Z ; std::num_put<wchar_t,std::ostreambuf_iterator<wchar_t,std::char_traits<wchar_t> > >::do_put
PUBLIC	?_Ffmt@?$num_put@_WV?$ostreambuf_iterator@_WU?$char_traits@_W@std@@@std@@@std@@ABAPADPADDH@Z ; std::num_put<wchar_t,std::ostreambuf_iterator<wchar_t,std::char_traits<wchar_t> > >::_Ffmt
PUBLIC	?_Fput@?$num_put@_WV?$ostreambuf_iterator@_WU?$char_traits@_W@std@@@std@@@std@@ABA?AV?$ostreambuf_iterator@_WU?$char_traits@_W@std@@@2@V32@AAVios_base@2@_WPBDI@Z ; std::num_put<wchar_t,std::ostreambuf_iterator<wchar_t,std::char_traits<wchar_t> > >::_Fput
PUBLIC	?_Ifmt@?$num_put@_WV?$ostreambuf_iterator@_WU?$char_traits@_W@std@@@std@@@std@@ABAPADPADPBDH@Z ; std::num_put<wchar_t,std::ostreambuf_iterator<wchar_t,std::char_traits<wchar_t> > >::_Ifmt
PUBLIC	?_Iput@?$num_put@_WV?$ostreambuf_iterator@_WU?$char_traits@_W@std@@@std@@@std@@ABA?AV?$ostreambuf_iterator@_WU?$char_traits@_W@std@@@2@V32@AAVios_base@2@_WPADI@Z ; std::num_put<wchar_t,std::ostreambuf_iterator<wchar_t,std::char_traits<wchar_t> > >::_Iput
PUBLIC	?_Put@?$num_put@_WV?$ostreambuf_iterator@_WU?$char_traits@_W@std@@@std@@@std@@ABA?AV?$ostreambuf_iterator@_WU?$char_traits@_W@std@@@2@V32@PB_WI@Z ; std::num_put<wchar_t,std::ostreambuf_iterator<wchar_t,std::char_traits<wchar_t> > >::_Put
PUBLIC	?_Rep@?$num_put@_WV?$ostreambuf_iterator@_WU?$char_traits@_W@std@@@std@@@std@@ABA?AV?$ostreambuf_iterator@_WU?$char_traits@_W@std@@@2@V32@_WI@Z ; std::num_put<wchar_t,std::ostreambuf_iterator<wchar_t,std::char_traits<wchar_t> > >::_Rep
PUBLIC	??_G?$num_put@_WV?$ostreambuf_iterator@_WU?$char_traits@_W@std@@@std@@@std@@MAEPAXI@Z ; std::num_put<wchar_t,std::ostreambuf_iterator<wchar_t,std::char_traits<wchar_t> > >::`scalar deleting destructor'
PUBLIC	??$use_facet@V?$numpunct@_W@std@@@std@@YAABV?$numpunct@_W@0@ABVlocale@0@@Z ; std::use_facet<std::numpunct<wchar_t> >
PUBLIC	?grouping@?$numpunct@_W@std@@QBE?AV?$basic_string@DU?$char_traits@D@std@@V?$allocator@D@2@@2@XZ ; std::numpunct<wchar_t>::grouping
PUBLIC	?falsename@?$numpunct@_W@std@@QBE?AV?$basic_string@_WU?$char_traits@_W@std@@V?$allocator@_W@2@@2@XZ ; std::numpunct<wchar_t>::falsename
PUBLIC	?truename@?$numpunct@_W@std@@QBE?AV?$basic_string@_WU?$char_traits@_W@std@@V?$allocator@_W@2@@2@XZ ; std::numpunct<wchar_t>::truename
PUBLIC	?_Getcat@?$numpunct@_W@std@@SAIPAPBVfacet@locale@2@PBV42@@Z ; std::numpunct<wchar_t>::_Getcat
PUBLIC	??1?$numpunct@_W@std@@MAE@XZ			; std::numpunct<wchar_t>::~numpunct<wchar_t>
PUBLIC	?_Init@?$numpunct@_W@std@@IAEXABV_Locinfo@2@_N@Z ; std::numpunct<wchar_t>::_Init
PUBLIC	?do_decimal_point@?$numpunct@_W@std@@MBE_WXZ	; std::numpunct<wchar_t>::do_decimal_point
PUBLIC	?do_thousands_sep@?$numpunct@_W@std@@MBE_WXZ	; std::numpunct<wchar_t>::do_thousands_sep
PUBLIC	?do_grouping@?$numpunct@_W@std@@MBE?AV?$basic_string@DU?$char_traits@D@std@@V?$allocator@D@2@@2@XZ ; std::numpunct<wchar_t>::do_grouping
PUBLIC	?do_falsename@?$numpunct@_W@std@@MBE?AV?$basic_string@_WU?$char_traits@_W@std@@V?$allocator@_W@2@@2@XZ ; std::numpunct<wchar_t>::do_falsename
PUBLIC	?do_truename@?$numpunct@_W@std@@MBE?AV?$basic_string@_WU?$char_traits@_W@std@@V?$allocator@_W@2@@2@XZ ; std::numpunct<wchar_t>::do_truename
PUBLIC	?_Tidy@?$numpunct@_W@std@@AAEXXZ		; std::numpunct<wchar_t>::_Tidy
PUBLIC	??_G?$numpunct@_W@std@@MAEPAXI@Z		; std::numpunct<wchar_t>::`scalar deleting destructor'
PUBLIC	??$_Destroy_range@V?$allocator@UHostDevice@@@std@@PAUHostDevice@@@std@@YAXPAUHostDevice@@0AAU?$_Wrap_alloc@V?$allocator@UHostDevice@@@std@@@0@@Z ; std::_Destroy_range<std::allocator<HostDevice>,HostDevice *>
PUBLIC	??$use_facet@V?$ctype@_W@std@@@std@@YAABV?$ctype@_W@0@ABVlocale@0@@Z ; std::use_facet<std::ctype<wchar_t> >
PUBLIC	??__F_Static@?1???$_Immortalize@V_Iostream_error_category@std@@@std@@YAAAV_Iostream_error_category@0@XZ@YAXXZ ; `std::_Immortalize<std::_Iostream_error_category>'::`2'::`dynamic atexit destructor for '_Static''
PUBLIC	??$_Uninitialized_move_al_unchecked1@PAUHostDevice@@PAU1@V?$allocator@UHostDevice@@@std@@@std@@YAPAUHostDevice@@PAU1@00AAU?$_Wrap_alloc@V?$allocator@UHostDevice@@@std@@@0@U_General_ptr_iterator_tag@0@U_Any_tag@0@@Z ; std::_Uninitialized_move_al_unchecked1<HostDevice *,HostDevice *,std::allocator<HostDevice> >
PUBLIC	??$_Uninitialized_copy_al_unchecked1@PBUHostDevice@@PAU1@V?$allocator@UHostDevice@@@std@@@std@@YAPAUHostDevice@@PBU1@0PAU1@AAU?$_Wrap_alloc@V?$allocator@UHostDevice@@@std@@@0@U_General_ptr_iterator_tag@0@U_Any_tag@0@@Z ; std::_Uninitialized_copy_al_unchecked1<HostDevice const *,HostDevice *,std::allocator<HostDevice> >
PUBLIC	??_E?$basic_istream@_WU?$char_traits@_W@std@@@std@@$4PPPPPPPM@A@AEPAXI@Z ; std::basic_istream<wchar_t,std::char_traits<wchar_t> >::`vector deleting destructor'
PUBLIC	??_E?$basic_ostream@_WU?$char_traits@_W@std@@@std@@$4PPPPPPPM@A@AEPAXI@Z ; std::basic_ostream<wchar_t,std::char_traits<wchar_t> >::`vector deleting destructor'
PUBLIC	??_E?$basic_iostream@_WU?$char_traits@_W@std@@@std@@$4PPPPPPPM@A@AEPAXI@Z ; std::basic_iostream<wchar_t,std::char_traits<wchar_t> >::`vector deleting destructor'
PUBLIC	??_E?$basic_stringstream@_WU?$char_traits@_W@std@@V?$allocator@_W@2@@std@@$4PPPPPPPM@A@AEPAXI@Z ; std::basic_stringstream<wchar_t,std::char_traits<wchar_t>,std::allocator<wchar_t> >::`vector deleting destructor'
PUBLIC	?_OptionsStorage@?1??__local_stdio_printf_options@@9@4_KA ; `__local_stdio_printf_options'::`2'::_OptionsStorage
PUBLIC	??_7exception@std@@6B@				; std::exception::`vftable'
PUBLIC	??_C@_0BC@EOODALEL@Unknown?5exception?$AA@	; `string'
PUBLIC	??_7runtime_error@std@@6B@			; std::runtime_error::`vftable'
PUBLIC	??_7bad_cast@std@@6B@				; std::bad_cast::`vftable'
PUBLIC	??_C@_08EPJLHIJG@bad?5cast?$AA@			; `string'
PUBLIC	__TI2?AVruntime_error@std@@
PUBLIC	__CTA2?AVruntime_error@std@@
PUBLIC	??_R0?AVruntime_error@std@@@8			; std::runtime_error `RTTI Type Descriptor'
PUBLIC	__CT??_R0?AVruntime_error@std@@@8??0runtime_error@std@@QAE@ABV01@@Z12
PUBLIC	??_R0?AVexception@std@@@8			; std::exception `RTTI Type Descriptor'
PUBLIC	__CT??_R0?AVexception@std@@@8??0exception@std@@QAE@ABV01@@Z12
PUBLIC	??_C@_0BA@ELKIONDK@bad?5locale?5name?$AA@	; `string'
PUBLIC	??_C@_05LAPONLG@false?$AA@			; `string'
PUBLIC	??_C@_04LOAJBDKD@true?$AA@			; `string'
PUBLIC	??_7_Facet_base@std@@6B@			; std::_Facet_base::`vftable'
PUBLIC	??_7facet@locale@std@@6B@			; std::locale::facet::`vftable'
PUBLIC	??_C@_00CNPNBAHC@?$AA@				; `string'
PUBLIC	??_7ctype_base@std@@6B@				; std::ctype_base::`vftable'
PUBLIC	??_7?$ctype@_W@std@@6B@				; std::ctype<wchar_t>::`vftable'
PUBLIC	??_7error_category@std@@6B@			; std::error_category::`vftable'
PUBLIC	??_7_System_error@std@@6B@			; std::_System_error::`vftable'
PUBLIC	??_C@_02LMMGGCAJ@?3?5?$AA@			; `string'
PUBLIC	??_7system_error@std@@6B@			; std::system_error::`vftable'
PUBLIC	??_7_Generic_error_category@std@@6B@		; std::_Generic_error_category::`vftable'
PUBLIC	??_C@_07DCLBNMLN@generic?$AA@			; `string'
PUBLIC	??_7_Iostream_error_category@std@@6B@		; std::_Iostream_error_category::`vftable'
PUBLIC	??_C@_08LLGCOLLL@iostream?$AA@			; `string'
PUBLIC	??_C@_0BG@PADBLCHM@iostream?5stream?5error?$AA@	; `string'
PUBLIC	??_7failure@ios_base@std@@6B@			; std::ios_base::failure::`vftable'
PUBLIC	??_7ios_base@std@@6B@				; std::ios_base::`vftable'
PUBLIC	__TI5?AVfailure@ios_base@std@@
PUBLIC	__CTA5?AVfailure@ios_base@std@@
PUBLIC	??_R0?AVfailure@ios_base@std@@@8		; std::ios_base::failure `RTTI Type Descriptor'
PUBLIC	__CT??_R0?AVfailure@ios_base@std@@@8??0failure@ios_base@std@@QAE@ABV012@@Z20
PUBLIC	??_R0?AVsystem_error@std@@@8			; std::system_error `RTTI Type Descriptor'
PUBLIC	__CT??_R0?AVsystem_error@std@@@8??0system_error@std@@QAE@ABV01@@Z20
PUBLIC	??_R0?AV_System_error@std@@@8			; std::_System_error `RTTI Type Descriptor'
PUBLIC	__CT??_R0?AV_System_error@std@@@8??0_System_error@std@@QAE@ABV01@@Z20
PUBLIC	??_C@_0BF@PHHKMMFD@ios_base?3?3badbit?5set?$AA@	; `string'
PUBLIC	??_C@_0BG@FMKFHCIL@ios_base?3?3failbit?5set?$AA@ ; `string'
PUBLIC	??_C@_0BF@OOHOMBOF@ios_base?3?3eofbit?5set?$AA@	; `string'
PUBLIC	??_C@_09NKHKFHLH@GostCrypt?$AA@			; `string'
PUBLIC	??_7Container@ForEach@GostCrypt@@6B@		; GostCrypt::ForEach::Container::`vftable'
PUBLIC	?DeferredNonSysInPlaceEncDevices@@3V?$vector@UHostDevice@@V?$allocator@UHostDevice@@@std@@@std@@A ; DeferredNonSysInPlaceEncDevices
PUBLIC	??_C@_07MDDLOGBN@?1q?5UAC?5?$AA@		; `string'
PUBLIC	??_C@_05KPBLJGDL@runas?$AA@			; `string'
PUBLIC	??_C@_0P@NDJDHMAP@UAC_INIT_ERROR?$AA@		; `string'
PUBLIC	??_C@_0BG@NJOIKHOP@System?5Encryption?4xml?$AA@	; `string'
PUBLIC	??_C@_0CE@LPCKNJKP@CANNOT_SAVE_SYS_ENCRYPTION_SETTI@ ; `string'
PUBLIC	??_C@_01NOFIACDB@w?$AA@				; `string'
PUBLIC	??_C@_0BC@IEDCODCO@?6?7?$DMsysencryption?$DO?$AA@ ; `string'
PUBLIC	??_C@_0DE@HMBPOGIN@?6?7?7?$DMconfig?5key?$DN?$CCSystemEncryption@ ; `string'
PUBLIC	??_C@_0CG@BNNHBPIN@?6?7?7?$DMconfig?5key?$DN?$CCWipeMode?$CC?$DO?$CFd?$DM?1co@ ; `string'
PUBLIC	??_C@_0BD@KMABOOHN@?6?7?$DM?1sysencryption?$DO?$AA@ ; `string'
PUBLIC	??_R0?AUException@GostCrypt@@@8			; GostCrypt::Exception `RTTI Type Descriptor'
PUBLIC	??_C@_0CF@BOINGOPM@ERR_GETTING_SYSTEM_ENCRYPTION_ST@ ; `string'
PUBLIC	??_C@_0CI@FPFBOAHN@SYSTEM_ENCRYPTION_IN_PROGRESS_EL@ ; `string'
PUBLIC	??_C@_02CLCFLINC@?1e?$AA@			; `string'
PUBLIC	??_C@_0N@PLOGBODB@StartOnLogon?$AA@		; `string'
PUBLIC	??_C@_0BM@GHIJBHNC@HiddenSectorDetectionStatus?$AA@ ; `string'
PUBLIC	??_C@_0BC@CGLEBHPJ@SaveVolumeHistory?$AA@	; `string'
PUBLIC	??_C@_0BF@MIMCAHPI@SecurityTokenLibrary?$AA@	; `string'
PUBLIC	??_C@_08BENDAOKD@Language?$AA@			; `string'
PUBLIC	??_C@_0CA@HDGOHFPD@SYSTEM_ENCRYPTION_RESUME_PROMPT?$AA@ ; `string'
PUBLIC	??_C@_0CJ@GFEACENL@SYS_ENCRYPTION_OR_DECRYPTION_IN_@ ; `string'
PUBLIC	??_C@_0CC@MKLHADEI@SETUP_FAILED_BOOT_DRIVE_ENCRYPTE@ ; `string'
PUBLIC	??_C@_0BO@NAOLHLLP@ADMIN_PRIVILEGES_WARN_DEVICES?$AA@ ; `string'
PUBLIC	??_C@_0CH@KNBCDPOB@ASK_ENCRYPT_PARTITION_INSTEAD_OF@ ; `string'
PUBLIC	??_C@_15IABLJNFO@?$AA?6?$AA?6?$AA?$AA@		; `string'
PUBLIC	??_C@_0CB@CKHHFLEI@SYSDRIVE_NON_STANDARD_PARTITIONS@ ; `string'
PUBLIC	??_C@_0CI@HLDNCEMH@WDE_UNSUPPORTED_FOR_EXTENDED_PAR@ ; `string'
PUBLIC	??_C@_0CA@DBKKOPEJ@WDE_EXTENDED_PARTITIONS_WARNING?$AA@ ; `string'
PUBLIC	??_C@_0BH@HHEGHILA@WHOLE_SYC_DEVICE_RECOM?$AA@	; `string'
PUBLIC	??_C@_0CD@NPEEBJKE@HIDDEN_OS_PRECLUDES_SINGLE_KEY_W@ ; `string'
PUBLIC	??_C@_09FFOCOHMH@?1zinplace?$AA@		; `string'
PUBLIC	??_C@_0DA@NNBJDAHG@CHOOSE_ENCRYPT_OR_DECRYPT_FINALI@ ; `string'
PUBLIC	??_C@_0BK@CFANEEFJ@CHOOSE_ENCRYPT_OR_DECRYPT?$AA@ ; `string'
PUBLIC	??_C@_07CAOFPAJK@ENCRYPT?$AA@			; `string'
PUBLIC	??_C@_07OOEIKEPO@DECRYPT?$AA@			; `string'
PUBLIC	??_C@_08DDAIHKOO@IDCANCEL?$AA@			; `string'
PUBLIC	??_C@_0O@POKHNLDL@GOST?528147?989?$AA@		; `string'
PUBLIC	??_C@_0BA@LGBFJNHH@MORE_INFO_ABOUT?$AA@		; `string'
PUBLIC	??_C@_09JHKBFGFC@GOST_HELP?$AA@			; `string'
PUBLIC	??_C@_0BH@PJGBOAEF@TWO_LAYER_CASCADE_HELP?$AA@	; `string'
PUBLIC	??_C@_0BJ@CFADADFJ@THREE_LAYER_CASCADE_HELP?$AA@ ; `string'
PUBLIC	??_C@_0CA@EHDIKOJL@IDC_LINK_MORE_INFO_ABOUT_CIPHER?$AA@ ; `string'
PUBLIC	??_C@_11LOCGONAA@?$AA?$AA@			; `string'
PUBLIC	??_C@_09JHINKGCK@UISTR_YES?$AA@			; `string'
PUBLIC	??_C@_08EOJLPPDK@UISTR_NO?$AA@			; `string'
PUBLIC	??_C@_04MOKMKBJN@NEXT?$AA@			; `string'
PUBLIC	??_C@_04PKHKLFPJ@PREV?$AA@			; `string'
PUBLIC	??_C@_06JHILMIHF@CANCEL?$AA@			; `string'
PUBLIC	??_C@_0BI@FJOOBAJA@PROGRESS_STATUS_WAITING?$AA@	; `string'
PUBLIC	??_C@_0BL@MHLPJIOG@PROGRESS_STATUS_DECRYPTING?$AA@ ; `string'
PUBLIC	??_C@_0BL@PONBLMNB@PROGRESS_STATUS_ENCRYPTING?$AA@ ; `string'
PUBLIC	??_C@_13HOIJIPNN@?$AA?5?$AA?$AA@		; `string'
PUBLIC	??_C@_09PJBBBIIP@IDC_PAUSE?$AA@			; `string'
PUBLIC	??_C@_06PPGAKMJI@RESUME?$AA@			; `string'
PUBLIC	??_C@_0BJ@HKENJBII@PROGRESS_STATUS_FINISHED?$AA@ ; `string'
PUBLIC	??_C@_0BH@LLAADOBF@PROGRESS_STATUS_PAUSED?$AA@	; `string'
PUBLIC	??_C@_0BO@DMHMPBKC@PROCESSED_PORTION_100_PERCENT?$AA@ ; `string'
PUBLIC	??_C@_01CLKCMJKC@?5?$AA@			; `string'
PUBLIC	??_C@_0CG@OIGJDCBH@FAILED_TO_INTERRUPT_SYSTEM_ENCRY@ ; `string'
PUBLIC	??_C@_0CD@HEMAICHN@FAILED_TO_RESUME_SYSTEM_ENCRYPTI@ ; `string'
PUBLIC	??_C@_0BP@CJOANMAM@NONSYS_INPLACE_ENC_IN_PROGRESS?$AA@ ; `string'
PUBLIC	??_C@_0BK@NECHGBNE@PROGRESS_STATUS_PREPARING?$AA@ ; `string'
PUBLIC	??_C@_0BJ@EIBDNDIC@PROGRESS_STATUS_RESIZING?$AA@ ; `string'
PUBLIC	??_C@_0BL@CIJLEOGN@PROGRESS_STATUS_FINALIZING?$AA@ ; `string'
PUBLIC	??_C@_0BG@IDPLALHN@PROGRESS_STATUS_ERROR?$AA@	; `string'
PUBLIC	??_C@_05KEELGAD@DEFER?$AA@			; `string'
PUBLIC	??_C@_04LAOFCJDB@?5?$CFc?5?$AA@			; `string'
PUBLIC	??_C@_03NJNOMAJF@?5?4?5?$AA@			; `string'
PUBLIC	??_C@_05BFHEBJNP@?$CF02X?5?$AA@			; `string'
PUBLIC	??_C@_01EEMJAFIK@?6?$AA@			; `string'
PUBLIC	??_C@_1JO@BPJIPIJP@?$AA?$CK?$AA?$CK?$AA?$CK?$AA?$CK?$AA?$CK?$AA?$CK?$AA?$CK?$AA?$CK?$AA?$CK?$AA?$CK?$AA?$CK?$AA?$CK?$AA?$CK?$AA?$CK?$AA?$CK?$AA?$CK?$AA?$CK?$AA?$CK?$AA?$CK?$AA?$CK?$AA?$CK?$AA?$CK?$AA?$CK?$AA?$CK?$AA?$CK?$AA?$CK?$AA?$CK?$AA?$CK?$AA?$CK?$AA?$CK?$AA?$CK?$AA?$CK@ ; `string'
PUBLIC	??_C@_0BK@JMBFHJFE@TRIPLE_DOT_GLYPH_ELLIPSIS?$AA@ ; `string'
PUBLIC	??_C@_0BL@PHPLOOOK@FAILED_TO_INTERRUPT_WIPING?$AA@ ; `string'
PUBLIC	??_C@_0BH@PKDMJBLN@FAILED_TO_START_WIPING?$AA@	; `string'
PUBLIC	??_R0?AUTimeOut@GostCrypt@@@8			; GostCrypt::TimeOut `RTTI Type Descriptor'
PUBLIC	??_C@_0O@JJNKJOK@ERR_MEM_ALLOC?$AA@		; `string'
PUBLIC	??_C@_0BL@MHDAJDPI@ADMIN_PRIVILEGES_WARN_NTFS?$AA@ ; `string'
PUBLIC	??_C@_0P@EMHOIPJB@READONLYPROMPT?$AA@		; `string'
PUBLIC	??_C@_0BA@JEAHJACA@OVERWRITEPROMPT?$AA@		; `string'
PUBLIC	??_C@_0P@JKCBOPBP@ACCESSMODEFAIL?$AA@		; `string'
PUBLIC	??_C@_0M@IMAOAGMP@OUTOFMEMORY?$AA@		; `string'
PUBLIC	??_C@_0BM@DNIPKEFC@NO_FREE_DRIVE_FOR_OUTER_VOL?$AA@ ; `string'
PUBLIC	??_C@_0BF@IAAAEIAJ@CANT_MOUNT_OUTER_VOL?$AA@	; `string'
PUBLIC	??_C@_0BP@CBCIBGL@INPLACE_ENC_GENERIC_ERR_RESUME?$AA@ ; `string'
PUBLIC	??_C@_0CC@GOJAHDJH@INPLACE_ENC_GENERIC_ERR_ALT_STEP@ ; `string'
PUBLIC	??_C@_0O@OIAKNAOK@CREATE_FAILED?$AA@		; `string'
PUBLIC	??_C@_0BM@NHKMKNFC@HIDVOL_FORMAT_FINISHED_HELP?$AA@ ; `string'
PUBLIC	??_C@_0CB@KOCBDKDK@NONSYS_INPLACE_ENC_FINISHED_INFO@ ; `string'
PUBLIC	??_C@_0BF@ELGDKJEM@FORMAT_FINISHED_INFO?$AA@	; `string'
PUBLIC	??_C@_0BG@PHMPDKJN@SPARSE_FILE_SIZE_NOTE?$AA@	; `string'
PUBLIC	??_C@_0BA@IDMMBDGF@FORMAT_FINISHED?$AA@		; `string'
PUBLIC	??_C@_0BM@JKEOLKCL@NONSYS_INPLACE_ENC_CANCELED?$AA@ ; `string'
PUBLIC	??_C@_0BA@NLOHJLIM@FORMAT_CANCELED?$AA@		; `string'
PUBLIC	??_C@_0BI@DFBMOJJF@PASSWORD_HIDDEN_OS_NOTE?$AA@	; `string'
PUBLIC	??_C@_0BN@GMGGDPEP@HIDDEN_OS_PRE_CIPHER_WARNING?$AA@ ; `string'
PUBLIC	??_C@_0BG@OMPICDCM@MAX_HIDVOL_SIZE_BYTES?$AA@	; `string'
PUBLIC	??_C@_0BC@DDPKPAD@DEVICE_FREE_BYTES?$AA@	; `string'
PUBLIC	??_C@_0BA@GNIBCOCE@DISK_FREE_BYTES?$AA@		; `string'
PUBLIC	??_C@_0BD@NCFPMHAA@MAX_HIDVOL_SIZE_KB?$AA@	; `string'
PUBLIC	??_C@_0P@IKBGAMLK@DEVICE_FREE_KB?$AA@		; `string'
PUBLIC	??_C@_0N@LDEICJLE@DISK_FREE_KB?$AA@		; `string'
PUBLIC	??_C@_0BD@NGNCLLLC@MAX_HIDVOL_SIZE_MB?$AA@	; `string'
PUBLIC	??_C@_0P@IOJLHAAI@DEVICE_FREE_MB?$AA@		; `string'
PUBLIC	??_C@_0N@LHMFFFAG@DISK_FREE_MB?$AA@		; `string'
PUBLIC	??_C@_0BD@NLEFDOGE@MAX_HIDVOL_SIZE_GB?$AA@	; `string'
PUBLIC	??_C@_0P@IDAMPFNO@DEVICE_FREE_GB?$AA@		; `string'
PUBLIC	??_C@_0N@LKFCNANA@DISK_FREE_GB?$AA@		; `string'
PUBLIC	??_C@_0BC@LBACDGOD@CANNOT_CALC_SPACE?$AA@	; `string'
PUBLIC	??_C@_1M@KGONCMNM@?$AA?$CF?$AAs?$AA?6?$AA?$CF?$AAs?$AA?$AA@ ; `string'
PUBLIC	??_C@_0BA@GFCNKOPI@CANT_ACCESS_VOL?$AA@		; `string'
PUBLIC	??_C@_0BB@FNOFFGJI@CANT_GET_VOLSIZE?$AA@	; `string'
PUBLIC	??_C@_0BI@FCILOPDD@SECTOR_SIZE_UNSUPPORTED?$AA@	; `string'
PUBLIC	??_C@_0O@MKGMJGFE@EXT_PARTITION?$AA@		; `string'
PUBLIC	??_C@_1BK@GHMHFLJL@?$AA?5?$AA?$CI?$AA?$CF?$AAh?$AAc?$AA?3?$AA?5?$AA?8?$AA?$CF?$AAs?$AA?8?$AA?$CJ?$AA?$AA@ ; `string'
PUBLIC	??_C@_1BE@LDCEEKNB@?$AA?5?$AA?$CI?$AA?$CF?$AAh?$AAc?$AA?3?$AA?$CF?$AAs?$AA?$CJ?$AA?$AA@ ; `string'
PUBLIC	??_C@_0CL@KCMNHFDO@OVERWRITEPROMPT_DEVICE_HIDDEN_OS@ ; `string'
PUBLIC	??_C@_0BL@IMNAFHOP@NONSYS_INPLACE_ENC_CONFIRM?$AA@ ; `string'
PUBLIC	??_C@_0BH@JPJDALOG@OVERWRITEPROMPT_DEVICE?$AA@	; `string'
PUBLIC	??_C@_0DD@GFFEJLFD@OVERWRITEPROMPT_DEVICE_SECOND_WA@ ; `string'
PUBLIC	??_C@_0BP@IMKLJEFC@ERASE_FILES_BY_CREATING_VOLUME?$AA@ ; `string'
PUBLIC	??_C@_0BC@ELOGDKJ@DRIVE_LETTER_ITEM?$AA@	; `string'
PUBLIC	??_C@_19KHPJIBCC@?$AA?$CF?$AAh?$AAc?$AA?3?$AA?$AA@ ; `string'
PUBLIC	??_C@_13LBAGMAIH@?$AA?6?$AA?$AA@		; `string'
PUBLIC	??_C@_0L@PEDCDHCM@LABEL_ITEM?$AA@		; `string'
PUBLIC	??_C@_0CA@KEHLKHJA@NOT_APPLICABLE_OR_NOT_AVAILABLE?$AA@ ; `string'
PUBLIC	??_C@_09DBGAMMMC@SIZE_ITEM?$AA@			; `string'
PUBLIC	??_C@_09BFNCKGCL@PATH_ITEM?$AA@			; `string'
PUBLIC	??_C@_0BP@DGIMBADH@AFTER_FORMAT_DRIVE_LETTER_WARN?$AA@ ; `string'
PUBLIC	??_7?$ContainerForward@V?$vector@UHostDevice@@V?$allocator@UHostDevice@@@std@@@std@@@ForEach@GostCrypt@@6B@ ; GostCrypt::ForEach::ContainerForward<std::vector<HostDevice,std::allocator<HostDevice> > >::`vftable'
PUBLIC	??_7?$basic_ios@_WU?$char_traits@_W@std@@@std@@6B@ ; std::basic_ios<wchar_t,std::char_traits<wchar_t> >::`vftable'
PUBLIC	??_7?$basic_istream@_WU?$char_traits@_W@std@@@std@@6B@ ; std::basic_istream<wchar_t,std::char_traits<wchar_t> >::`vftable'
PUBLIC	??_8?$basic_istream@_WU?$char_traits@_W@std@@@std@@7B@ ; std::basic_istream<wchar_t,std::char_traits<wchar_t> >::`vbtable'
PUBLIC	??_7?$basic_ostream@_WU?$char_traits@_W@std@@@std@@6B@ ; std::basic_ostream<wchar_t,std::char_traits<wchar_t> >::`vftable'
PUBLIC	??_8?$basic_ostream@_WU?$char_traits@_W@std@@@std@@7B@ ; std::basic_ostream<wchar_t,std::char_traits<wchar_t> >::`vbtable'
PUBLIC	??_7?$basic_iostream@_WU?$char_traits@_W@std@@@std@@6B@ ; std::basic_iostream<wchar_t,std::char_traits<wchar_t> >::`vftable'
PUBLIC	??_8?$basic_iostream@_WU?$char_traits@_W@std@@@std@@7B?$basic_istream@_WU?$char_traits@_W@std@@@1@@ ; std::basic_iostream<wchar_t,std::char_traits<wchar_t> >::`vbtable'
PUBLIC	??_8?$basic_iostream@_WU?$char_traits@_W@std@@@std@@7B?$basic_ostream@_WU?$char_traits@_W@std@@@1@@ ; std::basic_iostream<wchar_t,std::char_traits<wchar_t> >::`vbtable'
PUBLIC	??_7?$basic_streambuf@_WU?$char_traits@_W@std@@@std@@6B@ ; std::basic_streambuf<wchar_t,std::char_traits<wchar_t> >::`vftable'
PUBLIC	??_7?$basic_stringbuf@_WU?$char_traits@_W@std@@V?$allocator@_W@2@@std@@6B@ ; std::basic_stringbuf<wchar_t,std::char_traits<wchar_t>,std::allocator<wchar_t> >::`vftable'
PUBLIC	??_7?$basic_stringstream@_WU?$char_traits@_W@std@@V?$allocator@_W@2@@std@@6B@ ; std::basic_stringstream<wchar_t,std::char_traits<wchar_t>,std::allocator<wchar_t> >::`vftable'
PUBLIC	??_8?$basic_stringstream@_WU?$char_traits@_W@std@@V?$allocator@_W@2@@std@@7B?$basic_istream@_WU?$char_traits@_W@std@@@1@@ ; std::basic_stringstream<wchar_t,std::char_traits<wchar_t>,std::allocator<wchar_t> >::`vbtable'
PUBLIC	??_8?$basic_stringstream@_WU?$char_traits@_W@std@@V?$allocator@_W@2@@std@@7B?$basic_ostream@_WU?$char_traits@_W@std@@@1@@ ; std::basic_stringstream<wchar_t,std::char_traits<wchar_t>,std::allocator<wchar_t> >::`vbtable'
PUBLIC	??_C@_0BM@IHMEHMBJ@IDD_VOL_CREATION_WIZARD_DLG?$AA@ ; `string'
PUBLIC	??_C@_0P@IDKFBPLE@FORMAT_PAGE_?$CFd?$AA@	; `string'
PUBLIC	??_C@_0M@BGLIKHAN@INTRO_TITLE?$AA@		; `string'
PUBLIC	??_C@_0BH@LFFPJFCG@SYSENC_TYPE_PAGE_TITLE?$AA@	; `string'
PUBLIC	??_C@_0BI@FECPKDFP@SYSENC_HIDDEN_TYPE_HELP?$AA@	; `string'
PUBLIC	??_C@_0BI@EEMGDNEH@SYSENC_NORMAL_TYPE_HELP?$AA@	; `string'
PUBLIC	??_C@_0CG@CLMIJGGF@SYSENC_HIDDEN_OS_REQ_CHECK_PAGE_@ ; `string'
PUBLIC	??_C@_0CF@GBPOCIAL@SYSENC_HIDDEN_OS_REQ_CHECK_PAGE_@ ; `string'
PUBLIC	??_C@_0BK@FBGFJBLB@SYS_ENCRYPTION_SPAN_TITLE?$AA@ ; `string'
PUBLIC	??_C@_0CJ@CMOPFEFD@SYS_ENCRYPTION_SPAN_WHOLE_SYS_DR@ ; `string'
PUBLIC	??_C@_0CA@IIEHPPGP@SYSENC_PRE_DRIVE_ANALYSIS_TITLE?$AA@ ; `string'
PUBLIC	??_C@_0BP@FCJHFGGJ@SYSENC_PRE_DRIVE_ANALYSIS_HELP?$AA@ ; `string'
PUBLIC	??_C@_0BM@EGLOODHA@SYSENC_DRIVE_ANALYSIS_TITLE?$AA@ ; `string'
PUBLIC	??_C@_0BL@OAMDPDOH@SYSENC_DRIVE_ANALYSIS_INFO?$AA@ ; `string'
PUBLIC	??_C@_0CK@KEHMFNIA@HIDDEN_SECTOR_DETECTION_FAILED_P@ ; `string'
PUBLIC	??_C@_0BN@GHOENGPC@SKIP_HIDDEN_SECTOR_DETECTION?$AA@ ; `string'
PUBLIC	??_C@_0BO@OEFOGNPK@RETRY_HIDDEN_SECTOR_DETECTION?$AA@ ; `string'
PUBLIC	??_C@_08HBBNJJLH@IDC_EXIT?$AA@			; `string'
PUBLIC	??_C@_0BK@NAIABFPC@SYS_MULTI_BOOT_MODE_TITLE?$AA@ ; `string'
PUBLIC	??_C@_0CE@HOKCHJKA@SYSENC_MULTI_BOOT_SYS_EQ_BOOT_TI@ ; `string'
PUBLIC	??_C@_0CD@ODHMCLM@SYSENC_MULTI_BOOT_SYS_EQ_BOOT_HE@ ; `string'
PUBLIC	??_C@_09BCPPDPEL@DIGIT_ONE?$AA@			; `string'
PUBLIC	??_C@_0M@BAIFEFDO@TWO_OR_MORE?$AA@		; `string'
PUBLIC	??_C@_0CH@IMKPMBEM@SYSENC_MULTI_BOOT_NBR_SYS_DRIVES@ ; `string'
PUBLIC	??_C@_0CG@GBIPGAOP@SYSENC_MULTI_BOOT_NBR_SYS_DRIVES@ ; `string'
PUBLIC	??_C@_0CF@MINJEEM@SYSENC_MULTI_BOOT_ADJACENT_SYS_T@ ; `string'
PUBLIC	??_C@_0CE@CGLNKLHK@SYSENC_MULTI_BOOT_ADJACENT_SYS_H@ ; `string'
PUBLIC	??_C@_0CL@PKMEBLJM@SYSENC_MULTI_BOOT_NONWIN_BOOT_LO@ ; `string'
PUBLIC	??_C@_0CK@NGBECAKP@SYSENC_MULTI_BOOT_NONWIN_BOOT_LO@ ; `string'
PUBLIC	??_C@_0CA@FOODICMO@SYSENC_MULTI_BOOT_OUTCOME_TITLE?$AA@ ; `string'
PUBLIC	??_C@_0BC@IMPHNJMH@VOLUME_TYPE_TITLE?$AA@	; `string'
PUBLIC	??_C@_0BI@OMMJFNJB@HIDDEN_VOLUME_TYPE_HELP?$AA@	; `string'
PUBLIC	??_C@_0BI@OKEJAKDK@NORMAL_VOLUME_TYPE_HELP?$AA@	; `string'
PUBLIC	??_C@_0BN@CFKNBCJG@HIDDEN_VOL_WIZARD_MODE_TITLE?$AA@ ; `string'
PUBLIC	??_C@_0CD@LJCMOGBH@HIDDEN_VOL_WIZARD_MODE_NORMAL_HE@ ; `string'
PUBLIC	??_C@_0CD@BGGCLDPJ@HIDDEN_VOL_WIZARD_MODE_DIRECT_HE@ ; `string'
PUBLIC	??_C@_0BC@NHEENOIC@IDC_SELECT_DEVICE?$AA@	; `string'
PUBLIC	??_C@_0BA@HOMDJPL@IDC_SELECT_FILE?$AA@		; `string'
PUBLIC	??_C@_0CB@LOIOBDOO@FILE_HELP_HIDDEN_HOST_VOL_DIRECT@ ; `string'
PUBLIC	??_C@_0BM@DMHDGBOJ@DEVICE_HELP_HIDDEN_HOST_VOL?$AA@ ; `string'
PUBLIC	??_C@_0M@JNOAPEGE@DEVICE_HELP?$AA@		; `string'
PUBLIC	??_C@_0BK@JMGOJAKG@FILE_HELP_HIDDEN_HOST_VOL?$AA@ ; `string'
PUBLIC	??_C@_09GPELPABL@FILE_HELP?$AA@			; `string'
PUBLIC	??_C@_0L@DGHBDDNJ@FILE_TITLE?$AA@		; `string'
PUBLIC	??_C@_0CB@IJHCDAO@DEVICE_TRANSFORM_MODE_PAGE_TITLE@ ; `string'
PUBLIC	??_C@_0CH@CJGGIKCO@DEVICE_TRANSFORM_MODE_PAGE_FORMA@ ; `string'
PUBLIC	??_C@_0CI@FGJIGFAK@DEVICE_TRANSFORM_MODE_PAGE_INPLA@ ; `string'
PUBLIC	??_C@_0BN@PMMGMENG@HIDVOL_HOST_PRE_CIPHER_TITLE?$AA@ ; `string'
PUBLIC	??_C@_0CD@OMGBOOGK@HIDVOL_HOST_PRE_CIPHER_HELP_SYSE@ ; `string'
PUBLIC	??_C@_0BM@GCHOHFOK@HIDVOL_HOST_PRE_CIPHER_HELP?$AA@ ; `string'
PUBLIC	??_C@_0N@PJPEEMEG@INVALID_PATH?$AA@		; `string'
PUBLIC	??_C@_0BI@JOBKEAGA@HIDVOL_PRE_CIPHER_TITLE?$AA@	; `string'
PUBLIC	??_C@_0CF@OIPNIHCG@HIDDEN_VOLUME_TOO_SMALL_FOR_OS_C@ ; `string'
PUBLIC	??_C@_04GOLNGIJ@EXIT?$AA@			; `string'
PUBLIC	??_C@_0BK@FGHOHKMP@HIDDEN_OS_PRE_CIPHER_HELP?$AA@ ; `string'
PUBLIC	??_C@_0BH@GDOHBMLG@HIDVOL_PRE_CIPHER_HELP?$AA@	; `string'
PUBLIC	??_C@_0BJ@GGKKJCIG@CIPHER_HIDVOL_HOST_TITLE?$AA@ ; `string'
PUBLIC	??_C@_0BE@JFKJAJEK@CIPHER_HIDVOL_TITLE?$AA@	; `string'
PUBLIC	??_C@_0N@IMFDFPGM@CIPHER_TITLE?$AA@		; `string'
PUBLIC	??_C@_0BK@DEODNGPK@SIZE_HELP_HIDDEN_HOST_VOL?$AA@ ; `string'
PUBLIC	??_C@_0BF@LOOCDJPI@SIZE_HELP_HIDDEN_VOL?$AA@	; `string'
PUBLIC	??_C@_09BEBIICBL@SIZE_HELP?$AA@			; `string'
PUBLIC	??_C@_0BP@JPPBFIHO@SIZE_PARTITION_HIDDEN_VOL_HELP?$AA@ ; `string'
PUBLIC	??_C@_0CC@MIIACKDF@SIZE_PARTITION_HIDDEN_SYSENC_HEL@ ; `string'
PUBLIC	??_C@_0BE@FGKMPGH@SIZE_PARTITION_HELP?$AA@	; `string'
PUBLIC	??_C@_19LJDFFCJJ@?$AA?$CF?$AAs?$AA?$CF?$AAs?$AA?$AA@ ; `string'
PUBLIC	??_C@_07NFANNNEC@UNKNOWN?$AA@			; `string'
PUBLIC	??_C@_05OINFJHGD@?$CFI64u?$AA@			; `string'
PUBLIC	??_C@_0BH@GBEPPLEC@SIZE_HIDVOL_HOST_TITLE?$AA@	; `string'
PUBLIC	??_C@_0BC@COPDBOHD@SIZE_HIDVOL_TITLE?$AA@	; `string'
PUBLIC	??_C@_0L@DGAKGAKL@SIZE_TITLE?$AA@		; `string'
PUBLIC	??_C@_0CN@CCCDIOBF@NONSYS_INPLACE_ENC_RESUME_PASSWO@ ; `string'
PUBLIC	??_C@_0CE@MPBBLHJC@PASSWORD_HIDDENVOL_HOST_DIRECT_H@ ; `string'
PUBLIC	??_C@_08KENNMKEI@PASSWORD?$AA@			; `string'
PUBLIC	??_C@_0BL@DDMDKDAG@PASSWORD_HIDVOL_HOST_TITLE?$AA@ ; `string'
PUBLIC	??_C@_04JIMNDDED@?$CF08X?$AA@			; `string'
PUBLIC	??_C@_08OKJEGFFL@00000409?$AA@			; `string'
PUBLIC	??_C@_0CL@KAEHBIEI@CANT_CHANGE_KEYB_LAYOUT_FOR_SYS_@ ; `string'
PUBLIC	??_C@_0BB@MMDPAFIK@CANNOT_SET_TIMER?$AA@	; `string'
PUBLIC	??_C@_0BO@EJBBHKGE@PASSWORD_SYSENC_OUTERVOL_HELP?$AA@ ; `string'
PUBLIC	??_C@_0BN@OJJOHFMM@PASSWORD_HIDDENVOL_HOST_HELP?$AA@ ; `string'
PUBLIC	??_C@_0O@MEODOKDB@PASSWORD_HELP?$AA@		; `string'
PUBLIC	??_C@_0BI@PAGBOIIN@PASSWORD_HIDDEN_OS_HELP?$AA@	; `string'
PUBLIC	??_C@_0BI@MNFELCPB@PASSWORD_HIDDENVOL_HELP?$AA@	; `string'
PUBLIC	??_C@_0BJ@CPICCPLA@PASSWORD_HIDDEN_OS_TITLE?$AA@ ; `string'
PUBLIC	??_C@_0BG@ILMPEOM@PASSWORD_HIDVOL_TITLE?$AA@	; `string'
PUBLIC	??_C@_0P@ONGBFCBF@PASSWORD_TITLE?$AA@		; `string'
PUBLIC	??_C@_0BD@LCAKBGFA@FILESYS_PAGE_TITLE?$AA@	; `string'
PUBLIC	??_C@_0BL@IEILEGP@FILESYS_PAGE_HELP_QUESTION?$AA@ ; `string'
PUBLIC	??_C@_17MFDLPPFM@?$AA?6?$AA?6?$AA?6?$AA?$AA@	; `string'
PUBLIC	??_C@_0P@JPAMOBPC@NOTE_BEGINNING?$AA@		; `string'
PUBLIC	??_C@_0BO@NPNHCCNA@FILESYS_PAGE_HELP_EXPLANATION?$AA@ ; `string'
PUBLIC	??_C@_0CF@BDOPEICN@FILESYS_PAGE_HELP_EXPLANATION_HI@ ; `string'
PUBLIC	??_C@_0BN@DAHBFIJD@COLLECTING_RANDOM_DATA_TITLE?$AA@ ; `string'
PUBLIC	??_C@_0P@KEHBBAFI@KEYS_GEN_TITLE?$AA@		; `string'
PUBLIC	??_C@_0M@IGHMLIGA@RESCUE_DISK?$AA@		; `string'
PUBLIC	??_C@_0BB@KBMALCGN@RESCUE_DISK_INFO?$AA@	; `string'
PUBLIC	??_C@_0BK@NAGNMEFO@RESCUE_DISK_CREATED_TITLE?$AA@ ; `string'
PUBLIC	??_C@_0BM@GPDOJGLC@RESCUE_DISK_RECORDING_TITLE?$AA@ ; `string'
PUBLIC	??_C@_0CI@IHEJGKND@RESCUE_DISK_BURN_INFO_NONWIN_ISO@ ; `string'
PUBLIC	??_C@_0BP@JAENMDIB@RESCUE_DISK_BURN_INFO_NO_CHECK?$AA@ ; `string'
PUBLIC	??_C@_0BG@KIJPDAJH@RESCUE_DISK_BURN_INFO?$AA@	; `string'
PUBLIC	??_C@_0BD@CHINNFGJ@LAUNCH_WIN_ISOBURN?$AA@	; `string'
PUBLIC	??_C@_0CA@OFKHEBFP@RESCUE_DISK_DISK_VERIFIED_TITLE?$AA@ ; `string'
PUBLIC	??_C@_0BK@PHEMJDOE@RESCUE_DISK_VERIFIED_INFO?$AA@ ; `string'
PUBLIC	??_C@_0BA@GEMFOMCA@WIPE_MODE_TITLE?$AA@		; `string'
PUBLIC	??_C@_0BL@KPLPAAMG@INPLACE_ENC_WIPE_MODE_INFO?$AA@ ; `string'
PUBLIC	??_C@_0CB@PAHHLDJJ@HIDDEN_OS_CREATION_PREINFO_TITLE@ ; `string'
PUBLIC	??_C@_0CA@GFBCACCB@HIDDEN_OS_CREATION_PREINFO_HELP?$AA@ ; `string'
PUBLIC	??_C@_05JLPDBANI@START?$AA@			; `string'
PUBLIC	??_C@_0BN@OJLMLLFE@SYS_ENCRYPTION_PRETEST_TITLE?$AA@ ; `string'
PUBLIC	??_C@_0BM@OIIAJLEO@SYS_ENCRYPTION_PRETEST_INFO?$AA@ ; `string'
PUBLIC	??_C@_04OIKJMBFP@TEST?$AA@			; `string'
PUBLIC	??_C@_0CE@FEPHBNLJ@SYS_ENCRYPTION_PRETEST_RESULT_TI@ ; `string'
PUBLIC	??_C@_0CD@BONEGKLO@SYS_ENCRYPTION_PRETEST_RESULT_IN@ ; `string'
PUBLIC	??_C@_0L@MHHIHFIN@ENCRYPTION?$AA@		; `string'
PUBLIC	??_C@_0L@POBGFBLK@DECRYPTION?$AA@		; `string'
PUBLIC	??_C@_0BM@LFGBLAAC@SYSENC_ENCRYPTION_PAGE_INFO?$AA@ ; `string'
PUBLIC	??_C@_0CK@KEEMKNMD@NONSYS_INPLACE_ENC_RESUME_VOL_SE@ ; `string'
PUBLIC	??_C@_0CI@MDGBIFPN@NONSYS_INPLACE_ENC_ENCRYPTION_PA@ ; `string'
PUBLIC	??_C@_0CC@LOJCKPNA@NONSYS_INPLACE_ENC_FINISHED_TITL@ ; `string'
PUBLIC	??_C@_08MFKGCNCO@FINALIZE?$AA@			; `string'
PUBLIC	??_C@_0BI@MEDALEIG@FORMAT_HIDVOL_HOST_HELP?$AA@	; `string'
PUBLIC	??_C@_0M@EEPPFDAO@FORMAT_HELP?$AA@		; `string'
PUBLIC	??_C@_0BJ@LIGEKHGE@FORMAT_HIDVOL_HOST_TITLE?$AA@ ; `string'
PUBLIC	??_C@_0BE@CEEOMNDM@FORMAT_HIDVOL_TITLE?$AA@	; `string'
PUBLIC	??_C@_0N@FLIHGDJB@FORMAT_TITLE?$AA@		; `string'
PUBLIC	??_C@_0BA@LBGDFDPO@IDC_QUICKFORMAT?$AA@		; `string'
PUBLIC	??_C@_0M@GPMOAIEF@SPARSE_FILE?$AA@		; `string'
PUBLIC	??_C@_0EP@NPBFJCJA@?$CK?$CK?$CK?$CK?$CK?$CK?$CK?$CK?$CK?$CK?$CK?$CK?$CK?$CK?$CK?$CK?$CK?$CK?$CK?$CK?$CK?$CK?$CK?$CK?$CK?$CK?$CK?$CK?$CK?$CK?$CK?$CK@ ; `string'
PUBLIC	??_C@_07MGCPDNLD@DEFAULT?$AA@			; `string'
PUBLIC	??_C@_17OFEDBPDO@?$AA0?$AA?4?$AA5?$AA?$AA@	; `string'
PUBLIC	??_C@_02LODOGJEL@KB?$AA@			; `string'
PUBLIC	??_C@_04HPPAIJNK@NTFS?$AA@			; `string'
PUBLIC	??_C@_03MPELFIKF@FAT?$AA@			; `string'
PUBLIC	??_C@_04OKGDLNCL@NONE?$AA@			; `string'
PUBLIC	??_C@_03JMFMNIFM@?9?9?9?$AA@			; `string'
PUBLIC	??_C@_06DPGELLJH@FORMAT?$AA@			; `string'
PUBLIC	??_C@_02LKLDBFPJ@MB?$AA@			; `string'
PUBLIC	??_C@_1BC@JJPHEOJD@?$AA?$CF?$AAI?$AA6?$AA4?$AAd?$AA?5?$AA?$CF?$AAs?$AA?$AA@ ; `string'
PUBLIC	??_C@_0CA@NGPBKLAB@HIDVOL_HOST_FILLING_HELP_SYSENC?$AA@ ; `string'
PUBLIC	??_C@_0BJ@NMHGGMKI@HIDVOL_HOST_FILLING_HELP?$AA@ ; `string'
PUBLIC	??_C@_0BK@GEKKOMHD@HIDVOL_HOST_FILLING_TITLE?$AA@ ; `string'
PUBLIC	??_C@_0CH@DILBCENC@SYSENC_HIDDEN_VOL_FORMAT_FINISHE@ ; `string'
PUBLIC	??_C@_0BF@GBMPIMLF@FORMAT_FINISHED_HELP?$AA@	; `string'
PUBLIC	??_C@_0BN@DJMJCNLA@HIDVOL_FORMAT_FINISHED_TITLE?$AA@ ; `string'
PUBLIC	??_C@_0BG@HBBDJEK@FORMAT_FINISHED_TITLE?$AA@	; `string'
PUBLIC	??_C@_0BE@KFFNPDGB@PageDialogProc?35088?$AA@	; `string'
PUBLIC	??_C@_0CE@LLANPMHF@SYSENC_HIDDEN_OS_INITIAL_INFO_TI@ ; `string'
PUBLIC	??_C@_0BK@FHELJNGN@FIRST_HIDDEN_OS_BOOT_INFO?$AA@ ; `string'
PUBLIC	??_C@_0CB@MMHOKPDB@SYSENC_HIDDEN_OS_WIPE_INFO_TITLE@ ; `string'
PUBLIC	??_C@_0BL@KAEKPGLE@SYSENC_HIDDEN_OS_WIPE_INFO?$AA@ ; `string'
PUBLIC	??_C@_0P@JJNKBKFB@WIPE_MODE_INFO?$AA@		; `string'
PUBLIC	??_C@_0CA@NHNKCAEG@DEVICE_WIPE_PAGE_INFO_HIDDEN_OS?$AA@ ; `string'
PUBLIC	??_C@_0BG@OABGGIFL@DEVICE_WIPE_PAGE_INFO?$AA@	; `string'
PUBLIC	??_C@_0BH@IEGJMJEM@DEVICE_WIPE_PAGE_TITLE?$AA@	; `string'
PUBLIC	??_C@_04LEEAJJHO@WIPE?$AA@			; `string'
PUBLIC	??_C@_15OJKDPEFE@?$AA?5?$AA?5?$AA?$AA@		; `string'
PUBLIC	??_C@_0CK@NCJGAECA@http?3?1?1www?4gostcrypt?4org?1redirec@ ; `string'
PUBLIC	??_C@_0CN@EDGNFMHB@FILESYS_PAGE_HELP_EXPLANATION_HI@ ; `string'
PUBLIC	??_C@_0N@LNDFLMFM@FORMAT_ABORT?$AA@		; `string'
PUBLIC	??_C@_0CE@BFLBCKJG@http?3?1?1www?4ietf?4org?1rfc?1rfc5830?4@ ; `string'
PUBLIC	??_C@_0CK@PHDAOPJF@KEYFILES_NOT_SUPPORTED_FOR_SYS_E@ ; `string'
PUBLIC	??_C@_0L@GHEOANHD@OPEN_TITLE?$AA@		; `string'
PUBLIC	??_C@_06OACPEFAM@Floppy?$AA@			; `string'
PUBLIC	??_C@_0CG@FCGANOF@ALGO_NOT_SUPPORTED_FOR_SYS_ENCRY@ ; `string'
PUBLIC	??_C@_0BE@NLHJLKOB@CONFIRM_SPARSE_FILE?$AA@	; `string'
PUBLIC	??_C@_0BC@LJAPGPK@WARN_QUICK_FORMAT?$AA@	; `string'
PUBLIC	??_C@_0EP@HCFFCIHD@?5?5?5?5?5?5?5?5?5?5?5?5?5?5?5?5?5?5?5?5?5?5?5?5?5?5?5?5?5?5?5?5@ ; `string'
PUBLIC	??_C@_0BD@EJEDNFIG@CONFIRM_WIPE_ABORT?$AA@	; `string'
PUBLIC	??_C@_0BJ@CCHDLBFE@GST_INSTALLER_IS_RUNNING?$AA@ ; `string'
PUBLIC	??_C@_0BL@JMGGGIDG@?2GostCrypt?5Rescue?5Disk?4iso?$AA@ ; `string'
PUBLIC	??_C@_04JFFKLGJF@?$CF02X?$AA@			; `string'
PUBLIC	??_R0?AUSystemException@GostCrypt@@@8		; GostCrypt::SystemException `RTTI Type Descriptor'
PUBLIC	??_C@_0BK@ELCHMCAJ@ENABLE_BAD_SECTOR_ZEROING?$AA@ ; `string'
PUBLIC	??_C@_0CF@BKMHLPHL@DISCARD_UNREADABLE_ENCRYPTED_SEC@ ; `string'
PUBLIC	??_C@_0BL@LJPGNBNM@SYSTEM_ENCRYPTION_FINISHED?$AA@ ; `string'
PUBLIC	??_C@_0BL@HGGGHBLG@SYSTEM_DECRYPTION_FINISHED?$AA@ ; `string'
PUBLIC	??_C@_0BA@ICICKJJH@CONFIRM_RESTART?$AA@		; `string'
PUBLIC	??_C@_0BN@MNCKOJDH@KEYB_LAYOUT_CHANGE_PREVENTED?$AA@ ; `string'
PUBLIC	??_C@_0CA@HGCGAMEK@KEYB_LAYOUT_SYS_ENC_EXPLANATION?$AA@ ; `string'
PUBLIC	??_C@_0CF@OEJEFNLJ@ALT_KEY_CHARS_NOT_FOR_SYS_ENCRYP@ ; `string'
PUBLIC	??_C@_0BN@KCOCCGGE@SYS_DRIVE_SIZE_PROBE_TIMEOUT?$AA@ ; `string'
PUBLIC	??_C@_0CF@JGIFKPLM@WIPE_FINISHED_DECOY_SYSTEM_PARTI@ ; `string'
PUBLIC	??_C@_0BJ@EAMLJMAO@DECOY_OS_VERSION_WARNING?$AA@ ; `string'
PUBLIC	??_C@_0CB@MEPMKNNG@NONSYS_INPLACE_ENC_DEFER_CONFIRM@ ; `string'
PUBLIC	??_C@_0CA@MDOAMJOP@SYSTEM_DECRYPTION_DEFER_CONFIRM?$AA@ ; `string'
PUBLIC	??_C@_0CA@OMHIMMHH@SYSTEM_ENCRYPTION_DEFER_CONFIRM?$AA@ ; `string'
PUBLIC	??_C@_0CC@KDAJHHMG@CONFIRM_CANCEL_HIDDEN_OS_CREATIO@ ; `string'
PUBLIC	??_C@_0BP@IFOLEKLB@CONFIRM_CANCEL_SYS_ENC_PRETEST?$AA@ ; `string'
PUBLIC	??_C@_0BH@KAHGPAJO@CONFIRM_EXIT_UNIVERSAL?$AA@	; `string'
PUBLIC	??_C@_0BI@BGKLALIE@CONTAINER_ADMIN_WARNING?$AA@	; `string'
PUBLIC	??_C@_0CI@HFDNHKMM@GAP_BETWEEN_SYS_AND_HIDDEN_OS_PA@ ; `string'
PUBLIC	??_C@_0BL@IDNPDOGL@DECOY_OS_REINSTALL_WARNING?$AA@ ; `string'
PUBLIC	??_C@_0CH@OILEALFF@HIDDEN_OS_WRITE_PROTECTION_EXPLA@ ; `string'
PUBLIC	??_C@_0CG@LFCLDECM@HIDDEN_OS_WRITE_PROTECTION_BRIEF@ ; `string'
PUBLIC	??_C@_02COKGDMEE@?1r?$AA@			; `string'
PUBLIC	??_C@_0BN@EDCHAEND@MULTI_BOOT_FOR_ADVANCED_ONLY?$AA@ ; `string'
PUBLIC	??_C@_0BF@OEFLIJFC@HIDDEN_OS_MULTI_BOOT?$AA@	; `string'
PUBLIC	??_C@_0CF@PJBIBHBE@UNSUPPORTED_HIDDEN_OS_MULTI_BOOT@ ; `string'
PUBLIC	??_C@_0CH@PDMBGJBN@CONFIRM_HIDDEN_OS_EXTRA_BOOT_PAR@ ; `string'
PUBLIC	??_C@_0BG@HEENEHGK@DECOY_OS_REQUIREMENTS?$AA@	; `string'
PUBLIC	??_C@_0CE@BLBEBHP@SYS_PARTITION_MUST_BE_ON_BOOT_DR@ ; `string'
PUBLIC	??_C@_0DC@EAFFGLI@WDE_UNSUPPORTED_FOR_MULTIPLE_SYS@ ; `string'
PUBLIC	??_C@_0CI@KANLNDNO@CUSTOM_BOOT_MANAGERS_IN_MBR_UNSU@ ; `string'
PUBLIC	??_C@_0BK@EHEECKKC@WINDOWS_BOOT_LOADER_HINTS?$AA@ ; `string'
PUBLIC	??_C@_0BN@DOPCDKC@ADMIN_PRIVILEGES_WARN_HIDVOL?$AA@ ; `string'
PUBLIC	??_C@_0CK@NNPIGIED@HIDDEN_VOL_CREATION_UNDER_HIDDEN@ ; `string'
PUBLIC	??_C@_0CD@DKKKPMLO@DEVICE_SELECTED_IN_NON_DEVICE_MO@ ; `string'
PUBLIC	??_C@_0BA@ECFGGOBI@ALREADY_MOUNTED?$AA@		; `string'
PUBLIC	??_C@_0BP@NCOMIFAB@CONFIRM_SYSTEM_ENCRYPTION_MODE?$AA@ ; `string'
PUBLIC	??_C@_0BL@LHDMMKJO@EXE_FILE_EXTENSION_CONFIRM?$AA@ ; `string'
PUBLIC	??_C@_0BH@BGCKDFKI@HIDDEN_VOL_HOST_SPARSE?$AA@	; `string'
PUBLIC	??_C@_0CC@NCAFIIDC@NONSYS_INPLACE_ENC_CONFIRM_BACKU@ ; `string'
PUBLIC	??_C@_0CD@HEIAMGDN@CONFIRM_CASCADE_FOR_SYS_ENCRYPTI@ ; `string'
PUBLIC	??_C@_0CA@HENDJLLF@NOTE_CASCADE_FOR_SYS_ENCRYPTION?$AA@ ; `string'
PUBLIC	??_C@_05HNJNFBJJ@FAT32?$AA@			; `string'
PUBLIC	??_C@_0BL@FEGMEEPN@VOLUME_TOO_LARGE_FOR_FAT32?$AA@ ; `string'
PUBLIC	??_C@_0BL@IAHLEEBN@VOLUME_TOO_LARGE_FOR_WINXP?$AA@ ; `string'
PUBLIC	??_C@_0CH@NJLIGNCF@FREE_SPACE_FOR_WRITING_TO_OUTER_@ ; `string'
PUBLIC	??_C@_0BJ@CPHEENHA@UNSUPPORTED_CHARS_IN_PWD?$AA@ ; `string'
PUBLIC	??_C@_0BP@BGCHIACG@CANNOT_RESTORE_KEYBOARD_LAYOUT?$AA@ ; `string'
PUBLIC	??_C@_0BI@GNHKCMLM@CANT_DISMOUNT_OUTER_VOL?$AA@	; `string'
PUBLIC	??_C@_0CK@DBNLNPHP@FOUND_NO_PARTITION_W_DEFERRED_IN@ ; `string'
PUBLIC	??_C@_0DG@KNHACFHE@CANNOT_CREATE_NON_HIDDEN_NTFS_VO@ ; `string'
PUBLIC	??_C@_0CF@HFPIFBIF@CANNOT_SATISFY_OVER_4G_FILE_SIZE@ ; `string'
PUBLIC	??_C@_0BG@GLKAIFEA@CD_BURNER_NOT_PRESENT?$AA@	; `string'
PUBLIC	??_C@_0CF@OBJIPJKN@CD_BURNER_NOT_PRESENT_WILL_STORE@ ; `string'
PUBLIC	??_C@_0CJ@FCOKHALJ@CD_BURNER_NOT_PRESENT_WILL_CONNE@ ; `string'
PUBLIC	??_C@_0CE@FEAJEJEJ@CD_BURNER_NOT_PRESENT_CONNECTED_@ ; `string'
PUBLIC	??_C@_0CK@BHLKCEED@CD_BURNER_NOT_PRESENT_WILL_STORE@ ; `string'
PUBLIC	??_C@_0BP@EJPBDEFG@RESCUE_DISK_BURN_NO_CHECK_WARN?$AA@ ; `string'
PUBLIC	??_C@_0CH@GAGHEKIC@RESCUE_DISK_WIN_ISOBURN_PRELAUNC@ ; `string'
PUBLIC	??_C@_0CL@LCMPFPDG@RESCUE_DISK_CHECK_FAILED_SENTENC@ ; `string'
PUBLIC	??_C@_0BJ@KDGMPLJF@RESCUE_DISK_CHECK_FAILED?$AA@ ; `string'
PUBLIC	??_C@_0P@BMFNBJAJ@WIPE_MODE_WARN?$AA@		; `string'
PUBLIC	??_C@_0BG@DGIFCGMK@PREBOOT_NOT_LOCALIZED?$AA@	; `string'
PUBLIC	??_C@_0CD@DFDNFFMK@CANNOT_INITIATE_HIDDEN_OS_CREATI@ ; `string'
PUBLIC	??_C@_0CH@MGEMKCIE@CANNOT_INITIATE_SYS_ENCRYPTION_P@ ; `string'
PUBLIC	??_C@_09PIOBCILE@?1acsysenc?$AA@		; `string'
PUBLIC	??_C@_0BN@EFIGHBDJ@OFFER_FAT_FORMAT_ALTERNATIVE?$AA@ ; `string'
PUBLIC	??_C@_0CG@HAPBHPDC@FAT_NOT_AVAILABLE_FOR_SO_LARGE_V@ ; `string'
PUBLIC	??_C@_0CK@PNCJJOHK@OUTER_VOLUME_TOO_SMALL_FOR_HIDDE@ ; `string'
PUBLIC	??_C@_0CM@PCAIDDLK@HIDDEN_VOL_HOST_UNSUPPORTED_FILE@ ; `string'
PUBLIC	??_C@_0BJ@NALGNOGO@HIDDEN_VOL_HOST_NTFS_ASK?$AA@ ; `string'
PUBLIC	??_C@_0BP@NLBJKNFD@CONFIRM_FAT_FOR_FILES_OVER_4GB?$AA@ ; `string'
PUBLIC	??_C@_0BC@DADPIOMM@CLUSTER_TOO_SMALL?$AA@	; `string'
PUBLIC	??_C@_0BD@NGECJJAH@FORMAT_IN_PROGRESS?$AA@	; `string'
PUBLIC	??_C@_0CH@LLDBJBEP@CONFIRM_WIPE_START_DECOY_SYS_PAR@ ; `string'
PUBLIC	??_C@_0BD@ICCGDAH@CONFIRM_WIPE_START?$AA@	; `string'
PUBLIC	??_C@_0L@JGIDNNFC@?9Embedding?$AA@		; `string'
PUBLIC	??_C@_08BCLHLEKP@?1history?$AA@			; `string'
PUBLIC	??_C@_02JOILMGJP@?1h?$AA@			; `string'
PUBLIC	??_C@_0M@IEGCIDAG@?1noisocheck?$AA@		; `string'
PUBLIC	??_C@_02MINBGBBJ@?1n?$AA@			; `string'
PUBLIC	??_C@_05CMMBDMDD@?1quit?$AA@			; `string'
PUBLIC	??_C@_02FILGPIH@?1q?$AA@			; `string'
PUBLIC	??_C@_09JABABBPB@?1tokenlib?$AA@		; `string'
PUBLIC	??_C@_02EPEJHNNG@?1a?$AA@			; `string'
PUBLIC	??_C@_08FFGENEKE@?1csysenc?$AA@			; `string'
PUBLIC	??_C@_02HNHPBPFE@?1c?$AA@			; `string'
PUBLIC	??_C@_08FPKBNNLN@?1dsysenc?$AA@			; `string'
PUBLIC	??_C@_02DCDOIJJD@?1d?$AA@			; `string'
PUBLIC	??_C@_07MFEOHHG@?1encdev?$AA@			; `string'
PUBLIC	??_C@_08MEKEMIGM@?1isysenc?$AA@			; `string'
PUBLIC	??_C@_02IHJAPHNO@?1i?$AA@			; `string'
PUBLIC	??_C@_0L@DLEMDKJB@?1prinplace?$AA@		; `string'
PUBLIC	??_C@_02BMJAFOMG@?1p?$AA@			; `string'
PUBLIC	??_C@_09PMGMEKMI@?1risysenc?$AA@		; `string'
PUBLIC	??_C@_07PFDFIFLD@?1sysenc?$AA@			; `string'
PUBLIC	??_C@_02DHLNANAF@?1s?$AA@			; `string'
PUBLIC	??_C@_02OGHPLGEM@?1z?$AA@			; `string'
PUBLIC	??_C@_01EANLCPLP@y?$AA@				; `string'
PUBLIC	??_C@_03ICICOMAL@yes?$AA@			; `string'
PUBLIC	??_C@_01EFFIKLCJ@n?$AA@				; `string'
PUBLIC	??_C@_02KAJCLHKP@no?$AA@			; `string'
PUBLIC	??_C@_0BD@LGCKNJIO@COMMAND_LINE_ERROR?$AA@	; `string'
PUBLIC	??_C@_0BI@EIHCDBCC@NO_SPACE_FOR_HIDDEN_VOL?$AA@	; `string'
PUBLIC	??_C@_0BG@EDMDLNEK@CANT_ACCESS_OUTER_VOL?$AA@	; `string'
PUBLIC	??_C@_0BD@GJIBONDI@ERR_VOL_FORMAT_BAD?$AA@	; `string'
PUBLIC	??_C@_0BN@PEDIFLNF@ERR_HIDDEN_NOT_NORMAL_VOLUME?$AA@ ; `string'
PUBLIC	??_C@_0CG@DBCOIOLF@ERR_HIDDEN_VOL_HOST_ENCRYPTED_IN@ ; `string'
PUBLIC	??_C@_0BF@GKHHEFAE@HIDDEN_VOL_HOST_NTFS?$AA@	; `string'
PUBLIC	??_C@_0BI@JLECLIC@CANT_GET_OUTER_VOL_INFO?$AA@	; `string'
PUBLIC	??_C@_0CE@PMECNFFM@HIDDEN_VOL_HOST_UNSUPPORTED_FILE@ ; `string'
PUBLIC	??_C@_0BG@BIDCCDPC@MountVolumesRemovable?$AA@	; `string'
PUBLIC	??_C@_0BI@IEBIBFIL@CANT_GET_CLUSTER_BITMAP?$AA@	; `string'
PUBLIC	??_C@_0CE@GLPLHHCP@AfterSysEncProgressWMInitTasks?39@ ; `string'
PUBLIC	??_C@_0BJ@KGJBOMKO@CANNOT_DECRYPT_HIDDEN_OS?$AA@ ; `string'
PUBLIC	??_C@_0BG@JNPKODLF@AfterWMInitTasks?39116?$AA@	; `string'
PUBLIC	??_C@_0CL@LHNBFDMB@SYSTEM_ENCRYPTION_SCHEDULED_BUT_@ ; `string'
PUBLIC	??_C@_0BC@BOICFCMD@NOTHING_TO_RESUME?$AA@	; `string'
PUBLIC	??_C@_0CP@MHIMBFBH@SYS_PARTITION_OR_DRIVE_APPEARS_F@ ; `string'
PUBLIC	??_C@_0BG@BOBNFKFK@AfterWMInitTasks?39288?$AA@	; `string'
PUBLIC	??_C@_0BG@BEIDFAO@AfterWMInitTasks?39374?$AA@	; `string'
PUBLIC	??_C@_0BK@DFBAAIPH@BOOT_PRETEST_FAILED_RETRY?$AA@ ; `string'
PUBLIC	??_C@_0BL@BAAJMEPI@OS_WIPING_NOT_FINISHED_ASK?$AA@ ; `string'
PUBLIC	??_C@_0CE@BLKNBIFF@HIDDEN_OS_CREATION_NOT_FINISHED_@ ; `string'
PUBLIC	??_C@_0CN@NFNCFNOG@HIDDEN_OS_CREATION_NOT_FINISHED_@ ; `string'
PUBLIC	??_C@_0DB@KJCGFBOB@HIDDEN_OS_CREATION_NOT_FINISHED_@ ; `string'
PUBLIC	??_C@_0DB@IJPDGLEP@HIDDEN_OS_CREATION_NOT_FINISHED_@ ; `string'
PUBLIC	??_C@_0BG@JEMCACBK@AfterWMInitTasks?39509?$AA@	; `string'
PUBLIC	??_C@_0N@PDPHKHCO@INIT_SYS_ENC?$AA@		; `string'
PUBLIC	??_C@_09PLHAEEAO@INIT_RAND?$AA@			; `string'
PUBLIC	??_C@_08ELEAABKI@NODRIVER?$AA@			; `string'
PUBLIC	??_C@_0BG@DKEEGIEL@ERR_SELF_TESTS_FAILED?$AA@	; `string'
PUBLIC	?id@?$num_put@_WV?$ostreambuf_iterator@_WU?$char_traits@_W@std@@@std@@@std@@2V0locale@2@A ; std::num_put<wchar_t,std::ostreambuf_iterator<wchar_t,std::char_traits<wchar_t> > >::id
PUBLIC	??_7?$num_put@_WV?$ostreambuf_iterator@_WU?$char_traits@_W@std@@@std@@@std@@6B@ ; std::num_put<wchar_t,std::ostreambuf_iterator<wchar_t,std::char_traits<wchar_t> > >::`vftable'
PUBLIC	??_C@_02BBAHNLBA@?$CFp?$AA@			; `string'
PUBLIC	??_C@_02CLHGNPPK@Lu?$AA@			; `string'
PUBLIC	??_C@_02HIKPPMOK@Ld?$AA@			; `string'
PUBLIC	??_C@_02BDDLJJBK@lu?$AA@			; `string'
PUBLIC	??_C@_02EAOCLKAK@ld?$AA@			; `string'
PUBLIC	?id@?$numpunct@_W@std@@2V0locale@2@A		; std::numpunct<wchar_t>::id
PUBLIC	??_7?$numpunct@_W@std@@6B@			; std::numpunct<wchar_t>::`vftable'
PUBLIC	??_C@_02MDKMJEGG@eE?$AA@			; `string'
PUBLIC	??_C@_02OOPEBDOJ@pP?$AA@			; `string'
PUBLIC	??_C@_01LFCBOECM@?4?$AA@			; `string'
PUBLIC	??_C@_0BD@OLBABOEK@vector?$DMT?$DO?5too?5long?$AA@ ; `string'
PUBLIC	??_C@_0BA@JFNIOLAK@string?5too?5long?$AA@	; `string'
PUBLIC	??_C@_0BI@CFPLBAOH@invalid?5string?5position?$AA@ ; `string'
PUBLIC	__TI2?AVbad_cast@std@@
PUBLIC	__CTA2?AVbad_cast@std@@
PUBLIC	??_R0?AVbad_cast@std@@@8			; std::bad_cast `RTTI Type Descriptor'
PUBLIC	__CT??_R0?AVbad_cast@std@@@8??0bad_cast@std@@QAE@ABV01@@Z12
PUBLIC	?_Static@?1???$_Immortalize@V_Iostream_error_category@std@@@std@@YAAAV_Iostream_error_category@1@XZ@4U?$_Immortalizer@V_Iostream_error_category@std@@@1@A ; `std::_Immortalize<std::_Iostream_error_category>'::`2'::_Static
PUBLIC	?$TSS0@?1???$_Immortalize@V_Iostream_error_category@std@@@std@@YAAAV_Iostream_error_category@1@XZ@4HA ; TSS0<`template-parameter-2',unsigned int,std::V_Iostream_error_category::mortalize>
PUBLIC	?_Psave@?$_Facetptr@V?$num_put@_WV?$ostreambuf_iterator@_WU?$char_traits@_W@std@@@std@@@std@@@std@@2PBVfacet@locale@2@B ; std::_Facetptr<std::num_put<wchar_t,std::ostreambuf_iterator<wchar_t,std::char_traits<wchar_t> > > >::_Psave
PUBLIC	?_Psave@?$_Facetptr@V?$numpunct@_W@std@@@std@@2PBVfacet@locale@2@B ; std::_Facetptr<std::numpunct<wchar_t> >::_Psave
PUBLIC	?_Psave@?$_Facetptr@V?$ctype@_W@std@@@std@@2PBVfacet@locale@2@B ; std::_Facetptr<std::ctype<wchar_t> >::_Psave
PUBLIC	??_R4exception@std@@6B@				; std::exception::`RTTI Complete Object Locator'
PUBLIC	??_R3exception@std@@8				; std::exception::`RTTI Class Hierarchy Descriptor'
PUBLIC	??_R2exception@std@@8				; std::exception::`RTTI Base Class Array'
PUBLIC	??_R1A@?0A@EA@exception@std@@8			; std::exception::`RTTI Base Class Descriptor at (0,-1,0,64)'
PUBLIC	??_R4ios_base@std@@6B@				; std::ios_base::`RTTI Complete Object Locator'
PUBLIC	??_R0?AVios_base@std@@@8			; std::ios_base `RTTI Type Descriptor'
PUBLIC	??_R3ios_base@std@@8				; std::ios_base::`RTTI Class Hierarchy Descriptor'
PUBLIC	??_R2ios_base@std@@8				; std::ios_base::`RTTI Base Class Array'
PUBLIC	??_R1A@?0A@EA@ios_base@std@@8			; std::ios_base::`RTTI Base Class Descriptor at (0,-1,0,64)'
PUBLIC	??_R17?0A@EA@?$_Iosb@H@std@@8			; std::_Iosb<int>::`RTTI Base Class Descriptor at (8,-1,0,64)'
PUBLIC	??_R0?AV?$_Iosb@H@std@@@8			; std::_Iosb<int> `RTTI Type Descriptor'
PUBLIC	??_R3?$_Iosb@H@std@@8				; std::_Iosb<int>::`RTTI Class Hierarchy Descriptor'
PUBLIC	??_R2?$_Iosb@H@std@@8				; std::_Iosb<int>::`RTTI Base Class Array'
PUBLIC	??_R1A@?0A@EA@?$_Iosb@H@std@@8			; std::_Iosb<int>::`RTTI Base Class Descriptor at (0,-1,0,64)'
PUBLIC	??_R4?$basic_ios@_WU?$char_traits@_W@std@@@std@@6B@ ; std::basic_ios<wchar_t,std::char_traits<wchar_t> >::`RTTI Complete Object Locator'
PUBLIC	??_R0?AV?$basic_ios@_WU?$char_traits@_W@std@@@std@@@8 ; std::basic_ios<wchar_t,std::char_traits<wchar_t> > `RTTI Type Descriptor'
PUBLIC	??_R3?$basic_ios@_WU?$char_traits@_W@std@@@std@@8 ; std::basic_ios<wchar_t,std::char_traits<wchar_t> >::`RTTI Class Hierarchy Descriptor'
PUBLIC	??_R2?$basic_ios@_WU?$char_traits@_W@std@@@std@@8 ; std::basic_ios<wchar_t,std::char_traits<wchar_t> >::`RTTI Base Class Array'
PUBLIC	??_R1A@?0A@EA@?$basic_ios@_WU?$char_traits@_W@std@@@std@@8 ; std::basic_ios<wchar_t,std::char_traits<wchar_t> >::`RTTI Base Class Descriptor at (0,-1,0,64)'
PUBLIC	??_R4?$basic_streambuf@_WU?$char_traits@_W@std@@@std@@6B@ ; std::basic_streambuf<wchar_t,std::char_traits<wchar_t> >::`RTTI Complete Object Locator'
PUBLIC	??_R0?AV?$basic_streambuf@_WU?$char_traits@_W@std@@@std@@@8 ; std::basic_streambuf<wchar_t,std::char_traits<wchar_t> > `RTTI Type Descriptor'
PUBLIC	??_R3?$basic_streambuf@_WU?$char_traits@_W@std@@@std@@8 ; std::basic_streambuf<wchar_t,std::char_traits<wchar_t> >::`RTTI Class Hierarchy Descriptor'
PUBLIC	??_R2?$basic_streambuf@_WU?$char_traits@_W@std@@@std@@8 ; std::basic_streambuf<wchar_t,std::char_traits<wchar_t> >::`RTTI Base Class Array'
PUBLIC	??_R1A@?0A@EA@?$basic_streambuf@_WU?$char_traits@_W@std@@@std@@8 ; std::basic_streambuf<wchar_t,std::char_traits<wchar_t> >::`RTTI Base Class Descriptor at (0,-1,0,64)'
PUBLIC	??_R4?$basic_istream@_WU?$char_traits@_W@std@@@std@@6B@ ; std::basic_istream<wchar_t,std::char_traits<wchar_t> >::`RTTI Complete Object Locator'
PUBLIC	??_R0?AV?$basic_istream@_WU?$char_traits@_W@std@@@std@@@8 ; std::basic_istream<wchar_t,std::char_traits<wchar_t> > `RTTI Type Descriptor'
PUBLIC	??_R3?$basic_istream@_WU?$char_traits@_W@std@@@std@@8 ; std::basic_istream<wchar_t,std::char_traits<wchar_t> >::`RTTI Class Hierarchy Descriptor'
PUBLIC	??_R2?$basic_istream@_WU?$char_traits@_W@std@@@std@@8 ; std::basic_istream<wchar_t,std::char_traits<wchar_t> >::`RTTI Base Class Array'
PUBLIC	??_R1A@?0A@EA@?$basic_istream@_WU?$char_traits@_W@std@@@std@@8 ; std::basic_istream<wchar_t,std::char_traits<wchar_t> >::`RTTI Base Class Descriptor at (0,-1,0,64)'
PUBLIC	??_R1A@A@3FA@?$basic_ios@_WU?$char_traits@_W@std@@@std@@8 ; std::basic_ios<wchar_t,std::char_traits<wchar_t> >::`RTTI Base Class Descriptor at (0,0,4,80)'
PUBLIC	??_R1A@A@3EA@ios_base@std@@8			; std::ios_base::`RTTI Base Class Descriptor at (0,0,4,64)'
PUBLIC	??_R17A@3EA@?$_Iosb@H@std@@8			; std::_Iosb<int>::`RTTI Base Class Descriptor at (8,0,4,64)'
PUBLIC	??_R4?$basic_ostream@_WU?$char_traits@_W@std@@@std@@6B@ ; std::basic_ostream<wchar_t,std::char_traits<wchar_t> >::`RTTI Complete Object Locator'
PUBLIC	??_R0?AV?$basic_ostream@_WU?$char_traits@_W@std@@@std@@@8 ; std::basic_ostream<wchar_t,std::char_traits<wchar_t> > `RTTI Type Descriptor'
PUBLIC	??_R3?$basic_ostream@_WU?$char_traits@_W@std@@@std@@8 ; std::basic_ostream<wchar_t,std::char_traits<wchar_t> >::`RTTI Class Hierarchy Descriptor'
PUBLIC	??_R2?$basic_ostream@_WU?$char_traits@_W@std@@@std@@8 ; std::basic_ostream<wchar_t,std::char_traits<wchar_t> >::`RTTI Base Class Array'
PUBLIC	??_R1A@?0A@EA@?$basic_ostream@_WU?$char_traits@_W@std@@@std@@8 ; std::basic_ostream<wchar_t,std::char_traits<wchar_t> >::`RTTI Base Class Descriptor at (0,-1,0,64)'
PUBLIC	??_R4?$basic_iostream@_WU?$char_traits@_W@std@@@std@@6B@ ; std::basic_iostream<wchar_t,std::char_traits<wchar_t> >::`RTTI Complete Object Locator'
PUBLIC	??_R0?AV?$basic_iostream@_WU?$char_traits@_W@std@@@std@@@8 ; std::basic_iostream<wchar_t,std::char_traits<wchar_t> > `RTTI Type Descriptor'
PUBLIC	??_R3?$basic_iostream@_WU?$char_traits@_W@std@@@std@@8 ; std::basic_iostream<wchar_t,std::char_traits<wchar_t> >::`RTTI Class Hierarchy Descriptor'
PUBLIC	??_R2?$basic_iostream@_WU?$char_traits@_W@std@@@std@@8 ; std::basic_iostream<wchar_t,std::char_traits<wchar_t> >::`RTTI Base Class Array'
PUBLIC	??_R1A@?0A@EA@?$basic_iostream@_WU?$char_traits@_W@std@@@std@@8 ; std::basic_iostream<wchar_t,std::char_traits<wchar_t> >::`RTTI Base Class Descriptor at (0,-1,0,64)'
PUBLIC	??_R1BA@?0A@EA@?$basic_ostream@_WU?$char_traits@_W@std@@@std@@8 ; std::basic_ostream<wchar_t,std::char_traits<wchar_t> >::`RTTI Base Class Descriptor at (16,-1,0,64)'
PUBLIC	??_R4?$basic_stringbuf@_WU?$char_traits@_W@std@@V?$allocator@_W@2@@std@@6B@ ; std::basic_stringbuf<wchar_t,std::char_traits<wchar_t>,std::allocator<wchar_t> >::`RTTI Complete Object Locator'
PUBLIC	??_R0?AV?$basic_stringbuf@_WU?$char_traits@_W@std@@V?$allocator@_W@2@@std@@@8 ; std::basic_stringbuf<wchar_t,std::char_traits<wchar_t>,std::allocator<wchar_t> > `RTTI Type Descriptor'
PUBLIC	??_R3?$basic_stringbuf@_WU?$char_traits@_W@std@@V?$allocator@_W@2@@std@@8 ; std::basic_stringbuf<wchar_t,std::char_traits<wchar_t>,std::allocator<wchar_t> >::`RTTI Class Hierarchy Descriptor'
PUBLIC	??_R2?$basic_stringbuf@_WU?$char_traits@_W@std@@V?$allocator@_W@2@@std@@8 ; std::basic_stringbuf<wchar_t,std::char_traits<wchar_t>,std::allocator<wchar_t> >::`RTTI Base Class Array'
PUBLIC	??_R1A@?0A@EA@?$basic_stringbuf@_WU?$char_traits@_W@std@@V?$allocator@_W@2@@std@@8 ; std::basic_stringbuf<wchar_t,std::char_traits<wchar_t>,std::allocator<wchar_t> >::`RTTI Base Class Descriptor at (0,-1,0,64)'
PUBLIC	??_R4?$basic_stringstream@_WU?$char_traits@_W@std@@V?$allocator@_W@2@@std@@6B@ ; std::basic_stringstream<wchar_t,std::char_traits<wchar_t>,std::allocator<wchar_t> >::`RTTI Complete Object Locator'
PUBLIC	??_R0?AV?$basic_stringstream@_WU?$char_traits@_W@std@@V?$allocator@_W@2@@std@@@8 ; std::basic_stringstream<wchar_t,std::char_traits<wchar_t>,std::allocator<wchar_t> > `RTTI Type Descriptor'
PUBLIC	??_R3?$basic_stringstream@_WU?$char_traits@_W@std@@V?$allocator@_W@2@@std@@8 ; std::basic_stringstream<wchar_t,std::char_traits<wchar_t>,std::allocator<wchar_t> >::`RTTI Class Hierarchy Descriptor'
PUBLIC	??_R2?$basic_stringstream@_WU?$char_traits@_W@std@@V?$allocator@_W@2@@std@@8 ; std::basic_stringstream<wchar_t,std::char_traits<wchar_t>,std::allocator<wchar_t> >::`RTTI Base Class Array'
PUBLIC	??_R1A@?0A@EA@?$basic_stringstream@_WU?$char_traits@_W@std@@V?$allocator@_W@2@@std@@8 ; std::basic_stringstream<wchar_t,std::char_traits<wchar_t>,std::allocator<wchar_t> >::`RTTI Base Class Descriptor at (0,-1,0,64)'
PUBLIC	??_R4runtime_error@std@@6B@			; std::runtime_error::`RTTI Complete Object Locator'
PUBLIC	??_R3runtime_error@std@@8			; std::runtime_error::`RTTI Class Hierarchy Descriptor'
PUBLIC	??_R2runtime_error@std@@8			; std::runtime_error::`RTTI Base Class Array'
PUBLIC	??_R1A@?0A@EA@runtime_error@std@@8		; std::runtime_error::`RTTI Base Class Descriptor at (0,-1,0,64)'
PUBLIC	??_R4bad_cast@std@@6B@				; std::bad_cast::`RTTI Complete Object Locator'
PUBLIC	??_R3bad_cast@std@@8				; std::bad_cast::`RTTI Class Hierarchy Descriptor'
PUBLIC	??_R2bad_cast@std@@8				; std::bad_cast::`RTTI Base Class Array'
PUBLIC	??_R1A@?0A@EA@bad_cast@std@@8			; std::bad_cast::`RTTI Base Class Descriptor at (0,-1,0,64)'
PUBLIC	??_R4_Facet_base@std@@6B@			; std::_Facet_base::`RTTI Complete Object Locator'
PUBLIC	??_R0?AV_Facet_base@std@@@8			; std::_Facet_base `RTTI Type Descriptor'
PUBLIC	??_R3_Facet_base@std@@8				; std::_Facet_base::`RTTI Class Hierarchy Descriptor'
PUBLIC	??_R2_Facet_base@std@@8				; std::_Facet_base::`RTTI Base Class Array'
PUBLIC	??_R1A@?0A@EA@_Facet_base@std@@8		; std::_Facet_base::`RTTI Base Class Descriptor at (0,-1,0,64)'
PUBLIC	??_R1A@?0A@EA@facet@locale@std@@8		; std::locale::facet::`RTTI Base Class Descriptor at (0,-1,0,64)'
PUBLIC	??_R0?AVfacet@locale@std@@@8			; std::locale::facet `RTTI Type Descriptor'
PUBLIC	??_R3facet@locale@std@@8			; std::locale::facet::`RTTI Class Hierarchy Descriptor'
PUBLIC	??_R2facet@locale@std@@8			; std::locale::facet::`RTTI Base Class Array'
PUBLIC	??_R13?0A@EA@_Crt_new_delete@std@@8		; std::_Crt_new_delete::`RTTI Base Class Descriptor at (4,-1,0,64)'
PUBLIC	??_R0?AU_Crt_new_delete@std@@@8			; std::_Crt_new_delete `RTTI Type Descriptor'
PUBLIC	??_R3_Crt_new_delete@std@@8			; std::_Crt_new_delete::`RTTI Class Hierarchy Descriptor'
PUBLIC	??_R2_Crt_new_delete@std@@8			; std::_Crt_new_delete::`RTTI Base Class Array'
PUBLIC	??_R1A@?0A@EA@_Crt_new_delete@std@@8		; std::_Crt_new_delete::`RTTI Base Class Descriptor at (0,-1,0,64)'
PUBLIC	??_R4facet@locale@std@@6B@			; std::locale::facet::`RTTI Complete Object Locator'
PUBLIC	??_R4ctype_base@std@@6B@			; std::ctype_base::`RTTI Complete Object Locator'
PUBLIC	??_R0?AUctype_base@std@@@8			; std::ctype_base `RTTI Type Descriptor'
PUBLIC	??_R3ctype_base@std@@8				; std::ctype_base::`RTTI Class Hierarchy Descriptor'
PUBLIC	??_R2ctype_base@std@@8				; std::ctype_base::`RTTI Base Class Array'
PUBLIC	??_R1A@?0A@EA@ctype_base@std@@8			; std::ctype_base::`RTTI Base Class Descriptor at (0,-1,0,64)'
PUBLIC	??_R4?$ctype@_W@std@@6B@			; std::ctype<wchar_t>::`RTTI Complete Object Locator'
PUBLIC	??_R0?AV?$ctype@_W@std@@@8			; std::ctype<wchar_t> `RTTI Type Descriptor'
PUBLIC	??_R3?$ctype@_W@std@@8				; std::ctype<wchar_t>::`RTTI Class Hierarchy Descriptor'
PUBLIC	??_R2?$ctype@_W@std@@8				; std::ctype<wchar_t>::`RTTI Base Class Array'
PUBLIC	??_R1A@?0A@EA@?$ctype@_W@std@@8			; std::ctype<wchar_t>::`RTTI Base Class Descriptor at (0,-1,0,64)'
PUBLIC	??_R4error_category@std@@6B@			; std::error_category::`RTTI Complete Object Locator'
PUBLIC	??_R0?AVerror_category@std@@@8			; std::error_category `RTTI Type Descriptor'
PUBLIC	??_R3error_category@std@@8			; std::error_category::`RTTI Class Hierarchy Descriptor'
PUBLIC	??_R2error_category@std@@8			; std::error_category::`RTTI Base Class Array'
PUBLIC	??_R1A@?0A@EA@error_category@std@@8		; std::error_category::`RTTI Base Class Descriptor at (0,-1,0,64)'
PUBLIC	??_R4_System_error@std@@6B@			; std::_System_error::`RTTI Complete Object Locator'
PUBLIC	??_R3_System_error@std@@8			; std::_System_error::`RTTI Class Hierarchy Descriptor'
PUBLIC	??_R2_System_error@std@@8			; std::_System_error::`RTTI Base Class Array'
PUBLIC	??_R1A@?0A@EA@_System_error@std@@8		; std::_System_error::`RTTI Base Class Descriptor at (0,-1,0,64)'
PUBLIC	??_R4system_error@std@@6B@			; std::system_error::`RTTI Complete Object Locator'
PUBLIC	??_R3system_error@std@@8			; std::system_error::`RTTI Class Hierarchy Descriptor'
PUBLIC	??_R2system_error@std@@8			; std::system_error::`RTTI Base Class Array'
PUBLIC	??_R1A@?0A@EA@system_error@std@@8		; std::system_error::`RTTI Base Class Descriptor at (0,-1,0,64)'
PUBLIC	??_R4_Generic_error_category@std@@6B@		; std::_Generic_error_category::`RTTI Complete Object Locator'
PUBLIC	??_R0?AV_Generic_error_category@std@@@8		; std::_Generic_error_category `RTTI Type Descriptor'
PUBLIC	??_R3_Generic_error_category@std@@8		; std::_Generic_error_category::`RTTI Class Hierarchy Descriptor'
PUBLIC	??_R2_Generic_error_category@std@@8		; std::_Generic_error_category::`RTTI Base Class Array'
PUBLIC	??_R1A@?0A@EA@_Generic_error_category@std@@8	; std::_Generic_error_category::`RTTI Base Class Descriptor at (0,-1,0,64)'
PUBLIC	??_R4_Iostream_error_category@std@@6B@		; std::_Iostream_error_category::`RTTI Complete Object Locator'
PUBLIC	??_R0?AV_Iostream_error_category@std@@@8	; std::_Iostream_error_category `RTTI Type Descriptor'
PUBLIC	??_R3_Iostream_error_category@std@@8		; std::_Iostream_error_category::`RTTI Class Hierarchy Descriptor'
PUBLIC	??_R2_Iostream_error_category@std@@8		; std::_Iostream_error_category::`RTTI Base Class Array'
PUBLIC	??_R1A@?0A@EA@_Iostream_error_category@std@@8	; std::_Iostream_error_category::`RTTI Base Class Descriptor at (0,-1,0,64)'
PUBLIC	??_R4failure@ios_base@std@@6B@			; std::ios_base::failure::`RTTI Complete Object Locator'
PUBLIC	??_R3failure@ios_base@std@@8			; std::ios_base::failure::`RTTI Class Hierarchy Descriptor'
PUBLIC	??_R2failure@ios_base@std@@8			; std::ios_base::failure::`RTTI Base Class Array'
PUBLIC	??_R1A@?0A@EA@failure@ios_base@std@@8		; std::ios_base::failure::`RTTI Base Class Descriptor at (0,-1,0,64)'
PUBLIC	??_R4Container@ForEach@GostCrypt@@6B@		; GostCrypt::ForEach::Container::`RTTI Complete Object Locator'
PUBLIC	??_R0?AUContainer@ForEach@GostCrypt@@@8		; GostCrypt::ForEach::Container `RTTI Type Descriptor'
PUBLIC	??_R3Container@ForEach@GostCrypt@@8		; GostCrypt::ForEach::Container::`RTTI Class Hierarchy Descriptor'
PUBLIC	??_R2Container@ForEach@GostCrypt@@8		; GostCrypt::ForEach::Container::`RTTI Base Class Array'
PUBLIC	??_R1A@?0A@EA@Container@ForEach@GostCrypt@@8	; GostCrypt::ForEach::Container::`RTTI Base Class Descriptor at (0,-1,0,64)'
PUBLIC	??_R4?$ContainerForward@V?$vector@UHostDevice@@V?$allocator@UHostDevice@@@std@@@std@@@ForEach@GostCrypt@@6B@ ; GostCrypt::ForEach::ContainerForward<std::vector<HostDevice,std::allocator<HostDevice> > >::`RTTI Complete Object Locator'
PUBLIC	??_R0?AU?$ContainerForward@V?$vector@UHostDevice@@V?$allocator@UHostDevice@@@std@@@std@@@ForEach@GostCrypt@@@8 ; GostCrypt::ForEach::ContainerForward<std::vector<HostDevice,std::allocator<HostDevice> > > `RTTI Type Descriptor'
PUBLIC	??_R3?$ContainerForward@V?$vector@UHostDevice@@V?$allocator@UHostDevice@@@std@@@std@@@ForEach@GostCrypt@@8 ; GostCrypt::ForEach::ContainerForward<std::vector<HostDevice,std::allocator<HostDevice> > >::`RTTI Class Hierarchy Descriptor'
PUBLIC	??_R2?$ContainerForward@V?$vector@UHostDevice@@V?$allocator@UHostDevice@@@std@@@std@@@ForEach@GostCrypt@@8 ; GostCrypt::ForEach::ContainerForward<std::vector<HostDevice,std::allocator<HostDevice> > >::`RTTI Base Class Array'
PUBLIC	??_R1A@?0A@EA@?$ContainerForward@V?$vector@UHostDevice@@V?$allocator@UHostDevice@@@std@@@std@@@ForEach@GostCrypt@@8 ; GostCrypt::ForEach::ContainerForward<std::vector<HostDevice,std::allocator<HostDevice> > >::`RTTI Base Class Descriptor at (0,-1,0,64)'
PUBLIC	??_R4?$num_put@_WV?$ostreambuf_iterator@_WU?$char_traits@_W@std@@@std@@@std@@6B@ ; std::num_put<wchar_t,std::ostreambuf_iterator<wchar_t,std::char_traits<wchar_t> > >::`RTTI Complete Object Locator'
PUBLIC	??_R0?AV?$num_put@_WV?$ostreambuf_iterator@_WU?$char_traits@_W@std@@@std@@@std@@@8 ; std::num_put<wchar_t,std::ostreambuf_iterator<wchar_t,std::char_traits<wchar_t> > > `RTTI Type Descriptor'
PUBLIC	??_R3?$num_put@_WV?$ostreambuf_iterator@_WU?$char_traits@_W@std@@@std@@@std@@8 ; std::num_put<wchar_t,std::ostreambuf_iterator<wchar_t,std::char_traits<wchar_t> > >::`RTTI Class Hierarchy Descriptor'
PUBLIC	??_R2?$num_put@_WV?$ostreambuf_iterator@_WU?$char_traits@_W@std@@@std@@@std@@8 ; std::num_put<wchar_t,std::ostreambuf_iterator<wchar_t,std::char_traits<wchar_t> > >::`RTTI Base Class Array'
PUBLIC	??_R1A@?0A@EA@?$num_put@_WV?$ostreambuf_iterator@_WU?$char_traits@_W@std@@@std@@@std@@8 ; std::num_put<wchar_t,std::ostreambuf_iterator<wchar_t,std::char_traits<wchar_t> > >::`RTTI Base Class Descriptor at (0,-1,0,64)'
PUBLIC	??_R4?$numpunct@_W@std@@6B@			; std::numpunct<wchar_t>::`RTTI Complete Object Locator'
PUBLIC	??_R0?AV?$numpunct@_W@std@@@8			; std::numpunct<wchar_t> `RTTI Type Descriptor'
PUBLIC	??_R3?$numpunct@_W@std@@8			; std::numpunct<wchar_t>::`RTTI Class Hierarchy Descriptor'
PUBLIC	??_R2?$numpunct@_W@std@@8			; std::numpunct<wchar_t>::`RTTI Base Class Array'
PUBLIC	??_R1A@?0A@EA@?$numpunct@_W@std@@8		; std::numpunct<wchar_t>::`RTTI Base Class Descriptor at (0,-1,0,64)'
PUBLIC	__real@3feb333333333333
PUBLIC	__real@4000cccccccccccd
PUBLIC	__real@4058ff5c28f5c28f
PUBLIC	__real@4202a05f20000000
PUBLIC	__real@42b00000
PUBLIC	__xmm@000000000000000000000019000000a2
PUBLIC	__xmm@7fffffffffffffff7fffffffffffffff
PUBLIC	__xmm@ffffffffffffffffffffffffffffffff
EXTRN	__purecall:PROC
EXTRN	??2@YAPAXI@Z:PROC				; operator new
EXTRN	??3@YAXPAX@Z:PROC				; operator delete
EXTRN	??3@YAXPAXI@Z:PROC				; operator delete
EXTRN	_atexit:PROC
EXTRN	__Init_thread_header:PROC
EXTRN	__Init_thread_footer:PROC
EXTRN	___std_terminate:PROC
EXTRN	__invalid_parameter_noinfo_noreturn:PROC
EXTRN	__errno:PROC
EXTRN	_memmove:PROC
EXTRN	_strstr:PROC
EXTRN	_wcscpy_s:PROC
EXTRN	_wcsncpy:PROC
EXTRN	_strcspn:PROC
EXTRN	__stricmp:PROC
EXTRN	_strncmp:PROC
EXTRN	_strncpy:PROC
EXTRN	__imp__CreateFileA@28:PROC
EXTRN	__imp__GetDiskFreeSpaceA@20:PROC
EXTRN	__imp__GetDiskFreeSpaceExA@16:PROC
EXTRN	__imp__GetFileInformationByHandle@8:PROC
EXTRN	__imp__GetFileSizeEx@8:PROC
EXTRN	__imp__GetFileTime@16:PROC
EXTRN	__imp__ReadFile@20:PROC
EXTRN	__imp__SetFilePointerEx@20:PROC
EXTRN	__imp__SetFileTime@16:PROC
EXTRN	__imp__CloseHandle@4:PROC
EXTRN	__imp__GetLastError@0:PROC
EXTRN	__imp__SetLastError@4:PROC
EXTRN	__imp__DeviceIoControl@32:PROC
EXTRN	__imp__Sleep@4:PROC
EXTRN	__imp__GetTickCount@0:PROC
EXTRN	__imp__VirtualLock@8:PROC
EXTRN	__imp__VirtualUnlock@8:PROC
EXTRN	__imp__GetModuleFileNameA@12:PROC
EXTRN	__imp__SetThreadExecutionState@4:PROC
EXTRN	__imp__GetVolumeInformationA@32:PROC
EXTRN	__imp__GetVolumePathNameA@12:PROC
EXTRN	__imp__DeleteObject@4:PROC
EXTRN	__imp__wsprintfW:PROC
EXTRN	__imp__LoadKeyboardLayoutA@8:PROC
EXTRN	__imp__GetKeyboardLayout@4:PROC
EXTRN	__imp__DispatchMessageA@4:PROC
EXTRN	__imp__PeekMessageA@20:PROC
EXTRN	__imp__SendMessageA@16:PROC
EXTRN	__imp__PostMessageA@16:PROC
EXTRN	__imp__IsWindow@4:PROC
EXTRN	__imp__DestroyWindow@4:PROC
EXTRN	__imp__ShowWindow@8:PROC
EXTRN	__imp__MoveWindow@24:PROC
EXTRN	__imp__CreateDialogParamW@20:PROC
EXTRN	__imp__DialogBoxParamW@20:PROC
EXTRN	__imp__EndDialog@8:PROC
EXTRN	__imp__GetDlgItem@8:PROC
EXTRN	__imp__SetDlgItemTextA@12:PROC
EXTRN	__imp__GetDlgItemTextA@16:PROC
EXTRN	__imp__SetFocus@4:PROC
EXTRN	__imp__GetAsyncKeyState@4:PROC
EXTRN	__imp__SetTimer@16:PROC
EXTRN	__imp__KillTimer@8:PROC
EXTRN	__imp__EnableWindow@8:PROC
EXTRN	__imp__InvalidateRect@12:PROC
EXTRN	__imp__SetWindowTextA@8:PROC
EXTRN	__imp__SetWindowTextW@8:PROC
EXTRN	__imp__GetWindowTextA@12:PROC
EXTRN	__imp__GetWindowTextLengthA@4:PROC
EXTRN	__imp__GetWindowRect@8:PROC
EXTRN	__imp__MessageBoxW@16:PROC
EXTRN	__imp__MessageBeep@4:PROC
EXTRN	__imp__GetWindowLongA@8:PROC
EXTRN	__imp__GetParent@4:PROC
EXTRN	__imp__EnumWindows@8:PROC
EXTRN	__imp__MapDialogRect@8:PROC
EXTRN	__imp__ShellExecuteA@24:PROC
EXTRN	_calloc:PROC
EXTRN	_free:PROC
EXTRN	_malloc:PROC
EXTRN	_exit:PROC
EXTRN	__atoi64:PROC
EXTRN	__imp__InitCommonControls@0:PROC
EXTRN	_frexp:PROC
EXTRN	__beginthread:PROC
EXTRN	__endthread:PROC
EXTRN	___stdio_common_vswprintf:PROC
EXTRN	___stdio_common_vswprintf_s:PROC
EXTRN	_fclose:PROC
EXTRN	_fopen:PROC
EXTRN	_fputs:PROC
EXTRN	_remove:PROC
EXTRN	___stdio_common_vfprintf:PROC
EXTRN	___stdio_common_vsprintf:PROC
EXTRN	___stdio_common_vsprintf_s:PROC
EXTRN	__access:PROC
EXTRN	__chmod:PROC
EXTRN	__imp__SHGetFolderPathA@20:PROC
EXTRN	_VerifyPasswordAndUpdate:PROC
EXTRN	_CheckPasswordLength:PROC
EXTRN	_CheckPasswordCharEncoding:PROC
EXTRN	_CipherGetKeySize:PROC
EXTRN	_CipherGetName:PROC
EXTRN	_EAGetFirst:PROC
EXTRN	_EAGetNext:PROC
EXTRN	_EAGetName:PROC
EXTRN	_EAGetCipherCount:PROC
EXTRN	_EAGetLastCipher:PROC
EXTRN	_EAGetPreviousCipher:PROC
EXTRN	_EAIsFormatEnabled:PROC
EXTRN	_HashGetName:PROC
EXTRN	_HashIsDeprecated:PROC
EXTRN	_EnableHwEncryption:PROC
EXTRN	_KeyFileRemoveAll:PROC
EXTRN	_KeyFilesApply:PROC
EXTRN	_KeyFilesDlgProc@16:PROC
EXTRN	_cleanup:PROC
EXTRN	_CreateFullVolumePath:PROC
EXTRN	_AbortProcess:PROC
EXTRN	_AbortProcessSilent:PROC
EXTRN	_handleWin32Error:PROC
EXTRN	_IsDiskReadError:PROC
EXTRN	_translateWin32Error:PROC
EXTRN	_AboutDlgProc@16:PROC
EXTRN	_IsButtonChecked:PROC
EXTRN	_CheckButton:PROC
EXTRN	_ToUNICODE:PROC
EXTRN	_InitDialog:PROC
EXTRN	_RenderBitmap:PROC
EXTRN	_RegisterRedTick:PROC
EXTRN	_UnregisterRedTick:PROC
EXTRN	_WaitCursor:PROC
EXTRN	_NormalCursor:PROC
EXTRN	_ArrowWaitCursor:PROC
EXTRN	_AddComboPair:PROC
EXTRN	_AddComboPairW:PROC
EXTRN	_SelectAlgo:PROC
EXTRN	_PopulateWipeModeCombo:PROC
EXTRN	_GetWipeModeName:PROC
EXTRN	_GetPathType:PROC
EXTRN	_CreateSysEncMutex:PROC
EXTRN	_InstanceHasSysEncMutex:PROC
EXTRN	_CloseSysEncMutex:PROC
EXTRN	_CreateNonSysInplaceEncMutex:PROC
EXTRN	_CloseNonSysInplaceEncMutex:PROC
EXTRN	_NonSysInplaceEncInProgressElsewhere:PROC
EXTRN	_IsGostCryptInstallerRunning:PROC
EXTRN	_ReadDriverConfigurationFlags:PROC
EXTRN	_LoadSysEncSettings:PROC
EXTRN	_LoadNonSysInPlaceEncSettings:PROC
EXTRN	_InitApp:PROC
EXTRN	_IsSystemDevicePath:PROC
EXTRN	_RawDevicesDlgProc@16:PROC
EXTRN	_TextInfoDialogBox:PROC
EXTRN	_BenchmarkDlgProc@16:PROC
EXTRN	_DriverAttach:PROC
EXTRN	_CipherTestDialogProc@16:PROC
EXTRN	_BrowseFiles:PROC
EXTRN	_handleError:PROC
EXTRN	_LocalizeDialog:PROC
EXTRN	_OpenVolumeExplorerWindow:PROC
EXTRN	_CloseVolumeExplorerWindows:PROC
EXTRN	_CheckCapsLock:PROC
EXTRN	_CheckFileExtension:PROC
EXTRN	_GetLastAvailableDrive:PROC
EXTRN	_MountVolume:PROC
EXTRN	_UnmountVolume:PROC
EXTRN	_IsMountedVolume:PROC
EXTRN	_IsAdmin:PROC
EXTRN	_IsBuiltInAdmin:PROC
EXTRN	_IsUacSupported:PROC
EXTRN	_GetDiskDeviceDriveLetter:PROC
EXTRN	_FileSystemAppearsEmpty:PROC
EXTRN	_GetStatsFreeSpaceOnPartition:PROC
EXTRN	_GetDeviceSize:PROC
EXTRN	_GSTFlushFile:PROC
EXTRN	_IsNonInstallMode:PROC
EXTRN	_SetCheckBox:PROC
EXTRN	_GetCheckBox:PROC
EXTRN	_ManageStartupSeq:PROC
EXTRN	_ManageStartupSeqWiz:PROC
EXTRN	_CleanLastVisitedMRU:PROC
EXTRN	_ClearHistory:PROC
EXTRN	_GetSizeString:PROC
EXTRN	_GetConfigPath:PROC
EXTRN	_OpenPageHelp:PROC
EXTRN	_Info:PROC
EXTRN	_Warning:PROC
EXTRN	_WarningDirect:PROC
EXTRN	_Error:PROC
EXTRN	_ErrorDirect:PROC
EXTRN	_AskYesNo:PROC
EXTRN	_AskNoYes:PROC
EXTRN	_AskWarnYesNo:PROC
EXTRN	_AskWarnYesNoString:PROC
EXTRN	_AskWarnNoYes:PROC
EXTRN	_AskWarnOkCancel:PROC
EXTRN	_AskMultiChoice:PROC
EXTRN	_ConfigWriteBegin:PROC
EXTRN	_ConfigWriteEnd:PROC
EXTRN	_ConfigWriteString:PROC
EXTRN	_ConfigWriteInt:PROC
EXTRN	_ConfigReadInt:PROC
EXTRN	_ConfigReadString:PROC
EXTRN	_RestoreDefaultKeyFilesParam:PROC
EXTRN	_LoadDefaultKeyFilesParam:PROC
EXTRN	_IsOSAtLeast:PROC
EXTRN	_IsHiddenOSRunning:PROC
EXTRN	_Extlink:PROC
EXTRN	_RelativePath2Absolute:PROC
EXTRN	_InconsistencyResolved:PROC
EXTRN	_ReportUnexpectedState:PROC
EXTRN	_GetPartitionInfo:PROC
EXTRN	_GetDriveGeometry:PROC
EXTRN	_ToHyperlink:PROC
EXTRN	_ToBootPwdField:PROC
EXTRN	_AccommodateTextField:PROC
EXTRN	_GetDriveLabel:PROC
EXTRN	_OpenVolume:PROC
EXTRN	_CloseVolume:PROC
EXTRN	_InitSecurityTokenLibrary:PROC
EXTRN	_AskNonSysInPlaceEncryptionResume:PROC
EXTRN	_IsWindowsIsoBurnerAvailable:PROC
EXTRN	_LaunchWindowsIsoBurner:PROC
EXTRN	??0_Lockit@std@@QAE@H@Z:PROC			; std::_Lockit::_Lockit
EXTRN	??1_Lockit@std@@QAE@XZ:PROC			; std::_Lockit::~_Lockit
EXTRN	?uncaught_exception@std@@YA_NXZ:PROC		; std::uncaught_exception
EXTRN	___std_exception_copy:PROC
EXTRN	___std_exception_destroy:PROC
EXTRN	??_Eexception@std@@UAEPAXI@Z:PROC		; std::exception::`vector deleting destructor'
EXTRN	?_Xbad_alloc@std@@YAXXZ:PROC			; std::_Xbad_alloc
EXTRN	?_Xlength_error@std@@YAXPBD@Z:PROC		; std::_Xlength_error
EXTRN	?_Xout_of_range@std@@YAXPBD@Z:PROC		; std::_Xout_of_range
EXTRN	??_Eruntime_error@std@@UAEPAXI@Z:PROC		; std::runtime_error::`vector deleting destructor'
EXTRN	??_Ebad_cast@std@@UAEPAXI@Z:PROC		; std::bad_cast::`vector deleting destructor'
EXTRN	_localeconv:PROC
EXTRN	__Getctype:PROC
EXTRN	__Getcvt:PROC
EXTRN	__Mbrtowc:PROC
EXTRN	__Wcrtomb:PROC
EXTRN	__Getwctype:PROC
EXTRN	__Getwctypes:PROC
EXTRN	__Towlower:PROC
EXTRN	__Towupper:PROC
EXTRN	?_Locinfo_ctor@_Locinfo@std@@SAXPAV12@PBD@Z:PROC ; std::_Locinfo::_Locinfo_ctor
EXTRN	?_Locinfo_dtor@_Locinfo@std@@SAXPAV12@@Z:PROC	; std::_Locinfo::_Locinfo_dtor
EXTRN	??_E_Facet_base@std@@UAEPAXI@Z:PROC		; std::_Facet_base::`vector deleting destructor'
EXTRN	?_Facet_Register@std@@YAXPAV_Facet_base@1@@Z:PROC ; std::_Facet_Register
EXTRN	??_Efacet@locale@std@@MAEPAXI@Z:PROC		; std::locale::facet::`vector deleting destructor'
EXTRN	?_Init@locale@std@@CAPAV_Locimp@12@_N@Z:PROC	; std::locale::_Init
EXTRN	?_Getgloballocale@locale@std@@CAPAV_Locimp@12@XZ:PROC ; std::locale::_Getgloballocale
EXTRN	??_Ectype_base@std@@UAEPAXI@Z:PROC		; std::ctype_base::`vector deleting destructor'
EXTRN	??_E?$ctype@_W@std@@MAEPAXI@Z:PROC		; std::ctype<wchar_t>::`vector deleting destructor'
EXTRN	??_Eerror_category@std@@UAEPAXI@Z:PROC		; std::error_category::`vector deleting destructor'
EXTRN	??_E_System_error@std@@UAEPAXI@Z:PROC		; std::_System_error::`vector deleting destructor'
EXTRN	??_Esystem_error@std@@UAEPAXI@Z:PROC		; std::system_error::`vector deleting destructor'
EXTRN	?_Syserror_map@std@@YAPBDH@Z:PROC		; std::_Syserror_map
EXTRN	??_E_Generic_error_category@std@@UAEPAXI@Z:PROC	; std::_Generic_error_category::`vector deleting destructor'
EXTRN	??_E_Iostream_error_category@std@@UAEPAXI@Z:PROC ; std::_Iostream_error_category::`vector deleting destructor'
EXTRN	??_Efailure@ios_base@std@@UAEPAXI@Z:PROC	; std::ios_base::failure::`vector deleting destructor'
EXTRN	?_Addstd@ios_base@std@@SAXPAV12@@Z:PROC		; std::ios_base::_Addstd
EXTRN	?_Ios_base_dtor@ios_base@std@@CAXPAV12@@Z:PROC	; std::ios_base::_Ios_base_dtor
EXTRN	??_Eios_base@std@@UAEPAXI@Z:PROC		; std::ios_base::`vector deleting destructor'
EXTRN	?SingleStringToWide@@YA?AV?$basic_string@_WU?$char_traits@_W@std@@V?$allocator@_W@2@@std@@ABV?$basic_string@DU?$char_traits@D@std@@V?$allocator@D@2@@2@@Z:PROC ; SingleStringToWide
EXTRN	?GetAvailableHostDevices@@YA?AV?$vector@UHostDevice@@V?$allocator@UHostDevice@@@std@@@std@@_N000@Z:PROC ; GetAvailableHostDevices
EXTRN	_GetString:PROC
EXTRN	_GetPreferredLangId:PROC
EXTRN	_AddComboItem:PROC
EXTRN	_MoveEditToCombo:PROC
EXTRN	_UpdateComboOrder:PROC
EXTRN	_LoadCombo:PROC
EXTRN	_DumpCombo:PROC
EXTRN	??0BootEncryption@GostCrypt@@QAE@PAUHWND__@@@Z:PROC ; GostCrypt::BootEncryption::BootEncryption
EXTRN	??1BootEncryption@GostCrypt@@QAE@XZ:PROC	; GostCrypt::BootEncryption::~BootEncryption
EXTRN	?AbortDecoyOSWipe@BootEncryption@GostCrypt@@QAEXXZ:PROC ; GostCrypt::BootEncryption::AbortDecoyOSWipe
EXTRN	?AbortSetup@BootEncryption@GostCrypt@@QAEXXZ:PROC ; GostCrypt::BootEncryption::AbortSetup
EXTRN	?AbortSetupWait@BootEncryption@GostCrypt@@QAEXXZ:PROC ; GostCrypt::BootEncryption::AbortSetupWait
EXTRN	?CheckDecoyOSWipeResult@BootEncryption@GostCrypt@@QAEXXZ:PROC ; GostCrypt::BootEncryption::CheckDecoyOSWipeResult
EXTRN	?CheckEncryptionSetupResult@BootEncryption@GostCrypt@@QAEXXZ:PROC ; GostCrypt::BootEncryption::CheckEncryptionSetupResult
EXTRN	?CheckRequirements@BootEncryption@GostCrypt@@QAEXXZ:PROC ; GostCrypt::BootEncryption::CheckRequirements
EXTRN	?CheckRequirementsHiddenOS@BootEncryption@GostCrypt@@QAEXXZ:PROC ; GostCrypt::BootEncryption::CheckRequirementsHiddenOS
EXTRN	?CreateRescueIsoImage@BootEncryption@GostCrypt@@QAEX_NABV?$basic_string@DU?$char_traits@D@std@@V?$allocator@D@2@@std@@@Z:PROC ; GostCrypt::BootEncryption::CreateRescueIsoImage
EXTRN	?Deinstall@BootEncryption@GostCrypt@@QAEX_N@Z:PROC ; GostCrypt::BootEncryption::Deinstall
EXTRN	?GetDecoyOSWipeStatus@BootEncryption@GostCrypt@@QAE?AUDecoySystemWipeStatus@@XZ:PROC ; GostCrypt::BootEncryption::GetDecoyOSWipeStatus
EXTRN	?GetHiddenOSCreationPhase@BootEncryption@GostCrypt@@QAEIXZ:PROC ; GostCrypt::BootEncryption::GetHiddenOSCreationPhase
EXTRN	?GetPartitionForHiddenOS@BootEncryption@GostCrypt@@QAE?AUPartition@2@XZ:PROC ; GostCrypt::BootEncryption::GetPartitionForHiddenOS
EXTRN	?GetStatus@BootEncryption@GostCrypt@@QAE?AUBootEncryptionStatus@@XZ:PROC ; GostCrypt::BootEncryption::GetStatus
EXTRN	?GetSystemDriveConfiguration@BootEncryption@GostCrypt@@QAE?AUSystemDriveConfiguration@2@XZ:PROC ; GostCrypt::BootEncryption::GetSystemDriveConfiguration
EXTRN	?Install@BootEncryption@GostCrypt@@QAEX_N@Z:PROC ; GostCrypt::BootEncryption::Install
EXTRN	?InvalidateCachedSysDriveProperties@BootEncryption@GostCrypt@@QAEXXZ:PROC ; GostCrypt::BootEncryption::InvalidateCachedSysDriveProperties
EXTRN	?IsCDDrivePresent@BootEncryption@GostCrypt@@QAE_NXZ:PROC ; GostCrypt::BootEncryption::IsCDDrivePresent
EXTRN	?PrepareHiddenOSCreation@BootEncryption@GostCrypt@@QAEXHHH@Z:PROC ; GostCrypt::BootEncryption::PrepareHiddenOSCreation
EXTRN	?PrepareInstallation@BootEncryption@GostCrypt@@QAEX_NAAUPassword@@HHHABV?$basic_string@DU?$char_traits@D@std@@V?$allocator@D@2@@std@@@Z:PROC ; GostCrypt::BootEncryption::PrepareInstallation
EXTRN	?ProbeRealSystemDriveSize@BootEncryption@GostCrypt@@QAEXXZ:PROC ; GostCrypt::BootEncryption::ProbeRealSystemDriveSize
EXTRN	?RegisterBootDriver@BootEncryption@GostCrypt@@QAEX_N@Z:PROC ; GostCrypt::BootEncryption::RegisterBootDriver
EXTRN	?RestartComputer@BootEncryption@GostCrypt@@QAE_NXZ:PROC ; GostCrypt::BootEncryption::RestartComputer
EXTRN	?InitialSecurityChecksForHiddenOS@BootEncryption@GostCrypt@@QAEXXZ:PROC ; GostCrypt::BootEncryption::InitialSecurityChecksForHiddenOS
EXTRN	?SetHiddenOSCreationPhase@BootEncryption@GostCrypt@@QAEXI@Z:PROC ; GostCrypt::BootEncryption::SetHiddenOSCreationPhase
EXTRN	?StartDecryption@BootEncryption@GostCrypt@@QAEXH@Z:PROC ; GostCrypt::BootEncryption::StartDecryption
EXTRN	?StartDecoyOSWipe@BootEncryption@GostCrypt@@QAEXW4WipeAlgorithmId@@@Z:PROC ; GostCrypt::BootEncryption::StartDecoyOSWipe
EXTRN	?StartEncryption@BootEncryption@GostCrypt@@QAEXW4WipeAlgorithmId@@_N@Z:PROC ; GostCrypt::BootEncryption::StartEncryption
EXTRN	?SystemDriveContainsExtendedPartition@BootEncryption@GostCrypt@@QAE_NXZ:PROC ; GostCrypt::BootEncryption::SystemDriveContainsExtendedPartition
EXTRN	?SystemDriveContainsNonStandardPartitions@BootEncryption@GostCrypt@@QAE_NXZ:PROC ; GostCrypt::BootEncryption::SystemDriveContainsNonStandardPartitions
EXTRN	?SystemPartitionCoversWholeDrive@BootEncryption@GostCrypt@@QAE_NXZ:PROC ; GostCrypt::BootEncryption::SystemPartitionCoversWholeDrive
EXTRN	?VerifyRescueDisk@BootEncryption@GostCrypt@@QAE_NXZ:PROC ; GostCrypt::BootEncryption::VerifyRescueDisk
EXTRN	?WipeHiddenOSCreationConfig@BootEncryption@GostCrypt@@QAEXXZ:PROC ; GostCrypt::BootEncryption::WipeHiddenOSCreationConfig
EXTRN	??_EContainer@ForEach@GostCrypt@@UAEPAXI@Z:PROC	; GostCrypt::ForEach::Container::`vector deleting destructor'
EXTRN	_Randinit:PROC
EXTRN	_RandStop:PROC
EXTRN	_RandSetHashFunction:PROC
EXTRN	_RandGetHashFunction:PROC
EXTRN	_RandpeekBytes:PROC
EXTRN	_GSTFormatVolume:PROC
EXTRN	_GetVolumeDataAreaSize:PROC
EXTRN	_CheckRequirementsForNonSysInPlaceEnc:PROC
EXTRN	_EncryptPartitionInPlaceBegin:PROC
EXTRN	_EncryptPartitionInPlaceResume:PROC
EXTRN	_ShowInPlaceEncErrMsgWAltSteps:PROC
EXTRN	_SetNonSysInplaceEncUIStatus:PROC
EXTRN	_ComServerFormat:PROC
EXTRN	_UacAnalyzeHiddenVolumeHost:PROC
EXTRN	_InitProgressBar:PROC
EXTRN	_UpdateProgressBarProc:PROC
EXTRN	_AutoTestAlgorithms:PROC
EXTRN	_CommandHelpDlgProc@16:PROC
EXTRN	_Win32CommandLine:PROC
EXTRN	_GetArgumentID:PROC
EXTRN	_GetArgumentValue:PROC
EXTRN	_XmlWriteHeader:PROC
EXTRN	_XmlWriteFooter:PROC
EXTRN	??_E?$ContainerForward@V?$vector@UHostDevice@@V?$allocator@UHostDevice@@@std@@@std@@@ForEach@GostCrypt@@UAEPAXI@Z:PROC ; GostCrypt::ForEach::ContainerForward<std::vector<HostDevice,std::allocator<HostDevice> > >::`vector deleting destructor'
EXTRN	??_E?$basic_ios@_WU?$char_traits@_W@std@@@std@@UAEPAXI@Z:PROC ; std::basic_ios<wchar_t,std::char_traits<wchar_t> >::`vector deleting destructor'
EXTRN	??_E?$basic_istream@_WU?$char_traits@_W@std@@@std@@UAEPAXI@Z:PROC ; std::basic_istream<wchar_t,std::char_traits<wchar_t> >::`vector deleting destructor'
EXTRN	??_E?$basic_ostream@_WU?$char_traits@_W@std@@@std@@UAEPAXI@Z:PROC ; std::basic_ostream<wchar_t,std::char_traits<wchar_t> >::`vector deleting destructor'
EXTRN	??_E?$basic_iostream@_WU?$char_traits@_W@std@@@std@@UAEPAXI@Z:PROC ; std::basic_iostream<wchar_t,std::char_traits<wchar_t> >::`vector deleting destructor'
EXTRN	??_E?$basic_streambuf@_WU?$char_traits@_W@std@@@std@@UAEPAXI@Z:PROC ; std::basic_streambuf<wchar_t,std::char_traits<wchar_t> >::`vector deleting destructor'
EXTRN	??_E?$basic_stringbuf@_WU?$char_traits@_W@std@@V?$allocator@_W@2@@std@@UAEPAXI@Z:PROC ; std::basic_stringbuf<wchar_t,std::char_traits<wchar_t>,std::allocator<wchar_t> >::`vector deleting destructor'
EXTRN	??_E?$basic_stringstream@_WU?$char_traits@_W@std@@V?$allocator@_W@2@@std@@UAEPAXI@Z:PROC ; std::basic_stringstream<wchar_t,std::char_traits<wchar_t>,std::allocator<wchar_t> >::`vector deleting destructor'
EXTRN	??_E?$num_put@_WV?$ostreambuf_iterator@_WU?$char_traits@_W@std@@@std@@@std@@MAEPAXI@Z:PROC ; std::num_put<wchar_t,std::ostreambuf_iterator<wchar_t,std::char_traits<wchar_t> > >::`vector deleting destructor'
EXTRN	??_E?$numpunct@_W@std@@MAEPAXI@Z:PROC		; std::numpunct<wchar_t>::`vector deleting destructor'
EXTRN	@__security_check_cookie@4:PROC
EXTRN	__CxxThrowException@8:PROC
EXTRN	___CxxFrameHandler3:PROC
EXTRN	__alldiv:PROC
EXTRN	__allmul:PROC
EXTRN	__allrem:PROC
EXTRN	__aulldiv:PROC
EXTRN	__chkstk:PROC
EXTRN	__ltod3:PROC
EXTRN	__ultod3:PROC
EXTRN	_memcpy:PROC
EXTRN	_memset:PROC
EXTRN	__Init_thread_epoch:DWORD
EXTRN	_LastDialogId:DWORD
EXTRN	_SecurityTokenLibraryPath:BYTE
EXTRN	_hFixedDigitFont:DWORD
EXTRN	_hBoldFont:DWORD
EXTRN	_hTitleFont:DWORD
EXTRN	_hUserUnderlineFont:DWORD
EXTRN	_hUserBoldFont:DWORD
EXTRN	_ScreenDPI:DWORD
EXTRN	_MainDlg:DWORD
EXTRN	_bHistory:DWORD
EXTRN	_bPreserveTimestamp:DWORD
EXTRN	_bStartOnLogon:DWORD
EXTRN	_HiddenSectorDetectionStatus:DWORD
EXTRN	_lpszTitle:DWORD
EXTRN	_nCurrentOS:DWORD
EXTRN	_CurrentOSMajor:DWORD
EXTRN	_hDriver:DWORD
EXTRN	_hInst:DWORD
EXTRN	_SystemEncryptionStatus:DWORD
EXTRN	_nWipeMode:DWORD
EXTRN	_bSysPartitionSelected:DWORD
EXTRN	_bSysDriveSelected:DWORD
EXTRN	_bHyperLinkBeingTracked:DWORD
EXTRN	_bInPlaceEncNonSysPending:DWORD
EXTRN	_KeyFilesEnable:DWORD
EXTRN	_FirstKeyFile:DWORD
EXTRN	_defaultKeyFilesParam:QWORD
EXTRN	?_BADOFF@std@@3_JB:QWORD			; std::_BADOFF
EXTRN	??_7type_info@@6B@:QWORD			; type_info::`vftable'
EXTRN	?_Id_cnt@id@locale@std@@0HA:DWORD		; std::locale::id::_Id_cnt
EXTRN	?id@?$ctype@_W@std@@2V0locale@2@A:DWORD		; std::ctype<wchar_t>::id
EXTRN	_LocalizationActive:DWORD
EXTRN	_bFastPollEnabled:DWORD
EXTRN	_bRandmixEnabled:DWORD
EXTRN	_FormatWriteBufferSize:DWORD
EXTRN	___security_cookie:DWORD
EXTRN	__fltused:DWORD
EXTRN	__tls_array:DWORD
EXTRN	__tls_index:DWORD
;	COMDAT ?_OptionsStorage@?1??__local_stdio_printf_options@@9@4_KA
_BSS	SEGMENT
?_OptionsStorage@?1??__local_stdio_printf_options@@9@4_KA DQ 01H DUP (?) ; `__local_stdio_printf_options'::`2'::_OptionsStorage
_BSS	ENDS
_BSS	SEGMENT
?bSystemEncryptionStatusChanged@@3HA DD 01H DUP (?)	; bSystemEncryptionStatusChanged
?DeferredNonSysInPlaceEncDevices@@3V?$vector@UHostDevice@@V?$allocator@UHostDevice@@@std@@@std@@A DB 0cH DUP (?) ; DeferredNonSysInPlaceEncDevices
_BSS	ENDS
;	COMDAT ?locBootEncStatus@?1??SysEncryptionOrDecryptionRequired@@YAHXZ@4UBootEncryptionStatus@@A
_BSS	SEGMENT
?locBootEncStatus@?1??SysEncryptionOrDecryptionRequired@@YAHXZ@4UBootEncryptionStatus@@A DB 05eH DUP (?) ; `SysEncryptionOrDecryptionRequired'::`2'::locBootEncStatus
_BSS	ENDS
;	COMDAT ?locBootEncStatus@?1??SysDriveOrPartitionFullyEncrypted@@YAHH@Z@4UBootEncryptionStatus@@A
_BSS	SEGMENT
?locBootEncStatus@?1??SysDriveOrPartitionFullyEncrypted@@YAHH@Z@4UBootEncryptionStatus@@A DB 05eH DUP (?) ; `SysDriveOrPartitionFullyEncrypted'::`2'::locBootEncStatus
_BSS	ENDS
;	COMDAT ?nLastVolumeSize@?1??VerifySizeAndUpdate@@9@4_KA
_BSS	SEGMENT
?nLastVolumeSize@?1??VerifySizeAndUpdate@@9@4_KA DQ 01H DUP (?) ; `VerifySizeAndUpdate'::`2'::nLastVolumeSize
_BSS	ENDS
;	COMDAT ?lastNonSysInplaceEncStatus@?1??UpdateNonSysInplaceEncProgressBar@@9@4HA
_BSS	SEGMENT
?lastNonSysInplaceEncStatus@?1??UpdateNonSysInplaceEncProgressBar@@9@4HA DD 01H DUP (?) ; `UpdateNonSysInplaceEncProgressBar'::`2'::lastNonSysInplaceEncStatus
_BSS	ENDS
;	COMDAT ?bRandPoolDispAscii@?1??DisplayRandPool@@9@4HA
_BSS	SEGMENT
?bRandPoolDispAscii@?1??DisplayRandPool@@9@4HA DD 01H DUP (?) ; `DisplayRandPool'::`2'::bRandPoolDispAscii
_BSS	ENDS
;	COMDAT ?PageDebugId@?1??PageDialogProc@@9@16@4PADA
_BSS	SEGMENT
?PageDebugId@?1??PageDialogProc@@9@16@4PADA DB 080H DUP (?) ; `PageDialogProc'::`2'::PageDebugId
_BSS	ENDS
;	COMDAT ?warningConfirmed@?NM@??MainDialogProc@@9@16@4_NA
_BSS	SEGMENT
?warningConfirmed@?NM@??MainDialogProc@@9@16@4_NA DB 01H DUP (?) ; `MainDialogProc'::`220'::warningConfirmed
_BSS	ENDS
;	COMDAT ?id@?$num_put@_WV?$ostreambuf_iterator@_WU?$char_traits@_W@std@@@std@@@std@@2V0locale@2@A
_BSS	SEGMENT
?id@?$num_put@_WV?$ostreambuf_iterator@_WU?$char_traits@_W@std@@@std@@@std@@2V0locale@2@A DD 01H DUP (?) ; std::num_put<wchar_t,std::ostreambuf_iterator<wchar_t,std::char_traits<wchar_t> > >::id
_BSS	ENDS
;	COMDAT ?id@?$numpunct@_W@std@@2V0locale@2@A
_BSS	SEGMENT
?id@?$numpunct@_W@std@@2V0locale@2@A DD 01H DUP (?)	; std::numpunct<wchar_t>::id
_BSS	ENDS
;	COMDAT ?_Static@?1???$_Immortalize@V_Iostream_error_category@std@@@std@@YAAAV_Iostream_error_category@1@XZ@4U?$_Immortalizer@V_Iostream_error_category@std@@@1@A
_BSS	SEGMENT
?_Static@?1???$_Immortalize@V_Iostream_error_category@std@@@std@@YAAAV_Iostream_error_category@1@XZ@4U?$_Immortalizer@V_Iostream_error_category@std@@@1@A DQ 01H DUP (?) ; `std::_Immortalize<std::_Iostream_error_category>'::`2'::_Static
_BSS	ENDS
;	COMDAT ?$TSS0@?1???$_Immortalize@V_Iostream_error_category@std@@@std@@YAAAV_Iostream_error_category@1@XZ@4HA
_BSS	SEGMENT
?$TSS0@?1???$_Immortalize@V_Iostream_error_category@std@@@std@@YAAAV_Iostream_error_category@1@XZ@4HA DD 01H DUP (?) ; TSS0<`template-parameter-2',unsigned int,std::V_Iostream_error_category::mortalize>
_BSS	ENDS
;	COMDAT ?_Psave@?$_Facetptr@V?$num_put@_WV?$ostreambuf_iterator@_WU?$char_traits@_W@std@@@std@@@std@@@std@@2PBVfacet@locale@2@B
_BSS	SEGMENT
?_Psave@?$_Facetptr@V?$num_put@_WV?$ostreambuf_iterator@_WU?$char_traits@_W@std@@@std@@@std@@@std@@2PBVfacet@locale@2@B DD 01H DUP (?) ; std::_Facetptr<std::num_put<wchar_t,std::ostreambuf_iterator<wchar_t,std::char_traits<wchar_t> > > >::_Psave
_BSS	ENDS
;	COMDAT ?_Psave@?$_Facetptr@V?$numpunct@_W@std@@@std@@2PBVfacet@locale@2@B
_BSS	SEGMENT
?_Psave@?$_Facetptr@V?$numpunct@_W@std@@@std@@2PBVfacet@locale@2@B DD 01H DUP (?) ; std::_Facetptr<std::numpunct<wchar_t> >::_Psave
_BSS	ENDS
;	COMDAT ?_Psave@?$_Facetptr@V?$ctype@_W@std@@@std@@2PBVfacet@locale@2@B
_BSS	SEGMENT
?_Psave@?$_Facetptr@V?$ctype@_W@std@@@std@@2PBVfacet@locale@2@B DD 01H DUP (?) ; std::_Facetptr<std::ctype<wchar_t> >::_Psave
_BSS	ENDS
CRT$XCU	SEGMENT
?DeferredNonSysInPlaceEncDevices$initializer$@@3P6AXXZA DD FLAT:??__EDeferredNonSysInPlaceEncDevices@@YAXXZ ; DeferredNonSysInPlaceEncDevices$initializer$
CRT$XCU	ENDS
;	COMDAT __xmm@ffffffffffffffffffffffffffffffff
CONST	SEGMENT
__xmm@ffffffffffffffffffffffffffffffff DB 0ffH, 0ffH, 0ffH, 0ffH, 0ffH, 0ffH
	DB	0ffH, 0ffH, 0ffH, 0ffH, 0ffH, 0ffH, 0ffH, 0ffH, 0ffH, 0ffH
CONST	ENDS
;	COMDAT __xmm@7fffffffffffffff7fffffffffffffff
CONST	SEGMENT
__xmm@7fffffffffffffff7fffffffffffffff DB 0ffH, 0ffH, 0ffH, 0ffH, 0ffH, 0ffH
	DB	0ffH, 07fH, 0ffH, 0ffH, 0ffH, 0ffH, 0ffH, 0ffH, 0ffH, 07fH
CONST	ENDS
;	COMDAT __xmm@000000000000000000000019000000a2
CONST	SEGMENT
__xmm@000000000000000000000019000000a2 DB 0a2H, 00H, 00H, 00H, 019H, 00H, 00H
	DB	00H, 00H, 00H, 00H, 00H, 00H, 00H, 00H, 00H
CONST	ENDS
;	COMDAT __real@42b00000
CONST	SEGMENT
__real@42b00000 DD 042b00000r			; 88
CONST	ENDS
;	COMDAT __real@4202a05f20000000
CONST	SEGMENT
__real@4202a05f20000000 DQ 04202a05f20000000r	; 1e+10
CONST	ENDS
;	COMDAT __real@4058ff5c28f5c28f
CONST	SEGMENT
__real@4058ff5c28f5c28f DQ 04058ff5c28f5c28fr	; 99.99
CONST	ENDS
;	COMDAT __real@4000cccccccccccd
CONST	SEGMENT
__real@4000cccccccccccd DQ 04000cccccccccccdr	; 2.1
CONST	ENDS
;	COMDAT __real@3feb333333333333
CONST	SEGMENT
__real@3feb333333333333 DQ 03feb333333333333r	; 0.85
CONST	ENDS
;	COMDAT ??_R1A@?0A@EA@?$numpunct@_W@std@@8
rdata$r	SEGMENT
??_R1A@?0A@EA@?$numpunct@_W@std@@8 DD FLAT:??_R0?AV?$numpunct@_W@std@@@8 ; std::numpunct<wchar_t>::`RTTI Base Class Descriptor at (0,-1,0,64)'
	DD	03H
	DD	00H
	DD	0ffffffffH
	DD	00H
	DD	040H
	DD	FLAT:??_R3?$numpunct@_W@std@@8
rdata$r	ENDS
;	COMDAT ??_R2?$numpunct@_W@std@@8
rdata$r	SEGMENT
??_R2?$numpunct@_W@std@@8 DD FLAT:??_R1A@?0A@EA@?$numpunct@_W@std@@8 ; std::numpunct<wchar_t>::`RTTI Base Class Array'
	DD	FLAT:??_R1A@?0A@EA@facet@locale@std@@8
	DD	FLAT:??_R1A@?0A@EA@_Facet_base@std@@8
	DD	FLAT:??_R13?0A@EA@_Crt_new_delete@std@@8
rdata$r	ENDS
;	COMDAT ??_R3?$numpunct@_W@std@@8
rdata$r	SEGMENT
??_R3?$numpunct@_W@std@@8 DD 00H			; std::numpunct<wchar_t>::`RTTI Class Hierarchy Descriptor'
	DD	01H
	DD	04H
	DD	FLAT:??_R2?$numpunct@_W@std@@8
rdata$r	ENDS
;	COMDAT ??_R0?AV?$numpunct@_W@std@@@8
data$r	SEGMENT
??_R0?AV?$numpunct@_W@std@@@8 DD FLAT:??_7type_info@@6B@ ; std::numpunct<wchar_t> `RTTI Type Descriptor'
	DD	00H
	DB	'.?AV?$numpunct@_W@std@@', 00H
data$r	ENDS
;	COMDAT ??_R4?$numpunct@_W@std@@6B@
rdata$r	SEGMENT
??_R4?$numpunct@_W@std@@6B@ DD 00H			; std::numpunct<wchar_t>::`RTTI Complete Object Locator'
	DD	00H
	DD	00H
	DD	FLAT:??_R0?AV?$numpunct@_W@std@@@8
	DD	FLAT:??_R3?$numpunct@_W@std@@8
rdata$r	ENDS
;	COMDAT ??_R1A@?0A@EA@?$num_put@_WV?$ostreambuf_iterator@_WU?$char_traits@_W@std@@@std@@@std@@8
rdata$r	SEGMENT
??_R1A@?0A@EA@?$num_put@_WV?$ostreambuf_iterator@_WU?$char_traits@_W@std@@@std@@@std@@8 DD FLAT:??_R0?AV?$num_put@_WV?$ostreambuf_iterator@_WU?$char_traits@_W@std@@@std@@@std@@@8 ; std::num_put<wchar_t,std::ostreambuf_iterator<wchar_t,std::char_traits<wchar_t> > >::`RTTI Base Class Descriptor at (0,-1,0,64)'
	DD	03H
	DD	00H
	DD	0ffffffffH
	DD	00H
	DD	040H
	DD	FLAT:??_R3?$num_put@_WV?$ostreambuf_iterator@_WU?$char_traits@_W@std@@@std@@@std@@8
rdata$r	ENDS
;	COMDAT ??_R2?$num_put@_WV?$ostreambuf_iterator@_WU?$char_traits@_W@std@@@std@@@std@@8
rdata$r	SEGMENT
??_R2?$num_put@_WV?$ostreambuf_iterator@_WU?$char_traits@_W@std@@@std@@@std@@8 DD FLAT:??_R1A@?0A@EA@?$num_put@_WV?$ostreambuf_iterator@_WU?$char_traits@_W@std@@@std@@@std@@8 ; std::num_put<wchar_t,std::ostreambuf_iterator<wchar_t,std::char_traits<wchar_t> > >::`RTTI Base Class Array'
	DD	FLAT:??_R1A@?0A@EA@facet@locale@std@@8
	DD	FLAT:??_R1A@?0A@EA@_Facet_base@std@@8
	DD	FLAT:??_R13?0A@EA@_Crt_new_delete@std@@8
rdata$r	ENDS
;	COMDAT ??_R3?$num_put@_WV?$ostreambuf_iterator@_WU?$char_traits@_W@std@@@std@@@std@@8
rdata$r	SEGMENT
??_R3?$num_put@_WV?$ostreambuf_iterator@_WU?$char_traits@_W@std@@@std@@@std@@8 DD 00H ; std::num_put<wchar_t,std::ostreambuf_iterator<wchar_t,std::char_traits<wchar_t> > >::`RTTI Class Hierarchy Descriptor'
	DD	01H
	DD	04H
	DD	FLAT:??_R2?$num_put@_WV?$ostreambuf_iterator@_WU?$char_traits@_W@std@@@std@@@std@@8
rdata$r	ENDS
;	COMDAT ??_R0?AV?$num_put@_WV?$ostreambuf_iterator@_WU?$char_traits@_W@std@@@std@@@std@@@8
data$r	SEGMENT
??_R0?AV?$num_put@_WV?$ostreambuf_iterator@_WU?$char_traits@_W@std@@@std@@@std@@@8 DD FLAT:??_7type_info@@6B@ ; std::num_put<wchar_t,std::ostreambuf_iterator<wchar_t,std::char_traits<wchar_t> > > `RTTI Type Descriptor'
	DD	00H
	DB	'.?AV?$num_put@_WV?$ostreambuf_iterator@_WU?$char_traits@'
	DB	'_W@std@@@std@@@std@@', 00H
data$r	ENDS
;	COMDAT ??_R4?$num_put@_WV?$ostreambuf_iterator@_WU?$char_traits@_W@std@@@std@@@std@@6B@
rdata$r	SEGMENT
??_R4?$num_put@_WV?$ostreambuf_iterator@_WU?$char_traits@_W@std@@@std@@@std@@6B@ DD 00H ; std::num_put<wchar_t,std::ostreambuf_iterator<wchar_t,std::char_traits<wchar_t> > >::`RTTI Complete Object Locator'
	DD	00H
	DD	00H
	DD	FLAT:??_R0?AV?$num_put@_WV?$ostreambuf_iterator@_WU?$char_traits@_W@std@@@std@@@std@@@8
	DD	FLAT:??_R3?$num_put@_WV?$ostreambuf_iterator@_WU?$char_traits@_W@std@@@std@@@std@@8
rdata$r	ENDS
;	COMDAT ??_R1A@?0A@EA@?$ContainerForward@V?$vector@UHostDevice@@V?$allocator@UHostDevice@@@std@@@std@@@ForEach@GostCrypt@@8
rdata$r	SEGMENT
??_R1A@?0A@EA@?$ContainerForward@V?$vector@UHostDevice@@V?$allocator@UHostDevice@@@std@@@std@@@ForEach@GostCrypt@@8 DD FLAT:??_R0?AU?$ContainerForward@V?$vector@UHostDevice@@V?$allocator@UHostDevice@@@std@@@std@@@ForEach@GostCrypt@@@8 ; GostCrypt::ForEach::ContainerForward<std::vector<HostDevice,std::allocator<HostDevice> > >::`RTTI Base Class Descriptor at (0,-1,0,64)'
	DD	01H
	DD	00H
	DD	0ffffffffH
	DD	00H
	DD	040H
	DD	FLAT:??_R3?$ContainerForward@V?$vector@UHostDevice@@V?$allocator@UHostDevice@@@std@@@std@@@ForEach@GostCrypt@@8
rdata$r	ENDS
;	COMDAT ??_R2?$ContainerForward@V?$vector@UHostDevice@@V?$allocator@UHostDevice@@@std@@@std@@@ForEach@GostCrypt@@8
rdata$r	SEGMENT
??_R2?$ContainerForward@V?$vector@UHostDevice@@V?$allocator@UHostDevice@@@std@@@std@@@ForEach@GostCrypt@@8 DD FLAT:??_R1A@?0A@EA@?$ContainerForward@V?$vector@UHostDevice@@V?$allocator@UHostDevice@@@std@@@std@@@ForEach@GostCrypt@@8 ; GostCrypt::ForEach::ContainerForward<std::vector<HostDevice,std::allocator<HostDevice> > >::`RTTI Base Class Array'
	DD	FLAT:??_R1A@?0A@EA@Container@ForEach@GostCrypt@@8
rdata$r	ENDS
;	COMDAT ??_R3?$ContainerForward@V?$vector@UHostDevice@@V?$allocator@UHostDevice@@@std@@@std@@@ForEach@GostCrypt@@8
rdata$r	SEGMENT
??_R3?$ContainerForward@V?$vector@UHostDevice@@V?$allocator@UHostDevice@@@std@@@std@@@ForEach@GostCrypt@@8 DD 00H ; GostCrypt::ForEach::ContainerForward<std::vector<HostDevice,std::allocator<HostDevice> > >::`RTTI Class Hierarchy Descriptor'
	DD	00H
	DD	02H
	DD	FLAT:??_R2?$ContainerForward@V?$vector@UHostDevice@@V?$allocator@UHostDevice@@@std@@@std@@@ForEach@GostCrypt@@8
rdata$r	ENDS
;	COMDAT ??_R0?AU?$ContainerForward@V?$vector@UHostDevice@@V?$allocator@UHostDevice@@@std@@@std@@@ForEach@GostCrypt@@@8
data$r	SEGMENT
??_R0?AU?$ContainerForward@V?$vector@UHostDevice@@V?$allocator@UHostDevice@@@std@@@std@@@ForEach@GostCrypt@@@8 DD FLAT:??_7type_info@@6B@ ; GostCrypt::ForEach::ContainerForward<std::vector<HostDevice,std::allocator<HostDevice> > > `RTTI Type Descriptor'
	DD	00H
	DB	'.?AU?$ContainerForward@V?$vector@UHostDevice@@V?$allocat'
	DB	'or@UHostDevice@@@std@@@std@@@ForEach@GostCrypt@@', 00H
data$r	ENDS
;	COMDAT ??_R4?$ContainerForward@V?$vector@UHostDevice@@V?$allocator@UHostDevice@@@std@@@std@@@ForEach@GostCrypt@@6B@
rdata$r	SEGMENT
??_R4?$ContainerForward@V?$vector@UHostDevice@@V?$allocator@UHostDevice@@@std@@@std@@@ForEach@GostCrypt@@6B@ DD 00H ; GostCrypt::ForEach::ContainerForward<std::vector<HostDevice,std::allocator<HostDevice> > >::`RTTI Complete Object Locator'
	DD	00H
	DD	00H
	DD	FLAT:??_R0?AU?$ContainerForward@V?$vector@UHostDevice@@V?$allocator@UHostDevice@@@std@@@std@@@ForEach@GostCrypt@@@8
	DD	FLAT:??_R3?$ContainerForward@V?$vector@UHostDevice@@V?$allocator@UHostDevice@@@std@@@std@@@ForEach@GostCrypt@@8
rdata$r	ENDS
;	COMDAT ??_R1A@?0A@EA@Container@ForEach@GostCrypt@@8
rdata$r	SEGMENT
??_R1A@?0A@EA@Container@ForEach@GostCrypt@@8 DD FLAT:??_R0?AUContainer@ForEach@GostCrypt@@@8 ; GostCrypt::ForEach::Container::`RTTI Base Class Descriptor at (0,-1,0,64)'
	DD	00H
	DD	00H
	DD	0ffffffffH
	DD	00H
	DD	040H
	DD	FLAT:??_R3Container@ForEach@GostCrypt@@8
rdata$r	ENDS
;	COMDAT ??_R2Container@ForEach@GostCrypt@@8
rdata$r	SEGMENT
??_R2Container@ForEach@GostCrypt@@8 DD FLAT:??_R1A@?0A@EA@Container@ForEach@GostCrypt@@8 ; GostCrypt::ForEach::Container::`RTTI Base Class Array'
rdata$r	ENDS
;	COMDAT ??_R3Container@ForEach@GostCrypt@@8
rdata$r	SEGMENT
??_R3Container@ForEach@GostCrypt@@8 DD 00H		; GostCrypt::ForEach::Container::`RTTI Class Hierarchy Descriptor'
	DD	00H
	DD	01H
	DD	FLAT:??_R2Container@ForEach@GostCrypt@@8
rdata$r	ENDS
;	COMDAT ??_R0?AUContainer@ForEach@GostCrypt@@@8
data$r	SEGMENT
??_R0?AUContainer@ForEach@GostCrypt@@@8 DD FLAT:??_7type_info@@6B@ ; GostCrypt::ForEach::Container `RTTI Type Descriptor'
	DD	00H
	DB	'.?AUContainer@ForEach@GostCrypt@@', 00H
data$r	ENDS
;	COMDAT ??_R4Container@ForEach@GostCrypt@@6B@
rdata$r	SEGMENT
??_R4Container@ForEach@GostCrypt@@6B@ DD 00H		; GostCrypt::ForEach::Container::`RTTI Complete Object Locator'
	DD	00H
	DD	00H
	DD	FLAT:??_R0?AUContainer@ForEach@GostCrypt@@@8
	DD	FLAT:??_R3Container@ForEach@GostCrypt@@8
rdata$r	ENDS
;	COMDAT ??_R1A@?0A@EA@failure@ios_base@std@@8
rdata$r	SEGMENT
??_R1A@?0A@EA@failure@ios_base@std@@8 DD FLAT:??_R0?AVfailure@ios_base@std@@@8 ; std::ios_base::failure::`RTTI Base Class Descriptor at (0,-1,0,64)'
	DD	04H
	DD	00H
	DD	0ffffffffH
	DD	00H
	DD	040H
	DD	FLAT:??_R3failure@ios_base@std@@8
rdata$r	ENDS
;	COMDAT ??_R2failure@ios_base@std@@8
rdata$r	SEGMENT
??_R2failure@ios_base@std@@8 DD FLAT:??_R1A@?0A@EA@failure@ios_base@std@@8 ; std::ios_base::failure::`RTTI Base Class Array'
	DD	FLAT:??_R1A@?0A@EA@system_error@std@@8
	DD	FLAT:??_R1A@?0A@EA@_System_error@std@@8
	DD	FLAT:??_R1A@?0A@EA@runtime_error@std@@8
	DD	FLAT:??_R1A@?0A@EA@exception@std@@8
rdata$r	ENDS
;	COMDAT ??_R3failure@ios_base@std@@8
rdata$r	SEGMENT
??_R3failure@ios_base@std@@8 DD 00H			; std::ios_base::failure::`RTTI Class Hierarchy Descriptor'
	DD	00H
	DD	05H
	DD	FLAT:??_R2failure@ios_base@std@@8
rdata$r	ENDS
;	COMDAT ??_R4failure@ios_base@std@@6B@
rdata$r	SEGMENT
??_R4failure@ios_base@std@@6B@ DD 00H			; std::ios_base::failure::`RTTI Complete Object Locator'
	DD	00H
	DD	00H
	DD	FLAT:??_R0?AVfailure@ios_base@std@@@8
	DD	FLAT:??_R3failure@ios_base@std@@8
rdata$r	ENDS
;	COMDAT ??_R1A@?0A@EA@_Iostream_error_category@std@@8
rdata$r	SEGMENT
??_R1A@?0A@EA@_Iostream_error_category@std@@8 DD FLAT:??_R0?AV_Iostream_error_category@std@@@8 ; std::_Iostream_error_category::`RTTI Base Class Descriptor at (0,-1,0,64)'
	DD	02H
	DD	00H
	DD	0ffffffffH
	DD	00H
	DD	040H
	DD	FLAT:??_R3_Iostream_error_category@std@@8
rdata$r	ENDS
;	COMDAT ??_R2_Iostream_error_category@std@@8
rdata$r	SEGMENT
??_R2_Iostream_error_category@std@@8 DD FLAT:??_R1A@?0A@EA@_Iostream_error_category@std@@8 ; std::_Iostream_error_category::`RTTI Base Class Array'
	DD	FLAT:??_R1A@?0A@EA@_Generic_error_category@std@@8
	DD	FLAT:??_R1A@?0A@EA@error_category@std@@8
rdata$r	ENDS
;	COMDAT ??_R3_Iostream_error_category@std@@8
rdata$r	SEGMENT
??_R3_Iostream_error_category@std@@8 DD 00H		; std::_Iostream_error_category::`RTTI Class Hierarchy Descriptor'
	DD	00H
	DD	03H
	DD	FLAT:??_R2_Iostream_error_category@std@@8
rdata$r	ENDS
;	COMDAT ??_R0?AV_Iostream_error_category@std@@@8
data$r	SEGMENT
??_R0?AV_Iostream_error_category@std@@@8 DD FLAT:??_7type_info@@6B@ ; std::_Iostream_error_category `RTTI Type Descriptor'
	DD	00H
	DB	'.?AV_Iostream_error_category@std@@', 00H
data$r	ENDS
;	COMDAT ??_R4_Iostream_error_category@std@@6B@
rdata$r	SEGMENT
??_R4_Iostream_error_category@std@@6B@ DD 00H		; std::_Iostream_error_category::`RTTI Complete Object Locator'
	DD	00H
	DD	00H
	DD	FLAT:??_R0?AV_Iostream_error_category@std@@@8
	DD	FLAT:??_R3_Iostream_error_category@std@@8
rdata$r	ENDS
;	COMDAT ??_R1A@?0A@EA@_Generic_error_category@std@@8
rdata$r	SEGMENT
??_R1A@?0A@EA@_Generic_error_category@std@@8 DD FLAT:??_R0?AV_Generic_error_category@std@@@8 ; std::_Generic_error_category::`RTTI Base Class Descriptor at (0,-1,0,64)'
	DD	01H
	DD	00H
	DD	0ffffffffH
	DD	00H
	DD	040H
	DD	FLAT:??_R3_Generic_error_category@std@@8
rdata$r	ENDS
;	COMDAT ??_R2_Generic_error_category@std@@8
rdata$r	SEGMENT
??_R2_Generic_error_category@std@@8 DD FLAT:??_R1A@?0A@EA@_Generic_error_category@std@@8 ; std::_Generic_error_category::`RTTI Base Class Array'
	DD	FLAT:??_R1A@?0A@EA@error_category@std@@8
rdata$r	ENDS
;	COMDAT ??_R3_Generic_error_category@std@@8
rdata$r	SEGMENT
??_R3_Generic_error_category@std@@8 DD 00H		; std::_Generic_error_category::`RTTI Class Hierarchy Descriptor'
	DD	00H
	DD	02H
	DD	FLAT:??_R2_Generic_error_category@std@@8
rdata$r	ENDS
;	COMDAT ??_R0?AV_Generic_error_category@std@@@8
data$r	SEGMENT
??_R0?AV_Generic_error_category@std@@@8 DD FLAT:??_7type_info@@6B@ ; std::_Generic_error_category `RTTI Type Descriptor'
	DD	00H
	DB	'.?AV_Generic_error_category@std@@', 00H
data$r	ENDS
;	COMDAT ??_R4_Generic_error_category@std@@6B@
rdata$r	SEGMENT
??_R4_Generic_error_category@std@@6B@ DD 00H		; std::_Generic_error_category::`RTTI Complete Object Locator'
	DD	00H
	DD	00H
	DD	FLAT:??_R0?AV_Generic_error_category@std@@@8
	DD	FLAT:??_R3_Generic_error_category@std@@8
rdata$r	ENDS
;	COMDAT ??_R1A@?0A@EA@system_error@std@@8
rdata$r	SEGMENT
??_R1A@?0A@EA@system_error@std@@8 DD FLAT:??_R0?AVsystem_error@std@@@8 ; std::system_error::`RTTI Base Class Descriptor at (0,-1,0,64)'
	DD	03H
	DD	00H
	DD	0ffffffffH
	DD	00H
	DD	040H
	DD	FLAT:??_R3system_error@std@@8
rdata$r	ENDS
;	COMDAT ??_R2system_error@std@@8
rdata$r	SEGMENT
??_R2system_error@std@@8 DD FLAT:??_R1A@?0A@EA@system_error@std@@8 ; std::system_error::`RTTI Base Class Array'
	DD	FLAT:??_R1A@?0A@EA@_System_error@std@@8
	DD	FLAT:??_R1A@?0A@EA@runtime_error@std@@8
	DD	FLAT:??_R1A@?0A@EA@exception@std@@8
rdata$r	ENDS
;	COMDAT ??_R3system_error@std@@8
rdata$r	SEGMENT
??_R3system_error@std@@8 DD 00H				; std::system_error::`RTTI Class Hierarchy Descriptor'
	DD	00H
	DD	04H
	DD	FLAT:??_R2system_error@std@@8
rdata$r	ENDS
;	COMDAT ??_R4system_error@std@@6B@
rdata$r	SEGMENT
??_R4system_error@std@@6B@ DD 00H			; std::system_error::`RTTI Complete Object Locator'
	DD	00H
	DD	00H
	DD	FLAT:??_R0?AVsystem_error@std@@@8
	DD	FLAT:??_R3system_error@std@@8
rdata$r	ENDS
;	COMDAT ??_R1A@?0A@EA@_System_error@std@@8
rdata$r	SEGMENT
??_R1A@?0A@EA@_System_error@std@@8 DD FLAT:??_R0?AV_System_error@std@@@8 ; std::_System_error::`RTTI Base Class Descriptor at (0,-1,0,64)'
	DD	02H
	DD	00H
	DD	0ffffffffH
	DD	00H
	DD	040H
	DD	FLAT:??_R3_System_error@std@@8
rdata$r	ENDS
;	COMDAT ??_R2_System_error@std@@8
rdata$r	SEGMENT
??_R2_System_error@std@@8 DD FLAT:??_R1A@?0A@EA@_System_error@std@@8 ; std::_System_error::`RTTI Base Class Array'
	DD	FLAT:??_R1A@?0A@EA@runtime_error@std@@8
	DD	FLAT:??_R1A@?0A@EA@exception@std@@8
rdata$r	ENDS
;	COMDAT ??_R3_System_error@std@@8
rdata$r	SEGMENT
??_R3_System_error@std@@8 DD 00H			; std::_System_error::`RTTI Class Hierarchy Descriptor'
	DD	00H
	DD	03H
	DD	FLAT:??_R2_System_error@std@@8
rdata$r	ENDS
;	COMDAT ??_R4_System_error@std@@6B@
rdata$r	SEGMENT
??_R4_System_error@std@@6B@ DD 00H			; std::_System_error::`RTTI Complete Object Locator'
	DD	00H
	DD	00H
	DD	FLAT:??_R0?AV_System_error@std@@@8
	DD	FLAT:??_R3_System_error@std@@8
rdata$r	ENDS
;	COMDAT ??_R1A@?0A@EA@error_category@std@@8
rdata$r	SEGMENT
??_R1A@?0A@EA@error_category@std@@8 DD FLAT:??_R0?AVerror_category@std@@@8 ; std::error_category::`RTTI Base Class Descriptor at (0,-1,0,64)'
	DD	00H
	DD	00H
	DD	0ffffffffH
	DD	00H
	DD	040H
	DD	FLAT:??_R3error_category@std@@8
rdata$r	ENDS
;	COMDAT ??_R2error_category@std@@8
rdata$r	SEGMENT
??_R2error_category@std@@8 DD FLAT:??_R1A@?0A@EA@error_category@std@@8 ; std::error_category::`RTTI Base Class Array'
rdata$r	ENDS
;	COMDAT ??_R3error_category@std@@8
rdata$r	SEGMENT
??_R3error_category@std@@8 DD 00H			; std::error_category::`RTTI Class Hierarchy Descriptor'
	DD	00H
	DD	01H
	DD	FLAT:??_R2error_category@std@@8
rdata$r	ENDS
;	COMDAT ??_R0?AVerror_category@std@@@8
data$r	SEGMENT
??_R0?AVerror_category@std@@@8 DD FLAT:??_7type_info@@6B@ ; std::error_category `RTTI Type Descriptor'
	DD	00H
	DB	'.?AVerror_category@std@@', 00H
data$r	ENDS
;	COMDAT ??_R4error_category@std@@6B@
rdata$r	SEGMENT
??_R4error_category@std@@6B@ DD 00H			; std::error_category::`RTTI Complete Object Locator'
	DD	00H
	DD	00H
	DD	FLAT:??_R0?AVerror_category@std@@@8
	DD	FLAT:??_R3error_category@std@@8
rdata$r	ENDS
;	COMDAT ??_R1A@?0A@EA@?$ctype@_W@std@@8
rdata$r	SEGMENT
??_R1A@?0A@EA@?$ctype@_W@std@@8 DD FLAT:??_R0?AV?$ctype@_W@std@@@8 ; std::ctype<wchar_t>::`RTTI Base Class Descriptor at (0,-1,0,64)'
	DD	04H
	DD	00H
	DD	0ffffffffH
	DD	00H
	DD	040H
	DD	FLAT:??_R3?$ctype@_W@std@@8
rdata$r	ENDS
;	COMDAT ??_R2?$ctype@_W@std@@8
rdata$r	SEGMENT
??_R2?$ctype@_W@std@@8 DD FLAT:??_R1A@?0A@EA@?$ctype@_W@std@@8 ; std::ctype<wchar_t>::`RTTI Base Class Array'
	DD	FLAT:??_R1A@?0A@EA@ctype_base@std@@8
	DD	FLAT:??_R1A@?0A@EA@facet@locale@std@@8
	DD	FLAT:??_R1A@?0A@EA@_Facet_base@std@@8
	DD	FLAT:??_R13?0A@EA@_Crt_new_delete@std@@8
rdata$r	ENDS
;	COMDAT ??_R3?$ctype@_W@std@@8
rdata$r	SEGMENT
??_R3?$ctype@_W@std@@8 DD 00H				; std::ctype<wchar_t>::`RTTI Class Hierarchy Descriptor'
	DD	01H
	DD	05H
	DD	FLAT:??_R2?$ctype@_W@std@@8
rdata$r	ENDS
;	COMDAT ??_R0?AV?$ctype@_W@std@@@8
data$r	SEGMENT
??_R0?AV?$ctype@_W@std@@@8 DD FLAT:??_7type_info@@6B@	; std::ctype<wchar_t> `RTTI Type Descriptor'
	DD	00H
	DB	'.?AV?$ctype@_W@std@@', 00H
data$r	ENDS
;	COMDAT ??_R4?$ctype@_W@std@@6B@
rdata$r	SEGMENT
??_R4?$ctype@_W@std@@6B@ DD 00H				; std::ctype<wchar_t>::`RTTI Complete Object Locator'
	DD	00H
	DD	00H
	DD	FLAT:??_R0?AV?$ctype@_W@std@@@8
	DD	FLAT:??_R3?$ctype@_W@std@@8
rdata$r	ENDS
;	COMDAT ??_R1A@?0A@EA@ctype_base@std@@8
rdata$r	SEGMENT
??_R1A@?0A@EA@ctype_base@std@@8 DD FLAT:??_R0?AUctype_base@std@@@8 ; std::ctype_base::`RTTI Base Class Descriptor at (0,-1,0,64)'
	DD	03H
	DD	00H
	DD	0ffffffffH
	DD	00H
	DD	040H
	DD	FLAT:??_R3ctype_base@std@@8
rdata$r	ENDS
;	COMDAT ??_R2ctype_base@std@@8
rdata$r	SEGMENT
??_R2ctype_base@std@@8 DD FLAT:??_R1A@?0A@EA@ctype_base@std@@8 ; std::ctype_base::`RTTI Base Class Array'
	DD	FLAT:??_R1A@?0A@EA@facet@locale@std@@8
	DD	FLAT:??_R1A@?0A@EA@_Facet_base@std@@8
	DD	FLAT:??_R13?0A@EA@_Crt_new_delete@std@@8
rdata$r	ENDS
;	COMDAT ??_R3ctype_base@std@@8
rdata$r	SEGMENT
??_R3ctype_base@std@@8 DD 00H				; std::ctype_base::`RTTI Class Hierarchy Descriptor'
	DD	01H
	DD	04H
	DD	FLAT:??_R2ctype_base@std@@8
rdata$r	ENDS
;	COMDAT ??_R0?AUctype_base@std@@@8
data$r	SEGMENT
??_R0?AUctype_base@std@@@8 DD FLAT:??_7type_info@@6B@	; std::ctype_base `RTTI Type Descriptor'
	DD	00H
	DB	'.?AUctype_base@std@@', 00H
data$r	ENDS
;	COMDAT ??_R4ctype_base@std@@6B@
rdata$r	SEGMENT
??_R4ctype_base@std@@6B@ DD 00H				; std::ctype_base::`RTTI Complete Object Locator'
	DD	00H
	DD	00H
	DD	FLAT:??_R0?AUctype_base@std@@@8
	DD	FLAT:??_R3ctype_base@std@@8
rdata$r	ENDS
;	COMDAT ??_R4facet@locale@std@@6B@
rdata$r	SEGMENT
??_R4facet@locale@std@@6B@ DD 00H			; std::locale::facet::`RTTI Complete Object Locator'
	DD	00H
	DD	00H
	DD	FLAT:??_R0?AVfacet@locale@std@@@8
	DD	FLAT:??_R3facet@locale@std@@8
rdata$r	ENDS
;	COMDAT ??_R1A@?0A@EA@_Crt_new_delete@std@@8
rdata$r	SEGMENT
??_R1A@?0A@EA@_Crt_new_delete@std@@8 DD FLAT:??_R0?AU_Crt_new_delete@std@@@8 ; std::_Crt_new_delete::`RTTI Base Class Descriptor at (0,-1,0,64)'
	DD	00H
	DD	00H
	DD	0ffffffffH
	DD	00H
	DD	040H
	DD	FLAT:??_R3_Crt_new_delete@std@@8
rdata$r	ENDS
;	COMDAT ??_R2_Crt_new_delete@std@@8
rdata$r	SEGMENT
??_R2_Crt_new_delete@std@@8 DD FLAT:??_R1A@?0A@EA@_Crt_new_delete@std@@8 ; std::_Crt_new_delete::`RTTI Base Class Array'
rdata$r	ENDS
;	COMDAT ??_R3_Crt_new_delete@std@@8
rdata$r	SEGMENT
??_R3_Crt_new_delete@std@@8 DD 00H			; std::_Crt_new_delete::`RTTI Class Hierarchy Descriptor'
	DD	00H
	DD	01H
	DD	FLAT:??_R2_Crt_new_delete@std@@8
rdata$r	ENDS
;	COMDAT ??_R0?AU_Crt_new_delete@std@@@8
data$r	SEGMENT
??_R0?AU_Crt_new_delete@std@@@8 DD FLAT:??_7type_info@@6B@ ; std::_Crt_new_delete `RTTI Type Descriptor'
	DD	00H
	DB	'.?AU_Crt_new_delete@std@@', 00H
data$r	ENDS
;	COMDAT ??_R13?0A@EA@_Crt_new_delete@std@@8
rdata$r	SEGMENT
??_R13?0A@EA@_Crt_new_delete@std@@8 DD FLAT:??_R0?AU_Crt_new_delete@std@@@8 ; std::_Crt_new_delete::`RTTI Base Class Descriptor at (4,-1,0,64)'
	DD	00H
	DD	04H
	DD	0ffffffffH
	DD	00H
	DD	040H
	DD	FLAT:??_R3_Crt_new_delete@std@@8
rdata$r	ENDS
;	COMDAT ??_R2facet@locale@std@@8
rdata$r	SEGMENT
??_R2facet@locale@std@@8 DD FLAT:??_R1A@?0A@EA@facet@locale@std@@8 ; std::locale::facet::`RTTI Base Class Array'
	DD	FLAT:??_R1A@?0A@EA@_Facet_base@std@@8
	DD	FLAT:??_R13?0A@EA@_Crt_new_delete@std@@8
rdata$r	ENDS
;	COMDAT ??_R3facet@locale@std@@8
rdata$r	SEGMENT
??_R3facet@locale@std@@8 DD 00H				; std::locale::facet::`RTTI Class Hierarchy Descriptor'
	DD	01H
	DD	03H
	DD	FLAT:??_R2facet@locale@std@@8
rdata$r	ENDS
;	COMDAT ??_R0?AVfacet@locale@std@@@8
data$r	SEGMENT
??_R0?AVfacet@locale@std@@@8 DD FLAT:??_7type_info@@6B@	; std::locale::facet `RTTI Type Descriptor'
	DD	00H
	DB	'.?AVfacet@locale@std@@', 00H
data$r	ENDS
;	COMDAT ??_R1A@?0A@EA@facet@locale@std@@8
rdata$r	SEGMENT
??_R1A@?0A@EA@facet@locale@std@@8 DD FLAT:??_R0?AVfacet@locale@std@@@8 ; std::locale::facet::`RTTI Base Class Descriptor at (0,-1,0,64)'
	DD	02H
	DD	00H
	DD	0ffffffffH
	DD	00H
	DD	040H
	DD	FLAT:??_R3facet@locale@std@@8
rdata$r	ENDS
;	COMDAT ??_R1A@?0A@EA@_Facet_base@std@@8
rdata$r	SEGMENT
??_R1A@?0A@EA@_Facet_base@std@@8 DD FLAT:??_R0?AV_Facet_base@std@@@8 ; std::_Facet_base::`RTTI Base Class Descriptor at (0,-1,0,64)'
	DD	00H
	DD	00H
	DD	0ffffffffH
	DD	00H
	DD	040H
	DD	FLAT:??_R3_Facet_base@std@@8
rdata$r	ENDS
;	COMDAT ??_R2_Facet_base@std@@8
rdata$r	SEGMENT
??_R2_Facet_base@std@@8 DD FLAT:??_R1A@?0A@EA@_Facet_base@std@@8 ; std::_Facet_base::`RTTI Base Class Array'
rdata$r	ENDS
;	COMDAT ??_R3_Facet_base@std@@8
rdata$r	SEGMENT
??_R3_Facet_base@std@@8 DD 00H				; std::_Facet_base::`RTTI Class Hierarchy Descriptor'
	DD	00H
	DD	01H
	DD	FLAT:??_R2_Facet_base@std@@8
rdata$r	ENDS
;	COMDAT ??_R0?AV_Facet_base@std@@@8
data$r	SEGMENT
??_R0?AV_Facet_base@std@@@8 DD FLAT:??_7type_info@@6B@	; std::_Facet_base `RTTI Type Descriptor'
	DD	00H
	DB	'.?AV_Facet_base@std@@', 00H
data$r	ENDS
;	COMDAT ??_R4_Facet_base@std@@6B@
rdata$r	SEGMENT
??_R4_Facet_base@std@@6B@ DD 00H			; std::_Facet_base::`RTTI Complete Object Locator'
	DD	00H
	DD	00H
	DD	FLAT:??_R0?AV_Facet_base@std@@@8
	DD	FLAT:??_R3_Facet_base@std@@8
rdata$r	ENDS
;	COMDAT ??_R1A@?0A@EA@bad_cast@std@@8
rdata$r	SEGMENT
??_R1A@?0A@EA@bad_cast@std@@8 DD FLAT:??_R0?AVbad_cast@std@@@8 ; std::bad_cast::`RTTI Base Class Descriptor at (0,-1,0,64)'
	DD	01H
	DD	00H
	DD	0ffffffffH
	DD	00H
	DD	040H
	DD	FLAT:??_R3bad_cast@std@@8
rdata$r	ENDS
;	COMDAT ??_R2bad_cast@std@@8
rdata$r	SEGMENT
??_R2bad_cast@std@@8 DD FLAT:??_R1A@?0A@EA@bad_cast@std@@8 ; std::bad_cast::`RTTI Base Class Array'
	DD	FLAT:??_R1A@?0A@EA@exception@std@@8
rdata$r	ENDS
;	COMDAT ??_R3bad_cast@std@@8
rdata$r	SEGMENT
??_R3bad_cast@std@@8 DD 00H				; std::bad_cast::`RTTI Class Hierarchy Descriptor'
	DD	00H
	DD	02H
	DD	FLAT:??_R2bad_cast@std@@8
rdata$r	ENDS
;	COMDAT ??_R4bad_cast@std@@6B@
rdata$r	SEGMENT
??_R4bad_cast@std@@6B@ DD 00H				; std::bad_cast::`RTTI Complete Object Locator'
	DD	00H
	DD	00H
	DD	FLAT:??_R0?AVbad_cast@std@@@8
	DD	FLAT:??_R3bad_cast@std@@8
rdata$r	ENDS
;	COMDAT ??_R1A@?0A@EA@runtime_error@std@@8
rdata$r	SEGMENT
??_R1A@?0A@EA@runtime_error@std@@8 DD FLAT:??_R0?AVruntime_error@std@@@8 ; std::runtime_error::`RTTI Base Class Descriptor at (0,-1,0,64)'
	DD	01H
	DD	00H
	DD	0ffffffffH
	DD	00H
	DD	040H
	DD	FLAT:??_R3runtime_error@std@@8
rdata$r	ENDS
;	COMDAT ??_R2runtime_error@std@@8
rdata$r	SEGMENT
??_R2runtime_error@std@@8 DD FLAT:??_R1A@?0A@EA@runtime_error@std@@8 ; std::runtime_error::`RTTI Base Class Array'
	DD	FLAT:??_R1A@?0A@EA@exception@std@@8
rdata$r	ENDS
;	COMDAT ??_R3runtime_error@std@@8
rdata$r	SEGMENT
??_R3runtime_error@std@@8 DD 00H			; std::runtime_error::`RTTI Class Hierarchy Descriptor'
	DD	00H
	DD	02H
	DD	FLAT:??_R2runtime_error@std@@8
rdata$r	ENDS
;	COMDAT ??_R4runtime_error@std@@6B@
rdata$r	SEGMENT
??_R4runtime_error@std@@6B@ DD 00H			; std::runtime_error::`RTTI Complete Object Locator'
	DD	00H
	DD	00H
	DD	FLAT:??_R0?AVruntime_error@std@@@8
	DD	FLAT:??_R3runtime_error@std@@8
rdata$r	ENDS
;	COMDAT ??_R1A@?0A@EA@?$basic_stringstream@_WU?$char_traits@_W@std@@V?$allocator@_W@2@@std@@8
rdata$r	SEGMENT
??_R1A@?0A@EA@?$basic_stringstream@_WU?$char_traits@_W@std@@V?$allocator@_W@2@@std@@8 DD FLAT:??_R0?AV?$basic_stringstream@_WU?$char_traits@_W@std@@V?$allocator@_W@2@@std@@@8 ; std::basic_stringstream<wchar_t,std::char_traits<wchar_t>,std::allocator<wchar_t> >::`RTTI Base Class Descriptor at (0,-1,0,64)'
	DD	09H
	DD	00H
	DD	0ffffffffH
	DD	00H
	DD	040H
	DD	FLAT:??_R3?$basic_stringstream@_WU?$char_traits@_W@std@@V?$allocator@_W@2@@std@@8
rdata$r	ENDS
;	COMDAT ??_R2?$basic_stringstream@_WU?$char_traits@_W@std@@V?$allocator@_W@2@@std@@8
rdata$r	SEGMENT
??_R2?$basic_stringstream@_WU?$char_traits@_W@std@@V?$allocator@_W@2@@std@@8 DD FLAT:??_R1A@?0A@EA@?$basic_stringstream@_WU?$char_traits@_W@std@@V?$allocator@_W@2@@std@@8 ; std::basic_stringstream<wchar_t,std::char_traits<wchar_t>,std::allocator<wchar_t> >::`RTTI Base Class Array'
	DD	FLAT:??_R1A@?0A@EA@?$basic_iostream@_WU?$char_traits@_W@std@@@std@@8
	DD	FLAT:??_R1A@?0A@EA@?$basic_istream@_WU?$char_traits@_W@std@@@std@@8
	DD	FLAT:??_R1A@A@3FA@?$basic_ios@_WU?$char_traits@_W@std@@@std@@8
	DD	FLAT:??_R1A@A@3EA@ios_base@std@@8
	DD	FLAT:??_R17A@3EA@?$_Iosb@H@std@@8
	DD	FLAT:??_R1BA@?0A@EA@?$basic_ostream@_WU?$char_traits@_W@std@@@std@@8
	DD	FLAT:??_R1A@A@3FA@?$basic_ios@_WU?$char_traits@_W@std@@@std@@8
	DD	FLAT:??_R1A@A@3EA@ios_base@std@@8
	DD	FLAT:??_R17A@3EA@?$_Iosb@H@std@@8
rdata$r	ENDS
;	COMDAT ??_R3?$basic_stringstream@_WU?$char_traits@_W@std@@V?$allocator@_W@2@@std@@8
rdata$r	SEGMENT
??_R3?$basic_stringstream@_WU?$char_traits@_W@std@@V?$allocator@_W@2@@std@@8 DD 00H ; std::basic_stringstream<wchar_t,std::char_traits<wchar_t>,std::allocator<wchar_t> >::`RTTI Class Hierarchy Descriptor'
	DD	03H
	DD	0aH
	DD	FLAT:??_R2?$basic_stringstream@_WU?$char_traits@_W@std@@V?$allocator@_W@2@@std@@8
rdata$r	ENDS
;	COMDAT ??_R0?AV?$basic_stringstream@_WU?$char_traits@_W@std@@V?$allocator@_W@2@@std@@@8
data$r	SEGMENT
??_R0?AV?$basic_stringstream@_WU?$char_traits@_W@std@@V?$allocator@_W@2@@std@@@8 DD FLAT:??_7type_info@@6B@ ; std::basic_stringstream<wchar_t,std::char_traits<wchar_t>,std::allocator<wchar_t> > `RTTI Type Descriptor'
	DD	00H
	DB	'.?AV?$basic_stringstream@_WU?$char_traits@_W@std@@V?$all'
	DB	'ocator@_W@2@@std@@', 00H
data$r	ENDS
;	COMDAT ??_R4?$basic_stringstream@_WU?$char_traits@_W@std@@V?$allocator@_W@2@@std@@6B@
rdata$r	SEGMENT
??_R4?$basic_stringstream@_WU?$char_traits@_W@std@@V?$allocator@_W@2@@std@@6B@ DD 00H ; std::basic_stringstream<wchar_t,std::char_traits<wchar_t>,std::allocator<wchar_t> >::`RTTI Complete Object Locator'
	DD	068H
	DD	04H
	DD	FLAT:??_R0?AV?$basic_stringstream@_WU?$char_traits@_W@std@@V?$allocator@_W@2@@std@@@8
	DD	FLAT:??_R3?$basic_stringstream@_WU?$char_traits@_W@std@@V?$allocator@_W@2@@std@@8
rdata$r	ENDS
;	COMDAT ??_R1A@?0A@EA@?$basic_stringbuf@_WU?$char_traits@_W@std@@V?$allocator@_W@2@@std@@8
rdata$r	SEGMENT
??_R1A@?0A@EA@?$basic_stringbuf@_WU?$char_traits@_W@std@@V?$allocator@_W@2@@std@@8 DD FLAT:??_R0?AV?$basic_stringbuf@_WU?$char_traits@_W@std@@V?$allocator@_W@2@@std@@@8 ; std::basic_stringbuf<wchar_t,std::char_traits<wchar_t>,std::allocator<wchar_t> >::`RTTI Base Class Descriptor at (0,-1,0,64)'
	DD	01H
	DD	00H
	DD	0ffffffffH
	DD	00H
	DD	040H
	DD	FLAT:??_R3?$basic_stringbuf@_WU?$char_traits@_W@std@@V?$allocator@_W@2@@std@@8
rdata$r	ENDS
;	COMDAT ??_R2?$basic_stringbuf@_WU?$char_traits@_W@std@@V?$allocator@_W@2@@std@@8
rdata$r	SEGMENT
??_R2?$basic_stringbuf@_WU?$char_traits@_W@std@@V?$allocator@_W@2@@std@@8 DD FLAT:??_R1A@?0A@EA@?$basic_stringbuf@_WU?$char_traits@_W@std@@V?$allocator@_W@2@@std@@8 ; std::basic_stringbuf<wchar_t,std::char_traits<wchar_t>,std::allocator<wchar_t> >::`RTTI Base Class Array'
	DD	FLAT:??_R1A@?0A@EA@?$basic_streambuf@_WU?$char_traits@_W@std@@@std@@8
rdata$r	ENDS
;	COMDAT ??_R3?$basic_stringbuf@_WU?$char_traits@_W@std@@V?$allocator@_W@2@@std@@8
rdata$r	SEGMENT
??_R3?$basic_stringbuf@_WU?$char_traits@_W@std@@V?$allocator@_W@2@@std@@8 DD 00H ; std::basic_stringbuf<wchar_t,std::char_traits<wchar_t>,std::allocator<wchar_t> >::`RTTI Class Hierarchy Descriptor'
	DD	00H
	DD	02H
	DD	FLAT:??_R2?$basic_stringbuf@_WU?$char_traits@_W@std@@V?$allocator@_W@2@@std@@8
rdata$r	ENDS
;	COMDAT ??_R0?AV?$basic_stringbuf@_WU?$char_traits@_W@std@@V?$allocator@_W@2@@std@@@8
data$r	SEGMENT
??_R0?AV?$basic_stringbuf@_WU?$char_traits@_W@std@@V?$allocator@_W@2@@std@@@8 DD FLAT:??_7type_info@@6B@ ; std::basic_stringbuf<wchar_t,std::char_traits<wchar_t>,std::allocator<wchar_t> > `RTTI Type Descriptor'
	DD	00H
	DB	'.?AV?$basic_stringbuf@_WU?$char_traits@_W@std@@V?$alloca'
	DB	'tor@_W@2@@std@@', 00H
data$r	ENDS
;	COMDAT ??_R4?$basic_stringbuf@_WU?$char_traits@_W@std@@V?$allocator@_W@2@@std@@6B@
rdata$r	SEGMENT
??_R4?$basic_stringbuf@_WU?$char_traits@_W@std@@V?$allocator@_W@2@@std@@6B@ DD 00H ; std::basic_stringbuf<wchar_t,std::char_traits<wchar_t>,std::allocator<wchar_t> >::`RTTI Complete Object Locator'
	DD	00H
	DD	00H
	DD	FLAT:??_R0?AV?$basic_stringbuf@_WU?$char_traits@_W@std@@V?$allocator@_W@2@@std@@@8
	DD	FLAT:??_R3?$basic_stringbuf@_WU?$char_traits@_W@std@@V?$allocator@_W@2@@std@@8
rdata$r	ENDS
;	COMDAT ??_R1BA@?0A@EA@?$basic_ostream@_WU?$char_traits@_W@std@@@std@@8
rdata$r	SEGMENT
??_R1BA@?0A@EA@?$basic_ostream@_WU?$char_traits@_W@std@@@std@@8 DD FLAT:??_R0?AV?$basic_ostream@_WU?$char_traits@_W@std@@@std@@@8 ; std::basic_ostream<wchar_t,std::char_traits<wchar_t> >::`RTTI Base Class Descriptor at (16,-1,0,64)'
	DD	03H
	DD	010H
	DD	0ffffffffH
	DD	00H
	DD	040H
	DD	FLAT:??_R3?$basic_ostream@_WU?$char_traits@_W@std@@@std@@8
rdata$r	ENDS
;	COMDAT ??_R1A@?0A@EA@?$basic_iostream@_WU?$char_traits@_W@std@@@std@@8
rdata$r	SEGMENT
??_R1A@?0A@EA@?$basic_iostream@_WU?$char_traits@_W@std@@@std@@8 DD FLAT:??_R0?AV?$basic_iostream@_WU?$char_traits@_W@std@@@std@@@8 ; std::basic_iostream<wchar_t,std::char_traits<wchar_t> >::`RTTI Base Class Descriptor at (0,-1,0,64)'
	DD	08H
	DD	00H
	DD	0ffffffffH
	DD	00H
	DD	040H
	DD	FLAT:??_R3?$basic_iostream@_WU?$char_traits@_W@std@@@std@@8
rdata$r	ENDS
;	COMDAT ??_R2?$basic_iostream@_WU?$char_traits@_W@std@@@std@@8
rdata$r	SEGMENT
??_R2?$basic_iostream@_WU?$char_traits@_W@std@@@std@@8 DD FLAT:??_R1A@?0A@EA@?$basic_iostream@_WU?$char_traits@_W@std@@@std@@8 ; std::basic_iostream<wchar_t,std::char_traits<wchar_t> >::`RTTI Base Class Array'
	DD	FLAT:??_R1A@?0A@EA@?$basic_istream@_WU?$char_traits@_W@std@@@std@@8
	DD	FLAT:??_R1A@A@3FA@?$basic_ios@_WU?$char_traits@_W@std@@@std@@8
	DD	FLAT:??_R1A@A@3EA@ios_base@std@@8
	DD	FLAT:??_R17A@3EA@?$_Iosb@H@std@@8
	DD	FLAT:??_R1BA@?0A@EA@?$basic_ostream@_WU?$char_traits@_W@std@@@std@@8
	DD	FLAT:??_R1A@A@3FA@?$basic_ios@_WU?$char_traits@_W@std@@@std@@8
	DD	FLAT:??_R1A@A@3EA@ios_base@std@@8
	DD	FLAT:??_R17A@3EA@?$_Iosb@H@std@@8
rdata$r	ENDS
;	COMDAT ??_R3?$basic_iostream@_WU?$char_traits@_W@std@@@std@@8
rdata$r	SEGMENT
??_R3?$basic_iostream@_WU?$char_traits@_W@std@@@std@@8 DD 00H ; std::basic_iostream<wchar_t,std::char_traits<wchar_t> >::`RTTI Class Hierarchy Descriptor'
	DD	03H
	DD	09H
	DD	FLAT:??_R2?$basic_iostream@_WU?$char_traits@_W@std@@@std@@8
rdata$r	ENDS
;	COMDAT ??_R0?AV?$basic_iostream@_WU?$char_traits@_W@std@@@std@@@8
data$r	SEGMENT
??_R0?AV?$basic_iostream@_WU?$char_traits@_W@std@@@std@@@8 DD FLAT:??_7type_info@@6B@ ; std::basic_iostream<wchar_t,std::char_traits<wchar_t> > `RTTI Type Descriptor'
	DD	00H
	DB	'.?AV?$basic_iostream@_WU?$char_traits@_W@std@@@std@@', 00H
data$r	ENDS
;	COMDAT ??_R4?$basic_iostream@_WU?$char_traits@_W@std@@@std@@6B@
rdata$r	SEGMENT
??_R4?$basic_iostream@_WU?$char_traits@_W@std@@@std@@6B@ DD 00H ; std::basic_iostream<wchar_t,std::char_traits<wchar_t> >::`RTTI Complete Object Locator'
	DD	020H
	DD	04H
	DD	FLAT:??_R0?AV?$basic_iostream@_WU?$char_traits@_W@std@@@std@@@8
	DD	FLAT:??_R3?$basic_iostream@_WU?$char_traits@_W@std@@@std@@8
rdata$r	ENDS
;	COMDAT ??_R1A@?0A@EA@?$basic_ostream@_WU?$char_traits@_W@std@@@std@@8
rdata$r	SEGMENT
??_R1A@?0A@EA@?$basic_ostream@_WU?$char_traits@_W@std@@@std@@8 DD FLAT:??_R0?AV?$basic_ostream@_WU?$char_traits@_W@std@@@std@@@8 ; std::basic_ostream<wchar_t,std::char_traits<wchar_t> >::`RTTI Base Class Descriptor at (0,-1,0,64)'
	DD	03H
	DD	00H
	DD	0ffffffffH
	DD	00H
	DD	040H
	DD	FLAT:??_R3?$basic_ostream@_WU?$char_traits@_W@std@@@std@@8
rdata$r	ENDS
;	COMDAT ??_R2?$basic_ostream@_WU?$char_traits@_W@std@@@std@@8
rdata$r	SEGMENT
??_R2?$basic_ostream@_WU?$char_traits@_W@std@@@std@@8 DD FLAT:??_R1A@?0A@EA@?$basic_ostream@_WU?$char_traits@_W@std@@@std@@8 ; std::basic_ostream<wchar_t,std::char_traits<wchar_t> >::`RTTI Base Class Array'
	DD	FLAT:??_R1A@A@3FA@?$basic_ios@_WU?$char_traits@_W@std@@@std@@8
	DD	FLAT:??_R1A@A@3EA@ios_base@std@@8
	DD	FLAT:??_R17A@3EA@?$_Iosb@H@std@@8
rdata$r	ENDS
;	COMDAT ??_R3?$basic_ostream@_WU?$char_traits@_W@std@@@std@@8
rdata$r	SEGMENT
??_R3?$basic_ostream@_WU?$char_traits@_W@std@@@std@@8 DD 00H ; std::basic_ostream<wchar_t,std::char_traits<wchar_t> >::`RTTI Class Hierarchy Descriptor'
	DD	00H
	DD	04H
	DD	FLAT:??_R2?$basic_ostream@_WU?$char_traits@_W@std@@@std@@8
rdata$r	ENDS
;	COMDAT ??_R0?AV?$basic_ostream@_WU?$char_traits@_W@std@@@std@@@8
data$r	SEGMENT
??_R0?AV?$basic_ostream@_WU?$char_traits@_W@std@@@std@@@8 DD FLAT:??_7type_info@@6B@ ; std::basic_ostream<wchar_t,std::char_traits<wchar_t> > `RTTI Type Descriptor'
	DD	00H
	DB	'.?AV?$basic_ostream@_WU?$char_traits@_W@std@@@std@@', 00H
data$r	ENDS
;	COMDAT ??_R4?$basic_ostream@_WU?$char_traits@_W@std@@@std@@6B@
rdata$r	SEGMENT
??_R4?$basic_ostream@_WU?$char_traits@_W@std@@@std@@6B@ DD 00H ; std::basic_ostream<wchar_t,std::char_traits<wchar_t> >::`RTTI Complete Object Locator'
	DD	08H
	DD	04H
	DD	FLAT:??_R0?AV?$basic_ostream@_WU?$char_traits@_W@std@@@std@@@8
	DD	FLAT:??_R3?$basic_ostream@_WU?$char_traits@_W@std@@@std@@8
rdata$r	ENDS
;	COMDAT ??_R17A@3EA@?$_Iosb@H@std@@8
rdata$r	SEGMENT
??_R17A@3EA@?$_Iosb@H@std@@8 DD FLAT:??_R0?AV?$_Iosb@H@std@@@8 ; std::_Iosb<int>::`RTTI Base Class Descriptor at (8,0,4,64)'
	DD	00H
	DD	08H
	DD	00H
	DD	04H
	DD	040H
	DD	FLAT:??_R3?$_Iosb@H@std@@8
rdata$r	ENDS
;	COMDAT ??_R1A@A@3EA@ios_base@std@@8
rdata$r	SEGMENT
??_R1A@A@3EA@ios_base@std@@8 DD FLAT:??_R0?AVios_base@std@@@8 ; std::ios_base::`RTTI Base Class Descriptor at (0,0,4,64)'
	DD	01H
	DD	00H
	DD	00H
	DD	04H
	DD	040H
	DD	FLAT:??_R3ios_base@std@@8
rdata$r	ENDS
;	COMDAT ??_R1A@A@3FA@?$basic_ios@_WU?$char_traits@_W@std@@@std@@8
rdata$r	SEGMENT
??_R1A@A@3FA@?$basic_ios@_WU?$char_traits@_W@std@@@std@@8 DD FLAT:??_R0?AV?$basic_ios@_WU?$char_traits@_W@std@@@std@@@8 ; std::basic_ios<wchar_t,std::char_traits<wchar_t> >::`RTTI Base Class Descriptor at (0,0,4,80)'
	DD	02H
	DD	00H
	DD	00H
	DD	04H
	DD	050H
	DD	FLAT:??_R3?$basic_ios@_WU?$char_traits@_W@std@@@std@@8
rdata$r	ENDS
;	COMDAT ??_R1A@?0A@EA@?$basic_istream@_WU?$char_traits@_W@std@@@std@@8
rdata$r	SEGMENT
??_R1A@?0A@EA@?$basic_istream@_WU?$char_traits@_W@std@@@std@@8 DD FLAT:??_R0?AV?$basic_istream@_WU?$char_traits@_W@std@@@std@@@8 ; std::basic_istream<wchar_t,std::char_traits<wchar_t> >::`RTTI Base Class Descriptor at (0,-1,0,64)'
	DD	03H
	DD	00H
	DD	0ffffffffH
	DD	00H
	DD	040H
	DD	FLAT:??_R3?$basic_istream@_WU?$char_traits@_W@std@@@std@@8
rdata$r	ENDS
;	COMDAT ??_R2?$basic_istream@_WU?$char_traits@_W@std@@@std@@8
rdata$r	SEGMENT
??_R2?$basic_istream@_WU?$char_traits@_W@std@@@std@@8 DD FLAT:??_R1A@?0A@EA@?$basic_istream@_WU?$char_traits@_W@std@@@std@@8 ; std::basic_istream<wchar_t,std::char_traits<wchar_t> >::`RTTI Base Class Array'
	DD	FLAT:??_R1A@A@3FA@?$basic_ios@_WU?$char_traits@_W@std@@@std@@8
	DD	FLAT:??_R1A@A@3EA@ios_base@std@@8
	DD	FLAT:??_R17A@3EA@?$_Iosb@H@std@@8
rdata$r	ENDS
;	COMDAT ??_R3?$basic_istream@_WU?$char_traits@_W@std@@@std@@8
rdata$r	SEGMENT
??_R3?$basic_istream@_WU?$char_traits@_W@std@@@std@@8 DD 00H ; std::basic_istream<wchar_t,std::char_traits<wchar_t> >::`RTTI Class Hierarchy Descriptor'
	DD	00H
	DD	04H
	DD	FLAT:??_R2?$basic_istream@_WU?$char_traits@_W@std@@@std@@8
rdata$r	ENDS
;	COMDAT ??_R0?AV?$basic_istream@_WU?$char_traits@_W@std@@@std@@@8
data$r	SEGMENT
??_R0?AV?$basic_istream@_WU?$char_traits@_W@std@@@std@@@8 DD FLAT:??_7type_info@@6B@ ; std::basic_istream<wchar_t,std::char_traits<wchar_t> > `RTTI Type Descriptor'
	DD	00H
	DB	'.?AV?$basic_istream@_WU?$char_traits@_W@std@@@std@@', 00H
data$r	ENDS
;	COMDAT ??_R4?$basic_istream@_WU?$char_traits@_W@std@@@std@@6B@
rdata$r	SEGMENT
??_R4?$basic_istream@_WU?$char_traits@_W@std@@@std@@6B@ DD 00H ; std::basic_istream<wchar_t,std::char_traits<wchar_t> >::`RTTI Complete Object Locator'
	DD	018H
	DD	04H
	DD	FLAT:??_R0?AV?$basic_istream@_WU?$char_traits@_W@std@@@std@@@8
	DD	FLAT:??_R3?$basic_istream@_WU?$char_traits@_W@std@@@std@@8
rdata$r	ENDS
;	COMDAT ??_R1A@?0A@EA@?$basic_streambuf@_WU?$char_traits@_W@std@@@std@@8
rdata$r	SEGMENT
??_R1A@?0A@EA@?$basic_streambuf@_WU?$char_traits@_W@std@@@std@@8 DD FLAT:??_R0?AV?$basic_streambuf@_WU?$char_traits@_W@std@@@std@@@8 ; std::basic_streambuf<wchar_t,std::char_traits<wchar_t> >::`RTTI Base Class Descriptor at (0,-1,0,64)'
	DD	00H
	DD	00H
	DD	0ffffffffH
	DD	00H
	DD	040H
	DD	FLAT:??_R3?$basic_streambuf@_WU?$char_traits@_W@std@@@std@@8
rdata$r	ENDS
;	COMDAT ??_R2?$basic_streambuf@_WU?$char_traits@_W@std@@@std@@8
rdata$r	SEGMENT
??_R2?$basic_streambuf@_WU?$char_traits@_W@std@@@std@@8 DD FLAT:??_R1A@?0A@EA@?$basic_streambuf@_WU?$char_traits@_W@std@@@std@@8 ; std::basic_streambuf<wchar_t,std::char_traits<wchar_t> >::`RTTI Base Class Array'
rdata$r	ENDS
;	COMDAT ??_R3?$basic_streambuf@_WU?$char_traits@_W@std@@@std@@8
rdata$r	SEGMENT
??_R3?$basic_streambuf@_WU?$char_traits@_W@std@@@std@@8 DD 00H ; std::basic_streambuf<wchar_t,std::char_traits<wchar_t> >::`RTTI Class Hierarchy Descriptor'
	DD	00H
	DD	01H
	DD	FLAT:??_R2?$basic_streambuf@_WU?$char_traits@_W@std@@@std@@8
rdata$r	ENDS
;	COMDAT ??_R0?AV?$basic_streambuf@_WU?$char_traits@_W@std@@@std@@@8
data$r	SEGMENT
??_R0?AV?$basic_streambuf@_WU?$char_traits@_W@std@@@std@@@8 DD FLAT:??_7type_info@@6B@ ; std::basic_streambuf<wchar_t,std::char_traits<wchar_t> > `RTTI Type Descriptor'
	DD	00H
	DB	'.?AV?$basic_streambuf@_WU?$char_traits@_W@std@@@std@@', 00H
data$r	ENDS
;	COMDAT ??_R4?$basic_streambuf@_WU?$char_traits@_W@std@@@std@@6B@
rdata$r	SEGMENT
??_R4?$basic_streambuf@_WU?$char_traits@_W@std@@@std@@6B@ DD 00H ; std::basic_streambuf<wchar_t,std::char_traits<wchar_t> >::`RTTI Complete Object Locator'
	DD	00H
	DD	00H
	DD	FLAT:??_R0?AV?$basic_streambuf@_WU?$char_traits@_W@std@@@std@@@8
	DD	FLAT:??_R3?$basic_streambuf@_WU?$char_traits@_W@std@@@std@@8
rdata$r	ENDS
;	COMDAT ??_R1A@?0A@EA@?$basic_ios@_WU?$char_traits@_W@std@@@std@@8
rdata$r	SEGMENT
??_R1A@?0A@EA@?$basic_ios@_WU?$char_traits@_W@std@@@std@@8 DD FLAT:??_R0?AV?$basic_ios@_WU?$char_traits@_W@std@@@std@@@8 ; std::basic_ios<wchar_t,std::char_traits<wchar_t> >::`RTTI Base Class Descriptor at (0,-1,0,64)'
	DD	02H
	DD	00H
	DD	0ffffffffH
	DD	00H
	DD	040H
	DD	FLAT:??_R3?$basic_ios@_WU?$char_traits@_W@std@@@std@@8
rdata$r	ENDS
;	COMDAT ??_R2?$basic_ios@_WU?$char_traits@_W@std@@@std@@8
rdata$r	SEGMENT
??_R2?$basic_ios@_WU?$char_traits@_W@std@@@std@@8 DD FLAT:??_R1A@?0A@EA@?$basic_ios@_WU?$char_traits@_W@std@@@std@@8 ; std::basic_ios<wchar_t,std::char_traits<wchar_t> >::`RTTI Base Class Array'
	DD	FLAT:??_R1A@?0A@EA@ios_base@std@@8
	DD	FLAT:??_R17?0A@EA@?$_Iosb@H@std@@8
rdata$r	ENDS
;	COMDAT ??_R3?$basic_ios@_WU?$char_traits@_W@std@@@std@@8
rdata$r	SEGMENT
??_R3?$basic_ios@_WU?$char_traits@_W@std@@@std@@8 DD 00H ; std::basic_ios<wchar_t,std::char_traits<wchar_t> >::`RTTI Class Hierarchy Descriptor'
	DD	00H
	DD	03H
	DD	FLAT:??_R2?$basic_ios@_WU?$char_traits@_W@std@@@std@@8
rdata$r	ENDS
;	COMDAT ??_R0?AV?$basic_ios@_WU?$char_traits@_W@std@@@std@@@8
data$r	SEGMENT
??_R0?AV?$basic_ios@_WU?$char_traits@_W@std@@@std@@@8 DD FLAT:??_7type_info@@6B@ ; std::basic_ios<wchar_t,std::char_traits<wchar_t> > `RTTI Type Descriptor'
	DD	00H
	DB	'.?AV?$basic_ios@_WU?$char_traits@_W@std@@@std@@', 00H
data$r	ENDS
;	COMDAT ??_R4?$basic_ios@_WU?$char_traits@_W@std@@@std@@6B@
rdata$r	SEGMENT
??_R4?$basic_ios@_WU?$char_traits@_W@std@@@std@@6B@ DD 00H ; std::basic_ios<wchar_t,std::char_traits<wchar_t> >::`RTTI Complete Object Locator'
	DD	00H
	DD	00H
	DD	FLAT:??_R0?AV?$basic_ios@_WU?$char_traits@_W@std@@@std@@@8
	DD	FLAT:??_R3?$basic_ios@_WU?$char_traits@_W@std@@@std@@8
rdata$r	ENDS
;	COMDAT ??_R1A@?0A@EA@?$_Iosb@H@std@@8
rdata$r	SEGMENT
??_R1A@?0A@EA@?$_Iosb@H@std@@8 DD FLAT:??_R0?AV?$_Iosb@H@std@@@8 ; std::_Iosb<int>::`RTTI Base Class Descriptor at (0,-1,0,64)'
	DD	00H
	DD	00H
	DD	0ffffffffH
	DD	00H
	DD	040H
	DD	FLAT:??_R3?$_Iosb@H@std@@8
rdata$r	ENDS
;	COMDAT ??_R2?$_Iosb@H@std@@8
rdata$r	SEGMENT
??_R2?$_Iosb@H@std@@8 DD FLAT:??_R1A@?0A@EA@?$_Iosb@H@std@@8 ; std::_Iosb<int>::`RTTI Base Class Array'
rdata$r	ENDS
;	COMDAT ??_R3?$_Iosb@H@std@@8
rdata$r	SEGMENT
??_R3?$_Iosb@H@std@@8 DD 00H				; std::_Iosb<int>::`RTTI Class Hierarchy Descriptor'
	DD	00H
	DD	01H
	DD	FLAT:??_R2?$_Iosb@H@std@@8
rdata$r	ENDS
;	COMDAT ??_R0?AV?$_Iosb@H@std@@@8
data$r	SEGMENT
??_R0?AV?$_Iosb@H@std@@@8 DD FLAT:??_7type_info@@6B@	; std::_Iosb<int> `RTTI Type Descriptor'
	DD	00H
	DB	'.?AV?$_Iosb@H@std@@', 00H
data$r	ENDS
;	COMDAT ??_R17?0A@EA@?$_Iosb@H@std@@8
rdata$r	SEGMENT
??_R17?0A@EA@?$_Iosb@H@std@@8 DD FLAT:??_R0?AV?$_Iosb@H@std@@@8 ; std::_Iosb<int>::`RTTI Base Class Descriptor at (8,-1,0,64)'
	DD	00H
	DD	08H
	DD	0ffffffffH
	DD	00H
	DD	040H
	DD	FLAT:??_R3?$_Iosb@H@std@@8
rdata$r	ENDS
;	COMDAT ??_R1A@?0A@EA@ios_base@std@@8
rdata$r	SEGMENT
??_R1A@?0A@EA@ios_base@std@@8 DD FLAT:??_R0?AVios_base@std@@@8 ; std::ios_base::`RTTI Base Class Descriptor at (0,-1,0,64)'
	DD	01H
	DD	00H
	DD	0ffffffffH
	DD	00H
	DD	040H
	DD	FLAT:??_R3ios_base@std@@8
rdata$r	ENDS
;	COMDAT ??_R2ios_base@std@@8
rdata$r	SEGMENT
??_R2ios_base@std@@8 DD FLAT:??_R1A@?0A@EA@ios_base@std@@8 ; std::ios_base::`RTTI Base Class Array'
	DD	FLAT:??_R17?0A@EA@?$_Iosb@H@std@@8
rdata$r	ENDS
;	COMDAT ??_R3ios_base@std@@8
rdata$r	SEGMENT
??_R3ios_base@std@@8 DD 00H				; std::ios_base::`RTTI Class Hierarchy Descriptor'
	DD	00H
	DD	02H
	DD	FLAT:??_R2ios_base@std@@8
rdata$r	ENDS
;	COMDAT ??_R0?AVios_base@std@@@8
data$r	SEGMENT
??_R0?AVios_base@std@@@8 DD FLAT:??_7type_info@@6B@	; std::ios_base `RTTI Type Descriptor'
	DD	00H
	DB	'.?AVios_base@std@@', 00H
data$r	ENDS
;	COMDAT ??_R4ios_base@std@@6B@
rdata$r	SEGMENT
??_R4ios_base@std@@6B@ DD 00H				; std::ios_base::`RTTI Complete Object Locator'
	DD	00H
	DD	00H
	DD	FLAT:??_R0?AVios_base@std@@@8
	DD	FLAT:??_R3ios_base@std@@8
rdata$r	ENDS
;	COMDAT ??_R1A@?0A@EA@exception@std@@8
rdata$r	SEGMENT
??_R1A@?0A@EA@exception@std@@8 DD FLAT:??_R0?AVexception@std@@@8 ; std::exception::`RTTI Base Class Descriptor at (0,-1,0,64)'
	DD	00H
	DD	00H
	DD	0ffffffffH
	DD	00H
	DD	040H
	DD	FLAT:??_R3exception@std@@8
rdata$r	ENDS
;	COMDAT ??_R2exception@std@@8
rdata$r	SEGMENT
??_R2exception@std@@8 DD FLAT:??_R1A@?0A@EA@exception@std@@8 ; std::exception::`RTTI Base Class Array'
rdata$r	ENDS
;	COMDAT ??_R3exception@std@@8
rdata$r	SEGMENT
??_R3exception@std@@8 DD 00H				; std::exception::`RTTI Class Hierarchy Descriptor'
	DD	00H
	DD	01H
	DD	FLAT:??_R2exception@std@@8
rdata$r	ENDS
;	COMDAT ??_R4exception@std@@6B@
rdata$r	SEGMENT
??_R4exception@std@@6B@ DD 00H				; std::exception::`RTTI Complete Object Locator'
	DD	00H
	DD	00H
	DD	FLAT:??_R0?AVexception@std@@@8
	DD	FLAT:??_R3exception@std@@8
rdata$r	ENDS
;	COMDAT __CT??_R0?AVbad_cast@std@@@8??0bad_cast@std@@QAE@ABV01@@Z12
xdata$x	SEGMENT
__CT??_R0?AVbad_cast@std@@@8??0bad_cast@std@@QAE@ABV01@@Z12 DD 00H
	DD	FLAT:??_R0?AVbad_cast@std@@@8
	DD	00H
	DD	0ffffffffH
	ORG $+4
	DD	0cH
	DD	FLAT:??0bad_cast@std@@QAE@ABV01@@Z
xdata$x	ENDS
;	COMDAT ??_R0?AVbad_cast@std@@@8
data$r	SEGMENT
??_R0?AVbad_cast@std@@@8 DD FLAT:??_7type_info@@6B@	; std::bad_cast `RTTI Type Descriptor'
	DD	00H
	DB	'.?AVbad_cast@std@@', 00H
data$r	ENDS
;	COMDAT __CTA2?AVbad_cast@std@@
xdata$x	SEGMENT
__CTA2?AVbad_cast@std@@ DD 02H
	DD	FLAT:__CT??_R0?AVbad_cast@std@@@8??0bad_cast@std@@QAE@ABV01@@Z12
	DD	FLAT:__CT??_R0?AVexception@std@@@8??0exception@std@@QAE@ABV01@@Z12
xdata$x	ENDS
;	COMDAT __TI2?AVbad_cast@std@@
xdata$x	SEGMENT
__TI2?AVbad_cast@std@@ DD 00H
	DD	FLAT:??1bad_cast@std@@UAE@XZ
	DD	00H
	DD	FLAT:__CTA2?AVbad_cast@std@@
xdata$x	ENDS
;	COMDAT ??_C@_0BI@CFPLBAOH@invalid?5string?5position?$AA@
CONST	SEGMENT
??_C@_0BI@CFPLBAOH@invalid?5string?5position?$AA@ DB 'invalid string posi'
	DB	'tion', 00H					; `string'
CONST	ENDS
;	COMDAT ??_C@_0BA@JFNIOLAK@string?5too?5long?$AA@
CONST	SEGMENT
??_C@_0BA@JFNIOLAK@string?5too?5long?$AA@ DB 'string too long', 00H ; `string'
CONST	ENDS
;	COMDAT ??_C@_0BD@OLBABOEK@vector?$DMT?$DO?5too?5long?$AA@
CONST	SEGMENT
??_C@_0BD@OLBABOEK@vector?$DMT?$DO?5too?5long?$AA@ DB 'vector<T> too long'
	DB	00H						; `string'
CONST	ENDS
;	COMDAT ??_C@_01LFCBOECM@?4?$AA@
CONST	SEGMENT
??_C@_01LFCBOECM@?4?$AA@ DB '.', 00H			; `string'
CONST	ENDS
;	COMDAT ??_C@_02OOPEBDOJ@pP?$AA@
CONST	SEGMENT
??_C@_02OOPEBDOJ@pP?$AA@ DB 'pP', 00H			; `string'
CONST	ENDS
;	COMDAT ??_C@_02MDKMJEGG@eE?$AA@
CONST	SEGMENT
??_C@_02MDKMJEGG@eE?$AA@ DB 'eE', 00H			; `string'
CONST	ENDS
;	COMDAT ??_7?$numpunct@_W@std@@6B@
CONST	SEGMENT
??_7?$numpunct@_W@std@@6B@ DD FLAT:??_R4?$numpunct@_W@std@@6B@ ; std::numpunct<wchar_t>::`vftable'
	DD	FLAT:??_E?$numpunct@_W@std@@MAEPAXI@Z
	DD	FLAT:?_Incref@facet@locale@std@@UAEXXZ
	DD	FLAT:?_Decref@facet@locale@std@@UAEPAV_Facet_base@3@XZ
	DD	FLAT:?do_decimal_point@?$numpunct@_W@std@@MBE_WXZ
	DD	FLAT:?do_thousands_sep@?$numpunct@_W@std@@MBE_WXZ
	DD	FLAT:?do_grouping@?$numpunct@_W@std@@MBE?AV?$basic_string@DU?$char_traits@D@std@@V?$allocator@D@2@@2@XZ
	DD	FLAT:?do_falsename@?$numpunct@_W@std@@MBE?AV?$basic_string@_WU?$char_traits@_W@std@@V?$allocator@_W@2@@2@XZ
	DD	FLAT:?do_truename@?$numpunct@_W@std@@MBE?AV?$basic_string@_WU?$char_traits@_W@std@@V?$allocator@_W@2@@2@XZ
CONST	ENDS
;	COMDAT ??_C@_02EAOCLKAK@ld?$AA@
CONST	SEGMENT
??_C@_02EAOCLKAK@ld?$AA@ DB 'ld', 00H			; `string'
CONST	ENDS
;	COMDAT ??_C@_02BDDLJJBK@lu?$AA@
CONST	SEGMENT
??_C@_02BDDLJJBK@lu?$AA@ DB 'lu', 00H			; `string'
CONST	ENDS
;	COMDAT ??_C@_02HIKPPMOK@Ld?$AA@
CONST	SEGMENT
??_C@_02HIKPPMOK@Ld?$AA@ DB 'Ld', 00H			; `string'
CONST	ENDS
;	COMDAT ??_C@_02CLHGNPPK@Lu?$AA@
CONST	SEGMENT
??_C@_02CLHGNPPK@Lu?$AA@ DB 'Lu', 00H			; `string'
CONST	ENDS
;	COMDAT ??_C@_02BBAHNLBA@?$CFp?$AA@
CONST	SEGMENT
??_C@_02BBAHNLBA@?$CFp?$AA@ DB '%p', 00H		; `string'
CONST	ENDS
;	COMDAT ??_7?$num_put@_WV?$ostreambuf_iterator@_WU?$char_traits@_W@std@@@std@@@std@@6B@
CONST	SEGMENT
??_7?$num_put@_WV?$ostreambuf_iterator@_WU?$char_traits@_W@std@@@std@@@std@@6B@ DD FLAT:??_R4?$num_put@_WV?$ostreambuf_iterator@_WU?$char_traits@_W@std@@@std@@@std@@6B@ ; std::num_put<wchar_t,std::ostreambuf_iterator<wchar_t,std::char_traits<wchar_t> > >::`vftable'
	DD	FLAT:??_E?$num_put@_WV?$ostreambuf_iterator@_WU?$char_traits@_W@std@@@std@@@std@@MAEPAXI@Z
	DD	FLAT:?_Incref@facet@locale@std@@UAEXXZ
	DD	FLAT:?_Decref@facet@locale@std@@UAEPAV_Facet_base@3@XZ
	DD	FLAT:?do_put@?$num_put@_WV?$ostreambuf_iterator@_WU?$char_traits@_W@std@@@std@@@std@@MBE?AV?$ostreambuf_iterator@_WU?$char_traits@_W@std@@@2@V32@AAVios_base@2@_WPBX@Z
	DD	FLAT:?do_put@?$num_put@_WV?$ostreambuf_iterator@_WU?$char_traits@_W@std@@@std@@@std@@MBE?AV?$ostreambuf_iterator@_WU?$char_traits@_W@std@@@2@V32@AAVios_base@2@_WO@Z
	DD	FLAT:?do_put@?$num_put@_WV?$ostreambuf_iterator@_WU?$char_traits@_W@std@@@std@@@std@@MBE?AV?$ostreambuf_iterator@_WU?$char_traits@_W@std@@@2@V32@AAVios_base@2@_WN@Z
	DD	FLAT:?do_put@?$num_put@_WV?$ostreambuf_iterator@_WU?$char_traits@_W@std@@@std@@@std@@MBE?AV?$ostreambuf_iterator@_WU?$char_traits@_W@std@@@2@V32@AAVios_base@2@_W_K@Z
	DD	FLAT:?do_put@?$num_put@_WV?$ostreambuf_iterator@_WU?$char_traits@_W@std@@@std@@@std@@MBE?AV?$ostreambuf_iterator@_WU?$char_traits@_W@std@@@2@V32@AAVios_base@2@_W_J@Z
	DD	FLAT:?do_put@?$num_put@_WV?$ostreambuf_iterator@_WU?$char_traits@_W@std@@@std@@@std@@MBE?AV?$ostreambuf_iterator@_WU?$char_traits@_W@std@@@2@V32@AAVios_base@2@_WK@Z
	DD	FLAT:?do_put@?$num_put@_WV?$ostreambuf_iterator@_WU?$char_traits@_W@std@@@std@@@std@@MBE?AV?$ostreambuf_iterator@_WU?$char_traits@_W@std@@@2@V32@AAVios_base@2@_WJ@Z
	DD	FLAT:?do_put@?$num_put@_WV?$ostreambuf_iterator@_WU?$char_traits@_W@std@@@std@@@std@@MBE?AV?$ostreambuf_iterator@_WU?$char_traits@_W@std@@@2@V32@AAVios_base@2@_W_N@Z
CONST	ENDS
;	COMDAT ??_C@_0BG@DKEEGIEL@ERR_SELF_TESTS_FAILED?$AA@
CONST	SEGMENT
??_C@_0BG@DKEEGIEL@ERR_SELF_TESTS_FAILED?$AA@ DB 'ERR_SELF_TESTS_FAILED', 00H ; `string'
CONST	ENDS
;	COMDAT ??_C@_08ELEAABKI@NODRIVER?$AA@
CONST	SEGMENT
??_C@_08ELEAABKI@NODRIVER?$AA@ DB 'NODRIVER', 00H	; `string'
CONST	ENDS
;	COMDAT ??_C@_09PLHAEEAO@INIT_RAND?$AA@
CONST	SEGMENT
??_C@_09PLHAEEAO@INIT_RAND?$AA@ DB 'INIT_RAND', 00H	; `string'
CONST	ENDS
;	COMDAT ??_C@_0N@PDPHKHCO@INIT_SYS_ENC?$AA@
CONST	SEGMENT
??_C@_0N@PDPHKHCO@INIT_SYS_ENC?$AA@ DB 'INIT_SYS_ENC', 00H ; `string'
CONST	ENDS
;	COMDAT ??_C@_0BG@JEMCACBK@AfterWMInitTasks?39509?$AA@
CONST	SEGMENT
??_C@_0BG@JEMCACBK@AfterWMInitTasks?39509?$AA@ DB 'AfterWMInitTasks:9509', 00H ; `string'
CONST	ENDS
;	COMDAT ??_C@_0DB@IJPDGLEP@HIDDEN_OS_CREATION_NOT_FINISHED_@
CONST	SEGMENT
??_C@_0DB@IJPDGLEP@HIDDEN_OS_CREATION_NOT_FINISHED_@ DB 'HIDDEN_OS_CREATI'
	DB	'ON_NOT_FINISHED_CHOICE_ASK_LATER', 00H	; `string'
CONST	ENDS
;	COMDAT ??_C@_0DB@KJCGFBOB@HIDDEN_OS_CREATION_NOT_FINISHED_@
CONST	SEGMENT
??_C@_0DB@KJCGFBOB@HIDDEN_OS_CREATION_NOT_FINISHED_@ DB 'HIDDEN_OS_CREATI'
	DB	'ON_NOT_FINISHED_CHOICE_TERMINATE', 00H	; `string'
CONST	ENDS
;	COMDAT ??_C@_0CN@NFNCFNOG@HIDDEN_OS_CREATION_NOT_FINISHED_@
CONST	SEGMENT
??_C@_0CN@NFNCFNOG@HIDDEN_OS_CREATION_NOT_FINISHED_@ DB 'HIDDEN_OS_CREATI'
	DB	'ON_NOT_FINISHED_CHOICE_RETRY', 00H		; `string'
CONST	ENDS
;	COMDAT ??_C@_0CE@BLKNBIFF@HIDDEN_OS_CREATION_NOT_FINISHED_@
CONST	SEGMENT
??_C@_0CE@BLKNBIFF@HIDDEN_OS_CREATION_NOT_FINISHED_@ DB 'HIDDEN_OS_CREATI'
	DB	'ON_NOT_FINISHED_ASK', 00H			; `string'
CONST	ENDS
;	COMDAT ??_C@_0BL@BAAJMEPI@OS_WIPING_NOT_FINISHED_ASK?$AA@
CONST	SEGMENT
??_C@_0BL@BAAJMEPI@OS_WIPING_NOT_FINISHED_ASK?$AA@ DB 'OS_WIPING_NOT_FINI'
	DB	'SHED_ASK', 00H				; `string'
CONST	ENDS
;	COMDAT ??_C@_0BK@DFBAAIPH@BOOT_PRETEST_FAILED_RETRY?$AA@
CONST	SEGMENT
??_C@_0BK@DFBAAIPH@BOOT_PRETEST_FAILED_RETRY?$AA@ DB 'BOOT_PRETEST_FAILED'
	DB	'_RETRY', 00H				; `string'
CONST	ENDS
;	COMDAT ??_C@_0BG@BEIDFAO@AfterWMInitTasks?39374?$AA@
CONST	SEGMENT
??_C@_0BG@BEIDFAO@AfterWMInitTasks?39374?$AA@ DB 'AfterWMInitTasks:9374', 00H ; `string'
CONST	ENDS
;	COMDAT ??_C@_0BG@BOBNFKFK@AfterWMInitTasks?39288?$AA@
CONST	SEGMENT
??_C@_0BG@BOBNFKFK@AfterWMInitTasks?39288?$AA@ DB 'AfterWMInitTasks:9288', 00H ; `string'
CONST	ENDS
;	COMDAT ??_C@_0CP@MHIMBFBH@SYS_PARTITION_OR_DRIVE_APPEARS_F@
CONST	SEGMENT
??_C@_0CP@MHIMBFBH@SYS_PARTITION_OR_DRIVE_APPEARS_F@ DB 'SYS_PARTITION_OR'
	DB	'_DRIVE_APPEARS_FULLY_ENCRYPTED', 00H	; `string'
CONST	ENDS
;	COMDAT ??_C@_0BC@BOICFCMD@NOTHING_TO_RESUME?$AA@
CONST	SEGMENT
??_C@_0BC@BOICFCMD@NOTHING_TO_RESUME?$AA@ DB 'NOTHING_TO_RESUME', 00H ; `string'
CONST	ENDS
;	COMDAT ??_C@_0CL@LHNBFDMB@SYSTEM_ENCRYPTION_SCHEDULED_BUT_@
CONST	SEGMENT
??_C@_0CL@LHNBFDMB@SYSTEM_ENCRYPTION_SCHEDULED_BUT_@ DB 'SYSTEM_ENCRYPTIO'
	DB	'N_SCHEDULED_BUT_PBA_FAILED', 00H		; `string'
CONST	ENDS
;	COMDAT ??_C@_0BG@JNPKODLF@AfterWMInitTasks?39116?$AA@
CONST	SEGMENT
??_C@_0BG@JNPKODLF@AfterWMInitTasks?39116?$AA@ DB 'AfterWMInitTasks:9116', 00H ; `string'
CONST	ENDS
;	COMDAT ??_C@_0BJ@KGJBOMKO@CANNOT_DECRYPT_HIDDEN_OS?$AA@
CONST	SEGMENT
??_C@_0BJ@KGJBOMKO@CANNOT_DECRYPT_HIDDEN_OS?$AA@ DB 'CANNOT_DECRYPT_HIDDE'
	DB	'N_OS', 00H					; `string'
CONST	ENDS
;	COMDAT ??_C@_0CE@GLPLHHCP@AfterSysEncProgressWMInitTasks?39@
CONST	SEGMENT
??_C@_0CE@GLPLHHCP@AfterSysEncProgressWMInitTasks?39@ DB 'AfterSysEncProg'
	DB	'ressWMInitTasks:9045', 00H			; `string'
CONST	ENDS
;	COMDAT ??_C@_0BI@IEBIBFIL@CANT_GET_CLUSTER_BITMAP?$AA@
CONST	SEGMENT
??_C@_0BI@IEBIBFIL@CANT_GET_CLUSTER_BITMAP?$AA@ DB 'CANT_GET_CLUSTER_BITM'
	DB	'AP', 00H					; `string'
CONST	ENDS
;	COMDAT ??_C@_0BG@BIDCCDPC@MountVolumesRemovable?$AA@
CONST	SEGMENT
??_C@_0BG@BIDCCDPC@MountVolumesRemovable?$AA@ DB 'MountVolumesRemovable', 00H ; `string'
CONST	ENDS
;	COMDAT ??_C@_0CE@PMECNFFM@HIDDEN_VOL_HOST_UNSUPPORTED_FILE@
CONST	SEGMENT
??_C@_0CE@PMECNFFM@HIDDEN_VOL_HOST_UNSUPPORTED_FILE@ DB 'HIDDEN_VOL_HOST_'
	DB	'UNSUPPORTED_FILESYS', 00H			; `string'
CONST	ENDS
;	COMDAT ??_C@_0BI@JLECLIC@CANT_GET_OUTER_VOL_INFO?$AA@
CONST	SEGMENT
??_C@_0BI@JLECLIC@CANT_GET_OUTER_VOL_INFO?$AA@ DB 'CANT_GET_OUTER_VOL_INF'
	DB	'O', 00H					; `string'
CONST	ENDS
;	COMDAT ??_C@_0BF@GKHHEFAE@HIDDEN_VOL_HOST_NTFS?$AA@
CONST	SEGMENT
??_C@_0BF@GKHHEFAE@HIDDEN_VOL_HOST_NTFS?$AA@ DB 'HIDDEN_VOL_HOST_NTFS', 00H ; `string'
CONST	ENDS
;	COMDAT ??_C@_0CG@DBCOIOLF@ERR_HIDDEN_VOL_HOST_ENCRYPTED_IN@
CONST	SEGMENT
??_C@_0CG@DBCOIOLF@ERR_HIDDEN_VOL_HOST_ENCRYPTED_IN@ DB 'ERR_HIDDEN_VOL_H'
	DB	'OST_ENCRYPTED_INPLACE', 00H			; `string'
CONST	ENDS
;	COMDAT ??_C@_0BN@PEDIFLNF@ERR_HIDDEN_NOT_NORMAL_VOLUME?$AA@
CONST	SEGMENT
??_C@_0BN@PEDIFLNF@ERR_HIDDEN_NOT_NORMAL_VOLUME?$AA@ DB 'ERR_HIDDEN_NOT_N'
	DB	'ORMAL_VOLUME', 00H				; `string'
CONST	ENDS
;	COMDAT ??_C@_0BD@GJIBONDI@ERR_VOL_FORMAT_BAD?$AA@
CONST	SEGMENT
??_C@_0BD@GJIBONDI@ERR_VOL_FORMAT_BAD?$AA@ DB 'ERR_VOL_FORMAT_BAD', 00H ; `string'
CONST	ENDS
;	COMDAT ??_C@_0BG@EDMDLNEK@CANT_ACCESS_OUTER_VOL?$AA@
CONST	SEGMENT
??_C@_0BG@EDMDLNEK@CANT_ACCESS_OUTER_VOL?$AA@ DB 'CANT_ACCESS_OUTER_VOL', 00H ; `string'
CONST	ENDS
;	COMDAT ??_C@_0BI@EIHCDBCC@NO_SPACE_FOR_HIDDEN_VOL?$AA@
CONST	SEGMENT
??_C@_0BI@EIHCDBCC@NO_SPACE_FOR_HIDDEN_VOL?$AA@ DB 'NO_SPACE_FOR_HIDDEN_V'
	DB	'OL', 00H					; `string'
CONST	ENDS
;	COMDAT ??_C@_0BD@LGCKNJIO@COMMAND_LINE_ERROR?$AA@
CONST	SEGMENT
??_C@_0BD@LGCKNJIO@COMMAND_LINE_ERROR?$AA@ DB 'COMMAND_LINE_ERROR', 00H ; `string'
CONST	ENDS
;	COMDAT ??_C@_02KAJCLHKP@no?$AA@
CONST	SEGMENT
??_C@_02KAJCLHKP@no?$AA@ DB 'no', 00H			; `string'
CONST	ENDS
;	COMDAT ??_C@_01EFFIKLCJ@n?$AA@
CONST	SEGMENT
??_C@_01EFFIKLCJ@n?$AA@ DB 'n', 00H			; `string'
CONST	ENDS
;	COMDAT ??_C@_03ICICOMAL@yes?$AA@
CONST	SEGMENT
??_C@_03ICICOMAL@yes?$AA@ DB 'yes', 00H			; `string'
CONST	ENDS
;	COMDAT ??_C@_01EANLCPLP@y?$AA@
CONST	SEGMENT
??_C@_01EANLCPLP@y?$AA@ DB 'y', 00H			; `string'
CONST	ENDS
;	COMDAT ??_C@_02OGHPLGEM@?1z?$AA@
CONST	SEGMENT
??_C@_02OGHPLGEM@?1z?$AA@ DB '/z', 00H			; `string'
CONST	ENDS
;	COMDAT ??_C@_02DHLNANAF@?1s?$AA@
CONST	SEGMENT
??_C@_02DHLNANAF@?1s?$AA@ DB '/s', 00H			; `string'
CONST	ENDS
;	COMDAT ??_C@_07PFDFIFLD@?1sysenc?$AA@
CONST	SEGMENT
??_C@_07PFDFIFLD@?1sysenc?$AA@ DB '/sysenc', 00H	; `string'
CONST	ENDS
;	COMDAT ??_C@_09PMGMEKMI@?1risysenc?$AA@
CONST	SEGMENT
??_C@_09PMGMEKMI@?1risysenc?$AA@ DB '/risysenc', 00H	; `string'
CONST	ENDS
;	COMDAT ??_C@_02BMJAFOMG@?1p?$AA@
CONST	SEGMENT
??_C@_02BMJAFOMG@?1p?$AA@ DB '/p', 00H			; `string'
CONST	ENDS
;	COMDAT ??_C@_0L@DLEMDKJB@?1prinplace?$AA@
CONST	SEGMENT
??_C@_0L@DLEMDKJB@?1prinplace?$AA@ DB '/prinplace', 00H	; `string'
CONST	ENDS
;	COMDAT ??_C@_02IHJAPHNO@?1i?$AA@
CONST	SEGMENT
??_C@_02IHJAPHNO@?1i?$AA@ DB '/i', 00H			; `string'
CONST	ENDS
;	COMDAT ??_C@_08MEKEMIGM@?1isysenc?$AA@
CONST	SEGMENT
??_C@_08MEKEMIGM@?1isysenc?$AA@ DB '/isysenc', 00H	; `string'
CONST	ENDS
;	COMDAT ??_C@_07MFEOHHG@?1encdev?$AA@
CONST	SEGMENT
??_C@_07MFEOHHG@?1encdev?$AA@ DB '/encdev', 00H		; `string'
CONST	ENDS
;	COMDAT ??_C@_02DCDOIJJD@?1d?$AA@
CONST	SEGMENT
??_C@_02DCDOIJJD@?1d?$AA@ DB '/d', 00H			; `string'
CONST	ENDS
;	COMDAT ??_C@_08FPKBNNLN@?1dsysenc?$AA@
CONST	SEGMENT
??_C@_08FPKBNNLN@?1dsysenc?$AA@ DB '/dsysenc', 00H	; `string'
CONST	ENDS
;	COMDAT ??_C@_02HNHPBPFE@?1c?$AA@
CONST	SEGMENT
??_C@_02HNHPBPFE@?1c?$AA@ DB '/c', 00H			; `string'
CONST	ENDS
;	COMDAT ??_C@_08FFGENEKE@?1csysenc?$AA@
CONST	SEGMENT
??_C@_08FFGENEKE@?1csysenc?$AA@ DB '/csysenc', 00H	; `string'
CONST	ENDS
;	COMDAT ??_C@_02EPEJHNNG@?1a?$AA@
CONST	SEGMENT
??_C@_02EPEJHNNG@?1a?$AA@ DB '/a', 00H			; `string'
CONST	ENDS
;	COMDAT ??_C@_09JABABBPB@?1tokenlib?$AA@
CONST	SEGMENT
??_C@_09JABABBPB@?1tokenlib?$AA@ DB '/tokenlib', 00H	; `string'
CONST	ENDS
;	COMDAT ??_C@_02FILGPIH@?1q?$AA@
CONST	SEGMENT
??_C@_02FILGPIH@?1q?$AA@ DB '/q', 00H			; `string'
CONST	ENDS
;	COMDAT ??_C@_05CMMBDMDD@?1quit?$AA@
CONST	SEGMENT
??_C@_05CMMBDMDD@?1quit?$AA@ DB '/quit', 00H		; `string'
CONST	ENDS
;	COMDAT ??_C@_02MINBGBBJ@?1n?$AA@
CONST	SEGMENT
??_C@_02MINBGBBJ@?1n?$AA@ DB '/n', 00H			; `string'
CONST	ENDS
;	COMDAT ??_C@_0M@IEGCIDAG@?1noisocheck?$AA@
CONST	SEGMENT
??_C@_0M@IEGCIDAG@?1noisocheck?$AA@ DB '/noisocheck', 00H ; `string'
CONST	ENDS
;	COMDAT ??_C@_02JOILMGJP@?1h?$AA@
CONST	SEGMENT
??_C@_02JOILMGJP@?1h?$AA@ DB '/h', 00H			; `string'
CONST	ENDS
;	COMDAT ??_C@_08BCLHLEKP@?1history?$AA@
CONST	SEGMENT
??_C@_08BCLHLEKP@?1history?$AA@ DB '/history', 00H	; `string'
CONST	ENDS
;	COMDAT ??_C@_0L@JGIDNNFC@?9Embedding?$AA@
CONST	SEGMENT
??_C@_0L@JGIDNNFC@?9Embedding?$AA@ DB '-Embedding', 00H	; `string'
CONST	ENDS
;	COMDAT ??_C@_0BD@ICCGDAH@CONFIRM_WIPE_START?$AA@
CONST	SEGMENT
??_C@_0BD@ICCGDAH@CONFIRM_WIPE_START?$AA@ DB 'CONFIRM_WIPE_START', 00H ; `string'
CONST	ENDS
;	COMDAT ??_C@_0CH@LLDBJBEP@CONFIRM_WIPE_START_DECOY_SYS_PAR@
CONST	SEGMENT
??_C@_0CH@LLDBJBEP@CONFIRM_WIPE_START_DECOY_SYS_PAR@ DB 'CONFIRM_WIPE_STA'
	DB	'RT_DECOY_SYS_PARTITION', 00H		; `string'
CONST	ENDS
;	COMDAT ??_C@_0BD@NGECJJAH@FORMAT_IN_PROGRESS?$AA@
CONST	SEGMENT
??_C@_0BD@NGECJJAH@FORMAT_IN_PROGRESS?$AA@ DB 'FORMAT_IN_PROGRESS', 00H ; `string'
CONST	ENDS
;	COMDAT ??_C@_0BC@DADPIOMM@CLUSTER_TOO_SMALL?$AA@
CONST	SEGMENT
??_C@_0BC@DADPIOMM@CLUSTER_TOO_SMALL?$AA@ DB 'CLUSTER_TOO_SMALL', 00H ; `string'
CONST	ENDS
;	COMDAT ??_C@_0BP@NLBJKNFD@CONFIRM_FAT_FOR_FILES_OVER_4GB?$AA@
CONST	SEGMENT
??_C@_0BP@NLBJKNFD@CONFIRM_FAT_FOR_FILES_OVER_4GB?$AA@ DB 'CONFIRM_FAT_FO'
	DB	'R_FILES_OVER_4GB', 00H			; `string'
CONST	ENDS
;	COMDAT ??_C@_0BJ@NALGNOGO@HIDDEN_VOL_HOST_NTFS_ASK?$AA@
CONST	SEGMENT
??_C@_0BJ@NALGNOGO@HIDDEN_VOL_HOST_NTFS_ASK?$AA@ DB 'HIDDEN_VOL_HOST_NTFS'
	DB	'_ASK', 00H					; `string'
CONST	ENDS
;	COMDAT ??_C@_0CM@PCAIDDLK@HIDDEN_VOL_HOST_UNSUPPORTED_FILE@
CONST	SEGMENT
??_C@_0CM@PCAIDDLK@HIDDEN_VOL_HOST_UNSUPPORTED_FILE@ DB 'HIDDEN_VOL_HOST_'
	DB	'UNSUPPORTED_FILESYS_WIN2000', 00H		; `string'
CONST	ENDS
;	COMDAT ??_C@_0CK@PNCJJOHK@OUTER_VOLUME_TOO_SMALL_FOR_HIDDE@
CONST	SEGMENT
??_C@_0CK@PNCJJOHK@OUTER_VOLUME_TOO_SMALL_FOR_HIDDE@ DB 'OUTER_VOLUME_TOO'
	DB	'_SMALL_FOR_HIDDEN_OS_NTFS', 00H		; `string'
CONST	ENDS
;	COMDAT ??_C@_0CG@HAPBHPDC@FAT_NOT_AVAILABLE_FOR_SO_LARGE_V@
CONST	SEGMENT
??_C@_0CG@HAPBHPDC@FAT_NOT_AVAILABLE_FOR_SO_LARGE_V@ DB 'FAT_NOT_AVAILABL'
	DB	'E_FOR_SO_LARGE_VOLUME', 00H			; `string'
CONST	ENDS
;	COMDAT ??_C@_0BN@EFIGHBDJ@OFFER_FAT_FORMAT_ALTERNATIVE?$AA@
CONST	SEGMENT
??_C@_0BN@EFIGHBDJ@OFFER_FAT_FORMAT_ALTERNATIVE?$AA@ DB 'OFFER_FAT_FORMAT'
	DB	'_ALTERNATIVE', 00H				; `string'
CONST	ENDS
;	COMDAT ??_C@_09PIOBCILE@?1acsysenc?$AA@
CONST	SEGMENT
??_C@_09PIOBCILE@?1acsysenc?$AA@ DB '/acsysenc', 00H	; `string'
CONST	ENDS
;	COMDAT ??_C@_0CH@MGEMKCIE@CANNOT_INITIATE_SYS_ENCRYPTION_P@
CONST	SEGMENT
??_C@_0CH@MGEMKCIE@CANNOT_INITIATE_SYS_ENCRYPTION_P@ DB 'CANNOT_INITIATE_'
	DB	'SYS_ENCRYPTION_PRETEST', 00H		; `string'
CONST	ENDS
;	COMDAT ??_C@_0CD@DFDNFFMK@CANNOT_INITIATE_HIDDEN_OS_CREATI@
CONST	SEGMENT
??_C@_0CD@DFDNFFMK@CANNOT_INITIATE_HIDDEN_OS_CREATI@ DB 'CANNOT_INITIATE_'
	DB	'HIDDEN_OS_CREATION', 00H			; `string'
CONST	ENDS
;	COMDAT ??_C@_0BG@DGIFCGMK@PREBOOT_NOT_LOCALIZED?$AA@
CONST	SEGMENT
??_C@_0BG@DGIFCGMK@PREBOOT_NOT_LOCALIZED?$AA@ DB 'PREBOOT_NOT_LOCALIZED', 00H ; `string'
CONST	ENDS
;	COMDAT ??_C@_0P@BMFNBJAJ@WIPE_MODE_WARN?$AA@
CONST	SEGMENT
??_C@_0P@BMFNBJAJ@WIPE_MODE_WARN?$AA@ DB 'WIPE_MODE_WARN', 00H ; `string'
CONST	ENDS
;	COMDAT ??_C@_0BJ@KDGMPLJF@RESCUE_DISK_CHECK_FAILED?$AA@
CONST	SEGMENT
??_C@_0BJ@KDGMPLJF@RESCUE_DISK_CHECK_FAILED?$AA@ DB 'RESCUE_DISK_CHECK_FA'
	DB	'ILED', 00H					; `string'
CONST	ENDS
;	COMDAT ??_C@_0CL@LCMPFPDG@RESCUE_DISK_CHECK_FAILED_SENTENC@
CONST	SEGMENT
??_C@_0CL@LCMPFPDG@RESCUE_DISK_CHECK_FAILED_SENTENC@ DB 'RESCUE_DISK_CHEC'
	DB	'K_FAILED_SENTENCE_APPENDIX', 00H		; `string'
CONST	ENDS
;	COMDAT ??_C@_0CH@GAGHEKIC@RESCUE_DISK_WIN_ISOBURN_PRELAUNC@
CONST	SEGMENT
??_C@_0CH@GAGHEKIC@RESCUE_DISK_WIN_ISOBURN_PRELAUNC@ DB 'RESCUE_DISK_WIN_'
	DB	'ISOBURN_PRELAUNCH_NOTE', 00H		; `string'
CONST	ENDS
;	COMDAT ??_C@_0BP@EJPBDEFG@RESCUE_DISK_BURN_NO_CHECK_WARN?$AA@
CONST	SEGMENT
??_C@_0BP@EJPBDEFG@RESCUE_DISK_BURN_NO_CHECK_WARN?$AA@ DB 'RESCUE_DISK_BU'
	DB	'RN_NO_CHECK_WARN', 00H			; `string'
CONST	ENDS
;	COMDAT ??_C@_0CK@BHLKCEED@CD_BURNER_NOT_PRESENT_WILL_STORE@
CONST	SEGMENT
??_C@_0CK@BHLKCEED@CD_BURNER_NOT_PRESENT_WILL_STORE@ DB 'CD_BURNER_NOT_PR'
	DB	'ESENT_WILL_STORE_ISO_INFO', 00H		; `string'
CONST	ENDS
;	COMDAT ??_C@_0CE@FEAJEJEJ@CD_BURNER_NOT_PRESENT_CONNECTED_@
CONST	SEGMENT
??_C@_0CE@FEAJEJEJ@CD_BURNER_NOT_PRESENT_CONNECTED_@ DB 'CD_BURNER_NOT_PR'
	DB	'ESENT_CONNECTED_NOW', 00H			; `string'
CONST	ENDS
;	COMDAT ??_C@_0CJ@FCOKHALJ@CD_BURNER_NOT_PRESENT_WILL_CONNE@
CONST	SEGMENT
??_C@_0CJ@FCOKHALJ@CD_BURNER_NOT_PRESENT_WILL_CONNE@ DB 'CD_BURNER_NOT_PR'
	DB	'ESENT_WILL_CONNECT_LATER', 00H		; `string'
CONST	ENDS
;	COMDAT ??_C@_0CF@OBJIPJKN@CD_BURNER_NOT_PRESENT_WILL_STORE@
CONST	SEGMENT
??_C@_0CF@OBJIPJKN@CD_BURNER_NOT_PRESENT_WILL_STORE@ DB 'CD_BURNER_NOT_PR'
	DB	'ESENT_WILL_STORE_ISO', 00H			; `string'
CONST	ENDS
;	COMDAT ??_C@_0BG@GLKAIFEA@CD_BURNER_NOT_PRESENT?$AA@
CONST	SEGMENT
??_C@_0BG@GLKAIFEA@CD_BURNER_NOT_PRESENT?$AA@ DB 'CD_BURNER_NOT_PRESENT', 00H ; `string'
CONST	ENDS
;	COMDAT ??_C@_0CF@HFPIFBIF@CANNOT_SATISFY_OVER_4G_FILE_SIZE@
CONST	SEGMENT
??_C@_0CF@HFPIFBIF@CANNOT_SATISFY_OVER_4G_FILE_SIZE@ DB 'CANNOT_SATISFY_O'
	DB	'VER_4G_FILE_SIZE_REQ', 00H			; `string'
CONST	ENDS
;	COMDAT ??_C@_0DG@KNHACFHE@CANNOT_CREATE_NON_HIDDEN_NTFS_VO@
CONST	SEGMENT
??_C@_0DG@KNHACFHE@CANNOT_CREATE_NON_HIDDEN_NTFS_VO@ DB 'CANNOT_CREATE_NO'
	DB	'N_HIDDEN_NTFS_VOLUMES_UNDER_HIDDEN_OS', 00H	; `string'
CONST	ENDS
;	COMDAT ??_C@_0CK@DBNLNPHP@FOUND_NO_PARTITION_W_DEFERRED_IN@
CONST	SEGMENT
??_C@_0CK@DBNLNPHP@FOUND_NO_PARTITION_W_DEFERRED_IN@ DB 'FOUND_NO_PARTITI'
	DB	'ON_W_DEFERRED_INPLACE_ENC', 00H		; `string'
CONST	ENDS
;	COMDAT ??_C@_0BI@GNHKCMLM@CANT_DISMOUNT_OUTER_VOL?$AA@
CONST	SEGMENT
??_C@_0BI@GNHKCMLM@CANT_DISMOUNT_OUTER_VOL?$AA@ DB 'CANT_DISMOUNT_OUTER_V'
	DB	'OL', 00H					; `string'
CONST	ENDS
;	COMDAT ??_C@_0BP@BGCHIACG@CANNOT_RESTORE_KEYBOARD_LAYOUT?$AA@
CONST	SEGMENT
??_C@_0BP@BGCHIACG@CANNOT_RESTORE_KEYBOARD_LAYOUT?$AA@ DB 'CANNOT_RESTORE'
	DB	'_KEYBOARD_LAYOUT', 00H			; `string'
CONST	ENDS
;	COMDAT ??_C@_0BJ@CPHEENHA@UNSUPPORTED_CHARS_IN_PWD?$AA@
CONST	SEGMENT
??_C@_0BJ@CPHEENHA@UNSUPPORTED_CHARS_IN_PWD?$AA@ DB 'UNSUPPORTED_CHARS_IN'
	DB	'_PWD', 00H					; `string'
CONST	ENDS
;	COMDAT ??_C@_0CH@NJLIGNCF@FREE_SPACE_FOR_WRITING_TO_OUTER_@
CONST	SEGMENT
??_C@_0CH@NJLIGNCF@FREE_SPACE_FOR_WRITING_TO_OUTER_@ DB 'FREE_SPACE_FOR_W'
	DB	'RITING_TO_OUTER_VOLUME', 00H		; `string'
CONST	ENDS
;	COMDAT ??_C@_0BL@IAHLEEBN@VOLUME_TOO_LARGE_FOR_WINXP?$AA@
CONST	SEGMENT
??_C@_0BL@IAHLEEBN@VOLUME_TOO_LARGE_FOR_WINXP?$AA@ DB 'VOLUME_TOO_LARGE_F'
	DB	'OR_WINXP', 00H				; `string'
CONST	ENDS
;	COMDAT ??_C@_0BL@FEGMEEPN@VOLUME_TOO_LARGE_FOR_FAT32?$AA@
CONST	SEGMENT
??_C@_0BL@FEGMEEPN@VOLUME_TOO_LARGE_FOR_FAT32?$AA@ DB 'VOLUME_TOO_LARGE_F'
	DB	'OR_FAT32', 00H				; `string'
CONST	ENDS
;	COMDAT ??_C@_05HNJNFBJJ@FAT32?$AA@
CONST	SEGMENT
??_C@_05HNJNFBJJ@FAT32?$AA@ DB 'FAT32', 00H		; `string'
CONST	ENDS
;	COMDAT ??_C@_0CA@HENDJLLF@NOTE_CASCADE_FOR_SYS_ENCRYPTION?$AA@
CONST	SEGMENT
??_C@_0CA@HENDJLLF@NOTE_CASCADE_FOR_SYS_ENCRYPTION?$AA@ DB 'NOTE_CASCADE_'
	DB	'FOR_SYS_ENCRYPTION', 00H			; `string'
CONST	ENDS
;	COMDAT ??_C@_0CD@HEIAMGDN@CONFIRM_CASCADE_FOR_SYS_ENCRYPTI@
CONST	SEGMENT
??_C@_0CD@HEIAMGDN@CONFIRM_CASCADE_FOR_SYS_ENCRYPTI@ DB 'CONFIRM_CASCADE_'
	DB	'FOR_SYS_ENCRYPTION', 00H			; `string'
CONST	ENDS
;	COMDAT ??_C@_0CC@NCAFIIDC@NONSYS_INPLACE_ENC_CONFIRM_BACKU@
CONST	SEGMENT
??_C@_0CC@NCAFIIDC@NONSYS_INPLACE_ENC_CONFIRM_BACKU@ DB 'NONSYS_INPLACE_E'
	DB	'NC_CONFIRM_BACKUP', 00H			; `string'
CONST	ENDS
;	COMDAT ??_C@_0BH@BGCKDFKI@HIDDEN_VOL_HOST_SPARSE?$AA@
CONST	SEGMENT
??_C@_0BH@BGCKDFKI@HIDDEN_VOL_HOST_SPARSE?$AA@ DB 'HIDDEN_VOL_HOST_SPARSE'
	DB	00H						; `string'
CONST	ENDS
;	COMDAT ??_C@_0BL@LHDMMKJO@EXE_FILE_EXTENSION_CONFIRM?$AA@
CONST	SEGMENT
??_C@_0BL@LHDMMKJO@EXE_FILE_EXTENSION_CONFIRM?$AA@ DB 'EXE_FILE_EXTENSION'
	DB	'_CONFIRM', 00H				; `string'
CONST	ENDS
;	COMDAT ??_C@_0BP@NCOMIFAB@CONFIRM_SYSTEM_ENCRYPTION_MODE?$AA@
CONST	SEGMENT
??_C@_0BP@NCOMIFAB@CONFIRM_SYSTEM_ENCRYPTION_MODE?$AA@ DB 'CONFIRM_SYSTEM'
	DB	'_ENCRYPTION_MODE', 00H			; `string'
CONST	ENDS
;	COMDAT ??_C@_0BA@ECFGGOBI@ALREADY_MOUNTED?$AA@
CONST	SEGMENT
??_C@_0BA@ECFGGOBI@ALREADY_MOUNTED?$AA@ DB 'ALREADY_MOUNTED', 00H ; `string'
CONST	ENDS
;	COMDAT ??_C@_0CD@DKKKPMLO@DEVICE_SELECTED_IN_NON_DEVICE_MO@
CONST	SEGMENT
??_C@_0CD@DKKKPMLO@DEVICE_SELECTED_IN_NON_DEVICE_MO@ DB 'DEVICE_SELECTED_'
	DB	'IN_NON_DEVICE_MODE', 00H			; `string'
CONST	ENDS
;	COMDAT ??_C@_0CK@NNPIGIED@HIDDEN_VOL_CREATION_UNDER_HIDDEN@
CONST	SEGMENT
??_C@_0CK@NNPIGIED@HIDDEN_VOL_CREATION_UNDER_HIDDEN@ DB 'HIDDEN_VOL_CREAT'
	DB	'ION_UNDER_HIDDEN_OS_HOWTO', 00H		; `string'
CONST	ENDS
;	COMDAT ??_C@_0BN@DOPCDKC@ADMIN_PRIVILEGES_WARN_HIDVOL?$AA@
CONST	SEGMENT
??_C@_0BN@DOPCDKC@ADMIN_PRIVILEGES_WARN_HIDVOL?$AA@ DB 'ADMIN_PRIVILEGES_'
	DB	'WARN_HIDVOL', 00H				; `string'
CONST	ENDS
;	COMDAT ??_C@_0BK@EHEECKKC@WINDOWS_BOOT_LOADER_HINTS?$AA@
CONST	SEGMENT
??_C@_0BK@EHEECKKC@WINDOWS_BOOT_LOADER_HINTS?$AA@ DB 'WINDOWS_BOOT_LOADER'
	DB	'_HINTS', 00H				; `string'
CONST	ENDS
;	COMDAT ??_C@_0CI@KANLNDNO@CUSTOM_BOOT_MANAGERS_IN_MBR_UNSU@
CONST	SEGMENT
??_C@_0CI@KANLNDNO@CUSTOM_BOOT_MANAGERS_IN_MBR_UNSU@ DB 'CUSTOM_BOOT_MANA'
	DB	'GERS_IN_MBR_UNSUPPORTED', 00H		; `string'
CONST	ENDS
;	COMDAT ??_C@_0DC@EAFFGLI@WDE_UNSUPPORTED_FOR_MULTIPLE_SYS@
CONST	SEGMENT
??_C@_0DC@EAFFGLI@WDE_UNSUPPORTED_FOR_MULTIPLE_SYS@ DB 'WDE_UNSUPPORTED_F'
	DB	'OR_MULTIPLE_SYSTEMS_ON_ONE_DRIVE', 00H	; `string'
CONST	ENDS
;	COMDAT ??_C@_0CE@BLBEBHP@SYS_PARTITION_MUST_BE_ON_BOOT_DR@
CONST	SEGMENT
??_C@_0CE@BLBEBHP@SYS_PARTITION_MUST_BE_ON_BOOT_DR@ DB 'SYS_PARTITION_MUS'
	DB	'T_BE_ON_BOOT_DRIVE', 00H			; `string'
CONST	ENDS
;	COMDAT ??_C@_0BG@HEENEHGK@DECOY_OS_REQUIREMENTS?$AA@
CONST	SEGMENT
??_C@_0BG@HEENEHGK@DECOY_OS_REQUIREMENTS?$AA@ DB 'DECOY_OS_REQUIREMENTS', 00H ; `string'
CONST	ENDS
;	COMDAT ??_C@_0CH@PDMBGJBN@CONFIRM_HIDDEN_OS_EXTRA_BOOT_PAR@
CONST	SEGMENT
??_C@_0CH@PDMBGJBN@CONFIRM_HIDDEN_OS_EXTRA_BOOT_PAR@ DB 'CONFIRM_HIDDEN_O'
	DB	'S_EXTRA_BOOT_PARTITION', 00H		; `string'
CONST	ENDS
;	COMDAT ??_C@_0CF@PJBIBHBE@UNSUPPORTED_HIDDEN_OS_MULTI_BOOT@
CONST	SEGMENT
??_C@_0CF@PJBIBHBE@UNSUPPORTED_HIDDEN_OS_MULTI_BOOT@ DB 'UNSUPPORTED_HIDD'
	DB	'EN_OS_MULTI_BOOT_CFG', 00H			; `string'
CONST	ENDS
;	COMDAT ??_C@_0BF@OEFLIJFC@HIDDEN_OS_MULTI_BOOT?$AA@
CONST	SEGMENT
??_C@_0BF@OEFLIJFC@HIDDEN_OS_MULTI_BOOT?$AA@ DB 'HIDDEN_OS_MULTI_BOOT', 00H ; `string'
CONST	ENDS
;	COMDAT ??_C@_0BN@EDCHAEND@MULTI_BOOT_FOR_ADVANCED_ONLY?$AA@
CONST	SEGMENT
??_C@_0BN@EDCHAEND@MULTI_BOOT_FOR_ADVANCED_ONLY?$AA@ DB 'MULTI_BOOT_FOR_A'
	DB	'DVANCED_ONLY', 00H				; `string'
CONST	ENDS
;	COMDAT ??_C@_02COKGDMEE@?1r?$AA@
CONST	SEGMENT
??_C@_02COKGDMEE@?1r?$AA@ DB '/r', 00H			; `string'
CONST	ENDS
;	COMDAT ??_C@_0CG@LFCLDECM@HIDDEN_OS_WRITE_PROTECTION_BRIEF@
CONST	SEGMENT
??_C@_0CG@LFCLDECM@HIDDEN_OS_WRITE_PROTECTION_BRIEF@ DB 'HIDDEN_OS_WRITE_'
	DB	'PROTECTION_BRIEF_INFO', 00H			; `string'
CONST	ENDS
;	COMDAT ??_C@_0CH@OILEALFF@HIDDEN_OS_WRITE_PROTECTION_EXPLA@
CONST	SEGMENT
??_C@_0CH@OILEALFF@HIDDEN_OS_WRITE_PROTECTION_EXPLA@ DB 'HIDDEN_OS_WRITE_'
	DB	'PROTECTION_EXPLANATION', 00H		; `string'
CONST	ENDS
;	COMDAT ??_C@_0BL@IDNPDOGL@DECOY_OS_REINSTALL_WARNING?$AA@
CONST	SEGMENT
??_C@_0BL@IDNPDOGL@DECOY_OS_REINSTALL_WARNING?$AA@ DB 'DECOY_OS_REINSTALL'
	DB	'_WARNING', 00H				; `string'
CONST	ENDS
;	COMDAT ??_C@_0CI@HFDNHKMM@GAP_BETWEEN_SYS_AND_HIDDEN_OS_PA@
CONST	SEGMENT
??_C@_0CI@HFDNHKMM@GAP_BETWEEN_SYS_AND_HIDDEN_OS_PA@ DB 'GAP_BETWEEN_SYS_'
	DB	'AND_HIDDEN_OS_PARTITION', 00H		; `string'
CONST	ENDS
;	COMDAT ??_C@_0BI@BGKLALIE@CONTAINER_ADMIN_WARNING?$AA@
CONST	SEGMENT
??_C@_0BI@BGKLALIE@CONTAINER_ADMIN_WARNING?$AA@ DB 'CONTAINER_ADMIN_WARNI'
	DB	'NG', 00H					; `string'
CONST	ENDS
;	COMDAT ??_C@_0BH@KAHGPAJO@CONFIRM_EXIT_UNIVERSAL?$AA@
CONST	SEGMENT
??_C@_0BH@KAHGPAJO@CONFIRM_EXIT_UNIVERSAL?$AA@ DB 'CONFIRM_EXIT_UNIVERSAL'
	DB	00H						; `string'
CONST	ENDS
;	COMDAT ??_C@_0BP@IFOLEKLB@CONFIRM_CANCEL_SYS_ENC_PRETEST?$AA@
CONST	SEGMENT
??_C@_0BP@IFOLEKLB@CONFIRM_CANCEL_SYS_ENC_PRETEST?$AA@ DB 'CONFIRM_CANCEL'
	DB	'_SYS_ENC_PRETEST', 00H			; `string'
CONST	ENDS
;	COMDAT ??_C@_0CC@KDAJHHMG@CONFIRM_CANCEL_HIDDEN_OS_CREATIO@
CONST	SEGMENT
??_C@_0CC@KDAJHHMG@CONFIRM_CANCEL_HIDDEN_OS_CREATIO@ DB 'CONFIRM_CANCEL_H'
	DB	'IDDEN_OS_CREATION', 00H			; `string'
CONST	ENDS
;	COMDAT ??_C@_0CA@OMHIMMHH@SYSTEM_ENCRYPTION_DEFER_CONFIRM?$AA@
CONST	SEGMENT
??_C@_0CA@OMHIMMHH@SYSTEM_ENCRYPTION_DEFER_CONFIRM?$AA@ DB 'SYSTEM_ENCRYP'
	DB	'TION_DEFER_CONFIRM', 00H			; `string'
CONST	ENDS
;	COMDAT ??_C@_0CA@MDOAMJOP@SYSTEM_DECRYPTION_DEFER_CONFIRM?$AA@
CONST	SEGMENT
??_C@_0CA@MDOAMJOP@SYSTEM_DECRYPTION_DEFER_CONFIRM?$AA@ DB 'SYSTEM_DECRYP'
	DB	'TION_DEFER_CONFIRM', 00H			; `string'
CONST	ENDS
;	COMDAT ??_C@_0CB@MEPMKNNG@NONSYS_INPLACE_ENC_DEFER_CONFIRM@
CONST	SEGMENT
??_C@_0CB@MEPMKNNG@NONSYS_INPLACE_ENC_DEFER_CONFIRM@ DB 'NONSYS_INPLACE_E'
	DB	'NC_DEFER_CONFIRM', 00H			; `string'
CONST	ENDS
;	COMDAT ??_C@_0BJ@EAMLJMAO@DECOY_OS_VERSION_WARNING?$AA@
CONST	SEGMENT
??_C@_0BJ@EAMLJMAO@DECOY_OS_VERSION_WARNING?$AA@ DB 'DECOY_OS_VERSION_WAR'
	DB	'NING', 00H					; `string'
CONST	ENDS
;	COMDAT ??_C@_0CF@JGIFKPLM@WIPE_FINISHED_DECOY_SYSTEM_PARTI@
CONST	SEGMENT
??_C@_0CF@JGIFKPLM@WIPE_FINISHED_DECOY_SYSTEM_PARTI@ DB 'WIPE_FINISHED_DE'
	DB	'COY_SYSTEM_PARTITION', 00H			; `string'
CONST	ENDS
;	COMDAT ??_C@_0BN@KCOCCGGE@SYS_DRIVE_SIZE_PROBE_TIMEOUT?$AA@
CONST	SEGMENT
??_C@_0BN@KCOCCGGE@SYS_DRIVE_SIZE_PROBE_TIMEOUT?$AA@ DB 'SYS_DRIVE_SIZE_P'
	DB	'ROBE_TIMEOUT', 00H				; `string'
CONST	ENDS
;	COMDAT ??_C@_0CF@OEJEFNLJ@ALT_KEY_CHARS_NOT_FOR_SYS_ENCRYP@
CONST	SEGMENT
??_C@_0CF@OEJEFNLJ@ALT_KEY_CHARS_NOT_FOR_SYS_ENCRYP@ DB 'ALT_KEY_CHARS_NO'
	DB	'T_FOR_SYS_ENCRYPTION', 00H			; `string'
CONST	ENDS
;	COMDAT ??_C@_0CA@HGCGAMEK@KEYB_LAYOUT_SYS_ENC_EXPLANATION?$AA@
CONST	SEGMENT
??_C@_0CA@HGCGAMEK@KEYB_LAYOUT_SYS_ENC_EXPLANATION?$AA@ DB 'KEYB_LAYOUT_S'
	DB	'YS_ENC_EXPLANATION', 00H			; `string'
CONST	ENDS
;	COMDAT ??_C@_0BN@MNCKOJDH@KEYB_LAYOUT_CHANGE_PREVENTED?$AA@
CONST	SEGMENT
??_C@_0BN@MNCKOJDH@KEYB_LAYOUT_CHANGE_PREVENTED?$AA@ DB 'KEYB_LAYOUT_CHAN'
	DB	'GE_PREVENTED', 00H				; `string'
CONST	ENDS
;	COMDAT ??_C@_0BA@ICICKJJH@CONFIRM_RESTART?$AA@
CONST	SEGMENT
??_C@_0BA@ICICKJJH@CONFIRM_RESTART?$AA@ DB 'CONFIRM_RESTART', 00H ; `string'
CONST	ENDS
;	COMDAT ??_C@_0BL@HGGGHBLG@SYSTEM_DECRYPTION_FINISHED?$AA@
CONST	SEGMENT
??_C@_0BL@HGGGHBLG@SYSTEM_DECRYPTION_FINISHED?$AA@ DB 'SYSTEM_DECRYPTION_'
	DB	'FINISHED', 00H				; `string'
CONST	ENDS
;	COMDAT ??_C@_0BL@LJPGNBNM@SYSTEM_ENCRYPTION_FINISHED?$AA@
CONST	SEGMENT
??_C@_0BL@LJPGNBNM@SYSTEM_ENCRYPTION_FINISHED?$AA@ DB 'SYSTEM_ENCRYPTION_'
	DB	'FINISHED', 00H				; `string'
CONST	ENDS
;	COMDAT ??_C@_0CF@BKMHLPHL@DISCARD_UNREADABLE_ENCRYPTED_SEC@
CONST	SEGMENT
??_C@_0CF@BKMHLPHL@DISCARD_UNREADABLE_ENCRYPTED_SEC@ DB 'DISCARD_UNREADAB'
	DB	'LE_ENCRYPTED_SECTORS', 00H			; `string'
CONST	ENDS
;	COMDAT ??_C@_0BK@ELCHMCAJ@ENABLE_BAD_SECTOR_ZEROING?$AA@
CONST	SEGMENT
??_C@_0BK@ELCHMCAJ@ENABLE_BAD_SECTOR_ZEROING?$AA@ DB 'ENABLE_BAD_SECTOR_Z'
	DB	'EROING', 00H				; `string'
CONST	ENDS
;	COMDAT ??_R0?AUSystemException@GostCrypt@@@8
data$r	SEGMENT
??_R0?AUSystemException@GostCrypt@@@8 DD FLAT:??_7type_info@@6B@ ; GostCrypt::SystemException `RTTI Type Descriptor'
	DD	00H
	DB	'.?AUSystemException@GostCrypt@@', 00H
data$r	ENDS
;	COMDAT ??_C@_04JFFKLGJF@?$CF02X?$AA@
CONST	SEGMENT
??_C@_04JFFKLGJF@?$CF02X?$AA@ DB '%02X', 00H		; `string'
CONST	ENDS
;	COMDAT ??_C@_0BL@JMGGGIDG@?2GostCrypt?5Rescue?5Disk?4iso?$AA@
CONST	SEGMENT
??_C@_0BL@JMGGGIDG@?2GostCrypt?5Rescue?5Disk?4iso?$AA@ DB '\GostCrypt Res'
	DB	'cue Disk.iso', 00H				; `string'
CONST	ENDS
;	COMDAT ??_C@_0BJ@CCHDLBFE@GST_INSTALLER_IS_RUNNING?$AA@
CONST	SEGMENT
??_C@_0BJ@CCHDLBFE@GST_INSTALLER_IS_RUNNING?$AA@ DB 'GST_INSTALLER_IS_RUN'
	DB	'NING', 00H					; `string'
CONST	ENDS
;	COMDAT ??_C@_0BD@EJEDNFIG@CONFIRM_WIPE_ABORT?$AA@
CONST	SEGMENT
??_C@_0BD@EJEDNFIG@CONFIRM_WIPE_ABORT?$AA@ DB 'CONFIRM_WIPE_ABORT', 00H ; `string'
CONST	ENDS
;	COMDAT ??_C@_0EP@HCFFCIHD@?5?5?5?5?5?5?5?5?5?5?5?5?5?5?5?5?5?5?5?5?5?5?5?5?5?5?5?5?5?5?5?5@
CONST	SEGMENT
??_C@_0EP@HCFFCIHD@?5?5?5?5?5?5?5?5?5?5?5?5?5?5?5?5?5?5?5?5?5?5?5?5?5?5?5?5?5?5?5?5@ DB ' '
	DB	'                                                             '
	DB	'                ', 00H			; `string'
CONST	ENDS
;	COMDAT ??_C@_0BC@LJAPGPK@WARN_QUICK_FORMAT?$AA@
CONST	SEGMENT
??_C@_0BC@LJAPGPK@WARN_QUICK_FORMAT?$AA@ DB 'WARN_QUICK_FORMAT', 00H ; `string'
CONST	ENDS
;	COMDAT ??_C@_0BE@NLHJLKOB@CONFIRM_SPARSE_FILE?$AA@
CONST	SEGMENT
??_C@_0BE@NLHJLKOB@CONFIRM_SPARSE_FILE?$AA@ DB 'CONFIRM_SPARSE_FILE', 00H ; `string'
CONST	ENDS
;	COMDAT ??_C@_0CG@FCGANOF@ALGO_NOT_SUPPORTED_FOR_SYS_ENCRY@
CONST	SEGMENT
??_C@_0CG@FCGANOF@ALGO_NOT_SUPPORTED_FOR_SYS_ENCRY@ DB 'ALGO_NOT_SUPPORTE'
	DB	'D_FOR_SYS_ENCRYPTION', 00H			; `string'
CONST	ENDS
;	COMDAT ??_C@_06OACPEFAM@Floppy?$AA@
CONST	SEGMENT
??_C@_06OACPEFAM@Floppy?$AA@ DB 'Floppy', 00H		; `string'
CONST	ENDS
;	COMDAT ??_C@_0L@GHEOANHD@OPEN_TITLE?$AA@
CONST	SEGMENT
??_C@_0L@GHEOANHD@OPEN_TITLE?$AA@ DB 'OPEN_TITLE', 00H	; `string'
CONST	ENDS
;	COMDAT ??_C@_0CK@PHDAOPJF@KEYFILES_NOT_SUPPORTED_FOR_SYS_E@
CONST	SEGMENT
??_C@_0CK@PHDAOPJF@KEYFILES_NOT_SUPPORTED_FOR_SYS_E@ DB 'KEYFILES_NOT_SUP'
	DB	'PORTED_FOR_SYS_ENCRYPTION', 00H		; `string'
CONST	ENDS
;	COMDAT ??_C@_0CE@BFLBCKJG@http?3?1?1www?4ietf?4org?1rfc?1rfc5830?4@
CONST	SEGMENT
??_C@_0CE@BFLBCKJG@http?3?1?1www?4ietf?4org?1rfc?1rfc5830?4@ DB 'http://w'
	DB	'ww.ietf.org/rfc/rfc5830.txt', 00H		; `string'
CONST	ENDS
;	COMDAT ??_C@_0N@LNDFLMFM@FORMAT_ABORT?$AA@
CONST	SEGMENT
??_C@_0N@LNDFLMFM@FORMAT_ABORT?$AA@ DB 'FORMAT_ABORT', 00H ; `string'
CONST	ENDS
;	COMDAT ??_C@_0CN@EDGNFMHB@FILESYS_PAGE_HELP_EXPLANATION_HI@
CONST	SEGMENT
??_C@_0CN@EDGNFMHB@FILESYS_PAGE_HELP_EXPLANATION_HI@ DB 'FILESYS_PAGE_HEL'
	DB	'P_EXPLANATION_HIDVOL_CONFIRM', 00H		; `string'
CONST	ENDS
;	COMDAT ??_C@_0CK@NCJGAECA@http?3?1?1www?4gostcrypt?4org?1redirec@
CONST	SEGMENT
??_C@_0CK@NCJGAECA@http?3?1?1www?4gostcrypt?4org?1redirec@ DB 'http://www'
	DB	'.gostcrypt.org/redirect.php?a=2', 00H	; `string'
CONST	ENDS
;	COMDAT ??_C@_15OJKDPEFE@?$AA?5?$AA?5?$AA?$AA@
CONST	SEGMENT
??_C@_15OJKDPEFE@?$AA?5?$AA?5?$AA?$AA@ DB ' ', 00H, ' ', 00H, 00H, 00H ; `string'
CONST	ENDS
;	COMDAT ??_C@_04LEEAJJHO@WIPE?$AA@
CONST	SEGMENT
??_C@_04LEEAJJHO@WIPE?$AA@ DB 'WIPE', 00H		; `string'
CONST	ENDS
;	COMDAT ??_C@_0BH@IEGJMJEM@DEVICE_WIPE_PAGE_TITLE?$AA@
CONST	SEGMENT
??_C@_0BH@IEGJMJEM@DEVICE_WIPE_PAGE_TITLE?$AA@ DB 'DEVICE_WIPE_PAGE_TITLE'
	DB	00H						; `string'
CONST	ENDS
;	COMDAT ??_C@_0BG@OABGGIFL@DEVICE_WIPE_PAGE_INFO?$AA@
CONST	SEGMENT
??_C@_0BG@OABGGIFL@DEVICE_WIPE_PAGE_INFO?$AA@ DB 'DEVICE_WIPE_PAGE_INFO', 00H ; `string'
CONST	ENDS
;	COMDAT ??_C@_0CA@NHNKCAEG@DEVICE_WIPE_PAGE_INFO_HIDDEN_OS?$AA@
CONST	SEGMENT
??_C@_0CA@NHNKCAEG@DEVICE_WIPE_PAGE_INFO_HIDDEN_OS?$AA@ DB 'DEVICE_WIPE_P'
	DB	'AGE_INFO_HIDDEN_OS', 00H			; `string'
CONST	ENDS
;	COMDAT ??_C@_0P@JJNKBKFB@WIPE_MODE_INFO?$AA@
CONST	SEGMENT
??_C@_0P@JJNKBKFB@WIPE_MODE_INFO?$AA@ DB 'WIPE_MODE_INFO', 00H ; `string'
CONST	ENDS
;	COMDAT ??_C@_0BL@KAEKPGLE@SYSENC_HIDDEN_OS_WIPE_INFO?$AA@
CONST	SEGMENT
??_C@_0BL@KAEKPGLE@SYSENC_HIDDEN_OS_WIPE_INFO?$AA@ DB 'SYSENC_HIDDEN_OS_W'
	DB	'IPE_INFO', 00H				; `string'
CONST	ENDS
;	COMDAT ??_C@_0CB@MMHOKPDB@SYSENC_HIDDEN_OS_WIPE_INFO_TITLE@
CONST	SEGMENT
??_C@_0CB@MMHOKPDB@SYSENC_HIDDEN_OS_WIPE_INFO_TITLE@ DB 'SYSENC_HIDDEN_OS'
	DB	'_WIPE_INFO_TITLE', 00H			; `string'
CONST	ENDS
;	COMDAT ??_C@_0BK@FHELJNGN@FIRST_HIDDEN_OS_BOOT_INFO?$AA@
CONST	SEGMENT
??_C@_0BK@FHELJNGN@FIRST_HIDDEN_OS_BOOT_INFO?$AA@ DB 'FIRST_HIDDEN_OS_BOO'
	DB	'T_INFO', 00H				; `string'
CONST	ENDS
;	COMDAT ??_C@_0CE@LLANPMHF@SYSENC_HIDDEN_OS_INITIAL_INFO_TI@
CONST	SEGMENT
??_C@_0CE@LLANPMHF@SYSENC_HIDDEN_OS_INITIAL_INFO_TI@ DB 'SYSENC_HIDDEN_OS'
	DB	'_INITIAL_INFO_TITLE', 00H			; `string'
CONST	ENDS
;	COMDAT ??_C@_0BE@KFFNPDGB@PageDialogProc?35088?$AA@
CONST	SEGMENT
??_C@_0BE@KFFNPDGB@PageDialogProc?35088?$AA@ DB 'PageDialogProc:5088', 00H ; `string'
CONST	ENDS
;	COMDAT ??_C@_0BG@HBBDJEK@FORMAT_FINISHED_TITLE?$AA@
CONST	SEGMENT
??_C@_0BG@HBBDJEK@FORMAT_FINISHED_TITLE?$AA@ DB 'FORMAT_FINISHED_TITLE', 00H ; `string'
CONST	ENDS
;	COMDAT ??_C@_0BN@DJMJCNLA@HIDVOL_FORMAT_FINISHED_TITLE?$AA@
CONST	SEGMENT
??_C@_0BN@DJMJCNLA@HIDVOL_FORMAT_FINISHED_TITLE?$AA@ DB 'HIDVOL_FORMAT_FI'
	DB	'NISHED_TITLE', 00H				; `string'
CONST	ENDS
;	COMDAT ??_C@_0BF@GBMPIMLF@FORMAT_FINISHED_HELP?$AA@
CONST	SEGMENT
??_C@_0BF@GBMPIMLF@FORMAT_FINISHED_HELP?$AA@ DB 'FORMAT_FINISHED_HELP', 00H ; `string'
CONST	ENDS
;	COMDAT ??_C@_0CH@DILBCENC@SYSENC_HIDDEN_VOL_FORMAT_FINISHE@
CONST	SEGMENT
??_C@_0CH@DILBCENC@SYSENC_HIDDEN_VOL_FORMAT_FINISHE@ DB 'SYSENC_HIDDEN_VO'
	DB	'L_FORMAT_FINISHED_HELP', 00H		; `string'
CONST	ENDS
;	COMDAT ??_C@_0BK@GEKKOMHD@HIDVOL_HOST_FILLING_TITLE?$AA@
CONST	SEGMENT
??_C@_0BK@GEKKOMHD@HIDVOL_HOST_FILLING_TITLE?$AA@ DB 'HIDVOL_HOST_FILLING'
	DB	'_TITLE', 00H				; `string'
CONST	ENDS
;	COMDAT ??_C@_0BJ@NMHGGMKI@HIDVOL_HOST_FILLING_HELP?$AA@
CONST	SEGMENT
??_C@_0BJ@NMHGGMKI@HIDVOL_HOST_FILLING_HELP?$AA@ DB 'HIDVOL_HOST_FILLING_'
	DB	'HELP', 00H					; `string'
CONST	ENDS
;	COMDAT ??_C@_0CA@NGPBKLAB@HIDVOL_HOST_FILLING_HELP_SYSENC?$AA@
CONST	SEGMENT
??_C@_0CA@NGPBKLAB@HIDVOL_HOST_FILLING_HELP_SYSENC?$AA@ DB 'HIDVOL_HOST_F'
	DB	'ILLING_HELP_SYSENC', 00H			; `string'
CONST	ENDS
;	COMDAT ??_C@_1BC@JJPHEOJD@?$AA?$CF?$AAI?$AA6?$AA4?$AAd?$AA?5?$AA?$CF?$AAs?$AA?$AA@
CONST	SEGMENT
??_C@_1BC@JJPHEOJD@?$AA?$CF?$AAI?$AA6?$AA4?$AAd?$AA?5?$AA?$CF?$AAs?$AA?$AA@ DB '%'
	DB	00H, 'I', 00H, '6', 00H, '4', 00H, 'd', 00H, ' ', 00H, '%', 00H
	DB	's', 00H, 00H, 00H				; `string'
CONST	ENDS
;	COMDAT ??_C@_02LKLDBFPJ@MB?$AA@
CONST	SEGMENT
??_C@_02LKLDBFPJ@MB?$AA@ DB 'MB', 00H			; `string'
CONST	ENDS
;	COMDAT ??_C@_06DPGELLJH@FORMAT?$AA@
CONST	SEGMENT
??_C@_06DPGELLJH@FORMAT?$AA@ DB 'FORMAT', 00H		; `string'
CONST	ENDS
;	COMDAT ??_C@_03JMFMNIFM@?9?9?9?$AA@
CONST	SEGMENT
??_C@_03JMFMNIFM@?9?9?9?$AA@ DB '---', 00H		; `string'
CONST	ENDS
;	COMDAT ??_C@_04OKGDLNCL@NONE?$AA@
CONST	SEGMENT
??_C@_04OKGDLNCL@NONE?$AA@ DB 'NONE', 00H		; `string'
CONST	ENDS
;	COMDAT ??_C@_03MPELFIKF@FAT?$AA@
CONST	SEGMENT
??_C@_03MPELFIKF@FAT?$AA@ DB 'FAT', 00H			; `string'
CONST	ENDS
;	COMDAT ??_C@_04HPPAIJNK@NTFS?$AA@
CONST	SEGMENT
??_C@_04HPPAIJNK@NTFS?$AA@ DB 'NTFS', 00H		; `string'
CONST	ENDS
;	COMDAT ??_C@_02LODOGJEL@KB?$AA@
CONST	SEGMENT
??_C@_02LODOGJEL@KB?$AA@ DB 'KB', 00H			; `string'
CONST	ENDS
;	COMDAT ??_C@_17OFEDBPDO@?$AA0?$AA?4?$AA5?$AA?$AA@
CONST	SEGMENT
??_C@_17OFEDBPDO@?$AA0?$AA?4?$AA5?$AA?$AA@ DB '0', 00H, '.', 00H, '5', 00H
	DB	00H, 00H					; `string'
CONST	ENDS
;	COMDAT ??_C@_07MGCPDNLD@DEFAULT?$AA@
CONST	SEGMENT
??_C@_07MGCPDNLD@DEFAULT?$AA@ DB 'DEFAULT', 00H		; `string'
CONST	ENDS
;	COMDAT ??_C@_0EP@NPBFJCJA@?$CK?$CK?$CK?$CK?$CK?$CK?$CK?$CK?$CK?$CK?$CK?$CK?$CK?$CK?$CK?$CK?$CK?$CK?$CK?$CK?$CK?$CK?$CK?$CK?$CK?$CK?$CK?$CK?$CK?$CK?$CK?$CK@
CONST	SEGMENT
??_C@_0EP@NPBFJCJA@?$CK?$CK?$CK?$CK?$CK?$CK?$CK?$CK?$CK?$CK?$CK?$CK?$CK?$CK?$CK?$CK?$CK?$CK?$CK?$CK?$CK?$CK?$CK?$CK?$CK?$CK?$CK?$CK?$CK?$CK?$CK?$CK@ DB '*'
	DB	'*******************************                              '
	DB	'                ', 00H			; `string'
CONST	ENDS
;	COMDAT ??_C@_0M@GPMOAIEF@SPARSE_FILE?$AA@
CONST	SEGMENT
??_C@_0M@GPMOAIEF@SPARSE_FILE?$AA@ DB 'SPARSE_FILE', 00H ; `string'
CONST	ENDS
;	COMDAT ??_C@_0BA@LBGDFDPO@IDC_QUICKFORMAT?$AA@
CONST	SEGMENT
??_C@_0BA@LBGDFDPO@IDC_QUICKFORMAT?$AA@ DB 'IDC_QUICKFORMAT', 00H ; `string'
CONST	ENDS
;	COMDAT ??_C@_0N@FLIHGDJB@FORMAT_TITLE?$AA@
CONST	SEGMENT
??_C@_0N@FLIHGDJB@FORMAT_TITLE?$AA@ DB 'FORMAT_TITLE', 00H ; `string'
CONST	ENDS
;	COMDAT ??_C@_0BE@CEEOMNDM@FORMAT_HIDVOL_TITLE?$AA@
CONST	SEGMENT
??_C@_0BE@CEEOMNDM@FORMAT_HIDVOL_TITLE?$AA@ DB 'FORMAT_HIDVOL_TITLE', 00H ; `string'
CONST	ENDS
;	COMDAT ??_C@_0BJ@LIGEKHGE@FORMAT_HIDVOL_HOST_TITLE?$AA@
CONST	SEGMENT
??_C@_0BJ@LIGEKHGE@FORMAT_HIDVOL_HOST_TITLE?$AA@ DB 'FORMAT_HIDVOL_HOST_T'
	DB	'ITLE', 00H					; `string'
CONST	ENDS
;	COMDAT ??_C@_0M@EEPPFDAO@FORMAT_HELP?$AA@
CONST	SEGMENT
??_C@_0M@EEPPFDAO@FORMAT_HELP?$AA@ DB 'FORMAT_HELP', 00H ; `string'
CONST	ENDS
;	COMDAT ??_C@_0BI@MEDALEIG@FORMAT_HIDVOL_HOST_HELP?$AA@
CONST	SEGMENT
??_C@_0BI@MEDALEIG@FORMAT_HIDVOL_HOST_HELP?$AA@ DB 'FORMAT_HIDVOL_HOST_HE'
	DB	'LP', 00H					; `string'
CONST	ENDS
;	COMDAT ??_C@_08MFKGCNCO@FINALIZE?$AA@
CONST	SEGMENT
??_C@_08MFKGCNCO@FINALIZE?$AA@ DB 'FINALIZE', 00H	; `string'
CONST	ENDS
;	COMDAT ??_C@_0CC@LOJCKPNA@NONSYS_INPLACE_ENC_FINISHED_TITL@
CONST	SEGMENT
??_C@_0CC@LOJCKPNA@NONSYS_INPLACE_ENC_FINISHED_TITL@ DB 'NONSYS_INPLACE_E'
	DB	'NC_FINISHED_TITLE', 00H			; `string'
CONST	ENDS
;	COMDAT ??_C@_0CI@MDGBIFPN@NONSYS_INPLACE_ENC_ENCRYPTION_PA@
CONST	SEGMENT
??_C@_0CI@MDGBIFPN@NONSYS_INPLACE_ENC_ENCRYPTION_PA@ DB 'NONSYS_INPLACE_E'
	DB	'NC_ENCRYPTION_PAGE_INFO', 00H		; `string'
CONST	ENDS
;	COMDAT ??_C@_0CK@KEEMKNMD@NONSYS_INPLACE_ENC_RESUME_VOL_SE@
CONST	SEGMENT
??_C@_0CK@KEEMKNMD@NONSYS_INPLACE_ENC_RESUME_VOL_SE@ DB 'NONSYS_INPLACE_E'
	DB	'NC_RESUME_VOL_SELECT_HELP', 00H		; `string'
CONST	ENDS
;	COMDAT ??_C@_0BM@LFGBLAAC@SYSENC_ENCRYPTION_PAGE_INFO?$AA@
CONST	SEGMENT
??_C@_0BM@LFGBLAAC@SYSENC_ENCRYPTION_PAGE_INFO?$AA@ DB 'SYSENC_ENCRYPTION'
	DB	'_PAGE_INFO', 00H				; `string'
CONST	ENDS
;	COMDAT ??_C@_0L@POBGFBLK@DECRYPTION?$AA@
CONST	SEGMENT
??_C@_0L@POBGFBLK@DECRYPTION?$AA@ DB 'DECRYPTION', 00H	; `string'
CONST	ENDS
;	COMDAT ??_C@_0L@MHHIHFIN@ENCRYPTION?$AA@
CONST	SEGMENT
??_C@_0L@MHHIHFIN@ENCRYPTION?$AA@ DB 'ENCRYPTION', 00H	; `string'
CONST	ENDS
;	COMDAT ??_C@_0CD@BONEGKLO@SYS_ENCRYPTION_PRETEST_RESULT_IN@
CONST	SEGMENT
??_C@_0CD@BONEGKLO@SYS_ENCRYPTION_PRETEST_RESULT_IN@ DB 'SYS_ENCRYPTION_P'
	DB	'RETEST_RESULT_INFO', 00H			; `string'
CONST	ENDS
;	COMDAT ??_C@_0CE@FEPHBNLJ@SYS_ENCRYPTION_PRETEST_RESULT_TI@
CONST	SEGMENT
??_C@_0CE@FEPHBNLJ@SYS_ENCRYPTION_PRETEST_RESULT_TI@ DB 'SYS_ENCRYPTION_P'
	DB	'RETEST_RESULT_TITLE', 00H			; `string'
CONST	ENDS
;	COMDAT ??_C@_04OIKJMBFP@TEST?$AA@
CONST	SEGMENT
??_C@_04OIKJMBFP@TEST?$AA@ DB 'TEST', 00H		; `string'
CONST	ENDS
;	COMDAT ??_C@_0BM@OIIAJLEO@SYS_ENCRYPTION_PRETEST_INFO?$AA@
CONST	SEGMENT
??_C@_0BM@OIIAJLEO@SYS_ENCRYPTION_PRETEST_INFO?$AA@ DB 'SYS_ENCRYPTION_PR'
	DB	'ETEST_INFO', 00H				; `string'
CONST	ENDS
;	COMDAT ??_C@_0BN@OJLMLLFE@SYS_ENCRYPTION_PRETEST_TITLE?$AA@
CONST	SEGMENT
??_C@_0BN@OJLMLLFE@SYS_ENCRYPTION_PRETEST_TITLE?$AA@ DB 'SYS_ENCRYPTION_P'
	DB	'RETEST_TITLE', 00H				; `string'
CONST	ENDS
;	COMDAT ??_C@_05JLPDBANI@START?$AA@
CONST	SEGMENT
??_C@_05JLPDBANI@START?$AA@ DB 'START', 00H		; `string'
CONST	ENDS
;	COMDAT ??_C@_0CA@GFBCACCB@HIDDEN_OS_CREATION_PREINFO_HELP?$AA@
CONST	SEGMENT
??_C@_0CA@GFBCACCB@HIDDEN_OS_CREATION_PREINFO_HELP?$AA@ DB 'HIDDEN_OS_CRE'
	DB	'ATION_PREINFO_HELP', 00H			; `string'
CONST	ENDS
;	COMDAT ??_C@_0CB@PAHHLDJJ@HIDDEN_OS_CREATION_PREINFO_TITLE@
CONST	SEGMENT
??_C@_0CB@PAHHLDJJ@HIDDEN_OS_CREATION_PREINFO_TITLE@ DB 'HIDDEN_OS_CREATI'
	DB	'ON_PREINFO_TITLE', 00H			; `string'
CONST	ENDS
;	COMDAT ??_C@_0BL@KPLPAAMG@INPLACE_ENC_WIPE_MODE_INFO?$AA@
CONST	SEGMENT
??_C@_0BL@KPLPAAMG@INPLACE_ENC_WIPE_MODE_INFO?$AA@ DB 'INPLACE_ENC_WIPE_M'
	DB	'ODE_INFO', 00H				; `string'
CONST	ENDS
;	COMDAT ??_C@_0BA@GEMFOMCA@WIPE_MODE_TITLE?$AA@
CONST	SEGMENT
??_C@_0BA@GEMFOMCA@WIPE_MODE_TITLE?$AA@ DB 'WIPE_MODE_TITLE', 00H ; `string'
CONST	ENDS
;	COMDAT ??_C@_0BK@PHEMJDOE@RESCUE_DISK_VERIFIED_INFO?$AA@
CONST	SEGMENT
??_C@_0BK@PHEMJDOE@RESCUE_DISK_VERIFIED_INFO?$AA@ DB 'RESCUE_DISK_VERIFIE'
	DB	'D_INFO', 00H				; `string'
CONST	ENDS
;	COMDAT ??_C@_0CA@OFKHEBFP@RESCUE_DISK_DISK_VERIFIED_TITLE?$AA@
CONST	SEGMENT
??_C@_0CA@OFKHEBFP@RESCUE_DISK_DISK_VERIFIED_TITLE?$AA@ DB 'RESCUE_DISK_D'
	DB	'ISK_VERIFIED_TITLE', 00H			; `string'
CONST	ENDS
;	COMDAT ??_C@_0BD@CHINNFGJ@LAUNCH_WIN_ISOBURN?$AA@
CONST	SEGMENT
??_C@_0BD@CHINNFGJ@LAUNCH_WIN_ISOBURN?$AA@ DB 'LAUNCH_WIN_ISOBURN', 00H ; `string'
CONST	ENDS
;	COMDAT ??_C@_0BG@KIJPDAJH@RESCUE_DISK_BURN_INFO?$AA@
CONST	SEGMENT
??_C@_0BG@KIJPDAJH@RESCUE_DISK_BURN_INFO?$AA@ DB 'RESCUE_DISK_BURN_INFO', 00H ; `string'
CONST	ENDS
;	COMDAT ??_C@_0BP@JAENMDIB@RESCUE_DISK_BURN_INFO_NO_CHECK?$AA@
CONST	SEGMENT
??_C@_0BP@JAENMDIB@RESCUE_DISK_BURN_INFO_NO_CHECK?$AA@ DB 'RESCUE_DISK_BU'
	DB	'RN_INFO_NO_CHECK', 00H			; `string'
CONST	ENDS
;	COMDAT ??_C@_0CI@IHEJGKND@RESCUE_DISK_BURN_INFO_NONWIN_ISO@
CONST	SEGMENT
??_C@_0CI@IHEJGKND@RESCUE_DISK_BURN_INFO_NONWIN_ISO@ DB 'RESCUE_DISK_BURN'
	DB	'_INFO_NONWIN_ISO_BURNER', 00H		; `string'
CONST	ENDS
;	COMDAT ??_C@_0BM@GPDOJGLC@RESCUE_DISK_RECORDING_TITLE?$AA@
CONST	SEGMENT
??_C@_0BM@GPDOJGLC@RESCUE_DISK_RECORDING_TITLE?$AA@ DB 'RESCUE_DISK_RECOR'
	DB	'DING_TITLE', 00H				; `string'
CONST	ENDS
;	COMDAT ??_C@_0BK@NAGNMEFO@RESCUE_DISK_CREATED_TITLE?$AA@
CONST	SEGMENT
??_C@_0BK@NAGNMEFO@RESCUE_DISK_CREATED_TITLE?$AA@ DB 'RESCUE_DISK_CREATED'
	DB	'_TITLE', 00H				; `string'
CONST	ENDS
;	COMDAT ??_C@_0BB@KBMALCGN@RESCUE_DISK_INFO?$AA@
CONST	SEGMENT
??_C@_0BB@KBMALCGN@RESCUE_DISK_INFO?$AA@ DB 'RESCUE_DISK_INFO', 00H ; `string'
CONST	ENDS
;	COMDAT ??_C@_0M@IGHMLIGA@RESCUE_DISK?$AA@
CONST	SEGMENT
??_C@_0M@IGHMLIGA@RESCUE_DISK?$AA@ DB 'RESCUE_DISK', 00H ; `string'
CONST	ENDS
;	COMDAT ??_C@_0P@KEHBBAFI@KEYS_GEN_TITLE?$AA@
CONST	SEGMENT
??_C@_0P@KEHBBAFI@KEYS_GEN_TITLE?$AA@ DB 'KEYS_GEN_TITLE', 00H ; `string'
CONST	ENDS
;	COMDAT ??_C@_0BN@DAHBFIJD@COLLECTING_RANDOM_DATA_TITLE?$AA@
CONST	SEGMENT
??_C@_0BN@DAHBFIJD@COLLECTING_RANDOM_DATA_TITLE?$AA@ DB 'COLLECTING_RANDO'
	DB	'M_DATA_TITLE', 00H				; `string'
CONST	ENDS
;	COMDAT ??_C@_0CF@BDOPEICN@FILESYS_PAGE_HELP_EXPLANATION_HI@
CONST	SEGMENT
??_C@_0CF@BDOPEICN@FILESYS_PAGE_HELP_EXPLANATION_HI@ DB 'FILESYS_PAGE_HEL'
	DB	'P_EXPLANATION_HIDVOL', 00H			; `string'
CONST	ENDS
;	COMDAT ??_C@_0BO@NPNHCCNA@FILESYS_PAGE_HELP_EXPLANATION?$AA@
CONST	SEGMENT
??_C@_0BO@NPNHCCNA@FILESYS_PAGE_HELP_EXPLANATION?$AA@ DB 'FILESYS_PAGE_HE'
	DB	'LP_EXPLANATION', 00H			; `string'
CONST	ENDS
;	COMDAT ??_C@_0P@JPAMOBPC@NOTE_BEGINNING?$AA@
CONST	SEGMENT
??_C@_0P@JPAMOBPC@NOTE_BEGINNING?$AA@ DB 'NOTE_BEGINNING', 00H ; `string'
CONST	ENDS
;	COMDAT ??_C@_17MFDLPPFM@?$AA?6?$AA?6?$AA?6?$AA?$AA@
CONST	SEGMENT
??_C@_17MFDLPPFM@?$AA?6?$AA?6?$AA?6?$AA?$AA@ DB 0aH, 00H, 0aH, 00H, 0aH, 00H
	DB	00H, 00H					; `string'
CONST	ENDS
;	COMDAT ??_C@_0BL@IEILEGP@FILESYS_PAGE_HELP_QUESTION?$AA@
CONST	SEGMENT
??_C@_0BL@IEILEGP@FILESYS_PAGE_HELP_QUESTION?$AA@ DB 'FILESYS_PAGE_HELP_Q'
	DB	'UESTION', 00H				; `string'
CONST	ENDS
;	COMDAT ??_C@_0BD@LCAKBGFA@FILESYS_PAGE_TITLE?$AA@
CONST	SEGMENT
??_C@_0BD@LCAKBGFA@FILESYS_PAGE_TITLE?$AA@ DB 'FILESYS_PAGE_TITLE', 00H ; `string'
CONST	ENDS
;	COMDAT ??_C@_0P@ONGBFCBF@PASSWORD_TITLE?$AA@
CONST	SEGMENT
??_C@_0P@ONGBFCBF@PASSWORD_TITLE?$AA@ DB 'PASSWORD_TITLE', 00H ; `string'
CONST	ENDS
;	COMDAT ??_C@_0BG@ILMPEOM@PASSWORD_HIDVOL_TITLE?$AA@
CONST	SEGMENT
??_C@_0BG@ILMPEOM@PASSWORD_HIDVOL_TITLE?$AA@ DB 'PASSWORD_HIDVOL_TITLE', 00H ; `string'
CONST	ENDS
;	COMDAT ??_C@_0BJ@CPICCPLA@PASSWORD_HIDDEN_OS_TITLE?$AA@
CONST	SEGMENT
??_C@_0BJ@CPICCPLA@PASSWORD_HIDDEN_OS_TITLE?$AA@ DB 'PASSWORD_HIDDEN_OS_T'
	DB	'ITLE', 00H					; `string'
CONST	ENDS
;	COMDAT ??_C@_0BI@MNFELCPB@PASSWORD_HIDDENVOL_HELP?$AA@
CONST	SEGMENT
??_C@_0BI@MNFELCPB@PASSWORD_HIDDENVOL_HELP?$AA@ DB 'PASSWORD_HIDDENVOL_HE'
	DB	'LP', 00H					; `string'
CONST	ENDS
;	COMDAT ??_C@_0BI@PAGBOIIN@PASSWORD_HIDDEN_OS_HELP?$AA@
CONST	SEGMENT
??_C@_0BI@PAGBOIIN@PASSWORD_HIDDEN_OS_HELP?$AA@ DB 'PASSWORD_HIDDEN_OS_HE'
	DB	'LP', 00H					; `string'
CONST	ENDS
;	COMDAT ??_C@_0O@MEODOKDB@PASSWORD_HELP?$AA@
CONST	SEGMENT
??_C@_0O@MEODOKDB@PASSWORD_HELP?$AA@ DB 'PASSWORD_HELP', 00H ; `string'
CONST	ENDS
;	COMDAT ??_C@_0BN@OJJOHFMM@PASSWORD_HIDDENVOL_HOST_HELP?$AA@
CONST	SEGMENT
??_C@_0BN@OJJOHFMM@PASSWORD_HIDDENVOL_HOST_HELP?$AA@ DB 'PASSWORD_HIDDENV'
	DB	'OL_HOST_HELP', 00H				; `string'
CONST	ENDS
;	COMDAT ??_C@_0BO@EJBBHKGE@PASSWORD_SYSENC_OUTERVOL_HELP?$AA@
CONST	SEGMENT
??_C@_0BO@EJBBHKGE@PASSWORD_SYSENC_OUTERVOL_HELP?$AA@ DB 'PASSWORD_SYSENC'
	DB	'_OUTERVOL_HELP', 00H			; `string'
CONST	ENDS
;	COMDAT ??_C@_0BB@MMDPAFIK@CANNOT_SET_TIMER?$AA@
CONST	SEGMENT
??_C@_0BB@MMDPAFIK@CANNOT_SET_TIMER?$AA@ DB 'CANNOT_SET_TIMER', 00H ; `string'
CONST	ENDS
;	COMDAT ??_C@_0CL@KAEHBIEI@CANT_CHANGE_KEYB_LAYOUT_FOR_SYS_@
CONST	SEGMENT
??_C@_0CL@KAEHBIEI@CANT_CHANGE_KEYB_LAYOUT_FOR_SYS_@ DB 'CANT_CHANGE_KEYB'
	DB	'_LAYOUT_FOR_SYS_ENCRYPTION', 00H		; `string'
CONST	ENDS
;	COMDAT ??_C@_08OKJEGFFL@00000409?$AA@
CONST	SEGMENT
??_C@_08OKJEGFFL@00000409?$AA@ DB '00000409', 00H	; `string'
CONST	ENDS
;	COMDAT ??_C@_04JIMNDDED@?$CF08X?$AA@
CONST	SEGMENT
??_C@_04JIMNDDED@?$CF08X?$AA@ DB '%08X', 00H		; `string'
CONST	ENDS
;	COMDAT ??_C@_0BL@DDMDKDAG@PASSWORD_HIDVOL_HOST_TITLE?$AA@
CONST	SEGMENT
??_C@_0BL@DDMDKDAG@PASSWORD_HIDVOL_HOST_TITLE?$AA@ DB 'PASSWORD_HIDVOL_HO'
	DB	'ST_TITLE', 00H				; `string'
CONST	ENDS
;	COMDAT ??_C@_08KENNMKEI@PASSWORD?$AA@
CONST	SEGMENT
??_C@_08KENNMKEI@PASSWORD?$AA@ DB 'PASSWORD', 00H	; `string'
CONST	ENDS
;	COMDAT ??_C@_0CE@MPBBLHJC@PASSWORD_HIDDENVOL_HOST_DIRECT_H@
CONST	SEGMENT
??_C@_0CE@MPBBLHJC@PASSWORD_HIDDENVOL_HOST_DIRECT_H@ DB 'PASSWORD_HIDDENV'
	DB	'OL_HOST_DIRECT_HELP', 00H			; `string'
CONST	ENDS
;	COMDAT ??_C@_0CN@CCCDIOBF@NONSYS_INPLACE_ENC_RESUME_PASSWO@
CONST	SEGMENT
??_C@_0CN@CCCDIOBF@NONSYS_INPLACE_ENC_RESUME_PASSWO@ DB 'NONSYS_INPLACE_E'
	DB	'NC_RESUME_PASSWORD_PAGE_HELP', 00H		; `string'
CONST	ENDS
;	COMDAT ??_C@_0L@DGAKGAKL@SIZE_TITLE?$AA@
CONST	SEGMENT
??_C@_0L@DGAKGAKL@SIZE_TITLE?$AA@ DB 'SIZE_TITLE', 00H	; `string'
CONST	ENDS
;	COMDAT ??_C@_0BC@COPDBOHD@SIZE_HIDVOL_TITLE?$AA@
CONST	SEGMENT
??_C@_0BC@COPDBOHD@SIZE_HIDVOL_TITLE?$AA@ DB 'SIZE_HIDVOL_TITLE', 00H ; `string'
CONST	ENDS
;	COMDAT ??_C@_0BH@GBEPPLEC@SIZE_HIDVOL_HOST_TITLE?$AA@
CONST	SEGMENT
??_C@_0BH@GBEPPLEC@SIZE_HIDVOL_HOST_TITLE?$AA@ DB 'SIZE_HIDVOL_HOST_TITLE'
	DB	00H						; `string'
CONST	ENDS
;	COMDAT ??_C@_05OINFJHGD@?$CFI64u?$AA@
CONST	SEGMENT
??_C@_05OINFJHGD@?$CFI64u?$AA@ DB '%I64u', 00H		; `string'
CONST	ENDS
;	COMDAT ??_C@_07NFANNNEC@UNKNOWN?$AA@
CONST	SEGMENT
??_C@_07NFANNNEC@UNKNOWN?$AA@ DB 'UNKNOWN', 00H		; `string'
CONST	ENDS
;	COMDAT ??_C@_19LJDFFCJJ@?$AA?$CF?$AAs?$AA?$CF?$AAs?$AA?$AA@
CONST	SEGMENT
??_C@_19LJDFFCJJ@?$AA?$CF?$AAs?$AA?$CF?$AAs?$AA?$AA@ DB '%', 00H, 's', 00H
	DB	'%', 00H, 's', 00H, 00H, 00H			; `string'
CONST	ENDS
;	COMDAT ??_C@_0BE@FGKMPGH@SIZE_PARTITION_HELP?$AA@
CONST	SEGMENT
??_C@_0BE@FGKMPGH@SIZE_PARTITION_HELP?$AA@ DB 'SIZE_PARTITION_HELP', 00H ; `string'
CONST	ENDS
;	COMDAT ??_C@_0CC@MIIACKDF@SIZE_PARTITION_HIDDEN_SYSENC_HEL@
CONST	SEGMENT
??_C@_0CC@MIIACKDF@SIZE_PARTITION_HIDDEN_SYSENC_HEL@ DB 'SIZE_PARTITION_H'
	DB	'IDDEN_SYSENC_HELP', 00H			; `string'
CONST	ENDS
;	COMDAT ??_C@_0BP@JPPBFIHO@SIZE_PARTITION_HIDDEN_VOL_HELP?$AA@
CONST	SEGMENT
??_C@_0BP@JPPBFIHO@SIZE_PARTITION_HIDDEN_VOL_HELP?$AA@ DB 'SIZE_PARTITION'
	DB	'_HIDDEN_VOL_HELP', 00H			; `string'
CONST	ENDS
;	COMDAT ??_C@_09BEBIICBL@SIZE_HELP?$AA@
CONST	SEGMENT
??_C@_09BEBIICBL@SIZE_HELP?$AA@ DB 'SIZE_HELP', 00H	; `string'
CONST	ENDS
;	COMDAT ??_C@_0BF@LOOCDJPI@SIZE_HELP_HIDDEN_VOL?$AA@
CONST	SEGMENT
??_C@_0BF@LOOCDJPI@SIZE_HELP_HIDDEN_VOL?$AA@ DB 'SIZE_HELP_HIDDEN_VOL', 00H ; `string'
CONST	ENDS
;	COMDAT ??_C@_0BK@DEODNGPK@SIZE_HELP_HIDDEN_HOST_VOL?$AA@
CONST	SEGMENT
??_C@_0BK@DEODNGPK@SIZE_HELP_HIDDEN_HOST_VOL?$AA@ DB 'SIZE_HELP_HIDDEN_HO'
	DB	'ST_VOL', 00H				; `string'
CONST	ENDS
;	COMDAT ??_C@_0N@IMFDFPGM@CIPHER_TITLE?$AA@
CONST	SEGMENT
??_C@_0N@IMFDFPGM@CIPHER_TITLE?$AA@ DB 'CIPHER_TITLE', 00H ; `string'
CONST	ENDS
;	COMDAT ??_C@_0BE@JFKJAJEK@CIPHER_HIDVOL_TITLE?$AA@
CONST	SEGMENT
??_C@_0BE@JFKJAJEK@CIPHER_HIDVOL_TITLE?$AA@ DB 'CIPHER_HIDVOL_TITLE', 00H ; `string'
CONST	ENDS
;	COMDAT ??_C@_0BJ@GGKKJCIG@CIPHER_HIDVOL_HOST_TITLE?$AA@
CONST	SEGMENT
??_C@_0BJ@GGKKJCIG@CIPHER_HIDVOL_HOST_TITLE?$AA@ DB 'CIPHER_HIDVOL_HOST_T'
	DB	'ITLE', 00H					; `string'
CONST	ENDS
;	COMDAT ??_C@_0BH@GDOHBMLG@HIDVOL_PRE_CIPHER_HELP?$AA@
CONST	SEGMENT
??_C@_0BH@GDOHBMLG@HIDVOL_PRE_CIPHER_HELP?$AA@ DB 'HIDVOL_PRE_CIPHER_HELP'
	DB	00H						; `string'
CONST	ENDS
;	COMDAT ??_C@_0BK@FGHOHKMP@HIDDEN_OS_PRE_CIPHER_HELP?$AA@
CONST	SEGMENT
??_C@_0BK@FGHOHKMP@HIDDEN_OS_PRE_CIPHER_HELP?$AA@ DB 'HIDDEN_OS_PRE_CIPHE'
	DB	'R_HELP', 00H				; `string'
CONST	ENDS
;	COMDAT ??_C@_04GOLNGIJ@EXIT?$AA@
CONST	SEGMENT
??_C@_04GOLNGIJ@EXIT?$AA@ DB 'EXIT', 00H		; `string'
CONST	ENDS
;	COMDAT ??_C@_0CF@OIPNIHCG@HIDDEN_VOLUME_TOO_SMALL_FOR_OS_C@
CONST	SEGMENT
??_C@_0CF@OIPNIHCG@HIDDEN_VOLUME_TOO_SMALL_FOR_OS_C@ DB 'HIDDEN_VOLUME_TO'
	DB	'O_SMALL_FOR_OS_CLONE', 00H			; `string'
CONST	ENDS
;	COMDAT ??_C@_0BI@JOBKEAGA@HIDVOL_PRE_CIPHER_TITLE?$AA@
CONST	SEGMENT
??_C@_0BI@JOBKEAGA@HIDVOL_PRE_CIPHER_TITLE?$AA@ DB 'HIDVOL_PRE_CIPHER_TIT'
	DB	'LE', 00H					; `string'
CONST	ENDS
;	COMDAT ??_C@_0N@PJPEEMEG@INVALID_PATH?$AA@
CONST	SEGMENT
??_C@_0N@PJPEEMEG@INVALID_PATH?$AA@ DB 'INVALID_PATH', 00H ; `string'
CONST	ENDS
;	COMDAT ??_C@_0BM@GCHOHFOK@HIDVOL_HOST_PRE_CIPHER_HELP?$AA@
CONST	SEGMENT
??_C@_0BM@GCHOHFOK@HIDVOL_HOST_PRE_CIPHER_HELP?$AA@ DB 'HIDVOL_HOST_PRE_C'
	DB	'IPHER_HELP', 00H				; `string'
CONST	ENDS
;	COMDAT ??_C@_0CD@OMGBOOGK@HIDVOL_HOST_PRE_CIPHER_HELP_SYSE@
CONST	SEGMENT
??_C@_0CD@OMGBOOGK@HIDVOL_HOST_PRE_CIPHER_HELP_SYSE@ DB 'HIDVOL_HOST_PRE_'
	DB	'CIPHER_HELP_SYSENC', 00H			; `string'
CONST	ENDS
;	COMDAT ??_C@_0BN@PMMGMENG@HIDVOL_HOST_PRE_CIPHER_TITLE?$AA@
CONST	SEGMENT
??_C@_0BN@PMMGMENG@HIDVOL_HOST_PRE_CIPHER_TITLE?$AA@ DB 'HIDVOL_HOST_PRE_'
	DB	'CIPHER_TITLE', 00H				; `string'
CONST	ENDS
;	COMDAT ??_C@_0CI@FGJIGFAK@DEVICE_TRANSFORM_MODE_PAGE_INPLA@
CONST	SEGMENT
??_C@_0CI@FGJIGFAK@DEVICE_TRANSFORM_MODE_PAGE_INPLA@ DB 'DEVICE_TRANSFORM'
	DB	'_MODE_PAGE_INPLACE_HELP', 00H		; `string'
CONST	ENDS
;	COMDAT ??_C@_0CH@CJGGIKCO@DEVICE_TRANSFORM_MODE_PAGE_FORMA@
CONST	SEGMENT
??_C@_0CH@CJGGIKCO@DEVICE_TRANSFORM_MODE_PAGE_FORMA@ DB 'DEVICE_TRANSFORM'
	DB	'_MODE_PAGE_FORMAT_HELP', 00H		; `string'
CONST	ENDS
;	COMDAT ??_C@_0CB@IJHCDAO@DEVICE_TRANSFORM_MODE_PAGE_TITLE@
CONST	SEGMENT
??_C@_0CB@IJHCDAO@DEVICE_TRANSFORM_MODE_PAGE_TITLE@ DB 'DEVICE_TRANSFORM_'
	DB	'MODE_PAGE_TITLE', 00H			; `string'
CONST	ENDS
;	COMDAT ??_C@_0L@DGHBDDNJ@FILE_TITLE?$AA@
CONST	SEGMENT
??_C@_0L@DGHBDDNJ@FILE_TITLE?$AA@ DB 'FILE_TITLE', 00H	; `string'
CONST	ENDS
;	COMDAT ??_C@_09GPELPABL@FILE_HELP?$AA@
CONST	SEGMENT
??_C@_09GPELPABL@FILE_HELP?$AA@ DB 'FILE_HELP', 00H	; `string'
CONST	ENDS
;	COMDAT ??_C@_0BK@JMGOJAKG@FILE_HELP_HIDDEN_HOST_VOL?$AA@
CONST	SEGMENT
??_C@_0BK@JMGOJAKG@FILE_HELP_HIDDEN_HOST_VOL?$AA@ DB 'FILE_HELP_HIDDEN_HO'
	DB	'ST_VOL', 00H				; `string'
CONST	ENDS
;	COMDAT ??_C@_0M@JNOAPEGE@DEVICE_HELP?$AA@
CONST	SEGMENT
??_C@_0M@JNOAPEGE@DEVICE_HELP?$AA@ DB 'DEVICE_HELP', 00H ; `string'
CONST	ENDS
;	COMDAT ??_C@_0BM@DMHDGBOJ@DEVICE_HELP_HIDDEN_HOST_VOL?$AA@
CONST	SEGMENT
??_C@_0BM@DMHDGBOJ@DEVICE_HELP_HIDDEN_HOST_VOL?$AA@ DB 'DEVICE_HELP_HIDDE'
	DB	'N_HOST_VOL', 00H				; `string'
CONST	ENDS
;	COMDAT ??_C@_0CB@LOIOBDOO@FILE_HELP_HIDDEN_HOST_VOL_DIRECT@
CONST	SEGMENT
??_C@_0CB@LOIOBDOO@FILE_HELP_HIDDEN_HOST_VOL_DIRECT@ DB 'FILE_HELP_HIDDEN'
	DB	'_HOST_VOL_DIRECT', 00H			; `string'
CONST	ENDS
;	COMDAT ??_C@_0BA@HOMDJPL@IDC_SELECT_FILE?$AA@
CONST	SEGMENT
??_C@_0BA@HOMDJPL@IDC_SELECT_FILE?$AA@ DB 'IDC_SELECT_FILE', 00H ; `string'
CONST	ENDS
;	COMDAT ??_C@_0BC@NHEENOIC@IDC_SELECT_DEVICE?$AA@
CONST	SEGMENT
??_C@_0BC@NHEENOIC@IDC_SELECT_DEVICE?$AA@ DB 'IDC_SELECT_DEVICE', 00H ; `string'
CONST	ENDS
;	COMDAT ??_C@_0CD@BGGCLDPJ@HIDDEN_VOL_WIZARD_MODE_DIRECT_HE@
CONST	SEGMENT
??_C@_0CD@BGGCLDPJ@HIDDEN_VOL_WIZARD_MODE_DIRECT_HE@ DB 'HIDDEN_VOL_WIZAR'
	DB	'D_MODE_DIRECT_HELP', 00H			; `string'
CONST	ENDS
;	COMDAT ??_C@_0CD@LJCMOGBH@HIDDEN_VOL_WIZARD_MODE_NORMAL_HE@
CONST	SEGMENT
??_C@_0CD@LJCMOGBH@HIDDEN_VOL_WIZARD_MODE_NORMAL_HE@ DB 'HIDDEN_VOL_WIZAR'
	DB	'D_MODE_NORMAL_HELP', 00H			; `string'
CONST	ENDS
;	COMDAT ??_C@_0BN@CFKNBCJG@HIDDEN_VOL_WIZARD_MODE_TITLE?$AA@
CONST	SEGMENT
??_C@_0BN@CFKNBCJG@HIDDEN_VOL_WIZARD_MODE_TITLE?$AA@ DB 'HIDDEN_VOL_WIZAR'
	DB	'D_MODE_TITLE', 00H				; `string'
CONST	ENDS
;	COMDAT ??_C@_0BI@OKEJAKDK@NORMAL_VOLUME_TYPE_HELP?$AA@
CONST	SEGMENT
??_C@_0BI@OKEJAKDK@NORMAL_VOLUME_TYPE_HELP?$AA@ DB 'NORMAL_VOLUME_TYPE_HE'
	DB	'LP', 00H					; `string'
CONST	ENDS
;	COMDAT ??_C@_0BI@OMMJFNJB@HIDDEN_VOLUME_TYPE_HELP?$AA@
CONST	SEGMENT
??_C@_0BI@OMMJFNJB@HIDDEN_VOLUME_TYPE_HELP?$AA@ DB 'HIDDEN_VOLUME_TYPE_HE'
	DB	'LP', 00H					; `string'
CONST	ENDS
;	COMDAT ??_C@_0BC@IMPHNJMH@VOLUME_TYPE_TITLE?$AA@
CONST	SEGMENT
??_C@_0BC@IMPHNJMH@VOLUME_TYPE_TITLE?$AA@ DB 'VOLUME_TYPE_TITLE', 00H ; `string'
CONST	ENDS
;	COMDAT ??_C@_0CA@FOODICMO@SYSENC_MULTI_BOOT_OUTCOME_TITLE?$AA@
CONST	SEGMENT
??_C@_0CA@FOODICMO@SYSENC_MULTI_BOOT_OUTCOME_TITLE?$AA@ DB 'SYSENC_MULTI_'
	DB	'BOOT_OUTCOME_TITLE', 00H			; `string'
CONST	ENDS
;	COMDAT ??_C@_0CK@NGBECAKP@SYSENC_MULTI_BOOT_NONWIN_BOOT_LO@
CONST	SEGMENT
??_C@_0CK@NGBECAKP@SYSENC_MULTI_BOOT_NONWIN_BOOT_LO@ DB 'SYSENC_MULTI_BOO'
	DB	'T_NONWIN_BOOT_LOADER_HELP', 00H		; `string'
CONST	ENDS
;	COMDAT ??_C@_0CL@PKMEBLJM@SYSENC_MULTI_BOOT_NONWIN_BOOT_LO@
CONST	SEGMENT
??_C@_0CL@PKMEBLJM@SYSENC_MULTI_BOOT_NONWIN_BOOT_LO@ DB 'SYSENC_MULTI_BOO'
	DB	'T_NONWIN_BOOT_LOADER_TITLE', 00H		; `string'
CONST	ENDS
;	COMDAT ??_C@_0CE@CGLNKLHK@SYSENC_MULTI_BOOT_ADJACENT_SYS_H@
CONST	SEGMENT
??_C@_0CE@CGLNKLHK@SYSENC_MULTI_BOOT_ADJACENT_SYS_H@ DB 'SYSENC_MULTI_BOO'
	DB	'T_ADJACENT_SYS_HELP', 00H			; `string'
CONST	ENDS
;	COMDAT ??_C@_0CF@MINJEEM@SYSENC_MULTI_BOOT_ADJACENT_SYS_T@
CONST	SEGMENT
??_C@_0CF@MINJEEM@SYSENC_MULTI_BOOT_ADJACENT_SYS_T@ DB 'SYSENC_MULTI_BOOT'
	DB	'_ADJACENT_SYS_TITLE', 00H			; `string'
CONST	ENDS
;	COMDAT ??_C@_0CG@GBIPGAOP@SYSENC_MULTI_BOOT_NBR_SYS_DRIVES@
CONST	SEGMENT
??_C@_0CG@GBIPGAOP@SYSENC_MULTI_BOOT_NBR_SYS_DRIVES@ DB 'SYSENC_MULTI_BOO'
	DB	'T_NBR_SYS_DRIVES_HELP', 00H			; `string'
CONST	ENDS
;	COMDAT ??_C@_0CH@IMKPMBEM@SYSENC_MULTI_BOOT_NBR_SYS_DRIVES@
CONST	SEGMENT
??_C@_0CH@IMKPMBEM@SYSENC_MULTI_BOOT_NBR_SYS_DRIVES@ DB 'SYSENC_MULTI_BOO'
	DB	'T_NBR_SYS_DRIVES_TITLE', 00H		; `string'
CONST	ENDS
;	COMDAT ??_C@_0M@BAIFEFDO@TWO_OR_MORE?$AA@
CONST	SEGMENT
??_C@_0M@BAIFEFDO@TWO_OR_MORE?$AA@ DB 'TWO_OR_MORE', 00H ; `string'
CONST	ENDS
;	COMDAT ??_C@_09BCPPDPEL@DIGIT_ONE?$AA@
CONST	SEGMENT
??_C@_09BCPPDPEL@DIGIT_ONE?$AA@ DB 'DIGIT_ONE', 00H	; `string'
CONST	ENDS
;	COMDAT ??_C@_0CD@ODHMCLM@SYSENC_MULTI_BOOT_SYS_EQ_BOOT_HE@
CONST	SEGMENT
??_C@_0CD@ODHMCLM@SYSENC_MULTI_BOOT_SYS_EQ_BOOT_HE@ DB 'SYSENC_MULTI_BOOT'
	DB	'_SYS_EQ_BOOT_HELP', 00H			; `string'
CONST	ENDS
;	COMDAT ??_C@_0CE@HOKCHJKA@SYSENC_MULTI_BOOT_SYS_EQ_BOOT_TI@
CONST	SEGMENT
??_C@_0CE@HOKCHJKA@SYSENC_MULTI_BOOT_SYS_EQ_BOOT_TI@ DB 'SYSENC_MULTI_BOO'
	DB	'T_SYS_EQ_BOOT_TITLE', 00H			; `string'
CONST	ENDS
;	COMDAT ??_C@_0BK@NAIABFPC@SYS_MULTI_BOOT_MODE_TITLE?$AA@
CONST	SEGMENT
??_C@_0BK@NAIABFPC@SYS_MULTI_BOOT_MODE_TITLE?$AA@ DB 'SYS_MULTI_BOOT_MODE'
	DB	'_TITLE', 00H				; `string'
CONST	ENDS
;	COMDAT ??_C@_08HBBNJJLH@IDC_EXIT?$AA@
CONST	SEGMENT
??_C@_08HBBNJJLH@IDC_EXIT?$AA@ DB 'IDC_EXIT', 00H	; `string'
CONST	ENDS
;	COMDAT ??_C@_0BO@OEFOGNPK@RETRY_HIDDEN_SECTOR_DETECTION?$AA@
CONST	SEGMENT
??_C@_0BO@OEFOGNPK@RETRY_HIDDEN_SECTOR_DETECTION?$AA@ DB 'RETRY_HIDDEN_SE'
	DB	'CTOR_DETECTION', 00H			; `string'
CONST	ENDS
;	COMDAT ??_C@_0BN@GHOENGPC@SKIP_HIDDEN_SECTOR_DETECTION?$AA@
CONST	SEGMENT
??_C@_0BN@GHOENGPC@SKIP_HIDDEN_SECTOR_DETECTION?$AA@ DB 'SKIP_HIDDEN_SECT'
	DB	'OR_DETECTION', 00H				; `string'
CONST	ENDS
;	COMDAT ??_C@_0CK@KEHMFNIA@HIDDEN_SECTOR_DETECTION_FAILED_P@
CONST	SEGMENT
??_C@_0CK@KEHMFNIA@HIDDEN_SECTOR_DETECTION_FAILED_P@ DB 'HIDDEN_SECTOR_DE'
	DB	'TECTION_FAILED_PREVIOUSLY', 00H		; `string'
CONST	ENDS
;	COMDAT ??_C@_0BL@OAMDPDOH@SYSENC_DRIVE_ANALYSIS_INFO?$AA@
CONST	SEGMENT
??_C@_0BL@OAMDPDOH@SYSENC_DRIVE_ANALYSIS_INFO?$AA@ DB 'SYSENC_DRIVE_ANALY'
	DB	'SIS_INFO', 00H				; `string'
CONST	ENDS
;	COMDAT ??_C@_0BM@EGLOODHA@SYSENC_DRIVE_ANALYSIS_TITLE?$AA@
CONST	SEGMENT
??_C@_0BM@EGLOODHA@SYSENC_DRIVE_ANALYSIS_TITLE?$AA@ DB 'SYSENC_DRIVE_ANAL'
	DB	'YSIS_TITLE', 00H				; `string'
CONST	ENDS
;	COMDAT ??_C@_0BP@FCJHFGGJ@SYSENC_PRE_DRIVE_ANALYSIS_HELP?$AA@
CONST	SEGMENT
??_C@_0BP@FCJHFGGJ@SYSENC_PRE_DRIVE_ANALYSIS_HELP?$AA@ DB 'SYSENC_PRE_DRI'
	DB	'VE_ANALYSIS_HELP', 00H			; `string'
CONST	ENDS
;	COMDAT ??_C@_0CA@IIEHPPGP@SYSENC_PRE_DRIVE_ANALYSIS_TITLE?$AA@
CONST	SEGMENT
??_C@_0CA@IIEHPPGP@SYSENC_PRE_DRIVE_ANALYSIS_TITLE?$AA@ DB 'SYSENC_PRE_DR'
	DB	'IVE_ANALYSIS_TITLE', 00H			; `string'
CONST	ENDS
;	COMDAT ??_C@_0CJ@CMOPFEFD@SYS_ENCRYPTION_SPAN_WHOLE_SYS_DR@
CONST	SEGMENT
??_C@_0CJ@CMOPFEFD@SYS_ENCRYPTION_SPAN_WHOLE_SYS_DR@ DB 'SYS_ENCRYPTION_S'
	DB	'PAN_WHOLE_SYS_DRIVE_HELP', 00H		; `string'
CONST	ENDS
;	COMDAT ??_C@_0BK@FBGFJBLB@SYS_ENCRYPTION_SPAN_TITLE?$AA@
CONST	SEGMENT
??_C@_0BK@FBGFJBLB@SYS_ENCRYPTION_SPAN_TITLE?$AA@ DB 'SYS_ENCRYPTION_SPAN'
	DB	'_TITLE', 00H				; `string'
CONST	ENDS
;	COMDAT ??_C@_0CF@GBPOCIAL@SYSENC_HIDDEN_OS_REQ_CHECK_PAGE_@
CONST	SEGMENT
??_C@_0CF@GBPOCIAL@SYSENC_HIDDEN_OS_REQ_CHECK_PAGE_@ DB 'SYSENC_HIDDEN_OS'
	DB	'_REQ_CHECK_PAGE_HELP', 00H			; `string'
CONST	ENDS
;	COMDAT ??_C@_0CG@CLMIJGGF@SYSENC_HIDDEN_OS_REQ_CHECK_PAGE_@
CONST	SEGMENT
??_C@_0CG@CLMIJGGF@SYSENC_HIDDEN_OS_REQ_CHECK_PAGE_@ DB 'SYSENC_HIDDEN_OS'
	DB	'_REQ_CHECK_PAGE_TITLE', 00H			; `string'
CONST	ENDS
;	COMDAT ??_C@_0BI@EEMGDNEH@SYSENC_NORMAL_TYPE_HELP?$AA@
CONST	SEGMENT
??_C@_0BI@EEMGDNEH@SYSENC_NORMAL_TYPE_HELP?$AA@ DB 'SYSENC_NORMAL_TYPE_HE'
	DB	'LP', 00H					; `string'
CONST	ENDS
;	COMDAT ??_C@_0BI@FECPKDFP@SYSENC_HIDDEN_TYPE_HELP?$AA@
CONST	SEGMENT
??_C@_0BI@FECPKDFP@SYSENC_HIDDEN_TYPE_HELP?$AA@ DB 'SYSENC_HIDDEN_TYPE_HE'
	DB	'LP', 00H					; `string'
CONST	ENDS
;	COMDAT ??_C@_0BH@LFFPJFCG@SYSENC_TYPE_PAGE_TITLE?$AA@
CONST	SEGMENT
??_C@_0BH@LFFPJFCG@SYSENC_TYPE_PAGE_TITLE?$AA@ DB 'SYSENC_TYPE_PAGE_TITLE'
	DB	00H						; `string'
CONST	ENDS
;	COMDAT ??_C@_0M@BGLIKHAN@INTRO_TITLE?$AA@
CONST	SEGMENT
??_C@_0M@BGLIKHAN@INTRO_TITLE?$AA@ DB 'INTRO_TITLE', 00H ; `string'
CONST	ENDS
;	COMDAT ??_C@_0P@IDKFBPLE@FORMAT_PAGE_?$CFd?$AA@
CONST	SEGMENT
??_C@_0P@IDKFBPLE@FORMAT_PAGE_?$CFd?$AA@ DB 'FORMAT_PAGE_%d', 00H ; `string'
CONST	ENDS
;	COMDAT ??_C@_0BM@IHMEHMBJ@IDD_VOL_CREATION_WIZARD_DLG?$AA@
CONST	SEGMENT
??_C@_0BM@IHMEHMBJ@IDD_VOL_CREATION_WIZARD_DLG?$AA@ DB 'IDD_VOL_CREATION_'
	DB	'WIZARD_DLG', 00H				; `string'
CONST	ENDS
;	COMDAT ??_8?$basic_stringstream@_WU?$char_traits@_W@std@@V?$allocator@_W@2@@std@@7B?$basic_ostream@_WU?$char_traits@_W@std@@@1@@
CONST	SEGMENT
??_8?$basic_stringstream@_WU?$char_traits@_W@std@@V?$allocator@_W@2@@std@@7B?$basic_ostream@_WU?$char_traits@_W@std@@@1@@ DD 00H ; std::basic_stringstream<wchar_t,std::char_traits<wchar_t>,std::allocator<wchar_t> >::`vbtable'
	DD	058H
CONST	ENDS
;	COMDAT ??_8?$basic_stringstream@_WU?$char_traits@_W@std@@V?$allocator@_W@2@@std@@7B?$basic_istream@_WU?$char_traits@_W@std@@@1@@
CONST	SEGMENT
??_8?$basic_stringstream@_WU?$char_traits@_W@std@@V?$allocator@_W@2@@std@@7B?$basic_istream@_WU?$char_traits@_W@std@@@1@@ DD 00H ; std::basic_stringstream<wchar_t,std::char_traits<wchar_t>,std::allocator<wchar_t> >::`vbtable'
	DD	068H
CONST	ENDS
;	COMDAT ??_7?$basic_stringstream@_WU?$char_traits@_W@std@@V?$allocator@_W@2@@std@@6B@
CONST	SEGMENT
??_7?$basic_stringstream@_WU?$char_traits@_W@std@@V?$allocator@_W@2@@std@@6B@ DD FLAT:??_R4?$basic_stringstream@_WU?$char_traits@_W@std@@V?$allocator@_W@2@@std@@6B@ ; std::basic_stringstream<wchar_t,std::char_traits<wchar_t>,std::allocator<wchar_t> >::`vftable'
	DD	FLAT:??_E?$basic_stringstream@_WU?$char_traits@_W@std@@V?$allocator@_W@2@@std@@$4PPPPPPPM@A@AEPAXI@Z
CONST	ENDS
;	COMDAT ??_7?$basic_stringbuf@_WU?$char_traits@_W@std@@V?$allocator@_W@2@@std@@6B@
CONST	SEGMENT
??_7?$basic_stringbuf@_WU?$char_traits@_W@std@@V?$allocator@_W@2@@std@@6B@ DD FLAT:??_R4?$basic_stringbuf@_WU?$char_traits@_W@std@@V?$allocator@_W@2@@std@@6B@ ; std::basic_stringbuf<wchar_t,std::char_traits<wchar_t>,std::allocator<wchar_t> >::`vftable'
	DD	FLAT:??_E?$basic_stringbuf@_WU?$char_traits@_W@std@@V?$allocator@_W@2@@std@@UAEPAXI@Z
	DD	FLAT:?_Lock@?$basic_streambuf@_WU?$char_traits@_W@std@@@std@@UAEXXZ
	DD	FLAT:?_Unlock@?$basic_streambuf@_WU?$char_traits@_W@std@@@std@@UAEXXZ
	DD	FLAT:?overflow@?$basic_stringbuf@_WU?$char_traits@_W@std@@V?$allocator@_W@2@@std@@MAEGG@Z
	DD	FLAT:?pbackfail@?$basic_stringbuf@_WU?$char_traits@_W@std@@V?$allocator@_W@2@@std@@MAEGG@Z
	DD	FLAT:?showmanyc@?$basic_streambuf@_WU?$char_traits@_W@std@@@std@@MAE_JXZ
	DD	FLAT:?underflow@?$basic_stringbuf@_WU?$char_traits@_W@std@@V?$allocator@_W@2@@std@@MAEGXZ
	DD	FLAT:?uflow@?$basic_streambuf@_WU?$char_traits@_W@std@@@std@@MAEGXZ
	DD	FLAT:?xsgetn@?$basic_streambuf@_WU?$char_traits@_W@std@@@std@@MAE_JPA_W_J@Z
	DD	FLAT:?xsputn@?$basic_streambuf@_WU?$char_traits@_W@std@@@std@@MAE_JPB_W_J@Z
	DD	FLAT:?seekoff@?$basic_stringbuf@_WU?$char_traits@_W@std@@V?$allocator@_W@2@@std@@MAE?AV?$fpos@U_Mbstatet@@@2@_JHH@Z
	DD	FLAT:?seekpos@?$basic_stringbuf@_WU?$char_traits@_W@std@@V?$allocator@_W@2@@std@@MAE?AV?$fpos@U_Mbstatet@@@2@V32@H@Z
	DD	FLAT:?setbuf@?$basic_streambuf@_WU?$char_traits@_W@std@@@std@@MAEPAV12@PA_W_J@Z
	DD	FLAT:?sync@?$basic_streambuf@_WU?$char_traits@_W@std@@@std@@MAEHXZ
	DD	FLAT:?imbue@?$basic_streambuf@_WU?$char_traits@_W@std@@@std@@MAEXABVlocale@2@@Z
CONST	ENDS
;	COMDAT ??_7?$basic_streambuf@_WU?$char_traits@_W@std@@@std@@6B@
CONST	SEGMENT
??_7?$basic_streambuf@_WU?$char_traits@_W@std@@@std@@6B@ DD FLAT:??_R4?$basic_streambuf@_WU?$char_traits@_W@std@@@std@@6B@ ; std::basic_streambuf<wchar_t,std::char_traits<wchar_t> >::`vftable'
	DD	FLAT:??_E?$basic_streambuf@_WU?$char_traits@_W@std@@@std@@UAEPAXI@Z
	DD	FLAT:?_Lock@?$basic_streambuf@_WU?$char_traits@_W@std@@@std@@UAEXXZ
	DD	FLAT:?_Unlock@?$basic_streambuf@_WU?$char_traits@_W@std@@@std@@UAEXXZ
	DD	FLAT:?overflow@?$basic_streambuf@_WU?$char_traits@_W@std@@@std@@MAEGG@Z
	DD	FLAT:?pbackfail@?$basic_streambuf@_WU?$char_traits@_W@std@@@std@@MAEGG@Z
	DD	FLAT:?showmanyc@?$basic_streambuf@_WU?$char_traits@_W@std@@@std@@MAE_JXZ
	DD	FLAT:?underflow@?$basic_streambuf@_WU?$char_traits@_W@std@@@std@@MAEGXZ
	DD	FLAT:?uflow@?$basic_streambuf@_WU?$char_traits@_W@std@@@std@@MAEGXZ
	DD	FLAT:?xsgetn@?$basic_streambuf@_WU?$char_traits@_W@std@@@std@@MAE_JPA_W_J@Z
	DD	FLAT:?xsputn@?$basic_streambuf@_WU?$char_traits@_W@std@@@std@@MAE_JPB_W_J@Z
	DD	FLAT:?seekoff@?$basic_streambuf@_WU?$char_traits@_W@std@@@std@@MAE?AV?$fpos@U_Mbstatet@@@2@_JHH@Z
	DD	FLAT:?seekpos@?$basic_streambuf@_WU?$char_traits@_W@std@@@std@@MAE?AV?$fpos@U_Mbstatet@@@2@V32@H@Z
	DD	FLAT:?setbuf@?$basic_streambuf@_WU?$char_traits@_W@std@@@std@@MAEPAV12@PA_W_J@Z
	DD	FLAT:?sync@?$basic_streambuf@_WU?$char_traits@_W@std@@@std@@MAEHXZ
	DD	FLAT:?imbue@?$basic_streambuf@_WU?$char_traits@_W@std@@@std@@MAEXABVlocale@2@@Z
CONST	ENDS
;	COMDAT ??_8?$basic_iostream@_WU?$char_traits@_W@std@@@std@@7B?$basic_ostream@_WU?$char_traits@_W@std@@@1@@
CONST	SEGMENT
??_8?$basic_iostream@_WU?$char_traits@_W@std@@@std@@7B?$basic_ostream@_WU?$char_traits@_W@std@@@1@@ DD 00H ; std::basic_iostream<wchar_t,std::char_traits<wchar_t> >::`vbtable'
	DD	010H
CONST	ENDS
;	COMDAT ??_8?$basic_iostream@_WU?$char_traits@_W@std@@@std@@7B?$basic_istream@_WU?$char_traits@_W@std@@@1@@
CONST	SEGMENT
??_8?$basic_iostream@_WU?$char_traits@_W@std@@@std@@7B?$basic_istream@_WU?$char_traits@_W@std@@@1@@ DD 00H ; std::basic_iostream<wchar_t,std::char_traits<wchar_t> >::`vbtable'
	DD	020H
CONST	ENDS
;	COMDAT ??_7?$basic_iostream@_WU?$char_traits@_W@std@@@std@@6B@
CONST	SEGMENT
??_7?$basic_iostream@_WU?$char_traits@_W@std@@@std@@6B@ DD FLAT:??_R4?$basic_iostream@_WU?$char_traits@_W@std@@@std@@6B@ ; std::basic_iostream<wchar_t,std::char_traits<wchar_t> >::`vftable'
	DD	FLAT:??_E?$basic_iostream@_WU?$char_traits@_W@std@@@std@@$4PPPPPPPM@A@AEPAXI@Z
CONST	ENDS
;	COMDAT ??_8?$basic_ostream@_WU?$char_traits@_W@std@@@std@@7B@
CONST	SEGMENT
??_8?$basic_ostream@_WU?$char_traits@_W@std@@@std@@7B@ DD 00H ; std::basic_ostream<wchar_t,std::char_traits<wchar_t> >::`vbtable'
	DD	08H
CONST	ENDS
;	COMDAT ??_7?$basic_ostream@_WU?$char_traits@_W@std@@@std@@6B@
CONST	SEGMENT
??_7?$basic_ostream@_WU?$char_traits@_W@std@@@std@@6B@ DD FLAT:??_R4?$basic_ostream@_WU?$char_traits@_W@std@@@std@@6B@ ; std::basic_ostream<wchar_t,std::char_traits<wchar_t> >::`vftable'
	DD	FLAT:??_E?$basic_ostream@_WU?$char_traits@_W@std@@@std@@$4PPPPPPPM@A@AEPAXI@Z
CONST	ENDS
;	COMDAT ??_8?$basic_istream@_WU?$char_traits@_W@std@@@std@@7B@
CONST	SEGMENT
??_8?$basic_istream@_WU?$char_traits@_W@std@@@std@@7B@ DD 00H ; std::basic_istream<wchar_t,std::char_traits<wchar_t> >::`vbtable'
	DD	018H
CONST	ENDS
;	COMDAT ??_7?$basic_istream@_WU?$char_traits@_W@std@@@std@@6B@
CONST	SEGMENT
??_7?$basic_istream@_WU?$char_traits@_W@std@@@std@@6B@ DD FLAT:??_R4?$basic_istream@_WU?$char_traits@_W@std@@@std@@6B@ ; std::basic_istream<wchar_t,std::char_traits<wchar_t> >::`vftable'
	DD	FLAT:??_E?$basic_istream@_WU?$char_traits@_W@std@@@std@@$4PPPPPPPM@A@AEPAXI@Z
CONST	ENDS
;	COMDAT ??_7?$basic_ios@_WU?$char_traits@_W@std@@@std@@6B@
CONST	SEGMENT
??_7?$basic_ios@_WU?$char_traits@_W@std@@@std@@6B@ DD FLAT:??_R4?$basic_ios@_WU?$char_traits@_W@std@@@std@@6B@ ; std::basic_ios<wchar_t,std::char_traits<wchar_t> >::`vftable'
	DD	FLAT:??_E?$basic_ios@_WU?$char_traits@_W@std@@@std@@UAEPAXI@Z
CONST	ENDS
;	COMDAT ??_7?$ContainerForward@V?$vector@UHostDevice@@V?$allocator@UHostDevice@@@std@@@std@@@ForEach@GostCrypt@@6B@
CONST	SEGMENT
??_7?$ContainerForward@V?$vector@UHostDevice@@V?$allocator@UHostDevice@@@std@@@std@@@ForEach@GostCrypt@@6B@ DD FLAT:??_R4?$ContainerForward@V?$vector@UHostDevice@@V?$allocator@UHostDevice@@@std@@@std@@@ForEach@GostCrypt@@6B@ ; GostCrypt::ForEach::ContainerForward<std::vector<HostDevice,std::allocator<HostDevice> > >::`vftable'
	DD	FLAT:??_E?$ContainerForward@V?$vector@UHostDevice@@V?$allocator@UHostDevice@@@std@@@std@@@ForEach@GostCrypt@@UAEPAXI@Z
	DD	FLAT:?IsNotEnd@?$ContainerForward@V?$vector@UHostDevice@@V?$allocator@UHostDevice@@@std@@@std@@@ForEach@GostCrypt@@UBE_NXZ
	DD	FLAT:?Next@?$ContainerForward@V?$vector@UHostDevice@@V?$allocator@UHostDevice@@@std@@@std@@@ForEach@GostCrypt@@UBEXXZ
CONST	ENDS
;	COMDAT ??_C@_0BP@DGIMBADH@AFTER_FORMAT_DRIVE_LETTER_WARN?$AA@
CONST	SEGMENT
??_C@_0BP@DGIMBADH@AFTER_FORMAT_DRIVE_LETTER_WARN?$AA@ DB 'AFTER_FORMAT_D'
	DB	'RIVE_LETTER_WARN', 00H			; `string'
CONST	ENDS
;	COMDAT ??_C@_09BFNCKGCL@PATH_ITEM?$AA@
CONST	SEGMENT
??_C@_09BFNCKGCL@PATH_ITEM?$AA@ DB 'PATH_ITEM', 00H	; `string'
CONST	ENDS
;	COMDAT ??_C@_09DBGAMMMC@SIZE_ITEM?$AA@
CONST	SEGMENT
??_C@_09DBGAMMMC@SIZE_ITEM?$AA@ DB 'SIZE_ITEM', 00H	; `string'
CONST	ENDS
;	COMDAT ??_C@_0CA@KEHLKHJA@NOT_APPLICABLE_OR_NOT_AVAILABLE?$AA@
CONST	SEGMENT
??_C@_0CA@KEHLKHJA@NOT_APPLICABLE_OR_NOT_AVAILABLE?$AA@ DB 'NOT_APPLICABL'
	DB	'E_OR_NOT_AVAILABLE', 00H			; `string'
CONST	ENDS
;	COMDAT ??_C@_0L@PEDCDHCM@LABEL_ITEM?$AA@
CONST	SEGMENT
??_C@_0L@PEDCDHCM@LABEL_ITEM?$AA@ DB 'LABEL_ITEM', 00H	; `string'
CONST	ENDS
;	COMDAT ??_C@_13LBAGMAIH@?$AA?6?$AA?$AA@
CONST	SEGMENT
??_C@_13LBAGMAIH@?$AA?6?$AA?$AA@ DB 0aH, 00H, 00H, 00H	; `string'
CONST	ENDS
;	COMDAT ??_C@_19KHPJIBCC@?$AA?$CF?$AAh?$AAc?$AA?3?$AA?$AA@
CONST	SEGMENT
??_C@_19KHPJIBCC@?$AA?$CF?$AAh?$AAc?$AA?3?$AA?$AA@ DB '%', 00H, 'h', 00H, 'c'
	DB	00H, ':', 00H, 00H, 00H			; `string'
CONST	ENDS
;	COMDAT ??_C@_0BC@ELOGDKJ@DRIVE_LETTER_ITEM?$AA@
CONST	SEGMENT
??_C@_0BC@ELOGDKJ@DRIVE_LETTER_ITEM?$AA@ DB 'DRIVE_LETTER_ITEM', 00H ; `string'
CONST	ENDS
;	COMDAT ??_C@_0BP@IMKLJEFC@ERASE_FILES_BY_CREATING_VOLUME?$AA@
CONST	SEGMENT
??_C@_0BP@IMKLJEFC@ERASE_FILES_BY_CREATING_VOLUME?$AA@ DB 'ERASE_FILES_BY'
	DB	'_CREATING_VOLUME', 00H			; `string'
CONST	ENDS
;	COMDAT ??_C@_0DD@GFFEJLFD@OVERWRITEPROMPT_DEVICE_SECOND_WA@
CONST	SEGMENT
??_C@_0DD@GFFEJLFD@OVERWRITEPROMPT_DEVICE_SECOND_WA@ DB 'OVERWRITEPROMPT_'
	DB	'DEVICE_SECOND_WARNING_LOTS_OF_DATA', 00H	; `string'
CONST	ENDS
;	COMDAT ??_C@_0BH@JPJDALOG@OVERWRITEPROMPT_DEVICE?$AA@
CONST	SEGMENT
??_C@_0BH@JPJDALOG@OVERWRITEPROMPT_DEVICE?$AA@ DB 'OVERWRITEPROMPT_DEVICE'
	DB	00H						; `string'
CONST	ENDS
;	COMDAT ??_C@_0BL@IMNAFHOP@NONSYS_INPLACE_ENC_CONFIRM?$AA@
CONST	SEGMENT
??_C@_0BL@IMNAFHOP@NONSYS_INPLACE_ENC_CONFIRM?$AA@ DB 'NONSYS_INPLACE_ENC'
	DB	'_CONFIRM', 00H				; `string'
CONST	ENDS
;	COMDAT ??_C@_0CL@KCMNHFDO@OVERWRITEPROMPT_DEVICE_HIDDEN_OS@
CONST	SEGMENT
??_C@_0CL@KCMNHFDO@OVERWRITEPROMPT_DEVICE_HIDDEN_OS@ DB 'OVERWRITEPROMPT_'
	DB	'DEVICE_HIDDEN_OS_PARTITION', 00H		; `string'
CONST	ENDS
;	COMDAT ??_C@_1BE@LDCEEKNB@?$AA?5?$AA?$CI?$AA?$CF?$AAh?$AAc?$AA?3?$AA?$CF?$AAs?$AA?$CJ?$AA?$AA@
CONST	SEGMENT
??_C@_1BE@LDCEEKNB@?$AA?5?$AA?$CI?$AA?$CF?$AAh?$AAc?$AA?3?$AA?$CF?$AAs?$AA?$CJ?$AA?$AA@ DB ' '
	DB	00H, '(', 00H, '%', 00H, 'h', 00H, 'c', 00H, ':', 00H, '%', 00H
	DB	's', 00H, ')', 00H, 00H, 00H			; `string'
CONST	ENDS
;	COMDAT ??_C@_1BK@GHMHFLJL@?$AA?5?$AA?$CI?$AA?$CF?$AAh?$AAc?$AA?3?$AA?5?$AA?8?$AA?$CF?$AAs?$AA?8?$AA?$CJ?$AA?$AA@
CONST	SEGMENT
??_C@_1BK@GHMHFLJL@?$AA?5?$AA?$CI?$AA?$CF?$AAh?$AAc?$AA?3?$AA?5?$AA?8?$AA?$CF?$AAs?$AA?8?$AA?$CJ?$AA?$AA@ DB ' '
	DB	00H, '(', 00H, '%', 00H, 'h', 00H, 'c', 00H, ':', 00H, ' ', 00H
	DB	'''', 00H, '%', 00H, 's', 00H, '''', 00H, ')', 00H, 00H, 00H ; `string'
CONST	ENDS
;	COMDAT ??_C@_0O@MKGMJGFE@EXT_PARTITION?$AA@
CONST	SEGMENT
??_C@_0O@MKGMJGFE@EXT_PARTITION?$AA@ DB 'EXT_PARTITION', 00H ; `string'
CONST	ENDS
;	COMDAT ??_C@_0BI@FCILOPDD@SECTOR_SIZE_UNSUPPORTED?$AA@
CONST	SEGMENT
??_C@_0BI@FCILOPDD@SECTOR_SIZE_UNSUPPORTED?$AA@ DB 'SECTOR_SIZE_UNSUPPORT'
	DB	'ED', 00H					; `string'
CONST	ENDS
;	COMDAT ??_C@_0BB@FNOFFGJI@CANT_GET_VOLSIZE?$AA@
CONST	SEGMENT
??_C@_0BB@FNOFFGJI@CANT_GET_VOLSIZE?$AA@ DB 'CANT_GET_VOLSIZE', 00H ; `string'
CONST	ENDS
;	COMDAT ??_C@_0BA@GFCNKOPI@CANT_ACCESS_VOL?$AA@
CONST	SEGMENT
??_C@_0BA@GFCNKOPI@CANT_ACCESS_VOL?$AA@ DB 'CANT_ACCESS_VOL', 00H ; `string'
CONST	ENDS
;	COMDAT ??_C@_1M@KGONCMNM@?$AA?$CF?$AAs?$AA?6?$AA?$CF?$AAs?$AA?$AA@
CONST	SEGMENT
??_C@_1M@KGONCMNM@?$AA?$CF?$AAs?$AA?6?$AA?$CF?$AAs?$AA?$AA@ DB '%', 00H, 's'
	DB	00H, 0aH, 00H, '%', 00H, 's', 00H, 00H, 00H	; `string'
CONST	ENDS
;	COMDAT ??_C@_0BC@LBACDGOD@CANNOT_CALC_SPACE?$AA@
CONST	SEGMENT
??_C@_0BC@LBACDGOD@CANNOT_CALC_SPACE?$AA@ DB 'CANNOT_CALC_SPACE', 00H ; `string'
CONST	ENDS
;	COMDAT ??_C@_0N@LKFCNANA@DISK_FREE_GB?$AA@
CONST	SEGMENT
??_C@_0N@LKFCNANA@DISK_FREE_GB?$AA@ DB 'DISK_FREE_GB', 00H ; `string'
CONST	ENDS
;	COMDAT ??_C@_0P@IDAMPFNO@DEVICE_FREE_GB?$AA@
CONST	SEGMENT
??_C@_0P@IDAMPFNO@DEVICE_FREE_GB?$AA@ DB 'DEVICE_FREE_GB', 00H ; `string'
CONST	ENDS
;	COMDAT ??_C@_0BD@NLEFDOGE@MAX_HIDVOL_SIZE_GB?$AA@
CONST	SEGMENT
??_C@_0BD@NLEFDOGE@MAX_HIDVOL_SIZE_GB?$AA@ DB 'MAX_HIDVOL_SIZE_GB', 00H ; `string'
CONST	ENDS
;	COMDAT ??_C@_0N@LHMFFFAG@DISK_FREE_MB?$AA@
CONST	SEGMENT
??_C@_0N@LHMFFFAG@DISK_FREE_MB?$AA@ DB 'DISK_FREE_MB', 00H ; `string'
CONST	ENDS
;	COMDAT ??_C@_0P@IOJLHAAI@DEVICE_FREE_MB?$AA@
CONST	SEGMENT
??_C@_0P@IOJLHAAI@DEVICE_FREE_MB?$AA@ DB 'DEVICE_FREE_MB', 00H ; `string'
CONST	ENDS
;	COMDAT ??_C@_0BD@NGNCLLLC@MAX_HIDVOL_SIZE_MB?$AA@
CONST	SEGMENT
??_C@_0BD@NGNCLLLC@MAX_HIDVOL_SIZE_MB?$AA@ DB 'MAX_HIDVOL_SIZE_MB', 00H ; `string'
CONST	ENDS
;	COMDAT ??_C@_0N@LDEICJLE@DISK_FREE_KB?$AA@
CONST	SEGMENT
??_C@_0N@LDEICJLE@DISK_FREE_KB?$AA@ DB 'DISK_FREE_KB', 00H ; `string'
CONST	ENDS
;	COMDAT ??_C@_0P@IKBGAMLK@DEVICE_FREE_KB?$AA@
CONST	SEGMENT
??_C@_0P@IKBGAMLK@DEVICE_FREE_KB?$AA@ DB 'DEVICE_FREE_KB', 00H ; `string'
CONST	ENDS
;	COMDAT ??_C@_0BD@NCFPMHAA@MAX_HIDVOL_SIZE_KB?$AA@
CONST	SEGMENT
??_C@_0BD@NCFPMHAA@MAX_HIDVOL_SIZE_KB?$AA@ DB 'MAX_HIDVOL_SIZE_KB', 00H ; `string'
CONST	ENDS
;	COMDAT ??_C@_0BA@GNIBCOCE@DISK_FREE_BYTES?$AA@
CONST	SEGMENT
??_C@_0BA@GNIBCOCE@DISK_FREE_BYTES?$AA@ DB 'DISK_FREE_BYTES', 00H ; `string'
CONST	ENDS
;	COMDAT ??_C@_0BC@DDPKPAD@DEVICE_FREE_BYTES?$AA@
CONST	SEGMENT
??_C@_0BC@DDPKPAD@DEVICE_FREE_BYTES?$AA@ DB 'DEVICE_FREE_BYTES', 00H ; `string'
CONST	ENDS
;	COMDAT ??_C@_0BG@OMPICDCM@MAX_HIDVOL_SIZE_BYTES?$AA@
CONST	SEGMENT
??_C@_0BG@OMPICDCM@MAX_HIDVOL_SIZE_BYTES?$AA@ DB 'MAX_HIDVOL_SIZE_BYTES', 00H ; `string'
CONST	ENDS
;	COMDAT ??_C@_0BN@GMGGDPEP@HIDDEN_OS_PRE_CIPHER_WARNING?$AA@
CONST	SEGMENT
??_C@_0BN@GMGGDPEP@HIDDEN_OS_PRE_CIPHER_WARNING?$AA@ DB 'HIDDEN_OS_PRE_CI'
	DB	'PHER_WARNING', 00H				; `string'
CONST	ENDS
;	COMDAT ??_C@_0BI@DFBMOJJF@PASSWORD_HIDDEN_OS_NOTE?$AA@
CONST	SEGMENT
??_C@_0BI@DFBMOJJF@PASSWORD_HIDDEN_OS_NOTE?$AA@ DB 'PASSWORD_HIDDEN_OS_NO'
	DB	'TE', 00H					; `string'
CONST	ENDS
;	COMDAT ??_C@_0BA@NLOHJLIM@FORMAT_CANCELED?$AA@
CONST	SEGMENT
??_C@_0BA@NLOHJLIM@FORMAT_CANCELED?$AA@ DB 'FORMAT_CANCELED', 00H ; `string'
CONST	ENDS
;	COMDAT ??_C@_0BM@JKEOLKCL@NONSYS_INPLACE_ENC_CANCELED?$AA@
CONST	SEGMENT
??_C@_0BM@JKEOLKCL@NONSYS_INPLACE_ENC_CANCELED?$AA@ DB 'NONSYS_INPLACE_EN'
	DB	'C_CANCELED', 00H				; `string'
CONST	ENDS
;	COMDAT ??_C@_0BA@IDMMBDGF@FORMAT_FINISHED?$AA@
CONST	SEGMENT
??_C@_0BA@IDMMBDGF@FORMAT_FINISHED?$AA@ DB 'FORMAT_FINISHED', 00H ; `string'
CONST	ENDS
;	COMDAT ??_C@_0BG@PHMPDKJN@SPARSE_FILE_SIZE_NOTE?$AA@
CONST	SEGMENT
??_C@_0BG@PHMPDKJN@SPARSE_FILE_SIZE_NOTE?$AA@ DB 'SPARSE_FILE_SIZE_NOTE', 00H ; `string'
CONST	ENDS
;	COMDAT ??_C@_0BF@ELGDKJEM@FORMAT_FINISHED_INFO?$AA@
CONST	SEGMENT
??_C@_0BF@ELGDKJEM@FORMAT_FINISHED_INFO?$AA@ DB 'FORMAT_FINISHED_INFO', 00H ; `string'
CONST	ENDS
;	COMDAT ??_C@_0CB@KOCBDKDK@NONSYS_INPLACE_ENC_FINISHED_INFO@
CONST	SEGMENT
??_C@_0CB@KOCBDKDK@NONSYS_INPLACE_ENC_FINISHED_INFO@ DB 'NONSYS_INPLACE_E'
	DB	'NC_FINISHED_INFO', 00H			; `string'
CONST	ENDS
;	COMDAT ??_C@_0BM@NHKMKNFC@HIDVOL_FORMAT_FINISHED_HELP?$AA@
CONST	SEGMENT
??_C@_0BM@NHKMKNFC@HIDVOL_FORMAT_FINISHED_HELP?$AA@ DB 'HIDVOL_FORMAT_FIN'
	DB	'ISHED_HELP', 00H				; `string'
CONST	ENDS
;	COMDAT ??_C@_0O@OIAKNAOK@CREATE_FAILED?$AA@
CONST	SEGMENT
??_C@_0O@OIAKNAOK@CREATE_FAILED?$AA@ DB 'CREATE_FAILED', 00H ; `string'
CONST	ENDS
;	COMDAT ??_C@_0CC@GOJAHDJH@INPLACE_ENC_GENERIC_ERR_ALT_STEP@
CONST	SEGMENT
??_C@_0CC@GOJAHDJH@INPLACE_ENC_GENERIC_ERR_ALT_STEP@ DB 'INPLACE_ENC_GENE'
	DB	'RIC_ERR_ALT_STEPS', 00H			; `string'
CONST	ENDS
;	COMDAT ??_C@_0BP@CBCIBGL@INPLACE_ENC_GENERIC_ERR_RESUME?$AA@
CONST	SEGMENT
??_C@_0BP@CBCIBGL@INPLACE_ENC_GENERIC_ERR_RESUME?$AA@ DB 'INPLACE_ENC_GEN'
	DB	'ERIC_ERR_RESUME', 00H			; `string'
CONST	ENDS
;	COMDAT ??_C@_0BF@IAAAEIAJ@CANT_MOUNT_OUTER_VOL?$AA@
CONST	SEGMENT
??_C@_0BF@IAAAEIAJ@CANT_MOUNT_OUTER_VOL?$AA@ DB 'CANT_MOUNT_OUTER_VOL', 00H ; `string'
CONST	ENDS
;	COMDAT ??_C@_0BM@DNIPKEFC@NO_FREE_DRIVE_FOR_OUTER_VOL?$AA@
CONST	SEGMENT
??_C@_0BM@DNIPKEFC@NO_FREE_DRIVE_FOR_OUTER_VOL?$AA@ DB 'NO_FREE_DRIVE_FOR'
	DB	'_OUTER_VOL', 00H				; `string'
CONST	ENDS
;	COMDAT ??_C@_0M@IMAOAGMP@OUTOFMEMORY?$AA@
CONST	SEGMENT
??_C@_0M@IMAOAGMP@OUTOFMEMORY?$AA@ DB 'OUTOFMEMORY', 00H ; `string'
CONST	ENDS
;	COMDAT ??_C@_0P@JKCBOPBP@ACCESSMODEFAIL?$AA@
CONST	SEGMENT
??_C@_0P@JKCBOPBP@ACCESSMODEFAIL?$AA@ DB 'ACCESSMODEFAIL', 00H ; `string'
CONST	ENDS
;	COMDAT ??_C@_0BA@JEAHJACA@OVERWRITEPROMPT?$AA@
CONST	SEGMENT
??_C@_0BA@JEAHJACA@OVERWRITEPROMPT?$AA@ DB 'OVERWRITEPROMPT', 00H ; `string'
CONST	ENDS
;	COMDAT ??_C@_0P@EMHOIPJB@READONLYPROMPT?$AA@
CONST	SEGMENT
??_C@_0P@EMHOIPJB@READONLYPROMPT?$AA@ DB 'READONLYPROMPT', 00H ; `string'
CONST	ENDS
;	COMDAT ??_C@_0BL@MHDAJDPI@ADMIN_PRIVILEGES_WARN_NTFS?$AA@
CONST	SEGMENT
??_C@_0BL@MHDAJDPI@ADMIN_PRIVILEGES_WARN_NTFS?$AA@ DB 'ADMIN_PRIVILEGES_W'
	DB	'ARN_NTFS', 00H				; `string'
CONST	ENDS
;	COMDAT ??_C@_0O@JJNKJOK@ERR_MEM_ALLOC?$AA@
CONST	SEGMENT
??_C@_0O@JJNKJOK@ERR_MEM_ALLOC?$AA@ DB 'ERR_MEM_ALLOC', 00H ; `string'
CONST	ENDS
;	COMDAT ??_R0?AUTimeOut@GostCrypt@@@8
data$r	SEGMENT
??_R0?AUTimeOut@GostCrypt@@@8 DD FLAT:??_7type_info@@6B@ ; GostCrypt::TimeOut `RTTI Type Descriptor'
	DD	00H
	DB	'.?AUTimeOut@GostCrypt@@', 00H
data$r	ENDS
;	COMDAT ??_C@_0BH@PKDMJBLN@FAILED_TO_START_WIPING?$AA@
CONST	SEGMENT
??_C@_0BH@PKDMJBLN@FAILED_TO_START_WIPING?$AA@ DB 'FAILED_TO_START_WIPING'
	DB	00H						; `string'
CONST	ENDS
;	COMDAT ??_C@_0BL@PHPLOOOK@FAILED_TO_INTERRUPT_WIPING?$AA@
CONST	SEGMENT
??_C@_0BL@PHPLOOOK@FAILED_TO_INTERRUPT_WIPING?$AA@ DB 'FAILED_TO_INTERRUP'
	DB	'T_WIPING', 00H				; `string'
CONST	ENDS
;	COMDAT ??_C@_0BK@JMBFHJFE@TRIPLE_DOT_GLYPH_ELLIPSIS?$AA@
CONST	SEGMENT
??_C@_0BK@JMBFHJFE@TRIPLE_DOT_GLYPH_ELLIPSIS?$AA@ DB 'TRIPLE_DOT_GLYPH_EL'
	DB	'LIPSIS', 00H				; `string'
CONST	ENDS
;	COMDAT ??_C@_1JO@BPJIPIJP@?$AA?$CK?$AA?$CK?$AA?$CK?$AA?$CK?$AA?$CK?$AA?$CK?$AA?$CK?$AA?$CK?$AA?$CK?$AA?$CK?$AA?$CK?$AA?$CK?$AA?$CK?$AA?$CK?$AA?$CK?$AA?$CK?$AA?$CK?$AA?$CK?$AA?$CK?$AA?$CK?$AA?$CK?$AA?$CK?$AA?$CK?$AA?$CK?$AA?$CK?$AA?$CK?$AA?$CK?$AA?$CK?$AA?$CK?$AA?$CK?$AA?$CK?$AA?$CK@
CONST	SEGMENT
??_C@_1JO@BPJIPIJP@?$AA?$CK?$AA?$CK?$AA?$CK?$AA?$CK?$AA?$CK?$AA?$CK?$AA?$CK?$AA?$CK?$AA?$CK?$AA?$CK?$AA?$CK?$AA?$CK?$AA?$CK?$AA?$CK?$AA?$CK?$AA?$CK?$AA?$CK?$AA?$CK?$AA?$CK?$AA?$CK?$AA?$CK?$AA?$CK?$AA?$CK?$AA?$CK?$AA?$CK?$AA?$CK?$AA?$CK?$AA?$CK?$AA?$CK?$AA?$CK?$AA?$CK?$AA?$CK@ DB '*'
	DB	00H, '*', 00H, '*', 00H, '*', 00H, '*', 00H, '*', 00H, '*', 00H
	DB	'*', 00H, '*', 00H, '*', 00H, '*', 00H, '*', 00H, '*', 00H, '*'
	DB	00H, '*', 00H, '*', 00H, '*', 00H, '*', 00H, '*', 00H, '*', 00H
	DB	'*', 00H, '*', 00H, '*', 00H, '*', 00H, '*', 00H, '*', 00H, '*'
	DB	00H, '*', 00H, '*', 00H, '*', 00H, '*', 00H, '*', 00H, ' ', 00H
	DB	' ', 00H, ' ', 00H, ' ', 00H, ' ', 00H, ' ', 00H, ' ', 00H, ' '
	DB	00H, ' ', 00H, ' ', 00H, ' ', 00H, ' ', 00H, ' ', 00H, ' ', 00H
	DB	' ', 00H, ' ', 00H, ' ', 00H, ' ', 00H, ' ', 00H, ' ', 00H, ' '
	DB	00H, ' ', 00H, ' ', 00H, ' ', 00H, ' ', 00H, ' ', 00H, ' ', 00H
	DB	' ', 00H, ' ', 00H, ' ', 00H, ' ', 00H, ' ', 00H, ' ', 00H, ' '
	DB	00H, ' ', 00H, ' ', 00H, ' ', 00H, ' ', 00H, ' ', 00H, ' ', 00H
	DB	' ', 00H, ' ', 00H, ' ', 00H, ' ', 00H, ' ', 00H, ' ', 00H, 00H
	DB	00H						; `string'
CONST	ENDS
;	COMDAT ??_C@_01EEMJAFIK@?6?$AA@
CONST	SEGMENT
??_C@_01EEMJAFIK@?6?$AA@ DB 0aH, 00H			; `string'
CONST	ENDS
;	COMDAT ??_C@_05BFHEBJNP@?$CF02X?5?$AA@
CONST	SEGMENT
??_C@_05BFHEBJNP@?$CF02X?5?$AA@ DB '%02X ', 00H		; `string'
CONST	ENDS
;	COMDAT ??_C@_03NJNOMAJF@?5?4?5?$AA@
CONST	SEGMENT
??_C@_03NJNOMAJF@?5?4?5?$AA@ DB ' . ', 00H		; `string'
CONST	ENDS
;	COMDAT ??_C@_04LAOFCJDB@?5?$CFc?5?$AA@
CONST	SEGMENT
??_C@_04LAOFCJDB@?5?$CFc?5?$AA@ DB ' %c ', 00H		; `string'
CONST	ENDS
;	COMDAT ??_C@_05KEELGAD@DEFER?$AA@
CONST	SEGMENT
??_C@_05KEELGAD@DEFER?$AA@ DB 'DEFER', 00H		; `string'
CONST	ENDS
;	COMDAT ??_C@_0BG@IDPLALHN@PROGRESS_STATUS_ERROR?$AA@
CONST	SEGMENT
??_C@_0BG@IDPLALHN@PROGRESS_STATUS_ERROR?$AA@ DB 'PROGRESS_STATUS_ERROR', 00H ; `string'
CONST	ENDS
;	COMDAT ??_C@_0BL@CIJLEOGN@PROGRESS_STATUS_FINALIZING?$AA@
CONST	SEGMENT
??_C@_0BL@CIJLEOGN@PROGRESS_STATUS_FINALIZING?$AA@ DB 'PROGRESS_STATUS_FI'
	DB	'NALIZING', 00H				; `string'
CONST	ENDS
;	COMDAT ??_C@_0BJ@EIBDNDIC@PROGRESS_STATUS_RESIZING?$AA@
CONST	SEGMENT
??_C@_0BJ@EIBDNDIC@PROGRESS_STATUS_RESIZING?$AA@ DB 'PROGRESS_STATUS_RESI'
	DB	'ZING', 00H					; `string'
CONST	ENDS
;	COMDAT ??_C@_0BK@NECHGBNE@PROGRESS_STATUS_PREPARING?$AA@
CONST	SEGMENT
??_C@_0BK@NECHGBNE@PROGRESS_STATUS_PREPARING?$AA@ DB 'PROGRESS_STATUS_PRE'
	DB	'PARING', 00H				; `string'
CONST	ENDS
;	COMDAT ??_C@_0BP@CJOANMAM@NONSYS_INPLACE_ENC_IN_PROGRESS?$AA@
CONST	SEGMENT
??_C@_0BP@CJOANMAM@NONSYS_INPLACE_ENC_IN_PROGRESS?$AA@ DB 'NONSYS_INPLACE'
	DB	'_ENC_IN_PROGRESS', 00H			; `string'
CONST	ENDS
;	COMDAT ??_C@_0CD@HEMAICHN@FAILED_TO_RESUME_SYSTEM_ENCRYPTI@
CONST	SEGMENT
??_C@_0CD@HEMAICHN@FAILED_TO_RESUME_SYSTEM_ENCRYPTI@ DB 'FAILED_TO_RESUME'
	DB	'_SYSTEM_ENCRYPTION', 00H			; `string'
CONST	ENDS
;	COMDAT ??_C@_0CG@OIGJDCBH@FAILED_TO_INTERRUPT_SYSTEM_ENCRY@
CONST	SEGMENT
??_C@_0CG@OIGJDCBH@FAILED_TO_INTERRUPT_SYSTEM_ENCRY@ DB 'FAILED_TO_INTERR'
	DB	'UPT_SYSTEM_ENCRYPTION', 00H			; `string'
CONST	ENDS
;	COMDAT ??_C@_01CLKCMJKC@?5?$AA@
CONST	SEGMENT
??_C@_01CLKCMJKC@?5?$AA@ DB ' ', 00H			; `string'
CONST	ENDS
;	COMDAT ??_C@_0BO@DMHMPBKC@PROCESSED_PORTION_100_PERCENT?$AA@
CONST	SEGMENT
??_C@_0BO@DMHMPBKC@PROCESSED_PORTION_100_PERCENT?$AA@ DB 'PROCESSED_PORTI'
	DB	'ON_100_PERCENT', 00H			; `string'
CONST	ENDS
;	COMDAT ??_C@_0BH@LLAADOBF@PROGRESS_STATUS_PAUSED?$AA@
CONST	SEGMENT
??_C@_0BH@LLAADOBF@PROGRESS_STATUS_PAUSED?$AA@ DB 'PROGRESS_STATUS_PAUSED'
	DB	00H						; `string'
CONST	ENDS
;	COMDAT ??_C@_0BJ@HKENJBII@PROGRESS_STATUS_FINISHED?$AA@
CONST	SEGMENT
??_C@_0BJ@HKENJBII@PROGRESS_STATUS_FINISHED?$AA@ DB 'PROGRESS_STATUS_FINI'
	DB	'SHED', 00H					; `string'
CONST	ENDS
;	COMDAT ??_C@_06PPGAKMJI@RESUME?$AA@
CONST	SEGMENT
??_C@_06PPGAKMJI@RESUME?$AA@ DB 'RESUME', 00H		; `string'
CONST	ENDS
;	COMDAT ??_C@_09PJBBBIIP@IDC_PAUSE?$AA@
CONST	SEGMENT
??_C@_09PJBBBIIP@IDC_PAUSE?$AA@ DB 'IDC_PAUSE', 00H	; `string'
CONST	ENDS
;	COMDAT ??_C@_13HOIJIPNN@?$AA?5?$AA?$AA@
CONST	SEGMENT
??_C@_13HOIJIPNN@?$AA?5?$AA?$AA@ DB ' ', 00H, 00H, 00H	; `string'
CONST	ENDS
;	COMDAT ??_C@_0BL@PONBLMNB@PROGRESS_STATUS_ENCRYPTING?$AA@
CONST	SEGMENT
??_C@_0BL@PONBLMNB@PROGRESS_STATUS_ENCRYPTING?$AA@ DB 'PROGRESS_STATUS_EN'
	DB	'CRYPTING', 00H				; `string'
CONST	ENDS
;	COMDAT ??_C@_0BL@MHLPJIOG@PROGRESS_STATUS_DECRYPTING?$AA@
CONST	SEGMENT
??_C@_0BL@MHLPJIOG@PROGRESS_STATUS_DECRYPTING?$AA@ DB 'PROGRESS_STATUS_DE'
	DB	'CRYPTING', 00H				; `string'
CONST	ENDS
;	COMDAT ??_C@_0BI@FJOOBAJA@PROGRESS_STATUS_WAITING?$AA@
CONST	SEGMENT
??_C@_0BI@FJOOBAJA@PROGRESS_STATUS_WAITING?$AA@ DB 'PROGRESS_STATUS_WAITI'
	DB	'NG', 00H					; `string'
CONST	ENDS
;	COMDAT ??_C@_06JHILMIHF@CANCEL?$AA@
CONST	SEGMENT
??_C@_06JHILMIHF@CANCEL?$AA@ DB 'CANCEL', 00H		; `string'
CONST	ENDS
;	COMDAT ??_C@_04PKHKLFPJ@PREV?$AA@
CONST	SEGMENT
??_C@_04PKHKLFPJ@PREV?$AA@ DB 'PREV', 00H		; `string'
CONST	ENDS
;	COMDAT ??_C@_04MOKMKBJN@NEXT?$AA@
CONST	SEGMENT
??_C@_04MOKMKBJN@NEXT?$AA@ DB 'NEXT', 00H		; `string'
CONST	ENDS
;	COMDAT ??_C@_08EOJLPPDK@UISTR_NO?$AA@
CONST	SEGMENT
??_C@_08EOJLPPDK@UISTR_NO?$AA@ DB 'UISTR_NO', 00H	; `string'
CONST	ENDS
;	COMDAT ??_C@_09JHINKGCK@UISTR_YES?$AA@
CONST	SEGMENT
??_C@_09JHINKGCK@UISTR_YES?$AA@ DB 'UISTR_YES', 00H	; `string'
CONST	ENDS
;	COMDAT ??_C@_11LOCGONAA@?$AA?$AA@
CONST	SEGMENT
??_C@_11LOCGONAA@?$AA?$AA@ DB 00H, 00H			; `string'
CONST	ENDS
;	COMDAT ??_C@_0CA@EHDIKOJL@IDC_LINK_MORE_INFO_ABOUT_CIPHER?$AA@
CONST	SEGMENT
??_C@_0CA@EHDIKOJL@IDC_LINK_MORE_INFO_ABOUT_CIPHER?$AA@ DB 'IDC_LINK_MORE'
	DB	'_INFO_ABOUT_CIPHER', 00H			; `string'
CONST	ENDS
;	COMDAT ??_C@_0BJ@CFADADFJ@THREE_LAYER_CASCADE_HELP?$AA@
CONST	SEGMENT
??_C@_0BJ@CFADADFJ@THREE_LAYER_CASCADE_HELP?$AA@ DB 'THREE_LAYER_CASCADE_'
	DB	'HELP', 00H					; `string'
CONST	ENDS
;	COMDAT ??_C@_0BH@PJGBOAEF@TWO_LAYER_CASCADE_HELP?$AA@
CONST	SEGMENT
??_C@_0BH@PJGBOAEF@TWO_LAYER_CASCADE_HELP?$AA@ DB 'TWO_LAYER_CASCADE_HELP'
	DB	00H						; `string'
CONST	ENDS
;	COMDAT ??_C@_09JHKBFGFC@GOST_HELP?$AA@
CONST	SEGMENT
??_C@_09JHKBFGFC@GOST_HELP?$AA@ DB 'GOST_HELP', 00H	; `string'
CONST	ENDS
;	COMDAT ??_C@_0BA@LGBFJNHH@MORE_INFO_ABOUT?$AA@
CONST	SEGMENT
??_C@_0BA@LGBFJNHH@MORE_INFO_ABOUT?$AA@ DB 'MORE_INFO_ABOUT', 00H ; `string'
CONST	ENDS
;	COMDAT ??_C@_0O@POKHNLDL@GOST?528147?989?$AA@
CONST	SEGMENT
??_C@_0O@POKHNLDL@GOST?528147?989?$AA@ DB 'GOST 28147-89', 00H ; `string'
CONST	ENDS
;	COMDAT ??_C@_08DDAIHKOO@IDCANCEL?$AA@
CONST	SEGMENT
??_C@_08DDAIHKOO@IDCANCEL?$AA@ DB 'IDCANCEL', 00H	; `string'
CONST	ENDS
;	COMDAT ??_C@_07OOEIKEPO@DECRYPT?$AA@
CONST	SEGMENT
??_C@_07OOEIKEPO@DECRYPT?$AA@ DB 'DECRYPT', 00H		; `string'
CONST	ENDS
;	COMDAT ??_C@_07CAOFPAJK@ENCRYPT?$AA@
CONST	SEGMENT
??_C@_07CAOFPAJK@ENCRYPT?$AA@ DB 'ENCRYPT', 00H		; `string'
CONST	ENDS
;	COMDAT ??_C@_0BK@CFANEEFJ@CHOOSE_ENCRYPT_OR_DECRYPT?$AA@
CONST	SEGMENT
??_C@_0BK@CFANEEFJ@CHOOSE_ENCRYPT_OR_DECRYPT?$AA@ DB 'CHOOSE_ENCRYPT_OR_D'
	DB	'ECRYPT', 00H				; `string'
CONST	ENDS
