; Listing generated by Microsoft (R) Optimizing Compiler Version 19.00.24215.1 

	TITLE	C:\Users\Alexis\Documents\FinalGostCrypt\Sources_GostCrypt_Windows_1.3.1\Common\Keyfiles.c
	.686P
	.XMM
	include listing.inc
	.model	flat

INCLUDELIB LIBCMT
INCLUDELIB OLDNAMES

PUBLIC	_HiddenFilesPresentInKeyfilePath
_BSS	SEGMENT
_HiddenFilesPresentInKeyfilePath DD 01H DUP (?)
_BSS	ENDS
PUBLIC	___local_stdio_printf_options
PUBLIC	??$__vcrt_va_start_verify_argument_type@QBD@@YAXXZ ; __vcrt_va_start_verify_argument_type<char const * const>
PUBLIC	__snprintf
PUBLIC	_KeyFileAdd
PUBLIC	_KeyFileRemoveAll
PUBLIC	_KeyFileClone
PUBLIC	_KeyFileCloneAll
PUBLIC	_KeyFilesApply
PUBLIC	_KeyFilesDlgProc@16
PUBLIC	_KeyfilesPopupMenu
PUBLIC	??3@YAXPAX0@Z					; operator delete
PUBLIC	?allocate@?$_Wrap_alloc@V?$allocator@D@std@@@std@@QAEPADI@Z ; std::_Wrap_alloc<std::allocator<char> >::allocate
PUBLIC	?deallocate@?$_Wrap_alloc@V?$allocator@D@std@@@std@@QAEXPADI@Z ; std::_Wrap_alloc<std::allocator<char> >::deallocate
PUBLIC	??0?$basic_string@DU?$char_traits@D@std@@V?$allocator@D@2@@std@@QAE@PBD@Z ; std::basic_string<char,std::char_traits<char>,std::allocator<char> >::basic_string<char,std::char_traits<char>,std::allocator<char> >
PUBLIC	??1?$basic_string@DU?$char_traits@D@std@@V?$allocator@D@2@@std@@QAE@XZ ; std::basic_string<char,std::char_traits<char>,std::allocator<char> >::~basic_string<char,std::char_traits<char>,std::allocator<char> >
PUBLIC	?assign@?$basic_string@DU?$char_traits@D@std@@V?$allocator@D@2@@std@@QAEAAV12@ABV12@II@Z ; std::basic_string<char,std::char_traits<char>,std::allocator<char> >::assign
PUBLIC	?assign@?$basic_string@DU?$char_traits@D@std@@V?$allocator@D@2@@std@@QAEAAV12@PBDI@Z ; std::basic_string<char,std::char_traits<char>,std::allocator<char> >::assign
PUBLIC	?erase@?$basic_string@DU?$char_traits@D@std@@V?$allocator@D@2@@std@@QAEAAV12@II@Z ; std::basic_string<char,std::char_traits<char>,std::allocator<char> >::erase
PUBLIC	?_Copy@?$basic_string@DU?$char_traits@D@std@@V?$allocator@D@2@@std@@QAEXII@Z ; std::basic_string<char,std::char_traits<char>,std::allocator<char> >::_Copy
PUBLIC	?allocate@?$allocator@_W@std@@QAEPA_WI@Z	; std::allocator<wchar_t>::allocate
PUBLIC	?deallocate@?$_Wrap_alloc@V?$allocator@_W@std@@@std@@QAEXPA_WI@Z ; std::_Wrap_alloc<std::allocator<wchar_t> >::deallocate
PUBLIC	??0?$basic_string@_WU?$char_traits@_W@std@@V?$allocator@_W@2@@std@@QAE@PB_W@Z ; std::basic_string<wchar_t,std::char_traits<wchar_t>,std::allocator<wchar_t> >::basic_string<wchar_t,std::char_traits<wchar_t>,std::allocator<wchar_t> >
PUBLIC	?_Assign_rv@?$basic_string@_WU?$char_traits@_W@std@@V?$allocator@_W@2@@std@@QAEX$$QAV12@@Z ; std::basic_string<wchar_t,std::char_traits<wchar_t>,std::allocator<wchar_t> >::_Assign_rv
PUBLIC	??1?$basic_string@_WU?$char_traits@_W@std@@V?$allocator@_W@2@@std@@QAE@XZ ; std::basic_string<wchar_t,std::char_traits<wchar_t>,std::allocator<wchar_t> >::~basic_string<wchar_t,std::char_traits<wchar_t>,std::allocator<wchar_t> >
PUBLIC	?append@?$basic_string@_WU?$char_traits@_W@std@@V?$allocator@_W@2@@std@@QAEAAV12@ABV12@II@Z ; std::basic_string<wchar_t,std::char_traits<wchar_t>,std::allocator<wchar_t> >::append
PUBLIC	?append@?$basic_string@_WU?$char_traits@_W@std@@V?$allocator@_W@2@@std@@QAEAAV12@PB_WI@Z ; std::basic_string<wchar_t,std::char_traits<wchar_t>,std::allocator<wchar_t> >::append
PUBLIC	?assign@?$basic_string@_WU?$char_traits@_W@std@@V?$allocator@_W@2@@std@@QAEAAV12@ABV12@II@Z ; std::basic_string<wchar_t,std::char_traits<wchar_t>,std::allocator<wchar_t> >::assign
PUBLIC	?assign@?$basic_string@_WU?$char_traits@_W@std@@V?$allocator@_W@2@@std@@QAEAAV12@PB_WI@Z ; std::basic_string<wchar_t,std::char_traits<wchar_t>,std::allocator<wchar_t> >::assign
PUBLIC	?insert@?$basic_string@_WU?$char_traits@_W@std@@V?$allocator@_W@2@@std@@QAEAAV12@IABV12@II@Z ; std::basic_string<wchar_t,std::char_traits<wchar_t>,std::allocator<wchar_t> >::insert
PUBLIC	?erase@?$basic_string@_WU?$char_traits@_W@std@@V?$allocator@_W@2@@std@@QAEAAV12@II@Z ; std::basic_string<wchar_t,std::char_traits<wchar_t>,std::allocator<wchar_t> >::erase
PUBLIC	?_Copy@?$basic_string@_WU?$char_traits@_W@std@@V?$allocator@_W@2@@std@@QAEXII@Z ; std::basic_string<wchar_t,std::char_traits<wchar_t>,std::allocator<wchar_t> >::_Copy
PUBLIC	??1SecurityTokenInfo@GostCrypt@@QAE@XZ		; GostCrypt::SecurityTokenInfo::~SecurityTokenInfo
PUBLIC	??BSecurityTokenKeyfilePath@GostCrypt@@QBE?AV?$basic_string@_WU?$char_traits@_W@std@@V?$allocator@_W@2@@std@@XZ ; GostCrypt::SecurityTokenKeyfilePath::operator std::basic_string<wchar_t,std::char_traits<wchar_t>,std::allocator<wchar_t> >
PUBLIC	??1SecurityTokenKeyfilePath@GostCrypt@@QAE@XZ	; GostCrypt::SecurityTokenKeyfilePath::~SecurityTokenKeyfilePath
PUBLIC	??1SecurityTokenKeyfile@GostCrypt@@QAE@XZ	; GostCrypt::SecurityTokenKeyfile::~SecurityTokenKeyfile
PUBLIC	??1Container@ForEach@GostCrypt@@UAE@XZ		; GostCrypt::ForEach::Container::~Container
PUBLIC	??_GContainer@ForEach@GostCrypt@@UAEPAXI@Z	; GostCrypt::ForEach::Container::`scalar deleting destructor'
PUBLIC	??1?$vector@EV?$allocator@E@std@@@std@@QAE@XZ	; std::vector<unsigned char,std::allocator<unsigned char> >::~vector<unsigned char,std::allocator<unsigned char> >
PUBLIC	?_Tidy@?$vector@EV?$allocator@E@std@@@std@@IAEXXZ ; std::vector<unsigned char,std::allocator<unsigned char> >::_Tidy
PUBLIC	??$?H_WU?$char_traits@_W@std@@V?$allocator@_W@1@@std@@YA?AV?$basic_string@_WU?$char_traits@_W@std@@V?$allocator@_W@2@@0@$$QAV10@PB_W@Z ; std::operator+<wchar_t,std::char_traits<wchar_t>,std::allocator<wchar_t> >
PUBLIC	??$?H_WU?$char_traits@_W@std@@V?$allocator@_W@1@@std@@YA?AV?$basic_string@_WU?$char_traits@_W@std@@V?$allocator@_W@2@@0@$$QAV10@0@Z ; std::operator+<wchar_t,std::char_traits<wchar_t>,std::allocator<wchar_t> >
PUBLIC	?_Buynode0@?$_List_alloc@U?$_List_base_types@USecurityTokenKeyfilePath@GostCrypt@@V?$allocator@USecurityTokenKeyfilePath@GostCrypt@@@std@@@std@@@std@@QAEPAU?$_List_node@USecurityTokenKeyfilePath@GostCrypt@@PAX@2@PAU32@0@Z ; std::_List_alloc<std::_List_base_types<GostCrypt::SecurityTokenKeyfilePath,std::allocator<GostCrypt::SecurityTokenKeyfilePath> > >::_Buynode0
PUBLIC	??1?$_List_buy@USecurityTokenKeyfilePath@GostCrypt@@V?$allocator@USecurityTokenKeyfilePath@GostCrypt@@@std@@@std@@QAE@XZ ; std::_List_buy<GostCrypt::SecurityTokenKeyfilePath,std::allocator<GostCrypt::SecurityTokenKeyfilePath> >::~_List_buy<GostCrypt::SecurityTokenKeyfilePath,std::allocator<GostCrypt::SecurityTokenKeyfilePath> >
PUBLIC	??0?$list@USecurityTokenKeyfilePath@GostCrypt@@V?$allocator@USecurityTokenKeyfilePath@GostCrypt@@@std@@@std@@QAE@XZ ; std::list<GostCrypt::SecurityTokenKeyfilePath,std::allocator<GostCrypt::SecurityTokenKeyfilePath> >::list<GostCrypt::SecurityTokenKeyfilePath,std::allocator<GostCrypt::SecurityTokenKeyfilePath> >
PUBLIC	??0?$list@USecurityTokenKeyfilePath@GostCrypt@@V?$allocator@USecurityTokenKeyfilePath@GostCrypt@@@std@@@std@@QAE@ABV01@@Z ; std::list<GostCrypt::SecurityTokenKeyfilePath,std::allocator<GostCrypt::SecurityTokenKeyfilePath> >::list<GostCrypt::SecurityTokenKeyfilePath,std::allocator<GostCrypt::SecurityTokenKeyfilePath> >
PUBLIC	?_Unchecked_erase@?$list@USecurityTokenKeyfilePath@GostCrypt@@V?$allocator@USecurityTokenKeyfilePath@GostCrypt@@@std@@@std@@QAEXV?$_List_unchecked_const_iterator@V?$_List_val@U?$_List_simple_types@USecurityTokenKeyfilePath@GostCrypt@@@std@@@std@@U_Iterator_base0@2@@2@@Z ; std::list<GostCrypt::SecurityTokenKeyfilePath,std::allocator<GostCrypt::SecurityTokenKeyfilePath> >::_Unchecked_erase
PUBLIC	?clear@?$list@USecurityTokenKeyfilePath@GostCrypt@@V?$allocator@USecurityTokenKeyfilePath@GostCrypt@@@std@@@std@@QAEXXZ ; std::list<GostCrypt::SecurityTokenKeyfilePath,std::allocator<GostCrypt::SecurityTokenKeyfilePath> >::clear
PUBLIC	??$GetContainerForward@V?$list@USecurityTokenKeyfilePath@GostCrypt@@V?$allocator@USecurityTokenKeyfilePath@GostCrypt@@@std@@@std@@@ForEach@GostCrypt@@SA?AU?$ContainerForward@V?$list@USecurityTokenKeyfilePath@GostCrypt@@V?$allocator@USecurityTokenKeyfilePath@GostCrypt@@@std@@@std@@@01@ABV?$list@USecurityTokenKeyfilePath@GostCrypt@@V?$allocator@USecurityTokenKeyfilePath@GostCrypt@@@std@@@std@@@Z ; GostCrypt::ForEach::GetContainerForward<std::list<GostCrypt::SecurityTokenKeyfilePath,std::allocator<GostCrypt::SecurityTokenKeyfilePath> > >
PUBLIC	?IsNotEnd@?$ContainerForward@V?$list@USecurityTokenKeyfilePath@GostCrypt@@V?$allocator@USecurityTokenKeyfilePath@GostCrypt@@@std@@@std@@@ForEach@GostCrypt@@UBE_NXZ ; GostCrypt::ForEach::ContainerForward<std::list<GostCrypt::SecurityTokenKeyfilePath,std::allocator<GostCrypt::SecurityTokenKeyfilePath> > >::IsNotEnd
PUBLIC	?Next@?$ContainerForward@V?$list@USecurityTokenKeyfilePath@GostCrypt@@V?$allocator@USecurityTokenKeyfilePath@GostCrypt@@@std@@@std@@@ForEach@GostCrypt@@UBEXXZ ; GostCrypt::ForEach::ContainerForward<std::list<GostCrypt::SecurityTokenKeyfilePath,std::allocator<GostCrypt::SecurityTokenKeyfilePath> > >::Next
PUBLIC	??_G?$ContainerForward@V?$list@USecurityTokenKeyfilePath@GostCrypt@@V?$allocator@USecurityTokenKeyfilePath@GostCrypt@@@std@@@std@@@ForEach@GostCrypt@@UAEPAXI@Z ; GostCrypt::ForEach::ContainerForward<std::list<GostCrypt::SecurityTokenKeyfilePath,std::allocator<GostCrypt::SecurityTokenKeyfilePath> > >::`scalar deleting destructor'
PUBLIC	??$_Insert_range@V?$_List_const_iterator@V?$_List_val@U?$_List_simple_types@USecurityTokenKeyfilePath@GostCrypt@@@std@@@std@@@std@@@?$list@USecurityTokenKeyfilePath@GostCrypt@@V?$allocator@USecurityTokenKeyfilePath@GostCrypt@@@std@@@std@@QAEXV?$_List_unchecked_const_iterator@V?$_List_val@U?$_List_simple_types@USecurityTokenKeyfilePath@GostCrypt@@@std@@@std@@U_Iterator_base0@2@@1@V?$_List_const_iterator@V?$_List_val@U?$_List_simple_types@USecurityTokenKeyfilePath@GostCrypt@@@std@@@std@@@1@1Uforward_iterator_tag@1@@Z ; std::list<GostCrypt::SecurityTokenKeyfilePath,std::allocator<GostCrypt::SecurityTokenKeyfilePath> >::_Insert_range<std::_List_const_iterator<std::_List_val<std::_List_simple_types<GostCrypt::SecurityTokenKeyfilePath> > > >
PUBLIC	??$_Buynode@ABUSecurityTokenKeyfilePath@GostCrypt@@@?$_List_buy@USecurityTokenKeyfilePath@GostCrypt@@V?$allocator@USecurityTokenKeyfilePath@GostCrypt@@@std@@@std@@QAEPAU?$_List_node@USecurityTokenKeyfilePath@GostCrypt@@PAX@1@PAU21@0ABUSecurityTokenKeyfilePath@GostCrypt@@@Z ; std::_List_buy<GostCrypt::SecurityTokenKeyfilePath,std::allocator<GostCrypt::SecurityTokenKeyfilePath> >::_Buynode<GostCrypt::SecurityTokenKeyfilePath const &>
PUBLIC	?_OptionsStorage@?1??__local_stdio_printf_options@@9@4_KA ; `__local_stdio_printf_options'::`2'::_OptionsStorage
PUBLIC	??_7Container@ForEach@GostCrypt@@6B@		; GostCrypt::ForEach::Container::`vftable'
PUBLIC	??_C@_02JDPG@rb?$AA@				; `string'
PUBLIC	??_C@_0BE@BKNFAOGD@ERR_PROCESS_KEYFILE?$AA@	; `string'
PUBLIC	??_R0?AUException@GostCrypt@@@8			; GostCrypt::Exception `RTTI Type Descriptor'
PUBLIC	??_C@_06BNHEIDIH@?$CFs?2?$CK?4?$CK?$AA@		; `string'
PUBLIC	??_C@_0BJ@LAFEHOHO@ERR_PROCESS_KEYFILE_PATH?$AA@ ; `string'
PUBLIC	??_C@_06GIIGBPHC@?$CFs?$CFc?$CFs?$AA@		; `string'
PUBLIC	??_C@_15IABLJNFO@?$AA?6?$AA?6?$AA?$AA@		; `string'
PUBLIC	??_C@_0BH@EHNHOJEI@ERR_KEYFILE_PATH_EMPTY?$AA@	; `string'
PUBLIC	??_7?$ContainerForward@V?$list@USecurityTokenKeyfilePath@GostCrypt@@V?$allocator@USecurityTokenKeyfilePath@GostCrypt@@@std@@@std@@@ForEach@GostCrypt@@6B@ ; GostCrypt::ForEach::ContainerForward<std::list<GostCrypt::SecurityTokenKeyfilePath,std::allocator<GostCrypt::SecurityTokenKeyfilePath> > >::`vftable'
PUBLIC	??_C@_0N@OGGIJBFO@IDD_KEYFILES?$AA@		; `string'
PUBLIC	??_C@_07BGLJIIHG@KEYFILE?$AA@			; `string'
PUBLIC	??_C@_0O@JNGBBDK@KEYFILES_NOTE?$AA@		; `string'
PUBLIC	??_C@_0P@CDPPHMOE@SELECT_KEYFILE?$AA@		; `string'
PUBLIC	??_C@_0BE@EJPKDEGH@SELECT_KEYFILE_PATH?$AA@	; `string'
PUBLIC	??_C@_0CK@NCJGAECA@http?3?1?1www?4gostcrypt?4org?1redirec@ ; `string'
PUBLIC	??_C@_0L@CJIBJHKI@IDC_KEYADD?$AA@		; `string'
PUBLIC	??_C@_0BF@NLAKGKFC@IDC_ADD_KEYFILE_PATH?$AA@	; `string'
PUBLIC	??_C@_0BE@CCFPMIGO@IDC_TOKEN_FILES_ADD?$AA@	; `string'
PUBLIC	??_C@_0BA@JFNIOLAK@string?5too?5long?$AA@	; `string'
PUBLIC	??_C@_0BI@CFPLBAOH@invalid?5string?5position?$AA@ ; `string'
PUBLIC	??_C@_0BB@MOGOBHAF@list?$DMT?$DO?5too?5long?$AA@ ; `string'
PUBLIC	??_R4Container@ForEach@GostCrypt@@6B@		; GostCrypt::ForEach::Container::`RTTI Complete Object Locator'
PUBLIC	??_R0?AUContainer@ForEach@GostCrypt@@@8		; GostCrypt::ForEach::Container `RTTI Type Descriptor'
PUBLIC	??_R3Container@ForEach@GostCrypt@@8		; GostCrypt::ForEach::Container::`RTTI Class Hierarchy Descriptor'
PUBLIC	??_R2Container@ForEach@GostCrypt@@8		; GostCrypt::ForEach::Container::`RTTI Base Class Array'
PUBLIC	??_R1A@?0A@EA@Container@ForEach@GostCrypt@@8	; GostCrypt::ForEach::Container::`RTTI Base Class Descriptor at (0,-1,0,64)'
PUBLIC	??_R4?$ContainerForward@V?$list@USecurityTokenKeyfilePath@GostCrypt@@V?$allocator@USecurityTokenKeyfilePath@GostCrypt@@@std@@@std@@@ForEach@GostCrypt@@6B@ ; GostCrypt::ForEach::ContainerForward<std::list<GostCrypt::SecurityTokenKeyfilePath,std::allocator<GostCrypt::SecurityTokenKeyfilePath> > >::`RTTI Complete Object Locator'
PUBLIC	??_R0?AU?$ContainerForward@V?$list@USecurityTokenKeyfilePath@GostCrypt@@V?$allocator@USecurityTokenKeyfilePath@GostCrypt@@@std@@@std@@@ForEach@GostCrypt@@@8 ; GostCrypt::ForEach::ContainerForward<std::list<GostCrypt::SecurityTokenKeyfilePath,std::allocator<GostCrypt::SecurityTokenKeyfilePath> > > `RTTI Type Descriptor'
PUBLIC	??_R3?$ContainerForward@V?$list@USecurityTokenKeyfilePath@GostCrypt@@V?$allocator@USecurityTokenKeyfilePath@GostCrypt@@@std@@@std@@@ForEach@GostCrypt@@8 ; GostCrypt::ForEach::ContainerForward<std::list<GostCrypt::SecurityTokenKeyfilePath,std::allocator<GostCrypt::SecurityTokenKeyfilePath> > >::`RTTI Class Hierarchy Descriptor'
PUBLIC	??_R2?$ContainerForward@V?$list@USecurityTokenKeyfilePath@GostCrypt@@V?$allocator@USecurityTokenKeyfilePath@GostCrypt@@@std@@@std@@@ForEach@GostCrypt@@8 ; GostCrypt::ForEach::ContainerForward<std::list<GostCrypt::SecurityTokenKeyfilePath,std::allocator<GostCrypt::SecurityTokenKeyfilePath> > >::`RTTI Base Class Array'
PUBLIC	??_R1A@?0A@EA@?$ContainerForward@V?$list@USecurityTokenKeyfilePath@GostCrypt@@V?$allocator@USecurityTokenKeyfilePath@GostCrypt@@@std@@@std@@@ForEach@GostCrypt@@8 ; GostCrypt::ForEach::ContainerForward<std::list<GostCrypt::SecurityTokenKeyfilePath,std::allocator<GostCrypt::SecurityTokenKeyfilePath> > >::`RTTI Base Class Descriptor at (0,-1,0,64)'
EXTRN	__purecall:PROC
EXTRN	??2@YAPAXI@Z:PROC				; operator new
EXTRN	??3@YAXPAX@Z:PROC				; operator delete
EXTRN	??3@YAXPAXI@Z:PROC				; operator delete
EXTRN	__invalid_parameter_noinfo_noreturn:PROC
EXTRN	_free:PROC
EXTRN	_malloc:PROC
EXTRN	_memmove:PROC
EXTRN	_strcpy_s:PROC
EXTRN	__stat64i32:PROC
EXTRN	__imp__CreateFileA@28:PROC
EXTRN	__imp__GetFileAttributesExA@12:PROC
EXTRN	__imp__GetFileTime@16:PROC
EXTRN	__imp__SetFileTime@16:PROC
EXTRN	__imp__CloseHandle@4:PROC
EXTRN	__imp__GetLastError@0:PROC
EXTRN	__imp__SetLastError@4:PROC
EXTRN	__imp__VirtualLock@8:PROC
EXTRN	__imp__SendMessageA@16:PROC
EXTRN	__imp__SendMessageW@16:PROC
EXTRN	__imp__DialogBoxParamW@20:PROC
EXTRN	__imp__EndDialog@8:PROC
EXTRN	__imp__GetDlgItem@8:PROC
EXTRN	__imp__EnableWindow@8:PROC
EXTRN	__imp__CreatePopupMenu@0:PROC
EXTRN	__imp__DestroyMenu@4:PROC
EXTRN	__imp__AppendMenuW@16:PROC
EXTRN	__imp__TrackPopupMenu@28:PROC
EXTRN	__imp__SetWindowTextW@8:PROC
EXTRN	__imp__DragQueryFileA@16:PROC
EXTRN	__imp__DragFinish@4:PROC
EXTRN	__imp__DragAcceptFiles@8:PROC
EXTRN	_fclose:PROC
EXTRN	_ferror:PROC
EXTRN	_fopen:PROC
EXTRN	_fread:PROC
EXTRN	___stdio_common_vsprintf:PROC
EXTRN	__findclose:PROC
EXTRN	__findfirst64i32:PROC
EXTRN	__findnext64i32:PROC
EXTRN	_handleWin32Error:PROC
EXTRN	_IsButtonChecked:PROC
EXTRN	_KeyfileGeneratorDlgProc@16:PROC
EXTRN	_BrowseDirectories:PROC
EXTRN	_LocalizeDialog:PROC
EXTRN	_SetCheckBox:PROC
EXTRN	_Error:PROC
EXTRN	_ErrorDirect:PROC
EXTRN	_Extlink:PROC
EXTRN	_SelectMultipleFiles:PROC
EXTRN	_SelectMultipleFilesNext:PROC
EXTRN	_CompensateXDPI:PROC
EXTRN	_ToHyperlink:PROC
EXTRN	_SecurityTokenKeyfileDlgProc@16:PROC
EXTRN	_IsFileOnReadOnlyFilesystem:PROC
EXTRN	?_Xbad_alloc@std@@YAXXZ:PROC			; std::_Xbad_alloc
EXTRN	?_Xlength_error@std@@YAXPBD@Z:PROC		; std::_Xlength_error
EXTRN	?_Xout_of_range@std@@YAXPBD@Z:PROC		; std::_Xout_of_range
EXTRN	?SingleStringToWide@@YA?AV?$basic_string@_WU?$char_traits@_W@std@@V?$allocator@_W@2@@std@@ABV?$basic_string@DU?$char_traits@D@std@@V?$allocator@D@2@@2@@Z:PROC ; SingleStringToWide
EXTRN	?WideToSingleString@@YA?AV?$basic_string@DU?$char_traits@D@std@@V?$allocator@D@2@@std@@ABV?$basic_string@_WU?$char_traits@_W@std@@V?$allocator@_W@2@@2@@Z:PROC ; WideToSingleString
EXTRN	_GetString:PROC
EXTRN	??0SecurityTokenKeyfile@GostCrypt@@QAE@ABUSecurityTokenKeyfilePath@1@@Z:PROC ; GostCrypt::SecurityTokenKeyfile::SecurityTokenKeyfile
EXTRN	?GetKeyfileData@SecurityToken@GostCrypt@@SAXABUSecurityTokenKeyfile@2@AAV?$vector@EV?$allocator@E@std@@@std@@@Z:PROC ; GostCrypt::SecurityToken::GetKeyfileData
EXTRN	?IsKeyfilePathValid@SecurityToken@GostCrypt@@SA_NABV?$basic_string@_WU?$char_traits@_W@std@@V?$allocator@_W@2@@std@@@Z:PROC ; GostCrypt::SecurityToken::IsKeyfilePathValid
EXTRN	??_EContainer@ForEach@GostCrypt@@UAEPAXI@Z:PROC	; GostCrypt::ForEach::Container::`vector deleting destructor'
EXTRN	??_E?$ContainerForward@V?$list@USecurityTokenKeyfilePath@GostCrypt@@V?$allocator@USecurityTokenKeyfilePath@GostCrypt@@@std@@@std@@@ForEach@GostCrypt@@UAEPAXI@Z:PROC ; GostCrypt::ForEach::ContainerForward<std::list<GostCrypt::SecurityTokenKeyfilePath,std::allocator<GostCrypt::SecurityTokenKeyfilePath> > >::`vector deleting destructor'
EXTRN	@__security_check_cookie@4:PROC
EXTRN	__CxxThrowException@8:PROC
EXTRN	___CxxFrameHandler3:PROC
EXTRN	__chkstk:PROC
EXTRN	_memcpy:PROC
EXTRN	_memset:PROC
EXTRN	_crc_32_tab:BYTE
EXTRN	_MainDlg:DWORD
EXTRN	_bHistory:DWORD
EXTRN	_hInst:DWORD
EXTRN	??_7type_info@@6B@:QWORD			; type_info::`vftable'
EXTRN	___security_cookie:DWORD
;	COMDAT ?_OptionsStorage@?1??__local_stdio_printf_options@@9@4_KA
_BSS	SEGMENT
?_OptionsStorage@?1??__local_stdio_printf_options@@9@4_KA DQ 01H DUP (?) ; `__local_stdio_printf_options'::`2'::_OptionsStorage
_BSS	ENDS
;	COMDAT ?keyPool@?1??KeyFilesApply@@9@4PAEA
_BSS	SEGMENT
?keyPool@?1??KeyFilesApply@@9@4PAEA DB 040H DUP (?)	; `KeyFilesApply'::`2'::keyPool
_BSS	ENDS
;	COMDAT ?param@?1??KeyFilesDlgProc@@9@16@4PAUKeyFilesDlgParam@@A
_BSS	SEGMENT
?param@?1??KeyFilesDlgProc@@9@16@4PAUKeyFilesDlgParam@@A DD 01H DUP (?) ; `KeyFilesDlgProc'::`2'::param
_BSS	ENDS
;	COMDAT ?origParam@?1??KeyFilesDlgProc@@9@16@4UKeyFilesDlgParam@@A
_BSS	SEGMENT
?origParam@?1??KeyFilesDlgProc@@9@16@4UKeyFilesDlgParam@@A DQ 01H DUP (?) ; `KeyFilesDlgProc'::`2'::origParam
_BSS	ENDS
;	COMDAT ??_R1A@?0A@EA@?$ContainerForward@V?$list@USecurityTokenKeyfilePath@GostCrypt@@V?$allocator@USecurityTokenKeyfilePath@GostCrypt@@@std@@@std@@@ForEach@GostCrypt@@8
rdata$r	SEGMENT
??_R1A@?0A@EA@?$ContainerForward@V?$list@USecurityTokenKeyfilePath@GostCrypt@@V?$allocator@USecurityTokenKeyfilePath@GostCrypt@@@std@@@std@@@ForEach@GostCrypt@@8 DD FLAT:??_R0?AU?$ContainerForward@V?$list@USecurityTokenKeyfilePath@GostCrypt@@V?$allocator@USecurityTokenKeyfilePath@GostCrypt@@@std@@@std@@@ForEach@GostCrypt@@@8 ; GostCrypt::ForEach::ContainerForward<std::list<GostCrypt::SecurityTokenKeyfilePath,std::allocator<GostCrypt::SecurityTokenKeyfilePath> > >::`RTTI Base Class Descriptor at (0,-1,0,64)'
	DD	01H
	DD	00H
	DD	0ffffffffH
	DD	00H
	DD	040H
	DD	FLAT:??_R3?$ContainerForward@V?$list@USecurityTokenKeyfilePath@GostCrypt@@V?$allocator@USecurityTokenKeyfilePath@GostCrypt@@@std@@@std@@@ForEach@GostCrypt@@8
rdata$r	ENDS
;	COMDAT ??_R2?$ContainerForward@V?$list@USecurityTokenKeyfilePath@GostCrypt@@V?$allocator@USecurityTokenKeyfilePath@GostCrypt@@@std@@@std@@@ForEach@GostCrypt@@8
rdata$r	SEGMENT
??_R2?$ContainerForward@V?$list@USecurityTokenKeyfilePath@GostCrypt@@V?$allocator@USecurityTokenKeyfilePath@GostCrypt@@@std@@@std@@@ForEach@GostCrypt@@8 DD FLAT:??_R1A@?0A@EA@?$ContainerForward@V?$list@USecurityTokenKeyfilePath@GostCrypt@@V?$allocator@USecurityTokenKeyfilePath@GostCrypt@@@std@@@std@@@ForEach@GostCrypt@@8 ; GostCrypt::ForEach::ContainerForward<std::list<GostCrypt::SecurityTokenKeyfilePath,std::allocator<GostCrypt::SecurityTokenKeyfilePath> > >::`RTTI Base Class Array'
	DD	FLAT:??_R1A@?0A@EA@Container@ForEach@GostCrypt@@8
rdata$r	ENDS
;	COMDAT ??_R3?$ContainerForward@V?$list@USecurityTokenKeyfilePath@GostCrypt@@V?$allocator@USecurityTokenKeyfilePath@GostCrypt@@@std@@@std@@@ForEach@GostCrypt@@8
rdata$r	SEGMENT
??_R3?$ContainerForward@V?$list@USecurityTokenKeyfilePath@GostCrypt@@V?$allocator@USecurityTokenKeyfilePath@GostCrypt@@@std@@@std@@@ForEach@GostCrypt@@8 DD 00H ; GostCrypt::ForEach::ContainerForward<std::list<GostCrypt::SecurityTokenKeyfilePath,std::allocator<GostCrypt::SecurityTokenKeyfilePath> > >::`RTTI Class Hierarchy Descriptor'
	DD	00H
	DD	02H
	DD	FLAT:??_R2?$ContainerForward@V?$list@USecurityTokenKeyfilePath@GostCrypt@@V?$allocator@USecurityTokenKeyfilePath@GostCrypt@@@std@@@std@@@ForEach@GostCrypt@@8
rdata$r	ENDS
;	COMDAT ??_R0?AU?$ContainerForward@V?$list@USecurityTokenKeyfilePath@GostCrypt@@V?$allocator@USecurityTokenKeyfilePath@GostCrypt@@@std@@@std@@@ForEach@GostCrypt@@@8
data$r	SEGMENT
??_R0?AU?$ContainerForward@V?$list@USecurityTokenKeyfilePath@GostCrypt@@V?$allocator@USecurityTokenKeyfilePath@GostCrypt@@@std@@@std@@@ForEach@GostCrypt@@@8 DD FLAT:??_7type_info@@6B@ ; GostCrypt::ForEach::ContainerForward<std::list<GostCrypt::SecurityTokenKeyfilePath,std::allocator<GostCrypt::SecurityTokenKeyfilePath> > > `RTTI Type Descriptor'
	DD	00H
	DB	'.?AU?$ContainerForward@V?$list@USecurityTokenKeyfilePath'
	DB	'@GostCrypt@@V?$allocator@USecurityTokenKeyfilePath@GostCrypt@'
	DB	'@@std@@@std@@@ForEach@GostCrypt@@', 00H
data$r	ENDS
;	COMDAT ??_R4?$ContainerForward@V?$list@USecurityTokenKeyfilePath@GostCrypt@@V?$allocator@USecurityTokenKeyfilePath@GostCrypt@@@std@@@std@@@ForEach@GostCrypt@@6B@
rdata$r	SEGMENT
??_R4?$ContainerForward@V?$list@USecurityTokenKeyfilePath@GostCrypt@@V?$allocator@USecurityTokenKeyfilePath@GostCrypt@@@std@@@std@@@ForEach@GostCrypt@@6B@ DD 00H ; GostCrypt::ForEach::ContainerForward<std::list<GostCrypt::SecurityTokenKeyfilePath,std::allocator<GostCrypt::SecurityTokenKeyfilePath> > >::`RTTI Complete Object Locator'
	DD	00H
	DD	00H
	DD	FLAT:??_R0?AU?$ContainerForward@V?$list@USecurityTokenKeyfilePath@GostCrypt@@V?$allocator@USecurityTokenKeyfilePath@GostCrypt@@@std@@@std@@@ForEach@GostCrypt@@@8
	DD	FLAT:??_R3?$ContainerForward@V?$list@USecurityTokenKeyfilePath@GostCrypt@@V?$allocator@USecurityTokenKeyfilePath@GostCrypt@@@std@@@std@@@ForEach@GostCrypt@@8
rdata$r	ENDS
;	COMDAT ??_R1A@?0A@EA@Container@ForEach@GostCrypt@@8
rdata$r	SEGMENT
??_R1A@?0A@EA@Container@ForEach@GostCrypt@@8 DD FLAT:??_R0?AUContainer@ForEach@GostCrypt@@@8 ; GostCrypt::ForEach::Container::`RTTI Base Class Descriptor at (0,-1,0,64)'
	DD	00H
	DD	00H
	DD	0ffffffffH
	DD	00H
	DD	040H
	DD	FLAT:??_R3Container@ForEach@GostCrypt@@8
rdata$r	ENDS
;	COMDAT ??_R2Container@ForEach@GostCrypt@@8
rdata$r	SEGMENT
??_R2Container@ForEach@GostCrypt@@8 DD FLAT:??_R1A@?0A@EA@Container@ForEach@GostCrypt@@8 ; GostCrypt::ForEach::Container::`RTTI Base Class Array'
rdata$r	ENDS
;	COMDAT ??_R3Container@ForEach@GostCrypt@@8
rdata$r	SEGMENT
??_R3Container@ForEach@GostCrypt@@8 DD 00H		; GostCrypt::ForEach::Container::`RTTI Class Hierarchy Descriptor'
	DD	00H
	DD	01H
	DD	FLAT:??_R2Container@ForEach@GostCrypt@@8
rdata$r	ENDS
;	COMDAT ??_R0?AUContainer@ForEach@GostCrypt@@@8
data$r	SEGMENT
??_R0?AUContainer@ForEach@GostCrypt@@@8 DD FLAT:??_7type_info@@6B@ ; GostCrypt::ForEach::Container `RTTI Type Descriptor'
	DD	00H
	DB	'.?AUContainer@ForEach@GostCrypt@@', 00H
data$r	ENDS
;	COMDAT ??_R4Container@ForEach@GostCrypt@@6B@
rdata$r	SEGMENT
??_R4Container@ForEach@GostCrypt@@6B@ DD 00H		; GostCrypt::ForEach::Container::`RTTI Complete Object Locator'
	DD	00H
	DD	00H
	DD	FLAT:??_R0?AUContainer@ForEach@GostCrypt@@@8
	DD	FLAT:??_R3Container@ForEach@GostCrypt@@8
rdata$r	ENDS
;	COMDAT ??_C@_0BB@MOGOBHAF@list?$DMT?$DO?5too?5long?$AA@
CONST	SEGMENT
??_C@_0BB@MOGOBHAF@list?$DMT?$DO?5too?5long?$AA@ DB 'list<T> too long', 00H ; `string'
CONST	ENDS
;	COMDAT ??_C@_0BI@CFPLBAOH@invalid?5string?5position?$AA@
CONST	SEGMENT
??_C@_0BI@CFPLBAOH@invalid?5string?5position?$AA@ DB 'invalid string posi'
	DB	'tion', 00H					; `string'
CONST	ENDS
;	COMDAT ??_C@_0BA@JFNIOLAK@string?5too?5long?$AA@
CONST	SEGMENT
??_C@_0BA@JFNIOLAK@string?5too?5long?$AA@ DB 'string too long', 00H ; `string'
CONST	ENDS
;	COMDAT ??_C@_0BE@CCFPMIGO@IDC_TOKEN_FILES_ADD?$AA@
CONST	SEGMENT
??_C@_0BE@CCFPMIGO@IDC_TOKEN_FILES_ADD?$AA@ DB 'IDC_TOKEN_FILES_ADD', 00H ; `string'
CONST	ENDS
;	COMDAT ??_C@_0BF@NLAKGKFC@IDC_ADD_KEYFILE_PATH?$AA@
CONST	SEGMENT
??_C@_0BF@NLAKGKFC@IDC_ADD_KEYFILE_PATH?$AA@ DB 'IDC_ADD_KEYFILE_PATH', 00H ; `string'
CONST	ENDS
;	COMDAT ??_C@_0L@CJIBJHKI@IDC_KEYADD?$AA@
CONST	SEGMENT
??_C@_0L@CJIBJHKI@IDC_KEYADD?$AA@ DB 'IDC_KEYADD', 00H	; `string'
CONST	ENDS
;	COMDAT ??_C@_0CK@NCJGAECA@http?3?1?1www?4gostcrypt?4org?1redirec@
CONST	SEGMENT
??_C@_0CK@NCJGAECA@http?3?1?1www?4gostcrypt?4org?1redirec@ DB 'http://www'
	DB	'.gostcrypt.org/redirect.php?a=2', 00H	; `string'
CONST	ENDS
;	COMDAT ??_C@_0BE@EJPKDEGH@SELECT_KEYFILE_PATH?$AA@
CONST	SEGMENT
??_C@_0BE@EJPKDEGH@SELECT_KEYFILE_PATH?$AA@ DB 'SELECT_KEYFILE_PATH', 00H ; `string'
CONST	ENDS
;	COMDAT ??_C@_0P@CDPPHMOE@SELECT_KEYFILE?$AA@
CONST	SEGMENT
??_C@_0P@CDPPHMOE@SELECT_KEYFILE?$AA@ DB 'SELECT_KEYFILE', 00H ; `string'
CONST	ENDS
;	COMDAT ??_C@_0O@JNGBBDK@KEYFILES_NOTE?$AA@
CONST	SEGMENT
??_C@_0O@JNGBBDK@KEYFILES_NOTE?$AA@ DB 'KEYFILES_NOTE', 00H ; `string'
CONST	ENDS
;	COMDAT ??_C@_07BGLJIIHG@KEYFILE?$AA@
CONST	SEGMENT
??_C@_07BGLJIIHG@KEYFILE?$AA@ DB 'KEYFILE', 00H		; `string'
CONST	ENDS
;	COMDAT ??_C@_0N@OGGIJBFO@IDD_KEYFILES?$AA@
CONST	SEGMENT
??_C@_0N@OGGIJBFO@IDD_KEYFILES?$AA@ DB 'IDD_KEYFILES', 00H ; `string'
CONST	ENDS
;	COMDAT ??_7?$ContainerForward@V?$list@USecurityTokenKeyfilePath@GostCrypt@@V?$allocator@USecurityTokenKeyfilePath@GostCrypt@@@std@@@std@@@ForEach@GostCrypt@@6B@
CONST	SEGMENT
??_7?$ContainerForward@V?$list@USecurityTokenKeyfilePath@GostCrypt@@V?$allocator@USecurityTokenKeyfilePath@GostCrypt@@@std@@@std@@@ForEach@GostCrypt@@6B@ DD FLAT:??_R4?$ContainerForward@V?$list@USecurityTokenKeyfilePath@GostCrypt@@V?$allocator@USecurityTokenKeyfilePath@GostCrypt@@@std@@@std@@@ForEach@GostCrypt@@6B@ ; GostCrypt::ForEach::ContainerForward<std::list<GostCrypt::SecurityTokenKeyfilePath,std::allocator<GostCrypt::SecurityTokenKeyfilePath> > >::`vftable'
	DD	FLAT:??_E?$ContainerForward@V?$list@USecurityTokenKeyfilePath@GostCrypt@@V?$allocator@USecurityTokenKeyfilePath@GostCrypt@@@std@@@std@@@ForEach@GostCrypt@@UAEPAXI@Z
	DD	FLAT:?IsNotEnd@?$ContainerForward@V?$list@USecurityTokenKeyfilePath@GostCrypt@@V?$allocator@USecurityTokenKeyfilePath@GostCrypt@@@std@@@std@@@ForEach@GostCrypt@@UBE_NXZ
	DD	FLAT:?Next@?$ContainerForward@V?$list@USecurityTokenKeyfilePath@GostCrypt@@V?$allocator@USecurityTokenKeyfilePath@GostCrypt@@@std@@@std@@@ForEach@GostCrypt@@UBEXXZ
CONST	ENDS
;	COMDAT ??_C@_0BH@EHNHOJEI@ERR_KEYFILE_PATH_EMPTY?$AA@
CONST	SEGMENT
??_C@_0BH@EHNHOJEI@ERR_KEYFILE_PATH_EMPTY?$AA@ DB 'ERR_KEYFILE_PATH_EMPTY'
	DB	00H						; `string'
CONST	ENDS
;	COMDAT ??_C@_15IABLJNFO@?$AA?6?$AA?6?$AA?$AA@
CONST	SEGMENT
??_C@_15IABLJNFO@?$AA?6?$AA?6?$AA?$AA@ DB 0aH, 00H, 0aH, 00H, 00H, 00H ; `string'
CONST	ENDS
;	COMDAT ??_C@_06GIIGBPHC@?$CFs?$CFc?$CFs?$AA@
CONST	SEGMENT
??_C@_06GIIGBPHC@?$CFs?$CFc?$CFs?$AA@ DB '%s%c%s', 00H	; `string'
CONST	ENDS
;	COMDAT ??_C@_0BJ@LAFEHOHO@ERR_PROCESS_KEYFILE_PATH?$AA@
CONST	SEGMENT
??_C@_0BJ@LAFEHOHO@ERR_PROCESS_KEYFILE_PATH?$AA@ DB 'ERR_PROCESS_KEYFILE_'
	DB	'PATH', 00H					; `string'
CONST	ENDS
;	COMDAT ??_C@_06BNHEIDIH@?$CFs?2?$CK?4?$CK?$AA@
CONST	SEGMENT
??_C@_06BNHEIDIH@?$CFs?2?$CK?4?$CK?$AA@ DB '%s\*.*', 00H ; `string'
CONST	ENDS
;	COMDAT ??_R0?AUException@GostCrypt@@@8
data$r	SEGMENT
??_R0?AUException@GostCrypt@@@8 DD FLAT:??_7type_info@@6B@ ; GostCrypt::Exception `RTTI Type Descriptor'
	DD	00H
	DB	'.?AUException@GostCrypt@@', 00H
data$r	ENDS
;	COMDAT ??_C@_0BE@BKNFAOGD@ERR_PROCESS_KEYFILE?$AA@
CONST	SEGMENT
??_C@_0BE@BKNFAOGD@ERR_PROCESS_KEYFILE?$AA@ DB 'ERR_PROCESS_KEYFILE', 00H ; `string'
CONST	ENDS
;	COMDAT ??_C@_02JDPG@rb?$AA@
CONST	SEGMENT
??_C@_02JDPG@rb?$AA@ DB 'rb', 00H			; `string'
CONST	ENDS
;	COMDAT ??_7Container@ForEach@GostCrypt@@6B@
CONST	SEGMENT
??_7Container@ForEach@GostCrypt@@6B@ DD FLAT:??_R4Container@ForEach@GostCrypt@@6B@ ; GostCrypt::ForEach::Container::`vftable'
	DD	FLAT:??_EContainer@ForEach@GostCrypt@@UAEPAXI@Z
	DD	FLAT:__purecall
	DD	FLAT:__purecall
CONST	ENDS
;	COMDAT xdata$x
xdata$x	SEGMENT
__unwindtable$??$construct@USecurityTokenKeyfilePath@GostCrypt@@ABU12@@?$allocator@U?$_List_node@USecurityTokenKeyfilePath@GostCrypt@@PAX@std@@@std@@QAEXPAUSecurityTokenKeyfilePath@GostCrypt@@ABU23@@Z DD 0ffffffffH
	DD	FLAT:__unwindfunclet$??$construct@USecurityTokenKeyfilePath@GostCrypt@@ABU12@@?$allocator@U?$_List_node@USecurityTokenKeyfilePath@GostCrypt@@PAX@std@@@std@@QAEXPAUSecurityTokenKeyfilePath@GostCrypt@@ABU23@@Z$0
__ehfuncinfo$??$construct@USecurityTokenKeyfilePath@GostCrypt@@ABU12@@?$allocator@U?$_List_node@USecurityTokenKeyfilePath@GostCrypt@@PAX@std@@@std@@QAEXPAUSecurityTokenKeyfilePath@GostCrypt@@ABU23@@Z DD 019930522H
	DD	01H
	DD	FLAT:__unwindtable$??$construct@USecurityTokenKeyfilePath@GostCrypt@@ABU12@@?$allocator@U?$_List_node@USecurityTokenKeyfilePath@GostCrypt@@PAX@std@@@std@@QAEXPAUSecurityTokenKeyfilePath@GostCrypt@@ABU23@@Z
	DD	2 DUP(00H)
	DD	2 DUP(00H)
	DD	00H
	DD	01H
xdata$x	ENDS
;	COMDAT xdata$x
xdata$x	SEGMENT
__unwindtable$??$construct@USecurityTokenKeyfilePath@GostCrypt@@ABU12@@?$allocator_traits@V?$allocator@U?$_List_node@USecurityTokenKeyfilePath@GostCrypt@@PAX@std@@@std@@@std@@SAXAAV?$allocator@U?$_List_node@USecurityTokenKeyfilePath@GostCrypt@@PAX@std@@@1@PAUSecurityTokenKeyfilePath@GostCrypt@@ABU34@@Z DD 0ffffffffH
	DD	FLAT:__unwindfunclet$??$construct@USecurityTokenKeyfilePath@GostCrypt@@ABU12@@?$allocator_traits@V?$allocator@U?$_List_node@USecurityTokenKeyfilePath@GostCrypt@@PAX@std@@@std@@@std@@SAXAAV?$allocator@U?$_List_node@USecurityTokenKeyfilePath@GostCrypt@@PAX@std@@@1@PAUSecurityTokenKeyfilePath@GostCrypt@@ABU34@@Z$1
__ehfuncinfo$??$construct@USecurityTokenKeyfilePath@GostCrypt@@ABU12@@?$allocator_traits@V?$allocator@U?$_List_node@USecurityTokenKeyfilePath@GostCrypt@@PAX@std@@@std@@@std@@SAXAAV?$allocator@U?$_List_node@USecurityTokenKeyfilePath@GostCrypt@@PAX@std@@@1@PAUSecurityTokenKeyfilePath@GostCrypt@@ABU34@@Z DD 019930522H
	DD	01H
	DD	FLAT:__unwindtable$??$construct@USecurityTokenKeyfilePath@GostCrypt@@ABU12@@?$allocator_traits@V?$allocator@U?$_List_node@USecurityTokenKeyfilePath@GostCrypt@@PAX@std@@@std@@@std@@SAXAAV?$allocator@U?$_List_node@USecurityTokenKeyfilePath@GostCrypt@@PAX@std@@@1@PAUSecurityTokenKeyfilePath@GostCrypt@@ABU34@@Z
	DD	2 DUP(00H)
	DD	2 DUP(00H)
	DD	00H
	DD	01H
xdata$x	ENDS
;	COMDAT xdata$x
xdata$x	SEGMENT
__unwindtable$??$construct@USecurityTokenKeyfilePath@GostCrypt@@ABU12@@?$_Wrap_alloc@V?$allocator@U?$_List_node@USecurityTokenKeyfilePath@GostCrypt@@PAX@std@@@std@@@std@@QAEXPAUSecurityTokenKeyfilePath@GostCrypt@@ABU23@@Z DD 0ffffffffH
	DD	FLAT:__unwindfunclet$??$construct@USecurityTokenKeyfilePath@GostCrypt@@ABU12@@?$_Wrap_alloc@V?$allocator@U?$_List_node@USecurityTokenKeyfilePath@GostCrypt@@PAX@std@@@std@@@std@@QAEXPAUSecurityTokenKeyfilePath@GostCrypt@@ABU23@@Z$2
__ehfuncinfo$??$construct@USecurityTokenKeyfilePath@GostCrypt@@ABU12@@?$_Wrap_alloc@V?$allocator@U?$_List_node@USecurityTokenKeyfilePath@GostCrypt@@PAX@std@@@std@@@std@@QAEXPAUSecurityTokenKeyfilePath@GostCrypt@@ABU23@@Z DD 019930522H
	DD	01H
	DD	FLAT:__unwindtable$??$construct@USecurityTokenKeyfilePath@GostCrypt@@ABU12@@?$_Wrap_alloc@V?$allocator@U?$_List_node@USecurityTokenKeyfilePath@GostCrypt@@PAX@std@@@std@@@std@@QAEXPAUSecurityTokenKeyfilePath@GostCrypt@@ABU23@@Z
	DD	2 DUP(00H)
	DD	2 DUP(00H)
	DD	00H
	DD	01H
xdata$x	ENDS
;	COMDAT xdata$x
xdata$x	SEGMENT
__catchsym$??$_Buynode@ABUSecurityTokenKeyfilePath@GostCrypt@@@?$_List_buy@USecurityTokenKeyfilePath@GostCrypt@@V?$allocator@USecurityTokenKeyfilePath@GostCrypt@@@std@@@std@@QAEPAU?$_List_node@USecurityTokenKeyfilePath@GostCrypt@@PAX@1@PAU21@0ABUSecurityTokenKeyfilePath@GostCrypt@@@Z$44 DD 040H
	DD	00H
	DD	00H
	DD	FLAT:__catch$??$_Buynode@ABUSecurityTokenKeyfilePath@GostCrypt@@@?$_List_buy@USecurityTokenKeyfilePath@GostCrypt@@V?$allocator@USecurityTokenKeyfilePath@GostCrypt@@@std@@@std@@QAEPAU?$_List_node@USecurityTokenKeyfilePath@GostCrypt@@PAX@1@PAU21@0ABUSecurityTokenKeyfilePath@GostCrypt@@@Z$0
__tryblocktable$??$_Buynode@ABUSecurityTokenKeyfilePath@GostCrypt@@@?$_List_buy@USecurityTokenKeyfilePath@GostCrypt@@V?$allocator@USecurityTokenKeyfilePath@GostCrypt@@@std@@@std@@QAEPAU?$_List_node@USecurityTokenKeyfilePath@GostCrypt@@PAX@1@PAU21@0ABUSecurityTokenKeyfilePath@GostCrypt@@@Z DD 00H
	DD	01H
	DD	02H
	DD	01H
	DD	FLAT:__catchsym$??$_Buynode@ABUSecurityTokenKeyfilePath@GostCrypt@@@?$_List_buy@USecurityTokenKeyfilePath@GostCrypt@@V?$allocator@USecurityTokenKeyfilePath@GostCrypt@@@std@@@std@@QAEPAU?$_List_node@USecurityTokenKeyfilePath@GostCrypt@@PAX@1@PAU21@0ABUSecurityTokenKeyfilePath@GostCrypt@@@Z$44
__unwindtable$??$_Buynode@ABUSecurityTokenKeyfilePath@GostCrypt@@@?$_List_buy@USecurityTokenKeyfilePath@GostCrypt@@V?$allocator@USecurityTokenKeyfilePath@GostCrypt@@@std@@@std@@QAEPAU?$_List_node@USecurityTokenKeyfilePath@GostCrypt@@PAX@1@PAU21@0ABUSecurityTokenKeyfilePath@GostCrypt@@@Z DD 0ffffffffH
	DD	00H
	DD	00H
	DD	FLAT:__unwindfunclet$??$_Buynode@ABUSecurityTokenKeyfilePath@GostCrypt@@@?$_List_buy@USecurityTokenKeyfilePath@GostCrypt@@V?$allocator@USecurityTokenKeyfilePath@GostCrypt@@@std@@@std@@QAEPAU?$_List_node@USecurityTokenKeyfilePath@GostCrypt@@PAX@1@PAU21@0ABUSecurityTokenKeyfilePath@GostCrypt@@@Z$8
	DD	0ffffffffH
	DD	00H
__ehfuncinfo$??$_Buynode@ABUSecurityTokenKeyfilePath@GostCrypt@@@?$_List_buy@USecurityTokenKeyfilePath@GostCrypt@@V?$allocator@USecurityTokenKeyfilePath@GostCrypt@@@std@@@std@@QAEPAU?$_List_node@USecurityTokenKeyfilePath@GostCrypt@@PAX@1@PAU21@0ABUSecurityTokenKeyfilePath@GostCrypt@@@Z DD 019930522H
	DD	03H
	DD	FLAT:__unwindtable$??$_Buynode@ABUSecurityTokenKeyfilePath@GostCrypt@@@?$_List_buy@USecurityTokenKeyfilePath@GostCrypt@@V?$allocator@USecurityTokenKeyfilePath@GostCrypt@@@std@@@std@@QAEPAU?$_List_node@USecurityTokenKeyfilePath@GostCrypt@@PAX@1@PAU21@0ABUSecurityTokenKeyfilePath@GostCrypt@@@Z
	DD	01H
	DD	FLAT:__tryblocktable$??$_Buynode@ABUSecurityTokenKeyfilePath@GostCrypt@@@?$_List_buy@USecurityTokenKeyfilePath@GostCrypt@@V?$allocator@USecurityTokenKeyfilePath@GostCrypt@@@std@@@std@@QAEPAU?$_List_node@USecurityTokenKeyfilePath@GostCrypt@@PAX@1@PAU21@0ABUSecurityTokenKeyfilePath@GostCrypt@@@Z
	DD	2 DUP(00H)
	DD	00H
	DD	01H
xdata$x	ENDS
;	COMDAT xdata$x
xdata$x	SEGMENT
__catchsym$??$_Insert_range@V?$_List_const_iterator@V?$_List_val@U?$_List_simple_types@USecurityTokenKeyfilePath@GostCrypt@@@std@@@std@@@std@@@?$list@USecurityTokenKeyfilePath@GostCrypt@@V?$allocator@USecurityTokenKeyfilePath@GostCrypt@@@std@@@std@@QAEXV?$_List_unchecked_const_iterator@V?$_List_val@U?$_List_simple_types@USecurityTokenKeyfilePath@GostCrypt@@@std@@@std@@U_Iterator_base0@2@@1@V?$_List_const_iterator@V?$_List_val@U?$_List_simple_types@USecurityTokenKeyfilePath@GostCrypt@@@std@@@std@@@1@1Uforward_iterator_tag@1@@Z$15 DD 040H
	DD	00H
	DD	00H
	DD	FLAT:__catch$??$_Insert_range@V?$_List_const_iterator@V?$_List_val@U?$_List_simple_types@USecurityTokenKeyfilePath@GostCrypt@@@std@@@std@@@std@@@?$list@USecurityTokenKeyfilePath@GostCrypt@@V?$allocator@USecurityTokenKeyfilePath@GostCrypt@@@std@@@std@@QAEXV?$_List_unchecked_const_iterator@V?$_List_val@U?$_List_simple_types@USecurityTokenKeyfilePath@GostCrypt@@@std@@@std@@U_Iterator_base0@2@@1@V?$_List_const_iterator@V?$_List_val@U?$_List_simple_types@USecurityTokenKeyfilePath@GostCrypt@@@std@@@std@@@1@1Uforward_iterator_tag@1@@Z$0
__unwindtable$??$_Insert_range@V?$_List_const_iterator@V?$_List_val@U?$_List_simple_types@USecurityTokenKeyfilePath@GostCrypt@@@std@@@std@@@std@@@?$list@USecurityTokenKeyfilePath@GostCrypt@@V?$allocator@USecurityTokenKeyfilePath@GostCrypt@@@std@@@std@@QAEXV?$_List_unchecked_const_iterator@V?$_List_val@U?$_List_simple_types@USecurityTokenKeyfilePath@GostCrypt@@@std@@@std@@U_Iterator_base0@2@@1@V?$_List_const_iterator@V?$_List_val@U?$_List_simple_types@USecurityTokenKeyfilePath@GostCrypt@@@std@@@std@@@1@1Uforward_iterator_tag@1@@Z DD 0ffffffffH
	DD	00H
	DD	0ffffffffH
	DD	00H
__tryblocktable$??$_Insert_range@V?$_List_const_iterator@V?$_List_val@U?$_List_simple_types@USecurityTokenKeyfilePath@GostCrypt@@@std@@@std@@@std@@@?$list@USecurityTokenKeyfilePath@GostCrypt@@V?$allocator@USecurityTokenKeyfilePath@GostCrypt@@@std@@@std@@QAEXV?$_List_unchecked_const_iterator@V?$_List_val@U?$_List_simple_types@USecurityTokenKeyfilePath@GostCrypt@@@std@@@std@@U_Iterator_base0@2@@1@V?$_List_const_iterator@V?$_List_val@U?$_List_simple_types@USecurityTokenKeyfilePath@GostCrypt@@@std@@@std@@@1@1Uforward_iterator_tag@1@@Z DD 00H
	DD	00H
	DD	01H
	DD	01H
	DD	FLAT:__catchsym$??$_Insert_range@V?$_List_const_iterator@V?$_List_val@U?$_List_simple_types@USecurityTokenKeyfilePath@GostCrypt@@@std@@@std@@@std@@@?$list@USecurityTokenKeyfilePath@GostCrypt@@V?$allocator@USecurityTokenKeyfilePath@GostCrypt@@@std@@@std@@QAEXV?$_List_unchecked_const_iterator@V?$_List_val@U?$_List_simple_types@USecurityTokenKeyfilePath@GostCrypt@@@std@@@std@@U_Iterator_base0@2@@1@V?$_List_const_iterator@V?$_List_val@U?$_List_simple_types@USecurityTokenKeyfilePath@GostCrypt@@@std@@@std@@@1@1Uforward_iterator_tag@1@@Z$15
__ehfuncinfo$??$_Insert_range@V?$_List_const_iterator@V?$_List_val@U?$_List_simple_types@USecurityTokenKeyfilePath@GostCrypt@@@std@@@std@@@std@@@?$list@USecurityTokenKeyfilePath@GostCrypt@@V?$allocator@USecurityTokenKeyfilePath@GostCrypt@@@std@@@std@@QAEXV?$_List_unchecked_const_iterator@V?$_List_val@U?$_List_simple_types@USecurityTokenKeyfilePath@GostCrypt@@@std@@@std@@U_Iterator_base0@2@@1@V?$_List_const_iterator@V?$_List_val@U?$_List_simple_types@USecurityTokenKeyfilePath@GostCrypt@@@std@@@std@@@1@1Uforward_iterator_tag@1@@Z DD 019930522H
	DD	02H
	DD	FLAT:__unwindtable$??$_Insert_range@V?$_List_const_iterator@V?$_List_val@U?$_List_simple_types@USecurityTokenKeyfilePath@GostCrypt@@@std@@@std@@@std@@@?$list@USecurityTokenKeyfilePath@GostCrypt@@V?$allocator@USecurityTokenKeyfilePath@GostCrypt@@@std@@@std@@QAEXV?$_List_unchecked_const_iterator@V?$_List_val@U?$_List_simple_types@USecurityTokenKeyfilePath@GostCrypt@@@std@@@std@@U_Iterator_base0@2@@1@V?$_List_const_iterator@V?$_List_val@U?$_List_simple_types@USecurityTokenKeyfilePath@GostCrypt@@@std@@@std@@@1@1Uforward_iterator_tag@1@@Z
	DD	01H
	DD	FLAT:__tryblocktable$??$_Insert_range@V?$_List_const_iterator@V?$_List_val@U?$_List_simple_types@USecurityTokenKeyfilePath@GostCrypt@@@std@@@std@@@std@@@?$list@USecurityTokenKeyfilePath@GostCrypt@@V?$allocator@USecurityTokenKeyfilePath@GostCrypt@@@std@@@std@@QAEXV?$_List_unchecked_const_iterator@V?$_List_val@U?$_List_simple_types@USecurityTokenKeyfilePath@GostCrypt@@@std@@@std@@U_Iterator_base0@2@@1@V?$_List_const_iterator@V?$_List_val@U?$_List_simple_types@USecurityTokenKeyfilePath@GostCrypt@@@std@@@std@@@1@1Uforward_iterator_tag@1@@Z
	DD	2 DUP(00H)
	DD	00H
	DD	01H
xdata$x	ENDS
;	COMDAT xdata$x
xdata$x	SEGMENT
__unwindtable$??0?$ContainerForward@V?$list@USecurityTokenKeyfilePath@GostCrypt@@V?$allocator@USecurityTokenKeyfilePath@GostCrypt@@@std@@@std@@@ForEach@GostCrypt@@QAE@ABV?$list@USecurityTokenKeyfilePath@GostCrypt@@V?$allocator@USecurityTokenKeyfilePath@GostCrypt@@@std@@@std@@@Z DD 0ffffffffH
	DD	FLAT:__unwindfunclet$??0?$ContainerForward@V?$list@USecurityTokenKeyfilePath@GostCrypt@@V?$allocator@USecurityTokenKeyfilePath@GostCrypt@@@std@@@std@@@ForEach@GostCrypt@@QAE@ABV?$list@USecurityTokenKeyfilePath@GostCrypt@@V?$allocator@USecurityTokenKeyfilePath@GostCrypt@@@std@@@std@@@Z$0
__ehfuncinfo$??0?$ContainerForward@V?$list@USecurityTokenKeyfilePath@GostCrypt@@V?$allocator@USecurityTokenKeyfilePath@GostCrypt@@@std@@@std@@@ForEach@GostCrypt@@QAE@ABV?$list@USecurityTokenKeyfilePath@GostCrypt@@V?$allocator@USecurityTokenKeyfilePath@GostCrypt@@@std@@@std@@@Z DD 019930522H
	DD	01H
	DD	FLAT:__unwindtable$??0?$ContainerForward@V?$list@USecurityTokenKeyfilePath@GostCrypt@@V?$allocator@USecurityTokenKeyfilePath@GostCrypt@@@std@@@std@@@ForEach@GostCrypt@@QAE@ABV?$list@USecurityTokenKeyfilePath@GostCrypt@@V?$allocator@USecurityTokenKeyfilePath@GostCrypt@@@std@@@std@@@Z
	DD	2 DUP(00H)
	DD	2 DUP(00H)
	DD	00H
	DD	01H
xdata$x	ENDS
;	COMDAT xdata$x
xdata$x	SEGMENT
__unwindtable$??$GetContainerForward@V?$list@USecurityTokenKeyfilePath@GostCrypt@@V?$allocator@USecurityTokenKeyfilePath@GostCrypt@@@std@@@std@@@ForEach@GostCrypt@@SA?AU?$ContainerForward@V?$list@USecurityTokenKeyfilePath@GostCrypt@@V?$allocator@USecurityTokenKeyfilePath@GostCrypt@@@std@@@std@@@01@ABV?$list@USecurityTokenKeyfilePath@GostCrypt@@V?$allocator@USecurityTokenKeyfilePath@GostCrypt@@@std@@@std@@@Z DD 0ffffffffH
	DD	FLAT:__unwindfunclet$??$GetContainerForward@V?$list@USecurityTokenKeyfilePath@GostCrypt@@V?$allocator@USecurityTokenKeyfilePath@GostCrypt@@@std@@@std@@@ForEach@GostCrypt@@SA?AU?$ContainerForward@V?$list@USecurityTokenKeyfilePath@GostCrypt@@V?$allocator@USecurityTokenKeyfilePath@GostCrypt@@@std@@@std@@@01@ABV?$list@USecurityTokenKeyfilePath@GostCrypt@@V?$allocator@USecurityTokenKeyfilePath@GostCrypt@@@std@@@std@@@Z$1
__ehfuncinfo$??$GetContainerForward@V?$list@USecurityTokenKeyfilePath@GostCrypt@@V?$allocator@USecurityTokenKeyfilePath@GostCrypt@@@std@@@std@@@ForEach@GostCrypt@@SA?AU?$ContainerForward@V?$list@USecurityTokenKeyfilePath@GostCrypt@@V?$allocator@USecurityTokenKeyfilePath@GostCrypt@@@std@@@std@@@01@ABV?$list@USecurityTokenKeyfilePath@GostCrypt@@V?$allocator@USecurityTokenKeyfilePath@GostCrypt@@@std@@@std@@@Z DD 019930522H
	DD	01H
	DD	FLAT:__unwindtable$??$GetContainerForward@V?$list@USecurityTokenKeyfilePath@GostCrypt@@V?$allocator@USecurityTokenKeyfilePath@GostCrypt@@@std@@@std@@@ForEach@GostCrypt@@SA?AU?$ContainerForward@V?$list@USecurityTokenKeyfilePath@GostCrypt@@V?$allocator@USecurityTokenKeyfilePath@GostCrypt@@@std@@@std@@@01@ABV?$list@USecurityTokenKeyfilePath@GostCrypt@@V?$allocator@USecurityTokenKeyfilePath@GostCrypt@@@std@@@std@@@Z
	DD	2 DUP(00H)
	DD	2 DUP(00H)
	DD	00H
	DD	01H
xdata$x	ENDS
;	COMDAT xdata$x
xdata$x	SEGMENT
__catchsym$??0?$list@USecurityTokenKeyfilePath@GostCrypt@@V?$allocator@USecurityTokenKeyfilePath@GostCrypt@@@std@@@std@@QAE@ABV01@@Z$46 DD 040H
	DD	00H
	DD	00H
	DD	FLAT:__catch$??0?$list@USecurityTokenKeyfilePath@GostCrypt@@V?$allocator@USecurityTokenKeyfilePath@GostCrypt@@@std@@@std@@QAE@ABV01@@Z$0
__tryblocktable$??0?$list@USecurityTokenKeyfilePath@GostCrypt@@V?$allocator@USecurityTokenKeyfilePath@GostCrypt@@@std@@@std@@QAE@ABV01@@Z DD 01H
	DD	01H
	DD	02H
	DD	01H
	DD	FLAT:__catchsym$??0?$list@USecurityTokenKeyfilePath@GostCrypt@@V?$allocator@USecurityTokenKeyfilePath@GostCrypt@@@std@@@std@@QAE@ABV01@@Z$46
__unwindtable$??0?$list@USecurityTokenKeyfilePath@GostCrypt@@V?$allocator@USecurityTokenKeyfilePath@GostCrypt@@@std@@@std@@QAE@ABV01@@Z DD 0ffffffffH
	DD	FLAT:__unwindfunclet$??0?$list@USecurityTokenKeyfilePath@GostCrypt@@V?$allocator@USecurityTokenKeyfilePath@GostCrypt@@@std@@@std@@QAE@ABV01@@Z$2
	DD	00H
	DD	00H
	DD	00H
	DD	00H
__ehfuncinfo$??0?$list@USecurityTokenKeyfilePath@GostCrypt@@V?$allocator@USecurityTokenKeyfilePath@GostCrypt@@@std@@@std@@QAE@ABV01@@Z DD 019930522H
	DD	03H
	DD	FLAT:__unwindtable$??0?$list@USecurityTokenKeyfilePath@GostCrypt@@V?$allocator@USecurityTokenKeyfilePath@GostCrypt@@@std@@@std@@QAE@ABV01@@Z
	DD	01H
	DD	FLAT:__tryblocktable$??0?$list@USecurityTokenKeyfilePath@GostCrypt@@V?$allocator@USecurityTokenKeyfilePath@GostCrypt@@@std@@@std@@QAE@ABV01@@Z
	DD	2 DUP(00H)
	DD	00H
	DD	01H
xdata$x	ENDS
;	COMDAT xdata$x
xdata$x	SEGMENT
__catchsym$?_Copy@?$basic_string@_WU?$char_traits@_W@std@@V?$allocator@_W@2@@std@@QAEXII@Z$111 DD 040H
	DD	00H
	DD	00H
	DD	FLAT:__catch$?_Copy@?$basic_string@_WU?$char_traits@_W@std@@V?$allocator@_W@2@@std@@QAEXII@Z$0
__catchsym$?_Copy@?$basic_string@_WU?$char_traits@_W@std@@V?$allocator@_W@2@@std@@QAEXII@Z$110 DD 040H
	DD	00H
	DD	00H
	DD	FLAT:__catch$?_Copy@?$basic_string@_WU?$char_traits@_W@std@@V?$allocator@_W@2@@std@@QAEXII@Z$1
__unwindtable$?_Copy@?$basic_string@_WU?$char_traits@_W@std@@V?$allocator@_W@2@@std@@QAEXII@Z DD 0ffffffffH
	DD	00H
	DD	0ffffffffH
	DD	00H
	DD	01H
	DD	00H
	DD	01H
	DD	00H
__ehfuncinfo$?_Copy@?$basic_string@_WU?$char_traits@_W@std@@V?$allocator@_W@2@@std@@QAEXII@Z DD 019930522H
	DD	04H
	DD	FLAT:__unwindtable$?_Copy@?$basic_string@_WU?$char_traits@_W@std@@V?$allocator@_W@2@@std@@QAEXII@Z
	DD	02H
	DD	FLAT:__tryblocktable$?_Copy@?$basic_string@_WU?$char_traits@_W@std@@V?$allocator@_W@2@@std@@QAEXII@Z
	DD	2 DUP(00H)
	DD	00H
	DD	01H
__tryblocktable$?_Copy@?$basic_string@_WU?$char_traits@_W@std@@V?$allocator@_W@2@@std@@QAEXII@Z DD 02H
	DD	02H
	DD	03H
	DD	01H
	DD	FLAT:__catchsym$?_Copy@?$basic_string@_WU?$char_traits@_W@std@@V?$allocator@_W@2@@std@@QAEXII@Z$110
	DD	00H
	DD	00H
	DD	03H
	DD	01H
	DD	FLAT:__catchsym$?_Copy@?$basic_string@_WU?$char_traits@_W@std@@V?$allocator@_W@2@@std@@QAEXII@Z$111
xdata$x	ENDS
;	COMDAT xdata$x
xdata$x	SEGMENT
__catchsym$?_Copy@?$basic_string@DU?$char_traits@D@std@@V?$allocator@D@2@@std@@QAEXII@Z$111 DD 040H
	DD	00H
	DD	00H
	DD	FLAT:__catch$?_Copy@?$basic_string@DU?$char_traits@D@std@@V?$allocator@D@2@@std@@QAEXII@Z$0
__catchsym$?_Copy@?$basic_string@DU?$char_traits@D@std@@V?$allocator@D@2@@std@@QAEXII@Z$110 DD 040H
	DD	00H
	DD	00H
	DD	FLAT:__catch$?_Copy@?$basic_string@DU?$char_traits@D@std@@V?$allocator@D@2@@std@@QAEXII@Z$1
__unwindtable$?_Copy@?$basic_string@DU?$char_traits@D@std@@V?$allocator@D@2@@std@@QAEXII@Z DD 0ffffffffH
	DD	00H
	DD	0ffffffffH
	DD	00H
	DD	01H
	DD	00H
	DD	01H
	DD	00H
__ehfuncinfo$?_Copy@?$basic_string@DU?$char_traits@D@std@@V?$allocator@D@2@@std@@QAEXII@Z DD 019930522H
	DD	04H
	DD	FLAT:__unwindtable$?_Copy@?$basic_string@DU?$char_traits@D@std@@V?$allocator@D@2@@std@@QAEXII@Z
	DD	02H
	DD	FLAT:__tryblocktable$?_Copy@?$basic_string@DU?$char_traits@D@std@@V?$allocator@D@2@@std@@QAEXII@Z
	DD	2 DUP(00H)
	DD	00H
	DD	01H
__tryblocktable$?_Copy@?$basic_string@DU?$char_traits@D@std@@V?$allocator@D@2@@std@@QAEXII@Z DD 02H
	DD	02H
	DD	03H
	DD	01H
	DD	FLAT:__catchsym$?_Copy@?$basic_string@DU?$char_traits@D@std@@V?$allocator@D@2@@std@@QAEXII@Z$110
	DD	00H
	DD	00H
	DD	03H
	DD	01H
	DD	FLAT:__catchsym$?_Copy@?$basic_string@DU?$char_traits@D@std@@V?$allocator@D@2@@std@@QAEXII@Z$111
xdata$x	ENDS
;	COMDAT xdata$x
xdata$x	SEGMENT
__catchsym$_KeyFilesApply$313 DD 08H
	DD	FLAT:??_R0?AUException@GostCrypt@@@8
	DD	0fffff9d8H
	DD	FLAT:__catch$_KeyFilesApply$0
__tryblocktable$_KeyFilesApply DD 00H
	DD	07H
	DD	08H
	DD	01H
	DD	FLAT:__catchsym$_KeyFilesApply$313
__ehfuncinfo$_KeyFilesApply DD 019930522H
	DD	0dH
	DD	FLAT:__unwindtable$_KeyFilesApply
	DD	01H
	DD	FLAT:__tryblocktable$_KeyFilesApply
	DD	2 DUP(00H)
	DD	00H
	DD	01H
__unwindtable$_KeyFilesApply DD 0ffffffffH
	DD	00H
	DD	00H
	DD	FLAT:__unwindfunclet$_KeyFilesApply$2
	DD	01H
	DD	FLAT:__unwindfunclet$_KeyFilesApply$3
	DD	00H
	DD	FLAT:__unwindfunclet$_KeyFilesApply$4
	DD	03H
	DD	FLAT:__unwindfunclet$_KeyFilesApply$5
	DD	04H
	DD	FLAT:__unwindfunclet$_KeyFilesApply$6
	DD	05H
	DD	FLAT:__unwindfunclet$_KeyFilesApply$7
	DD	06H
	DD	FLAT:__unwindfunclet$_KeyFilesApply$8
	DD	0ffffffffH
	DD	00H
	DD	0ffffffffH
	DD	FLAT:__unwindfunclet$_KeyFilesApply$9
	DD	09H
	DD	FLAT:__unwindfunclet$_KeyFilesApply$10
	DD	0aH
	DD	FLAT:__unwindfunclet$_KeyFilesApply$11
	DD	0bH
	DD	FLAT:__unwindfunclet$_KeyFilesApply$12
xdata$x	ENDS
; Function compile flags: /Ogtp
; File c:\program files (x86)\microsoft visual studio 14.0\vc\include\xmemory0
;	COMDAT ??$construct@USecurityTokenKeyfilePath@GostCrypt@@ABU12@@?$allocator@U?$_List_node@USecurityTokenKeyfilePath@GostCrypt@@PAX@std@@@std@@QAEXPAUSecurityTokenKeyfilePath@GostCrypt@@ABU23@@Z
_TEXT	SEGMENT
$T2 = -16						; size = 4
__$EHRec$ = -12						; size = 12
__Ptr$ = 8						; size = 4
_<_Args_0>$ = 12					; size = 4
??$construct@USecurityTokenKeyfilePath@GostCrypt@@ABU12@@?$allocator@U?$_List_node@USecurityTokenKeyfilePath@GostCrypt@@PAX@std@@@std@@QAEXPAUSecurityTokenKeyfilePath@GostCrypt@@ABU23@@Z PROC ; std::allocator<std::_List_node<GostCrypt::SecurityTokenKeyfilePath,void *> >::construct<GostCrypt::SecurityTokenKeyfilePath,GostCrypt::SecurityTokenKeyfilePath const &>, COMDAT
; _this$ = ecx

; 736  : 		{	// construct _Objty(_Types...) at _Ptr

  00000	55		 push	 ebp
  00001	8b ec		 mov	 ebp, esp
  00003	6a ff		 push	 -1
  00005	68 00 00 00 00	 push	 __ehhandler$??$construct@USecurityTokenKeyfilePath@GostCrypt@@ABU12@@?$allocator@U?$_List_node@USecurityTokenKeyfilePath@GostCrypt@@PAX@std@@@std@@QAEXPAUSecurityTokenKeyfilePath@GostCrypt@@ABU23@@Z
  0000a	64 a1 00 00 00
	00		 mov	 eax, DWORD PTR fs:0
  00010	50		 push	 eax
  00011	51		 push	 ecx
  00012	a1 00 00 00 00	 mov	 eax, DWORD PTR ___security_cookie
  00017	33 c5		 xor	 eax, ebp
  00019	50		 push	 eax
  0001a	8d 45 f4	 lea	 eax, DWORD PTR __$EHRec$[ebp]
  0001d	64 a3 00 00 00
	00		 mov	 DWORD PTR fs:0, eax

; 737  : 		::new ((void *)_Ptr) _Objty(_STD forward<_Types>(_Args)...);

  00023	8b 4d 08	 mov	 ecx, DWORD PTR __Ptr$[ebp]
  00026	89 4d f0	 mov	 DWORD PTR $T2[ebp], ecx
  00029	c7 45 fc 00 00
	00 00		 mov	 DWORD PTR __$EHRec$[ebp+8], 0
  00030	85 c9		 test	 ecx, ecx
  00032	74 1e		 je	 SHORT $LN3@construct
  00034	33 c0		 xor	 eax, eax
  00036	c7 41 14 07 00
	00 00		 mov	 DWORD PTR [ecx+20], 7
  0003d	6a ff		 push	 -1
  0003f	50		 push	 eax
  00040	ff 75 0c	 push	 DWORD PTR _<_Args_0>$[ebp]
  00043	c7 41 10 00 00
	00 00		 mov	 DWORD PTR [ecx+16], 0
  0004a	66 89 01	 mov	 WORD PTR [ecx], ax
  0004d	e8 00 00 00 00	 call	 ?assign@?$basic_string@_WU?$char_traits@_W@std@@V?$allocator@_W@2@@std@@QAEAAV12@ABV12@II@Z ; std::basic_string<wchar_t,std::char_traits<wchar_t>,std::allocator<wchar_t> >::assign
$LN3@construct:

; 738  : 		}

  00052	8b 4d f4	 mov	 ecx, DWORD PTR __$EHRec$[ebp]
  00055	64 89 0d 00 00
	00 00		 mov	 DWORD PTR fs:0, ecx
  0005c	59		 pop	 ecx
  0005d	8b e5		 mov	 esp, ebp
  0005f	5d		 pop	 ebp
  00060	c2 08 00	 ret	 8
_TEXT	ENDS
;	COMDAT text$x
text$x	SEGMENT
__unwindfunclet$??$construct@USecurityTokenKeyfilePath@GostCrypt@@ABU12@@?$allocator@U?$_List_node@USecurityTokenKeyfilePath@GostCrypt@@PAX@std@@@std@@QAEXPAUSecurityTokenKeyfilePath@GostCrypt@@ABU23@@Z$0:
  00000	8b 45 08	 mov	 eax, DWORD PTR __Ptr$[ebp]
  00003	50		 push	 eax
  00004	8b 45 f0	 mov	 eax, DWORD PTR $T2[ebp]
  00007	50		 push	 eax
  00008	e8 00 00 00 00	 call	 ??3@YAXPAX0@Z		; operator delete
  0000d	83 c4 08	 add	 esp, 8
  00010	c3		 ret	 0
__ehhandler$??$construct@USecurityTokenKeyfilePath@GostCrypt@@ABU12@@?$allocator@U?$_List_node@USecurityTokenKeyfilePath@GostCrypt@@PAX@std@@@std@@QAEXPAUSecurityTokenKeyfilePath@GostCrypt@@ABU23@@Z:
  00011	8b 54 24 08	 mov	 edx, DWORD PTR [esp+8]
  00015	8d 42 0c	 lea	 eax, DWORD PTR [edx+12]
  00018	8b 4a f8	 mov	 ecx, DWORD PTR [edx-8]
  0001b	33 c8		 xor	 ecx, eax
  0001d	e8 00 00 00 00	 call	 @__security_check_cookie@4
  00022	b8 00 00 00 00	 mov	 eax, OFFSET __ehfuncinfo$??$construct@USecurityTokenKeyfilePath@GostCrypt@@ABU12@@?$allocator@U?$_List_node@USecurityTokenKeyfilePath@GostCrypt@@PAX@std@@@std@@QAEXPAUSecurityTokenKeyfilePath@GostCrypt@@ABU23@@Z
  00027	e9 00 00 00 00	 jmp	 ___CxxFrameHandler3
text$x	ENDS
??$construct@USecurityTokenKeyfilePath@GostCrypt@@ABU12@@?$allocator@U?$_List_node@USecurityTokenKeyfilePath@GostCrypt@@PAX@std@@@std@@QAEXPAUSecurityTokenKeyfilePath@GostCrypt@@ABU23@@Z ENDP ; std::allocator<std::_List_node<GostCrypt::SecurityTokenKeyfilePath,void *> >::construct<GostCrypt::SecurityTokenKeyfilePath,GostCrypt::SecurityTokenKeyfilePath const &>
; Function compile flags: /Ogtp
; File c:\program files (x86)\microsoft visual studio 14.0\vc\include\xmemory0
;	COMDAT ??$construct@USecurityTokenKeyfilePath@GostCrypt@@ABU12@@?$allocator_traits@V?$allocator@U?$_List_node@USecurityTokenKeyfilePath@GostCrypt@@PAX@std@@@std@@@std@@SAXAAV?$allocator@U?$_List_node@USecurityTokenKeyfilePath@GostCrypt@@PAX@std@@@1@PAUSecurityTokenKeyfilePath@GostCrypt@@ABU34@@Z
_TEXT	SEGMENT
$T2 = -16						; size = 4
__$EHRec$ = -12						; size = 12
__Al$ = 8						; size = 4
__Ptr$ = 12						; size = 4
_<_Args_0>$ = 16					; size = 4
??$construct@USecurityTokenKeyfilePath@GostCrypt@@ABU12@@?$allocator_traits@V?$allocator@U?$_List_node@USecurityTokenKeyfilePath@GostCrypt@@PAX@std@@@std@@@std@@SAXAAV?$allocator@U?$_List_node@USecurityTokenKeyfilePath@GostCrypt@@PAX@std@@@1@PAUSecurityTokenKeyfilePath@GostCrypt@@ABU34@@Z PROC ; std::allocator_traits<std::allocator<std::_List_node<GostCrypt::SecurityTokenKeyfilePath,void *> > >::construct<GostCrypt::SecurityTokenKeyfilePath,GostCrypt::SecurityTokenKeyfilePath const &>, COMDAT

; 856  : 		{	// construct _Objty(_Types...) at _Ptr

  00000	55		 push	 ebp
  00001	8b ec		 mov	 ebp, esp
  00003	6a ff		 push	 -1
  00005	68 00 00 00 00	 push	 __ehhandler$??$construct@USecurityTokenKeyfilePath@GostCrypt@@ABU12@@?$allocator_traits@V?$allocator@U?$_List_node@USecurityTokenKeyfilePath@GostCrypt@@PAX@std@@@std@@@std@@SAXAAV?$allocator@U?$_List_node@USecurityTokenKeyfilePath@GostCrypt@@PAX@std@@@1@PAUSecurityTokenKeyfilePath@GostCrypt@@ABU34@@Z
  0000a	64 a1 00 00 00
	00		 mov	 eax, DWORD PTR fs:0
  00010	50		 push	 eax
  00011	51		 push	 ecx
  00012	a1 00 00 00 00	 mov	 eax, DWORD PTR ___security_cookie
  00017	33 c5		 xor	 eax, ebp
  00019	50		 push	 eax
  0001a	8d 45 f4	 lea	 eax, DWORD PTR __$EHRec$[ebp]
  0001d	64 a3 00 00 00
	00		 mov	 DWORD PTR fs:0, eax

; 857  : 		_Al.construct(_Ptr, _STD forward<_Types>(_Args)...);

  00023	8b 4d 0c	 mov	 ecx, DWORD PTR __Ptr$[ebp]
  00026	89 4d f0	 mov	 DWORD PTR $T2[ebp], ecx
  00029	c7 45 fc 00 00
	00 00		 mov	 DWORD PTR __$EHRec$[ebp+8], 0
  00030	85 c9		 test	 ecx, ecx
  00032	74 1e		 je	 SHORT $LN8@construct
  00034	33 c0		 xor	 eax, eax
  00036	c7 41 14 07 00
	00 00		 mov	 DWORD PTR [ecx+20], 7
  0003d	6a ff		 push	 -1
  0003f	50		 push	 eax
  00040	ff 75 10	 push	 DWORD PTR _<_Args_0>$[ebp]
  00043	c7 41 10 00 00
	00 00		 mov	 DWORD PTR [ecx+16], 0
  0004a	66 89 01	 mov	 WORD PTR [ecx], ax
  0004d	e8 00 00 00 00	 call	 ?assign@?$basic_string@_WU?$char_traits@_W@std@@V?$allocator@_W@2@@std@@QAEAAV12@ABV12@II@Z ; std::basic_string<wchar_t,std::char_traits<wchar_t>,std::allocator<wchar_t> >::assign
$LN8@construct:

; 858  : 		}

  00052	8b 4d f4	 mov	 ecx, DWORD PTR __$EHRec$[ebp]
  00055	64 89 0d 00 00
	00 00		 mov	 DWORD PTR fs:0, ecx
  0005c	59		 pop	 ecx
  0005d	8b e5		 mov	 esp, ebp
  0005f	5d		 pop	 ebp
  00060	c3		 ret	 0
_TEXT	ENDS
;	COMDAT text$x
text$x	SEGMENT
__unwindfunclet$??$construct@USecurityTokenKeyfilePath@GostCrypt@@ABU12@@?$allocator_traits@V?$allocator@U?$_List_node@USecurityTokenKeyfilePath@GostCrypt@@PAX@std@@@std@@@std@@SAXAAV?$allocator@U?$_List_node@USecurityTokenKeyfilePath@GostCrypt@@PAX@std@@@1@PAUSecurityTokenKeyfilePath@GostCrypt@@ABU34@@Z$1:
  00000	8b 45 0c	 mov	 eax, DWORD PTR __Ptr$[ebp]
  00003	50		 push	 eax
  00004	8b 45 f0	 mov	 eax, DWORD PTR $T2[ebp]
  00007	50		 push	 eax
  00008	e8 00 00 00 00	 call	 ??3@YAXPAX0@Z		; operator delete
  0000d	83 c4 08	 add	 esp, 8
  00010	c3		 ret	 0
__ehhandler$??$construct@USecurityTokenKeyfilePath@GostCrypt@@ABU12@@?$allocator_traits@V?$allocator@U?$_List_node@USecurityTokenKeyfilePath@GostCrypt@@PAX@std@@@std@@@std@@SAXAAV?$allocator@U?$_List_node@USecurityTokenKeyfilePath@GostCrypt@@PAX@std@@@1@PAUSecurityTokenKeyfilePath@GostCrypt@@ABU34@@Z:
  00011	8b 54 24 08	 mov	 edx, DWORD PTR [esp+8]
  00015	8d 42 0c	 lea	 eax, DWORD PTR [edx+12]
  00018	8b 4a f8	 mov	 ecx, DWORD PTR [edx-8]
  0001b	33 c8		 xor	 ecx, eax
  0001d	e8 00 00 00 00	 call	 @__security_check_cookie@4
  00022	b8 00 00 00 00	 mov	 eax, OFFSET __ehfuncinfo$??$construct@USecurityTokenKeyfilePath@GostCrypt@@ABU12@@?$allocator_traits@V?$allocator@U?$_List_node@USecurityTokenKeyfilePath@GostCrypt@@PAX@std@@@std@@@std@@SAXAAV?$allocator@U?$_List_node@USecurityTokenKeyfilePath@GostCrypt@@PAX@std@@@1@PAUSecurityTokenKeyfilePath@GostCrypt@@ABU34@@Z
  00027	e9 00 00 00 00	 jmp	 ___CxxFrameHandler3
text$x	ENDS
??$construct@USecurityTokenKeyfilePath@GostCrypt@@ABU12@@?$allocator_traits@V?$allocator@U?$_List_node@USecurityTokenKeyfilePath@GostCrypt@@PAX@std@@@std@@@std@@SAXAAV?$allocator@U?$_List_node@USecurityTokenKeyfilePath@GostCrypt@@PAX@std@@@1@PAUSecurityTokenKeyfilePath@GostCrypt@@ABU34@@Z ENDP ; std::allocator_traits<std::allocator<std::_List_node<GostCrypt::SecurityTokenKeyfilePath,void *> > >::construct<GostCrypt::SecurityTokenKeyfilePath,GostCrypt::SecurityTokenKeyfilePath const &>
; Function compile flags: /Ogtp
; File c:\program files (x86)\microsoft visual studio 14.0\vc\include\xmemory0
;	COMDAT ??$construct@USecurityTokenKeyfilePath@GostCrypt@@ABU12@@?$_Wrap_alloc@V?$allocator@U?$_List_node@USecurityTokenKeyfilePath@GostCrypt@@PAX@std@@@std@@@std@@QAEXPAUSecurityTokenKeyfilePath@GostCrypt@@ABU23@@Z
_TEXT	SEGMENT
$T2 = -16						; size = 4
__$EHRec$ = -12						; size = 12
__Ptr$ = 8						; size = 4
_<_Args_0>$ = 12					; size = 4
??$construct@USecurityTokenKeyfilePath@GostCrypt@@ABU12@@?$_Wrap_alloc@V?$allocator@U?$_List_node@USecurityTokenKeyfilePath@GostCrypt@@PAX@std@@@std@@@std@@QAEXPAUSecurityTokenKeyfilePath@GostCrypt@@ABU23@@Z PROC ; std::_Wrap_alloc<std::allocator<std::_List_node<GostCrypt::SecurityTokenKeyfilePath,void *> > >::construct<GostCrypt::SecurityTokenKeyfilePath,GostCrypt::SecurityTokenKeyfilePath const &>, COMDAT
; _this$ = ecx

; 994  : 		{	// construct _Ty(_Types...) at _Ptr

  00000	55		 push	 ebp
  00001	8b ec		 mov	 ebp, esp
  00003	6a ff		 push	 -1
  00005	68 00 00 00 00	 push	 __ehhandler$??$construct@USecurityTokenKeyfilePath@GostCrypt@@ABU12@@?$_Wrap_alloc@V?$allocator@U?$_List_node@USecurityTokenKeyfilePath@GostCrypt@@PAX@std@@@std@@@std@@QAEXPAUSecurityTokenKeyfilePath@GostCrypt@@ABU23@@Z
  0000a	64 a1 00 00 00
	00		 mov	 eax, DWORD PTR fs:0
  00010	50		 push	 eax
  00011	51		 push	 ecx
  00012	a1 00 00 00 00	 mov	 eax, DWORD PTR ___security_cookie
  00017	33 c5		 xor	 eax, ebp
  00019	50		 push	 eax
  0001a	8d 45 f4	 lea	 eax, DWORD PTR __$EHRec$[ebp]
  0001d	64 a3 00 00 00
	00		 mov	 DWORD PTR fs:0, eax

; 995  : 		_Mytraits::construct(*this, _Ptr,

  00023	8b 4d 08	 mov	 ecx, DWORD PTR __Ptr$[ebp]
  00026	89 4d f0	 mov	 DWORD PTR $T2[ebp], ecx
  00029	c7 45 fc 00 00
	00 00		 mov	 DWORD PTR __$EHRec$[ebp+8], 0
  00030	85 c9		 test	 ecx, ecx
  00032	74 1e		 je	 SHORT $LN13@construct
  00034	33 c0		 xor	 eax, eax
  00036	c7 41 14 07 00
	00 00		 mov	 DWORD PTR [ecx+20], 7
  0003d	6a ff		 push	 -1
  0003f	50		 push	 eax
  00040	ff 75 0c	 push	 DWORD PTR _<_Args_0>$[ebp]
  00043	c7 41 10 00 00
	00 00		 mov	 DWORD PTR [ecx+16], 0
  0004a	66 89 01	 mov	 WORD PTR [ecx], ax
  0004d	e8 00 00 00 00	 call	 ?assign@?$basic_string@_WU?$char_traits@_W@std@@V?$allocator@_W@2@@std@@QAEAAV12@ABV12@II@Z ; std::basic_string<wchar_t,std::char_traits<wchar_t>,std::allocator<wchar_t> >::assign
$LN13@construct:

; 996  : 			_STD forward<_Types>(_Args)...);
; 997  : 		}

  00052	8b 4d f4	 mov	 ecx, DWORD PTR __$EHRec$[ebp]
  00055	64 89 0d 00 00
	00 00		 mov	 DWORD PTR fs:0, ecx
  0005c	59		 pop	 ecx
  0005d	8b e5		 mov	 esp, ebp
  0005f	5d		 pop	 ebp
  00060	c2 08 00	 ret	 8
_TEXT	ENDS
;	COMDAT text$x
text$x	SEGMENT
__unwindfunclet$??$construct@USecurityTokenKeyfilePath@GostCrypt@@ABU12@@?$_Wrap_alloc@V?$allocator@U?$_List_node@USecurityTokenKeyfilePath@GostCrypt@@PAX@std@@@std@@@std@@QAEXPAUSecurityTokenKeyfilePath@GostCrypt@@ABU23@@Z$2:
  00000	8b 45 08	 mov	 eax, DWORD PTR __Ptr$[ebp]
  00003	50		 push	 eax
  00004	8b 45 f0	 mov	 eax, DWORD PTR $T2[ebp]
  00007	50		 push	 eax
  00008	e8 00 00 00 00	 call	 ??3@YAXPAX0@Z		; operator delete
  0000d	83 c4 08	 add	 esp, 8
  00010	c3		 ret	 0
__ehhandler$??$construct@USecurityTokenKeyfilePath@GostCrypt@@ABU12@@?$_Wrap_alloc@V?$allocator@U?$_List_node@USecurityTokenKeyfilePath@GostCrypt@@PAX@std@@@std@@@std@@QAEXPAUSecurityTokenKeyfilePath@GostCrypt@@ABU23@@Z:
  00011	8b 54 24 08	 mov	 edx, DWORD PTR [esp+8]
  00015	8d 42 0c	 lea	 eax, DWORD PTR [edx+12]
  00018	8b 4a f8	 mov	 ecx, DWORD PTR [edx-8]
  0001b	33 c8		 xor	 ecx, eax
  0001d	e8 00 00 00 00	 call	 @__security_check_cookie@4
  00022	b8 00 00 00 00	 mov	 eax, OFFSET __ehfuncinfo$??$construct@USecurityTokenKeyfilePath@GostCrypt@@ABU12@@?$_Wrap_alloc@V?$allocator@U?$_List_node@USecurityTokenKeyfilePath@GostCrypt@@PAX@std@@@std@@@std@@QAEXPAUSecurityTokenKeyfilePath@GostCrypt@@ABU23@@Z
  00027	e9 00 00 00 00	 jmp	 ___CxxFrameHandler3
text$x	ENDS
??$construct@USecurityTokenKeyfilePath@GostCrypt@@ABU12@@?$_Wrap_alloc@V?$allocator@U?$_List_node@USecurityTokenKeyfilePath@GostCrypt@@PAX@std@@@std@@@std@@QAEXPAUSecurityTokenKeyfilePath@GostCrypt@@ABU23@@Z ENDP ; std::_Wrap_alloc<std::allocator<std::_List_node<GostCrypt::SecurityTokenKeyfilePath,void *> > >::construct<GostCrypt::SecurityTokenKeyfilePath,GostCrypt::SecurityTokenKeyfilePath const &>
; Function compile flags: /Ogtp
; File c:\program files (x86)\microsoft visual studio 14.0\vc\include\type_traits
;	COMDAT ??$move@AAU?$_Wrap_alloc@V?$allocator@U?$_List_node@USecurityTokenKeyfilePath@GostCrypt@@PAX@std@@@std@@@std@@@std@@YA$$QAU?$_Wrap_alloc@V?$allocator@U?$_List_node@USecurityTokenKeyfilePath@GostCrypt@@PAX@std@@@std@@@0@AAU10@@Z
_TEXT	SEGMENT
__Arg$ = 8						; size = 4
??$move@AAU?$_Wrap_alloc@V?$allocator@U?$_List_node@USecurityTokenKeyfilePath@GostCrypt@@PAX@std@@@std@@@std@@@std@@YA$$QAU?$_Wrap_alloc@V?$allocator@U?$_List_node@USecurityTokenKeyfilePath@GostCrypt@@PAX@std@@@std@@@0@AAU10@@Z PROC ; std::move<std::_Wrap_alloc<std::allocator<std::_List_node<GostCrypt::SecurityTokenKeyfilePath,void *> > > &>, COMDAT

; 1291 : 	{	// forward _Arg as movable

  00000	55		 push	 ebp
  00001	8b ec		 mov	 ebp, esp

; 1292 : 	return (static_cast<typename remove_reference<_Ty>::type&&>(_Arg));

  00003	8b 45 08	 mov	 eax, DWORD PTR __Arg$[ebp]

; 1293 : 	}

  00006	5d		 pop	 ebp
  00007	c3		 ret	 0
??$move@AAU?$_Wrap_alloc@V?$allocator@U?$_List_node@USecurityTokenKeyfilePath@GostCrypt@@PAX@std@@@std@@@std@@@std@@YA$$QAU?$_Wrap_alloc@V?$allocator@U?$_List_node@USecurityTokenKeyfilePath@GostCrypt@@PAX@std@@@std@@@0@AAU10@@Z ENDP ; std::move<std::_Wrap_alloc<std::allocator<std::_List_node<GostCrypt::SecurityTokenKeyfilePath,void *> > > &>
_TEXT	ENDS
; Function compile flags: /Ogtp
; File c:\program files (x86)\microsoft visual studio 14.0\vc\include\list
;	COMDAT ??$_Buynode@ABUSecurityTokenKeyfilePath@GostCrypt@@@?$_List_buy@USecurityTokenKeyfilePath@GostCrypt@@V?$allocator@USecurityTokenKeyfilePath@GostCrypt@@@std@@@std@@QAEPAU?$_List_node@USecurityTokenKeyfilePath@GostCrypt@@PAX@1@PAU21@0ABUSecurityTokenKeyfilePath@GostCrypt@@@Z
_TEXT	SEGMENT
$T2 = -20						; size = 4
__$EHRec$ = -16						; size = 16
$T3 = 8							; size = 4
__Next$ = 8						; size = 4
__Pnode$ = 12						; size = 4
__Prev$ = 12						; size = 4
_<_Val_0>$ = 16						; size = 4
??$_Buynode@ABUSecurityTokenKeyfilePath@GostCrypt@@@?$_List_buy@USecurityTokenKeyfilePath@GostCrypt@@V?$allocator@USecurityTokenKeyfilePath@GostCrypt@@@std@@@std@@QAEPAU?$_List_node@USecurityTokenKeyfilePath@GostCrypt@@PAX@1@PAU21@0ABUSecurityTokenKeyfilePath@GostCrypt@@@Z PROC ; std::_List_buy<GostCrypt::SecurityTokenKeyfilePath,std::allocator<GostCrypt::SecurityTokenKeyfilePath> >::_Buynode<GostCrypt::SecurityTokenKeyfilePath const &>, COMDAT
; _this$ = ecx

; 831  : 		{	// allocate a node and set links and value

  00000	55		 push	 ebp
  00001	8b ec		 mov	 ebp, esp
  00003	6a ff		 push	 -1
  00005	68 00 00 00 00	 push	 __ehhandler$??$_Buynode@ABUSecurityTokenKeyfilePath@GostCrypt@@@?$_List_buy@USecurityTokenKeyfilePath@GostCrypt@@V?$allocator@USecurityTokenKeyfilePath@GostCrypt@@@std@@@std@@QAEPAU?$_List_node@USecurityTokenKeyfilePath@GostCrypt@@PAX@1@PAU21@0ABUSecurityTokenKeyfilePath@GostCrypt@@@Z
  0000a	64 a1 00 00 00
	00		 mov	 eax, DWORD PTR fs:0
  00010	50		 push	 eax
  00011	83 ec 08	 sub	 esp, 8
  00014	53		 push	 ebx
  00015	56		 push	 esi
  00016	57		 push	 edi
  00017	a1 00 00 00 00	 mov	 eax, DWORD PTR ___security_cookie
  0001c	33 c5		 xor	 eax, ebp
  0001e	50		 push	 eax
  0001f	8d 45 f4	 lea	 eax, DWORD PTR __$EHRec$[ebp+4]
  00022	64 a3 00 00 00
	00		 mov	 DWORD PTR fs:0, eax
  00028	89 65 f0	 mov	 DWORD PTR __$EHRec$[ebp], esp

; 832  : 		_Nodeptr _Pnode = this->_Buynode0(_Next, _Prev);

  0002b	ff 75 0c	 push	 DWORD PTR __Prev$[ebp]
  0002e	ff 75 08	 push	 DWORD PTR __Next$[ebp]
  00031	e8 00 00 00 00	 call	 ?_Buynode0@?$_List_alloc@U?$_List_base_types@USecurityTokenKeyfilePath@GostCrypt@@V?$allocator@USecurityTokenKeyfilePath@GostCrypt@@@std@@@std@@@std@@QAEPAU?$_List_node@USecurityTokenKeyfilePath@GostCrypt@@PAX@2@PAU32@0@Z ; std::_List_alloc<std::_List_base_types<GostCrypt::SecurityTokenKeyfilePath,std::allocator<GostCrypt::SecurityTokenKeyfilePath> > >::_Buynode0
  00036	8b f0		 mov	 esi, eax

; 833  : 
; 834  : 		_TRY_BEGIN

  00038	c7 45 fc 00 00
	00 00		 mov	 DWORD PTR __$EHRec$[ebp+12], 0
  0003f	89 75 0c	 mov	 DWORD PTR __Pnode$[ebp], esi

; 835  : 		this->_Getal().construct(

  00042	8d 4e 08	 lea	 ecx, DWORD PTR [esi+8]
  00045	89 4d 08	 mov	 DWORD PTR $T3[ebp], ecx
  00048	89 4d ec	 mov	 DWORD PTR $T2[ebp], ecx
  0004b	c6 45 fc 01	 mov	 BYTE PTR __$EHRec$[ebp+12], 1
  0004f	85 c9		 test	 ecx, ecx
  00051	74 2a		 je	 SHORT $LN36@Buynode
  00053	c7 41 14 07 00
	00 00		 mov	 DWORD PTR [ecx+20], 7
  0005a	c7 41 10 00 00
	00 00		 mov	 DWORD PTR [ecx+16], 0
  00061	83 79 14 08	 cmp	 DWORD PTR [ecx+20], 8
  00065	72 04		 jb	 SHORT $LN167@Buynode
  00067	8b 01		 mov	 eax, DWORD PTR [ecx]
  00069	eb 02		 jmp	 SHORT $LN168@Buynode
$LN167@Buynode:
  0006b	8b c1		 mov	 eax, ecx
$LN168@Buynode:
  0006d	33 d2		 xor	 edx, edx
  0006f	6a ff		 push	 -1
  00071	52		 push	 edx
  00072	ff 75 10	 push	 DWORD PTR _<_Val_0>$[ebp]
  00075	66 89 10	 mov	 WORD PTR [eax], dx
  00078	e8 00 00 00 00	 call	 ?assign@?$basic_string@_WU?$char_traits@_W@std@@V?$allocator@_W@2@@std@@QAEAAV12@ABV12@II@Z ; std::basic_string<wchar_t,std::char_traits<wchar_t>,std::allocator<wchar_t> >::assign
$LN36@Buynode:

; 841  : 		_CATCH_END
; 842  : 
; 843  : 		return (_Pnode);

  0007d	8b c6		 mov	 eax, esi

; 844  : 		}

  0007f	8b 4d f4	 mov	 ecx, DWORD PTR __$EHRec$[ebp+4]
  00082	64 89 0d 00 00
	00 00		 mov	 DWORD PTR fs:0, ecx
  00089	59		 pop	 ecx
  0008a	5f		 pop	 edi
  0008b	5e		 pop	 esi
  0008c	5b		 pop	 ebx
  0008d	8b e5		 mov	 esp, ebp
  0008f	5d		 pop	 ebp
  00090	c2 0c 00	 ret	 12			; 0000000cH
__catch$??$_Buynode@ABUSecurityTokenKeyfilePath@GostCrypt@@@?$_List_buy@USecurityTokenKeyfilePath@GostCrypt@@V?$allocator@USecurityTokenKeyfilePath@GostCrypt@@@std@@@std@@QAEPAU?$_List_node@USecurityTokenKeyfilePath@GostCrypt@@PAX@1@PAU21@0ABUSecurityTokenKeyfilePath@GostCrypt@@@Z$0:

; 836  : 			_STD addressof(this->_Myval(_Pnode)),
; 837  : 				_STD forward<_Valty>(_Val)...);
; 838  : 		_CATCH_ALL
; 839  : 		this->_Getal().deallocate(_Pnode, 1);

  00093	ff 75 0c	 push	 DWORD PTR __Pnode$[ebp]
  00096	e8 00 00 00 00	 call	 ??3@YAXPAX@Z		; operator delete
  0009b	83 c4 04	 add	 esp, 4

; 840  : 		_RERAISE;

  0009e	6a 00		 push	 0
  000a0	6a 00		 push	 0
  000a2	e8 00 00 00 00	 call	 __CxxThrowException@8
$LN197@Buynode:
$LN196@Buynode:
  000a7	cc		 int	 3
_TEXT	ENDS
;	COMDAT text$x
text$x	SEGMENT
__unwindfunclet$??$_Buynode@ABUSecurityTokenKeyfilePath@GostCrypt@@@?$_List_buy@USecurityTokenKeyfilePath@GostCrypt@@V?$allocator@USecurityTokenKeyfilePath@GostCrypt@@@std@@@std@@QAEPAU?$_List_node@USecurityTokenKeyfilePath@GostCrypt@@PAX@1@PAU21@0ABUSecurityTokenKeyfilePath@GostCrypt@@@Z$8:
  00000	8b 45 08	 mov	 eax, DWORD PTR $T3[ebp]
  00003	50		 push	 eax
  00004	8b 45 ec	 mov	 eax, DWORD PTR $T2[ebp]
  00007	50		 push	 eax
  00008	e8 00 00 00 00	 call	 ??3@YAXPAX0@Z		; operator delete
  0000d	83 c4 08	 add	 esp, 8
  00010	c3		 ret	 0
__ehhandler$??$_Buynode@ABUSecurityTokenKeyfilePath@GostCrypt@@@?$_List_buy@USecurityTokenKeyfilePath@GostCrypt@@V?$allocator@USecurityTokenKeyfilePath@GostCrypt@@@std@@@std@@QAEPAU?$_List_node@USecurityTokenKeyfilePath@GostCrypt@@PAX@1@PAU21@0ABUSecurityTokenKeyfilePath@GostCrypt@@@Z:
  00011	8b 54 24 08	 mov	 edx, DWORD PTR [esp+8]
  00015	8d 42 0c	 lea	 eax, DWORD PTR [edx+12]
  00018	8b 4a e8	 mov	 ecx, DWORD PTR [edx-24]
  0001b	33 c8		 xor	 ecx, eax
  0001d	e8 00 00 00 00	 call	 @__security_check_cookie@4
  00022	b8 00 00 00 00	 mov	 eax, OFFSET __ehfuncinfo$??$_Buynode@ABUSecurityTokenKeyfilePath@GostCrypt@@@?$_List_buy@USecurityTokenKeyfilePath@GostCrypt@@V?$allocator@USecurityTokenKeyfilePath@GostCrypt@@@std@@@std@@QAEPAU?$_List_node@USecurityTokenKeyfilePath@GostCrypt@@PAX@1@PAU21@0ABUSecurityTokenKeyfilePath@GostCrypt@@@Z
  00027	e9 00 00 00 00	 jmp	 ___CxxFrameHandler3
text$x	ENDS
??$_Buynode@ABUSecurityTokenKeyfilePath@GostCrypt@@@?$_List_buy@USecurityTokenKeyfilePath@GostCrypt@@V?$allocator@USecurityTokenKeyfilePath@GostCrypt@@@std@@@std@@QAEPAU?$_List_node@USecurityTokenKeyfilePath@GostCrypt@@PAX@1@PAU21@0ABUSecurityTokenKeyfilePath@GostCrypt@@@Z ENDP ; std::_List_buy<GostCrypt::SecurityTokenKeyfilePath,std::allocator<GostCrypt::SecurityTokenKeyfilePath> >::_Buynode<GostCrypt::SecurityTokenKeyfilePath const &>
; Function compile flags: /Ogtp
; File c:\program files (x86)\microsoft visual studio 14.0\vc\include\type_traits
;	COMDAT ??$forward@ABUSecurityTokenKeyfilePath@GostCrypt@@@std@@YAABUSecurityTokenKeyfilePath@GostCrypt@@ABU12@@Z
_TEXT	SEGMENT
__Arg$ = 8						; size = 4
??$forward@ABUSecurityTokenKeyfilePath@GostCrypt@@@std@@YAABUSecurityTokenKeyfilePath@GostCrypt@@ABU12@@Z PROC ; std::forward<GostCrypt::SecurityTokenKeyfilePath const &>, COMDAT

; 1275 : 	{	// forward an lvalue as either an lvalue or an rvalue

  00000	55		 push	 ebp
  00001	8b ec		 mov	 ebp, esp

; 1276 : 	return (static_cast<_Ty&&>(_Arg));

  00003	8b 45 08	 mov	 eax, DWORD PTR __Arg$[ebp]

; 1277 : 	}

  00006	5d		 pop	 ebp
  00007	c3		 ret	 0
??$forward@ABUSecurityTokenKeyfilePath@GostCrypt@@@std@@YAABUSecurityTokenKeyfilePath@GostCrypt@@ABU12@@Z ENDP ; std::forward<GostCrypt::SecurityTokenKeyfilePath const &>
_TEXT	ENDS
; Function compile flags: /Ogtp
; File c:\program files (x86)\microsoft visual studio 14.0\vc\include\list
;	COMDAT ??$_Insert@ABUSecurityTokenKeyfilePath@GostCrypt@@@?$list@USecurityTokenKeyfilePath@GostCrypt@@V?$allocator@USecurityTokenKeyfilePath@GostCrypt@@@std@@@std@@QAEXV?$_List_unchecked_const_iterator@V?$_List_val@U?$_List_simple_types@USecurityTokenKeyfilePath@GostCrypt@@@std@@@std@@U_Iterator_base0@2@@1@ABUSecurityTokenKeyfilePath@GostCrypt@@@Z
_TEXT	SEGMENT
__Where$ = 8						; size = 4
_<_Val_0>$ = 12						; size = 4
??$_Insert@ABUSecurityTokenKeyfilePath@GostCrypt@@@?$list@USecurityTokenKeyfilePath@GostCrypt@@V?$allocator@USecurityTokenKeyfilePath@GostCrypt@@@std@@@std@@QAEXV?$_List_unchecked_const_iterator@V?$_List_val@U?$_List_simple_types@USecurityTokenKeyfilePath@GostCrypt@@@std@@@std@@U_Iterator_base0@2@@1@ABUSecurityTokenKeyfilePath@GostCrypt@@@Z PROC ; std::list<GostCrypt::SecurityTokenKeyfilePath,std::allocator<GostCrypt::SecurityTokenKeyfilePath> >::_Insert<GostCrypt::SecurityTokenKeyfilePath const &>, COMDAT
; _this$ = ecx

; 1061 : 		{	// insert element at _Where

  00000	55		 push	 ebp
  00001	8b ec		 mov	 ebp, esp
  00003	56		 push	 esi

; 1062 : 		_Nodeptr _Pnode = _Where._Mynode();
; 1063 : 		_Nodeptr _Newnode =
; 1064 : 			this->_Buynode(_Pnode, this->_Prevnode(_Pnode),

  00004	8b 75 08	 mov	 esi, DWORD PTR __Where$[ebp]
  00007	57		 push	 edi
  00008	ff 75 0c	 push	 DWORD PTR _<_Val_0>$[ebp]
  0000b	8b f9		 mov	 edi, ecx
  0000d	ff 76 04	 push	 DWORD PTR [esi+4]
  00010	56		 push	 esi
  00011	e8 00 00 00 00	 call	 ??$_Buynode@ABUSecurityTokenKeyfilePath@GostCrypt@@@?$_List_buy@USecurityTokenKeyfilePath@GostCrypt@@V?$allocator@USecurityTokenKeyfilePath@GostCrypt@@@std@@@std@@QAEPAU?$_List_node@USecurityTokenKeyfilePath@GostCrypt@@PAX@1@PAU21@0ABUSecurityTokenKeyfilePath@GostCrypt@@@Z ; std::_List_buy<GostCrypt::SecurityTokenKeyfilePath,std::allocator<GostCrypt::SecurityTokenKeyfilePath> >::_Buynode<GostCrypt::SecurityTokenKeyfilePath const &>
  00016	8b d0		 mov	 edx, eax

; 1065 : 				_STD forward<_Valty>(_Val)...);
; 1066 : 		_Incsize(1);

  00018	b9 fe ff ff 07	 mov	 ecx, 134217726		; 07fffffeH
  0001d	8b 47 04	 mov	 eax, DWORD PTR [edi+4]
  00020	2b c8		 sub	 ecx, eax
  00022	83 f9 01	 cmp	 ecx, 1
  00025	72 12		 jb	 SHORT $LN65@Insert
  00027	40		 inc	 eax
  00028	89 47 04	 mov	 DWORD PTR [edi+4], eax

; 1067 : 		this->_Prevnode(_Pnode) = _Newnode;

  0002b	89 56 04	 mov	 DWORD PTR [esi+4], edx

; 1068 : 		this->_Nextnode(this->_Prevnode(_Newnode)) = _Newnode;

  0002e	8b 42 04	 mov	 eax, DWORD PTR [edx+4]
  00031	5f		 pop	 edi
  00032	5e		 pop	 esi
  00033	89 10		 mov	 DWORD PTR [eax], edx

; 1069 : 		}

  00035	5d		 pop	 ebp
  00036	c2 08 00	 ret	 8
$LN65@Insert:

; 1065 : 				_STD forward<_Valty>(_Val)...);
; 1066 : 		_Incsize(1);

  00039	68 00 00 00 00	 push	 OFFSET ??_C@_0BB@MOGOBHAF@list?$DMT?$DO?5too?5long?$AA@
  0003e	e8 00 00 00 00	 call	 ?_Xlength_error@std@@YAXPBD@Z ; std::_Xlength_error
$LN67@Insert:
$LN64@Insert:
  00043	cc		 int	 3
??$_Insert@ABUSecurityTokenKeyfilePath@GostCrypt@@@?$list@USecurityTokenKeyfilePath@GostCrypt@@V?$allocator@USecurityTokenKeyfilePath@GostCrypt@@@std@@@std@@QAEXV?$_List_unchecked_const_iterator@V?$_List_val@U?$_List_simple_types@USecurityTokenKeyfilePath@GostCrypt@@@std@@@std@@U_Iterator_base0@2@@1@ABUSecurityTokenKeyfilePath@GostCrypt@@@Z ENDP ; std::list<GostCrypt::SecurityTokenKeyfilePath,std::allocator<GostCrypt::SecurityTokenKeyfilePath> >::_Insert<GostCrypt::SecurityTokenKeyfilePath const &>
_TEXT	ENDS
; Function compile flags: /Ogtp
; File c:\program files (x86)\microsoft visual studio 14.0\vc\include\xutility
;	COMDAT ??$?0U?$_Wrap_alloc@V?$allocator@U?$_List_node@USecurityTokenKeyfilePath@GostCrypt@@PAX@std@@@std@@@std@@$$V@?$_Compressed_pair@U?$_Wrap_alloc@V?$allocator@U?$_List_node@USecurityTokenKeyfilePath@GostCrypt@@PAX@std@@@std@@@std@@V?$_List_val@U?$_List_simple_types@USecurityTokenKeyfilePath@GostCrypt@@@std@@@2@$00@std@@QAE@U_One_then_variadic_args_t@1@$$QAU?$_Wrap_alloc@V?$allocator@U?$_List_node@USecurityTokenKeyfilePath@GostCrypt@@PAX@std@@@std@@@1@@Z
_TEXT	SEGMENT
___formal$ = 8						; size = 1
__Val1$ = 12						; size = 4
??$?0U?$_Wrap_alloc@V?$allocator@U?$_List_node@USecurityTokenKeyfilePath@GostCrypt@@PAX@std@@@std@@@std@@$$V@?$_Compressed_pair@U?$_Wrap_alloc@V?$allocator@U?$_List_node@USecurityTokenKeyfilePath@GostCrypt@@PAX@std@@@std@@@std@@V?$_List_val@U?$_List_simple_types@USecurityTokenKeyfilePath@GostCrypt@@@std@@@2@$00@std@@QAE@U_One_then_variadic_args_t@1@$$QAU?$_Wrap_alloc@V?$allocator@U?$_List_node@USecurityTokenKeyfilePath@GostCrypt@@PAX@std@@@std@@@1@@Z PROC ; std::_Compressed_pair<std::_Wrap_alloc<std::allocator<std::_List_node<GostCrypt::SecurityTokenKeyfilePath,void *> > >,std::_List_val<std::_List_simple_types<GostCrypt::SecurityTokenKeyfilePath> >,1>::_Compressed_pair<std::_Wrap_alloc<std::allocator<std::_List_node<GostCrypt::SecurityTokenKeyfilePath,void *> > >,std::_List_val<std::_List_simple_types<GostCrypt::SecurityTokenKeyfilePath> >,1><std::_Wrap_alloc<std::allocator<std::_List_node<GostCrypt::SecurityTokenKeyfilePath,void *> > > >, COMDAT
; _this$ = ecx

; 288  : 			_Myval2(_STD forward<_Other2>(_Val2)...)

  00000	c7 01 00 00 00
	00		 mov	 DWORD PTR [ecx], 0

; 290  : 		}

  00006	8b c1		 mov	 eax, ecx
  00008	c7 41 04 00 00
	00 00		 mov	 DWORD PTR [ecx+4], 0
  0000f	c2 08 00	 ret	 8
??$?0U?$_Wrap_alloc@V?$allocator@U?$_List_node@USecurityTokenKeyfilePath@GostCrypt@@PAX@std@@@std@@@std@@$$V@?$_Compressed_pair@U?$_Wrap_alloc@V?$allocator@U?$_List_node@USecurityTokenKeyfilePath@GostCrypt@@PAX@std@@@std@@@std@@V?$_List_val@U?$_List_simple_types@USecurityTokenKeyfilePath@GostCrypt@@@std@@@2@$00@std@@QAE@U_One_then_variadic_args_t@1@$$QAU?$_Wrap_alloc@V?$allocator@U?$_List_node@USecurityTokenKeyfilePath@GostCrypt@@PAX@std@@@std@@@1@@Z ENDP ; std::_Compressed_pair<std::_Wrap_alloc<std::allocator<std::_List_node<GostCrypt::SecurityTokenKeyfilePath,void *> > >,std::_List_val<std::_List_simple_types<GostCrypt::SecurityTokenKeyfilePath> >,1>::_Compressed_pair<std::_Wrap_alloc<std::allocator<std::_List_node<GostCrypt::SecurityTokenKeyfilePath,void *> > >,std::_List_val<std::_List_simple_types<GostCrypt::SecurityTokenKeyfilePath> >,1><std::_Wrap_alloc<std::allocator<std::_List_node<GostCrypt::SecurityTokenKeyfilePath,void *> > > >
_TEXT	ENDS
; Function compile flags: /Ogtp
; File c:\program files (x86)\microsoft visual studio 14.0\vc\include\type_traits
;	COMDAT ??$forward@V?$allocator@U?$_List_node@USecurityTokenKeyfilePath@GostCrypt@@PAX@std@@@std@@@std@@YA$$QAV?$allocator@U?$_List_node@USecurityTokenKeyfilePath@GostCrypt@@PAX@std@@@0@AAV10@@Z
_TEXT	SEGMENT
__Arg$ = 8						; size = 4
??$forward@V?$allocator@U?$_List_node@USecurityTokenKeyfilePath@GostCrypt@@PAX@std@@@std@@@std@@YA$$QAV?$allocator@U?$_List_node@USecurityTokenKeyfilePath@GostCrypt@@PAX@std@@@0@AAV10@@Z PROC ; std::forward<std::allocator<std::_List_node<GostCrypt::SecurityTokenKeyfilePath,void *> > >, COMDAT

; 1275 : 	{	// forward an lvalue as either an lvalue or an rvalue

  00000	55		 push	 ebp
  00001	8b ec		 mov	 ebp, esp

; 1276 : 	return (static_cast<_Ty&&>(_Arg));

  00003	8b 45 08	 mov	 eax, DWORD PTR __Arg$[ebp]

; 1277 : 	}

  00006	5d		 pop	 ebp
  00007	c3		 ret	 0
??$forward@V?$allocator@U?$_List_node@USecurityTokenKeyfilePath@GostCrypt@@PAX@std@@@std@@@std@@YA$$QAV?$allocator@U?$_List_node@USecurityTokenKeyfilePath@GostCrypt@@PAX@std@@@0@AAV10@@Z ENDP ; std::forward<std::allocator<std::_List_node<GostCrypt::SecurityTokenKeyfilePath,void *> > >
_TEXT	ENDS
; Function compile flags: /Ogtp
; File c:\program files (x86)\microsoft visual studio 14.0\vc\include\list
;	COMDAT ??$_Insert_range@V?$_List_const_iterator@V?$_List_val@U?$_List_simple_types@USecurityTokenKeyfilePath@GostCrypt@@@std@@@std@@@std@@@?$list@USecurityTokenKeyfilePath@GostCrypt@@V?$allocator@USecurityTokenKeyfilePath@GostCrypt@@@std@@@std@@QAEXV?$_List_unchecked_const_iterator@V?$_List_val@U?$_List_simple_types@USecurityTokenKeyfilePath@GostCrypt@@@std@@@std@@U_Iterator_base0@2@@1@V?$_List_const_iterator@V?$_List_val@U?$_List_simple_types@USecurityTokenKeyfilePath@GostCrypt@@@std@@@std@@@1@1Uforward_iterator_tag@1@@Z
_TEXT	SEGMENT
_this$ = -24						; size = 4
__Next$ = -20						; size = 4
__$EHRec$ = -16						; size = 16
__Where$ = 8						; size = 4
__First$ = 12						; size = 4
__Last$ = 16						; size = 4
___formal$ = 20						; size = 1
??$_Insert_range@V?$_List_const_iterator@V?$_List_val@U?$_List_simple_types@USecurityTokenKeyfilePath@GostCrypt@@@std@@@std@@@std@@@?$list@USecurityTokenKeyfilePath@GostCrypt@@V?$allocator@USecurityTokenKeyfilePath@GostCrypt@@@std@@@std@@QAEXV?$_List_unchecked_const_iterator@V?$_List_val@U?$_List_simple_types@USecurityTokenKeyfilePath@GostCrypt@@@std@@@std@@U_Iterator_base0@2@@1@V?$_List_const_iterator@V?$_List_val@U?$_List_simple_types@USecurityTokenKeyfilePath@GostCrypt@@@std@@@std@@@1@1Uforward_iterator_tag@1@@Z PROC ; std::list<GostCrypt::SecurityTokenKeyfilePath,std::allocator<GostCrypt::SecurityTokenKeyfilePath> >::_Insert_range<std::_List_const_iterator<std::_List_val<std::_List_simple_types<GostCrypt::SecurityTokenKeyfilePath> > > >, COMDAT
; _this$ = ecx

; 1426 : 		{	// insert [_First, _Last) at _Where, forward iterators

  00000	55		 push	 ebp
  00001	8b ec		 mov	 ebp, esp
  00003	6a ff		 push	 -1
  00005	68 00 00 00 00	 push	 __ehhandler$??$_Insert_range@V?$_List_const_iterator@V?$_List_val@U?$_List_simple_types@USecurityTokenKeyfilePath@GostCrypt@@@std@@@std@@@std@@@?$list@USecurityTokenKeyfilePath@GostCrypt@@V?$allocator@USecurityTokenKeyfilePath@GostCrypt@@@std@@@std@@QAEXV?$_List_unchecked_const_iterator@V?$_List_val@U?$_List_simple_types@USecurityTokenKeyfilePath@GostCrypt@@@std@@@std@@U_Iterator_base0@2@@1@V?$_List_const_iterator@V?$_List_val@U?$_List_simple_types@USecurityTokenKeyfilePath@GostCrypt@@@std@@@std@@@1@1Uforward_iterator_tag@1@@Z
  0000a	64 a1 00 00 00
	00		 mov	 eax, DWORD PTR fs:0
  00010	50		 push	 eax
  00011	83 ec 0c	 sub	 esp, 12			; 0000000cH
  00014	53		 push	 ebx
  00015	56		 push	 esi
  00016	57		 push	 edi
  00017	a1 00 00 00 00	 mov	 eax, DWORD PTR ___security_cookie
  0001c	33 c5		 xor	 eax, ebp
  0001e	50		 push	 eax
  0001f	8d 45 f4	 lea	 eax, DWORD PTR __$EHRec$[ebp+4]
  00022	64 a3 00 00 00
	00		 mov	 DWORD PTR fs:0, eax
  00028	89 65 f0	 mov	 DWORD PTR __$EHRec$[ebp], esp
  0002b	8b f9		 mov	 edi, ecx
  0002d	89 7d e8	 mov	 DWORD PTR _this$[ebp], edi

; 1427 : 		_DEBUG_RANGE(_First, _Last);
; 1428 : 		_Iter _Next = _First;

  00030	8b 45 0c	 mov	 eax, DWORD PTR __First$[ebp]
  00033	89 45 ec	 mov	 DWORD PTR __Next$[ebp], eax

; 1429 : 
; 1430 : 		_TRY_BEGIN

  00036	c7 45 fc 00 00
	00 00		 mov	 DWORD PTR __$EHRec$[ebp+12], 0
  0003d	0f 1f 00	 npad	 3
$LL4@Insert_ran:

; 1431 : 		for (; _First != _Last; ++_First)

  00040	3b 45 10	 cmp	 eax, DWORD PTR __Last$[ebp]
  00043	74 6b		 je	 SHORT $LN3@Insert_ran

; 1432 : 			_Insert(_Where, *_First);

  00045	8b 75 08	 mov	 esi, DWORD PTR __Where$[ebp]
  00048	83 c0 08	 add	 eax, 8
  0004b	50		 push	 eax
  0004c	8b cf		 mov	 ecx, edi
  0004e	ff 76 04	 push	 DWORD PTR [esi+4]
  00051	56		 push	 esi
  00052	e8 00 00 00 00	 call	 ??$_Buynode@ABUSecurityTokenKeyfilePath@GostCrypt@@@?$_List_buy@USecurityTokenKeyfilePath@GostCrypt@@V?$allocator@USecurityTokenKeyfilePath@GostCrypt@@@std@@@std@@QAEPAU?$_List_node@USecurityTokenKeyfilePath@GostCrypt@@PAX@1@PAU21@0ABUSecurityTokenKeyfilePath@GostCrypt@@@Z ; std::_List_buy<GostCrypt::SecurityTokenKeyfilePath,std::allocator<GostCrypt::SecurityTokenKeyfilePath> >::_Buynode<GostCrypt::SecurityTokenKeyfilePath const &>
  00057	8b d0		 mov	 edx, eax
  00059	b9 fe ff ff 07	 mov	 ecx, 134217726		; 07fffffeH
  0005e	8b 47 04	 mov	 eax, DWORD PTR [edi+4]
  00061	2b c8		 sub	 ecx, eax
  00063	83 f9 01	 cmp	 ecx, 1
  00066	73 0a		 jae	 SHORT $LN38@Insert_ran
  00068	68 00 00 00 00	 push	 OFFSET ??_C@_0BB@MOGOBHAF@list?$DMT?$DO?5too?5long?$AA@
  0006d	e8 00 00 00 00	 call	 ?_Xlength_error@std@@YAXPBD@Z ; std::_Xlength_error
$LN111@Insert_ran:
$LN38@Insert_ran:
  00072	40		 inc	 eax
  00073	89 47 04	 mov	 DWORD PTR [edi+4], eax
  00076	89 56 04	 mov	 DWORD PTR [esi+4], edx
  00079	8b 42 04	 mov	 eax, DWORD PTR [edx+4]
  0007c	89 10		 mov	 DWORD PTR [eax], edx
  0007e	8b 45 0c	 mov	 eax, DWORD PTR __First$[ebp]
  00081	8b 00		 mov	 eax, DWORD PTR [eax]
  00083	89 45 0c	 mov	 DWORD PTR __First$[ebp], eax
  00086	eb b8		 jmp	 SHORT $LL4@Insert_ran
__catch$??$_Insert_range@V?$_List_const_iterator@V?$_List_val@U?$_List_simple_types@USecurityTokenKeyfilePath@GostCrypt@@@std@@@std@@@std@@@?$list@USecurityTokenKeyfilePath@GostCrypt@@V?$allocator@USecurityTokenKeyfilePath@GostCrypt@@@std@@@std@@QAEXV?$_List_unchecked_const_iterator@V?$_List_val@U?$_List_simple_types@USecurityTokenKeyfilePath@GostCrypt@@@std@@@std@@U_Iterator_base0@2@@1@V?$_List_const_iterator@V?$_List_val@U?$_List_simple_types@USecurityTokenKeyfilePath@GostCrypt@@@std@@@std@@@1@1Uforward_iterator_tag@1@@Z$0:

; 1433 : 		_CATCH_ALL
; 1434 : 		for (; _Next != _First; ++_Next)

  00088	8b 75 ec	 mov	 esi, DWORD PTR __Next$[ebp]
  0008b	3b 75 0c	 cmp	 esi, DWORD PTR __First$[ebp]
  0008e	74 17		 je	 SHORT $LN6@Insert_ran
  00090	8b 7d e8	 mov	 edi, DWORD PTR _this$[ebp]
$LL7@Insert_ran:

; 1435 : 			{	// undo inserts
; 1436 : 			_Unchecked_const_iterator _Before = _Where;
; 1437 : 			_Unchecked_erase(--_Before);

  00093	8b 45 08	 mov	 eax, DWORD PTR __Where$[ebp]
  00096	8b cf		 mov	 ecx, edi
  00098	ff 70 04	 push	 DWORD PTR [eax+4]
  0009b	e8 00 00 00 00	 call	 ?_Unchecked_erase@?$list@USecurityTokenKeyfilePath@GostCrypt@@V?$allocator@USecurityTokenKeyfilePath@GostCrypt@@@std@@@std@@QAEXV?$_List_unchecked_const_iterator@V?$_List_val@U?$_List_simple_types@USecurityTokenKeyfilePath@GostCrypt@@@std@@@std@@U_Iterator_base0@2@@2@@Z ; std::list<GostCrypt::SecurityTokenKeyfilePath,std::allocator<GostCrypt::SecurityTokenKeyfilePath> >::_Unchecked_erase
  000a0	8b 36		 mov	 esi, DWORD PTR [esi]
  000a2	3b 75 0c	 cmp	 esi, DWORD PTR __First$[ebp]
  000a5	75 ec		 jne	 SHORT $LL7@Insert_ran
$LN6@Insert_ran:

; 1438 : 			}
; 1439 : 		_RERAISE;

  000a7	6a 00		 push	 0
  000a9	6a 00		 push	 0
  000ab	e8 00 00 00 00	 call	 __CxxThrowException@8
$LN112@Insert_ran:
$LN3@Insert_ran:

; 1440 : 		_CATCH_END
; 1441 : 		}

  000b0	8b 4d f4	 mov	 ecx, DWORD PTR __$EHRec$[ebp+4]
  000b3	64 89 0d 00 00
	00 00		 mov	 DWORD PTR fs:0, ecx
  000ba	59		 pop	 ecx
  000bb	5f		 pop	 edi
  000bc	5e		 pop	 esi
  000bd	5b		 pop	 ebx
  000be	8b e5		 mov	 esp, ebp
  000c0	5d		 pop	 ebp
  000c1	c2 10 00	 ret	 16			; 00000010H
$LN110@Insert_ran:
_TEXT	ENDS
;	COMDAT text$x
text$x	SEGMENT
__ehhandler$??$_Insert_range@V?$_List_const_iterator@V?$_List_val@U?$_List_simple_types@USecurityTokenKeyfilePath@GostCrypt@@@std@@@std@@@std@@@?$list@USecurityTokenKeyfilePath@GostCrypt@@V?$allocator@USecurityTokenKeyfilePath@GostCrypt@@@std@@@std@@QAEXV?$_List_unchecked_const_iterator@V?$_List_val@U?$_List_simple_types@USecurityTokenKeyfilePath@GostCrypt@@@std@@@std@@U_Iterator_base0@2@@1@V?$_List_const_iterator@V?$_List_val@U?$_List_simple_types@USecurityTokenKeyfilePath@GostCrypt@@@std@@@std@@@1@1Uforward_iterator_tag@1@@Z:
  00000	8b 54 24 08	 mov	 edx, DWORD PTR [esp+8]
  00004	8d 42 0c	 lea	 eax, DWORD PTR [edx+12]
  00007	8b 4a e4	 mov	 ecx, DWORD PTR [edx-28]
  0000a	33 c8		 xor	 ecx, eax
  0000c	e8 00 00 00 00	 call	 @__security_check_cookie@4
  00011	b8 00 00 00 00	 mov	 eax, OFFSET __ehfuncinfo$??$_Insert_range@V?$_List_const_iterator@V?$_List_val@U?$_List_simple_types@USecurityTokenKeyfilePath@GostCrypt@@@std@@@std@@@std@@@?$list@USecurityTokenKeyfilePath@GostCrypt@@V?$allocator@USecurityTokenKeyfilePath@GostCrypt@@@std@@@std@@QAEXV?$_List_unchecked_const_iterator@V?$_List_val@U?$_List_simple_types@USecurityTokenKeyfilePath@GostCrypt@@@std@@@std@@U_Iterator_base0@2@@1@V?$_List_const_iterator@V?$_List_val@U?$_List_simple_types@USecurityTokenKeyfilePath@GostCrypt@@@std@@@std@@@1@1Uforward_iterator_tag@1@@Z
  00016	e9 00 00 00 00	 jmp	 ___CxxFrameHandler3
text$x	ENDS
??$_Insert_range@V?$_List_const_iterator@V?$_List_val@U?$_List_simple_types@USecurityTokenKeyfilePath@GostCrypt@@@std@@@std@@@std@@@?$list@USecurityTokenKeyfilePath@GostCrypt@@V?$allocator@USecurityTokenKeyfilePath@GostCrypt@@@std@@@std@@QAEXV?$_List_unchecked_const_iterator@V?$_List_val@U?$_List_simple_types@USecurityTokenKeyfilePath@GostCrypt@@@std@@@std@@U_Iterator_base0@2@@1@V?$_List_const_iterator@V?$_List_val@U?$_List_simple_types@USecurityTokenKeyfilePath@GostCrypt@@@std@@@std@@@1@1Uforward_iterator_tag@1@@Z ENDP ; std::list<GostCrypt::SecurityTokenKeyfilePath,std::allocator<GostCrypt::SecurityTokenKeyfilePath> >::_Insert_range<std::_List_const_iterator<std::_List_val<std::_List_simple_types<GostCrypt::SecurityTokenKeyfilePath> > > >
; Function compile flags: /Ogtp
; File c:\program files (x86)\microsoft visual studio 14.0\vc\include\list
;	COMDAT ??$?0U?$_Wrap_alloc@V?$allocator@U?$_List_node@USecurityTokenKeyfilePath@GostCrypt@@PAX@std@@@std@@@std@@X@?$_List_alloc@U?$_List_base_types@USecurityTokenKeyfilePath@GostCrypt@@V?$allocator@USecurityTokenKeyfilePath@GostCrypt@@@std@@@std@@@std@@QAE@$$QAU?$_Wrap_alloc@V?$allocator@U?$_List_node@USecurityTokenKeyfilePath@GostCrypt@@PAX@std@@@std@@@1@@Z
_TEXT	SEGMENT
__Al$ = 8						; size = 4
??$?0U?$_Wrap_alloc@V?$allocator@U?$_List_node@USecurityTokenKeyfilePath@GostCrypt@@PAX@std@@@std@@@std@@X@?$_List_alloc@U?$_List_base_types@USecurityTokenKeyfilePath@GostCrypt@@V?$allocator@USecurityTokenKeyfilePath@GostCrypt@@@std@@@std@@@std@@QAE@$$QAU?$_Wrap_alloc@V?$allocator@U?$_List_node@USecurityTokenKeyfilePath@GostCrypt@@PAX@std@@@std@@@1@@Z PROC ; std::_List_alloc<std::_List_base_types<GostCrypt::SecurityTokenKeyfilePath,std::allocator<GostCrypt::SecurityTokenKeyfilePath> > >::_List_alloc<std::_List_base_types<GostCrypt::SecurityTokenKeyfilePath,std::allocator<GostCrypt::SecurityTokenKeyfilePath> > ><std::_Wrap_alloc<std::allocator<std::_List_node<GostCrypt::SecurityTokenKeyfilePath,void *> > >,void>, COMDAT
; _this$ = ecx

; 611  : 		{	// construct head node, allocator from _Al

  00000	56		 push	 esi
  00001	8b f1		 mov	 esi, ecx

; 612  : 		_Myhead() = _Buyheadnode();

  00003	6a 00		 push	 0
  00005	6a 00		 push	 0
  00007	c7 06 00 00 00
	00		 mov	 DWORD PTR [esi], 0
  0000d	c7 46 04 00 00
	00 00		 mov	 DWORD PTR [esi+4], 0
  00014	e8 00 00 00 00	 call	 ?_Buynode0@?$_List_alloc@U?$_List_base_types@USecurityTokenKeyfilePath@GostCrypt@@V?$allocator@USecurityTokenKeyfilePath@GostCrypt@@@std@@@std@@@std@@QAEPAU?$_List_node@USecurityTokenKeyfilePath@GostCrypt@@PAX@2@PAU32@0@Z ; std::_List_alloc<std::_List_base_types<GostCrypt::SecurityTokenKeyfilePath,std::allocator<GostCrypt::SecurityTokenKeyfilePath> > >::_Buynode0
  00019	89 06		 mov	 DWORD PTR [esi], eax

; 613  : 		}

  0001b	8b c6		 mov	 eax, esi
  0001d	5e		 pop	 esi
  0001e	c2 04 00	 ret	 4
??$?0U?$_Wrap_alloc@V?$allocator@U?$_List_node@USecurityTokenKeyfilePath@GostCrypt@@PAX@std@@@std@@@std@@X@?$_List_alloc@U?$_List_base_types@USecurityTokenKeyfilePath@GostCrypt@@V?$allocator@USecurityTokenKeyfilePath@GostCrypt@@@std@@@std@@@std@@QAE@$$QAU?$_Wrap_alloc@V?$allocator@U?$_List_node@USecurityTokenKeyfilePath@GostCrypt@@PAX@std@@@std@@@1@@Z ENDP ; std::_List_alloc<std::_List_base_types<GostCrypt::SecurityTokenKeyfilePath,std::allocator<GostCrypt::SecurityTokenKeyfilePath> > >::_List_alloc<std::_List_base_types<GostCrypt::SecurityTokenKeyfilePath,std::allocator<GostCrypt::SecurityTokenKeyfilePath> > ><std::_Wrap_alloc<std::allocator<std::_List_node<GostCrypt::SecurityTokenKeyfilePath,void *> > >,void>
_TEXT	ENDS
; Function compile flags: /Ogtp
; File c:\program files (x86)\microsoft visual studio 14.0\vc\include\type_traits
;	COMDAT ??$forward@U?$_Wrap_alloc@V?$allocator@U?$_List_node@USecurityTokenKeyfilePath@GostCrypt@@PAX@std@@@std@@@std@@@std@@YA$$QAU?$_Wrap_alloc@V?$allocator@U?$_List_node@USecurityTokenKeyfilePath@GostCrypt@@PAX@std@@@std@@@0@AAU10@@Z
_TEXT	SEGMENT
__Arg$ = 8						; size = 4
??$forward@U?$_Wrap_alloc@V?$allocator@U?$_List_node@USecurityTokenKeyfilePath@GostCrypt@@PAX@std@@@std@@@std@@@std@@YA$$QAU?$_Wrap_alloc@V?$allocator@U?$_List_node@USecurityTokenKeyfilePath@GostCrypt@@PAX@std@@@std@@@0@AAU10@@Z PROC ; std::forward<std::_Wrap_alloc<std::allocator<std::_List_node<GostCrypt::SecurityTokenKeyfilePath,void *> > > >, COMDAT

; 1275 : 	{	// forward an lvalue as either an lvalue or an rvalue

  00000	55		 push	 ebp
  00001	8b ec		 mov	 ebp, esp

; 1276 : 	return (static_cast<_Ty&&>(_Arg));

  00003	8b 45 08	 mov	 eax, DWORD PTR __Arg$[ebp]

; 1277 : 	}

  00006	5d		 pop	 ebp
  00007	c3		 ret	 0
??$forward@U?$_Wrap_alloc@V?$allocator@U?$_List_node@USecurityTokenKeyfilePath@GostCrypt@@PAX@std@@@std@@@std@@@std@@YA$$QAU?$_Wrap_alloc@V?$allocator@U?$_List_node@USecurityTokenKeyfilePath@GostCrypt@@PAX@std@@@std@@@0@AAU10@@Z ENDP ; std::forward<std::_Wrap_alloc<std::allocator<std::_List_node<GostCrypt::SecurityTokenKeyfilePath,void *> > > >
_TEXT	ENDS
; Function compile flags: /Ogtp
; File c:\program files (x86)\microsoft visual studio 14.0\vc\include\xmemory0
;	COMDAT ??$construct@PAU?$_List_node@USecurityTokenKeyfilePath@GostCrypt@@PAX@std@@AAPAU12@@?$allocator@U?$_List_node@USecurityTokenKeyfilePath@GostCrypt@@PAX@std@@@std@@QAEXPAPAU?$_List_node@USecurityTokenKeyfilePath@GostCrypt@@PAX@1@AAPAU21@@Z
_TEXT	SEGMENT
__Ptr$ = 8						; size = 4
_<_Args_0>$ = 12					; size = 4
??$construct@PAU?$_List_node@USecurityTokenKeyfilePath@GostCrypt@@PAX@std@@AAPAU12@@?$allocator@U?$_List_node@USecurityTokenKeyfilePath@GostCrypt@@PAX@std@@@std@@QAEXPAPAU?$_List_node@USecurityTokenKeyfilePath@GostCrypt@@PAX@1@AAPAU21@@Z PROC ; std::allocator<std::_List_node<GostCrypt::SecurityTokenKeyfilePath,void *> >::construct<std::_List_node<GostCrypt::SecurityTokenKeyfilePath,void *> *,std::_List_node<GostCrypt::SecurityTokenKeyfilePath,void *> * &>, COMDAT
; _this$ = ecx

; 736  : 		{	// construct _Objty(_Types...) at _Ptr

  00000	55		 push	 ebp
  00001	8b ec		 mov	 ebp, esp

; 737  : 		::new ((void *)_Ptr) _Objty(_STD forward<_Types>(_Args)...);

  00003	8b 4d 08	 mov	 ecx, DWORD PTR __Ptr$[ebp]
  00006	85 c9		 test	 ecx, ecx
  00008	74 07		 je	 SHORT $LN3@construct
  0000a	8b 45 0c	 mov	 eax, DWORD PTR _<_Args_0>$[ebp]
  0000d	8b 00		 mov	 eax, DWORD PTR [eax]
  0000f	89 01		 mov	 DWORD PTR [ecx], eax
$LN3@construct:

; 738  : 		}

  00011	5d		 pop	 ebp
  00012	c2 08 00	 ret	 8
??$construct@PAU?$_List_node@USecurityTokenKeyfilePath@GostCrypt@@PAX@std@@AAPAU12@@?$allocator@U?$_List_node@USecurityTokenKeyfilePath@GostCrypt@@PAX@std@@@std@@QAEXPAPAU?$_List_node@USecurityTokenKeyfilePath@GostCrypt@@PAX@1@AAPAU21@@Z ENDP ; std::allocator<std::_List_node<GostCrypt::SecurityTokenKeyfilePath,void *> >::construct<std::_List_node<GostCrypt::SecurityTokenKeyfilePath,void *> *,std::_List_node<GostCrypt::SecurityTokenKeyfilePath,void *> * &>
_TEXT	ENDS
; Function compile flags: /Ogtp
; File c:\program files (x86)\microsoft visual studio 14.0\vc\include\xmemory0
;	COMDAT ??$construct@PA_WAAPA_W@?$allocator@_W@std@@QAEXPAPA_WAAPA_W@Z
_TEXT	SEGMENT
__Ptr$ = 8						; size = 4
_<_Args_0>$ = 12					; size = 4
??$construct@PA_WAAPA_W@?$allocator@_W@std@@QAEXPAPA_WAAPA_W@Z PROC ; std::allocator<wchar_t>::construct<wchar_t *,wchar_t * &>, COMDAT
; _this$ = ecx

; 736  : 		{	// construct _Objty(_Types...) at _Ptr

  00000	55		 push	 ebp
  00001	8b ec		 mov	 ebp, esp

; 737  : 		::new ((void *)_Ptr) _Objty(_STD forward<_Types>(_Args)...);

  00003	8b 4d 08	 mov	 ecx, DWORD PTR __Ptr$[ebp]
  00006	85 c9		 test	 ecx, ecx
  00008	74 07		 je	 SHORT $LN3@construct
  0000a	8b 45 0c	 mov	 eax, DWORD PTR _<_Args_0>$[ebp]
  0000d	8b 00		 mov	 eax, DWORD PTR [eax]
  0000f	89 01		 mov	 DWORD PTR [ecx], eax
$LN3@construct:

; 738  : 		}

  00011	5d		 pop	 ebp
  00012	c2 08 00	 ret	 8
??$construct@PA_WAAPA_W@?$allocator@_W@std@@QAEXPAPA_WAAPA_W@Z ENDP ; std::allocator<wchar_t>::construct<wchar_t *,wchar_t * &>
_TEXT	ENDS
; Function compile flags: /Ogtp
; File c:\program files (x86)\microsoft visual studio 14.0\vc\include\xmemory0
;	COMDAT ??$destroy@USecurityTokenKeyfilePath@GostCrypt@@@?$allocator@U?$_List_node@USecurityTokenKeyfilePath@GostCrypt@@PAX@std@@@std@@QAEXPAUSecurityTokenKeyfilePath@GostCrypt@@@Z
_TEXT	SEGMENT
__Ptr$ = 8						; size = 4
??$destroy@USecurityTokenKeyfilePath@GostCrypt@@@?$allocator@U?$_List_node@USecurityTokenKeyfilePath@GostCrypt@@PAX@std@@@std@@QAEXPAUSecurityTokenKeyfilePath@GostCrypt@@@Z PROC ; std::allocator<std::_List_node<GostCrypt::SecurityTokenKeyfilePath,void *> >::destroy<GostCrypt::SecurityTokenKeyfilePath>, COMDAT
; _this$ = ecx

; 743  : 		{	// destroy object at _Ptr

  00000	55		 push	 ebp
  00001	8b ec		 mov	 ebp, esp
  00003	56		 push	 esi

; 744  : 		_Ptr->~_Uty();

  00004	8b 75 08	 mov	 esi, DWORD PTR __Ptr$[ebp]
  00007	8b 46 14	 mov	 eax, DWORD PTR [esi+20]
  0000a	83 f8 08	 cmp	 eax, 8
  0000d	72 0b		 jb	 SHORT $LN16@destroy
  0000f	40		 inc	 eax
  00010	8b ce		 mov	 ecx, esi
  00012	50		 push	 eax
  00013	ff 36		 push	 DWORD PTR [esi]
  00015	e8 00 00 00 00	 call	 ?deallocate@?$_Wrap_alloc@V?$allocator@_W@std@@@std@@QAEXPA_WI@Z ; std::_Wrap_alloc<std::allocator<wchar_t> >::deallocate
$LN16@destroy:
  0001a	c7 46 14 07 00
	00 00		 mov	 DWORD PTR [esi+20], 7
  00021	83 7e 14 08	 cmp	 DWORD PTR [esi+20], 8
  00025	c7 46 10 00 00
	00 00		 mov	 DWORD PTR [esi+16], 0
  0002c	72 0c		 jb	 SHORT $LN106@destroy
  0002e	8b 06		 mov	 eax, DWORD PTR [esi]
  00030	33 c9		 xor	 ecx, ecx
  00032	5e		 pop	 esi
  00033	66 89 08	 mov	 WORD PTR [eax], cx

; 745  : 		}

  00036	5d		 pop	 ebp
  00037	c2 04 00	 ret	 4

; 744  : 		_Ptr->~_Uty();

$LN106@destroy:
  0003a	33 c0		 xor	 eax, eax
  0003c	66 89 06	 mov	 WORD PTR [esi], ax
  0003f	5e		 pop	 esi

; 745  : 		}

  00040	5d		 pop	 ebp
  00041	c2 04 00	 ret	 4
??$destroy@USecurityTokenKeyfilePath@GostCrypt@@@?$allocator@U?$_List_node@USecurityTokenKeyfilePath@GostCrypt@@PAX@std@@@std@@QAEXPAUSecurityTokenKeyfilePath@GostCrypt@@@Z ENDP ; std::allocator<std::_List_node<GostCrypt::SecurityTokenKeyfilePath,void *> >::destroy<GostCrypt::SecurityTokenKeyfilePath>
_TEXT	ENDS
; Function compile flags: /Ogtp
; File c:\program files (x86)\microsoft visual studio 14.0\vc\include\xmemory0
;	COMDAT ??$destroy@PAU?$_List_node@USecurityTokenKeyfilePath@GostCrypt@@PAX@std@@@?$allocator@U?$_List_node@USecurityTokenKeyfilePath@GostCrypt@@PAX@std@@@std@@QAEXPAPAU?$_List_node@USecurityTokenKeyfilePath@GostCrypt@@PAX@1@@Z
_TEXT	SEGMENT
__Ptr$ = 8						; size = 4
??$destroy@PAU?$_List_node@USecurityTokenKeyfilePath@GostCrypt@@PAX@std@@@?$allocator@U?$_List_node@USecurityTokenKeyfilePath@GostCrypt@@PAX@std@@@std@@QAEXPAPAU?$_List_node@USecurityTokenKeyfilePath@GostCrypt@@PAX@1@@Z PROC ; std::allocator<std::_List_node<GostCrypt::SecurityTokenKeyfilePath,void *> >::destroy<std::_List_node<GostCrypt::SecurityTokenKeyfilePath,void *> *>, COMDAT
; _this$ = ecx

; 744  : 		_Ptr->~_Uty();
; 745  : 		}

  00000	c2 04 00	 ret	 4
??$destroy@PAU?$_List_node@USecurityTokenKeyfilePath@GostCrypt@@PAX@std@@@?$allocator@U?$_List_node@USecurityTokenKeyfilePath@GostCrypt@@PAX@std@@@std@@QAEXPAPAU?$_List_node@USecurityTokenKeyfilePath@GostCrypt@@PAX@1@@Z ENDP ; std::allocator<std::_List_node<GostCrypt::SecurityTokenKeyfilePath,void *> >::destroy<std::_List_node<GostCrypt::SecurityTokenKeyfilePath,void *> *>
_TEXT	ENDS
; Function compile flags: /Ogtp
; File c:\program files (x86)\microsoft visual studio 14.0\vc\include\xmemory0
;	COMDAT ??$construct@PADAAPAD@?$allocator@D@std@@QAEXPAPADAAPAD@Z
_TEXT	SEGMENT
__Ptr$ = 8						; size = 4
_<_Args_0>$ = 12					; size = 4
??$construct@PADAAPAD@?$allocator@D@std@@QAEXPAPADAAPAD@Z PROC ; std::allocator<char>::construct<char *,char * &>, COMDAT
; _this$ = ecx

; 736  : 		{	// construct _Objty(_Types...) at _Ptr

  00000	55		 push	 ebp
  00001	8b ec		 mov	 ebp, esp

; 737  : 		::new ((void *)_Ptr) _Objty(_STD forward<_Types>(_Args)...);

  00003	8b 4d 08	 mov	 ecx, DWORD PTR __Ptr$[ebp]
  00006	85 c9		 test	 ecx, ecx
  00008	74 07		 je	 SHORT $LN3@construct
  0000a	8b 45 0c	 mov	 eax, DWORD PTR _<_Args_0>$[ebp]
  0000d	8b 00		 mov	 eax, DWORD PTR [eax]
  0000f	89 01		 mov	 DWORD PTR [ecx], eax
$LN3@construct:

; 738  : 		}

  00011	5d		 pop	 ebp
  00012	c2 08 00	 ret	 8
??$construct@PADAAPAD@?$allocator@D@std@@QAEXPAPADAAPAD@Z ENDP ; std::allocator<char>::construct<char *,char * &>
_TEXT	ENDS
; Function compile flags: /Ogtp
; File c:\program files (x86)\microsoft visual studio 14.0\vc\include\xmemory0
;	COMDAT ??$destroy@PAD@?$allocator@D@std@@QAEXPAPAD@Z
_TEXT	SEGMENT
__Ptr$ = 8						; size = 4
??$destroy@PAD@?$allocator@D@std@@QAEXPAPAD@Z PROC	; std::allocator<char>::destroy<char *>, COMDAT
; _this$ = ecx

; 744  : 		_Ptr->~_Uty();
; 745  : 		}

  00000	c2 04 00	 ret	 4
??$destroy@PAD@?$allocator@D@std@@QAEXPAPAD@Z ENDP	; std::allocator<char>::destroy<char *>
_TEXT	ENDS
; Function compile flags: /Ogtp
; File c:\program files (x86)\microsoft visual studio 14.0\vc\include\xmemory0
;	COMDAT ??$destroy@PA_W@?$allocator@_W@std@@QAEXPAPA_W@Z
_TEXT	SEGMENT
__Ptr$ = 8						; size = 4
??$destroy@PA_W@?$allocator@_W@std@@QAEXPAPA_W@Z PROC	; std::allocator<wchar_t>::destroy<wchar_t *>, COMDAT
; _this$ = ecx

; 744  : 		_Ptr->~_Uty();
; 745  : 		}

  00000	c2 04 00	 ret	 4
??$destroy@PA_W@?$allocator@_W@std@@QAEXPAPA_W@Z ENDP	; std::allocator<wchar_t>::destroy<wchar_t *>
_TEXT	ENDS
; Function compile flags: /Ogtp
; File c:\program files (x86)\microsoft visual studio 14.0\vc\include\xmemory0
;	COMDAT ??$?0V?$allocator@U?$_List_node@USecurityTokenKeyfilePath@GostCrypt@@PAX@std@@@std@@@?$_Wrap_alloc@V?$allocator@U?$_List_node@USecurityTokenKeyfilePath@GostCrypt@@PAX@std@@@std@@@std@@QAE@$$QAV?$allocator@U?$_List_node@USecurityTokenKeyfilePath@GostCrypt@@PAX@std@@@1@@Z
_TEXT	SEGMENT
__Right$ = 8						; size = 4
??$?0V?$allocator@U?$_List_node@USecurityTokenKeyfilePath@GostCrypt@@PAX@std@@@std@@@?$_Wrap_alloc@V?$allocator@U?$_List_node@USecurityTokenKeyfilePath@GostCrypt@@PAX@std@@@std@@@std@@QAE@$$QAV?$allocator@U?$_List_node@USecurityTokenKeyfilePath@GostCrypt@@PAX@std@@@1@@Z PROC ; std::_Wrap_alloc<std::allocator<std::_List_node<GostCrypt::SecurityTokenKeyfilePath,void *> > >::_Wrap_alloc<std::allocator<std::_List_node<GostCrypt::SecurityTokenKeyfilePath,void *> > ><std::allocator<std::_List_node<GostCrypt::SecurityTokenKeyfilePath,void *> > >, COMDAT
; _this$ = ecx

; 953  : 		}

  00000	8b c1		 mov	 eax, ecx
  00002	c2 04 00	 ret	 4
??$?0V?$allocator@U?$_List_node@USecurityTokenKeyfilePath@GostCrypt@@PAX@std@@@std@@@?$_Wrap_alloc@V?$allocator@U?$_List_node@USecurityTokenKeyfilePath@GostCrypt@@PAX@std@@@std@@@std@@QAE@$$QAV?$allocator@U?$_List_node@USecurityTokenKeyfilePath@GostCrypt@@PAX@std@@@1@@Z ENDP ; std::_Wrap_alloc<std::allocator<std::_List_node<GostCrypt::SecurityTokenKeyfilePath,void *> > >::_Wrap_alloc<std::allocator<std::_List_node<GostCrypt::SecurityTokenKeyfilePath,void *> > ><std::allocator<std::_List_node<GostCrypt::SecurityTokenKeyfilePath,void *> > >
_TEXT	ENDS
; Function compile flags: /Ogtp
; File c:\program files (x86)\microsoft visual studio 14.0\vc\include\list
;	COMDAT ??$insert@V?$_List_const_iterator@V?$_List_val@U?$_List_simple_types@USecurityTokenKeyfilePath@GostCrypt@@@std@@@std@@@std@@@?$list@USecurityTokenKeyfilePath@GostCrypt@@V?$allocator@USecurityTokenKeyfilePath@GostCrypt@@@std@@@std@@QAE?AV?$_List_iterator@V?$_List_val@U?$_List_simple_types@USecurityTokenKeyfilePath@GostCrypt@@@std@@@std@@@1@V?$_List_const_iterator@V?$_List_val@U?$_List_simple_types@USecurityTokenKeyfilePath@GostCrypt@@@std@@@std@@@1@00@Z
_TEXT	SEGMENT
$T1 = -4						; size = 1
$T2 = -4						; size = 1
___$ReturnUdt$ = 8					; size = 4
__Where$ = 12						; size = 4
__First$ = 16						; size = 4
__Last$ = 20						; size = 4
??$insert@V?$_List_const_iterator@V?$_List_val@U?$_List_simple_types@USecurityTokenKeyfilePath@GostCrypt@@@std@@@std@@@std@@@?$list@USecurityTokenKeyfilePath@GostCrypt@@V?$allocator@USecurityTokenKeyfilePath@GostCrypt@@@std@@@std@@QAE?AV?$_List_iterator@V?$_List_val@U?$_List_simple_types@USecurityTokenKeyfilePath@GostCrypt@@@std@@@std@@@1@V?$_List_const_iterator@V?$_List_val@U?$_List_simple_types@USecurityTokenKeyfilePath@GostCrypt@@@std@@@std@@@1@00@Z PROC ; std::list<GostCrypt::SecurityTokenKeyfilePath,std::allocator<GostCrypt::SecurityTokenKeyfilePath> >::insert<std::_List_const_iterator<std::_List_val<std::_List_simple_types<GostCrypt::SecurityTokenKeyfilePath> > > >, COMDAT
; _this$ = ecx

; 1382 : 		{	// insert [_First, _Last) at _Where

  00000	55		 push	 ebp
  00001	8b ec		 mov	 ebp, esp
  00003	51		 push	 ecx

; 1383 :  #if _ITERATOR_DEBUG_LEVEL == 2
; 1384 : 		if (_Where._Getcont() != &this->_Get_data())
; 1385 : 			_DEBUG_ERROR("list insert iterator outside range");
; 1386 :  #endif /* _ITERATOR_DEBUG_LEVEL == 2 */
; 1387 : 
; 1388 : 		iterator _Prev = _Make_iter(_Where);
; 1389 : 		if (_Prev == begin())

  00004	8b 45 0c	 mov	 eax, DWORD PTR __Where$[ebp]
  00007	57		 push	 edi
  00008	8b f9		 mov	 edi, ecx

; 1390 : 			{	// insert sequence at beginning
; 1391 : 			_Insert_range(_Where._Unchecked(), _First, _Last,

  0000a	c6 45 fc 00	 mov	 BYTE PTR $T2[ebp], 0
  0000e	8b 17		 mov	 edx, DWORD PTR [edi]
  00010	3b 02		 cmp	 eax, DWORD PTR [edx]
  00012	75 1f		 jne	 SHORT $LN2@insert
  00014	ff 75 fc	 push	 DWORD PTR $T2[ebp]
  00017	ff 75 14	 push	 DWORD PTR __Last$[ebp]
  0001a	ff 75 10	 push	 DWORD PTR __First$[ebp]
  0001d	50		 push	 eax
  0001e	e8 00 00 00 00	 call	 ??$_Insert_range@V?$_List_const_iterator@V?$_List_val@U?$_List_simple_types@USecurityTokenKeyfilePath@GostCrypt@@@std@@@std@@@std@@@?$list@USecurityTokenKeyfilePath@GostCrypt@@V?$allocator@USecurityTokenKeyfilePath@GostCrypt@@@std@@@std@@QAEXV?$_List_unchecked_const_iterator@V?$_List_val@U?$_List_simple_types@USecurityTokenKeyfilePath@GostCrypt@@@std@@@std@@U_Iterator_base0@2@@1@V?$_List_const_iterator@V?$_List_val@U?$_List_simple_types@USecurityTokenKeyfilePath@GostCrypt@@@std@@@std@@@1@1Uforward_iterator_tag@1@@Z ; std::list<GostCrypt::SecurityTokenKeyfilePath,std::allocator<GostCrypt::SecurityTokenKeyfilePath> >::_Insert_range<std::_List_const_iterator<std::_List_val<std::_List_simple_types<GostCrypt::SecurityTokenKeyfilePath> > > >

; 1392 : 				_Iter_cat_t<_Iter>());
; 1393 : 			return (begin());

  00023	8b 07		 mov	 eax, DWORD PTR [edi]
  00025	5f		 pop	 edi
  00026	8b 08		 mov	 ecx, DWORD PTR [eax]

; 1399 : 				_Iter_cat_t<_Iter>());
; 1400 : 			return (++_Prev);

  00028	8b 45 08	 mov	 eax, DWORD PTR ___$ReturnUdt$[ebp]
  0002b	89 08		 mov	 DWORD PTR [eax], ecx

; 1401 : 			}
; 1402 : 		}

  0002d	8b e5		 mov	 esp, ebp
  0002f	5d		 pop	 ebp
  00030	c2 10 00	 ret	 16			; 00000010H
$LN2@insert:
  00033	56		 push	 esi

; 1394 : 			}
; 1395 : 		else
; 1396 : 			{	// insert sequence not at beginning
; 1397 : 			--_Prev;
; 1398 : 			_Insert_range(_Where._Unchecked(), _First, _Last,

  00034	ff 75 fc	 push	 DWORD PTR $T1[ebp]
  00037	8b 70 04	 mov	 esi, DWORD PTR [eax+4]
  0003a	ff 75 14	 push	 DWORD PTR __Last$[ebp]
  0003d	ff 75 10	 push	 DWORD PTR __First$[ebp]
  00040	50		 push	 eax
  00041	e8 00 00 00 00	 call	 ??$_Insert_range@V?$_List_const_iterator@V?$_List_val@U?$_List_simple_types@USecurityTokenKeyfilePath@GostCrypt@@@std@@@std@@@std@@@?$list@USecurityTokenKeyfilePath@GostCrypt@@V?$allocator@USecurityTokenKeyfilePath@GostCrypt@@@std@@@std@@QAEXV?$_List_unchecked_const_iterator@V?$_List_val@U?$_List_simple_types@USecurityTokenKeyfilePath@GostCrypt@@@std@@@std@@U_Iterator_base0@2@@1@V?$_List_const_iterator@V?$_List_val@U?$_List_simple_types@USecurityTokenKeyfilePath@GostCrypt@@@std@@@std@@@1@1Uforward_iterator_tag@1@@Z ; std::list<GostCrypt::SecurityTokenKeyfilePath,std::allocator<GostCrypt::SecurityTokenKeyfilePath> >::_Insert_range<std::_List_const_iterator<std::_List_val<std::_List_simple_types<GostCrypt::SecurityTokenKeyfilePath> > > >

; 1399 : 				_Iter_cat_t<_Iter>());
; 1400 : 			return (++_Prev);

  00046	8b 45 08	 mov	 eax, DWORD PTR ___$ReturnUdt$[ebp]
  00049	8b 0e		 mov	 ecx, DWORD PTR [esi]
  0004b	5e		 pop	 esi
  0004c	5f		 pop	 edi
  0004d	89 08		 mov	 DWORD PTR [eax], ecx

; 1401 : 			}
; 1402 : 		}

  0004f	8b e5		 mov	 esp, ebp
  00051	5d		 pop	 ebp
  00052	c2 10 00	 ret	 16			; 00000010H
??$insert@V?$_List_const_iterator@V?$_List_val@U?$_List_simple_types@USecurityTokenKeyfilePath@GostCrypt@@@std@@@std@@@std@@@?$list@USecurityTokenKeyfilePath@GostCrypt@@V?$allocator@USecurityTokenKeyfilePath@GostCrypt@@@std@@@std@@QAE?AV?$_List_iterator@V?$_List_val@U?$_List_simple_types@USecurityTokenKeyfilePath@GostCrypt@@@std@@@std@@@1@V?$_List_const_iterator@V?$_List_val@U?$_List_simple_types@USecurityTokenKeyfilePath@GostCrypt@@@std@@@std@@@1@00@Z ENDP ; std::list<GostCrypt::SecurityTokenKeyfilePath,std::allocator<GostCrypt::SecurityTokenKeyfilePath> >::insert<std::_List_const_iterator<std::_List_val<std::_List_simple_types<GostCrypt::SecurityTokenKeyfilePath> > > >
_TEXT	ENDS
; Function compile flags: /Ogtp
; File c:\program files (x86)\microsoft visual studio 14.0\vc\include\list
;	COMDAT ??F?$_List_iterator@V?$_List_val@U?$_List_simple_types@USecurityTokenKeyfilePath@GostCrypt@@@std@@@std@@@std@@QAEAAV01@XZ
_TEXT	SEGMENT
??F?$_List_iterator@V?$_List_val@U?$_List_simple_types@USecurityTokenKeyfilePath@GostCrypt@@@std@@@std@@@std@@QAEAAV01@XZ PROC ; std::_List_iterator<std::_List_val<std::_List_simple_types<GostCrypt::SecurityTokenKeyfilePath> > >::operator--, COMDAT
; _this$ = ecx

; 389  : 		--(*(_Mybase *)this);

  00000	8b 01		 mov	 eax, DWORD PTR [ecx]
  00002	8b 40 04	 mov	 eax, DWORD PTR [eax+4]
  00005	89 01		 mov	 DWORD PTR [ecx], eax

; 390  : 		return (*this);

  00007	8b c1		 mov	 eax, ecx

; 391  : 		}

  00009	c3		 ret	 0
??F?$_List_iterator@V?$_List_val@U?$_List_simple_types@USecurityTokenKeyfilePath@GostCrypt@@@std@@@std@@@std@@QAEAAV01@XZ ENDP ; std::_List_iterator<std::_List_val<std::_List_simple_types<GostCrypt::SecurityTokenKeyfilePath> > >::operator--
_TEXT	ENDS
; Function compile flags: /Ogtp
; File c:\program files (x86)\microsoft visual studio 14.0\vc\include\list
;	COMDAT ??E?$_List_iterator@V?$_List_val@U?$_List_simple_types@USecurityTokenKeyfilePath@GostCrypt@@@std@@@std@@@std@@QAEAAV01@XZ
_TEXT	SEGMENT
??E?$_List_iterator@V?$_List_val@U?$_List_simple_types@USecurityTokenKeyfilePath@GostCrypt@@@std@@@std@@@std@@QAEAAV01@XZ PROC ; std::_List_iterator<std::_List_val<std::_List_simple_types<GostCrypt::SecurityTokenKeyfilePath> > >::operator++, COMDAT
; _this$ = ecx

; 376  : 		++(*(_Mybase *)this);

  00000	8b 01		 mov	 eax, DWORD PTR [ecx]
  00002	8b 00		 mov	 eax, DWORD PTR [eax]
  00004	89 01		 mov	 DWORD PTR [ecx], eax

; 377  : 		return (*this);

  00006	8b c1		 mov	 eax, ecx

; 378  : 		}

  00008	c3		 ret	 0
??E?$_List_iterator@V?$_List_val@U?$_List_simple_types@USecurityTokenKeyfilePath@GostCrypt@@@std@@@std@@@std@@QAEAAV01@XZ ENDP ; std::_List_iterator<std::_List_val<std::_List_simple_types<GostCrypt::SecurityTokenKeyfilePath> > >::operator++
_TEXT	ENDS
; Function compile flags: /Ogtp
; File c:\program files (x86)\microsoft visual studio 14.0\vc\include\list
;	COMDAT ??0?$_List_iterator@V?$_List_val@U?$_List_simple_types@USecurityTokenKeyfilePath@GostCrypt@@@std@@@std@@@std@@QAE@PAU?$_List_node@USecurityTokenKeyfilePath@GostCrypt@@PAX@1@PBV?$_List_val@U?$_List_simple_types@USecurityTokenKeyfilePath@GostCrypt@@@std@@@1@@Z
_TEXT	SEGMENT
__Pnode$ = 8						; size = 4
__Plist$ = 12						; size = 4
??0?$_List_iterator@V?$_List_val@U?$_List_simple_types@USecurityTokenKeyfilePath@GostCrypt@@@std@@@std@@@std@@QAE@PAU?$_List_node@USecurityTokenKeyfilePath@GostCrypt@@PAX@1@PBV?$_List_val@U?$_List_simple_types@USecurityTokenKeyfilePath@GostCrypt@@@std@@@1@@Z PROC ; std::_List_iterator<std::_List_val<std::_List_simple_types<GostCrypt::SecurityTokenKeyfilePath> > >::_List_iterator<std::_List_val<std::_List_simple_types<GostCrypt::SecurityTokenKeyfilePath> > >, COMDAT
; _this$ = ecx

; 348  : 		{	// construct with node pointer _Pnode

  00000	55		 push	 ebp
  00001	8b ec		 mov	 ebp, esp

; 347  : 		: _Mybase(_Pnode, _Plist)

  00003	8b 45 08	 mov	 eax, DWORD PTR __Pnode$[ebp]
  00006	89 01		 mov	 DWORD PTR [ecx], eax

; 349  : 		}

  00008	8b c1		 mov	 eax, ecx
  0000a	5d		 pop	 ebp
  0000b	c2 08 00	 ret	 8
??0?$_List_iterator@V?$_List_val@U?$_List_simple_types@USecurityTokenKeyfilePath@GostCrypt@@@std@@@std@@@std@@QAE@PAU?$_List_node@USecurityTokenKeyfilePath@GostCrypt@@PAX@1@PBV?$_List_val@U?$_List_simple_types@USecurityTokenKeyfilePath@GostCrypt@@@std@@@1@@Z ENDP ; std::_List_iterator<std::_List_val<std::_List_simple_types<GostCrypt::SecurityTokenKeyfilePath> > >::_List_iterator<std::_List_val<std::_List_simple_types<GostCrypt::SecurityTokenKeyfilePath> > >
_TEXT	ENDS
; Function compile flags: /Ogtp
; File c:\program files (x86)\microsoft visual studio 14.0\vc\include\list
;	COMDAT ??$?0U?$_Wrap_alloc@V?$allocator@U?$_List_node@USecurityTokenKeyfilePath@GostCrypt@@PAX@std@@@std@@@std@@X@?$_List_buy@USecurityTokenKeyfilePath@GostCrypt@@V?$allocator@USecurityTokenKeyfilePath@GostCrypt@@@std@@@std@@QAE@$$QAU?$_Wrap_alloc@V?$allocator@U?$_List_node@USecurityTokenKeyfilePath@GostCrypt@@PAX@std@@@std@@@1@@Z
_TEXT	SEGMENT
_this$ = -4						; size = 4
__Al$ = 8						; size = 4
??$?0U?$_Wrap_alloc@V?$allocator@U?$_List_node@USecurityTokenKeyfilePath@GostCrypt@@PAX@std@@@std@@@std@@X@?$_List_buy@USecurityTokenKeyfilePath@GostCrypt@@V?$allocator@USecurityTokenKeyfilePath@GostCrypt@@@std@@@std@@QAE@$$QAU?$_Wrap_alloc@V?$allocator@U?$_List_node@USecurityTokenKeyfilePath@GostCrypt@@PAX@std@@@std@@@1@@Z PROC ; std::_List_buy<GostCrypt::SecurityTokenKeyfilePath,std::allocator<GostCrypt::SecurityTokenKeyfilePath> >::_List_buy<GostCrypt::SecurityTokenKeyfilePath,std::allocator<GostCrypt::SecurityTokenKeyfilePath> ><std::_Wrap_alloc<std::allocator<std::_List_node<GostCrypt::SecurityTokenKeyfilePath,void *> > >,void>, COMDAT
; _this$ = ecx

; 825  : 		{	// construct from allocator

  00000	55		 push	 ebp
  00001	8b ec		 mov	 ebp, esp
  00003	51		 push	 ecx
  00004	56		 push	 esi
  00005	8b f1		 mov	 esi, ecx
  00007	6a 00		 push	 0
  00009	6a 00		 push	 0
  0000b	89 75 fc	 mov	 DWORD PTR _this$[ebp], esi
  0000e	c7 06 00 00 00
	00		 mov	 DWORD PTR [esi], 0
  00014	c7 46 04 00 00
	00 00		 mov	 DWORD PTR [esi+4], 0
  0001b	e8 00 00 00 00	 call	 ?_Buynode0@?$_List_alloc@U?$_List_base_types@USecurityTokenKeyfilePath@GostCrypt@@V?$allocator@USecurityTokenKeyfilePath@GostCrypt@@@std@@@std@@@std@@QAEPAU?$_List_node@USecurityTokenKeyfilePath@GostCrypt@@PAX@2@PAU32@0@Z ; std::_List_alloc<std::_List_base_types<GostCrypt::SecurityTokenKeyfilePath,std::allocator<GostCrypt::SecurityTokenKeyfilePath> > >::_Buynode0
  00020	89 06		 mov	 DWORD PTR [esi], eax

; 826  : 		}

  00022	8b c6		 mov	 eax, esi
  00024	5e		 pop	 esi
  00025	8b e5		 mov	 esp, ebp
  00027	5d		 pop	 ebp
  00028	c2 04 00	 ret	 4
??$?0U?$_Wrap_alloc@V?$allocator@U?$_List_node@USecurityTokenKeyfilePath@GostCrypt@@PAX@std@@@std@@@std@@X@?$_List_buy@USecurityTokenKeyfilePath@GostCrypt@@V?$allocator@USecurityTokenKeyfilePath@GostCrypt@@@std@@@std@@QAE@$$QAU?$_Wrap_alloc@V?$allocator@U?$_List_node@USecurityTokenKeyfilePath@GostCrypt@@PAX@std@@@std@@@1@@Z ENDP ; std::_List_buy<GostCrypt::SecurityTokenKeyfilePath,std::allocator<GostCrypt::SecurityTokenKeyfilePath> >::_List_buy<GostCrypt::SecurityTokenKeyfilePath,std::allocator<GostCrypt::SecurityTokenKeyfilePath> ><std::_Wrap_alloc<std::allocator<std::_List_node<GostCrypt::SecurityTokenKeyfilePath,void *> > >,void>
_TEXT	ENDS
; Function compile flags: /Ogtp
; File c:\program files (x86)\microsoft visual studio 14.0\vc\include\type_traits
;	COMDAT ??$forward@V?$basic_string@_WU?$char_traits@_W@std@@V?$allocator@_W@2@@std@@@std@@YA$$QAV?$basic_string@_WU?$char_traits@_W@std@@V?$allocator@_W@2@@0@AAV10@@Z
_TEXT	SEGMENT
__Arg$ = 8						; size = 4
??$forward@V?$basic_string@_WU?$char_traits@_W@std@@V?$allocator@_W@2@@std@@@std@@YA$$QAV?$basic_string@_WU?$char_traits@_W@std@@V?$allocator@_W@2@@0@AAV10@@Z PROC ; std::forward<std::basic_string<wchar_t,std::char_traits<wchar_t>,std::allocator<wchar_t> > >, COMDAT

; 1275 : 	{	// forward an lvalue as either an lvalue or an rvalue

  00000	55		 push	 ebp
  00001	8b ec		 mov	 ebp, esp

; 1276 : 	return (static_cast<_Ty&&>(_Arg));

  00003	8b 45 08	 mov	 eax, DWORD PTR __Arg$[ebp]

; 1277 : 	}

  00006	5d		 pop	 ebp
  00007	c3		 ret	 0
??$forward@V?$basic_string@_WU?$char_traits@_W@std@@V?$allocator@_W@2@@std@@@std@@YA$$QAV?$basic_string@_WU?$char_traits@_W@std@@V?$allocator@_W@2@@0@AAV10@@Z ENDP ; std::forward<std::basic_string<wchar_t,std::char_traits<wchar_t>,std::allocator<wchar_t> > >
_TEXT	ENDS
; Function compile flags: /Ogtp
; File c:\program files (x86)\microsoft visual studio 14.0\vc\include\type_traits
;	COMDAT ??$move@AAU?$_Wrap_alloc@V?$allocator@_W@std@@@std@@@std@@YA$$QAU?$_Wrap_alloc@V?$allocator@_W@std@@@0@AAU10@@Z
_TEXT	SEGMENT
__Arg$ = 8						; size = 4
??$move@AAU?$_Wrap_alloc@V?$allocator@_W@std@@@std@@@std@@YA$$QAU?$_Wrap_alloc@V?$allocator@_W@std@@@0@AAU10@@Z PROC ; std::move<std::_Wrap_alloc<std::allocator<wchar_t> > &>, COMDAT

; 1291 : 	{	// forward _Arg as movable

  00000	55		 push	 ebp
  00001	8b ec		 mov	 ebp, esp

; 1292 : 	return (static_cast<typename remove_reference<_Ty>::type&&>(_Arg));

  00003	8b 45 08	 mov	 eax, DWORD PTR __Arg$[ebp]

; 1293 : 	}

  00006	5d		 pop	 ebp
  00007	c3		 ret	 0
??$move@AAU?$_Wrap_alloc@V?$allocator@_W@std@@@std@@@std@@YA$$QAU?$_Wrap_alloc@V?$allocator@_W@std@@@0@AAU10@@Z ENDP ; std::move<std::_Wrap_alloc<std::allocator<wchar_t> > &>
_TEXT	ENDS
; Function compile flags: /Ogtp
; File c:\program files (x86)\microsoft visual studio 14.0\vc\include\xmemory0
;	COMDAT ??$construct@PAU?$_List_node@USecurityTokenKeyfilePath@GostCrypt@@PAX@std@@AAPAU12@@?$allocator_traits@V?$allocator@U?$_List_node@USecurityTokenKeyfilePath@GostCrypt@@PAX@std@@@std@@@std@@SAXAAV?$allocator@U?$_List_node@USecurityTokenKeyfilePath@GostCrypt@@PAX@std@@@1@PAPAU?$_List_node@USecurityTokenKeyfilePath@GostCrypt@@PAX@1@AAPAU31@@Z
_TEXT	SEGMENT
__Al$ = 8						; size = 4
__Ptr$ = 12						; size = 4
_<_Args_0>$ = 16					; size = 4
??$construct@PAU?$_List_node@USecurityTokenKeyfilePath@GostCrypt@@PAX@std@@AAPAU12@@?$allocator_traits@V?$allocator@U?$_List_node@USecurityTokenKeyfilePath@GostCrypt@@PAX@std@@@std@@@std@@SAXAAV?$allocator@U?$_List_node@USecurityTokenKeyfilePath@GostCrypt@@PAX@std@@@1@PAPAU?$_List_node@USecurityTokenKeyfilePath@GostCrypt@@PAX@1@AAPAU31@@Z PROC ; std::allocator_traits<std::allocator<std::_List_node<GostCrypt::SecurityTokenKeyfilePath,void *> > >::construct<std::_List_node<GostCrypt::SecurityTokenKeyfilePath,void *> *,std::_List_node<GostCrypt::SecurityTokenKeyfilePath,void *> * &>, COMDAT

; 856  : 		{	// construct _Objty(_Types...) at _Ptr

  00000	55		 push	 ebp
  00001	8b ec		 mov	 ebp, esp

; 857  : 		_Al.construct(_Ptr, _STD forward<_Types>(_Args)...);

  00003	8b 4d 0c	 mov	 ecx, DWORD PTR __Ptr$[ebp]
  00006	85 c9		 test	 ecx, ecx
  00008	74 07		 je	 SHORT $LN8@construct
  0000a	8b 45 10	 mov	 eax, DWORD PTR _<_Args_0>$[ebp]
  0000d	8b 00		 mov	 eax, DWORD PTR [eax]
  0000f	89 01		 mov	 DWORD PTR [ecx], eax
$LN8@construct:

; 858  : 		}

  00011	5d		 pop	 ebp
  00012	c3		 ret	 0
??$construct@PAU?$_List_node@USecurityTokenKeyfilePath@GostCrypt@@PAX@std@@AAPAU12@@?$allocator_traits@V?$allocator@U?$_List_node@USecurityTokenKeyfilePath@GostCrypt@@PAX@std@@@std@@@std@@SAXAAV?$allocator@U?$_List_node@USecurityTokenKeyfilePath@GostCrypt@@PAX@std@@@1@PAPAU?$_List_node@USecurityTokenKeyfilePath@GostCrypt@@PAX@1@AAPAU31@@Z ENDP ; std::allocator_traits<std::allocator<std::_List_node<GostCrypt::SecurityTokenKeyfilePath,void *> > >::construct<std::_List_node<GostCrypt::SecurityTokenKeyfilePath,void *> *,std::_List_node<GostCrypt::SecurityTokenKeyfilePath,void *> * &>
_TEXT	ENDS
; Function compile flags: /Ogtp
; File c:\program files (x86)\microsoft visual studio 14.0\vc\include\type_traits
;	COMDAT ??$forward@AAPAU?$_List_node@USecurityTokenKeyfilePath@GostCrypt@@PAX@std@@@std@@YAAAPAU?$_List_node@USecurityTokenKeyfilePath@GostCrypt@@PAX@0@AAPAU10@@Z
_TEXT	SEGMENT
__Arg$ = 8						; size = 4
??$forward@AAPAU?$_List_node@USecurityTokenKeyfilePath@GostCrypt@@PAX@std@@@std@@YAAAPAU?$_List_node@USecurityTokenKeyfilePath@GostCrypt@@PAX@0@AAPAU10@@Z PROC ; std::forward<std::_List_node<GostCrypt::SecurityTokenKeyfilePath,void *> * &>, COMDAT

; 1275 : 	{	// forward an lvalue as either an lvalue or an rvalue

  00000	55		 push	 ebp
  00001	8b ec		 mov	 ebp, esp

; 1276 : 	return (static_cast<_Ty&&>(_Arg));

  00003	8b 45 08	 mov	 eax, DWORD PTR __Arg$[ebp]

; 1277 : 	}

  00006	5d		 pop	 ebp
  00007	c3		 ret	 0
??$forward@AAPAU?$_List_node@USecurityTokenKeyfilePath@GostCrypt@@PAX@std@@@std@@YAAAPAU?$_List_node@USecurityTokenKeyfilePath@GostCrypt@@PAX@0@AAPAU10@@Z ENDP ; std::forward<std::_List_node<GostCrypt::SecurityTokenKeyfilePath,void *> * &>
_TEXT	ENDS
; Function compile flags: /Ogtp
; File c:\program files (x86)\microsoft visual studio 14.0\vc\include\xmemory0
;	COMDAT ??$construct@PA_WAAPA_W@?$allocator_traits@V?$allocator@_W@std@@@std@@SAXAAV?$allocator@_W@1@PAPA_WAAPA_W@Z
_TEXT	SEGMENT
__Al$ = 8						; size = 4
__Ptr$ = 12						; size = 4
_<_Args_0>$ = 16					; size = 4
??$construct@PA_WAAPA_W@?$allocator_traits@V?$allocator@_W@std@@@std@@SAXAAV?$allocator@_W@1@PAPA_WAAPA_W@Z PROC ; std::allocator_traits<std::allocator<wchar_t> >::construct<wchar_t *,wchar_t * &>, COMDAT

; 856  : 		{	// construct _Objty(_Types...) at _Ptr

  00000	55		 push	 ebp
  00001	8b ec		 mov	 ebp, esp

; 857  : 		_Al.construct(_Ptr, _STD forward<_Types>(_Args)...);

  00003	8b 4d 0c	 mov	 ecx, DWORD PTR __Ptr$[ebp]
  00006	85 c9		 test	 ecx, ecx
  00008	74 07		 je	 SHORT $LN8@construct
  0000a	8b 45 10	 mov	 eax, DWORD PTR _<_Args_0>$[ebp]
  0000d	8b 00		 mov	 eax, DWORD PTR [eax]
  0000f	89 01		 mov	 DWORD PTR [ecx], eax
$LN8@construct:

; 858  : 		}

  00011	5d		 pop	 ebp
  00012	c3		 ret	 0
??$construct@PA_WAAPA_W@?$allocator_traits@V?$allocator@_W@std@@@std@@SAXAAV?$allocator@_W@1@PAPA_WAAPA_W@Z ENDP ; std::allocator_traits<std::allocator<wchar_t> >::construct<wchar_t *,wchar_t * &>
_TEXT	ENDS
; Function compile flags: /Ogtp
; File c:\program files (x86)\microsoft visual studio 14.0\vc\include\type_traits
;	COMDAT ??$forward@AAPA_W@std@@YAAAPA_WAAPA_W@Z
_TEXT	SEGMENT
__Arg$ = 8						; size = 4
??$forward@AAPA_W@std@@YAAAPA_WAAPA_W@Z PROC		; std::forward<wchar_t * &>, COMDAT

; 1275 : 	{	// forward an lvalue as either an lvalue or an rvalue

  00000	55		 push	 ebp
  00001	8b ec		 mov	 ebp, esp

; 1276 : 	return (static_cast<_Ty&&>(_Arg));

  00003	8b 45 08	 mov	 eax, DWORD PTR __Arg$[ebp]

; 1277 : 	}

  00006	5d		 pop	 ebp
  00007	c3		 ret	 0
??$forward@AAPA_W@std@@YAAAPA_WAAPA_W@Z ENDP		; std::forward<wchar_t * &>
_TEXT	ENDS
; Function compile flags: /Ogtp
; File c:\program files (x86)\microsoft visual studio 14.0\vc\include\xmemory0
;	COMDAT ??$destroy@USecurityTokenKeyfilePath@GostCrypt@@@?$allocator_traits@V?$allocator@U?$_List_node@USecurityTokenKeyfilePath@GostCrypt@@PAX@std@@@std@@@std@@SAXAAV?$allocator@U?$_List_node@USecurityTokenKeyfilePath@GostCrypt@@PAX@std@@@1@PAUSecurityTokenKeyfilePath@GostCrypt@@@Z
_TEXT	SEGMENT
__Al$ = 8						; size = 4
__Ptr$ = 12						; size = 4
??$destroy@USecurityTokenKeyfilePath@GostCrypt@@@?$allocator_traits@V?$allocator@U?$_List_node@USecurityTokenKeyfilePath@GostCrypt@@PAX@std@@@std@@@std@@SAXAAV?$allocator@U?$_List_node@USecurityTokenKeyfilePath@GostCrypt@@PAX@std@@@1@PAUSecurityTokenKeyfilePath@GostCrypt@@@Z PROC ; std::allocator_traits<std::allocator<std::_List_node<GostCrypt::SecurityTokenKeyfilePath,void *> > >::destroy<GostCrypt::SecurityTokenKeyfilePath>, COMDAT

; 863  : 		{	// destroy object at _Ptr

  00000	55		 push	 ebp
  00001	8b ec		 mov	 ebp, esp
  00003	56		 push	 esi

; 864  : 		_Al.destroy(_Ptr);

  00004	8b 75 0c	 mov	 esi, DWORD PTR __Ptr$[ebp]
  00007	8b 46 14	 mov	 eax, DWORD PTR [esi+20]
  0000a	83 f8 08	 cmp	 eax, 8
  0000d	72 0b		 jb	 SHORT $LN18@destroy
  0000f	40		 inc	 eax
  00010	8b ce		 mov	 ecx, esi
  00012	50		 push	 eax
  00013	ff 36		 push	 DWORD PTR [esi]
  00015	e8 00 00 00 00	 call	 ?deallocate@?$_Wrap_alloc@V?$allocator@_W@std@@@std@@QAEXPA_WI@Z ; std::_Wrap_alloc<std::allocator<wchar_t> >::deallocate
$LN18@destroy:
  0001a	c7 46 14 07 00
	00 00		 mov	 DWORD PTR [esi+20], 7
  00021	83 7e 14 08	 cmp	 DWORD PTR [esi+20], 8
  00025	c7 46 10 00 00
	00 00		 mov	 DWORD PTR [esi+16], 0
  0002c	72 0a		 jb	 SHORT $LN108@destroy
  0002e	8b 06		 mov	 eax, DWORD PTR [esi]
  00030	33 c9		 xor	 ecx, ecx
  00032	5e		 pop	 esi
  00033	66 89 08	 mov	 WORD PTR [eax], cx

; 865  : 		}

  00036	5d		 pop	 ebp
  00037	c3		 ret	 0

; 864  : 		_Al.destroy(_Ptr);

$LN108@destroy:
  00038	33 c0		 xor	 eax, eax
  0003a	66 89 06	 mov	 WORD PTR [esi], ax
  0003d	5e		 pop	 esi

; 865  : 		}

  0003e	5d		 pop	 ebp
  0003f	c3		 ret	 0
??$destroy@USecurityTokenKeyfilePath@GostCrypt@@@?$allocator_traits@V?$allocator@U?$_List_node@USecurityTokenKeyfilePath@GostCrypt@@PAX@std@@@std@@@std@@SAXAAV?$allocator@U?$_List_node@USecurityTokenKeyfilePath@GostCrypt@@PAX@std@@@1@PAUSecurityTokenKeyfilePath@GostCrypt@@@Z ENDP ; std::allocator_traits<std::allocator<std::_List_node<GostCrypt::SecurityTokenKeyfilePath,void *> > >::destroy<GostCrypt::SecurityTokenKeyfilePath>
_TEXT	ENDS
; Function compile flags: /Ogtp
; File c:\program files (x86)\microsoft visual studio 14.0\vc\include\xmemory0
;	COMDAT ??$_Destroy_range1@V?$allocator@E@std@@PAE@std@@YAXPAE0AAU?$_Wrap_alloc@V?$allocator@E@std@@@0@U?$integral_constant@_N$00@0@@Z
_TEXT	SEGMENT
___formal$ = 8						; size = 4
___formal$ = 12						; size = 4
___formal$ = 16						; size = 4
___formal$ = 20						; size = 1
??$_Destroy_range1@V?$allocator@E@std@@PAE@std@@YAXPAE0AAU?$_Wrap_alloc@V?$allocator@E@std@@@0@U?$integral_constant@_N$00@0@@Z PROC ; std::_Destroy_range1<std::allocator<unsigned char>,unsigned char *>, COMDAT

; 1108 : 		// nothing to do
; 1109 : 	}

  00000	c3		 ret	 0
??$_Destroy_range1@V?$allocator@E@std@@PAE@std@@YAXPAE0AAU?$_Wrap_alloc@V?$allocator@E@std@@@0@U?$integral_constant@_N$00@0@@Z ENDP ; std::_Destroy_range1<std::allocator<unsigned char>,unsigned char *>
_TEXT	ENDS
; Function compile flags: /Ogtp
; File c:\program files (x86)\microsoft visual studio 14.0\vc\include\xmemory0
;	COMDAT ??$destroy@PAU?$_List_node@USecurityTokenKeyfilePath@GostCrypt@@PAX@std@@@?$allocator_traits@V?$allocator@U?$_List_node@USecurityTokenKeyfilePath@GostCrypt@@PAX@std@@@std@@@std@@SAXAAV?$allocator@U?$_List_node@USecurityTokenKeyfilePath@GostCrypt@@PAX@std@@@1@PAPAU?$_List_node@USecurityTokenKeyfilePath@GostCrypt@@PAX@1@@Z
_TEXT	SEGMENT
__Al$ = 8						; size = 4
__Ptr$ = 12						; size = 4
??$destroy@PAU?$_List_node@USecurityTokenKeyfilePath@GostCrypt@@PAX@std@@@?$allocator_traits@V?$allocator@U?$_List_node@USecurityTokenKeyfilePath@GostCrypt@@PAX@std@@@std@@@std@@SAXAAV?$allocator@U?$_List_node@USecurityTokenKeyfilePath@GostCrypt@@PAX@std@@@1@PAPAU?$_List_node@USecurityTokenKeyfilePath@GostCrypt@@PAX@1@@Z PROC ; std::allocator_traits<std::allocator<std::_List_node<GostCrypt::SecurityTokenKeyfilePath,void *> > >::destroy<std::_List_node<GostCrypt::SecurityTokenKeyfilePath,void *> *>, COMDAT

; 864  : 		_Al.destroy(_Ptr);
; 865  : 		}

  00000	c3		 ret	 0
??$destroy@PAU?$_List_node@USecurityTokenKeyfilePath@GostCrypt@@PAX@std@@@?$allocator_traits@V?$allocator@U?$_List_node@USecurityTokenKeyfilePath@GostCrypt@@PAX@std@@@std@@@std@@SAXAAV?$allocator@U?$_List_node@USecurityTokenKeyfilePath@GostCrypt@@PAX@std@@@1@PAPAU?$_List_node@USecurityTokenKeyfilePath@GostCrypt@@PAX@1@@Z ENDP ; std::allocator_traits<std::allocator<std::_List_node<GostCrypt::SecurityTokenKeyfilePath,void *> > >::destroy<std::_List_node<GostCrypt::SecurityTokenKeyfilePath,void *> *>
_TEXT	ENDS
; Function compile flags: /Ogtp
; File c:\program files (x86)\microsoft visual studio 14.0\vc\include\xmemory0
;	COMDAT ??$construct@PADAAPAD@?$allocator_traits@V?$allocator@D@std@@@std@@SAXAAV?$allocator@D@1@PAPADAAPAD@Z
_TEXT	SEGMENT
__Al$ = 8						; size = 4
__Ptr$ = 12						; size = 4
_<_Args_0>$ = 16					; size = 4
??$construct@PADAAPAD@?$allocator_traits@V?$allocator@D@std@@@std@@SAXAAV?$allocator@D@1@PAPADAAPAD@Z PROC ; std::allocator_traits<std::allocator<char> >::construct<char *,char * &>, COMDAT

; 856  : 		{	// construct _Objty(_Types...) at _Ptr

  00000	55		 push	 ebp
  00001	8b ec		 mov	 ebp, esp

; 857  : 		_Al.construct(_Ptr, _STD forward<_Types>(_Args)...);

  00003	8b 4d 0c	 mov	 ecx, DWORD PTR __Ptr$[ebp]
  00006	85 c9		 test	 ecx, ecx
  00008	74 07		 je	 SHORT $LN8@construct
  0000a	8b 45 10	 mov	 eax, DWORD PTR _<_Args_0>$[ebp]
  0000d	8b 00		 mov	 eax, DWORD PTR [eax]
  0000f	89 01		 mov	 DWORD PTR [ecx], eax
$LN8@construct:

; 858  : 		}

  00011	5d		 pop	 ebp
  00012	c3		 ret	 0
??$construct@PADAAPAD@?$allocator_traits@V?$allocator@D@std@@@std@@SAXAAV?$allocator@D@1@PAPADAAPAD@Z ENDP ; std::allocator_traits<std::allocator<char> >::construct<char *,char * &>
_TEXT	ENDS
; Function compile flags: /Ogtp
; File c:\program files (x86)\microsoft visual studio 14.0\vc\include\type_traits
;	COMDAT ??$forward@AAPAD@std@@YAAAPADAAPAD@Z
_TEXT	SEGMENT
__Arg$ = 8						; size = 4
??$forward@AAPAD@std@@YAAAPADAAPAD@Z PROC		; std::forward<char * &>, COMDAT

; 1275 : 	{	// forward an lvalue as either an lvalue or an rvalue

  00000	55		 push	 ebp
  00001	8b ec		 mov	 ebp, esp

; 1276 : 	return (static_cast<_Ty&&>(_Arg));

  00003	8b 45 08	 mov	 eax, DWORD PTR __Arg$[ebp]

; 1277 : 	}

  00006	5d		 pop	 ebp
  00007	c3		 ret	 0
??$forward@AAPAD@std@@YAAAPADAAPAD@Z ENDP		; std::forward<char * &>
_TEXT	ENDS
; Function compile flags: /Ogtp
; File c:\program files (x86)\microsoft visual studio 14.0\vc\include\xmemory0
;	COMDAT ??$destroy@PAD@?$allocator_traits@V?$allocator@D@std@@@std@@SAXAAV?$allocator@D@1@PAPAD@Z
_TEXT	SEGMENT
__Al$ = 8						; size = 4
__Ptr$ = 12						; size = 4
??$destroy@PAD@?$allocator_traits@V?$allocator@D@std@@@std@@SAXAAV?$allocator@D@1@PAPAD@Z PROC ; std::allocator_traits<std::allocator<char> >::destroy<char *>, COMDAT

; 864  : 		_Al.destroy(_Ptr);
; 865  : 		}

  00000	c3		 ret	 0
??$destroy@PAD@?$allocator_traits@V?$allocator@D@std@@@std@@SAXAAV?$allocator@D@1@PAPAD@Z ENDP ; std::allocator_traits<std::allocator<char> >::destroy<char *>
_TEXT	ENDS
; Function compile flags: /Ogtp
; File c:\program files (x86)\microsoft visual studio 14.0\vc\include\xmemory0
;	COMDAT ??$destroy@PA_W@?$allocator_traits@V?$allocator@_W@std@@@std@@SAXAAV?$allocator@_W@1@PAPA_W@Z
_TEXT	SEGMENT
__Al$ = 8						; size = 4
__Ptr$ = 12						; size = 4
??$destroy@PA_W@?$allocator_traits@V?$allocator@_W@std@@@std@@SAXAAV?$allocator@_W@1@PAPA_W@Z PROC ; std::allocator_traits<std::allocator<wchar_t> >::destroy<wchar_t *>, COMDAT

; 864  : 		_Al.destroy(_Ptr);
; 865  : 		}

  00000	c3		 ret	 0
??$destroy@PA_W@?$allocator_traits@V?$allocator@_W@std@@@std@@SAXAAV?$allocator@_W@1@PAPA_W@Z ENDP ; std::allocator_traits<std::allocator<wchar_t> >::destroy<wchar_t *>
_TEXT	ENDS
; Function compile flags: /Ogtp
; File c:\program files (x86)\microsoft visual studio 14.0\vc\include\type_traits
;	COMDAT ??$forward@V?$allocator@_W@std@@@std@@YA$$QAV?$allocator@_W@0@AAV10@@Z
_TEXT	SEGMENT
__Arg$ = 8						; size = 4
??$forward@V?$allocator@_W@std@@@std@@YA$$QAV?$allocator@_W@0@AAV10@@Z PROC ; std::forward<std::allocator<wchar_t> >, COMDAT

; 1275 : 	{	// forward an lvalue as either an lvalue or an rvalue

  00000	55		 push	 ebp
  00001	8b ec		 mov	 ebp, esp

; 1276 : 	return (static_cast<_Ty&&>(_Arg));

  00003	8b 45 08	 mov	 eax, DWORD PTR __Arg$[ebp]

; 1277 : 	}

  00006	5d		 pop	 ebp
  00007	c3		 ret	 0
??$forward@V?$allocator@_W@std@@@std@@YA$$QAV?$allocator@_W@0@AAV10@@Z ENDP ; std::forward<std::allocator<wchar_t> >
_TEXT	ENDS
; Function compile flags: /Ogtp
; File c:\program files (x86)\microsoft visual studio 14.0\vc\include\xutility
;	COMDAT ??$?0U?$_Wrap_alloc@V?$allocator@_W@std@@@std@@$$V@?$_Compressed_pair@U?$_Wrap_alloc@V?$allocator@_W@std@@@std@@V?$_String_val@U?$_Simple_types@_W@std@@@2@$00@std@@QAE@U_One_then_variadic_args_t@1@$$QAU?$_Wrap_alloc@V?$allocator@_W@std@@@1@@Z
_TEXT	SEGMENT
___formal$ = 8						; size = 1
__Val1$ = 12						; size = 4
??$?0U?$_Wrap_alloc@V?$allocator@_W@std@@@std@@$$V@?$_Compressed_pair@U?$_Wrap_alloc@V?$allocator@_W@std@@@std@@V?$_String_val@U?$_Simple_types@_W@std@@@2@$00@std@@QAE@U_One_then_variadic_args_t@1@$$QAU?$_Wrap_alloc@V?$allocator@_W@std@@@1@@Z PROC ; std::_Compressed_pair<std::_Wrap_alloc<std::allocator<wchar_t> >,std::_String_val<std::_Simple_types<wchar_t> >,1>::_Compressed_pair<std::_Wrap_alloc<std::allocator<wchar_t> >,std::_String_val<std::_Simple_types<wchar_t> >,1><std::_Wrap_alloc<std::allocator<wchar_t> > >, COMDAT
; _this$ = ecx

; 288  : 			_Myval2(_STD forward<_Other2>(_Val2)...)

  00000	c7 41 10 00 00
	00 00		 mov	 DWORD PTR [ecx+16], 0

; 290  : 		}

  00007	8b c1		 mov	 eax, ecx
  00009	c7 41 14 00 00
	00 00		 mov	 DWORD PTR [ecx+20], 0
  00010	c2 08 00	 ret	 8
??$?0U?$_Wrap_alloc@V?$allocator@_W@std@@@std@@$$V@?$_Compressed_pair@U?$_Wrap_alloc@V?$allocator@_W@std@@@std@@V?$_String_val@U?$_Simple_types@_W@std@@@2@$00@std@@QAE@U_One_then_variadic_args_t@1@$$QAU?$_Wrap_alloc@V?$allocator@_W@std@@@1@@Z ENDP ; std::_Compressed_pair<std::_Wrap_alloc<std::allocator<wchar_t> >,std::_String_val<std::_Simple_types<wchar_t> >,1>::_Compressed_pair<std::_Wrap_alloc<std::allocator<wchar_t> >,std::_String_val<std::_Simple_types<wchar_t> >,1><std::_Wrap_alloc<std::allocator<wchar_t> > >
_TEXT	ENDS
; Function compile flags: /Ogtp
; File c:\program files (x86)\microsoft visual studio 14.0\vc\include\type_traits
;	COMDAT ??$forward@U?$_Wrap_alloc@V?$allocator@_W@std@@@std@@@std@@YA$$QAU?$_Wrap_alloc@V?$allocator@_W@std@@@0@AAU10@@Z
_TEXT	SEGMENT
__Arg$ = 8						; size = 4
??$forward@U?$_Wrap_alloc@V?$allocator@_W@std@@@std@@@std@@YA$$QAU?$_Wrap_alloc@V?$allocator@_W@std@@@0@AAU10@@Z PROC ; std::forward<std::_Wrap_alloc<std::allocator<wchar_t> > >, COMDAT

; 1275 : 	{	// forward an lvalue as either an lvalue or an rvalue

  00000	55		 push	 ebp
  00001	8b ec		 mov	 ebp, esp

; 1276 : 	return (static_cast<_Ty&&>(_Arg));

  00003	8b 45 08	 mov	 eax, DWORD PTR __Arg$[ebp]

; 1277 : 	}

  00006	5d		 pop	 ebp
  00007	c3		 ret	 0
??$forward@U?$_Wrap_alloc@V?$allocator@_W@std@@@std@@@std@@YA$$QAU?$_Wrap_alloc@V?$allocator@_W@std@@@0@AAU10@@Z ENDP ; std::forward<std::_Wrap_alloc<std::allocator<wchar_t> > >
_TEXT	ENDS
; Function compile flags: /Ogtp
; File c:\program files (x86)\microsoft visual studio 14.0\vc\include\type_traits
;	COMDAT ??$move@AAV?$basic_string@_WU?$char_traits@_W@std@@V?$allocator@_W@2@@std@@@std@@YA$$QAV?$basic_string@_WU?$char_traits@_W@std@@V?$allocator@_W@2@@0@AAV10@@Z
_TEXT	SEGMENT
__Arg$ = 8						; size = 4
??$move@AAV?$basic_string@_WU?$char_traits@_W@std@@V?$allocator@_W@2@@std@@@std@@YA$$QAV?$basic_string@_WU?$char_traits@_W@std@@V?$allocator@_W@2@@0@AAV10@@Z PROC ; std::move<std::basic_string<wchar_t,std::char_traits<wchar_t>,std::allocator<wchar_t> > &>, COMDAT

; 1291 : 	{	// forward _Arg as movable

  00000	55		 push	 ebp
  00001	8b ec		 mov	 ebp, esp

; 1292 : 	return (static_cast<typename remove_reference<_Ty>::type&&>(_Arg));

  00003	8b 45 08	 mov	 eax, DWORD PTR __Arg$[ebp]

; 1293 : 	}

  00006	5d		 pop	 ebp
  00007	c3		 ret	 0
??$move@AAV?$basic_string@_WU?$char_traits@_W@std@@V?$allocator@_W@2@@std@@@std@@YA$$QAV?$basic_string@_WU?$char_traits@_W@std@@V?$allocator@_W@2@@0@AAV10@@Z ENDP ; std::move<std::basic_string<wchar_t,std::char_traits<wchar_t>,std::allocator<wchar_t> > &>
_TEXT	ENDS
; Function compile flags: /Ogtp
; File c:\program files (x86)\microsoft visual studio 14.0\vc\include\xmemory0
;	COMDAT ??$construct@PAU?$_List_node@USecurityTokenKeyfilePath@GostCrypt@@PAX@std@@AAPAU12@@?$_Wrap_alloc@V?$allocator@U?$_List_node@USecurityTokenKeyfilePath@GostCrypt@@PAX@std@@@std@@@std@@QAEXPAPAU?$_List_node@USecurityTokenKeyfilePath@GostCrypt@@PAX@1@AAPAU21@@Z
_TEXT	SEGMENT
__Ptr$ = 8						; size = 4
_<_Args_0>$ = 12					; size = 4
??$construct@PAU?$_List_node@USecurityTokenKeyfilePath@GostCrypt@@PAX@std@@AAPAU12@@?$_Wrap_alloc@V?$allocator@U?$_List_node@USecurityTokenKeyfilePath@GostCrypt@@PAX@std@@@std@@@std@@QAEXPAPAU?$_List_node@USecurityTokenKeyfilePath@GostCrypt@@PAX@1@AAPAU21@@Z PROC ; std::_Wrap_alloc<std::allocator<std::_List_node<GostCrypt::SecurityTokenKeyfilePath,void *> > >::construct<std::_List_node<GostCrypt::SecurityTokenKeyfilePath,void *> *,std::_List_node<GostCrypt::SecurityTokenKeyfilePath,void *> * &>, COMDAT
; _this$ = ecx

; 994  : 		{	// construct _Ty(_Types...) at _Ptr

  00000	55		 push	 ebp
  00001	8b ec		 mov	 ebp, esp

; 995  : 		_Mytraits::construct(*this, _Ptr,

  00003	8b 4d 08	 mov	 ecx, DWORD PTR __Ptr$[ebp]
  00006	85 c9		 test	 ecx, ecx
  00008	74 07		 je	 SHORT $LN13@construct
  0000a	8b 45 0c	 mov	 eax, DWORD PTR _<_Args_0>$[ebp]
  0000d	8b 00		 mov	 eax, DWORD PTR [eax]
  0000f	89 01		 mov	 DWORD PTR [ecx], eax
$LN13@construct:

; 996  : 			_STD forward<_Types>(_Args)...);
; 997  : 		}

  00011	5d		 pop	 ebp
  00012	c2 08 00	 ret	 8
??$construct@PAU?$_List_node@USecurityTokenKeyfilePath@GostCrypt@@PAX@std@@AAPAU12@@?$_Wrap_alloc@V?$allocator@U?$_List_node@USecurityTokenKeyfilePath@GostCrypt@@PAX@std@@@std@@@std@@QAEXPAPAU?$_List_node@USecurityTokenKeyfilePath@GostCrypt@@PAX@1@AAPAU21@@Z ENDP ; std::_Wrap_alloc<std::allocator<std::_List_node<GostCrypt::SecurityTokenKeyfilePath,void *> > >::construct<std::_List_node<GostCrypt::SecurityTokenKeyfilePath,void *> *,std::_List_node<GostCrypt::SecurityTokenKeyfilePath,void *> * &>
_TEXT	ENDS
; Function compile flags: /Ogtp
; File c:\program files (x86)\microsoft visual studio 14.0\vc\include\xmemory0
;	COMDAT ??$construct@PA_WAAPA_W@?$_Wrap_alloc@V?$allocator@_W@std@@@std@@QAEXPAPA_WAAPA_W@Z
_TEXT	SEGMENT
__Ptr$ = 8						; size = 4
_<_Args_0>$ = 12					; size = 4
??$construct@PA_WAAPA_W@?$_Wrap_alloc@V?$allocator@_W@std@@@std@@QAEXPAPA_WAAPA_W@Z PROC ; std::_Wrap_alloc<std::allocator<wchar_t> >::construct<wchar_t *,wchar_t * &>, COMDAT
; _this$ = ecx

; 994  : 		{	// construct _Ty(_Types...) at _Ptr

  00000	55		 push	 ebp
  00001	8b ec		 mov	 ebp, esp

; 995  : 		_Mytraits::construct(*this, _Ptr,

  00003	8b 4d 08	 mov	 ecx, DWORD PTR __Ptr$[ebp]
  00006	85 c9		 test	 ecx, ecx
  00008	74 07		 je	 SHORT $LN13@construct
  0000a	8b 45 0c	 mov	 eax, DWORD PTR _<_Args_0>$[ebp]
  0000d	8b 00		 mov	 eax, DWORD PTR [eax]
  0000f	89 01		 mov	 DWORD PTR [ecx], eax
$LN13@construct:

; 996  : 			_STD forward<_Types>(_Args)...);
; 997  : 		}

  00011	5d		 pop	 ebp
  00012	c2 08 00	 ret	 8
??$construct@PA_WAAPA_W@?$_Wrap_alloc@V?$allocator@_W@std@@@std@@QAEXPAPA_WAAPA_W@Z ENDP ; std::_Wrap_alloc<std::allocator<wchar_t> >::construct<wchar_t *,wchar_t * &>
_TEXT	ENDS
; Function compile flags: /Ogtp
; File c:\program files (x86)\microsoft visual studio 14.0\vc\include\xmemory0
;	COMDAT ??$destroy@USecurityTokenKeyfilePath@GostCrypt@@@?$_Wrap_alloc@V?$allocator@U?$_List_node@USecurityTokenKeyfilePath@GostCrypt@@PAX@std@@@std@@@std@@QAEXPAUSecurityTokenKeyfilePath@GostCrypt@@@Z
_TEXT	SEGMENT
__Ptr$ = 8						; size = 4
??$destroy@USecurityTokenKeyfilePath@GostCrypt@@@?$_Wrap_alloc@V?$allocator@U?$_List_node@USecurityTokenKeyfilePath@GostCrypt@@PAX@std@@@std@@@std@@QAEXPAUSecurityTokenKeyfilePath@GostCrypt@@@Z PROC ; std::_Wrap_alloc<std::allocator<std::_List_node<GostCrypt::SecurityTokenKeyfilePath,void *> > >::destroy<GostCrypt::SecurityTokenKeyfilePath>, COMDAT
; _this$ = ecx

; 1002 : 		{	// destroy object at _Ptr

  00000	55		 push	 ebp
  00001	8b ec		 mov	 ebp, esp
  00003	56		 push	 esi

; 1003 : 		_Mytraits::destroy(*this, _Ptr);

  00004	8b 75 08	 mov	 esi, DWORD PTR __Ptr$[ebp]
  00007	8b 46 14	 mov	 eax, DWORD PTR [esi+20]
  0000a	83 f8 08	 cmp	 eax, 8
  0000d	72 0b		 jb	 SHORT $LN20@destroy
  0000f	40		 inc	 eax
  00010	8b ce		 mov	 ecx, esi
  00012	50		 push	 eax
  00013	ff 36		 push	 DWORD PTR [esi]
  00015	e8 00 00 00 00	 call	 ?deallocate@?$_Wrap_alloc@V?$allocator@_W@std@@@std@@QAEXPA_WI@Z ; std::_Wrap_alloc<std::allocator<wchar_t> >::deallocate
$LN20@destroy:
  0001a	c7 46 14 07 00
	00 00		 mov	 DWORD PTR [esi+20], 7
  00021	83 7e 14 08	 cmp	 DWORD PTR [esi+20], 8
  00025	c7 46 10 00 00
	00 00		 mov	 DWORD PTR [esi+16], 0
  0002c	72 0c		 jb	 SHORT $LN110@destroy
  0002e	8b 06		 mov	 eax, DWORD PTR [esi]
  00030	33 c9		 xor	 ecx, ecx
  00032	5e		 pop	 esi
  00033	66 89 08	 mov	 WORD PTR [eax], cx

; 1004 : 		}

  00036	5d		 pop	 ebp
  00037	c2 04 00	 ret	 4

; 1003 : 		_Mytraits::destroy(*this, _Ptr);

$LN110@destroy:
  0003a	33 c0		 xor	 eax, eax
  0003c	66 89 06	 mov	 WORD PTR [esi], ax
  0003f	5e		 pop	 esi

; 1004 : 		}

  00040	5d		 pop	 ebp
  00041	c2 04 00	 ret	 4
??$destroy@USecurityTokenKeyfilePath@GostCrypt@@@?$_Wrap_alloc@V?$allocator@U?$_List_node@USecurityTokenKeyfilePath@GostCrypt@@PAX@std@@@std@@@std@@QAEXPAUSecurityTokenKeyfilePath@GostCrypt@@@Z ENDP ; std::_Wrap_alloc<std::allocator<std::_List_node<GostCrypt::SecurityTokenKeyfilePath,void *> > >::destroy<GostCrypt::SecurityTokenKeyfilePath>
_TEXT	ENDS
; Function compile flags: /Ogtp
; File c:\program files (x86)\microsoft visual studio 14.0\vc\include\xstddef
;	COMDAT ??$addressof@USecurityTokenKeyfilePath@GostCrypt@@@std@@YAPAUSecurityTokenKeyfilePath@GostCrypt@@AAU12@@Z
_TEXT	SEGMENT
__Val$ = 8						; size = 4
??$addressof@USecurityTokenKeyfilePath@GostCrypt@@@std@@YAPAUSecurityTokenKeyfilePath@GostCrypt@@AAU12@@Z PROC ; std::addressof<GostCrypt::SecurityTokenKeyfilePath>, COMDAT

; 724  : 	{	// return address of _Val

  00000	55		 push	 ebp
  00001	8b ec		 mov	 ebp, esp

; 725  : 	return (__builtin_addressof(_Val));

  00003	8b 45 08	 mov	 eax, DWORD PTR __Val$[ebp]

; 726  : 	}

  00006	5d		 pop	 ebp
  00007	c3		 ret	 0
??$addressof@USecurityTokenKeyfilePath@GostCrypt@@@std@@YAPAUSecurityTokenKeyfilePath@GostCrypt@@AAU12@@Z ENDP ; std::addressof<GostCrypt::SecurityTokenKeyfilePath>
_TEXT	ENDS
; Function compile flags: /Ogtp
; File c:\program files (x86)\microsoft visual studio 14.0\vc\include\xmemory0
;	COMDAT ??$_Destroy_range@V?$allocator@E@std@@PAE@std@@YAXPAE0AAU?$_Wrap_alloc@V?$allocator@E@std@@@0@@Z
_TEXT	SEGMENT
__First$ = 8						; size = 4
__Last$ = 12						; size = 4
__Al$ = 16						; size = 4
??$_Destroy_range@V?$allocator@E@std@@PAE@std@@YAXPAE0AAU?$_Wrap_alloc@V?$allocator@E@std@@@0@@Z PROC ; std::_Destroy_range<std::allocator<unsigned char>,unsigned char *>, COMDAT

; 1115 : 		// note that this is an optimization for debug mode codegen;
; 1116 : 		// in release mode the BE removes all of this
; 1117 : 	typedef typename _Alloc::value_type _Val;
; 1118 : 	_Destroy_range1(_First, _Last, _Al, typename conjunction<
; 1119 : 		is_trivially_destructible<_Val>,
; 1120 : 		_Uses_default_destroy<_Alloc, _Val *>>::type());
; 1121 : 	}

  00000	c3		 ret	 0
??$_Destroy_range@V?$allocator@E@std@@PAE@std@@YAXPAE0AAU?$_Wrap_alloc@V?$allocator@E@std@@@0@@Z ENDP ; std::_Destroy_range<std::allocator<unsigned char>,unsigned char *>
_TEXT	ENDS
; Function compile flags: /Ogtp
; File c:\program files (x86)\microsoft visual studio 14.0\vc\include\xutility
;	COMDAT ??$?0$$V@?$_Compressed_pair@U?$_Wrap_alloc@V?$allocator@U?$_List_node@USecurityTokenKeyfilePath@GostCrypt@@PAX@std@@@std@@@std@@V?$_List_val@U?$_List_simple_types@USecurityTokenKeyfilePath@GostCrypt@@@std@@@2@$00@std@@QAE@U_Zero_then_variadic_args_t@1@@Z
_TEXT	SEGMENT
___formal$ = 8						; size = 1
??$?0$$V@?$_Compressed_pair@U?$_Wrap_alloc@V?$allocator@U?$_List_node@USecurityTokenKeyfilePath@GostCrypt@@PAX@std@@@std@@@std@@V?$_List_val@U?$_List_simple_types@USecurityTokenKeyfilePath@GostCrypt@@@std@@@2@$00@std@@QAE@U_Zero_then_variadic_args_t@1@@Z PROC ; std::_Compressed_pair<std::_Wrap_alloc<std::allocator<std::_List_node<GostCrypt::SecurityTokenKeyfilePath,void *> > >,std::_List_val<std::_List_simple_types<GostCrypt::SecurityTokenKeyfilePath> >,1>::_Compressed_pair<std::_Wrap_alloc<std::allocator<std::_List_node<GostCrypt::SecurityTokenKeyfilePath,void *> > >,std::_List_val<std::_List_simple_types<GostCrypt::SecurityTokenKeyfilePath> >,1><>, COMDAT
; _this$ = ecx

; 279  : 		: _Ty1(), _Myval2(_STD forward<_Other2>(_Val2)...)

  00000	c7 01 00 00 00
	00		 mov	 DWORD PTR [ecx], 0

; 281  : 		}

  00006	8b c1		 mov	 eax, ecx
  00008	c7 41 04 00 00
	00 00		 mov	 DWORD PTR [ecx+4], 0
  0000f	c2 04 00	 ret	 4
??$?0$$V@?$_Compressed_pair@U?$_Wrap_alloc@V?$allocator@U?$_List_node@USecurityTokenKeyfilePath@GostCrypt@@PAX@std@@@std@@@std@@V?$_List_val@U?$_List_simple_types@USecurityTokenKeyfilePath@GostCrypt@@@std@@@2@$00@std@@QAE@U_Zero_then_variadic_args_t@1@@Z ENDP ; std::_Compressed_pair<std::_Wrap_alloc<std::allocator<std::_List_node<GostCrypt::SecurityTokenKeyfilePath,void *> > >,std::_List_val<std::_List_simple_types<GostCrypt::SecurityTokenKeyfilePath> >,1>::_Compressed_pair<std::_Wrap_alloc<std::allocator<std::_List_node<GostCrypt::SecurityTokenKeyfilePath,void *> > >,std::_List_val<std::_List_simple_types<GostCrypt::SecurityTokenKeyfilePath> >,1><>
_TEXT	ENDS
; Function compile flags: /Ogtp
; File c:\program files (x86)\microsoft visual studio 14.0\vc\include\xmemory0
;	COMDAT ??$destroy@PAU?$_List_node@USecurityTokenKeyfilePath@GostCrypt@@PAX@std@@@?$_Wrap_alloc@V?$allocator@U?$_List_node@USecurityTokenKeyfilePath@GostCrypt@@PAX@std@@@std@@@std@@QAEXPAPAU?$_List_node@USecurityTokenKeyfilePath@GostCrypt@@PAX@1@@Z
_TEXT	SEGMENT
__Ptr$ = 8						; size = 4
??$destroy@PAU?$_List_node@USecurityTokenKeyfilePath@GostCrypt@@PAX@std@@@?$_Wrap_alloc@V?$allocator@U?$_List_node@USecurityTokenKeyfilePath@GostCrypt@@PAX@std@@@std@@@std@@QAEXPAPAU?$_List_node@USecurityTokenKeyfilePath@GostCrypt@@PAX@1@@Z PROC ; std::_Wrap_alloc<std::allocator<std::_List_node<GostCrypt::SecurityTokenKeyfilePath,void *> > >::destroy<std::_List_node<GostCrypt::SecurityTokenKeyfilePath,void *> *>, COMDAT
; _this$ = ecx

; 1003 : 		_Mytraits::destroy(*this, _Ptr);
; 1004 : 		}

  00000	c2 04 00	 ret	 4
??$destroy@PAU?$_List_node@USecurityTokenKeyfilePath@GostCrypt@@PAX@std@@@?$_Wrap_alloc@V?$allocator@U?$_List_node@USecurityTokenKeyfilePath@GostCrypt@@PAX@std@@@std@@@std@@QAEXPAPAU?$_List_node@USecurityTokenKeyfilePath@GostCrypt@@PAX@1@@Z ENDP ; std::_Wrap_alloc<std::allocator<std::_List_node<GostCrypt::SecurityTokenKeyfilePath,void *> > >::destroy<std::_List_node<GostCrypt::SecurityTokenKeyfilePath,void *> *>
_TEXT	ENDS
; Function compile flags: /Ogtp
; File c:\program files (x86)\microsoft visual studio 14.0\vc\include\xstddef
;	COMDAT ??$addressof@PAU?$_List_node@USecurityTokenKeyfilePath@GostCrypt@@PAX@std@@@std@@YAPAPAU?$_List_node@USecurityTokenKeyfilePath@GostCrypt@@PAX@0@AAPAU10@@Z
_TEXT	SEGMENT
__Val$ = 8						; size = 4
??$addressof@PAU?$_List_node@USecurityTokenKeyfilePath@GostCrypt@@PAX@std@@@std@@YAPAPAU?$_List_node@USecurityTokenKeyfilePath@GostCrypt@@PAX@0@AAPAU10@@Z PROC ; std::addressof<std::_List_node<GostCrypt::SecurityTokenKeyfilePath,void *> *>, COMDAT

; 724  : 	{	// return address of _Val

  00000	55		 push	 ebp
  00001	8b ec		 mov	 ebp, esp

; 725  : 	return (__builtin_addressof(_Val));

  00003	8b 45 08	 mov	 eax, DWORD PTR __Val$[ebp]

; 726  : 	}

  00006	5d		 pop	 ebp
  00007	c3		 ret	 0
??$addressof@PAU?$_List_node@USecurityTokenKeyfilePath@GostCrypt@@PAX@std@@@std@@YAPAPAU?$_List_node@USecurityTokenKeyfilePath@GostCrypt@@PAX@0@AAPAU10@@Z ENDP ; std::addressof<std::_List_node<GostCrypt::SecurityTokenKeyfilePath,void *> *>
_TEXT	ENDS
; Function compile flags: /Ogtp
; File c:\program files (x86)\microsoft visual studio 14.0\vc\include\xmemory0
;	COMDAT ??$construct@PADAAPAD@?$_Wrap_alloc@V?$allocator@D@std@@@std@@QAEXPAPADAAPAD@Z
_TEXT	SEGMENT
__Ptr$ = 8						; size = 4
_<_Args_0>$ = 12					; size = 4
??$construct@PADAAPAD@?$_Wrap_alloc@V?$allocator@D@std@@@std@@QAEXPAPADAAPAD@Z PROC ; std::_Wrap_alloc<std::allocator<char> >::construct<char *,char * &>, COMDAT
; _this$ = ecx

; 994  : 		{	// construct _Ty(_Types...) at _Ptr

  00000	55		 push	 ebp
  00001	8b ec		 mov	 ebp, esp

; 995  : 		_Mytraits::construct(*this, _Ptr,

  00003	8b 4d 08	 mov	 ecx, DWORD PTR __Ptr$[ebp]
  00006	85 c9		 test	 ecx, ecx
  00008	74 07		 je	 SHORT $LN13@construct
  0000a	8b 45 0c	 mov	 eax, DWORD PTR _<_Args_0>$[ebp]
  0000d	8b 00		 mov	 eax, DWORD PTR [eax]
  0000f	89 01		 mov	 DWORD PTR [ecx], eax
$LN13@construct:

; 996  : 			_STD forward<_Types>(_Args)...);
; 997  : 		}

  00011	5d		 pop	 ebp
  00012	c2 08 00	 ret	 8
??$construct@PADAAPAD@?$_Wrap_alloc@V?$allocator@D@std@@@std@@QAEXPAPADAAPAD@Z ENDP ; std::_Wrap_alloc<std::allocator<char> >::construct<char *,char * &>
_TEXT	ENDS
; Function compile flags: /Ogtp
; File c:\program files (x86)\microsoft visual studio 14.0\vc\include\xstddef
;	COMDAT ??$_Unfancy@D@std@@YAPADPAD@Z
_TEXT	SEGMENT
__Ptr$ = 8						; size = 4
??$_Unfancy@D@std@@YAPADPAD@Z PROC			; std::_Unfancy<char>, COMDAT

; 739  : 	{	// do nothing for plain pointers

  00000	55		 push	 ebp
  00001	8b ec		 mov	 ebp, esp

; 740  : 	return (_Ptr);

  00003	8b 45 08	 mov	 eax, DWORD PTR __Ptr$[ebp]

; 741  : 	}

  00006	5d		 pop	 ebp
  00007	c3		 ret	 0
??$_Unfancy@D@std@@YAPADPAD@Z ENDP			; std::_Unfancy<char>
_TEXT	ENDS
; Function compile flags: /Ogtp
; File c:\program files (x86)\microsoft visual studio 14.0\vc\include\xmemory0
;	COMDAT ??$destroy@PAD@?$_Wrap_alloc@V?$allocator@D@std@@@std@@QAEXPAPAD@Z
_TEXT	SEGMENT
__Ptr$ = 8						; size = 4
??$destroy@PAD@?$_Wrap_alloc@V?$allocator@D@std@@@std@@QAEXPAPAD@Z PROC ; std::_Wrap_alloc<std::allocator<char> >::destroy<char *>, COMDAT
; _this$ = ecx

; 1003 : 		_Mytraits::destroy(*this, _Ptr);
; 1004 : 		}

  00000	c2 04 00	 ret	 4
??$destroy@PAD@?$_Wrap_alloc@V?$allocator@D@std@@@std@@QAEXPAPAD@Z ENDP ; std::_Wrap_alloc<std::allocator<char> >::destroy<char *>
_TEXT	ENDS
; Function compile flags: /Ogtp
; File c:\program files (x86)\microsoft visual studio 14.0\vc\include\xstddef
;	COMDAT ??$addressof@PAD@std@@YAPAPADAAPAD@Z
_TEXT	SEGMENT
__Val$ = 8						; size = 4
??$addressof@PAD@std@@YAPAPADAAPAD@Z PROC		; std::addressof<char *>, COMDAT

; 724  : 	{	// return address of _Val

  00000	55		 push	 ebp
  00001	8b ec		 mov	 ebp, esp

; 725  : 	return (__builtin_addressof(_Val));

  00003	8b 45 08	 mov	 eax, DWORD PTR __Val$[ebp]

; 726  : 	}

  00006	5d		 pop	 ebp
  00007	c3		 ret	 0
??$addressof@PAD@std@@YAPAPADAAPAD@Z ENDP		; std::addressof<char *>
_TEXT	ENDS
; Function compile flags: /Ogtp
; File c:\program files (x86)\microsoft visual studio 14.0\vc\include\xstddef
;	COMDAT ??$_Unfancy@_W@std@@YAPA_WPA_W@Z
_TEXT	SEGMENT
__Ptr$ = 8						; size = 4
??$_Unfancy@_W@std@@YAPA_WPA_W@Z PROC			; std::_Unfancy<wchar_t>, COMDAT

; 739  : 	{	// do nothing for plain pointers

  00000	55		 push	 ebp
  00001	8b ec		 mov	 ebp, esp

; 740  : 	return (_Ptr);

  00003	8b 45 08	 mov	 eax, DWORD PTR __Ptr$[ebp]

; 741  : 	}

  00006	5d		 pop	 ebp
  00007	c3		 ret	 0
??$_Unfancy@_W@std@@YAPA_WPA_W@Z ENDP			; std::_Unfancy<wchar_t>
_TEXT	ENDS
; Function compile flags: /Ogtp
; File c:\program files (x86)\microsoft visual studio 14.0\vc\include\xmemory0
;	COMDAT ??$destroy@PA_W@?$_Wrap_alloc@V?$allocator@_W@std@@@std@@QAEXPAPA_W@Z
_TEXT	SEGMENT
__Ptr$ = 8						; size = 4
??$destroy@PA_W@?$_Wrap_alloc@V?$allocator@_W@std@@@std@@QAEXPAPA_W@Z PROC ; std::_Wrap_alloc<std::allocator<wchar_t> >::destroy<wchar_t *>, COMDAT
; _this$ = ecx

; 1003 : 		_Mytraits::destroy(*this, _Ptr);
; 1004 : 		}

  00000	c2 04 00	 ret	 4
??$destroy@PA_W@?$_Wrap_alloc@V?$allocator@_W@std@@@std@@QAEXPAPA_W@Z ENDP ; std::_Wrap_alloc<std::allocator<wchar_t> >::destroy<wchar_t *>
_TEXT	ENDS
; Function compile flags: /Ogtp
; File c:\program files (x86)\microsoft visual studio 14.0\vc\include\xstddef
;	COMDAT ??$addressof@PA_W@std@@YAPAPA_WAAPA_W@Z
_TEXT	SEGMENT
__Val$ = 8						; size = 4
??$addressof@PA_W@std@@YAPAPA_WAAPA_W@Z PROC		; std::addressof<wchar_t *>, COMDAT

; 724  : 	{	// return address of _Val

  00000	55		 push	 ebp
  00001	8b ec		 mov	 ebp, esp

; 725  : 	return (__builtin_addressof(_Val));

  00003	8b 45 08	 mov	 eax, DWORD PTR __Val$[ebp]

; 726  : 	}

  00006	5d		 pop	 ebp
  00007	c3		 ret	 0
??$addressof@PA_W@std@@YAPAPA_WAAPA_W@Z ENDP		; std::addressof<wchar_t *>
_TEXT	ENDS
; Function compile flags: /Ogtp
; File c:\program files (x86)\microsoft visual studio 14.0\vc\include\xutility
;	COMDAT ??$?0$$V@?$_Compressed_pair@U?$_Wrap_alloc@V?$allocator@D@std@@@std@@V?$_String_val@U?$_Simple_types@D@std@@@2@$00@std@@QAE@U_Zero_then_variadic_args_t@1@@Z
_TEXT	SEGMENT
___formal$ = 8						; size = 1
??$?0$$V@?$_Compressed_pair@U?$_Wrap_alloc@V?$allocator@D@std@@@std@@V?$_String_val@U?$_Simple_types@D@std@@@2@$00@std@@QAE@U_Zero_then_variadic_args_t@1@@Z PROC ; std::_Compressed_pair<std::_Wrap_alloc<std::allocator<char> >,std::_String_val<std::_Simple_types<char> >,1>::_Compressed_pair<std::_Wrap_alloc<std::allocator<char> >,std::_String_val<std::_Simple_types<char> >,1><>, COMDAT
; _this$ = ecx

; 279  : 		: _Ty1(), _Myval2(_STD forward<_Other2>(_Val2)...)

  00000	c7 41 10 00 00
	00 00		 mov	 DWORD PTR [ecx+16], 0

; 281  : 		}

  00007	8b c1		 mov	 eax, ecx
  00009	c7 41 14 00 00
	00 00		 mov	 DWORD PTR [ecx+20], 0
  00010	c2 04 00	 ret	 4
??$?0$$V@?$_Compressed_pair@U?$_Wrap_alloc@V?$allocator@D@std@@@std@@V?$_String_val@U?$_Simple_types@D@std@@@2@$00@std@@QAE@U_Zero_then_variadic_args_t@1@@Z ENDP ; std::_Compressed_pair<std::_Wrap_alloc<std::allocator<char> >,std::_String_val<std::_Simple_types<char> >,1>::_Compressed_pair<std::_Wrap_alloc<std::allocator<char> >,std::_String_val<std::_Simple_types<char> >,1><>
_TEXT	ENDS
; Function compile flags: /Ogtp
; File c:\program files (x86)\microsoft visual studio 14.0\vc\include\xutility
;	COMDAT ??$?0$$V@?$_Compressed_pair@U?$_Wrap_alloc@V?$allocator@_W@std@@@std@@V?$_String_val@U?$_Simple_types@_W@std@@@2@$00@std@@QAE@U_Zero_then_variadic_args_t@1@@Z
_TEXT	SEGMENT
___formal$ = 8						; size = 1
??$?0$$V@?$_Compressed_pair@U?$_Wrap_alloc@V?$allocator@_W@std@@@std@@V?$_String_val@U?$_Simple_types@_W@std@@@2@$00@std@@QAE@U_Zero_then_variadic_args_t@1@@Z PROC ; std::_Compressed_pair<std::_Wrap_alloc<std::allocator<wchar_t> >,std::_String_val<std::_Simple_types<wchar_t> >,1>::_Compressed_pair<std::_Wrap_alloc<std::allocator<wchar_t> >,std::_String_val<std::_Simple_types<wchar_t> >,1><>, COMDAT
; _this$ = ecx

; 279  : 		: _Ty1(), _Myval2(_STD forward<_Other2>(_Val2)...)

  00000	c7 41 10 00 00
	00 00		 mov	 DWORD PTR [ecx+16], 0

; 281  : 		}

  00007	8b c1		 mov	 eax, ecx
  00009	c7 41 14 00 00
	00 00		 mov	 DWORD PTR [ecx+20], 0
  00010	c2 04 00	 ret	 4
??$?0$$V@?$_Compressed_pair@U?$_Wrap_alloc@V?$allocator@_W@std@@@std@@V?$_String_val@U?$_Simple_types@_W@std@@@2@$00@std@@QAE@U_Zero_then_variadic_args_t@1@@Z ENDP ; std::_Compressed_pair<std::_Wrap_alloc<std::allocator<wchar_t> >,std::_String_val<std::_Simple_types<wchar_t> >,1>::_Compressed_pair<std::_Wrap_alloc<std::allocator<wchar_t> >,std::_String_val<std::_Simple_types<wchar_t> >,1><>
_TEXT	ENDS
; Function compile flags: /Ogtp
; File c:\program files (x86)\microsoft visual studio 14.0\vc\include\xmemory0
;	COMDAT ??$?0V?$allocator@_W@std@@@?$_Wrap_alloc@V?$allocator@_W@std@@@std@@QAE@$$QAV?$allocator@_W@1@@Z
_TEXT	SEGMENT
__Right$ = 8						; size = 4
??$?0V?$allocator@_W@std@@@?$_Wrap_alloc@V?$allocator@_W@std@@@std@@QAE@$$QAV?$allocator@_W@1@@Z PROC ; std::_Wrap_alloc<std::allocator<wchar_t> >::_Wrap_alloc<std::allocator<wchar_t> ><std::allocator<wchar_t> >, COMDAT
; _this$ = ecx

; 953  : 		}

  00000	8b c1		 mov	 eax, ecx
  00002	c2 04 00	 ret	 4
??$?0V?$allocator@_W@std@@@?$_Wrap_alloc@V?$allocator@_W@std@@@std@@QAE@$$QAV?$allocator@_W@1@@Z ENDP ; std::_Wrap_alloc<std::allocator<wchar_t> >::_Wrap_alloc<std::allocator<wchar_t> ><std::allocator<wchar_t> >
_TEXT	ENDS
; Function compile flags: /Ogtp
; File c:\program files (x86)\microsoft visual studio 14.0\vc\include\xutility
;	COMDAT ??$?0$$V@?$_Compressed_pair@U?$_Wrap_alloc@V?$allocator@E@std@@@std@@V?$_Vector_val@U?$_Simple_types@E@std@@@2@$00@std@@QAE@U_Zero_then_variadic_args_t@1@@Z
_TEXT	SEGMENT
___formal$ = 8						; size = 1
??$?0$$V@?$_Compressed_pair@U?$_Wrap_alloc@V?$allocator@E@std@@@std@@V?$_Vector_val@U?$_Simple_types@E@std@@@2@$00@std@@QAE@U_Zero_then_variadic_args_t@1@@Z PROC ; std::_Compressed_pair<std::_Wrap_alloc<std::allocator<unsigned char> >,std::_Vector_val<std::_Simple_types<unsigned char> >,1>::_Compressed_pair<std::_Wrap_alloc<std::allocator<unsigned char> >,std::_Vector_val<std::_Simple_types<unsigned char> >,1><>, COMDAT
; _this$ = ecx

; 279  : 		: _Ty1(), _Myval2(_STD forward<_Other2>(_Val2)...)

  00000	c7 01 00 00 00
	00		 mov	 DWORD PTR [ecx], 0

; 281  : 		}

  00006	8b c1		 mov	 eax, ecx
  00008	c7 41 04 00 00
	00 00		 mov	 DWORD PTR [ecx+4], 0
  0000f	c7 41 08 00 00
	00 00		 mov	 DWORD PTR [ecx+8], 0
  00016	c2 04 00	 ret	 4
??$?0$$V@?$_Compressed_pair@U?$_Wrap_alloc@V?$allocator@E@std@@@std@@V?$_Vector_val@U?$_Simple_types@E@std@@@2@$00@std@@QAE@U_Zero_then_variadic_args_t@1@@Z ENDP ; std::_Compressed_pair<std::_Wrap_alloc<std::allocator<unsigned char> >,std::_Vector_val<std::_Simple_types<unsigned char> >,1>::_Compressed_pair<std::_Wrap_alloc<std::allocator<unsigned char> >,std::_Vector_val<std::_Simple_types<unsigned char> >,1><>
_TEXT	ENDS
; Function compile flags: /Ogtp
; File c:\program files (x86)\microsoft visual studio 14.0\vc\include\xstring
;	COMDAT ??$?0U?$_Wrap_alloc@V?$allocator@_W@std@@@std@@X@?$_String_alloc@U?$_String_base_types@_WV?$allocator@_W@std@@@std@@@std@@QAE@$$QAU?$_Wrap_alloc@V?$allocator@_W@std@@@1@@Z
_TEXT	SEGMENT
__Al$ = 8						; size = 4
??$?0U?$_Wrap_alloc@V?$allocator@_W@std@@@std@@X@?$_String_alloc@U?$_String_base_types@_WV?$allocator@_W@std@@@std@@@std@@QAE@$$QAU?$_Wrap_alloc@V?$allocator@_W@std@@@1@@Z PROC ; std::_String_alloc<std::_String_base_types<wchar_t,std::allocator<wchar_t> > >::_String_alloc<std::_String_base_types<wchar_t,std::allocator<wchar_t> > ><std::_Wrap_alloc<std::allocator<wchar_t> >,void>, COMDAT
; _this$ = ecx

; 595  : 		: _Mypair(_One_then_variadic_args_t(),

  00000	c7 41 10 00 00
	00 00		 mov	 DWORD PTR [ecx+16], 0

; 598  : 		}

  00007	8b c1		 mov	 eax, ecx
  00009	c7 41 14 00 00
	00 00		 mov	 DWORD PTR [ecx+20], 0
  00010	c2 04 00	 ret	 4
??$?0U?$_Wrap_alloc@V?$allocator@_W@std@@@std@@X@?$_String_alloc@U?$_String_base_types@_WV?$allocator@_W@std@@@std@@@std@@QAE@$$QAU?$_Wrap_alloc@V?$allocator@_W@std@@@1@@Z ENDP ; std::_String_alloc<std::_String_base_types<wchar_t,std::allocator<wchar_t> > >::_String_alloc<std::_String_base_types<wchar_t,std::allocator<wchar_t> > ><std::_Wrap_alloc<std::allocator<wchar_t> >,void>
_TEXT	ENDS
; Function compile flags: /Ogtp
; File c:\program files (x86)\microsoft visual studio 14.0\vc\include\vector
;	COMDAT ??D?$_Vector_iterator@V?$_Vector_val@U?$_Simple_types@E@std@@@std@@@std@@QBEAAEXZ
_TEXT	SEGMENT
??D?$_Vector_iterator@V?$_Vector_val@U?$_Simple_types@E@std@@@std@@@std@@QBEAAEXZ PROC ; std::_Vector_iterator<std::_Vector_val<std::_Simple_types<unsigned char> > >::operator*, COMDAT
; _this$ = ecx

; 331  : 		return ((reference)**(_Mybase *)this);

  00000	8b 01		 mov	 eax, DWORD PTR [ecx]

; 332  : 		}

  00002	c3		 ret	 0
??D?$_Vector_iterator@V?$_Vector_val@U?$_Simple_types@E@std@@@std@@@std@@QBEAAEXZ ENDP ; std::_Vector_iterator<std::_Vector_val<std::_Simple_types<unsigned char> > >::operator*
_TEXT	ENDS
; Function compile flags: /Ogtp
; File c:\program files (x86)\microsoft visual studio 14.0\vc\include\vector
;	COMDAT ??0?$_Vector_iterator@V?$_Vector_val@U?$_Simple_types@E@std@@@std@@@std@@QAE@PAEPBU_Container_base0@1@@Z
_TEXT	SEGMENT
__Parg$ = 8						; size = 4
__Pvector$ = 12						; size = 4
??0?$_Vector_iterator@V?$_Vector_val@U?$_Simple_types@E@std@@@std@@@std@@QAE@PAEPBU_Container_base0@1@@Z PROC ; std::_Vector_iterator<std::_Vector_val<std::_Simple_types<unsigned char> > >::_Vector_iterator<std::_Vector_val<std::_Simple_types<unsigned char> > >, COMDAT
; _this$ = ecx

; 313  : 		{	// construct with pointer _Parg

  00000	55		 push	 ebp
  00001	8b ec		 mov	 ebp, esp

; 312  : 		: _Mybase(_Parg, _Pvector)

  00003	8b 45 08	 mov	 eax, DWORD PTR __Parg$[ebp]
  00006	89 01		 mov	 DWORD PTR [ecx], eax

; 314  : 		}

  00008	8b c1		 mov	 eax, ecx
  0000a	5d		 pop	 ebp
  0000b	c2 08 00	 ret	 8
??0?$_Vector_iterator@V?$_Vector_val@U?$_Simple_types@E@std@@@std@@@std@@QAE@PAEPBU_Container_base0@1@@Z ENDP ; std::_Vector_iterator<std::_Vector_val<std::_Simple_types<unsigned char> > >::_Vector_iterator<std::_Vector_val<std::_Simple_types<unsigned char> > >
_TEXT	ENDS
; Function compile flags: /Ogtp
; File c:\program files (x86)\microsoft visual studio 14.0\vc\include\vector
;	COMDAT ??D?$_Vector_const_iterator@V?$_Vector_val@U?$_Simple_types@E@std@@@std@@@std@@QBEABEXZ
_TEXT	SEGMENT
??D?$_Vector_const_iterator@V?$_Vector_val@U?$_Simple_types@E@std@@@std@@@std@@QBEABEXZ PROC ; std::_Vector_const_iterator<std::_Vector_val<std::_Simple_types<unsigned char> > >::operator*, COMDAT
; _this$ = ecx

; 66   :  #if _ITERATOR_DEBUG_LEVEL == 2
; 67   : 		const auto _Mycont = static_cast<const _Myvec *>(this->_Getcont());
; 68   : 		if (_Mycont == 0
; 69   : 			|| _Ptr == _Tptr()
; 70   : 			|| _Ptr < _Mycont->_Myfirst
; 71   : 			|| _Mycont->_Mylast <= _Ptr)
; 72   : 			{	// report error
; 73   : 			_DEBUG_ERROR("vector iterator not dereferencable");
; 74   : 			_SCL_SECURE_OUT_OF_RANGE;
; 75   : 			}
; 76   : 
; 77   :  #elif _ITERATOR_DEBUG_LEVEL == 1
; 78   : 		_SCL_SECURE_VALIDATE(_Ptr != _Tptr());
; 79   : 		const auto _Mycont = static_cast<const _Myvec *>(this->_Getcont());
; 80   : 		_SCL_SECURE_VALIDATE(_Mycont != 0);
; 81   : 		_SCL_SECURE_VALIDATE_RANGE(_Mycont->_Myfirst <= _Ptr && _Ptr < _Mycont->_Mylast);
; 82   :  #endif /* _ITERATOR_DEBUG_LEVEL */
; 83   : 
; 84   : 		_Analysis_assume_(_Ptr != _Tptr());
; 85   : 
; 86   : 		return (*_Ptr);

  00000	8b 01		 mov	 eax, DWORD PTR [ecx]

; 87   : 		}

  00002	c3		 ret	 0
??D?$_Vector_const_iterator@V?$_Vector_val@U?$_Simple_types@E@std@@@std@@@std@@QBEABEXZ ENDP ; std::_Vector_const_iterator<std::_Vector_val<std::_Simple_types<unsigned char> > >::operator*
_TEXT	ENDS
; Function compile flags: /Ogtp
; File c:\program files (x86)\microsoft visual studio 14.0\vc\include\vector
;	COMDAT ??0?$_Vector_const_iterator@V?$_Vector_val@U?$_Simple_types@E@std@@@std@@@std@@QAE@PAEPBU_Container_base0@1@@Z
_TEXT	SEGMENT
__Parg$ = 8						; size = 4
__Pvector$ = 12						; size = 4
??0?$_Vector_const_iterator@V?$_Vector_val@U?$_Simple_types@E@std@@@std@@@std@@QAE@PAEPBU_Container_base0@1@@Z PROC ; std::_Vector_const_iterator<std::_Vector_val<std::_Simple_types<unsigned char> > >::_Vector_const_iterator<std::_Vector_val<std::_Simple_types<unsigned char> > >, COMDAT
; _this$ = ecx

; 47   : 		{	// construct with pointer _Parg

  00000	55		 push	 ebp
  00001	8b ec		 mov	 ebp, esp

; 46   : 		: _Ptr(_Parg)

  00003	8b 45 08	 mov	 eax, DWORD PTR __Parg$[ebp]
  00006	89 01		 mov	 DWORD PTR [ecx], eax

; 48   : 		this->_Adopt(_Pvector);
; 49   : 		}

  00008	8b c1		 mov	 eax, ecx
  0000a	5d		 pop	 ebp
  0000b	c2 08 00	 ret	 8
??0?$_Vector_const_iterator@V?$_Vector_val@U?$_Simple_types@E@std@@@std@@@std@@QAE@PAEPBU_Container_base0@1@@Z ENDP ; std::_Vector_const_iterator<std::_Vector_val<std::_Simple_types<unsigned char> > >::_Vector_const_iterator<std::_Vector_val<std::_Simple_types<unsigned char> > >
_TEXT	ENDS
; Function compile flags: /Ogtp
; File c:\users\alexis\documents\finalgostcrypt\sources_gostcrypt_windows_1.3.1\platform\foreach.h
;	COMDAT ??$GetContainerForward@V?$list@USecurityTokenKeyfilePath@GostCrypt@@V?$allocator@USecurityTokenKeyfilePath@GostCrypt@@@std@@@std@@@ForEach@GostCrypt@@SAABU?$ContainerForward@V?$list@USecurityTokenKeyfilePath@GostCrypt@@V?$allocator@USecurityTokenKeyfilePath@GostCrypt@@@std@@@std@@@01@ABUContainer@01@ABU?$TypeWrapper@V?$list@USecurityTokenKeyfilePath@GostCrypt@@V?$allocator@USecurityTokenKeyfilePath@GostCrypt@@@std@@@std@@@01@@Z
_TEXT	SEGMENT
_forEachContainer$ = 8					; size = 4
___formal$ = 12						; size = 4
??$GetContainerForward@V?$list@USecurityTokenKeyfilePath@GostCrypt@@V?$allocator@USecurityTokenKeyfilePath@GostCrypt@@@std@@@std@@@ForEach@GostCrypt@@SAABU?$ContainerForward@V?$list@USecurityTokenKeyfilePath@GostCrypt@@V?$allocator@USecurityTokenKeyfilePath@GostCrypt@@@std@@@std@@@01@ABUContainer@01@ABU?$TypeWrapper@V?$list@USecurityTokenKeyfilePath@GostCrypt@@V?$allocator@USecurityTokenKeyfilePath@GostCrypt@@@std@@@std@@@01@@Z PROC ; GostCrypt::ForEach::GetContainerForward<std::list<GostCrypt::SecurityTokenKeyfilePath,std::allocator<GostCrypt::SecurityTokenKeyfilePath> > >, COMDAT

; 95   : 		{

  00000	55		 push	 ebp
  00001	8b ec		 mov	 ebp, esp

; 96   : 			return static_cast <const ContainerForward <T> &> (forEachContainer);

  00003	8b 45 08	 mov	 eax, DWORD PTR _forEachContainer$[ebp]

; 97   : 		}

  00006	5d		 pop	 ebp
  00007	c3		 ret	 0
??$GetContainerForward@V?$list@USecurityTokenKeyfilePath@GostCrypt@@V?$allocator@USecurityTokenKeyfilePath@GostCrypt@@@std@@@std@@@ForEach@GostCrypt@@SAABU?$ContainerForward@V?$list@USecurityTokenKeyfilePath@GostCrypt@@V?$allocator@USecurityTokenKeyfilePath@GostCrypt@@@std@@@std@@@01@ABUContainer@01@ABU?$TypeWrapper@V?$list@USecurityTokenKeyfilePath@GostCrypt@@V?$allocator@USecurityTokenKeyfilePath@GostCrypt@@@std@@@std@@@01@@Z ENDP ; GostCrypt::ForEach::GetContainerForward<std::list<GostCrypt::SecurityTokenKeyfilePath,std::allocator<GostCrypt::SecurityTokenKeyfilePath> > >
_TEXT	ENDS
; Function compile flags: /Ogtp
; File c:\users\alexis\documents\finalgostcrypt\sources_gostcrypt_windows_1.3.1\platform\foreach.h
;	COMDAT ??$?BV?$list@USecurityTokenKeyfilePath@GostCrypt@@V?$allocator@USecurityTokenKeyfilePath@GostCrypt@@@std@@@std@@@TypeWrapperDummy@ForEach@GostCrypt@@QBE?AU?$TypeWrapper@V?$list@USecurityTokenKeyfilePath@GostCrypt@@V?$allocator@USecurityTokenKeyfilePath@GostCrypt@@@std@@@std@@@12@XZ
_TEXT	SEGMENT
___$ReturnUdt$ = 8					; size = 4
??$?BV?$list@USecurityTokenKeyfilePath@GostCrypt@@V?$allocator@USecurityTokenKeyfilePath@GostCrypt@@@std@@@std@@@TypeWrapperDummy@ForEach@GostCrypt@@QBE?AU?$TypeWrapper@V?$list@USecurityTokenKeyfilePath@GostCrypt@@V?$allocator@USecurityTokenKeyfilePath@GostCrypt@@@std@@@std@@@12@XZ PROC ; GostCrypt::ForEach::TypeWrapperDummy::operator<std::list<GostCrypt::SecurityTokenKeyfilePath,std::allocator<GostCrypt::SecurityTokenKeyfilePath> > > GostCrypt::ForEach::TypeWrapper<std::list<GostCrypt::SecurityTokenKeyfilePath,std::allocator<GostCrypt::SecurityTokenKeyfilePath> > >, COMDAT
; _this$ = ecx

; 90   : 			operator TypeWrapper <T> () const { return TypeWrapper <T> (); }

  00000	55		 push	 ebp
  00001	8b ec		 mov	 ebp, esp
  00003	8b 45 08	 mov	 eax, DWORD PTR ___$ReturnUdt$[ebp]
  00006	5d		 pop	 ebp
  00007	c2 04 00	 ret	 4
??$?BV?$list@USecurityTokenKeyfilePath@GostCrypt@@V?$allocator@USecurityTokenKeyfilePath@GostCrypt@@@std@@@std@@@TypeWrapperDummy@ForEach@GostCrypt@@QBE?AU?$TypeWrapper@V?$list@USecurityTokenKeyfilePath@GostCrypt@@V?$allocator@USecurityTokenKeyfilePath@GostCrypt@@@std@@@std@@@12@XZ ENDP ; GostCrypt::ForEach::TypeWrapperDummy::operator<std::list<GostCrypt::SecurityTokenKeyfilePath,std::allocator<GostCrypt::SecurityTokenKeyfilePath> > > GostCrypt::ForEach::TypeWrapper<std::list<GostCrypt::SecurityTokenKeyfilePath,std::allocator<GostCrypt::SecurityTokenKeyfilePath> > >
_TEXT	ENDS
; Function compile flags: /Ogtp
; File c:\users\alexis\documents\finalgostcrypt\sources_gostcrypt_windows_1.3.1\platform\foreach.h
;	COMDAT ??$ToTypeWrapper@V?$list@USecurityTokenKeyfilePath@GostCrypt@@V?$allocator@USecurityTokenKeyfilePath@GostCrypt@@@std@@@std@@@ForEach@GostCrypt@@SA?AU?$TypeWrapper@V?$list@USecurityTokenKeyfilePath@GostCrypt@@V?$allocator@USecurityTokenKeyfilePath@GostCrypt@@@std@@@std@@@01@ABV?$list@USecurityTokenKeyfilePath@GostCrypt@@V?$allocator@USecurityTokenKeyfilePath@GostCrypt@@@std@@@std@@@Z
_TEXT	SEGMENT
$T1 = -1						; size = 1
_x$ = 8							; size = 4
??$ToTypeWrapper@V?$list@USecurityTokenKeyfilePath@GostCrypt@@V?$allocator@USecurityTokenKeyfilePath@GostCrypt@@@std@@@std@@@ForEach@GostCrypt@@SA?AU?$TypeWrapper@V?$list@USecurityTokenKeyfilePath@GostCrypt@@V?$allocator@USecurityTokenKeyfilePath@GostCrypt@@@std@@@std@@@01@ABV?$list@USecurityTokenKeyfilePath@GostCrypt@@V?$allocator@USecurityTokenKeyfilePath@GostCrypt@@@std@@@std@@@Z PROC ; GostCrypt::ForEach::ToTypeWrapper<std::list<GostCrypt::SecurityTokenKeyfilePath,std::allocator<GostCrypt::SecurityTokenKeyfilePath> > >, COMDAT

; 85   : 		static TypeWrapper <T> ToTypeWrapper (const T &x) { return TypeWrapper <T> (); }

  00000	55		 push	 ebp
  00001	8b ec		 mov	 ebp, esp
  00003	51		 push	 ecx
  00004	8a 45 ff	 mov	 al, BYTE PTR $T1[ebp]
  00007	8b e5		 mov	 esp, ebp
  00009	5d		 pop	 ebp
  0000a	c3		 ret	 0
??$ToTypeWrapper@V?$list@USecurityTokenKeyfilePath@GostCrypt@@V?$allocator@USecurityTokenKeyfilePath@GostCrypt@@@std@@@std@@@ForEach@GostCrypt@@SA?AU?$TypeWrapper@V?$list@USecurityTokenKeyfilePath@GostCrypt@@V?$allocator@USecurityTokenKeyfilePath@GostCrypt@@@std@@@std@@@01@ABV?$list@USecurityTokenKeyfilePath@GostCrypt@@V?$allocator@USecurityTokenKeyfilePath@GostCrypt@@@std@@@std@@@Z ENDP ; GostCrypt::ForEach::ToTypeWrapper<std::list<GostCrypt::SecurityTokenKeyfilePath,std::allocator<GostCrypt::SecurityTokenKeyfilePath> > >
_TEXT	ENDS
; Function compile flags: /Ogtp
;	COMDAT ??_G?$ContainerForward@V?$list@USecurityTokenKeyfilePath@GostCrypt@@V?$allocator@USecurityTokenKeyfilePath@GostCrypt@@@std@@@std@@@ForEach@GostCrypt@@UAEPAXI@Z
_TEXT	SEGMENT
___flags$ = 8						; size = 4
??_G?$ContainerForward@V?$list@USecurityTokenKeyfilePath@GostCrypt@@V?$allocator@USecurityTokenKeyfilePath@GostCrypt@@@std@@@std@@@ForEach@GostCrypt@@UAEPAXI@Z PROC ; GostCrypt::ForEach::ContainerForward<std::list<GostCrypt::SecurityTokenKeyfilePath,std::allocator<GostCrypt::SecurityTokenKeyfilePath> > >::`scalar deleting destructor', COMDAT
; _this$ = ecx
  00000	55		 push	 ebp
  00001	8b ec		 mov	 ebp, esp
  00003	56		 push	 esi
  00004	57		 push	 edi
  00005	8b f9		 mov	 edi, ecx
  00007	8d 4f 08	 lea	 ecx, DWORD PTR [edi+8]
  0000a	e8 00 00 00 00	 call	 ?clear@?$list@USecurityTokenKeyfilePath@GostCrypt@@V?$allocator@USecurityTokenKeyfilePath@GostCrypt@@@std@@@std@@QAEXXZ ; std::list<GostCrypt::SecurityTokenKeyfilePath,std::allocator<GostCrypt::SecurityTokenKeyfilePath> >::clear
  0000f	ff 77 08	 push	 DWORD PTR [edi+8]
  00012	e8 00 00 00 00	 call	 ??3@YAXPAX@Z		; operator delete
  00017	83 c4 04	 add	 esp, 4
  0001a	c7 07 00 00 00
	00		 mov	 DWORD PTR [edi], OFFSET ??_7Container@ForEach@GostCrypt@@6B@
  00020	f6 45 08 01	 test	 BYTE PTR ___flags$[ebp], 1
  00024	74 0b		 je	 SHORT $LN84@scalar
  00026	6a 18		 push	 24			; 00000018H
  00028	57		 push	 edi
  00029	e8 00 00 00 00	 call	 ??3@YAXPAXI@Z		; operator delete
  0002e	83 c4 08	 add	 esp, 8
$LN84@scalar:
  00031	8b c7		 mov	 eax, edi
  00033	5f		 pop	 edi
  00034	5e		 pop	 esi
  00035	5d		 pop	 ebp
  00036	c2 04 00	 ret	 4
??_G?$ContainerForward@V?$list@USecurityTokenKeyfilePath@GostCrypt@@V?$allocator@USecurityTokenKeyfilePath@GostCrypt@@@std@@@std@@@ForEach@GostCrypt@@UAEPAXI@Z ENDP ; GostCrypt::ForEach::ContainerForward<std::list<GostCrypt::SecurityTokenKeyfilePath,std::allocator<GostCrypt::SecurityTokenKeyfilePath> > >::`scalar deleting destructor'
_TEXT	ENDS
; Function compile flags: /Ogtp
;	COMDAT ??1?$ContainerForward@V?$list@USecurityTokenKeyfilePath@GostCrypt@@V?$allocator@USecurityTokenKeyfilePath@GostCrypt@@@std@@@std@@@ForEach@GostCrypt@@UAE@XZ
_TEXT	SEGMENT
??1?$ContainerForward@V?$list@USecurityTokenKeyfilePath@GostCrypt@@V?$allocator@USecurityTokenKeyfilePath@GostCrypt@@@std@@@std@@@ForEach@GostCrypt@@UAE@XZ PROC ; GostCrypt::ForEach::ContainerForward<std::list<GostCrypt::SecurityTokenKeyfilePath,std::allocator<GostCrypt::SecurityTokenKeyfilePath> > >::~ContainerForward<std::list<GostCrypt::SecurityTokenKeyfilePath,std::allocator<GostCrypt::SecurityTokenKeyfilePath> > >, COMDAT
; _this$ = ecx
  00000	56		 push	 esi
  00001	57		 push	 edi
  00002	8b f9		 mov	 edi, ecx
  00004	8d 4f 08	 lea	 ecx, DWORD PTR [edi+8]
  00007	e8 00 00 00 00	 call	 ?clear@?$list@USecurityTokenKeyfilePath@GostCrypt@@V?$allocator@USecurityTokenKeyfilePath@GostCrypt@@@std@@@std@@QAEXXZ ; std::list<GostCrypt::SecurityTokenKeyfilePath,std::allocator<GostCrypt::SecurityTokenKeyfilePath> >::clear
  0000c	ff 77 08	 push	 DWORD PTR [edi+8]
  0000f	e8 00 00 00 00	 call	 ??3@YAXPAX@Z		; operator delete
  00014	83 c4 04	 add	 esp, 4
  00017	c7 07 00 00 00
	00		 mov	 DWORD PTR [edi], OFFSET ??_7Container@ForEach@GostCrypt@@6B@
  0001d	5f		 pop	 edi
  0001e	5e		 pop	 esi
  0001f	c3		 ret	 0
??1?$ContainerForward@V?$list@USecurityTokenKeyfilePath@GostCrypt@@V?$allocator@USecurityTokenKeyfilePath@GostCrypt@@@std@@@std@@@ForEach@GostCrypt@@UAE@XZ ENDP ; GostCrypt::ForEach::ContainerForward<std::list<GostCrypt::SecurityTokenKeyfilePath,std::allocator<GostCrypt::SecurityTokenKeyfilePath> > >::~ContainerForward<std::list<GostCrypt::SecurityTokenKeyfilePath,std::allocator<GostCrypt::SecurityTokenKeyfilePath> > >
_TEXT	ENDS
; Function compile flags: /Ogtp
; File c:\program files (x86)\microsoft visual studio 14.0\vc\include\list
;	COMDAT ??9?$_List_const_iterator@V?$_List_val@U?$_List_simple_types@USecurityTokenKeyfilePath@GostCrypt@@@std@@@std@@@std@@QBE_NABV01@@Z
_TEXT	SEGMENT
__Right$ = 8						; size = 4
??9?$_List_const_iterator@V?$_List_val@U?$_List_simple_types@USecurityTokenKeyfilePath@GostCrypt@@@std@@@std@@@std@@QBE_NABV01@@Z PROC ; std::_List_const_iterator<std::_List_val<std::_List_simple_types<GostCrypt::SecurityTokenKeyfilePath> > >::operator!=, COMDAT
; _this$ = ecx

; 305  : 		{	// test for iterator inequality

  00000	55		 push	 ebp
  00001	8b ec		 mov	 ebp, esp
  00003	8b 45 08	 mov	 eax, DWORD PTR __Right$[ebp]
  00006	8b 09		 mov	 ecx, DWORD PTR [ecx]
  00008	3b 08		 cmp	 ecx, DWORD PTR [eax]
  0000a	0f 95 c0	 setne	 al

; 306  : 		return (!(*this == _Right));
; 307  : 		}

  0000d	5d		 pop	 ebp
  0000e	c2 04 00	 ret	 4
??9?$_List_const_iterator@V?$_List_val@U?$_List_simple_types@USecurityTokenKeyfilePath@GostCrypt@@@std@@@std@@@std@@QBE_NABV01@@Z ENDP ; std::_List_const_iterator<std::_List_val<std::_List_simple_types<GostCrypt::SecurityTokenKeyfilePath> > >::operator!=
_TEXT	ENDS
; Function compile flags: /Ogtp
; File c:\program files (x86)\microsoft visual studio 14.0\vc\include\list
;	COMDAT ??8?$_List_const_iterator@V?$_List_val@U?$_List_simple_types@USecurityTokenKeyfilePath@GostCrypt@@@std@@@std@@@std@@QBE_NABV01@@Z
_TEXT	SEGMENT
__Right$ = 8						; size = 4
??8?$_List_const_iterator@V?$_List_val@U?$_List_simple_types@USecurityTokenKeyfilePath@GostCrypt@@@std@@@std@@@std@@QBE_NABV01@@Z PROC ; std::_List_const_iterator<std::_List_val<std::_List_simple_types<GostCrypt::SecurityTokenKeyfilePath> > >::operator==, COMDAT
; _this$ = ecx

; 289  : 		{	// test for iterator equality

  00000	55		 push	 ebp
  00001	8b ec		 mov	 ebp, esp
  00003	8b 45 08	 mov	 eax, DWORD PTR __Right$[ebp]
  00006	8b 09		 mov	 ecx, DWORD PTR [ecx]
  00008	3b 08		 cmp	 ecx, DWORD PTR [eax]
  0000a	0f 94 c0	 sete	 al

; 290  :  #if _ITERATOR_DEBUG_LEVEL == 2
; 291  : 		if (this->_Getcont() != _Right._Getcont())
; 292  : 			{	// report error
; 293  : 			_DEBUG_ERROR("list iterators incompatible");
; 294  : 			_SCL_SECURE_INVALID_ARGUMENT;
; 295  : 			}
; 296  : 
; 297  :  #elif _ITERATOR_DEBUG_LEVEL == 1
; 298  : 		_SCL_SECURE_VALIDATE(this->_Getcont() == _Right._Getcont());
; 299  :  #endif /* _ITERATOR_DEBUG_LEVEL */
; 300  : 
; 301  : 		return (this->_Ptr == _Right._Ptr);
; 302  : 		}

  0000d	5d		 pop	 ebp
  0000e	c2 04 00	 ret	 4
??8?$_List_const_iterator@V?$_List_val@U?$_List_simple_types@USecurityTokenKeyfilePath@GostCrypt@@@std@@@std@@@std@@QBE_NABV01@@Z ENDP ; std::_List_const_iterator<std::_List_val<std::_List_simple_types<GostCrypt::SecurityTokenKeyfilePath> > >::operator==
_TEXT	ENDS
; Function compile flags: /Ogtp
; File c:\program files (x86)\microsoft visual studio 14.0\vc\include\list
;	COMDAT ??F?$_List_const_iterator@V?$_List_val@U?$_List_simple_types@USecurityTokenKeyfilePath@GostCrypt@@@std@@@std@@@std@@QAEAAV01@XZ
_TEXT	SEGMENT
??F?$_List_const_iterator@V?$_List_val@U?$_List_simple_types@USecurityTokenKeyfilePath@GostCrypt@@@std@@@std@@@std@@QAEAAV01@XZ PROC ; std::_List_const_iterator<std::_List_val<std::_List_simple_types<GostCrypt::SecurityTokenKeyfilePath> > >::operator--, COMDAT
; _this$ = ecx

; 257  :  #if _ITERATOR_DEBUG_LEVEL == 2
; 258  : 		const auto _Mycont = static_cast<const _Mylist *>(this->_Getcont());
; 259  : 		if (_Mycont == 0
; 260  : 			|| this->_Ptr == nullptr_t{}
; 261  : 			|| (this->_Ptr = _Mylist::_Prevnode(this->_Ptr)) == _Mycont->_Myhead)
; 262  : 			{	// report error
; 263  : 			_DEBUG_ERROR("list iterator not decrementable");
; 264  : 			_SCL_SECURE_OUT_OF_RANGE;
; 265  : 			}
; 266  : 
; 267  :  #elif _ITERATOR_DEBUG_LEVEL == 1
; 268  : 		_SCL_SECURE_VALIDATE(this->_Ptr != nullptr_t{});
; 269  : 		const auto _Mycont = static_cast<const _Mylist *>(this->_Getcont());
; 270  : 		_SCL_SECURE_VALIDATE(_Mycont != 0);
; 271  : 		this->_Ptr = _Mylist::_Prevnode(this->_Ptr);
; 272  : 		_SCL_SECURE_VALIDATE_RANGE(this->_Ptr != _Mycont->_Myhead);
; 273  : 
; 274  :  #else /* _ITERATOR_DEBUG_LEVEL */
; 275  : 		this->_Ptr = _Mylist::_Prevnode(this->_Ptr);

  00000	8b 01		 mov	 eax, DWORD PTR [ecx]
  00002	8b 40 04	 mov	 eax, DWORD PTR [eax+4]
  00005	89 01		 mov	 DWORD PTR [ecx], eax

; 276  :  #endif /* _ITERATOR_DEBUG_LEVEL */
; 277  : 
; 278  : 		return (*this);

  00007	8b c1		 mov	 eax, ecx

; 279  : 		}

  00009	c3		 ret	 0
??F?$_List_const_iterator@V?$_List_val@U?$_List_simple_types@USecurityTokenKeyfilePath@GostCrypt@@@std@@@std@@@std@@QAEAAV01@XZ ENDP ; std::_List_const_iterator<std::_List_val<std::_List_simple_types<GostCrypt::SecurityTokenKeyfilePath> > >::operator--
_TEXT	ENDS
; Function compile flags: /Ogtp
; File c:\program files (x86)\microsoft visual studio 14.0\vc\include\list
;	COMDAT ??E?$_List_const_iterator@V?$_List_val@U?$_List_simple_types@USecurityTokenKeyfilePath@GostCrypt@@@std@@@std@@@std@@QAEAAV01@XZ
_TEXT	SEGMENT
??E?$_List_const_iterator@V?$_List_val@U?$_List_simple_types@USecurityTokenKeyfilePath@GostCrypt@@@std@@@std@@@std@@QAEAAV01@XZ PROC ; std::_List_const_iterator<std::_List_val<std::_List_simple_types<GostCrypt::SecurityTokenKeyfilePath> > >::operator++, COMDAT
; _this$ = ecx

; 227  :  #if _ITERATOR_DEBUG_LEVEL == 2
; 228  : 		const auto _Mycont = static_cast<const _Mylist *>(this->_Getcont());
; 229  : 		if (_Mycont == 0
; 230  : 			|| this->_Ptr == nullptr_t{}
; 231  : 			|| this->_Ptr == _Mycont->_Myhead)
; 232  : 			{	// report error
; 233  : 			_DEBUG_ERROR("list iterator not incrementable");
; 234  : 			_SCL_SECURE_OUT_OF_RANGE;
; 235  : 			}
; 236  : 
; 237  :  #elif _ITERATOR_DEBUG_LEVEL == 1
; 238  : 		_SCL_SECURE_VALIDATE(this->_Ptr != nullptr_t{});
; 239  : 		const auto _Mycont = static_cast<const _Mylist *>(this->_Getcont());
; 240  : 		_SCL_SECURE_VALIDATE(_Mycont != 0);
; 241  : 		_SCL_SECURE_VALIDATE_RANGE(this->_Ptr != _Mycont->_Myhead);
; 242  :  #endif /* _ITERATOR_DEBUG_LEVEL */
; 243  : 
; 244  : 		this->_Ptr = _Mylist::_Nextnode(this->_Ptr);

  00000	8b 01		 mov	 eax, DWORD PTR [ecx]
  00002	8b 00		 mov	 eax, DWORD PTR [eax]
  00004	89 01		 mov	 DWORD PTR [ecx], eax

; 245  : 		return (*this);

  00006	8b c1		 mov	 eax, ecx

; 246  : 		}

  00008	c3		 ret	 0
??E?$_List_const_iterator@V?$_List_val@U?$_List_simple_types@USecurityTokenKeyfilePath@GostCrypt@@@std@@@std@@@std@@QAEAAV01@XZ ENDP ; std::_List_const_iterator<std::_List_val<std::_List_simple_types<GostCrypt::SecurityTokenKeyfilePath> > >::operator++
_TEXT	ENDS
; Function compile flags: /Ogtp
; File c:\program files (x86)\microsoft visual studio 14.0\vc\include\list
;	COMDAT ??D?$_List_const_iterator@V?$_List_val@U?$_List_simple_types@USecurityTokenKeyfilePath@GostCrypt@@@std@@@std@@@std@@QBEABUSecurityTokenKeyfilePath@GostCrypt@@XZ
_TEXT	SEGMENT
??D?$_List_const_iterator@V?$_List_val@U?$_List_simple_types@USecurityTokenKeyfilePath@GostCrypt@@@std@@@std@@@std@@QBEABUSecurityTokenKeyfilePath@GostCrypt@@XZ PROC ; std::_List_const_iterator<std::_List_val<std::_List_simple_types<GostCrypt::SecurityTokenKeyfilePath> > >::operator*, COMDAT
; _this$ = ecx

; 205  :  #if _ITERATOR_DEBUG_LEVEL == 2
; 206  : 		const auto _Mycont = static_cast<const _Mylist *>(this->_Getcont());
; 207  : 		if (_Mycont == 0
; 208  : 			|| this->_Ptr == nullptr_t{}
; 209  : 			|| this->_Ptr == _Mycont->_Myhead)
; 210  : 			{	// report error
; 211  : 			_DEBUG_ERROR("list iterator not dereferencable");
; 212  : 			_SCL_SECURE_OUT_OF_RANGE;
; 213  : 			}
; 214  : 
; 215  :  #elif _ITERATOR_DEBUG_LEVEL == 1
; 216  : 		_SCL_SECURE_VALIDATE(this->_Ptr != nullptr_t{});
; 217  : 		const auto _Mycont = static_cast<const _Mylist *>(this->_Getcont());
; 218  : 		_SCL_SECURE_VALIDATE(_Mycont != 0);
; 219  : 		_SCL_SECURE_VALIDATE_RANGE(this->_Ptr != _Mycont->_Myhead);
; 220  :  #endif /* _ITERATOR_DEBUG_LEVEL */
; 221  : 
; 222  : 		return (_Mylist::_Myval(this->_Ptr));

  00000	8b 01		 mov	 eax, DWORD PTR [ecx]
  00002	83 c0 08	 add	 eax, 8

; 223  : 		}

  00005	c3		 ret	 0
??D?$_List_const_iterator@V?$_List_val@U?$_List_simple_types@USecurityTokenKeyfilePath@GostCrypt@@@std@@@std@@@std@@QBEABUSecurityTokenKeyfilePath@GostCrypt@@XZ ENDP ; std::_List_const_iterator<std::_List_val<std::_List_simple_types<GostCrypt::SecurityTokenKeyfilePath> > >::operator*
_TEXT	ENDS
; Function compile flags: /Ogtp
; File c:\program files (x86)\microsoft visual studio 14.0\vc\include\list
;	COMDAT ?_Unchecked@?$_List_const_iterator@V?$_List_val@U?$_List_simple_types@USecurityTokenKeyfilePath@GostCrypt@@@std@@@std@@@std@@QBE?AV?$_List_unchecked_const_iterator@V?$_List_val@U?$_List_simple_types@USecurityTokenKeyfilePath@GostCrypt@@@std@@@std@@U_Iterator_base0@2@@2@XZ
_TEXT	SEGMENT
___$ReturnUdt$ = 8					; size = 4
?_Unchecked@?$_List_const_iterator@V?$_List_val@U?$_List_simple_types@USecurityTokenKeyfilePath@GostCrypt@@@std@@@std@@@std@@QBE?AV?$_List_unchecked_const_iterator@V?$_List_val@U?$_List_simple_types@USecurityTokenKeyfilePath@GostCrypt@@@std@@@std@@U_Iterator_base0@2@@2@XZ PROC ; std::_List_const_iterator<std::_List_val<std::_List_simple_types<GostCrypt::SecurityTokenKeyfilePath> > >::_Unchecked, COMDAT
; _this$ = ecx

; 199  : 		{	// make an unchecked iterator

  00000	55		 push	 ebp
  00001	8b ec		 mov	 ebp, esp

; 200  : 		return (_Unchecked_type(this->_Ptr, static_cast<const _Mylist *>(this->_Getcont())));

  00003	8b 45 08	 mov	 eax, DWORD PTR ___$ReturnUdt$[ebp]
  00006	8b 09		 mov	 ecx, DWORD PTR [ecx]
  00008	89 08		 mov	 DWORD PTR [eax], ecx

; 201  : 		}

  0000a	5d		 pop	 ebp
  0000b	c2 04 00	 ret	 4
?_Unchecked@?$_List_const_iterator@V?$_List_val@U?$_List_simple_types@USecurityTokenKeyfilePath@GostCrypt@@@std@@@std@@@std@@QBE?AV?$_List_unchecked_const_iterator@V?$_List_val@U?$_List_simple_types@USecurityTokenKeyfilePath@GostCrypt@@@std@@@std@@U_Iterator_base0@2@@2@XZ ENDP ; std::_List_const_iterator<std::_List_val<std::_List_simple_types<GostCrypt::SecurityTokenKeyfilePath> > >::_Unchecked
_TEXT	ENDS
; Function compile flags: /Ogtp
; File c:\program files (x86)\microsoft visual studio 14.0\vc\include\list
;	COMDAT ??0?$_List_const_iterator@V?$_List_val@U?$_List_simple_types@USecurityTokenKeyfilePath@GostCrypt@@@std@@@std@@@std@@QAE@PAU?$_List_node@USecurityTokenKeyfilePath@GostCrypt@@PAX@1@PBV?$_List_val@U?$_List_simple_types@USecurityTokenKeyfilePath@GostCrypt@@@std@@@1@@Z
_TEXT	SEGMENT
__Pnode$ = 8						; size = 4
__Plist$ = 12						; size = 4
??0?$_List_const_iterator@V?$_List_val@U?$_List_simple_types@USecurityTokenKeyfilePath@GostCrypt@@@std@@@std@@@std@@QAE@PAU?$_List_node@USecurityTokenKeyfilePath@GostCrypt@@PAX@1@PBV?$_List_val@U?$_List_simple_types@USecurityTokenKeyfilePath@GostCrypt@@@std@@@1@@Z PROC ; std::_List_const_iterator<std::_List_val<std::_List_simple_types<GostCrypt::SecurityTokenKeyfilePath> > >::_List_const_iterator<std::_List_val<std::_List_simple_types<GostCrypt::SecurityTokenKeyfilePath> > >, COMDAT
; _this$ = ecx

; 187  : 		{	// construct with node pointer _Pnode

  00000	55		 push	 ebp
  00001	8b ec		 mov	 ebp, esp

; 186  : 		: _Mybase(_Pnode, _Plist)

  00003	8b 45 08	 mov	 eax, DWORD PTR __Pnode$[ebp]
  00006	89 01		 mov	 DWORD PTR [ecx], eax

; 188  : 		}

  00008	8b c1		 mov	 eax, ecx
  0000a	5d		 pop	 ebp
  0000b	c2 08 00	 ret	 8
??0?$_List_const_iterator@V?$_List_val@U?$_List_simple_types@USecurityTokenKeyfilePath@GostCrypt@@@std@@@std@@@std@@QAE@PAU?$_List_node@USecurityTokenKeyfilePath@GostCrypt@@PAX@1@PBV?$_List_val@U?$_List_simple_types@USecurityTokenKeyfilePath@GostCrypt@@@std@@@1@@Z ENDP ; std::_List_const_iterator<std::_List_val<std::_List_simple_types<GostCrypt::SecurityTokenKeyfilePath> > >::_List_const_iterator<std::_List_val<std::_List_simple_types<GostCrypt::SecurityTokenKeyfilePath> > >
_TEXT	ENDS
; Function compile flags: /Ogtp
; File c:\program files (x86)\microsoft visual studio 14.0\vc\include\list
;	COMDAT ?_Mynode@?$_List_unchecked_const_iterator@V?$_List_val@U?$_List_simple_types@USecurityTokenKeyfilePath@GostCrypt@@@std@@@std@@U_Iterator_base0@2@@std@@QBEPAU?$_List_node@USecurityTokenKeyfilePath@GostCrypt@@PAX@2@XZ
_TEXT	SEGMENT
?_Mynode@?$_List_unchecked_const_iterator@V?$_List_val@U?$_List_simple_types@USecurityTokenKeyfilePath@GostCrypt@@@std@@@std@@U_Iterator_base0@2@@std@@QBEPAU?$_List_node@USecurityTokenKeyfilePath@GostCrypt@@PAX@2@XZ PROC ; std::_List_unchecked_const_iterator<std::_List_val<std::_List_simple_types<GostCrypt::SecurityTokenKeyfilePath> >,std::_Iterator_base0>::_Mynode, COMDAT
; _this$ = ecx

; 96   : 		return (_Ptr);

  00000	8b 01		 mov	 eax, DWORD PTR [ecx]

; 97   : 		}

  00002	c3		 ret	 0
?_Mynode@?$_List_unchecked_const_iterator@V?$_List_val@U?$_List_simple_types@USecurityTokenKeyfilePath@GostCrypt@@@std@@@std@@U_Iterator_base0@2@@std@@QBEPAU?$_List_node@USecurityTokenKeyfilePath@GostCrypt@@PAX@2@XZ ENDP ; std::_List_unchecked_const_iterator<std::_List_val<std::_List_simple_types<GostCrypt::SecurityTokenKeyfilePath> >,std::_Iterator_base0>::_Mynode
_TEXT	ENDS
; Function compile flags: /Ogtp
; File c:\program files (x86)\microsoft visual studio 14.0\vc\include\list
;	COMDAT ??F?$_List_unchecked_const_iterator@V?$_List_val@U?$_List_simple_types@USecurityTokenKeyfilePath@GostCrypt@@@std@@@std@@U_Iterator_base0@2@@std@@QAEAAV01@XZ
_TEXT	SEGMENT
??F?$_List_unchecked_const_iterator@V?$_List_val@U?$_List_simple_types@USecurityTokenKeyfilePath@GostCrypt@@@std@@@std@@U_Iterator_base0@2@@std@@QAEAAV01@XZ PROC ; std::_List_unchecked_const_iterator<std::_List_val<std::_List_simple_types<GostCrypt::SecurityTokenKeyfilePath> >,std::_Iterator_base0>::operator--, COMDAT
; _this$ = ecx

; 73   : 		_Ptr = _Mylist::_Prevnode(_Ptr);

  00000	8b 01		 mov	 eax, DWORD PTR [ecx]
  00002	8b 40 04	 mov	 eax, DWORD PTR [eax+4]
  00005	89 01		 mov	 DWORD PTR [ecx], eax

; 74   : 		return (*this);

  00007	8b c1		 mov	 eax, ecx

; 75   : 		}

  00009	c3		 ret	 0
??F?$_List_unchecked_const_iterator@V?$_List_val@U?$_List_simple_types@USecurityTokenKeyfilePath@GostCrypt@@@std@@@std@@U_Iterator_base0@2@@std@@QAEAAV01@XZ ENDP ; std::_List_unchecked_const_iterator<std::_List_val<std::_List_simple_types<GostCrypt::SecurityTokenKeyfilePath> >,std::_Iterator_base0>::operator--
_TEXT	ENDS
; Function compile flags: /Ogtp
; File c:\program files (x86)\microsoft visual studio 14.0\vc\include\list
;	COMDAT ??0?$_List_unchecked_const_iterator@V?$_List_val@U?$_List_simple_types@USecurityTokenKeyfilePath@GostCrypt@@@std@@@std@@U_Iterator_base0@2@@std@@QAE@PAU?$_List_node@USecurityTokenKeyfilePath@GostCrypt@@PAX@1@PBV?$_List_val@U?$_List_simple_types@USecurityTokenKeyfilePath@GostCrypt@@@std@@@1@@Z
_TEXT	SEGMENT
__Pnode$ = 8						; size = 4
__Plist$ = 12						; size = 4
??0?$_List_unchecked_const_iterator@V?$_List_val@U?$_List_simple_types@USecurityTokenKeyfilePath@GostCrypt@@@std@@@std@@U_Iterator_base0@2@@std@@QAE@PAU?$_List_node@USecurityTokenKeyfilePath@GostCrypt@@PAX@1@PBV?$_List_val@U?$_List_simple_types@USecurityTokenKeyfilePath@GostCrypt@@@std@@@1@@Z PROC ; std::_List_unchecked_const_iterator<std::_List_val<std::_List_simple_types<GostCrypt::SecurityTokenKeyfilePath> >,std::_Iterator_base0>::_List_unchecked_const_iterator<std::_List_val<std::_List_simple_types<GostCrypt::SecurityTokenKeyfilePath> >,std::_Iterator_base0>, COMDAT
; _this$ = ecx

; 44   : 		{	// construct with node pointer _Pnode

  00000	55		 push	 ebp
  00001	8b ec		 mov	 ebp, esp

; 43   : 		: _Ptr(_Pnode)

  00003	8b 45 08	 mov	 eax, DWORD PTR __Pnode$[ebp]
  00006	89 01		 mov	 DWORD PTR [ecx], eax

; 45   : 		this->_Adopt(_Plist);
; 46   : 		}

  00008	8b c1		 mov	 eax, ecx
  0000a	5d		 pop	 ebp
  0000b	c2 08 00	 ret	 8
??0?$_List_unchecked_const_iterator@V?$_List_val@U?$_List_simple_types@USecurityTokenKeyfilePath@GostCrypt@@@std@@@std@@U_Iterator_base0@2@@std@@QAE@PAU?$_List_node@USecurityTokenKeyfilePath@GostCrypt@@PAX@1@PBV?$_List_val@U?$_List_simple_types@USecurityTokenKeyfilePath@GostCrypt@@@std@@@1@@Z ENDP ; std::_List_unchecked_const_iterator<std::_List_val<std::_List_simple_types<GostCrypt::SecurityTokenKeyfilePath> >,std::_Iterator_base0>::_List_unchecked_const_iterator<std::_List_val<std::_List_simple_types<GostCrypt::SecurityTokenKeyfilePath> >,std::_Iterator_base0>
_TEXT	ENDS
; Function compile flags: /Ogtp
; File c:\users\alexis\documents\finalgostcrypt\sources_gostcrypt_windows_1.3.1\platform\foreach.h
;	COMDAT ?Next@?$ContainerForward@V?$list@USecurityTokenKeyfilePath@GostCrypt@@V?$allocator@USecurityTokenKeyfilePath@GostCrypt@@@std@@@std@@@ForEach@GostCrypt@@UBEXXZ
_TEXT	SEGMENT
?Next@?$ContainerForward@V?$list@USecurityTokenKeyfilePath@GostCrypt@@V?$allocator@USecurityTokenKeyfilePath@GostCrypt@@@std@@@std@@@ForEach@GostCrypt@@UBEXXZ PROC ; GostCrypt::ForEach::ContainerForward<std::list<GostCrypt::SecurityTokenKeyfilePath,std::allocator<GostCrypt::SecurityTokenKeyfilePath> > >::Next, COMDAT
; _this$ = ecx

; 39   : 			virtual void Next () const { ++Iterator; }

  00000	8b 41 14	 mov	 eax, DWORD PTR [ecx+20]
  00003	8b 00		 mov	 eax, DWORD PTR [eax]
  00005	89 41 14	 mov	 DWORD PTR [ecx+20], eax
  00008	c3		 ret	 0
?Next@?$ContainerForward@V?$list@USecurityTokenKeyfilePath@GostCrypt@@V?$allocator@USecurityTokenKeyfilePath@GostCrypt@@@std@@@std@@@ForEach@GostCrypt@@UBEXXZ ENDP ; GostCrypt::ForEach::ContainerForward<std::list<GostCrypt::SecurityTokenKeyfilePath,std::allocator<GostCrypt::SecurityTokenKeyfilePath> > >::Next
_TEXT	ENDS
; Function compile flags: /Ogtp
; File c:\users\alexis\documents\finalgostcrypt\sources_gostcrypt_windows_1.3.1\platform\foreach.h
;	COMDAT ?IsNotEnd@?$ContainerForward@V?$list@USecurityTokenKeyfilePath@GostCrypt@@V?$allocator@USecurityTokenKeyfilePath@GostCrypt@@@std@@@std@@@ForEach@GostCrypt@@UBE_NXZ
_TEXT	SEGMENT
?IsNotEnd@?$ContainerForward@V?$list@USecurityTokenKeyfilePath@GostCrypt@@V?$allocator@USecurityTokenKeyfilePath@GostCrypt@@@std@@@std@@@ForEach@GostCrypt@@UBE_NXZ PROC ; GostCrypt::ForEach::ContainerForward<std::list<GostCrypt::SecurityTokenKeyfilePath,std::allocator<GostCrypt::SecurityTokenKeyfilePath> > >::IsNotEnd, COMDAT
; _this$ = ecx

; 38   : 			virtual bool IsNotEnd () const { bool r = InnerContinue && Iterator != EndIterator; InnerContinue = false; return r; }

  00000	80 79 04 00	 cmp	 BYTE PTR [ecx+4], 0
  00004	74 0f		 je	 SHORT $LN3@IsNotEnd
  00006	8b 41 14	 mov	 eax, DWORD PTR [ecx+20]
  00009	3b 41 10	 cmp	 eax, DWORD PTR [ecx+16]
  0000c	74 07		 je	 SHORT $LN3@IsNotEnd
  0000e	b0 01		 mov	 al, 1
  00010	c6 41 04 00	 mov	 BYTE PTR [ecx+4], 0
  00014	c3		 ret	 0
$LN3@IsNotEnd:
  00015	32 c0		 xor	 al, al
  00017	88 41 04	 mov	 BYTE PTR [ecx+4], al
  0001a	c3		 ret	 0
?IsNotEnd@?$ContainerForward@V?$list@USecurityTokenKeyfilePath@GostCrypt@@V?$allocator@USecurityTokenKeyfilePath@GostCrypt@@@std@@@std@@@ForEach@GostCrypt@@UBE_NXZ ENDP ; GostCrypt::ForEach::ContainerForward<std::list<GostCrypt::SecurityTokenKeyfilePath,std::allocator<GostCrypt::SecurityTokenKeyfilePath> > >::IsNotEnd
_TEXT	ENDS
; Function compile flags: /Ogtp
; File c:\users\alexis\documents\finalgostcrypt\sources_gostcrypt_windows_1.3.1\platform\foreach.h
;	COMDAT ??0?$ContainerForward@V?$list@USecurityTokenKeyfilePath@GostCrypt@@V?$allocator@USecurityTokenKeyfilePath@GostCrypt@@@std@@@std@@@ForEach@GostCrypt@@QAE@ABV?$list@USecurityTokenKeyfilePath@GostCrypt@@V?$allocator@USecurityTokenKeyfilePath@GostCrypt@@@std@@@std@@@Z
_TEXT	SEGMENT
_this$ = -16						; size = 4
__$EHRec$ = -12						; size = 12
_container$ = 8						; size = 4
??0?$ContainerForward@V?$list@USecurityTokenKeyfilePath@GostCrypt@@V?$allocator@USecurityTokenKeyfilePath@GostCrypt@@@std@@@std@@@ForEach@GostCrypt@@QAE@ABV?$list@USecurityTokenKeyfilePath@GostCrypt@@V?$allocator@USecurityTokenKeyfilePath@GostCrypt@@@std@@@std@@@Z PROC ; GostCrypt::ForEach::ContainerForward<std::list<GostCrypt::SecurityTokenKeyfilePath,std::allocator<GostCrypt::SecurityTokenKeyfilePath> > >::ContainerForward<std::list<GostCrypt::SecurityTokenKeyfilePath,std::allocator<GostCrypt::SecurityTokenKeyfilePath> > >, COMDAT
; _this$ = ecx

; 36   : 				: ContainerCopy (container), EndIterator (ContainerCopy.end()), Iterator (ContainerCopy.begin()) { }

  00000	55		 push	 ebp
  00001	8b ec		 mov	 ebp, esp
  00003	6a ff		 push	 -1
  00005	68 00 00 00 00	 push	 __ehhandler$??0?$ContainerForward@V?$list@USecurityTokenKeyfilePath@GostCrypt@@V?$allocator@USecurityTokenKeyfilePath@GostCrypt@@@std@@@std@@@ForEach@GostCrypt@@QAE@ABV?$list@USecurityTokenKeyfilePath@GostCrypt@@V?$allocator@USecurityTokenKeyfilePath@GostCrypt@@@std@@@std@@@Z
  0000a	64 a1 00 00 00
	00		 mov	 eax, DWORD PTR fs:0
  00010	50		 push	 eax
  00011	51		 push	 ecx
  00012	56		 push	 esi
  00013	57		 push	 edi
  00014	a1 00 00 00 00	 mov	 eax, DWORD PTR ___security_cookie
  00019	33 c5		 xor	 eax, ebp
  0001b	50		 push	 eax
  0001c	8d 45 f4	 lea	 eax, DWORD PTR __$EHRec$[ebp]
  0001f	64 a3 00 00 00
	00		 mov	 DWORD PTR fs:0, eax
  00025	8b f9		 mov	 edi, ecx
  00027	89 7d f0	 mov	 DWORD PTR _this$[ebp], edi
  0002a	66 c7 47 04 01
	00		 mov	 WORD PTR [edi+4], 1
  00030	ff 75 08	 push	 DWORD PTR _container$[ebp]
  00033	8d 4f 08	 lea	 ecx, DWORD PTR [edi+8]
  00036	c7 45 fc 00 00
	00 00		 mov	 DWORD PTR __$EHRec$[ebp+8], 0
  0003d	c7 07 00 00 00
	00		 mov	 DWORD PTR [edi], OFFSET ??_7?$ContainerForward@V?$list@USecurityTokenKeyfilePath@GostCrypt@@V?$allocator@USecurityTokenKeyfilePath@GostCrypt@@@std@@@std@@@ForEach@GostCrypt@@6B@
  00043	e8 00 00 00 00	 call	 ??0?$list@USecurityTokenKeyfilePath@GostCrypt@@V?$allocator@USecurityTokenKeyfilePath@GostCrypt@@@std@@@std@@QAE@ABV01@@Z ; std::list<GostCrypt::SecurityTokenKeyfilePath,std::allocator<GostCrypt::SecurityTokenKeyfilePath> >::list<GostCrypt::SecurityTokenKeyfilePath,std::allocator<GostCrypt::SecurityTokenKeyfilePath> >
  00048	8b 47 08	 mov	 eax, DWORD PTR [edi+8]
  0004b	89 47 10	 mov	 DWORD PTR [edi+16], eax
  0004e	8b 47 08	 mov	 eax, DWORD PTR [edi+8]
  00051	8b 00		 mov	 eax, DWORD PTR [eax]
  00053	89 47 14	 mov	 DWORD PTR [edi+20], eax
  00056	8b c7		 mov	 eax, edi
  00058	8b 4d f4	 mov	 ecx, DWORD PTR __$EHRec$[ebp]
  0005b	64 89 0d 00 00
	00 00		 mov	 DWORD PTR fs:0, ecx
  00062	59		 pop	 ecx
  00063	5f		 pop	 edi
  00064	5e		 pop	 esi
  00065	8b e5		 mov	 esp, ebp
  00067	5d		 pop	 ebp
  00068	c2 04 00	 ret	 4
_TEXT	ENDS
;	COMDAT text$x
text$x	SEGMENT
__unwindfunclet$??0?$ContainerForward@V?$list@USecurityTokenKeyfilePath@GostCrypt@@V?$allocator@USecurityTokenKeyfilePath@GostCrypt@@@std@@@std@@@ForEach@GostCrypt@@QAE@ABV?$list@USecurityTokenKeyfilePath@GostCrypt@@V?$allocator@USecurityTokenKeyfilePath@GostCrypt@@@std@@@std@@@Z$0:
  00000	8b 4d f0	 mov	 ecx, DWORD PTR _this$[ebp]
  00003	e9 00 00 00 00	 jmp	 ??1Container@ForEach@GostCrypt@@UAE@XZ ; GostCrypt::ForEach::Container::~Container
__ehhandler$??0?$ContainerForward@V?$list@USecurityTokenKeyfilePath@GostCrypt@@V?$allocator@USecurityTokenKeyfilePath@GostCrypt@@@std@@@std@@@ForEach@GostCrypt@@QAE@ABV?$list@USecurityTokenKeyfilePath@GostCrypt@@V?$allocator@USecurityTokenKeyfilePath@GostCrypt@@@std@@@std@@@Z:
  00008	8b 54 24 08	 mov	 edx, DWORD PTR [esp+8]
  0000c	8d 42 0c	 lea	 eax, DWORD PTR [edx+12]
  0000f	8b 4a f0	 mov	 ecx, DWORD PTR [edx-16]
  00012	33 c8		 xor	 ecx, eax
  00014	e8 00 00 00 00	 call	 @__security_check_cookie@4
  00019	b8 00 00 00 00	 mov	 eax, OFFSET __ehfuncinfo$??0?$ContainerForward@V?$list@USecurityTokenKeyfilePath@GostCrypt@@V?$allocator@USecurityTokenKeyfilePath@GostCrypt@@@std@@@std@@@ForEach@GostCrypt@@QAE@ABV?$list@USecurityTokenKeyfilePath@GostCrypt@@V?$allocator@USecurityTokenKeyfilePath@GostCrypt@@@std@@@std@@@Z
  0001e	e9 00 00 00 00	 jmp	 ___CxxFrameHandler3
text$x	ENDS
??0?$ContainerForward@V?$list@USecurityTokenKeyfilePath@GostCrypt@@V?$allocator@USecurityTokenKeyfilePath@GostCrypt@@@std@@@std@@@ForEach@GostCrypt@@QAE@ABV?$list@USecurityTokenKeyfilePath@GostCrypt@@V?$allocator@USecurityTokenKeyfilePath@GostCrypt@@@std@@@std@@@Z ENDP ; GostCrypt::ForEach::ContainerForward<std::list<GostCrypt::SecurityTokenKeyfilePath,std::allocator<GostCrypt::SecurityTokenKeyfilePath> > >::ContainerForward<std::list<GostCrypt::SecurityTokenKeyfilePath,std::allocator<GostCrypt::SecurityTokenKeyfilePath> > >
; Function compile flags: /Ogtp
; File c:\users\alexis\documents\finalgostcrypt\sources_gostcrypt_windows_1.3.1\platform\foreach.h
;	COMDAT ??$GetContainerForward@V?$list@USecurityTokenKeyfilePath@GostCrypt@@V?$allocator@USecurityTokenKeyfilePath@GostCrypt@@@std@@@std@@@ForEach@GostCrypt@@SA?AU?$ContainerForward@V?$list@USecurityTokenKeyfilePath@GostCrypt@@V?$allocator@USecurityTokenKeyfilePath@GostCrypt@@@std@@@std@@@01@ABV?$list@USecurityTokenKeyfilePath@GostCrypt@@V?$allocator@USecurityTokenKeyfilePath@GostCrypt@@@std@@@std@@@Z
_TEXT	SEGMENT
$T2 = -16						; size = 4
__$EHRec$ = -12						; size = 12
___$ReturnUdt$ = 8					; size = 4
_container$ = 12					; size = 4
??$GetContainerForward@V?$list@USecurityTokenKeyfilePath@GostCrypt@@V?$allocator@USecurityTokenKeyfilePath@GostCrypt@@@std@@@std@@@ForEach@GostCrypt@@SA?AU?$ContainerForward@V?$list@USecurityTokenKeyfilePath@GostCrypt@@V?$allocator@USecurityTokenKeyfilePath@GostCrypt@@@std@@@std@@@01@ABV?$list@USecurityTokenKeyfilePath@GostCrypt@@V?$allocator@USecurityTokenKeyfilePath@GostCrypt@@@std@@@std@@@Z PROC ; GostCrypt::ForEach::GetContainerForward<std::list<GostCrypt::SecurityTokenKeyfilePath,std::allocator<GostCrypt::SecurityTokenKeyfilePath> > >, COMDAT

; 69   : 		{

  00000	55		 push	 ebp
  00001	8b ec		 mov	 ebp, esp
  00003	6a ff		 push	 -1
  00005	68 00 00 00 00	 push	 __ehhandler$??$GetContainerForward@V?$list@USecurityTokenKeyfilePath@GostCrypt@@V?$allocator@USecurityTokenKeyfilePath@GostCrypt@@@std@@@std@@@ForEach@GostCrypt@@SA?AU?$ContainerForward@V?$list@USecurityTokenKeyfilePath@GostCrypt@@V?$allocator@USecurityTokenKeyfilePath@GostCrypt@@@std@@@std@@@01@ABV?$list@USecurityTokenKeyfilePath@GostCrypt@@V?$allocator@USecurityTokenKeyfilePath@GostCrypt@@@std@@@std@@@Z
  0000a	64 a1 00 00 00
	00		 mov	 eax, DWORD PTR fs:0
  00010	50		 push	 eax
  00011	51		 push	 ecx
  00012	56		 push	 esi
  00013	57		 push	 edi
  00014	a1 00 00 00 00	 mov	 eax, DWORD PTR ___security_cookie
  00019	33 c5		 xor	 eax, ebp
  0001b	50		 push	 eax
  0001c	8d 45 f4	 lea	 eax, DWORD PTR __$EHRec$[ebp]
  0001f	64 a3 00 00 00
	00		 mov	 DWORD PTR fs:0, eax

; 70   : 			return ContainerForward <T> (container);

  00025	8b 7d 08	 mov	 edi, DWORD PTR ___$ReturnUdt$[ebp]
  00028	c7 45 f0 00 00
	00 00		 mov	 DWORD PTR $T2[ebp], 0
  0002f	66 c7 47 04 01
	00		 mov	 WORD PTR [edi+4], 1
  00035	ff 75 0c	 push	 DWORD PTR _container$[ebp]
  00038	8d 4f 08	 lea	 ecx, DWORD PTR [edi+8]
  0003b	c7 45 fc 00 00
	00 00		 mov	 DWORD PTR __$EHRec$[ebp+8], 0
  00042	c7 07 00 00 00
	00		 mov	 DWORD PTR [edi], OFFSET ??_7?$ContainerForward@V?$list@USecurityTokenKeyfilePath@GostCrypt@@V?$allocator@USecurityTokenKeyfilePath@GostCrypt@@@std@@@std@@@ForEach@GostCrypt@@6B@
  00048	e8 00 00 00 00	 call	 ??0?$list@USecurityTokenKeyfilePath@GostCrypt@@V?$allocator@USecurityTokenKeyfilePath@GostCrypt@@@std@@@std@@QAE@ABV01@@Z ; std::list<GostCrypt::SecurityTokenKeyfilePath,std::allocator<GostCrypt::SecurityTokenKeyfilePath> >::list<GostCrypt::SecurityTokenKeyfilePath,std::allocator<GostCrypt::SecurityTokenKeyfilePath> >
  0004d	8b 4f 08	 mov	 ecx, DWORD PTR [edi+8]
  00050	8b c7		 mov	 eax, edi
  00052	89 4f 10	 mov	 DWORD PTR [edi+16], ecx
  00055	8b 4f 08	 mov	 ecx, DWORD PTR [edi+8]
  00058	8b 09		 mov	 ecx, DWORD PTR [ecx]
  0005a	89 4f 14	 mov	 DWORD PTR [edi+20], ecx

; 71   : 		}

  0005d	8b 4d f4	 mov	 ecx, DWORD PTR __$EHRec$[ebp]
  00060	64 89 0d 00 00
	00 00		 mov	 DWORD PTR fs:0, ecx
  00067	59		 pop	 ecx
  00068	5f		 pop	 edi
  00069	5e		 pop	 esi
  0006a	8b e5		 mov	 esp, ebp
  0006c	5d		 pop	 ebp
  0006d	c3		 ret	 0
_TEXT	ENDS
;	COMDAT text$x
text$x	SEGMENT
__unwindfunclet$??$GetContainerForward@V?$list@USecurityTokenKeyfilePath@GostCrypt@@V?$allocator@USecurityTokenKeyfilePath@GostCrypt@@@std@@@std@@@ForEach@GostCrypt@@SA?AU?$ContainerForward@V?$list@USecurityTokenKeyfilePath@GostCrypt@@V?$allocator@USecurityTokenKeyfilePath@GostCrypt@@@std@@@std@@@01@ABV?$list@USecurityTokenKeyfilePath@GostCrypt@@V?$allocator@USecurityTokenKeyfilePath@GostCrypt@@@std@@@std@@@Z$1:
  00000	8b 4d 08	 mov	 ecx, DWORD PTR ___$ReturnUdt$[ebp]
  00003	e9 00 00 00 00	 jmp	 ??1Container@ForEach@GostCrypt@@UAE@XZ ; GostCrypt::ForEach::Container::~Container
__ehhandler$??$GetContainerForward@V?$list@USecurityTokenKeyfilePath@GostCrypt@@V?$allocator@USecurityTokenKeyfilePath@GostCrypt@@@std@@@std@@@ForEach@GostCrypt@@SA?AU?$ContainerForward@V?$list@USecurityTokenKeyfilePath@GostCrypt@@V?$allocator@USecurityTokenKeyfilePath@GostCrypt@@@std@@@std@@@01@ABV?$list@USecurityTokenKeyfilePath@GostCrypt@@V?$allocator@USecurityTokenKeyfilePath@GostCrypt@@@std@@@std@@@Z:
  00008	8b 54 24 08	 mov	 edx, DWORD PTR [esp+8]
  0000c	8d 42 0c	 lea	 eax, DWORD PTR [edx+12]
  0000f	8b 4a f0	 mov	 ecx, DWORD PTR [edx-16]
  00012	33 c8		 xor	 ecx, eax
  00014	e8 00 00 00 00	 call	 @__security_check_cookie@4
  00019	b8 00 00 00 00	 mov	 eax, OFFSET __ehfuncinfo$??$GetContainerForward@V?$list@USecurityTokenKeyfilePath@GostCrypt@@V?$allocator@USecurityTokenKeyfilePath@GostCrypt@@@std@@@std@@@ForEach@GostCrypt@@SA?AU?$ContainerForward@V?$list@USecurityTokenKeyfilePath@GostCrypt@@V?$allocator@USecurityTokenKeyfilePath@GostCrypt@@@std@@@std@@@01@ABV?$list@USecurityTokenKeyfilePath@GostCrypt@@V?$allocator@USecurityTokenKeyfilePath@GostCrypt@@@std@@@std@@@Z
  0001e	e9 00 00 00 00	 jmp	 ___CxxFrameHandler3
text$x	ENDS
??$GetContainerForward@V?$list@USecurityTokenKeyfilePath@GostCrypt@@V?$allocator@USecurityTokenKeyfilePath@GostCrypt@@@std@@@std@@@ForEach@GostCrypt@@SA?AU?$ContainerForward@V?$list@USecurityTokenKeyfilePath@GostCrypt@@V?$allocator@USecurityTokenKeyfilePath@GostCrypt@@@std@@@std@@@01@ABV?$list@USecurityTokenKeyfilePath@GostCrypt@@V?$allocator@USecurityTokenKeyfilePath@GostCrypt@@@std@@@std@@@Z ENDP ; GostCrypt::ForEach::GetContainerForward<std::list<GostCrypt::SecurityTokenKeyfilePath,std::allocator<GostCrypt::SecurityTokenKeyfilePath> > >
; Function compile flags: /Ogtp
; File c:\program files (x86)\microsoft visual studio 14.0\vc\include\list
;	COMDAT ?_Incsize@?$list@USecurityTokenKeyfilePath@GostCrypt@@V?$allocator@USecurityTokenKeyfilePath@GostCrypt@@@std@@@std@@QAEXI@Z
_TEXT	SEGMENT
__Count$ = 8						; size = 4
?_Incsize@?$list@USecurityTokenKeyfilePath@GostCrypt@@V?$allocator@USecurityTokenKeyfilePath@GostCrypt@@@std@@@std@@QAEXI@Z PROC ; std::list<GostCrypt::SecurityTokenKeyfilePath,std::allocator<GostCrypt::SecurityTokenKeyfilePath> >::_Incsize, COMDAT
; _this$ = ecx

; 1906 : 		{	// alter element count, with checking

  00000	55		 push	 ebp
  00001	8b ec		 mov	 ebp, esp

; 1907 : 		if (max_size() - this->_Mysize() - 1 < _Count)

  00003	8b 51 04	 mov	 edx, DWORD PTR [ecx+4]
  00006	b8 fe ff ff 07	 mov	 eax, 134217726		; 07fffffeH
  0000b	56		 push	 esi
  0000c	8b 75 08	 mov	 esi, DWORD PTR __Count$[ebp]
  0000f	2b c2		 sub	 eax, edx
  00011	3b c6		 cmp	 eax, esi
  00013	72 0b		 jb	 SHORT $LN41@Incsize

; 1909 : 		this->_Mysize() += _Count;

  00015	8d 04 32	 lea	 eax, DWORD PTR [edx+esi]
  00018	89 41 04	 mov	 DWORD PTR [ecx+4], eax
  0001b	5e		 pop	 esi

; 1910 : 		}

  0001c	5d		 pop	 ebp
  0001d	c2 04 00	 ret	 4
$LN41@Incsize:

; 1908 : 			_Xlength_error("list<T> too long");

  00020	68 00 00 00 00	 push	 OFFSET ??_C@_0BB@MOGOBHAF@list?$DMT?$DO?5too?5long?$AA@
  00025	e8 00 00 00 00	 call	 ?_Xlength_error@std@@YAXPBD@Z ; std::_Xlength_error
$LN43@Incsize:
$LN40@Incsize:
  0002a	cc		 int	 3
?_Incsize@?$list@USecurityTokenKeyfilePath@GostCrypt@@V?$allocator@USecurityTokenKeyfilePath@GostCrypt@@@std@@@std@@QAEXI@Z ENDP ; std::list<GostCrypt::SecurityTokenKeyfilePath,std::allocator<GostCrypt::SecurityTokenKeyfilePath> >::_Incsize
_TEXT	ENDS
; Function compile flags: /Ogtp
; File c:\program files (x86)\microsoft visual studio 14.0\vc\include\list
;	COMDAT ?_Tidy@?$list@USecurityTokenKeyfilePath@GostCrypt@@V?$allocator@USecurityTokenKeyfilePath@GostCrypt@@@std@@@std@@QAEXXZ
_TEXT	SEGMENT
?_Tidy@?$list@USecurityTokenKeyfilePath@GostCrypt@@V?$allocator@USecurityTokenKeyfilePath@GostCrypt@@@std@@@std@@QAEXXZ PROC ; std::list<GostCrypt::SecurityTokenKeyfilePath,std::allocator<GostCrypt::SecurityTokenKeyfilePath> >::_Tidy, COMDAT
; _this$ = ecx

; 1884 : 		clear();

  00000	e9 00 00 00 00	 jmp	 ?clear@?$list@USecurityTokenKeyfilePath@GostCrypt@@V?$allocator@USecurityTokenKeyfilePath@GostCrypt@@@std@@@std@@QAEXXZ ; std::list<GostCrypt::SecurityTokenKeyfilePath,std::allocator<GostCrypt::SecurityTokenKeyfilePath> >::clear
?_Tidy@?$list@USecurityTokenKeyfilePath@GostCrypt@@V?$allocator@USecurityTokenKeyfilePath@GostCrypt@@@std@@@std@@QAEXXZ ENDP ; std::list<GostCrypt::SecurityTokenKeyfilePath,std::allocator<GostCrypt::SecurityTokenKeyfilePath> >::_Tidy
_TEXT	ENDS
; Function compile flags: /Ogtp
; File c:\program files (x86)\microsoft visual studio 14.0\vc\include\list
;	COMDAT ?clear@?$list@USecurityTokenKeyfilePath@GostCrypt@@V?$allocator@USecurityTokenKeyfilePath@GostCrypt@@@std@@@std@@QAEXXZ
_TEXT	SEGMENT
_this$1$ = -4						; size = 4
?clear@?$list@USecurityTokenKeyfilePath@GostCrypt@@V?$allocator@USecurityTokenKeyfilePath@GostCrypt@@@std@@@std@@QAEXXZ PROC ; std::list<GostCrypt::SecurityTokenKeyfilePath,std::allocator<GostCrypt::SecurityTokenKeyfilePath> >::clear, COMDAT
; _this$ = ecx

; 1500 : 		{	// erase all

  00000	55		 push	 ebp
  00001	8b ec		 mov	 ebp, esp
  00003	51		 push	 ecx

; 1501 :  #if _ITERATOR_DEBUG_LEVEL == 2
; 1502 : 
; 1503 : 		this->_Orphan_ptr(nullptr);
; 1504 :  #endif /* _ITERATOR_DEBUG_LEVEL == 2 */
; 1505 : 		_Nodeptr _Pnode = this->_Nextnode(this->_Myhead());

  00004	8b 01		 mov	 eax, DWORD PTR [ecx]
  00006	57		 push	 edi
  00007	89 4d fc	 mov	 DWORD PTR _this$1$[ebp], ecx
  0000a	8b 38		 mov	 edi, DWORD PTR [eax]

; 1506 : 		this->_Nextnode(this->_Myhead()) = this->_Myhead();

  0000c	89 00		 mov	 DWORD PTR [eax], eax

; 1507 : 		this->_Prevnode(this->_Myhead()) = this->_Myhead();

  0000e	8b 01		 mov	 eax, DWORD PTR [ecx]
  00010	89 40 04	 mov	 DWORD PTR [eax+4], eax

; 1508 : 		this->_Mysize() = 0;

  00013	c7 41 04 00 00
	00 00		 mov	 DWORD PTR [ecx+4], 0

; 1509 : 
; 1510 : 		for (_Nodeptr _Pnext; _Pnode != this->_Myhead(); _Pnode = _Pnext)

  0001a	3b 39		 cmp	 edi, DWORD PTR [ecx]
  0001c	74 74		 je	 SHORT $LN299@clear
  0001e	53		 push	 ebx
  0001f	56		 push	 esi
$LL4@clear:

; 1511 : 			{	// delete an element
; 1512 : 			_Pnext = this->_Nextnode(_Pnode);
; 1513 : 			this->_Freenode(_Pnode);

  00020	8b 47 1c	 mov	 eax, DWORD PTR [edi+28]
  00023	8d 77 08	 lea	 esi, DWORD PTR [edi+8]
  00026	8b 1f		 mov	 ebx, DWORD PTR [edi]
  00028	83 f8 08	 cmp	 eax, 8
  0002b	72 36		 jb	 SHORT $LN227@clear
  0002d	8b 0e		 mov	 ecx, DWORD PTR [esi]
  0002f	40		 inc	 eax
  00030	3d ff ff ff 7f	 cmp	 eax, 2147483647		; 7fffffffH
  00035	77 60		 ja	 SHORT $LN303@clear
  00037	03 c0		 add	 eax, eax
  00039	3d 00 10 00 00	 cmp	 eax, 4096		; 00001000H
  0003e	72 1a		 jb	 SHORT $LN222@clear
  00040	f6 c1 1f	 test	 cl, 31			; 0000001fH
  00043	75 52		 jne	 SHORT $LN303@clear
  00045	8b 41 fc	 mov	 eax, DWORD PTR [ecx-4]
  00048	3b c1		 cmp	 eax, ecx
  0004a	73 4b		 jae	 SHORT $LN303@clear
  0004c	2b c8		 sub	 ecx, eax
  0004e	83 f9 04	 cmp	 ecx, 4
  00051	72 44		 jb	 SHORT $LN303@clear
  00053	83 f9 23	 cmp	 ecx, 35			; 00000023H
  00056	77 3f		 ja	 SHORT $LN303@clear
  00058	8b c8		 mov	 ecx, eax
$LN222@clear:
  0005a	51		 push	 ecx
  0005b	e8 00 00 00 00	 call	 ??3@YAXPAX@Z		; operator delete
  00060	83 c4 04	 add	 esp, 4
$LN227@clear:
  00063	c7 46 14 07 00
	00 00		 mov	 DWORD PTR [esi+20], 7
  0006a	83 7e 14 08	 cmp	 DWORD PTR [esi+20], 8
  0006e	c7 46 10 00 00
	00 00		 mov	 DWORD PTR [esi+16], 0
  00075	72 02		 jb	 SHORT $LN250@clear
  00077	8b 36		 mov	 esi, DWORD PTR [esi]
$LN250@clear:
  00079	33 c0		 xor	 eax, eax
  0007b	57		 push	 edi
  0007c	66 89 06	 mov	 WORD PTR [esi], ax
  0007f	e8 00 00 00 00	 call	 ??3@YAXPAX@Z		; operator delete
  00084	8b 45 fc	 mov	 eax, DWORD PTR _this$1$[ebp]
  00087	83 c4 04	 add	 esp, 4
  0008a	8b fb		 mov	 edi, ebx
  0008c	3b 18		 cmp	 ebx, DWORD PTR [eax]
  0008e	75 90		 jne	 SHORT $LL4@clear
  00090	5e		 pop	 esi
  00091	5b		 pop	 ebx
$LN299@clear:
  00092	5f		 pop	 edi

; 1514 : 			}
; 1515 : 		}

  00093	8b e5		 mov	 esp, ebp
  00095	5d		 pop	 ebp
  00096	c3		 ret	 0
$LN303@clear:

; 1511 : 			{	// delete an element
; 1512 : 			_Pnext = this->_Nextnode(_Pnode);
; 1513 : 			this->_Freenode(_Pnode);

  00097	e8 00 00 00 00	 call	 __invalid_parameter_noinfo_noreturn
$LN304@clear:
$LN302@clear:
  0009c	cc		 int	 3
?clear@?$list@USecurityTokenKeyfilePath@GostCrypt@@V?$allocator@USecurityTokenKeyfilePath@GostCrypt@@@std@@@std@@QAEXXZ ENDP ; std::list<GostCrypt::SecurityTokenKeyfilePath,std::allocator<GostCrypt::SecurityTokenKeyfilePath> >::clear
_TEXT	ENDS
; Function compile flags: /Ogtp
; File c:\program files (x86)\microsoft visual studio 14.0\vc\include\list
;	COMDAT ?_Unchecked_erase@?$list@USecurityTokenKeyfilePath@GostCrypt@@V?$allocator@USecurityTokenKeyfilePath@GostCrypt@@@std@@@std@@QAEXV?$_List_unchecked_const_iterator@V?$_List_val@U?$_List_simple_types@USecurityTokenKeyfilePath@GostCrypt@@@std@@@std@@U_Iterator_base0@2@@2@@Z
_TEXT	SEGMENT
__Where$ = 8						; size = 4
?_Unchecked_erase@?$list@USecurityTokenKeyfilePath@GostCrypt@@V?$allocator@USecurityTokenKeyfilePath@GostCrypt@@@std@@@std@@QAEXV?$_List_unchecked_const_iterator@V?$_List_val@U?$_List_simple_types@USecurityTokenKeyfilePath@GostCrypt@@@std@@@std@@U_Iterator_base0@2@@2@@Z PROC ; std::list<GostCrypt::SecurityTokenKeyfilePath,std::allocator<GostCrypt::SecurityTokenKeyfilePath> >::_Unchecked_erase, COMDAT
; _this$ = ecx

; 1473 : 		{	// erase element at _Where

  00000	55		 push	 ebp
  00001	8b ec		 mov	 ebp, esp
  00003	53		 push	 ebx
  00004	56		 push	 esi
  00005	57		 push	 edi

; 1474 : 		_Nodeptr _Pnode = _Where._Mynode();

  00006	8b 7d 08	 mov	 edi, DWORD PTR __Where$[ebp]
  00009	8b d9		 mov	 ebx, ecx

; 1475 : 
; 1476 : 		this->_Nextnode(this->_Prevnode(_Pnode)) =
; 1477 : 			this->_Nextnode(_Pnode);
; 1478 : 		this->_Prevnode(this->_Nextnode(_Pnode)) =
; 1479 : 			this->_Prevnode(_Pnode);
; 1480 : 		this->_Freenode(_Pnode);

  0000b	8d 77 08	 lea	 esi, DWORD PTR [edi+8]
  0000e	8b 57 04	 mov	 edx, DWORD PTR [edi+4]
  00011	8b 07		 mov	 eax, DWORD PTR [edi]
  00013	89 02		 mov	 DWORD PTR [edx], eax
  00015	8b 17		 mov	 edx, DWORD PTR [edi]
  00017	8b 47 04	 mov	 eax, DWORD PTR [edi+4]
  0001a	89 42 04	 mov	 DWORD PTR [edx+4], eax
  0001d	8b 46 14	 mov	 eax, DWORD PTR [esi+20]
  00020	83 f8 08	 cmp	 eax, 8
  00023	72 0b		 jb	 SHORT $LN89@Unchecked_
  00025	40		 inc	 eax
  00026	8b ce		 mov	 ecx, esi
  00028	50		 push	 eax
  00029	ff 36		 push	 DWORD PTR [esi]
  0002b	e8 00 00 00 00	 call	 ?deallocate@?$_Wrap_alloc@V?$allocator@_W@std@@@std@@QAEXPA_WI@Z ; std::_Wrap_alloc<std::allocator<wchar_t> >::deallocate
$LN89@Unchecked_:
  00030	c7 46 14 07 00
	00 00		 mov	 DWORD PTR [esi+20], 7
  00037	83 7e 14 08	 cmp	 DWORD PTR [esi+20], 8
  0003b	c7 46 10 00 00
	00 00		 mov	 DWORD PTR [esi+16], 0
  00042	72 02		 jb	 SHORT $LN179@Unchecked_
  00044	8b 36		 mov	 esi, DWORD PTR [esi]
$LN179@Unchecked_:
  00046	33 c0		 xor	 eax, eax
  00048	57		 push	 edi
  00049	66 89 06	 mov	 WORD PTR [esi], ax
  0004c	e8 00 00 00 00	 call	 ??3@YAXPAX@Z		; operator delete
  00051	83 c4 04	 add	 esp, 4

; 1481 : 		--this->_Mysize();

  00054	ff 4b 04	 dec	 DWORD PTR [ebx+4]
  00057	5f		 pop	 edi
  00058	5e		 pop	 esi
  00059	5b		 pop	 ebx

; 1482 : 		}

  0005a	5d		 pop	 ebp
  0005b	c2 04 00	 ret	 4
?_Unchecked_erase@?$list@USecurityTokenKeyfilePath@GostCrypt@@V?$allocator@USecurityTokenKeyfilePath@GostCrypt@@@std@@@std@@QAEXV?$_List_unchecked_const_iterator@V?$_List_val@U?$_List_simple_types@USecurityTokenKeyfilePath@GostCrypt@@@std@@@std@@U_Iterator_base0@2@@2@@Z ENDP ; std::list<GostCrypt::SecurityTokenKeyfilePath,std::allocator<GostCrypt::SecurityTokenKeyfilePath> >::_Unchecked_erase
_TEXT	ENDS
; Function compile flags: /Ogtp
; File c:\program files (x86)\microsoft visual studio 14.0\vc\include\list
;	COMDAT ?max_size@?$list@USecurityTokenKeyfilePath@GostCrypt@@V?$allocator@USecurityTokenKeyfilePath@GostCrypt@@@std@@@std@@QBEIXZ
_TEXT	SEGMENT
?max_size@?$list@USecurityTokenKeyfilePath@GostCrypt@@V?$allocator@USecurityTokenKeyfilePath@GostCrypt@@@std@@@std@@QBEIXZ PROC ; std::list<GostCrypt::SecurityTokenKeyfilePath,std::allocator<GostCrypt::SecurityTokenKeyfilePath> >::max_size, COMDAT
; _this$ = ecx

; 1247 : 		return (this->_Getal().max_size());

  00000	b8 ff ff ff 07	 mov	 eax, 134217727		; 07ffffffH

; 1248 : 		}

  00005	c3		 ret	 0
?max_size@?$list@USecurityTokenKeyfilePath@GostCrypt@@V?$allocator@USecurityTokenKeyfilePath@GostCrypt@@@std@@@std@@QBEIXZ ENDP ; std::list<GostCrypt::SecurityTokenKeyfilePath,std::allocator<GostCrypt::SecurityTokenKeyfilePath> >::max_size
_TEXT	ENDS
; Function compile flags: /Ogtp
; File c:\program files (x86)\microsoft visual studio 14.0\vc\include\list
;	COMDAT ?_Make_iter@?$list@USecurityTokenKeyfilePath@GostCrypt@@V?$allocator@USecurityTokenKeyfilePath@GostCrypt@@@std@@@std@@QBE?AV?$_List_iterator@V?$_List_val@U?$_List_simple_types@USecurityTokenKeyfilePath@GostCrypt@@@std@@@std@@@2@V?$_List_const_iterator@V?$_List_val@U?$_List_simple_types@USecurityTokenKeyfilePath@GostCrypt@@@std@@@std@@@2@@Z
_TEXT	SEGMENT
___$ReturnUdt$ = 8					; size = 4
__Where$ = 12						; size = 4
?_Make_iter@?$list@USecurityTokenKeyfilePath@GostCrypt@@V?$allocator@USecurityTokenKeyfilePath@GostCrypt@@@std@@@std@@QBE?AV?$_List_iterator@V?$_List_val@U?$_List_simple_types@USecurityTokenKeyfilePath@GostCrypt@@@std@@@std@@@2@V?$_List_const_iterator@V?$_List_val@U?$_List_simple_types@USecurityTokenKeyfilePath@GostCrypt@@@std@@@std@@@2@@Z PROC ; std::list<GostCrypt::SecurityTokenKeyfilePath,std::allocator<GostCrypt::SecurityTokenKeyfilePath> >::_Make_iter, COMDAT
; _this$ = ecx

; 1163 : 		{	// make iterator from const_iterator

  00000	55		 push	 ebp
  00001	8b ec		 mov	 ebp, esp

; 1164 : 		return (iterator(_Where._Ptr, &this->_Get_data()));

  00003	8b 45 08	 mov	 eax, DWORD PTR ___$ReturnUdt$[ebp]
  00006	8b 4d 0c	 mov	 ecx, DWORD PTR __Where$[ebp]
  00009	89 08		 mov	 DWORD PTR [eax], ecx

; 1165 : 		}

  0000b	5d		 pop	 ebp
  0000c	c2 08 00	 ret	 8
?_Make_iter@?$list@USecurityTokenKeyfilePath@GostCrypt@@V?$allocator@USecurityTokenKeyfilePath@GostCrypt@@@std@@@std@@QBE?AV?$_List_iterator@V?$_List_val@U?$_List_simple_types@USecurityTokenKeyfilePath@GostCrypt@@@std@@@std@@@2@V?$_List_const_iterator@V?$_List_val@U?$_List_simple_types@USecurityTokenKeyfilePath@GostCrypt@@@std@@@std@@@2@@Z ENDP ; std::list<GostCrypt::SecurityTokenKeyfilePath,std::allocator<GostCrypt::SecurityTokenKeyfilePath> >::_Make_iter
_TEXT	ENDS
; Function compile flags: /Ogtp
; File c:\program files (x86)\microsoft visual studio 14.0\vc\include\list
;	COMDAT ?end@?$list@USecurityTokenKeyfilePath@GostCrypt@@V?$allocator@USecurityTokenKeyfilePath@GostCrypt@@@std@@@std@@QBE?AV?$_List_const_iterator@V?$_List_val@U?$_List_simple_types@USecurityTokenKeyfilePath@GostCrypt@@@std@@@std@@@2@XZ
_TEXT	SEGMENT
___$ReturnUdt$ = 8					; size = 4
?end@?$list@USecurityTokenKeyfilePath@GostCrypt@@V?$allocator@USecurityTokenKeyfilePath@GostCrypt@@@std@@@std@@QBE?AV?$_List_const_iterator@V?$_List_val@U?$_List_simple_types@USecurityTokenKeyfilePath@GostCrypt@@@std@@@std@@@2@XZ PROC ; std::list<GostCrypt::SecurityTokenKeyfilePath,std::allocator<GostCrypt::SecurityTokenKeyfilePath> >::end, COMDAT
; _this$ = ecx

; 1135 : 		{	// return iterator for end of nonmutable sequence

  00000	55		 push	 ebp
  00001	8b ec		 mov	 ebp, esp

; 1136 : 		return (const_iterator(this->_Myhead(), &this->_Get_data()));

  00003	8b 45 08	 mov	 eax, DWORD PTR ___$ReturnUdt$[ebp]
  00006	8b 09		 mov	 ecx, DWORD PTR [ecx]
  00008	89 08		 mov	 DWORD PTR [eax], ecx

; 1137 : 		}

  0000a	5d		 pop	 ebp
  0000b	c2 04 00	 ret	 4
?end@?$list@USecurityTokenKeyfilePath@GostCrypt@@V?$allocator@USecurityTokenKeyfilePath@GostCrypt@@@std@@@std@@QBE?AV?$_List_const_iterator@V?$_List_val@U?$_List_simple_types@USecurityTokenKeyfilePath@GostCrypt@@@std@@@std@@@2@XZ ENDP ; std::list<GostCrypt::SecurityTokenKeyfilePath,std::allocator<GostCrypt::SecurityTokenKeyfilePath> >::end
_TEXT	ENDS
; Function compile flags: /Ogtp
; File c:\program files (x86)\microsoft visual studio 14.0\vc\include\list
;	COMDAT ?begin@?$list@USecurityTokenKeyfilePath@GostCrypt@@V?$allocator@USecurityTokenKeyfilePath@GostCrypt@@@std@@@std@@QBE?AV?$_List_const_iterator@V?$_List_val@U?$_List_simple_types@USecurityTokenKeyfilePath@GostCrypt@@@std@@@std@@@2@XZ
_TEXT	SEGMENT
___$ReturnUdt$ = 8					; size = 4
?begin@?$list@USecurityTokenKeyfilePath@GostCrypt@@V?$allocator@USecurityTokenKeyfilePath@GostCrypt@@@std@@@std@@QBE?AV?$_List_const_iterator@V?$_List_val@U?$_List_simple_types@USecurityTokenKeyfilePath@GostCrypt@@@std@@@std@@@2@XZ PROC ; std::list<GostCrypt::SecurityTokenKeyfilePath,std::allocator<GostCrypt::SecurityTokenKeyfilePath> >::begin, COMDAT
; _this$ = ecx

; 1124 : 		{	// return iterator for beginning of nonmutable sequence

  00000	55		 push	 ebp
  00001	8b ec		 mov	 ebp, esp

; 1125 : 		return (const_iterator(this->_Nextnode(this->_Myhead()),

  00003	8b 01		 mov	 eax, DWORD PTR [ecx]
  00005	8b 08		 mov	 ecx, DWORD PTR [eax]
  00007	8b 45 08	 mov	 eax, DWORD PTR ___$ReturnUdt$[ebp]
  0000a	89 08		 mov	 DWORD PTR [eax], ecx

; 1126 : 			&this->_Get_data()));
; 1127 : 		}

  0000c	5d		 pop	 ebp
  0000d	c2 04 00	 ret	 4
?begin@?$list@USecurityTokenKeyfilePath@GostCrypt@@V?$allocator@USecurityTokenKeyfilePath@GostCrypt@@@std@@@std@@QBE?AV?$_List_const_iterator@V?$_List_val@U?$_List_simple_types@USecurityTokenKeyfilePath@GostCrypt@@@std@@@std@@@2@XZ ENDP ; std::list<GostCrypt::SecurityTokenKeyfilePath,std::allocator<GostCrypt::SecurityTokenKeyfilePath> >::begin
_TEXT	ENDS
; Function compile flags: /Ogtp
; File c:\program files (x86)\microsoft visual studio 14.0\vc\include\list
;	COMDAT ?begin@?$list@USecurityTokenKeyfilePath@GostCrypt@@V?$allocator@USecurityTokenKeyfilePath@GostCrypt@@@std@@@std@@QAE?AV?$_List_iterator@V?$_List_val@U?$_List_simple_types@USecurityTokenKeyfilePath@GostCrypt@@@std@@@std@@@2@XZ
_TEXT	SEGMENT
___$ReturnUdt$ = 8					; size = 4
?begin@?$list@USecurityTokenKeyfilePath@GostCrypt@@V?$allocator@USecurityTokenKeyfilePath@GostCrypt@@@std@@@std@@QAE?AV?$_List_iterator@V?$_List_val@U?$_List_simple_types@USecurityTokenKeyfilePath@GostCrypt@@@std@@@std@@@2@XZ PROC ; std::list<GostCrypt::SecurityTokenKeyfilePath,std::allocator<GostCrypt::SecurityTokenKeyfilePath> >::begin, COMDAT
; _this$ = ecx

; 1118 : 		{	// return iterator for beginning of mutable sequence

  00000	55		 push	 ebp
  00001	8b ec		 mov	 ebp, esp

; 1119 : 		return (iterator(this->_Nextnode(this->_Myhead()),

  00003	8b 01		 mov	 eax, DWORD PTR [ecx]
  00005	8b 08		 mov	 ecx, DWORD PTR [eax]
  00007	8b 45 08	 mov	 eax, DWORD PTR ___$ReturnUdt$[ebp]
  0000a	89 08		 mov	 DWORD PTR [eax], ecx

; 1120 : 			&this->_Get_data()));
; 1121 : 		}

  0000c	5d		 pop	 ebp
  0000d	c2 04 00	 ret	 4
?begin@?$list@USecurityTokenKeyfilePath@GostCrypt@@V?$allocator@USecurityTokenKeyfilePath@GostCrypt@@@std@@@std@@QAE?AV?$_List_iterator@V?$_List_val@U?$_List_simple_types@USecurityTokenKeyfilePath@GostCrypt@@@std@@@std@@@2@XZ ENDP ; std::list<GostCrypt::SecurityTokenKeyfilePath,std::allocator<GostCrypt::SecurityTokenKeyfilePath> >::begin
_TEXT	ENDS
; Function compile flags: /Ogtp
; File c:\program files (x86)\microsoft visual studio 14.0\vc\include\list
;	COMDAT ??1?$list@USecurityTokenKeyfilePath@GostCrypt@@V?$allocator@USecurityTokenKeyfilePath@GostCrypt@@@std@@@std@@QAE@XZ
_TEXT	SEGMENT
??1?$list@USecurityTokenKeyfilePath@GostCrypt@@V?$allocator@USecurityTokenKeyfilePath@GostCrypt@@@std@@@std@@QAE@XZ PROC ; std::list<GostCrypt::SecurityTokenKeyfilePath,std::allocator<GostCrypt::SecurityTokenKeyfilePath> >::~list<GostCrypt::SecurityTokenKeyfilePath,std::allocator<GostCrypt::SecurityTokenKeyfilePath> >, COMDAT
; _this$ = ecx

; 1097 : 		{	// destroy the object

  00000	56		 push	 esi
  00001	8b f1		 mov	 esi, ecx

; 1098 : 		_Tidy();

  00003	e8 00 00 00 00	 call	 ?clear@?$list@USecurityTokenKeyfilePath@GostCrypt@@V?$allocator@USecurityTokenKeyfilePath@GostCrypt@@@std@@@std@@QAEXXZ ; std::list<GostCrypt::SecurityTokenKeyfilePath,std::allocator<GostCrypt::SecurityTokenKeyfilePath> >::clear

; 1099 : 		}

  00008	ff 36		 push	 DWORD PTR [esi]
  0000a	e8 00 00 00 00	 call	 ??3@YAXPAX@Z		; operator delete
  0000f	83 c4 04	 add	 esp, 4
  00012	5e		 pop	 esi
  00013	c3		 ret	 0
??1?$list@USecurityTokenKeyfilePath@GostCrypt@@V?$allocator@USecurityTokenKeyfilePath@GostCrypt@@@std@@@std@@QAE@XZ ENDP ; std::list<GostCrypt::SecurityTokenKeyfilePath,std::allocator<GostCrypt::SecurityTokenKeyfilePath> >::~list<GostCrypt::SecurityTokenKeyfilePath,std::allocator<GostCrypt::SecurityTokenKeyfilePath> >
_TEXT	ENDS
; Function compile flags: /Ogtp
; File c:\program files (x86)\microsoft visual studio 14.0\vc\include\list
;	COMDAT ??0?$list@USecurityTokenKeyfilePath@GostCrypt@@V?$allocator@USecurityTokenKeyfilePath@GostCrypt@@@std@@@std@@QAE@ABV01@@Z
_TEXT	SEGMENT
_this$ = -20						; size = 4
__$EHRec$ = -16						; size = 16
$T2 = 8							; size = 1
__Right$ = 8						; size = 4
??0?$list@USecurityTokenKeyfilePath@GostCrypt@@V?$allocator@USecurityTokenKeyfilePath@GostCrypt@@@std@@@std@@QAE@ABV01@@Z PROC ; std::list<GostCrypt::SecurityTokenKeyfilePath,std::allocator<GostCrypt::SecurityTokenKeyfilePath> >::list<GostCrypt::SecurityTokenKeyfilePath,std::allocator<GostCrypt::SecurityTokenKeyfilePath> >, COMDAT
; _this$ = ecx

; 924  : 		{	// construct list by copying _Right

  00000	55		 push	 ebp
  00001	8b ec		 mov	 ebp, esp
  00003	6a ff		 push	 -1
  00005	68 00 00 00 00	 push	 __ehhandler$??0?$list@USecurityTokenKeyfilePath@GostCrypt@@V?$allocator@USecurityTokenKeyfilePath@GostCrypt@@@std@@@std@@QAE@ABV01@@Z
  0000a	64 a1 00 00 00
	00		 mov	 eax, DWORD PTR fs:0
  00010	50		 push	 eax
  00011	83 ec 08	 sub	 esp, 8
  00014	53		 push	 ebx
  00015	56		 push	 esi
  00016	57		 push	 edi
  00017	a1 00 00 00 00	 mov	 eax, DWORD PTR ___security_cookie
  0001c	33 c5		 xor	 eax, ebp
  0001e	50		 push	 eax
  0001f	8d 45 f4	 lea	 eax, DWORD PTR __$EHRec$[ebp+4]
  00022	64 a3 00 00 00
	00		 mov	 DWORD PTR fs:0, eax
  00028	89 65 f0	 mov	 DWORD PTR __$EHRec$[ebp], esp
  0002b	8b f1		 mov	 esi, ecx
  0002d	89 75 ec	 mov	 DWORD PTR _this$[ebp], esi

; 921  : 		: _Mybase(_Right._Getal().select_on_container_copy_construction())

  00030	6a 00		 push	 0
  00032	6a 00		 push	 0
  00034	c7 06 00 00 00
	00		 mov	 DWORD PTR [esi], 0
  0003a	c7 46 04 00 00
	00 00		 mov	 DWORD PTR [esi+4], 0
  00041	e8 00 00 00 00	 call	 ?_Buynode0@?$_List_alloc@U?$_List_base_types@USecurityTokenKeyfilePath@GostCrypt@@V?$allocator@USecurityTokenKeyfilePath@GostCrypt@@@std@@@std@@@std@@QAEPAU?$_List_node@USecurityTokenKeyfilePath@GostCrypt@@PAX@2@PAU32@0@Z ; std::_List_alloc<std::_List_base_types<GostCrypt::SecurityTokenKeyfilePath,std::allocator<GostCrypt::SecurityTokenKeyfilePath> > >::_Buynode0
  00046	89 06		 mov	 DWORD PTR [esi], eax

; 925  : 		_TRY_BEGIN
; 926  : 		insert(begin(), _Right.begin(), _Right.end());

  00048	8b 4d 08	 mov	 ecx, DWORD PTR __Right$[ebp]
  0004b	8b 00		 mov	 eax, DWORD PTR [eax]
  0004d	c6 45 08 00	 mov	 BYTE PTR $T2[ebp], 0
  00051	ff 75 08	 push	 DWORD PTR $T2[ebp]
  00054	8b 09		 mov	 ecx, DWORD PTR [ecx]
  00056	51		 push	 ecx
  00057	c7 45 fc 00 00
	00 00		 mov	 DWORD PTR __$EHRec$[ebp+12], 0
  0005e	c6 45 fc 01	 mov	 BYTE PTR __$EHRec$[ebp+12], 1
  00062	8b 11		 mov	 edx, DWORD PTR [ecx]
  00064	8b ce		 mov	 ecx, esi
  00066	52		 push	 edx
  00067	50		 push	 eax
  00068	e8 00 00 00 00	 call	 ??$_Insert_range@V?$_List_const_iterator@V?$_List_val@U?$_List_simple_types@USecurityTokenKeyfilePath@GostCrypt@@@std@@@std@@@std@@@?$list@USecurityTokenKeyfilePath@GostCrypt@@V?$allocator@USecurityTokenKeyfilePath@GostCrypt@@@std@@@std@@QAEXV?$_List_unchecked_const_iterator@V?$_List_val@U?$_List_simple_types@USecurityTokenKeyfilePath@GostCrypt@@@std@@@std@@U_Iterator_base0@2@@1@V?$_List_const_iterator@V?$_List_val@U?$_List_simple_types@USecurityTokenKeyfilePath@GostCrypt@@@std@@@std@@@1@1Uforward_iterator_tag@1@@Z ; std::list<GostCrypt::SecurityTokenKeyfilePath,std::allocator<GostCrypt::SecurityTokenKeyfilePath> >::_Insert_range<std::_List_const_iterator<std::_List_val<std::_List_simple_types<GostCrypt::SecurityTokenKeyfilePath> > > >

; 930  : 		_CATCH_END
; 931  : 		}

  0006d	8b c6		 mov	 eax, esi
  0006f	8b 4d f4	 mov	 ecx, DWORD PTR __$EHRec$[ebp+4]
  00072	64 89 0d 00 00
	00 00		 mov	 DWORD PTR fs:0, ecx
  00079	59		 pop	 ecx
  0007a	5f		 pop	 edi
  0007b	5e		 pop	 esi
  0007c	5b		 pop	 ebx
  0007d	8b e5		 mov	 esp, ebp
  0007f	5d		 pop	 ebp
  00080	c2 04 00	 ret	 4
__catch$??0?$list@USecurityTokenKeyfilePath@GostCrypt@@V?$allocator@USecurityTokenKeyfilePath@GostCrypt@@@std@@@std@@QAE@ABV01@@Z$0:

; 927  : 		_CATCH_ALL
; 928  : 		_Tidy();

  00083	8b 4d ec	 mov	 ecx, DWORD PTR _this$[ebp]
  00086	e8 00 00 00 00	 call	 ?clear@?$list@USecurityTokenKeyfilePath@GostCrypt@@V?$allocator@USecurityTokenKeyfilePath@GostCrypt@@@std@@@std@@QAEXXZ ; std::list<GostCrypt::SecurityTokenKeyfilePath,std::allocator<GostCrypt::SecurityTokenKeyfilePath> >::clear

; 929  : 		_RERAISE;

  0008b	6a 00		 push	 0
  0008d	6a 00		 push	 0
  0008f	e8 00 00 00 00	 call	 __CxxThrowException@8
$LN248@list:
$LN247@list:
  00094	cc		 int	 3
_TEXT	ENDS
;	COMDAT text$x
text$x	SEGMENT
__unwindfunclet$??0?$list@USecurityTokenKeyfilePath@GostCrypt@@V?$allocator@USecurityTokenKeyfilePath@GostCrypt@@@std@@@std@@QAE@ABV01@@Z$2:
  00000	8b 4d ec	 mov	 ecx, DWORD PTR _this$[ebp]
  00003	e9 00 00 00 00	 jmp	 ??1?$_List_buy@USecurityTokenKeyfilePath@GostCrypt@@V?$allocator@USecurityTokenKeyfilePath@GostCrypt@@@std@@@std@@QAE@XZ
__ehhandler$??0?$list@USecurityTokenKeyfilePath@GostCrypt@@V?$allocator@USecurityTokenKeyfilePath@GostCrypt@@@std@@@std@@QAE@ABV01@@Z:
  00008	8b 54 24 08	 mov	 edx, DWORD PTR [esp+8]
  0000c	8d 42 0c	 lea	 eax, DWORD PTR [edx+12]
  0000f	8b 4a e8	 mov	 ecx, DWORD PTR [edx-24]
  00012	33 c8		 xor	 ecx, eax
  00014	e8 00 00 00 00	 call	 @__security_check_cookie@4
  00019	b8 00 00 00 00	 mov	 eax, OFFSET __ehfuncinfo$??0?$list@USecurityTokenKeyfilePath@GostCrypt@@V?$allocator@USecurityTokenKeyfilePath@GostCrypt@@@std@@@std@@QAE@ABV01@@Z
  0001e	e9 00 00 00 00	 jmp	 ___CxxFrameHandler3
text$x	ENDS
??0?$list@USecurityTokenKeyfilePath@GostCrypt@@V?$allocator@USecurityTokenKeyfilePath@GostCrypt@@@std@@@std@@QAE@ABV01@@Z ENDP ; std::list<GostCrypt::SecurityTokenKeyfilePath,std::allocator<GostCrypt::SecurityTokenKeyfilePath> >::list<GostCrypt::SecurityTokenKeyfilePath,std::allocator<GostCrypt::SecurityTokenKeyfilePath> >
; Function compile flags: /Ogtp
; File c:\program files (x86)\microsoft visual studio 14.0\vc\include\list
;	COMDAT ??0?$list@USecurityTokenKeyfilePath@GostCrypt@@V?$allocator@USecurityTokenKeyfilePath@GostCrypt@@@std@@@std@@QAE@XZ
_TEXT	SEGMENT
_this$ = -4						; size = 4
??0?$list@USecurityTokenKeyfilePath@GostCrypt@@V?$allocator@USecurityTokenKeyfilePath@GostCrypt@@@std@@@std@@QAE@XZ PROC ; std::list<GostCrypt::SecurityTokenKeyfilePath,std::allocator<GostCrypt::SecurityTokenKeyfilePath> >::list<GostCrypt::SecurityTokenKeyfilePath,std::allocator<GostCrypt::SecurityTokenKeyfilePath> >, COMDAT
; _this$ = ecx

; 893  : 		{	// construct empty list

  00000	55		 push	 ebp
  00001	8b ec		 mov	 ebp, esp
  00003	51		 push	 ecx
  00004	56		 push	 esi
  00005	8b f1		 mov	 esi, ecx
  00007	6a 00		 push	 0
  00009	6a 00		 push	 0
  0000b	89 75 fc	 mov	 DWORD PTR _this$[ebp], esi
  0000e	c7 06 00 00 00
	00		 mov	 DWORD PTR [esi], 0
  00014	c7 46 04 00 00
	00 00		 mov	 DWORD PTR [esi+4], 0
  0001b	e8 00 00 00 00	 call	 ?_Buynode0@?$_List_alloc@U?$_List_base_types@USecurityTokenKeyfilePath@GostCrypt@@V?$allocator@USecurityTokenKeyfilePath@GostCrypt@@@std@@@std@@@std@@QAEPAU?$_List_node@USecurityTokenKeyfilePath@GostCrypt@@PAX@2@PAU32@0@Z ; std::_List_alloc<std::_List_base_types<GostCrypt::SecurityTokenKeyfilePath,std::allocator<GostCrypt::SecurityTokenKeyfilePath> > >::_Buynode0
  00020	89 06		 mov	 DWORD PTR [esi], eax

; 894  : 		}

  00022	8b c6		 mov	 eax, esi
  00024	5e		 pop	 esi
  00025	8b e5		 mov	 esp, ebp
  00027	5d		 pop	 ebp
  00028	c3		 ret	 0
??0?$list@USecurityTokenKeyfilePath@GostCrypt@@V?$allocator@USecurityTokenKeyfilePath@GostCrypt@@@std@@@std@@QAE@XZ ENDP ; std::list<GostCrypt::SecurityTokenKeyfilePath,std::allocator<GostCrypt::SecurityTokenKeyfilePath> >::list<GostCrypt::SecurityTokenKeyfilePath,std::allocator<GostCrypt::SecurityTokenKeyfilePath> >
_TEXT	ENDS
; Function compile flags: /Ogtp
;	COMDAT ??1?$_List_buy@USecurityTokenKeyfilePath@GostCrypt@@V?$allocator@USecurityTokenKeyfilePath@GostCrypt@@@std@@@std@@QAE@XZ
_TEXT	SEGMENT
??1?$_List_buy@USecurityTokenKeyfilePath@GostCrypt@@V?$allocator@USecurityTokenKeyfilePath@GostCrypt@@@std@@@std@@QAE@XZ PROC ; std::_List_buy<GostCrypt::SecurityTokenKeyfilePath,std::allocator<GostCrypt::SecurityTokenKeyfilePath> >::~_List_buy<GostCrypt::SecurityTokenKeyfilePath,std::allocator<GostCrypt::SecurityTokenKeyfilePath> >, COMDAT
; _this$ = ecx
  00000	ff 31		 push	 DWORD PTR [ecx]
  00002	e8 00 00 00 00	 call	 ??3@YAXPAX@Z		; operator delete
  00007	59		 pop	 ecx
  00008	c3		 ret	 0
??1?$_List_buy@USecurityTokenKeyfilePath@GostCrypt@@V?$allocator@USecurityTokenKeyfilePath@GostCrypt@@@std@@@std@@QAE@XZ ENDP ; std::_List_buy<GostCrypt::SecurityTokenKeyfilePath,std::allocator<GostCrypt::SecurityTokenKeyfilePath> >::~_List_buy<GostCrypt::SecurityTokenKeyfilePath,std::allocator<GostCrypt::SecurityTokenKeyfilePath> >
_TEXT	ENDS
; Function compile flags: /Ogtp
; File c:\program files (x86)\microsoft visual studio 14.0\vc\include\list
;	COMDAT ?_Freenode@?$_List_buy@USecurityTokenKeyfilePath@GostCrypt@@V?$allocator@USecurityTokenKeyfilePath@GostCrypt@@@std@@@std@@QAEXPAU?$_List_node@USecurityTokenKeyfilePath@GostCrypt@@PAX@2@@Z
_TEXT	SEGMENT
__Pnode$ = 8						; size = 4
?_Freenode@?$_List_buy@USecurityTokenKeyfilePath@GostCrypt@@V?$allocator@USecurityTokenKeyfilePath@GostCrypt@@@std@@@std@@QAEXPAU?$_List_node@USecurityTokenKeyfilePath@GostCrypt@@PAX@2@@Z PROC ; std::_List_buy<GostCrypt::SecurityTokenKeyfilePath,std::allocator<GostCrypt::SecurityTokenKeyfilePath> >::_Freenode, COMDAT
; _this$ = ecx

; 848  : 		{	// give node back

  00000	55		 push	 ebp
  00001	8b ec		 mov	 ebp, esp
  00003	56		 push	 esi
  00004	57		 push	 edi

; 849  : 		this->_Getal().destroy(
; 850  : 			_STD addressof(this->_Nextnode(_Pnode)));
; 851  : 		this->_Getal().destroy(
; 852  : 			_STD addressof(this->_Prevnode(_Pnode)));
; 853  : 		this->_Getal().destroy(

  00005	8b 7d 08	 mov	 edi, DWORD PTR __Pnode$[ebp]
  00008	8b 47 1c	 mov	 eax, DWORD PTR [edi+28]
  0000b	8d 77 08	 lea	 esi, DWORD PTR [edi+8]
  0000e	83 f8 08	 cmp	 eax, 8
  00011	72 0b		 jb	 SHORT $LN61@Freenode
  00013	40		 inc	 eax
  00014	8b ce		 mov	 ecx, esi
  00016	50		 push	 eax
  00017	ff 36		 push	 DWORD PTR [esi]
  00019	e8 00 00 00 00	 call	 ?deallocate@?$_Wrap_alloc@V?$allocator@_W@std@@@std@@QAEXPA_WI@Z ; std::_Wrap_alloc<std::allocator<wchar_t> >::deallocate
$LN61@Freenode:
  0001e	c7 46 14 07 00
	00 00		 mov	 DWORD PTR [esi+20], 7
  00025	83 7e 14 08	 cmp	 DWORD PTR [esi+20], 8
  00029	c7 46 10 00 00
	00 00		 mov	 DWORD PTR [esi+16], 0
  00030	72 02		 jb	 SHORT $LN151@Freenode
  00032	8b 36		 mov	 esi, DWORD PTR [esi]
$LN151@Freenode:
  00034	33 c0		 xor	 eax, eax

; 854  : 			_STD addressof(this->_Myval(_Pnode)));
; 855  : 		this->_Getal().deallocate(_Pnode, 1);

  00036	57		 push	 edi
  00037	66 89 06	 mov	 WORD PTR [esi], ax
  0003a	e8 00 00 00 00	 call	 ??3@YAXPAX@Z		; operator delete
  0003f	83 c4 04	 add	 esp, 4
  00042	5f		 pop	 edi
  00043	5e		 pop	 esi

; 856  : 		}

  00044	5d		 pop	 ebp
  00045	c2 04 00	 ret	 4
?_Freenode@?$_List_buy@USecurityTokenKeyfilePath@GostCrypt@@V?$allocator@USecurityTokenKeyfilePath@GostCrypt@@@std@@@std@@QAEXPAU?$_List_node@USecurityTokenKeyfilePath@GostCrypt@@PAX@2@@Z ENDP ; std::_List_buy<GostCrypt::SecurityTokenKeyfilePath,std::allocator<GostCrypt::SecurityTokenKeyfilePath> >::_Freenode
_TEXT	ENDS
; Function compile flags: /Ogtp
; File c:\program files (x86)\microsoft visual studio 14.0\vc\include\list
;	COMDAT ??0?$_List_buy@USecurityTokenKeyfilePath@GostCrypt@@V?$allocator@USecurityTokenKeyfilePath@GostCrypt@@@std@@@std@@QAE@XZ
_TEXT	SEGMENT
_this$ = -4						; size = 4
??0?$_List_buy@USecurityTokenKeyfilePath@GostCrypt@@V?$allocator@USecurityTokenKeyfilePath@GostCrypt@@@std@@@std@@QAE@XZ PROC ; std::_List_buy<GostCrypt::SecurityTokenKeyfilePath,std::allocator<GostCrypt::SecurityTokenKeyfilePath> >::_List_buy<GostCrypt::SecurityTokenKeyfilePath,std::allocator<GostCrypt::SecurityTokenKeyfilePath> >, COMDAT
; _this$ = ecx

; 818  : 		{	// default construct

  00000	55		 push	 ebp
  00001	8b ec		 mov	 ebp, esp
  00003	51		 push	 ecx
  00004	56		 push	 esi
  00005	8b f1		 mov	 esi, ecx
  00007	6a 00		 push	 0
  00009	6a 00		 push	 0
  0000b	89 75 fc	 mov	 DWORD PTR _this$[ebp], esi
  0000e	c7 06 00 00 00
	00		 mov	 DWORD PTR [esi], 0
  00014	c7 46 04 00 00
	00 00		 mov	 DWORD PTR [esi+4], 0
  0001b	e8 00 00 00 00	 call	 ?_Buynode0@?$_List_alloc@U?$_List_base_types@USecurityTokenKeyfilePath@GostCrypt@@V?$allocator@USecurityTokenKeyfilePath@GostCrypt@@@std@@@std@@@std@@QAEPAU?$_List_node@USecurityTokenKeyfilePath@GostCrypt@@PAX@2@PAU32@0@Z ; std::_List_alloc<std::_List_base_types<GostCrypt::SecurityTokenKeyfilePath,std::allocator<GostCrypt::SecurityTokenKeyfilePath> > >::_Buynode0
  00020	89 06		 mov	 DWORD PTR [esi], eax

; 819  : 		}

  00022	8b c6		 mov	 eax, esi
  00024	5e		 pop	 esi
  00025	8b e5		 mov	 esp, ebp
  00027	5d		 pop	 ebp
  00028	c3		 ret	 0
??0?$_List_buy@USecurityTokenKeyfilePath@GostCrypt@@V?$allocator@USecurityTokenKeyfilePath@GostCrypt@@@std@@@std@@QAE@XZ ENDP ; std::_List_buy<GostCrypt::SecurityTokenKeyfilePath,std::allocator<GostCrypt::SecurityTokenKeyfilePath> >::_List_buy<GostCrypt::SecurityTokenKeyfilePath,std::allocator<GostCrypt::SecurityTokenKeyfilePath> >
_TEXT	ENDS
; Function compile flags: /Ogtp
; File c:\program files (x86)\microsoft visual studio 14.0\vc\include\xutility
;	COMDAT ?_Get_second@?$_Compressed_pair@U?$_Wrap_alloc@V?$allocator@U?$_List_node@USecurityTokenKeyfilePath@GostCrypt@@PAX@std@@@std@@@std@@V?$_List_val@U?$_List_simple_types@USecurityTokenKeyfilePath@GostCrypt@@@std@@@2@$00@std@@QBEABV?$_List_val@U?$_List_simple_types@USecurityTokenKeyfilePath@GostCrypt@@@std@@@2@XZ
_TEXT	SEGMENT
?_Get_second@?$_Compressed_pair@U?$_Wrap_alloc@V?$allocator@U?$_List_node@USecurityTokenKeyfilePath@GostCrypt@@PAX@std@@@std@@@std@@V?$_List_val@U?$_List_simple_types@USecurityTokenKeyfilePath@GostCrypt@@@std@@@2@$00@std@@QBEABV?$_List_val@U?$_List_simple_types@USecurityTokenKeyfilePath@GostCrypt@@@std@@@2@XZ PROC ; std::_Compressed_pair<std::_Wrap_alloc<std::allocator<std::_List_node<GostCrypt::SecurityTokenKeyfilePath,void *> > >,std::_List_val<std::_List_simple_types<GostCrypt::SecurityTokenKeyfilePath> >,1>::_Get_second, COMDAT
; _this$ = ecx

; 320  : 		return (_Myval2);

  00000	8b c1		 mov	 eax, ecx

; 321  : 		}

  00002	c3		 ret	 0
?_Get_second@?$_Compressed_pair@U?$_Wrap_alloc@V?$allocator@U?$_List_node@USecurityTokenKeyfilePath@GostCrypt@@PAX@std@@@std@@@std@@V?$_List_val@U?$_List_simple_types@USecurityTokenKeyfilePath@GostCrypt@@@std@@@2@$00@std@@QBEABV?$_List_val@U?$_List_simple_types@USecurityTokenKeyfilePath@GostCrypt@@@std@@@2@XZ ENDP ; std::_Compressed_pair<std::_Wrap_alloc<std::allocator<std::_List_node<GostCrypt::SecurityTokenKeyfilePath,void *> > >,std::_List_val<std::_List_simple_types<GostCrypt::SecurityTokenKeyfilePath> >,1>::_Get_second
_TEXT	ENDS
; Function compile flags: /Ogtp
; File c:\program files (x86)\microsoft visual studio 14.0\vc\include\xutility
;	COMDAT ?_Get_second@?$_Compressed_pair@U?$_Wrap_alloc@V?$allocator@U?$_List_node@USecurityTokenKeyfilePath@GostCrypt@@PAX@std@@@std@@@std@@V?$_List_val@U?$_List_simple_types@USecurityTokenKeyfilePath@GostCrypt@@@std@@@2@$00@std@@QAEAAV?$_List_val@U?$_List_simple_types@USecurityTokenKeyfilePath@GostCrypt@@@std@@@2@XZ
_TEXT	SEGMENT
?_Get_second@?$_Compressed_pair@U?$_Wrap_alloc@V?$allocator@U?$_List_node@USecurityTokenKeyfilePath@GostCrypt@@PAX@std@@@std@@@std@@V?$_List_val@U?$_List_simple_types@USecurityTokenKeyfilePath@GostCrypt@@@std@@@2@$00@std@@QAEAAV?$_List_val@U?$_List_simple_types@USecurityTokenKeyfilePath@GostCrypt@@@std@@@2@XZ PROC ; std::_Compressed_pair<std::_Wrap_alloc<std::allocator<std::_List_node<GostCrypt::SecurityTokenKeyfilePath,void *> > >,std::_List_val<std::_List_simple_types<GostCrypt::SecurityTokenKeyfilePath> >,1>::_Get_second, COMDAT
; _this$ = ecx

; 315  : 		return (_Myval2);

  00000	8b c1		 mov	 eax, ecx

; 316  : 		}

  00002	c3		 ret	 0
?_Get_second@?$_Compressed_pair@U?$_Wrap_alloc@V?$allocator@U?$_List_node@USecurityTokenKeyfilePath@GostCrypt@@PAX@std@@@std@@@std@@V?$_List_val@U?$_List_simple_types@USecurityTokenKeyfilePath@GostCrypt@@@std@@@2@$00@std@@QAEAAV?$_List_val@U?$_List_simple_types@USecurityTokenKeyfilePath@GostCrypt@@@std@@@2@XZ ENDP ; std::_Compressed_pair<std::_Wrap_alloc<std::allocator<std::_List_node<GostCrypt::SecurityTokenKeyfilePath,void *> > >,std::_List_val<std::_List_simple_types<GostCrypt::SecurityTokenKeyfilePath> >,1>::_Get_second
_TEXT	ENDS
; Function compile flags: /Ogtp
; File c:\program files (x86)\microsoft visual studio 14.0\vc\include\xutility
;	COMDAT ?_Get_first@?$_Compressed_pair@U?$_Wrap_alloc@V?$allocator@U?$_List_node@USecurityTokenKeyfilePath@GostCrypt@@PAX@std@@@std@@@std@@V?$_List_val@U?$_List_simple_types@USecurityTokenKeyfilePath@GostCrypt@@@std@@@2@$00@std@@QBEABU?$_Wrap_alloc@V?$allocator@U?$_List_node@USecurityTokenKeyfilePath@GostCrypt@@PAX@std@@@std@@@2@XZ
_TEXT	SEGMENT
?_Get_first@?$_Compressed_pair@U?$_Wrap_alloc@V?$allocator@U?$_List_node@USecurityTokenKeyfilePath@GostCrypt@@PAX@std@@@std@@@std@@V?$_List_val@U?$_List_simple_types@USecurityTokenKeyfilePath@GostCrypt@@@std@@@2@$00@std@@QBEABU?$_Wrap_alloc@V?$allocator@U?$_List_node@USecurityTokenKeyfilePath@GostCrypt@@PAX@std@@@std@@@2@XZ PROC ; std::_Compressed_pair<std::_Wrap_alloc<std::allocator<std::_List_node<GostCrypt::SecurityTokenKeyfilePath,void *> > >,std::_List_val<std::_List_simple_types<GostCrypt::SecurityTokenKeyfilePath> >,1>::_Get_first, COMDAT
; _this$ = ecx

; 300  : 		return (*this);

  00000	8b c1		 mov	 eax, ecx

; 301  : 		}

  00002	c3		 ret	 0
?_Get_first@?$_Compressed_pair@U?$_Wrap_alloc@V?$allocator@U?$_List_node@USecurityTokenKeyfilePath@GostCrypt@@PAX@std@@@std@@@std@@V?$_List_val@U?$_List_simple_types@USecurityTokenKeyfilePath@GostCrypt@@@std@@@2@$00@std@@QBEABU?$_Wrap_alloc@V?$allocator@U?$_List_node@USecurityTokenKeyfilePath@GostCrypt@@PAX@std@@@std@@@2@XZ ENDP ; std::_Compressed_pair<std::_Wrap_alloc<std::allocator<std::_List_node<GostCrypt::SecurityTokenKeyfilePath,void *> > >,std::_List_val<std::_List_simple_types<GostCrypt::SecurityTokenKeyfilePath> >,1>::_Get_first
_TEXT	ENDS
; Function compile flags: /Ogtp
; File c:\program files (x86)\microsoft visual studio 14.0\vc\include\xutility
;	COMDAT ?_Get_first@?$_Compressed_pair@U?$_Wrap_alloc@V?$allocator@U?$_List_node@USecurityTokenKeyfilePath@GostCrypt@@PAX@std@@@std@@@std@@V?$_List_val@U?$_List_simple_types@USecurityTokenKeyfilePath@GostCrypt@@@std@@@2@$00@std@@QAEAAU?$_Wrap_alloc@V?$allocator@U?$_List_node@USecurityTokenKeyfilePath@GostCrypt@@PAX@std@@@std@@@2@XZ
_TEXT	SEGMENT
?_Get_first@?$_Compressed_pair@U?$_Wrap_alloc@V?$allocator@U?$_List_node@USecurityTokenKeyfilePath@GostCrypt@@PAX@std@@@std@@@std@@V?$_List_val@U?$_List_simple_types@USecurityTokenKeyfilePath@GostCrypt@@@std@@@2@$00@std@@QAEAAU?$_Wrap_alloc@V?$allocator@U?$_List_node@USecurityTokenKeyfilePath@GostCrypt@@PAX@std@@@std@@@2@XZ PROC ; std::_Compressed_pair<std::_Wrap_alloc<std::allocator<std::_List_node<GostCrypt::SecurityTokenKeyfilePath,void *> > >,std::_List_val<std::_List_simple_types<GostCrypt::SecurityTokenKeyfilePath> >,1>::_Get_first, COMDAT
; _this$ = ecx

; 295  : 		return (*this);

  00000	8b c1		 mov	 eax, ecx

; 296  : 		}

  00002	c3		 ret	 0
?_Get_first@?$_Compressed_pair@U?$_Wrap_alloc@V?$allocator@U?$_List_node@USecurityTokenKeyfilePath@GostCrypt@@PAX@std@@@std@@@std@@V?$_List_val@U?$_List_simple_types@USecurityTokenKeyfilePath@GostCrypt@@@std@@@2@$00@std@@QAEAAU?$_Wrap_alloc@V?$allocator@U?$_List_node@USecurityTokenKeyfilePath@GostCrypt@@PAX@std@@@std@@@2@XZ ENDP ; std::_Compressed_pair<std::_Wrap_alloc<std::allocator<std::_List_node<GostCrypt::SecurityTokenKeyfilePath,void *> > >,std::_List_val<std::_List_simple_types<GostCrypt::SecurityTokenKeyfilePath> >,1>::_Get_first
_TEXT	ENDS
; Function compile flags: /Ogtp
; File c:\program files (x86)\microsoft visual studio 14.0\vc\include\list
;	COMDAT ?_Myval@?$_List_val@U?$_List_simple_types@USecurityTokenKeyfilePath@GostCrypt@@@std@@@std@@SAAAUSecurityTokenKeyfilePath@GostCrypt@@PAU?$_List_node@USecurityTokenKeyfilePath@GostCrypt@@PAX@2@@Z
_TEXT	SEGMENT
__Pnode$ = 8						; size = 4
?_Myval@?$_List_val@U?$_List_simple_types@USecurityTokenKeyfilePath@GostCrypt@@@std@@@std@@SAAAUSecurityTokenKeyfilePath@GostCrypt@@PAU?$_List_node@USecurityTokenKeyfilePath@GostCrypt@@PAX@2@@Z PROC ; std::_List_val<std::_List_simple_types<GostCrypt::SecurityTokenKeyfilePath> >::_Myval, COMDAT

; 545  : 		{	// return reference to value in node

  00000	55		 push	 ebp
  00001	8b ec		 mov	 ebp, esp

; 546  : 		return ((reference)_Pnode->_Myval);

  00003	8b 45 08	 mov	 eax, DWORD PTR __Pnode$[ebp]
  00006	83 c0 08	 add	 eax, 8

; 547  : 		}

  00009	5d		 pop	 ebp
  0000a	c3		 ret	 0
?_Myval@?$_List_val@U?$_List_simple_types@USecurityTokenKeyfilePath@GostCrypt@@@std@@@std@@SAAAUSecurityTokenKeyfilePath@GostCrypt@@PAU?$_List_node@USecurityTokenKeyfilePath@GostCrypt@@PAX@2@@Z ENDP ; std::_List_val<std::_List_simple_types<GostCrypt::SecurityTokenKeyfilePath> >::_Myval
_TEXT	ENDS
; Function compile flags: /Ogtp
; File c:\program files (x86)\microsoft visual studio 14.0\vc\include\list
;	COMDAT ?_Prevnode@?$_List_val@U?$_List_simple_types@USecurityTokenKeyfilePath@GostCrypt@@@std@@@std@@SAAAPAU?$_List_node@USecurityTokenKeyfilePath@GostCrypt@@PAX@2@PAU32@@Z
_TEXT	SEGMENT
__Pnode$ = 8						; size = 4
?_Prevnode@?$_List_val@U?$_List_simple_types@USecurityTokenKeyfilePath@GostCrypt@@@std@@@std@@SAAAPAU?$_List_node@USecurityTokenKeyfilePath@GostCrypt@@PAX@2@PAU32@@Z PROC ; std::_List_val<std::_List_simple_types<GostCrypt::SecurityTokenKeyfilePath> >::_Prevnode, COMDAT

; 540  : 		{	// return reference to predecessor pointer in node

  00000	55		 push	 ebp
  00001	8b ec		 mov	 ebp, esp

; 541  : 		return ((_Nodepref)_Pnode->_Prev);

  00003	8b 45 08	 mov	 eax, DWORD PTR __Pnode$[ebp]
  00006	83 c0 04	 add	 eax, 4

; 542  : 		}

  00009	5d		 pop	 ebp
  0000a	c3		 ret	 0
?_Prevnode@?$_List_val@U?$_List_simple_types@USecurityTokenKeyfilePath@GostCrypt@@@std@@@std@@SAAAPAU?$_List_node@USecurityTokenKeyfilePath@GostCrypt@@PAX@2@PAU32@@Z ENDP ; std::_List_val<std::_List_simple_types<GostCrypt::SecurityTokenKeyfilePath> >::_Prevnode
_TEXT	ENDS
; Function compile flags: /Ogtp
; File c:\program files (x86)\microsoft visual studio 14.0\vc\include\list
;	COMDAT ?_Nextnode@?$_List_val@U?$_List_simple_types@USecurityTokenKeyfilePath@GostCrypt@@@std@@@std@@SAAAPAU?$_List_node@USecurityTokenKeyfilePath@GostCrypt@@PAX@2@PAU32@@Z
_TEXT	SEGMENT
__Pnode$ = 8						; size = 4
?_Nextnode@?$_List_val@U?$_List_simple_types@USecurityTokenKeyfilePath@GostCrypt@@@std@@@std@@SAAAPAU?$_List_node@USecurityTokenKeyfilePath@GostCrypt@@PAX@2@PAU32@@Z PROC ; std::_List_val<std::_List_simple_types<GostCrypt::SecurityTokenKeyfilePath> >::_Nextnode, COMDAT

; 535  : 		{	// return reference to successor pointer in node

  00000	55		 push	 ebp
  00001	8b ec		 mov	 ebp, esp

; 536  : 		return ((_Nodepref)_Pnode->_Next);

  00003	8b 45 08	 mov	 eax, DWORD PTR __Pnode$[ebp]

; 537  : 		}

  00006	5d		 pop	 ebp
  00007	c3		 ret	 0
?_Nextnode@?$_List_val@U?$_List_simple_types@USecurityTokenKeyfilePath@GostCrypt@@@std@@@std@@SAAAPAU?$_List_node@USecurityTokenKeyfilePath@GostCrypt@@PAX@2@PAU32@@Z ENDP ; std::_List_val<std::_List_simple_types<GostCrypt::SecurityTokenKeyfilePath> >::_Nextnode
_TEXT	ENDS
; Function compile flags: /Ogtp
; File c:\program files (x86)\microsoft visual studio 14.0\vc\include\list
;	COMDAT ??0?$_List_val@U?$_List_simple_types@USecurityTokenKeyfilePath@GostCrypt@@@std@@@std@@QAE@XZ
_TEXT	SEGMENT
??0?$_List_val@U?$_List_simple_types@USecurityTokenKeyfilePath@GostCrypt@@@std@@@std@@QAE@XZ PROC ; std::_List_val<std::_List_simple_types<GostCrypt::SecurityTokenKeyfilePath> >::_List_val<std::_List_simple_types<GostCrypt::SecurityTokenKeyfilePath> >, COMDAT
; _this$ = ecx

; 529  : 		: _Myhead(),

  00000	c7 01 00 00 00
	00		 mov	 DWORD PTR [ecx], 0

; 532  : 		}

  00006	8b c1		 mov	 eax, ecx
  00008	c7 41 04 00 00
	00 00		 mov	 DWORD PTR [ecx+4], 0
  0000f	c3		 ret	 0
??0?$_List_val@U?$_List_simple_types@USecurityTokenKeyfilePath@GostCrypt@@@std@@@std@@QAE@XZ ENDP ; std::_List_val<std::_List_simple_types<GostCrypt::SecurityTokenKeyfilePath> >::_List_val<std::_List_simple_types<GostCrypt::SecurityTokenKeyfilePath> >
_TEXT	ENDS
; Function compile flags: /Ogtp
; File c:\program files (x86)\microsoft visual studio 14.0\vc\include\list
;	COMDAT ?_Mysize@?$_List_alloc@U?$_List_base_types@USecurityTokenKeyfilePath@GostCrypt@@V?$allocator@USecurityTokenKeyfilePath@GostCrypt@@@std@@@std@@@std@@QAEAAIXZ
_TEXT	SEGMENT
?_Mysize@?$_List_alloc@U?$_List_base_types@USecurityTokenKeyfilePath@GostCrypt@@V?$allocator@USecurityTokenKeyfilePath@GostCrypt@@@std@@@std@@@std@@QAEAAIXZ PROC ; std::_List_alloc<std::_List_base_types<GostCrypt::SecurityTokenKeyfilePath,std::allocator<GostCrypt::SecurityTokenKeyfilePath> > >::_Mysize, COMDAT
; _this$ = ecx

; 792  : 		return (_Get_data()._Mysize);

  00000	8d 41 04	 lea	 eax, DWORD PTR [ecx+4]

; 793  : 		}

  00003	c3		 ret	 0
