; Listing generated by Microsoft (R) Optimizing Compiler Version 15.00.30729.207 

include listing.inc

INCLUDELIB OLDNAMES

PUBLIC	??_C@_0EB@NCCFEKHJ@t?$IKd?$JE?$LI4?$LNr?$JF?$KC?$DL?$BB?$IG?$BNF?g?$II?$APe?$JI?ST?a?$LCJ5?B?$KC?$IFA?$AI?$IF@ ; `string'
PUBLIC	??_C@_0CB@IGIOKONH@R5?$LH?$BHV?$LIu?$CB?J?iR?$JL?$CB?$JH?$DOmNT?$BC?$PMap?$EA?zFL?w$?$JN?$CI?$NO?$BN@ ; `string'
PUBLIC	??_C@_0EB@PHFBDMAI@?$AD?$JB?R?$IA?$AA?$LGb?$LL?$LI?f?$CD?$DO?hl?r?$LC?$IEtLs?$ILX?$AA?$LK?$CI?$BC?mRo?c?$BF?3@ ; `string'
PUBLIC	??_C@_0DJ@NGDOEGCI@abcdbcdecdefdefgefghfghighijhijk@ ; `string'
PUBLIC	??_C@_0EB@DIMDKBBC@?$AA?$BB?$CC3DUfw?$II?$JJ?$KK?$LL?L?$NN?n?$PP?$AB?$CDEg?$IJ?$KL?M?o?$AA?$BB?$CC3DUfw@ ; `string'
PUBLIC	XTS_vectors
PUBLIC	hmac_whirlpool_test_key
PUBLIC	hmac_whirlpool_test_data
PUBLIC	hmac_whirlpool_test_vectors
PUBLIC	hmac_gosthash_test_key
PUBLIC	hmac_gosthash_test_data
PUBLIC	hmac_gosthash_test_vectors
PUBLIC	hmac_stribog_test_key
PUBLIC	hmac_stribog_test_data
PUBLIC	hmac_stribog_test_vectors
PUBLIC	??_C@_0O@POKHNLDL@GOST?528147?989?$AA@FNODOBFM@	;  ?? ::FNODOBFM::`string'
PUBLIC	??_C@_0BB@BMJBGELP@Gost?5Grasshopper?$AA@FNODOBFM@ ;  ?? ::FNODOBFM::`string'
PUBLIC	??_C@_04NDGDACAK@?$BC4Vx?$AA@FNODOBFM@		;  ?? ::FNODOBFM::`string'
PUBLIC	??_C@_08NLHBPEGP@password?$AA@FNODOBFM@		;  ?? ::FNODOBFM::`string'
PUBLIC	??_C@_04OCKEDGEH@P?$HM6o?$AA@FNODOBFM@		;  ?? ::FNODOBFM::`string'
PUBLIC	??_C@_0GB@BHABHNEI@P?$HM6o?n?$BA?4?$JK?b?$IK?U?$ICr?$HN?8?$AP?hM?$HPhz?O?$LF?gCg?$KK?$JI?$JDR?$CL?7@FNODOBFM@ ;  ?? ::FNODOBFM::`string'
PUBLIC	??_C@_04PJHJAIAI@?$HNS?$OA?$HO?$AA@FNODOBFM@	;  ?? ::FNODOBFM::`string'
PUBLIC	??_C@_04PKOKJPGE@?G?$BDV?$LG?$AA@FNODOBFM@	;  ?? ::FNODOBFM::`string'
COMM	ks_tmp:BYTE:0220H
;	COMDAT ??_C@_04PKOKJPGE@?G?$BDV?$LG?$AA@FNODOBFM@
text$s	SEGMENT
??_C@_04PKOKJPGE@?G?$BDV?$LG?$AA@FNODOBFM@ DB 0c7H, 013H, 'V', 0b6H, 00H ;  ?? ::FNODOBFM::`string'
text$s	ENDS
;	COMDAT ??_C@_04PJHJAIAI@?$HNS?$OA?$HO?$AA@FNODOBFM@
text$s	SEGMENT
??_C@_04PJHJAIAI@?$HNS?$OA?$HO?$AA@FNODOBFM@ DB '}S', 0e0H, '~', 00H ;  ?? ::FNODOBFM::`string'
text$s	ENDS
;	COMDAT ??_C@_0GB@BHABHNEI@P?$HM6o?n?$BA?4?$JK?b?$IK?U?$ICr?$HN?8?$AP?hM?$HPhz?O?$LF?gCg?$KK?$JI?$JDR?$CL?7@FNODOBFM@
text$s	SEGMENT
??_C@_0GB@BHABHNEI@P?$HM6o?n?$BA?4?$JK?b?$IK?U?$ICr?$HN?8?$AP?hM?$HPhz?O?$LF?gCg?$KK?$JI?$JDR?$CL?7@FNODOBFM@ DB 'P'
	DB	'|6o', 0eeH, 010H, '.', 09aH, 0e2H, 08aH, 0d5H, 082H, 'r}''', 0fH
	DB	0e8H, 'M', 07fH, 'hz', 0cfH, 0b5H, 0e7H, 'Cg', 0aaH, 098H, 093H
	DB	'R+', 09H, 'nB', 0dfH, ',YJ', 091H, 'm~', 010H, 0aeH, 0b2H, 01aH
	DB	089H, 08fH, 0b9H, 08fH, 0e6H, '1', 0a9H, 0d8H, 09fH, 098H, '&', 0f4H
	DB	0daH, 0cdH, '}ee', 0deH, 010H, 095H, 091H, 0b4H, 084H, '&', 0aeH
	DB	'C', 0a1H, 00H, '[', 01eH, 0b8H, '8', 097H, 0a4H, 01eH, 'K', 0d2H
	DB	'ed', 0bcH, 0faH, 01fH, '5', 085H, 0dbH, 'O', 097H, 'eo', 0bdH
	DB	'$', 00H					;  ?? ::FNODOBFM::`string'
text$s	ENDS
;	COMDAT ??_C@_04OCKEDGEH@P?$HM6o?$AA@FNODOBFM@
text$s	SEGMENT
??_C@_04OCKEDGEH@P?$HM6o?$AA@FNODOBFM@ DB 'P|6o', 00H	;  ?? ::FNODOBFM::`string'
text$s	ENDS
;	COMDAT ??_C@_08NLHBPEGP@password?$AA@FNODOBFM@
text$s	SEGMENT
??_C@_08NLHBPEGP@password?$AA@FNODOBFM@ DB 'password', 00H ;  ?? ::FNODOBFM::`string'
text$s	ENDS
;	COMDAT ??_C@_04NDGDACAK@?$BC4Vx?$AA@FNODOBFM@
text$s	SEGMENT
??_C@_04NDGDACAK@?$BC4Vx?$AA@FNODOBFM@ DB 012H, '4Vx', 00H ;  ?? ::FNODOBFM::`string'
text$s	ENDS
;	COMDAT ??_C@_0BB@BMJBGELP@Gost?5Grasshopper?$AA@FNODOBFM@
text$s	SEGMENT
??_C@_0BB@BMJBGELP@Gost?5Grasshopper?$AA@FNODOBFM@ DB 'Gost Grasshopper', 00H ;  ?? ::FNODOBFM::`string'
text$s	ENDS
;	COMDAT ??_C@_0O@POKHNLDL@GOST?528147?989?$AA@FNODOBFM@
text$s	SEGMENT
??_C@_0O@POKHNLDL@GOST?528147?989?$AA@FNODOBFM@ DB 'GOST 28147-89', 00H ;  ?? ::FNODOBFM::`string'
text$s	ENDS
;	COMDAT ??_C@_0EB@NCCFEKHJ@t?$IKd?$JE?$LI4?$LNr?$JF?$KC?$DL?$BB?$IG?$BNF?g?$II?$APe?$JI?ST?a?$LCJ5?B?$KC?$IFA?$AI?$IF@
CONST	SEGMENT
??_C@_0EB@NCCFEKHJ@t?$IKd?$JE?$LI4?$LNr?$JF?$KC?$DL?$BB?$IG?$BNF?g?$II?$APe?$JI?ST?a?$LCJ5?B?$KC?$IFA?$AI?$IF@ DB 't'
	DB	08aH, 'd', 094H, 0b8H, '4', 0bdH, 'r', 095H, 0a2H, ';', 011H, 086H
	DB	01dH, 'F', 0e7H, 088H, 0fH, 'e', 098H, 0d3H, 'T', 0e1H, 0b2H, 'J'
	DB	'5', 0c2H, 0a2H, 085H, 'A', 08H, 085H, 07H, 0c8H, 'RQ6&', 0d2H
	DB	08cH, '8', 0e5H, 'U', 09eH, 0d2H, 01bH, 088H, '++7', 0aeH, 087H
	DB	011H, 01aH, '7', 0e4H, 0b1H, 088H, 0d3H, 0d7H, 08cH, 09fH, 0efH
	DB	01bH, 00H					; `string'
CONST	ENDS
;	COMDAT ??_C@_0CB@IGIOKONH@R5?$LH?$BHV?$LIu?$CB?J?iR?$JL?$CB?$JH?$DOmNT?$BC?$PMap?$EA?zFL?w$?$JN?$CI?$NO?$BN@
CONST	SEGMENT
??_C@_0CB@IGIOKONH@R5?$LH?$BHV?$LIu?$CB?J?iR?$JL?$CB?$JH?$DOmNT?$BC?$PMap?$EA?zFL?w$?$JN?$CI?$NO?$BN@ DB 'R'
	DB	'5', 0b7H, 017H, 'V', 0b8H, 'u!', 0caH, 0e9H, 'R', 09bH, '!', 097H
	DB	'>mNT', 012H, 0fcH, 'ap@', 0faH, 'FL', 0f7H, '$', 09dH, '(', 0deH
	DB	01dH, 00H					; `string'
CONST	ENDS
;	COMDAT ??_C@_0EB@PHFBDMAI@?$AD?$JB?R?$IA?$AA?$LGb?$LL?$LI?f?$CD?$DO?hl?r?$LC?$IEtLs?$ILX?$AA?$LK?$CI?$BC?mRo?c?$BF?3@
CONST	SEGMENT
??_C@_0EB@PHFBDMAI@?$AD?$JB?R?$IA?$AA?$LGb?$LL?$LI?f?$CD?$DO?hl?r?$LC?$IEtLs?$ILX?$AA?$LK?$CI?$BC?mRo?c?$BF?3@ DB 03H
	DB	091H, 0d2H, 080H, 00H, 0b6H, 'b', 0bbH, 0b8H, 0e6H, '#>', 0e8H
	DB	'l', 0f2H, 0b2H, 084H, 'tLs', 08bH, 'X', 00H, 0baH, '(', 012H, 0edH
	DB	'Ro', 0e3H, 015H, ':', 0b1H, 0baH, 0e7H, 0e2H, '6', 0beH, 096H
	DB	'TI?', 019H, 0faH, 0ceH, 0a6H, 'D', 01fH, '`', 0f5H, 0f0H, 018H
	DB	093H, 09H, 011H, 0a5H, 0e5H, 0ceH, 0d8H, 0f2H, 'j', 0bfH, 0a4H
	DB	02H, 00H					; `string'
CONST	ENDS
;	COMDAT ??_C@_0DJ@NGDOEGCI@abcdbcdecdefdefgefghfghighijhijk@
CONST	SEGMENT
??_C@_0DJ@NGDOEGCI@abcdbcdecdefdefgefghfghighijhijk@ DB 'abcdbcdecdefdefg'
	DB	'efghfghighijhijkijkljklmklmnlmnomnopnopq', 00H ; `string'
CONST	ENDS
;	COMDAT ??_C@_0EB@DIMDKBBC@?$AA?$BB?$CC3DUfw?$II?$JJ?$KK?$LL?L?$NN?n?$PP?$AB?$CDEg?$IJ?$KL?M?o?$AA?$BB?$CC3DUfw@
CONST	SEGMENT
??_C@_0EB@DIMDKBBC@?$AA?$BB?$CC3DUfw?$II?$JJ?$KK?$LL?L?$NN?n?$PP?$AB?$CDEg?$IJ?$KL?M?o?$AA?$BB?$CC3DUfw@ DB 00H
	DB	011H, '"3DUfw', 088H, 099H, 0aaH, 0bbH, 0ccH, 0ddH, 0eeH, 0ffH
	DB	01H, '#Eg', 089H, 0abH, 0cdH, 0efH, 00H, 011H, '"3DUfw', 088H, 099H
	DB	0aaH, 0bbH, 0ccH, 0ddH, 0eeH, 0ffH, 01H, '#Eg', 089H, 0abH, 0cdH
	DB	0efH, 00H, 011H, '"3DUfw', 088H, 099H, 0aaH, 0bbH, 0ccH, 0ddH, 0eeH
	DB	0ffH, 00H					; `string'
XTS_vectors DB	027H
	DB	018H
	DB	028H
	DB	018H
	DB	028H
	DB	045H
	DB	090H
	DB	045H
	DB	023H
	DB	053H
	DB	060H
	DB	028H
	DB	074H
	DB	071H
	DB	035H
	DB	026H
	DB	062H
	DB	049H
	DB	077H
	DB	057H
	DB	024H
	DB	070H
	DB	093H
	DB	069H
	DB	099H
	DB	059H
	DB	057H
	DB	049H
	DB	066H
	DB	096H
	DB	076H
	DB	027H
	DB	031H
	DB	041H
	DB	059H
	DB	026H
	DB	053H
	DB	058H
	DB	097H
	DB	093H
	DB	023H
	DB	084H
	DB	062H
	DB	064H
	DB	033H
	DB	083H
	DB	027H
	DB	095H
	DB	02H
	DB	088H
	DB	041H
	DB	097H
	DB	016H
	DB	093H
	DB	099H
	DB	037H
	DB	051H
	DB	05H
	DB	082H
	DB	09H
	DB	074H
	DB	094H
	DB	045H
	DB	092H
	DB	00H
	DB	00H
	DB	00H
	DB	00H
	DB	00H
	DB	00H
	DB	00H
	DB	0ffH
	DD	00H
	DB	00H
	DB	01H
	DB	02H
	DB	03H
	DB	04H
	DB	05H
	DB	06H
	DB	07H
	DB	08H
	DB	09H
	DB	0aH
	DB	0bH
	DB	0cH
	DB	0dH
	DB	0eH
	DB	0fH
	DB	010H
	DB	011H
	DB	012H
	DB	013H
	DB	014H
	DB	015H
	DB	016H
	DB	017H
	DB	018H
	DB	019H
	DB	01aH
	DB	01bH
	DB	01cH
	DB	01dH
	DB	01eH
	DB	01fH
	DB	020H
	DB	021H
	DB	022H
	DB	023H
	DB	024H
	DB	025H
	DB	026H
	DB	027H
	DB	028H
	DB	029H
	DB	02aH
	DB	02bH
	DB	02cH
	DB	02dH
	DB	02eH
	DB	02fH
	DB	030H
	DB	031H
	DB	032H
	DB	033H
	DB	034H
	DB	035H
	DB	036H
	DB	037H
	DB	038H
	DB	039H
	DB	03aH
	DB	03bH
	DB	03cH
	DB	03dH
	DB	03eH
	DB	03fH
	DB	040H
	DB	041H
	DB	042H
	DB	043H
	DB	044H
	DB	045H
	DB	046H
	DB	047H
	DB	048H
	DB	049H
	DB	04aH
	DB	04bH
	DB	04cH
	DB	04dH
	DB	04eH
	DB	04fH
	DB	050H
	DB	051H
	DB	052H
	DB	053H
	DB	054H
	DB	055H
	DB	056H
	DB	057H
	DB	058H
	DB	059H
	DB	05aH
	DB	05bH
	DB	05cH
	DB	05dH
	DB	05eH
	DB	05fH
	DB	060H
	DB	061H
	DB	062H
	DB	063H
	DB	064H
	DB	065H
	DB	066H
	DB	067H
	DB	068H
	DB	069H
	DB	06aH
	DB	06bH
	DB	06cH
	DB	06dH
	DB	06eH
	DB	06fH
	DB	070H
	DB	071H
	DB	072H
	DB	073H
	DB	074H
	DB	075H
	DB	076H
	DB	077H
	DB	078H
	DB	079H
	DB	07aH
	DB	07bH
	DB	07cH
	DB	07dH
	DB	07eH
	DB	07fH
	DB	080H
	DB	081H
	DB	082H
	DB	083H
	DB	084H
	DB	085H
	DB	086H
	DB	087H
	DB	088H
	DB	089H
	DB	08aH
	DB	08bH
	DB	08cH
	DB	08dH
	DB	08eH
	DB	08fH
	DB	090H
	DB	091H
	DB	092H
	DB	093H
	DB	094H
	DB	095H
	DB	096H
	DB	097H
	DB	098H
	DB	099H
	DB	09aH
	DB	09bH
	DB	09cH
	DB	09dH
	DB	09eH
	DB	09fH
	DB	0a0H
	DB	0a1H
	DB	0a2H
	DB	0a3H
	DB	0a4H
	DB	0a5H
	DB	0a6H
	DB	0a7H
	DB	0a8H
	DB	0a9H
	DB	0aaH
	DB	0abH
	DB	0acH
	DB	0adH
	DB	0aeH
	DB	0afH
	DB	0b0H
	DB	0b1H
	DB	0b2H
	DB	0b3H
	DB	0b4H
	DB	0b5H
	DB	0b6H
	DB	0b7H
	DB	0b8H
	DB	0b9H
	DB	0baH
	DB	0bbH
	DB	0bcH
	DB	0bdH
	DB	0beH
	DB	0bfH
	DB	0c0H
	DB	0c1H
	DB	0c2H
	DB	0c3H
	DB	0c4H
	DB	0c5H
	DB	0c6H
	DB	0c7H
	DB	0c8H
	DB	0c9H
	DB	0caH
	DB	0cbH
	DB	0ccH
	DB	0cdH
	DB	0ceH
	DB	0cfH
	DB	0d0H
	DB	0d1H
	DB	0d2H
	DB	0d3H
	DB	0d4H
	DB	0d5H
	DB	0d6H
	DB	0d7H
	DB	0d8H
	DB	0d9H
	DB	0daH
	DB	0dbH
	DB	0dcH
	DB	0ddH
	DB	0deH
	DB	0dfH
	DB	0e0H
	DB	0e1H
	DB	0e2H
	DB	0e3H
	DB	0e4H
	DB	0e5H
	DB	0e6H
	DB	0e7H
	DB	0e8H
	DB	0e9H
	DB	0eaH
	DB	0ebH
	DB	0ecH
	DB	0edH
	DB	0eeH
	DB	0efH
	DB	0f0H
	DB	0f1H
	DB	0f2H
	DB	0f3H
	DB	0f4H
	DB	0f5H
	DB	0f6H
	DB	0f7H
	DB	0f8H
	DB	0f9H
	DB	0faH
	DB	0fbH
	DB	0fcH
	DB	0fdH
	DB	0feH
	DB	0ffH
	DB	00H
	DB	01H
	DB	02H
	DB	03H
	DB	04H
	DB	05H
	DB	06H
	DB	07H
	DB	08H
	DB	09H
	DB	0aH
	DB	0bH
	DB	0cH
	DB	0dH
	DB	0eH
	DB	0fH
	DB	010H
	DB	011H
	DB	012H
	DB	013H
	DB	014H
	DB	015H
	DB	016H
	DB	017H
	DB	018H
	DB	019H
	DB	01aH
	DB	01bH
	DB	01cH
	DB	01dH
	DB	01eH
	DB	01fH
	DB	020H
	DB	021H
	DB	022H
	DB	023H
	DB	024H
	DB	025H
	DB	026H
	DB	027H
	DB	028H
	DB	029H
	DB	02aH
	DB	02bH
	DB	02cH
	DB	02dH
	DB	02eH
	DB	02fH
	DB	030H
	DB	031H
	DB	032H
	DB	033H
	DB	034H
	DB	035H
	DB	036H
	DB	037H
	DB	038H
	DB	039H
	DB	03aH
	DB	03bH
	DB	03cH
	DB	03dH
	DB	03eH
	DB	03fH
	DB	040H
	DB	041H
	DB	042H
	DB	043H
	DB	044H
	DB	045H
	DB	046H
	DB	047H
	DB	048H
	DB	049H
	DB	04aH
	DB	04bH
	DB	04cH
	DB	04dH
	DB	04eH
	DB	04fH
	DB	050H
	DB	051H
	DB	052H
	DB	053H
	DB	054H
	DB	055H
	DB	056H
	DB	057H
	DB	058H
	DB	059H
	DB	05aH
	DB	05bH
	DB	05cH
	DB	05dH
	DB	05eH
	DB	05fH
	DB	060H
	DB	061H
	DB	062H
	DB	063H
	DB	064H
	DB	065H
	DB	066H
	DB	067H
	DB	068H
	DB	069H
	DB	06aH
	DB	06bH
	DB	06cH
	DB	06dH
	DB	06eH
	DB	06fH
	DB	070H
	DB	071H
	DB	072H
	DB	073H
	DB	074H
	DB	075H
	DB	076H
	DB	077H
	DB	078H
	DB	079H
	DB	07aH
	DB	07bH
	DB	07cH
	DB	07dH
	DB	07eH
	DB	07fH
	DB	080H
	DB	081H
	DB	082H
	DB	083H
	DB	084H
	DB	085H
	DB	086H
	DB	087H
	DB	088H
	DB	089H
	DB	08aH
	DB	08bH
	DB	08cH
	DB	08dH
	DB	08eH
	DB	08fH
	DB	090H
	DB	091H
	DB	092H
	DB	093H
	DB	094H
	DB	095H
	DB	096H
	DB	097H
	DB	098H
	DB	099H
	DB	09aH
	DB	09bH
	DB	09cH
	DB	09dH
	DB	09eH
	DB	09fH
	DB	0a0H
	DB	0a1H
	DB	0a2H
	DB	0a3H
	DB	0a4H
	DB	0a5H
	DB	0a6H
	DB	0a7H
	DB	0a8H
	DB	0a9H
	DB	0aaH
	DB	0abH
	DB	0acH
	DB	0adH
	DB	0aeH
	DB	0afH
	DB	0b0H
	DB	0b1H
	DB	0b2H
	DB	0b3H
	DB	0b4H
	DB	0b5H
	DB	0b6H
	DB	0b7H
	DB	0b8H
	DB	0b9H
	DB	0baH
	DB	0bbH
	DB	0bcH
	DB	0bdH
	DB	0beH
	DB	0bfH
	DB	0c0H
	DB	0c1H
	DB	0c2H
	DB	0c3H
	DB	0c4H
	DB	0c5H
	DB	0c6H
	DB	0c7H
	DB	0c8H
	DB	0c9H
	DB	0caH
	DB	0cbH
	DB	0ccH
	DB	0cdH
	DB	0ceH
	DB	0cfH
	DB	0d0H
	DB	0d1H
	DB	0d2H
	DB	0d3H
	DB	0d4H
	DB	0d5H
	DB	0d6H
	DB	0d7H
	DB	0d8H
	DB	0d9H
	DB	0daH
	DB	0dbH
	DB	0dcH
	DB	0ddH
	DB	0deH
	DB	0dfH
	DB	0e0H
	DB	0e1H
	DB	0e2H
	DB	0e3H
	DB	0e4H
	DB	0e5H
	DB	0e6H
	DB	0e7H
	DB	0e8H
	DB	0e9H
	DB	0eaH
	DB	0ebH
	DB	0ecH
	DB	0edH
	DB	0eeH
	DB	0efH
	DB	0f0H
	DB	0f1H
	DB	0f2H
	DB	0f3H
	DB	0f4H
	DB	0f5H
	DB	0f6H
	DB	0f7H
	DB	0f8H
	DB	0f9H
	DB	0faH
	DB	0fbH
	DB	0fcH
	DB	0fdH
	DB	0feH
	DB	0ffH
	DB	01cH
	DB	03bH
	DB	03aH
	DB	010H
	DB	02fH
	DB	077H
	DB	03H
	DB	086H
	DB	0e4H
	DB	083H
	DB	06cH
	DB	099H
	DB	0e3H
	DB	070H
	DB	0cfH
	DB	09bH
	DB	0eaH
	DB	00H
	DB	080H
	DB	03fH
	DB	05eH
	DB	048H
	DB	023H
	DB	057H
	DB	0a4H
	DB	0aeH
	DB	012H
	DB	0d4H
	DB	014H
	DB	0a3H
	DB	0e6H
	DB	03bH
	DB	05dH
	DB	031H
	DB	0e2H
	DB	076H
	DB	0f8H
	DB	0feH
	DB	04aH
	DB	08dH
	DB	066H
	DB	0b3H
	DB	017H
	DB	0f9H
	DB	0acH
	DB	068H
	DB	03fH
	DB	044H
	DB	068H
	DB	0aH
	DB	086H
	DB	0acH
	DB	035H
	DB	0adH
	DB	0fcH
	DB	033H
	DB	045H
	DB	0beH
	DB	0feH
	DB	0cbH
	DB	04bH
	DB	0b1H
	DB	088H
	DB	0fdH
	DB	057H
	DB	076H
	DB	092H
	DB	06cH
	DB	049H
	DB	0a3H
	DB	09H
	DB	05eH
	DB	0b1H
	DB	08H
	DB	0fdH
	DB	010H
	DB	098H
	DB	0baH
	DB	0ecH
	DB	070H
	DB	0aaH
	DB	0a6H
	DB	069H
	DB	099H
	DB	0a7H
	DB	02aH
	DB	082H
	DB	0f2H
	DB	07dH
	DB	084H
	DB	08bH
	DB	021H
	DB	0d4H
	DB	0a7H
	DB	041H
	DB	0b0H
	DB	0c5H
	DB	0cdH
	DB	04dH
	DB	05fH
	DB	0ffH
	DB	09dH
	DB	0acH
	DB	089H
	DB	0aeH
	DB	0baH
	DB	012H
	DB	029H
	DB	061H
	DB	0d0H
	DB	03aH
	DB	075H
	DB	071H
	DB	023H
	DB	0e9H
	DB	087H
	DB	0fH
	DB	08aH
	DB	0cfH
	DB	010H
	DB	00H
	DB	02H
	DB	08H
	DB	087H
	DB	089H
	DB	014H
	DB	029H
	DB	0caH
	DB	02aH
	DB	03eH
	DB	07aH
	DB	07dH
	DB	07dH
	DB	0f7H
	DB	0b1H
	DB	03H
	DB	055H
	DB	016H
	DB	05cH
	DB	08bH
	DB	09aH
	DB	06dH
	DB	0aH
	DB	07dH
	DB	0e8H
	DB	0b0H
	DB	062H
	DB	0c4H
	DB	050H
	DB	0dH
	DB	0c4H
	DB	0cdH
	DB	012H
	DB	0cH
	DB	0fH
	DB	074H
	DB	018H
	DB	0daH
	DB	0e3H
	DB	0d0H
	DB	0b5H
	DB	078H
	DB	01cH
	DB	034H
	DB	080H
	DB	03fH
	DB	0a7H
	DB	054H
	DB	021H
	DB	0c7H
	DB	090H
	DB	0dfH
	DB	0e1H
	DB	0deH
	DB	018H
	DB	034H
	DB	0f2H
	DB	080H
	DB	0d7H
	DB	066H
	DB	07bH
	DB	032H
	DB	07fH
	DB	06cH
	DB	08cH
	DB	0d7H
	DB	055H
	DB	07eH
	DB	012H
	DB	0acH
	DB	03aH
	DB	0fH
	DB	093H
	DB	0ecH
	DB	05H
	DB	0c5H
	DB	02eH
	DB	04H
	DB	093H
	DB	0efH
	DB	031H
	DB	0a1H
	DB	02dH
	DB	03dH
	DB	092H
	DB	060H
	DB	0f7H
	DB	09aH
	DB	028H
	DB	09dH
	DB	06aH
	DB	037H
	DB	09bH
	DB	0c7H
	DB	0cH
	DB	050H
	DB	084H
	DB	014H
	DB	073H
	DB	0d1H
	DB	0a8H
	DB	0ccH
	DB	081H
	DB	0ecH
	DB	058H
	DB	03eH
	DB	096H
	DB	045H
	DB	0e0H
	DB	07bH
	DB	08dH
	DB	096H
	DB	070H
	DB	065H
	DB	05bH
	DB	0a5H
	DB	0bbH
	DB	0cfH
	DB	0ecH
	DB	0c6H
	DB	0dcH
	DB	039H
	DB	066H
	DB	038H
	DB	0aH
	DB	0d8H
	DB	0feH
	DB	0cbH
	DB	017H
	DB	0b6H
	DB	0baH
	DB	02H
	DB	046H
	DB	09aH
	DB	02H
	DB	0aH
	DB	084H
	DB	0e1H
	DB	08eH
	DB	08fH
	DB	084H
	DB	025H
	DB	020H
	DB	070H
	DB	0c1H
	DB	03eH
	DB	09fH
	DB	01fH
	DB	028H
	DB	09bH
	DB	0e5H
	DB	04fH
	DB	0bcH
	DB	048H
	DB	014H
	DB	057H
	DB	077H
	DB	08fH
	DB	061H
	DB	060H
	DB	015H
	DB	0e1H
	DB	032H
	DB	07aH
	DB	02H
	DB	0b1H
	DB	040H
	DB	0f1H
	DB	050H
	DB	05eH
	DB	0b3H
	DB	09H
	DB	032H
	DB	06dH
	DB	068H
	DB	037H
	DB	08fH
	DB	083H
	DB	074H
	DB	059H
	DB	05cH
	DB	084H
	DB	09dH
	DB	084H
	DB	0f4H
	DB	0c3H
	DB	033H
	DB	0ecH
	DB	044H
	DB	023H
	DB	088H
	DB	051H
	DB	043H
	DB	0cbH
	DB	047H
	DB	0bdH
	DB	071H
	DB	0c5H
	DB	0edH
	DB	0aeH
	DB	09bH
	DB	0e6H
	DB	09aH
	DB	02fH
	DB	0feH
	DB	0ceH
	DB	0b1H
	DB	0beH
	DB	0c9H
	DB	0deH
	DB	024H
	DB	04fH
	DB	0beH
	DB	015H
	DB	099H
	DB	02bH
	DB	011H
	DB	0b7H
	DB	07cH
	DB	04H
	DB	0fH
	DB	012H
	DB	0bdH
	DB	08fH
	DB	06aH
	DB	097H
	DB	05aH
	DB	044H
	DB	0a0H
	DB	0f9H
	DB	0cH
	DB	029H
	DB	0a9H
	DB	0abH
	DB	0c3H
	DB	0d4H
	DB	0d8H
	DB	093H
	DB	092H
	DB	072H
	DB	084H
	DB	0c5H
	DB	087H
	DB	054H
	DB	0ccH
	DB	0e2H
	DB	094H
	DB	052H
	DB	09fH
	DB	086H
	DB	014H
	DB	0dcH
	DB	0d2H
	DB	0abH
	DB	0a9H
	DB	091H
	DB	092H
	DB	05fH
	DB	0edH
	DB	0c4H
	DB	0aeH
	DB	074H
	DB	0ffH
	DB	0acH
	DB	06eH
	DB	033H
	DB	03bH
	DB	093H
	DB	0ebH
	DB	04aH
	DB	0ffH
	DB	04H
	DB	079H
	DB	0daH
	DB	09aH
	DB	041H
	DB	0eH
	DB	044H
	DB	050H
	DB	0e0H
	DB	0ddH
	DB	07aH
	DB	0e4H
	DB	0c6H
	DB	0e2H
	DB	091H
	DB	09H
	DB	00H
	DB	057H
	DB	05dH
	DB	0a4H
	DB	01H
	DB	0fcH
	DB	07H
	DB	05H
	DB	09fH
	DB	064H
	DB	05eH
	DB	08bH
	DB	07eH
	DB	09bH
	DB	0fdH
	DB	0efH
	DB	033H
	DB	094H
	DB	030H
	DB	054H
	DB	0ffH
	DB	084H
	DB	01H
	DB	014H
	DB	093H
	DB	0c2H
	DB	07bH
	DB	034H
	DB	029H
	DB	0eaH
	DB	0edH
	DB	0b4H
	DB	0edH
	DB	053H
	DB	076H
	DB	044H
	DB	01aH
	DB	077H
	DB	0edH
	DB	043H
	DB	085H
	DB	01aH
	DB	0d7H
	DB	07fH
	DB	016H
	DB	0f5H
	DB	041H
	DB	0dfH
	DB	0d2H
	DB	069H
	DB	0d5H
	DB	0dH
	DB	06aH
	DB	05fH
	DB	014H
	DB	0fbH
	DB	0aH
	DB	0abH
	DB	01cH
	DB	0bbH
	DB	04cH
	DB	015H
	DB	050H
	DB	0beH
	DB	097H
	DB	0f7H
	DB	0abH
	DB	040H
	DB	066H
	DB	019H
	DB	03cH
	DB	04cH
	DB	0aaH
	DB	077H
	DB	03dH
	DB	0adH
	DB	038H
	DB	01H
	DB	04bH
	DB	0d2H
	DB	09H
	DB	02fH
	DB	0a7H
	DB	055H
	DB	0c8H
	DB	024H
	DB	0bbH
	DB	05eH
	DB	054H
	DB	0c4H
	DB	0f3H
	DB	06fH
	DB	0fdH
	DB	0a9H
	DB	0fcH
	DB	0eaH
	DB	070H
	DB	0b9H
	DB	0c6H
	DB	0e6H
	DB	093H
	DB	0e1H
	DB	048H
	DB	0c1H
	DB	051H
	DB	027H
	DB	018H
	DB	028H
	DB	018H
	DB	028H
	DB	045H
	DB	090H
	DB	045H
	DB	023H
	DB	053H
	DB	060H
	DB	028H
	DB	074H
	DB	071H
	DB	035H
	DB	026H
	DB	062H
	DB	049H
	DB	077H
	DB	057H
	DB	024H
	DB	070H
	DB	093H
	DB	069H
	DB	099H
	DB	059H
	DB	057H
	DB	049H
	DB	066H
	DB	096H
	DB	076H
	DB	027H
	DB	031H
	DB	041H
	DB	059H
	DB	026H
	DB	053H
	DB	058H
	DB	097H
	DB	093H
	DB	023H
	DB	084H
	DB	062H
	DB	064H
	DB	033H
	DB	083H
	DB	027H
	DB	095H
	DB	02H
	DB	088H
	DB	041H
	DB	097H
	DB	016H
	DB	093H
	DB	099H
	DB	037H
	DB	051H
	DB	05H
	DB	082H
	DB	09H
	DB	074H
	DB	094H
	DB	045H
	DB	092H
	DB	00H
	DB	00H
	DB	00H
	DB	00H
	DB	00H
	DB	00H
	DB	0ffH
	DB	0ffH
	DD	00H
	DB	00H
	DB	01H
	DB	02H
	DB	03H
	DB	04H
	DB	05H
	DB	06H
	DB	07H
	DB	08H
	DB	09H
	DB	0aH
	DB	0bH
	DB	0cH
	DB	0dH
	DB	0eH
	DB	0fH
	DB	010H
	DB	011H
	DB	012H
	DB	013H
	DB	014H
	DB	015H
	DB	016H
	DB	017H
	DB	018H
	DB	019H
	DB	01aH
	DB	01bH
	DB	01cH
	DB	01dH
	DB	01eH
	DB	01fH
	DB	020H
	DB	021H
	DB	022H
	DB	023H
	DB	024H
	DB	025H
	DB	026H
	DB	027H
	DB	028H
	DB	029H
	DB	02aH
	DB	02bH
	DB	02cH
	DB	02dH
	DB	02eH
	DB	02fH
	DB	030H
	DB	031H
	DB	032H
	DB	033H
	DB	034H
	DB	035H
	DB	036H
	DB	037H
	DB	038H
	DB	039H
	DB	03aH
	DB	03bH
	DB	03cH
	DB	03dH
	DB	03eH
	DB	03fH
	DB	040H
	DB	041H
	DB	042H
	DB	043H
	DB	044H
	DB	045H
	DB	046H
	DB	047H
	DB	048H
	DB	049H
	DB	04aH
	DB	04bH
	DB	04cH
	DB	04dH
	DB	04eH
	DB	04fH
	DB	050H
	DB	051H
	DB	052H
	DB	053H
	DB	054H
	DB	055H
	DB	056H
	DB	057H
	DB	058H
	DB	059H
	DB	05aH
	DB	05bH
	DB	05cH
	DB	05dH
	DB	05eH
	DB	05fH
	DB	060H
	DB	061H
	DB	062H
	DB	063H
	DB	064H
	DB	065H
	DB	066H
	DB	067H
	DB	068H
	DB	069H
	DB	06aH
	DB	06bH
	DB	06cH
	DB	06dH
	DB	06eH
	DB	06fH
	DB	070H
	DB	071H
	DB	072H
	DB	073H
	DB	074H
	DB	075H
	DB	076H
	DB	077H
	DB	078H
	DB	079H
	DB	07aH
	DB	07bH
	DB	07cH
	DB	07dH
	DB	07eH
	DB	07fH
	DB	080H
	DB	081H
	DB	082H
	DB	083H
	DB	084H
	DB	085H
	DB	086H
	DB	087H
	DB	088H
	DB	089H
	DB	08aH
	DB	08bH
	DB	08cH
	DB	08dH
	DB	08eH
	DB	08fH
	DB	090H
	DB	091H
	DB	092H
	DB	093H
	DB	094H
	DB	095H
	DB	096H
	DB	097H
	DB	098H
	DB	099H
	DB	09aH
	DB	09bH
	DB	09cH
	DB	09dH
	DB	09eH
	DB	09fH
	DB	0a0H
	DB	0a1H
	DB	0a2H
	DB	0a3H
	DB	0a4H
	DB	0a5H
	DB	0a6H
	DB	0a7H
	DB	0a8H
	DB	0a9H
	DB	0aaH
	DB	0abH
	DB	0acH
	DB	0adH
	DB	0aeH
	DB	0afH
	DB	0b0H
	DB	0b1H
	DB	0b2H
	DB	0b3H
	DB	0b4H
	DB	0b5H
	DB	0b6H
	DB	0b7H
	DB	0b8H
	DB	0b9H
	DB	0baH
	DB	0bbH
	DB	0bcH
	DB	0bdH
	DB	0beH
	DB	0bfH
	DB	0c0H
	DB	0c1H
	DB	0c2H
	DB	0c3H
	DB	0c4H
	DB	0c5H
	DB	0c6H
	DB	0c7H
	DB	0c8H
	DB	0c9H
	DB	0caH
	DB	0cbH
	DB	0ccH
	DB	0cdH
	DB	0ceH
	DB	0cfH
	DB	0d0H
	DB	0d1H
	DB	0d2H
	DB	0d3H
	DB	0d4H
	DB	0d5H
	DB	0d6H
	DB	0d7H
	DB	0d8H
	DB	0d9H
	DB	0daH
	DB	0dbH
	DB	0dcH
	DB	0ddH
	DB	0deH
	DB	0dfH
	DB	0e0H
	DB	0e1H
	DB	0e2H
	DB	0e3H
	DB	0e4H
	DB	0e5H
	DB	0e6H
	DB	0e7H
	DB	0e8H
	DB	0e9H
	DB	0eaH
	DB	0ebH
	DB	0ecH
	DB	0edH
	DB	0eeH
	DB	0efH
	DB	0f0H
	DB	0f1H
	DB	0f2H
	DB	0f3H
	DB	0f4H
	DB	0f5H
	DB	0f6H
	DB	0f7H
	DB	0f8H
	DB	0f9H
	DB	0faH
	DB	0fbH
	DB	0fcH
	DB	0fdH
	DB	0feH
	DB	0ffH
	DB	00H
	DB	01H
	DB	02H
	DB	03H
	DB	04H
	DB	05H
	DB	06H
	DB	07H
	DB	08H
	DB	09H
	DB	0aH
	DB	0bH
	DB	0cH
	DB	0dH
	DB	0eH
	DB	0fH
	DB	010H
	DB	011H
	DB	012H
	DB	013H
	DB	014H
	DB	015H
	DB	016H
	DB	017H
	DB	018H
	DB	019H
	DB	01aH
	DB	01bH
	DB	01cH
	DB	01dH
	DB	01eH
	DB	01fH
	DB	020H
	DB	021H
	DB	022H
	DB	023H
	DB	024H
	DB	025H
	DB	026H
	DB	027H
	DB	028H
	DB	029H
	DB	02aH
	DB	02bH
	DB	02cH
	DB	02dH
	DB	02eH
	DB	02fH
	DB	030H
	DB	031H
	DB	032H
	DB	033H
	DB	034H
	DB	035H
	DB	036H
	DB	037H
	DB	038H
	DB	039H
	DB	03aH
	DB	03bH
	DB	03cH
	DB	03dH
	DB	03eH
	DB	03fH
	DB	040H
	DB	041H
	DB	042H
	DB	043H
	DB	044H
	DB	045H
	DB	046H
	DB	047H
	DB	048H
	DB	049H
	DB	04aH
	DB	04bH
	DB	04cH
	DB	04dH
	DB	04eH
	DB	04fH
	DB	050H
	DB	051H
	DB	052H
	DB	053H
	DB	054H
	DB	055H
	DB	056H
	DB	057H
	DB	058H
	DB	059H
	DB	05aH
	DB	05bH
	DB	05cH
	DB	05dH
	DB	05eH
	DB	05fH
	DB	060H
	DB	061H
	DB	062H
	DB	063H
	DB	064H
	DB	065H
	DB	066H
	DB	067H
	DB	068H
	DB	069H
	DB	06aH
	DB	06bH
	DB	06cH
	DB	06dH
	DB	06eH
	DB	06fH
	DB	070H
	DB	071H
	DB	072H
	DB	073H
	DB	074H
	DB	075H
	DB	076H
	DB	077H
	DB	078H
	DB	079H
	DB	07aH
	DB	07bH
	DB	07cH
	DB	07dH
	DB	07eH
	DB	07fH
	DB	080H
	DB	081H
	DB	082H
	DB	083H
	DB	084H
	DB	085H
	DB	086H
	DB	087H
	DB	088H
	DB	089H
	DB	08aH
	DB	08bH
	DB	08cH
	DB	08dH
	DB	08eH
	DB	08fH
	DB	090H
	DB	091H
	DB	092H
	DB	093H
	DB	094H
	DB	095H
	DB	096H
	DB	097H
	DB	098H
	DB	099H
	DB	09aH
	DB	09bH
	DB	09cH
	DB	09dH
	DB	09eH
	DB	09fH
	DB	0a0H
	DB	0a1H
	DB	0a2H
	DB	0a3H
	DB	0a4H
	DB	0a5H
	DB	0a6H
	DB	0a7H
	DB	0a8H
	DB	0a9H
	DB	0aaH
	DB	0abH
	DB	0acH
	DB	0adH
	DB	0aeH
	DB	0afH
	DB	0b0H
	DB	0b1H
	DB	0b2H
	DB	0b3H
	DB	0b4H
	DB	0b5H
	DB	0b6H
	DB	0b7H
	DB	0b8H
	DB	0b9H
	DB	0baH
	DB	0bbH
	DB	0bcH
	DB	0bdH
	DB	0beH
	DB	0bfH
	DB	0c0H
	DB	0c1H
	DB	0c2H
	DB	0c3H
	DB	0c4H
	DB	0c5H
	DB	0c6H
	DB	0c7H
	DB	0c8H
	DB	0c9H
	DB	0caH
	DB	0cbH
	DB	0ccH
	DB	0cdH
	DB	0ceH
	DB	0cfH
	DB	0d0H
	DB	0d1H
	DB	0d2H
	DB	0d3H
	DB	0d4H
	DB	0d5H
	DB	0d6H
	DB	0d7H
	DB	0d8H
	DB	0d9H
	DB	0daH
	DB	0dbH
	DB	0dcH
	DB	0ddH
	DB	0deH
	DB	0dfH
	DB	0e0H
	DB	0e1H
	DB	0e2H
	DB	0e3H
	DB	0e4H
	DB	0e5H
	DB	0e6H
	DB	0e7H
	DB	0e8H
	DB	0e9H
	DB	0eaH
	DB	0ebH
	DB	0ecH
	DB	0edH
	DB	0eeH
	DB	0efH
	DB	0f0H
	DB	0f1H
	DB	0f2H
	DB	0f3H
	DB	0f4H
	DB	0f5H
	DB	0f6H
	DB	0f7H
	DB	0f8H
	DB	0f9H
	DB	0faH
	DB	0fbH
	DB	0fcH
	DB	0fdH
	DB	0feH
	DB	0ffH
	DB	077H
	DB	0a3H
	DB	012H
	DB	051H
	DB	061H
	DB	08aH
	DB	015H
	DB	0e6H
	DB	0b9H
	DB	02dH
	DB	01dH
	DB	066H
	DB	0dfH
	DB	0feH
	DB	07bH
	DB	050H
	DB	0b5H
	DB	0bH
	DB	0adH
	DB	055H
	DB	023H
	DB	05H
	DB	0baH
	DB	02H
	DB	017H
	DB	0a6H
	DB	010H
	DB	068H
	DB	08eH
	DB	0ffH
	DB	07eH
	DB	011H
	DB	0e1H
	DB	0d0H
	DB	022H
	DB	054H
	DB	038H
	DB	0e0H
	DB	093H
	DB	024H
	DB	02dH
	DB	06dH
	DB	0b2H
	DB	074H
	DB	0fdH
	DB	0e8H
	DB	01H
	DB	0d4H
	DB	0caH
	DB	0e0H
	DB	06fH
	DB	020H
	DB	092H
	DB	0c7H
	DB	028H
	DB	0b2H
	DB	047H
	DB	085H
	DB	059H
	DB	0dfH
	DB	058H
	DB	0e8H
	DB	037H
	DB	0c2H
	DB	046H
	DB	09eH
	DB	0e4H
	DB	0a4H
	DB	0faH
	DB	079H
	DB	04eH
	DB	04bH
	DB	0bcH
	DB	07fH
	DB	039H
	DB	0bcH
	DB	02H
	DB	06eH
	DB	03cH
	DB	0b7H
	DB	02cH
	DB	033H
	DB	0b0H
	DB	088H
	DB	08fH
	DB	025H
	DB	0b4H
	DB	0acH
	DB	0f5H
	DB	06aH
	DB	02aH
	DB	098H
	DB	04H
	DB	0f1H
	DB	0ceH
	DB	06dH
	DB	03dH
	DB	06eH
	DB	01dH
	DB	0c6H
	DB	0caH
	DB	018H
	DB	01dH
	DB	04bH
	DB	054H
	DB	061H
	DB	079H
	DB	0d5H
	DB	055H
	DB	044H
	DB	0aaH
	DB	077H
	DB	060H
	DB	0c4H
	DB	0dH
	DB	06H
	DB	074H
	DB	015H
	DB	039H
	DB	0c7H
	DB	0e3H
	DB	0cdH
	DB	09dH
	DB	02fH
	DB	066H
	DB	050H
	DB	0b2H
	DB	01H
	DB	03fH
	DB	0d0H
	DB	0eeH
	DB	0b8H
	DB	0c2H
	DB	0b8H
	DB	0e3H
	DB	0d8H
	DB	0d2H
	DB	040H
	DB	0ccH
	DB	0aeH
	DB	02dH
	DB	04cH
	DB	098H
	DB	032H
	DB	0aH
	DB	074H
	DB	042H
	DB	0e1H
	DB	0c8H
	DB	0d7H
	DB	05aH
	DB	042H
	DB	0d6H
	DB	0e6H
	DB	0cfH
	DB	0a4H
	DB	0c2H
	DB	0ecH
	DB	0a1H
	DB	079H
	DB	08dH
	DB	015H
	DB	08cH
	DB	07aH
	DB	0ecH
	DB	0dfH
	DB	082H
	DB	049H
	DB	0fH
	DB	024H
	DB	0bbH
	DB	09bH
	DB	038H
	DB	0e1H
	DB	08H
	DB	0bcH
	DB	0daH
	DB	012H
	DB	0c3H
	DB	0faH
	DB	0f9H
	DB	0a2H
	DB	011H
	DB	041H
	DB	0c3H
	DB	061H
	DB	03bH
	DB	058H
	DB	036H
	DB	07fH
	DB	092H
	DB	02aH
	DB	0aaH
	DB	026H
	DB	0cdH
	DB	022H
	DB	0f2H
	DB	03dH
	DB	070H
	DB	08dH
	DB	0aeH
	DB	069H
	DB	09aH
	DB	0d7H
	DB	0cbH
	DB	040H
	DB	0a8H
	DB	0adH
	DB	0bH
	DB	06eH
	DB	027H
	DB	084H
	DB	097H
	DB	03dH
	DB	0cbH
	DB	060H
	DB	056H
	DB	084H
	DB	0c0H
	DB	08bH
	DB	08dH
	DB	069H
	DB	098H
	DB	0c6H
	DB	09aH
	DB	0acH
	DB	04H
	DB	099H
	DB	021H
	DB	087H
	DB	01eH
	DB	0bbH
	DB	065H
	DB	030H
	DB	01aH
	DB	046H
	DB	019H
	DB	0caH
	DB	080H
	DB	0ecH
	DB	0b4H
	DB	085H
	DB	0a3H
	DB	01dH
	DB	074H
	DB	042H
	DB	023H
	DB	0ceH
	DB	08dH
	DB	0dcH
	DB	023H
	DB	094H
	DB	082H
	DB	08dH
	DB	06aH
	DB	080H
	DB	047H
	DB	0cH
	DB	09H
	DB	02fH
	DB	05bH
	DB	0a4H
	DB	013H
	DB	0c3H
	DB	037H
	DB	08fH
	DB	0a6H
	DB	05H
	DB	042H
	DB	055H
	DB	0c6H
	DB	0f9H
	DB	0dfH
	DB	044H
	DB	095H
	DB	086H
	DB	02bH
	DB	0bbH
	DB	032H
	DB	087H
	DB	068H
	DB	01fH
	DB	093H
	DB	01bH
	DB	068H
	DB	07cH
	DB	088H
	DB	08aH
	DB	0bfH
	DB	084H
	DB	04dH
	DB	0fcH
	DB	08fH
	DB	0c2H
	DB	083H
	DB	031H
	DB	0e5H
	DB	079H
	DB	092H
	DB	08cH
	DB	0d1H
	DB	02bH
	DB	0d2H
	DB	039H
	DB	0aH
	DB	0e1H
	DB	023H
	DB	0cfH
	DB	03H
	DB	081H
	DB	08dH
	DB	014H
	DB	0deH
	DB	0ddH
	DB	0e5H
	DB	0c0H
	DB	0c2H
	DB	04cH
	DB	08aH
	DB	0b0H
	DB	018H
	DB	0bfH
	DB	0caH
	DB	075H
	DB	0caH
	DB	09H
	DB	06fH
	DB	02dH
	DB	053H
	DB	01fH
	DB	03dH
	DB	016H
	DB	019H
	DB	0e7H
	DB	085H
	DB	0f1H
	DB	0adH
	DB	0a4H
	DB	037H
	DB	0caH
	DB	0b9H
	DB	02eH
	DB	098H
	DB	05H
	DB	058H
	DB	0b3H
	DB	0dcH
	DB	0e1H
	DB	047H
	DB	04aH
	DB	0fbH
	DB	075H
	DB	0bfH
	DB	0edH
	DB	0bfH
	DB	08fH
	DB	0f5H
	DB	04cH
	DB	0b2H
	DB	061H
	DB	08eH
	DB	02H
	DB	044H
	DB	0c9H
	DB	0acH
	DB	0dH
	DB	03cH
	DB	066H
	DB	0fbH
	DB	051H
	DB	059H
	DB	08cH
	DB	0d2H
	DB	0dbH
	DB	011H
	DB	0f9H
	DB	0beH
	DB	039H
	DB	079H
	DB	01aH
	DB	0beH
	DB	044H
	DB	07cH
	DB	063H
	DB	09H
	DB	04fH
	DB	07cH
	DB	045H
	DB	03bH
	DB	07fH
	DB	0f8H
	DB	07cH
	DB	0b5H
	DB	0bbH
	DB	036H
	DB	0b7H
	DB	0c7H
	DB	09eH
	DB	0fbH
	DB	08H
	DB	072H
	DB	0d1H
	DB	070H
	DB	058H
	DB	0b8H
	DB	03bH
	DB	015H
	DB	0abH
	DB	08H
	DB	066H
	DB	0adH
	DB	08aH
	DB	058H
	DB	065H
	DB	06cH
	DB	05aH
	DB	07eH
	DB	020H
	DB	0dbH
	DB	0dfH
	DB	030H
	DB	08bH
	DB	024H
	DB	061H
	DB	0d9H
	DB	07cH
	DB	0eH
	DB	0c0H
	DB	02H
	DB	04aH
	DB	027H
	DB	015H
	DB	05H
	DB	052H
	DB	049H
	DB	0cfH
	DB	03bH
	DB	047H
	DB	08dH
	DB	0ddH
	DB	047H
	DB	040H
	DB	0deH
	DB	065H
	DB	04fH
	DB	075H
	DB	0caH
	DB	068H
	DB	06eH
	DB	0dH
	DB	073H
	DB	045H
	DB	0c6H
	DB	09eH
	DB	0d5H
	DB	0cH
	DB	0dcH
	DB	02aH
	DB	08bH
	DB	033H
	DB	02bH
	DB	01fH
	DB	088H
	DB	024H
	DB	010H
	DB	08aH
	DB	0c9H
	DB	037H
	DB	0ebH
	DB	05H
	DB	05H
	DB	085H
	DB	060H
	DB	08eH
	DB	0e7H
	DB	034H
	DB	09H
	DB	07fH
	DB	0c0H
	DB	090H
	DB	054H
	DB	0fbH
	DB	0ffH
	DB	089H
	DB	0eeH
	DB	0aeH
	DB	0eaH
	DB	079H
	DB	01fH
	DB	04aH
	DB	07aH
	DB	0b1H
	DB	0f9H
	DB	086H
	DB	082H
	DB	094H
	DB	0a4H
	DB	0f9H
	DB	0e2H
	DB	07bH
	DB	042H
	DB	0afH
	DB	081H
	DB	00H
	DB	0cbH
	DB	09dH
	DB	059H
	DB	0ceH
	DB	0f9H
	DB	064H
	DB	058H
	DB	03H
	DB	027H
	DB	018H
	DB	028H
	DB	018H
	DB	028H
	DB	045H
	DB	090H
	DB	045H
	DB	023H
	DB	053H
	DB	060H
	DB	028H
	DB	074H
	DB	071H
	DB	035H
	DB	026H
	DB	062H
	DB	049H
	DB	077H
	DB	057H
	DB	024H
	DB	070H
	DB	093H
	DB	069H
	DB	099H
	DB	059H
	DB	057H
	DB	049H
	DB	066H
	DB	096H
	DB	076H
	DB	027H
	DB	031H
	DB	041H
	DB	059H
	DB	026H
	DB	053H
	DB	058H
	DB	097H
	DB	093H
	DB	023H
	DB	084H
	DB	062H
	DB	064H
	DB	033H
	DB	083H
	DB	027H
	DB	095H
	DB	02H
	DB	088H
	DB	041H
	DB	097H
	DB	016H
	DB	093H
	DB	099H
	DB	037H
	DB	051H
	DB	05H
	DB	082H
	DB	09H
	DB	074H
	DB	094H
	DB	045H
	DB	092H
	DB	00H
	DB	00H
	DB	00H
	DB	00H
	DB	00H
	DB	0ffH
	DB	0ffH
	DB	0ffH
	DD	00H
	DB	00H
	DB	01H
	DB	02H
	DB	03H
	DB	04H
	DB	05H
	DB	06H
	DB	07H
	DB	08H
	DB	09H
	DB	0aH
	DB	0bH
	DB	0cH
	DB	0dH
	DB	0eH
	DB	0fH
	DB	010H
	DB	011H
	DB	012H
	DB	013H
	DB	014H
	DB	015H
	DB	016H
	DB	017H
	DB	018H
	DB	019H
	DB	01aH
	DB	01bH
	DB	01cH
	DB	01dH
	DB	01eH
	DB	01fH
	DB	020H
	DB	021H
	DB	022H
	DB	023H
	DB	024H
	DB	025H
	DB	026H
	DB	027H
	DB	028H
	DB	029H
	DB	02aH
	DB	02bH
	DB	02cH
	DB	02dH
	DB	02eH
	DB	02fH
	DB	030H
	DB	031H
	DB	032H
	DB	033H
	DB	034H
	DB	035H
	DB	036H
	DB	037H
	DB	038H
	DB	039H
	DB	03aH
	DB	03bH
	DB	03cH
	DB	03dH
	DB	03eH
	DB	03fH
	DB	040H
	DB	041H
	DB	042H
	DB	043H
	DB	044H
	DB	045H
	DB	046H
	DB	047H
	DB	048H
	DB	049H
	DB	04aH
	DB	04bH
	DB	04cH
	DB	04dH
	DB	04eH
	DB	04fH
	DB	050H
	DB	051H
	DB	052H
	DB	053H
	DB	054H
	DB	055H
	DB	056H
	DB	057H
	DB	058H
	DB	059H
	DB	05aH
	DB	05bH
	DB	05cH
	DB	05dH
	DB	05eH
	DB	05fH
	DB	060H
	DB	061H
	DB	062H
	DB	063H
	DB	064H
	DB	065H
	DB	066H
	DB	067H
	DB	068H
	DB	069H
	DB	06aH
	DB	06bH
	DB	06cH
	DB	06dH
	DB	06eH
	DB	06fH
	DB	070H
	DB	071H
	DB	072H
	DB	073H
	DB	074H
	DB	075H
	DB	076H
	DB	077H
	DB	078H
	DB	079H
	DB	07aH
	DB	07bH
	DB	07cH
	DB	07dH
	DB	07eH
	DB	07fH
	DB	080H
	DB	081H
	DB	082H
	DB	083H
	DB	084H
	DB	085H
	DB	086H
	DB	087H
	DB	088H
	DB	089H
	DB	08aH
	DB	08bH
	DB	08cH
	DB	08dH
	DB	08eH
	DB	08fH
	DB	090H
	DB	091H
	DB	092H
	DB	093H
	DB	094H
	DB	095H
	DB	096H
	DB	097H
	DB	098H
	DB	099H
	DB	09aH
	DB	09bH
	DB	09cH
	DB	09dH
	DB	09eH
	DB	09fH
	DB	0a0H
	DB	0a1H
	DB	0a2H
	DB	0a3H
	DB	0a4H
	DB	0a5H
	DB	0a6H
	DB	0a7H
	DB	0a8H
	DB	0a9H
	DB	0aaH
	DB	0abH
	DB	0acH
	DB	0adH
	DB	0aeH
	DB	0afH
	DB	0b0H
	DB	0b1H
	DB	0b2H
	DB	0b3H
	DB	0b4H
	DB	0b5H
	DB	0b6H
	DB	0b7H
	DB	0b8H
	DB	0b9H
	DB	0baH
	DB	0bbH
	DB	0bcH
	DB	0bdH
	DB	0beH
	DB	0bfH
	DB	0c0H
	DB	0c1H
	DB	0c2H
	DB	0c3H
	DB	0c4H
	DB	0c5H
	DB	0c6H
	DB	0c7H
	DB	0c8H
	DB	0c9H
	DB	0caH
	DB	0cbH
	DB	0ccH
	DB	0cdH
	DB	0ceH
	DB	0cfH
	DB	0d0H
	DB	0d1H
	DB	0d2H
	DB	0d3H
	DB	0d4H
	DB	0d5H
	DB	0d6H
	DB	0d7H
	DB	0d8H
	DB	0d9H
	DB	0daH
	DB	0dbH
	DB	0dcH
	DB	0ddH
	DB	0deH
	DB	0dfH
	DB	0e0H
	DB	0e1H
	DB	0e2H
	DB	0e3H
	DB	0e4H
	DB	0e5H
	DB	0e6H
	DB	0e7H
	DB	0e8H
	DB	0e9H
	DB	0eaH
	DB	0ebH
	DB	0ecH
	DB	0edH
	DB	0eeH
	DB	0efH
	DB	0f0H
	DB	0f1H
	DB	0f2H
	DB	0f3H
	DB	0f4H
	DB	0f5H
	DB	0f6H
	DB	0f7H
	DB	0f8H
	DB	0f9H
	DB	0faH
	DB	0fbH
	DB	0fcH
	DB	0fdH
	DB	0feH
	DB	0ffH
	DB	00H
	DB	01H
	DB	02H
	DB	03H
	DB	04H
	DB	05H
	DB	06H
	DB	07H
	DB	08H
	DB	09H
	DB	0aH
	DB	0bH
	DB	0cH
	DB	0dH
	DB	0eH
	DB	0fH
	DB	010H
	DB	011H
	DB	012H
	DB	013H
	DB	014H
	DB	015H
	DB	016H
	DB	017H
	DB	018H
	DB	019H
	DB	01aH
	DB	01bH
	DB	01cH
	DB	01dH
	DB	01eH
	DB	01fH
	DB	020H
	DB	021H
	DB	022H
	DB	023H
	DB	024H
	DB	025H
	DB	026H
	DB	027H
	DB	028H
	DB	029H
	DB	02aH
	DB	02bH
	DB	02cH
	DB	02dH
	DB	02eH
	DB	02fH
	DB	030H
	DB	031H
	DB	032H
	DB	033H
	DB	034H
	DB	035H
	DB	036H
	DB	037H
	DB	038H
	DB	039H
	DB	03aH
	DB	03bH
	DB	03cH
	DB	03dH
	DB	03eH
	DB	03fH
	DB	040H
	DB	041H
	DB	042H
	DB	043H
	DB	044H
	DB	045H
	DB	046H
	DB	047H
	DB	048H
	DB	049H
	DB	04aH
	DB	04bH
	DB	04cH
	DB	04dH
	DB	04eH
	DB	04fH
	DB	050H
	DB	051H
	DB	052H
	DB	053H
	DB	054H
	DB	055H
	DB	056H
	DB	057H
	DB	058H
	DB	059H
	DB	05aH
	DB	05bH
	DB	05cH
	DB	05dH
	DB	05eH
	DB	05fH
	DB	060H
	DB	061H
	DB	062H
	DB	063H
	DB	064H
	DB	065H
	DB	066H
	DB	067H
	DB	068H
	DB	069H
	DB	06aH
	DB	06bH
	DB	06cH
	DB	06dH
	DB	06eH
	DB	06fH
	DB	070H
	DB	071H
	DB	072H
	DB	073H
	DB	074H
	DB	075H
	DB	076H
	DB	077H
	DB	078H
	DB	079H
	DB	07aH
	DB	07bH
	DB	07cH
	DB	07dH
	DB	07eH
	DB	07fH
	DB	080H
	DB	081H
	DB	082H
	DB	083H
	DB	084H
	DB	085H
	DB	086H
	DB	087H
	DB	088H
	DB	089H
	DB	08aH
	DB	08bH
	DB	08cH
	DB	08dH
	DB	08eH
	DB	08fH
	DB	090H
	DB	091H
	DB	092H
	DB	093H
	DB	094H
	DB	095H
	DB	096H
	DB	097H
	DB	098H
	DB	099H
	DB	09aH
	DB	09bH
	DB	09cH
	DB	09dH
	DB	09eH
	DB	09fH
	DB	0a0H
	DB	0a1H
	DB	0a2H
	DB	0a3H
	DB	0a4H
	DB	0a5H
	DB	0a6H
	DB	0a7H
	DB	0a8H
	DB	0a9H
	DB	0aaH
	DB	0abH
	DB	0acH
	DB	0adH
	DB	0aeH
	DB	0afH
	DB	0b0H
	DB	0b1H
	DB	0b2H
	DB	0b3H
	DB	0b4H
	DB	0b5H
	DB	0b6H
	DB	0b7H
	DB	0b8H
	DB	0b9H
	DB	0baH
	DB	0bbH
	DB	0bcH
	DB	0bdH
	DB	0beH
	DB	0bfH
	DB	0c0H
	DB	0c1H
	DB	0c2H
	DB	0c3H
	DB	0c4H
	DB	0c5H
	DB	0c6H
	DB	0c7H
	DB	0c8H
	DB	0c9H
	DB	0caH
	DB	0cbH
	DB	0ccH
	DB	0cdH
	DB	0ceH
	DB	0cfH
	DB	0d0H
	DB	0d1H
	DB	0d2H
	DB	0d3H
	DB	0d4H
	DB	0d5H
	DB	0d6H
	DB	0d7H
	DB	0d8H
	DB	0d9H
	DB	0daH
	DB	0dbH
	DB	0dcH
	DB	0ddH
	DB	0deH
	DB	0dfH
	DB	0e0H
	DB	0e1H
	DB	0e2H
	DB	0e3H
	DB	0e4H
	DB	0e5H
	DB	0e6H
	DB	0e7H
	DB	0e8H
	DB	0e9H
	DB	0eaH
	DB	0ebH
	DB	0ecH
	DB	0edH
	DB	0eeH
	DB	0efH
	DB	0f0H
	DB	0f1H
	DB	0f2H
	DB	0f3H
	DB	0f4H
	DB	0f5H
	DB	0f6H
	DB	0f7H
	DB	0f8H
	DB	0f9H
	DB	0faH
	DB	0fbH
	DB	0fcH
	DB	0fdH
	DB	0feH
	DB	0ffH
	DB	0e3H
	DB	087H
	DB	0aaH
	DB	0a5H
	DB	08bH
	DB	0a4H
	DB	083H
	DB	0afH
	DB	0a7H
	DB	0e8H
	DB	0ebH
	DB	046H
	DB	097H
	DB	078H
	DB	031H
	DB	07eH
	DB	0cfH
	DB	04cH
	DB	0f5H
	DB	073H
	DB	0aaH
	DB	09dH
	DB	04eH
	DB	0acH
	DB	023H
	DB	0f2H
	DB	0cdH
	DB	0f9H
	DB	014H
	DB	0e4H
	DB	0e2H
	DB	00H
	DB	0a8H
	DB	0b4H
	DB	090H
	DB	0e4H
	DB	02eH
	DB	0e6H
	DB	046H
	DB	080H
	DB	02dH
	DB	0c6H
	DB	0eeH
	DB	02bH
	DB	047H
	DB	01bH
	DB	027H
	DB	081H
	DB	095H
	DB	0d6H
	DB	09H
	DB	018H
	DB	0ecH
	DB	0ecH
	DB	0b4H
	DB	04bH
	DB	0f7H
	DB	099H
	DB	066H
	DB	0f8H
	DB	03fH
	DB	0abH
	DB	0a0H
	DB	049H
	DB	092H
	DB	098H
	DB	0ebH
	DB	0c6H
	DB	099H
	DB	0c0H
	DB	0c8H
	DB	063H
	DB	047H
	DB	015H
	DB	0a3H
	DB	020H
	DB	0bbH
	DB	04fH
	DB	07H
	DB	05dH
	DB	062H
	DB	02eH
	DB	074H
	DB	0c8H
	DB	0c9H
	DB	032H
	DB	00H
	DB	04fH
	DB	025H
	DB	0b4H
	DB	01eH
	DB	036H
	DB	010H
	DB	025H
	DB	0b5H
	DB	0a8H
	DB	078H
	DB	015H
	DB	039H
	DB	01fH
	DB	061H
	DB	08H
	DB	0fcH
	DB	04aH
	DB	0faH
	DB	06aH
	DB	05H
	DB	0d9H
	DB	030H
	DB	03cH
	DB	06bH
	DB	0a6H
	DB	08aH
	DB	012H
	DB	08aH
	DB	055H
	DB	070H
	DB	05dH
	DB	041H
	DB	059H
	DB	085H
	DB	083H
	DB	02fH
	DB	0deH
	DB	0aaH
	DB	0e6H
	DB	0c8H
	DB	0e1H
	DB	091H
	DB	010H
	DB	0e8H
	DB	04dH
	DB	01bH
	DB	01fH
	DB	019H
	DB	09aH
	DB	026H
	DB	092H
	DB	011H
	DB	09eH
	DB	0dcH
	DB	096H
	DB	013H
	DB	026H
	DB	058H
	DB	0f0H
	DB	09dH
	DB	0a7H
	DB	0c6H
	DB	023H
	DB	0efH
	DB	0ceH
	DB	0c7H
	DB	012H
	DB	053H
	DB	07aH
	DB	03dH
	DB	094H
	DB	0c0H
	DB	0bfH
	DB	05dH
	DB	07eH
	DB	035H
	DB	02eH
	DB	0c9H
	DB	04aH
	DB	0e5H
	DB	079H
	DB	07fH
	DB	0dbH
	DB	037H
	DB	07dH
	DB	0c1H
	DB	055H
	DB	011H
	DB	050H
	DB	072H
	DB	01aH
	DB	0dfH
	DB	015H
	DB	0bdH
	DB	026H
	DB	0a8H
	DB	0efH
	DB	0c2H
	DB	0fcH
	DB	0aaH
	DB	0d5H
	DB	068H
	DB	081H
	DB	0faH
	DB	09eH
	DB	062H
	DB	046H
	DB	02cH
	DB	028H
	DB	0f3H
	DB	0aH
	DB	0e1H
	DB	0ceH
	DB	0acH
	DB	0a9H
	DB	03cH
	DB	034H
	DB	05cH
	DB	0f2H
	DB	043H
	DB	0b7H
	DB	03fH
	DB	054H
	DB	02eH
	DB	020H
	DB	074H
	DB	0a7H
	DB	05H
	DB	0bdH
	DB	026H
	DB	043H
	DB	0bbH
	DB	09fH
	DB	07cH
	DB	0c7H
	DB	09bH
	DB	0b6H
	DB	0e7H
	DB	09H
	DB	01eH
	DB	0a6H
	DB	0e2H
	DB	032H
	DB	0dfH
	DB	0fH
	DB	09aH
	DB	0d0H
	DB	0d6H
	DB	0cfH
	DB	050H
	DB	023H
	DB	027H
	DB	087H
	DB	06dH
	DB	082H
	DB	020H
	DB	07aH
	DB	0bfH
	DB	021H
	DB	015H
	DB	0cdH
	DB	0acH
	DB	0f6H
	DB	0d5H
	DB	0a4H
	DB	08fH
	DB	06cH
	DB	018H
	DB	079H
	DB	0a6H
	DB	05bH
	DB	011H
	DB	05fH
	DB	0fH
	DB	08bH
	DB	03cH
	DB	0b3H
	DB	0c5H
	DB	09dH
	DB	015H
	DB	0ddH
	DB	08cH
	DB	076H
	DB	09bH
	DB	0c0H
	DB	014H
	DB	079H
	DB	05aH
	DB	018H
	DB	037H
	DB	0f3H
	DB	090H
	DB	01bH
	DB	058H
	DB	045H
	DB	0ebH
	DB	049H
	DB	01aH
	DB	0dfH
	DB	0efH
	DB	0e0H
	DB	097H
	DB	0b1H
	DB	0faH
	DB	030H
	DB	0a1H
	DB	02fH
	DB	0c1H
	DB	0f6H
	DB	05bH
	DB	0a2H
	DB	029H
	DB	05H
	DB	03H
	DB	015H
	DB	039H
	DB	097H
	DB	01aH
	DB	010H
	DB	0f2H
	DB	0f3H
	DB	06cH
	DB	032H
	DB	01bH
	DB	0b5H
	DB	013H
	DB	031H
	DB	0cdH
	DB	0efH
	DB	0b3H
	DB	09eH
	DB	039H
	DB	064H
	DB	0c7H
	DB	0efH
	DB	07H
	DB	099H
	DB	094H
	DB	0f5H
	DB	0b6H
	DB	09bH
	DB	02eH
	DB	0ddH
	DB	083H
	DB	0a7H
	DB	01eH
	DB	0f5H
	DB	049H
	DB	097H
	DB	01eH
	DB	0e9H
	DB	03fH
	DB	044H
	DB	0eaH
	DB	0c3H
	DB	093H
	DB	08fH
	DB	0cdH
	DB	0d6H
	DB	01dH
	DB	01H
	DB	0faH
	DB	071H
	DB	079H
	DB	09dH
	DB	0a3H
	DB	0a8H
	DB	09H
	DB	01cH
	DB	04cH
	DB	048H
	DB	0aaH
	DB	09eH
	DB	0d2H
	DB	063H
	DB	0ffH
	DB	07H
	DB	049H
	DB	0dfH
	DB	095H
	DB	0d4H
	DB	04fH
	DB	0efH
	DB	06aH
	DB	0bH
	DB	0b5H
	DB	078H
	DB	0ecH
	DB	069H
	DB	045H
	DB	06aH
	DB	0a5H
	DB	040H
	DB	08aH
	DB	0e3H
	DB	02cH
	DB	07aH
	DB	0f0H
	DB	08aH
	DB	0d7H
	DB	0baH
	DB	089H
	DB	021H
	DB	028H
	DB	07eH
	DB	03bH
	DB	0beH
	DB	0e3H
	DB	01bH
	DB	076H
	DB	07bH
	DB	0e0H
	DB	06aH
	DB	0eH
	DB	070H
	DB	05cH
	DB	086H
	DB	04aH
	DB	076H
	DB	091H
	DB	037H
	DB	0dfH
	DB	028H
	DB	029H
	DB	022H
	DB	083H
	DB	0eaH
	DB	081H
	DB	0a2H
	DB	048H
	DB	02H
	DB	041H
	DB	0b4H
	DB	04dH
	DB	099H
	DB	021H
	DB	0cdH
	DB	0beH
	DB	0c1H
	DB	0bcH
	DB	028H
	DB	0dcH
	DB	01fH
	DB	0daH
	DB	011H
	DB	04bH
	DB	0d8H
	DB	0e5H
	DB	021H
	DB	07aH
	DB	0c9H
	DB	0d8H
	DB	0ebH
	DB	0afH
	DB	0a7H
	DB	020H
	DB	0e9H
	DB	0daH
	DB	04fH
	DB	09aH
	DB	0ceH
	DB	023H
	DB	01cH
	DB	0c9H
	DB	049H
	DB	0e5H
	DB	0b9H
	DB	06fH
	DB	0e7H
	DB	06fH
	DB	0fcH
	DB	021H
	DB	06H
	DB	03fH
	DB	0ddH
	DB	0c8H
	DB	03aH
	DB	06bH
	DB	086H
	DB	079H
	DB	0c0H
	DB	0dH
	DB	035H
	DB	0e0H
	DB	095H
	DB	076H
	DB	0a8H
	DB	075H
	DB	030H
	DB	05bH
	DB	0edH
	DB	05fH
	DB	036H
	DB	0edH
	DB	024H
	DB	02cH
	DB	089H
	DB	00H
	DB	0ddH
	DB	01fH
	DB	0a9H
	DB	065H
	DB	0bcH
	DB	095H
	DB	0dH
	DB	0fcH
	DB	0e0H
	DB	09bH
	DB	013H
	DB	022H
	DB	063H
	DB	0a1H
	DB	0eeH
	DB	0f5H
	DB	02dH
	DB	0d6H
	DB	088H
	DB	08cH
	DB	030H
	DB	09fH
	DB	05aH
	DB	07dH
	DB	071H
	DB	028H
	DB	026H
	DB	027H
	DB	018H
	DB	028H
	DB	018H
	DB	028H
	DB	045H
	DB	090H
	DB	045H
	DB	023H
	DB	053H
	DB	060H
	DB	028H
	DB	074H
	DB	071H
	DB	035H
	DB	026H
	DB	062H
	DB	049H
	DB	077H
	DB	057H
	DB	024H
	DB	070H
	DB	093H
	DB	069H
	DB	099H
	DB	059H
	DB	057H
	DB	049H
	DB	066H
	DB	096H
	DB	076H
	DB	027H
	DB	031H
	DB	041H
	DB	059H
	DB	026H
	DB	053H
	DB	058H
	DB	097H
	DB	093H
	DB	023H
	DB	084H
	DB	062H
	DB	064H
	DB	033H
	DB	083H
	DB	027H
	DB	095H
	DB	02H
	DB	088H
	DB	041H
	DB	097H
	DB	016H
	DB	093H
	DB	099H
	DB	037H
	DB	051H
	DB	05H
	DB	082H
	DB	09H
	DB	074H
	DB	094H
	DB	045H
	DB	092H
	DB	00H
	DB	00H
	DB	00H
	DB	00H
	DB	0ffH
	DB	0ffH
	DB	0ffH
	DB	0ffH
	DD	00H
	DB	00H
	DB	01H
	DB	02H
	DB	03H
	DB	04H
	DB	05H
	DB	06H
	DB	07H
	DB	08H
	DB	09H
	DB	0aH
	DB	0bH
	DB	0cH
	DB	0dH
	DB	0eH
	DB	0fH
	DB	010H
	DB	011H
	DB	012H
	DB	013H
	DB	014H
	DB	015H
	DB	016H
	DB	017H
	DB	018H
	DB	019H
	DB	01aH
	DB	01bH
	DB	01cH
	DB	01dH
	DB	01eH
	DB	01fH
	DB	020H
	DB	021H
	DB	022H
	DB	023H
	DB	024H
	DB	025H
	DB	026H
	DB	027H
	DB	028H
	DB	029H
	DB	02aH
	DB	02bH
	DB	02cH
	DB	02dH
	DB	02eH
	DB	02fH
	DB	030H
	DB	031H
	DB	032H
	DB	033H
	DB	034H
	DB	035H
	DB	036H
	DB	037H
	DB	038H
	DB	039H
	DB	03aH
	DB	03bH
	DB	03cH
	DB	03dH
	DB	03eH
	DB	03fH
	DB	040H
	DB	041H
	DB	042H
	DB	043H
	DB	044H
	DB	045H
	DB	046H
	DB	047H
	DB	048H
	DB	049H
	DB	04aH
	DB	04bH
	DB	04cH
	DB	04dH
	DB	04eH
	DB	04fH
	DB	050H
	DB	051H
	DB	052H
	DB	053H
	DB	054H
	DB	055H
	DB	056H
	DB	057H
	DB	058H
	DB	059H
	DB	05aH
	DB	05bH
	DB	05cH
	DB	05dH
	DB	05eH
	DB	05fH
	DB	060H
	DB	061H
	DB	062H
	DB	063H
	DB	064H
	DB	065H
	DB	066H
	DB	067H
	DB	068H
	DB	069H
	DB	06aH
	DB	06bH
	DB	06cH
	DB	06dH
	DB	06eH
	DB	06fH
	DB	070H
	DB	071H
	DB	072H
	DB	073H
	DB	074H
	DB	075H
	DB	076H
	DB	077H
	DB	078H
	DB	079H
	DB	07aH
	DB	07bH
	DB	07cH
	DB	07dH
	DB	07eH
	DB	07fH
	DB	080H
	DB	081H
	DB	082H
	DB	083H
	DB	084H
	DB	085H
	DB	086H
	DB	087H
	DB	088H
	DB	089H
	DB	08aH
	DB	08bH
	DB	08cH
	DB	08dH
	DB	08eH
	DB	08fH
	DB	090H
	DB	091H
	DB	092H
	DB	093H
	DB	094H
	DB	095H
	DB	096H
	DB	097H
	DB	098H
	DB	099H
	DB	09aH
	DB	09bH
	DB	09cH
	DB	09dH
	DB	09eH
	DB	09fH
	DB	0a0H
	DB	0a1H
	DB	0a2H
	DB	0a3H
	DB	0a4H
	DB	0a5H
	DB	0a6H
	DB	0a7H
	DB	0a8H
	DB	0a9H
	DB	0aaH
	DB	0abH
	DB	0acH
	DB	0adH
	DB	0aeH
	DB	0afH
	DB	0b0H
	DB	0b1H
	DB	0b2H
	DB	0b3H
	DB	0b4H
	DB	0b5H
	DB	0b6H
	DB	0b7H
	DB	0b8H
	DB	0b9H
	DB	0baH
	DB	0bbH
	DB	0bcH
	DB	0bdH
	DB	0beH
	DB	0bfH
	DB	0c0H
	DB	0c1H
	DB	0c2H
	DB	0c3H
	DB	0c4H
	DB	0c5H
	DB	0c6H
	DB	0c7H
	DB	0c8H
	DB	0c9H
	DB	0caH
	DB	0cbH
	DB	0ccH
	DB	0cdH
	DB	0ceH
	DB	0cfH
	DB	0d0H
	DB	0d1H
	DB	0d2H
	DB	0d3H
	DB	0d4H
	DB	0d5H
	DB	0d6H
	DB	0d7H
	DB	0d8H
	DB	0d9H
	DB	0daH
	DB	0dbH
	DB	0dcH
	DB	0ddH
	DB	0deH
	DB	0dfH
	DB	0e0H
	DB	0e1H
	DB	0e2H
	DB	0e3H
	DB	0e4H
	DB	0e5H
	DB	0e6H
	DB	0e7H
	DB	0e8H
	DB	0e9H
	DB	0eaH
	DB	0ebH
	DB	0ecH
	DB	0edH
	DB	0eeH
	DB	0efH
	DB	0f0H
	DB	0f1H
	DB	0f2H
	DB	0f3H
	DB	0f4H
	DB	0f5H
	DB	0f6H
	DB	0f7H
	DB	0f8H
	DB	0f9H
	DB	0faH
	DB	0fbH
	DB	0fcH
	DB	0fdH
	DB	0feH
	DB	0ffH
	DB	00H
	DB	01H
	DB	02H
	DB	03H
	DB	04H
	DB	05H
	DB	06H
	DB	07H
	DB	08H
	DB	09H
	DB	0aH
	DB	0bH
	DB	0cH
	DB	0dH
	DB	0eH
	DB	0fH
	DB	010H
	DB	011H
	DB	012H
	DB	013H
	DB	014H
	DB	015H
	DB	016H
	DB	017H
	DB	018H
	DB	019H
	DB	01aH
	DB	01bH
	DB	01cH
	DB	01dH
	DB	01eH
	DB	01fH
	DB	020H
	DB	021H
	DB	022H
	DB	023H
	DB	024H
	DB	025H
	DB	026H
	DB	027H
	DB	028H
	DB	029H
	DB	02aH
	DB	02bH
	DB	02cH
	DB	02dH
	DB	02eH
	DB	02fH
	DB	030H
	DB	031H
	DB	032H
	DB	033H
	DB	034H
	DB	035H
	DB	036H
	DB	037H
	DB	038H
	DB	039H
	DB	03aH
	DB	03bH
	DB	03cH
	DB	03dH
	DB	03eH
	DB	03fH
	DB	040H
	DB	041H
	DB	042H
	DB	043H
	DB	044H
	DB	045H
	DB	046H
	DB	047H
	DB	048H
	DB	049H
	DB	04aH
	DB	04bH
	DB	04cH
	DB	04dH
	DB	04eH
	DB	04fH
	DB	050H
	DB	051H
	DB	052H
	DB	053H
	DB	054H
	DB	055H
	DB	056H
	DB	057H
	DB	058H
	DB	059H
	DB	05aH
	DB	05bH
	DB	05cH
	DB	05dH
	DB	05eH
	DB	05fH
	DB	060H
	DB	061H
	DB	062H
	DB	063H
	DB	064H
	DB	065H
	DB	066H
	DB	067H
	DB	068H
	DB	069H
	DB	06aH
	DB	06bH
	DB	06cH
	DB	06dH
	DB	06eH
	DB	06fH
	DB	070H
	DB	071H
	DB	072H
	DB	073H
	DB	074H
	DB	075H
	DB	076H
	DB	077H
	DB	078H
	DB	079H
	DB	07aH
	DB	07bH
	DB	07cH
	DB	07dH
	DB	07eH
	DB	07fH
	DB	080H
	DB	081H
	DB	082H
	DB	083H
	DB	084H
	DB	085H
	DB	086H
	DB	087H
	DB	088H
	DB	089H
	DB	08aH
	DB	08bH
	DB	08cH
	DB	08dH
	DB	08eH
	DB	08fH
	DB	090H
	DB	091H
	DB	092H
	DB	093H
	DB	094H
	DB	095H
	DB	096H
	DB	097H
	DB	098H
	DB	099H
	DB	09aH
	DB	09bH
	DB	09cH
	DB	09dH
	DB	09eH
	DB	09fH
	DB	0a0H
	DB	0a1H
	DB	0a2H
	DB	0a3H
	DB	0a4H
	DB	0a5H
	DB	0a6H
	DB	0a7H
	DB	0a8H
	DB	0a9H
	DB	0aaH
	DB	0abH
	DB	0acH
	DB	0adH
	DB	0aeH
	DB	0afH
	DB	0b0H
	DB	0b1H
	DB	0b2H
	DB	0b3H
	DB	0b4H
	DB	0b5H
	DB	0b6H
	DB	0b7H
	DB	0b8H
	DB	0b9H
	DB	0baH
	DB	0bbH
	DB	0bcH
	DB	0bdH
	DB	0beH
	DB	0bfH
	DB	0c0H
	DB	0c1H
	DB	0c2H
	DB	0c3H
	DB	0c4H
	DB	0c5H
	DB	0c6H
	DB	0c7H
	DB	0c8H
	DB	0c9H
	DB	0caH
	DB	0cbH
	DB	0ccH
	DB	0cdH
	DB	0ceH
	DB	0cfH
	DB	0d0H
	DB	0d1H
	DB	0d2H
	DB	0d3H
	DB	0d4H
	DB	0d5H
	DB	0d6H
	DB	0d7H
	DB	0d8H
	DB	0d9H
	DB	0daH
	DB	0dbH
	DB	0dcH
	DB	0ddH
	DB	0deH
	DB	0dfH
	DB	0e0H
	DB	0e1H
	DB	0e2H
	DB	0e3H
	DB	0e4H
	DB	0e5H
	DB	0e6H
	DB	0e7H
	DB	0e8H
	DB	0e9H
	DB	0eaH
	DB	0ebH
	DB	0ecH
	DB	0edH
	DB	0eeH
	DB	0efH
	DB	0f0H
	DB	0f1H
	DB	0f2H
	DB	0f3H
	DB	0f4H
	DB	0f5H
	DB	0f6H
	DB	0f7H
	DB	0f8H
	DB	0f9H
	DB	0faH
	DB	0fbH
	DB	0fcH
	DB	0fdH
	DB	0feH
	DB	0ffH
	DB	0bfH
	DB	053H
	DB	0d2H
	DB	0daH
	DB	0deH
	DB	078H
	DB	0e8H
	DB	022H
	DB	0a4H
	DB	0d9H
	DB	049H
	DB	0a9H
	DB	0bcH
	DB	067H
	DB	066H
	DB	0b0H
	DB	01bH
	DB	06H
	DB	0a8H
	DB	0efH
	DB	070H
	DB	0d2H
	DB	067H
	DB	048H
	DB	0c6H
	DB	0a7H
	DB	0fcH
	DB	036H
	DB	0d8H
	DB	0aH
	DB	0e4H
	DB	0c5H
	DB	052H
	DB	0fH
	DB	07cH
	DB	04aH
	DB	0b0H
	DB	0acH
	DB	085H
	DB	044H
	DB	042H
	DB	04fH
	DB	0a4H
	DB	05H
	DB	016H
	DB	02fH
	DB	0efH
	DB	05aH
	DB	06bH
	DB	07fH
	DB	022H
	DB	094H
	DB	098H
	DB	06H
	DB	036H
	DB	018H
	DB	0d3H
	DB	09fH
	DB	00H
	DB	03H
	DB	0cbH
	DB	05fH
	DB	0b8H
	DB	0d1H
	DB	0c8H
	DB	06bH
	DB	064H
	DB	034H
	DB	097H
	DB	0daH
	DB	01fH
	DB	0f9H
	DB	045H
	DB	0c8H
	DB	0d3H
	DB	0beH
	DB	0deH
	DB	0caH
	DB	04fH
	DB	047H
	DB	097H
	DB	02H
	DB	0a7H
	DB	0a7H
	DB	035H
	DB	0f0H
	DB	043H
	DB	0ddH
	DB	0b1H
	DB	0d6H
	DB	0aaH
	DB	0adH
	DB	0e3H
	DB	0c4H
	DB	0a0H
	DB	0acH
	DB	07cH
	DB	0a7H
	DB	0f3H
	DB	0faH
	DB	052H
	DB	079H
	DB	0beH
	DB	0f5H
	DB	06fH
	DB	082H
	DB	0cdH
	DB	07aH
	DB	02fH
	DB	038H
	DB	067H
	DB	02eH
	DB	082H
	DB	048H
	DB	014H
	DB	0e1H
	DB	07H
	DB	00H
	DB	030H
	DB	0aH
	DB	05H
	DB	05eH
	DB	016H
	DB	030H
	DB	0b8H
	DB	0f1H
	DB	0cbH
	DB	0eH
	DB	091H
	DB	09fH
	DB	05eH
	DB	094H
	DB	020H
	DB	010H
	DB	0a4H
	DB	016H
	DB	0e2H
	DB	0bfH
	DB	048H
	DB	0cbH
	DB	046H
	DB	099H
	DB	03dH
	DB	03cH
	DB	0b6H
	DB	0a5H
	DB	01cH
	DB	019H
	DB	0baH
	DB	0cfH
	DB	086H
	DB	047H
	DB	085H
	DB	0a0H
	DB	0bH
	DB	0c2H
	DB	0ecH
	DB	0ffH
	DB	015H
	DB	0d3H
	DB	050H
	DB	087H
	DB	05bH
	DB	024H
	DB	06eH
	DB	0d5H
	DB	03eH
	DB	068H
	DB	0beH
	DB	06fH
	DB	055H
	DB	0bdH
	DB	07eH
	DB	05H
	DB	0cfH
	DB	0c2H
	DB	0b2H
	DB	0edH
	DB	064H
	DB	032H
	DB	019H
	DB	08aH
	DB	064H
	DB	044H
	DB	0b6H
	DB	0d8H
	DB	0c2H
	DB	047H
	DB	0faH
	DB	0b9H
	DB	041H
	DB	0f5H
	DB	069H
	DB	076H
	DB	08bH
	DB	05cH
	DB	042H
	DB	093H
	DB	066H
	DB	0f1H
	DB	0d3H
	DB	0f0H
	DB	0fH
	DB	03H
	DB	045H
	DB	0b9H
	DB	061H
	DB	023H
	DB	0d5H
	DB	062H
	DB	04H
	DB	0c0H
	DB	01cH
	DB	063H
	DB	0b2H
	DB	02cH
	DB	0e7H
	DB	08bH
	DB	0afH
	DB	011H
	DB	06eH
	DB	052H
	DB	05eH
	DB	0d9H
	DB	0fH
	DB	0deH
	DB	0a3H
	DB	09fH
	DB	0a4H
	DB	069H
	DB	049H
	DB	04dH
	DB	038H
	DB	066H
	DB	0c3H
	DB	01eH
	DB	05H
	DB	0f2H
	DB	095H
	DB	0ffH
	DB	021H
	DB	0feH
	DB	0a8H
	DB	0d4H
	DB	0e6H
	DB	0e1H
	DB	03dH
	DB	067H
	DB	0e4H
	DB	07cH
	DB	0e7H
	DB	022H
	DB	0e9H
	DB	069H
	DB	08aH
	DB	01cH
	DB	010H
	DB	048H
	DB	0d6H
	DB	08eH
	DB	0bcH
	DB	0deH
	DB	076H
	DB	0b8H
	DB	06fH
	DB	0cfH
	DB	097H
	DB	06eH
	DB	0abH
	DB	08aH
	DB	0a9H
	DB	079H
	DB	02H
	DB	068H
	DB	0b7H
	DB	06H
	DB	08eH
	DB	01H
	DB	07aH
	DB	08bH
	DB	09bH
	DB	074H
	DB	094H
	DB	09H
	DB	051H
	DB	04fH
	DB	010H
	DB	053H
	DB	02H
	DB	07fH
	DB	0d1H
	DB	06cH
	DB	037H
	DB	086H
	DB	0eaH
	DB	01bH
	DB	0acH
	DB	05fH
	DB	015H
	DB	0cbH
	DB	079H
	DB	071H
	DB	01eH
	DB	0e2H
	DB	0abH
	DB	0e8H
	DB	02fH
	DB	05cH
	DB	0f8H
	DB	0b1H
	DB	03aH
	DB	0e7H
	DB	030H
	DB	030H
	DB	0efH
	DB	05bH
	DB	09eH
	DB	044H
	DB	057H
	DB	0e7H
	DB	05dH
	DB	013H
	DB	04H
	DB	0f9H
	DB	088H
	DB	0d6H
	DB	02dH
	DB	0d6H
	DB	0fcH
	DB	04bH
	DB	094H
	DB	0edH
	DB	038H
	DB	0baH
	DB	083H
	DB	01dH
	DB	0a4H
	DB	0b7H
	DB	063H
	DB	049H
	DB	071H
	DB	0b6H
	DB	0cdH
	DB	08eH
	DB	0c3H
	DB	025H
	DB	0d9H
	DB	0c6H
	DB	01cH
	DB	00H
	DB	0f1H
	DB	0dfH
	DB	073H
	DB	062H
	DB	07eH
	DB	0d3H
	DB	074H
	DB	05aH
	DB	05eH
	DB	084H
	DB	089H
	DB	0f3H
	DB	0a9H
	DB	05cH
	DB	069H
	DB	063H
	DB	09cH
	DB	032H
	DB	0cdH
	DB	06eH
	DB	01dH
	DB	053H
	DB	07aH
	DB	085H
	DB	0f7H
	DB	05cH
	DB	0c8H
	DB	044H
	DB	072H
	DB	06eH
	DB	08aH
	DB	072H
	DB	0fcH
	DB	00H
	DB	077H
	DB	0adH
	DB	022H
	DB	00H
	DB	0fH
	DB	01dH
	DB	050H
	DB	078H
	DB	0f6H
	DB	0b8H
	DB	066H
	DB	031H
	DB	08cH
	DB	066H
	DB	08fH
	DB	01aH
	DB	0d0H
	DB	03dH
	DB	05aH
	DB	05fH
	DB	0ceH
	DB	0d5H
	DB	021H
	DB	09fH
	DB	02eH
	DB	0abH
	DB	0bdH
	DB	0aH
	DB	0a5H
	DB	0c0H
	DB	0f4H
	DB	060H
	DB	0d1H
	DB	083H
	DB	0f0H
	DB	044H
	DB	04H
	DB	0a0H
	DB	0d6H
	DB	0f4H
	DB	069H
	DB	055H
	DB	08eH
	DB	081H
	DB	0faH
	DB	0b2H
	DB	04aH
	DB	016H
	DB	079H
	DB	05H
	DB	0abH
	DB	04cH
	DB	078H
	DB	078H
	DB	050H
	DB	02aH
	DB	0d3H
	DB	0e3H
	DB	08fH
	DB	0dbH
	DB	0e6H
	DB	02aH
	DB	041H
	DB	055H
	DB	06cH
	DB	0ecH
	DB	037H
	DB	032H
	DB	057H
	DB	059H
	DB	053H
	DB	03cH
	DB	0e8H
	DB	0f2H
	DB	05fH
	DB	036H
	DB	07cH
	DB	087H
	DB	0bbH
	DB	055H
	DB	078H
	DB	0d6H
	DB	067H
	DB	0aeH
	DB	093H
	DB	0f9H
	DB	0e2H
	DB	0fdH
	DB	099H
	DB	0bcH
	DB	0bcH
	DB	05fH
	DB	02fH
	DB	0bbH
	DB	0a8H
	DB	08cH
	DB	0f6H
	DB	051H
	DB	061H
	DB	039H
	DB	042H
	DB	0fH
	DB	0cfH
	DB	0f3H
	DB	0b7H
	DB	036H
	DB	01dH
	DB	086H
	DB	032H
	DB	02cH
	DB	04bH
	DB	0d8H
	DB	04cH
	DB	082H
	DB	0f3H
	DB	035H
	DB	0abH
	DB	0b1H
	DB	052H
	DB	0c4H
	DB	0a9H
	DB	034H
	DB	011H
	DB	037H
	DB	03aH
	DB	0aaH
	DB	082H
	DB	020H
	DB	027H
	DB	018H
	DB	028H
	DB	018H
	DB	028H
	DB	045H
	DB	090H
	DB	045H
	DB	023H
	DB	053H
	DB	060H
	DB	028H
	DB	074H
	DB	071H
	DB	035H
	DB	026H
	DB	062H
	DB	049H
	DB	077H
	DB	057H
	DB	024H
	DB	070H
	DB	093H
	DB	069H
	DB	099H
	DB	059H
	DB	057H
	DB	049H
	DB	066H
	DB	096H
	DB	076H
	DB	027H
	DB	031H
	DB	041H
	DB	059H
	DB	026H
	DB	053H
	DB	058H
	DB	097H
	DB	093H
	DB	023H
	DB	084H
	DB	062H
	DB	064H
	DB	033H
	DB	083H
	DB	027H
	DB	095H
	DB	02H
	DB	088H
	DB	041H
	DB	097H
	DB	016H
	DB	093H
	DB	099H
	DB	037H
	DB	051H
	DB	05H
	DB	082H
	DB	09H
	DB	074H
	DB	094H
	DB	045H
	DB	092H
	DB	00H
	DB	00H
	DB	00H
	DB	0ffH
	DB	0ffH
	DB	0ffH
	DB	0ffH
	DB	0ffH
	DD	00H
	DB	00H
	DB	01H
	DB	02H
	DB	03H
	DB	04H
	DB	05H
	DB	06H
	DB	07H
	DB	08H
	DB	09H
	DB	0aH
	DB	0bH
	DB	0cH
	DB	0dH
	DB	0eH
	DB	0fH
	DB	010H
	DB	011H
	DB	012H
	DB	013H
	DB	014H
	DB	015H
	DB	016H
	DB	017H
	DB	018H
	DB	019H
	DB	01aH
	DB	01bH
	DB	01cH
	DB	01dH
	DB	01eH
	DB	01fH
	DB	020H
	DB	021H
	DB	022H
	DB	023H
	DB	024H
	DB	025H
	DB	026H
	DB	027H
	DB	028H
	DB	029H
	DB	02aH
	DB	02bH
	DB	02cH
	DB	02dH
	DB	02eH
	DB	02fH
	DB	030H
	DB	031H
	DB	032H
	DB	033H
	DB	034H
	DB	035H
	DB	036H
	DB	037H
	DB	038H
	DB	039H
	DB	03aH
	DB	03bH
	DB	03cH
	DB	03dH
	DB	03eH
	DB	03fH
	DB	040H
	DB	041H
	DB	042H
	DB	043H
	DB	044H
	DB	045H
	DB	046H
	DB	047H
	DB	048H
	DB	049H
	DB	04aH
	DB	04bH
	DB	04cH
	DB	04dH
	DB	04eH
	DB	04fH
	DB	050H
	DB	051H
	DB	052H
	DB	053H
	DB	054H
	DB	055H
	DB	056H
	DB	057H
	DB	058H
	DB	059H
	DB	05aH
	DB	05bH
	DB	05cH
	DB	05dH
	DB	05eH
	DB	05fH
	DB	060H
	DB	061H
	DB	062H
	DB	063H
	DB	064H
	DB	065H
	DB	066H
	DB	067H
	DB	068H
	DB	069H
	DB	06aH
	DB	06bH
	DB	06cH
	DB	06dH
	DB	06eH
	DB	06fH
	DB	070H
	DB	071H
	DB	072H
	DB	073H
	DB	074H
	DB	075H
	DB	076H
	DB	077H
	DB	078H
	DB	079H
	DB	07aH
	DB	07bH
	DB	07cH
	DB	07dH
	DB	07eH
	DB	07fH
	DB	080H
	DB	081H
	DB	082H
	DB	083H
	DB	084H
	DB	085H
	DB	086H
	DB	087H
	DB	088H
	DB	089H
	DB	08aH
	DB	08bH
	DB	08cH
	DB	08dH
	DB	08eH
	DB	08fH
	DB	090H
	DB	091H
	DB	092H
	DB	093H
	DB	094H
	DB	095H
	DB	096H
	DB	097H
	DB	098H
	DB	099H
	DB	09aH
	DB	09bH
	DB	09cH
	DB	09dH
	DB	09eH
	DB	09fH
	DB	0a0H
	DB	0a1H
	DB	0a2H
	DB	0a3H
	DB	0a4H
	DB	0a5H
	DB	0a6H
	DB	0a7H
	DB	0a8H
	DB	0a9H
	DB	0aaH
	DB	0abH
	DB	0acH
	DB	0adH
	DB	0aeH
	DB	0afH
	DB	0b0H
	DB	0b1H
	DB	0b2H
	DB	0b3H
	DB	0b4H
	DB	0b5H
	DB	0b6H
	DB	0b7H
	DB	0b8H
	DB	0b9H
	DB	0baH
	DB	0bbH
	DB	0bcH
	DB	0bdH
	DB	0beH
	DB	0bfH
	DB	0c0H
	DB	0c1H
	DB	0c2H
	DB	0c3H
	DB	0c4H
	DB	0c5H
	DB	0c6H
	DB	0c7H
	DB	0c8H
	DB	0c9H
	DB	0caH
	DB	0cbH
	DB	0ccH
	DB	0cdH
	DB	0ceH
	DB	0cfH
	DB	0d0H
	DB	0d1H
	DB	0d2H
	DB	0d3H
	DB	0d4H
	DB	0d5H
	DB	0d6H
	DB	0d7H
	DB	0d8H
	DB	0d9H
	DB	0daH
	DB	0dbH
	DB	0dcH
	DB	0ddH
	DB	0deH
	DB	0dfH
	DB	0e0H
	DB	0e1H
	DB	0e2H
	DB	0e3H
	DB	0e4H
	DB	0e5H
	DB	0e6H
	DB	0e7H
	DB	0e8H
	DB	0e9H
	DB	0eaH
	DB	0ebH
	DB	0ecH
	DB	0edH
	DB	0eeH
	DB	0efH
	DB	0f0H
	DB	0f1H
	DB	0f2H
	DB	0f3H
	DB	0f4H
	DB	0f5H
	DB	0f6H
	DB	0f7H
	DB	0f8H
	DB	0f9H
	DB	0faH
	DB	0fbH
	DB	0fcH
	DB	0fdH
	DB	0feH
	DB	0ffH
	DB	00H
	DB	01H
	DB	02H
	DB	03H
	DB	04H
	DB	05H
	DB	06H
	DB	07H
	DB	08H
	DB	09H
	DB	0aH
	DB	0bH
	DB	0cH
	DB	0dH
	DB	0eH
	DB	0fH
	DB	010H
	DB	011H
	DB	012H
	DB	013H
	DB	014H
	DB	015H
	DB	016H
	DB	017H
	DB	018H
	DB	019H
	DB	01aH
	DB	01bH
	DB	01cH
	DB	01dH
	DB	01eH
	DB	01fH
	DB	020H
	DB	021H
	DB	022H
	DB	023H
	DB	024H
	DB	025H
	DB	026H
	DB	027H
	DB	028H
	DB	029H
	DB	02aH
	DB	02bH
	DB	02cH
	DB	02dH
	DB	02eH
	DB	02fH
	DB	030H
	DB	031H
	DB	032H
	DB	033H
	DB	034H
	DB	035H
	DB	036H
	DB	037H
	DB	038H
	DB	039H
	DB	03aH
	DB	03bH
	DB	03cH
	DB	03dH
	DB	03eH
	DB	03fH
	DB	040H
	DB	041H
	DB	042H
	DB	043H
	DB	044H
	DB	045H
	DB	046H
	DB	047H
	DB	048H
	DB	049H
	DB	04aH
	DB	04bH
	DB	04cH
	DB	04dH
	DB	04eH
	DB	04fH
	DB	050H
	DB	051H
	DB	052H
	DB	053H
	DB	054H
	DB	055H
	DB	056H
	DB	057H
	DB	058H
	DB	059H
	DB	05aH
	DB	05bH
	DB	05cH
	DB	05dH
	DB	05eH
	DB	05fH
	DB	060H
	DB	061H
	DB	062H
	DB	063H
	DB	064H
	DB	065H
	DB	066H
	DB	067H
	DB	068H
	DB	069H
	DB	06aH
	DB	06bH
	DB	06cH
	DB	06dH
	DB	06eH
	DB	06fH
	DB	070H
	DB	071H
	DB	072H
	DB	073H
	DB	074H
	DB	075H
	DB	076H
	DB	077H
	DB	078H
	DB	079H
	DB	07aH
	DB	07bH
	DB	07cH
	DB	07dH
	DB	07eH
	DB	07fH
	DB	080H
	DB	081H
	DB	082H
	DB	083H
	DB	084H
	DB	085H
	DB	086H
	DB	087H
	DB	088H
	DB	089H
	DB	08aH
	DB	08bH
	DB	08cH
	DB	08dH
	DB	08eH
	DB	08fH
	DB	090H
	DB	091H
	DB	092H
	DB	093H
	DB	094H
	DB	095H
	DB	096H
	DB	097H
	DB	098H
	DB	099H
	DB	09aH
	DB	09bH
	DB	09cH
	DB	09dH
	DB	09eH
	DB	09fH
	DB	0a0H
	DB	0a1H
	DB	0a2H
	DB	0a3H
	DB	0a4H
	DB	0a5H
	DB	0a6H
	DB	0a7H
	DB	0a8H
	DB	0a9H
	DB	0aaH
	DB	0abH
	DB	0acH
	DB	0adH
	DB	0aeH
	DB	0afH
	DB	0b0H
	DB	0b1H
	DB	0b2H
	DB	0b3H
	DB	0b4H
	DB	0b5H
	DB	0b6H
	DB	0b7H
	DB	0b8H
	DB	0b9H
	DB	0baH
	DB	0bbH
	DB	0bcH
	DB	0bdH
	DB	0beH
	DB	0bfH
	DB	0c0H
	DB	0c1H
	DB	0c2H
	DB	0c3H
	DB	0c4H
	DB	0c5H
	DB	0c6H
	DB	0c7H
	DB	0c8H
	DB	0c9H
	DB	0caH
	DB	0cbH
	DB	0ccH
	DB	0cdH
	DB	0ceH
	DB	0cfH
	DB	0d0H
	DB	0d1H
	DB	0d2H
	DB	0d3H
	DB	0d4H
	DB	0d5H
	DB	0d6H
	DB	0d7H
	DB	0d8H
	DB	0d9H
	DB	0daH
	DB	0dbH
	DB	0dcH
	DB	0ddH
	DB	0deH
	DB	0dfH
	DB	0e0H
	DB	0e1H
	DB	0e2H
	DB	0e3H
	DB	0e4H
	DB	0e5H
	DB	0e6H
	DB	0e7H
	DB	0e8H
	DB	0e9H
	DB	0eaH
	DB	0ebH
	DB	0ecH
	DB	0edH
	DB	0eeH
	DB	0efH
	DB	0f0H
	DB	0f1H
	DB	0f2H
	DB	0f3H
	DB	0f4H
	DB	0f5H
	DB	0f6H
	DB	0f7H
	DB	0f8H
	DB	0f9H
	DB	0faH
	DB	0fbH
	DB	0fcH
	DB	0fdH
	DB	0feH
	DB	0ffH
	DB	064H
	DB	049H
	DB	07eH
	DB	05aH
	DB	083H
	DB	01eH
	DB	04aH
	DB	093H
	DB	02cH
	DB	09H
	DB	0beH
	DB	03eH
	DB	053H
	DB	093H
	DB	037H
	DB	06dH
	DB	0aaH
	DB	059H
	DB	095H
	DB	048H
	DB	0b8H
	DB	016H
	DB	03H
	DB	01dH
	DB	022H
	DB	04bH
	DB	0bfH
	DB	050H
	DB	0a8H
	DB	018H
	DB	0edH
	DB	023H
	DB	050H
	DB	0eaH
	DB	0e7H
	DB	0e9H
	DB	060H
	DB	087H
	DB	0c8H
	DB	0a0H
	DB	0dbH
	DB	051H
	DB	0adH
	DB	029H
	DB	0bH
	DB	0d0H
	DB	0cH
	DB	01aH
	DB	0c1H
	DB	062H
	DB	08H
	DB	057H
	DB	063H
	DB	05bH
	DB	0f2H
	DB	046H
	DB	0c1H
	DB	076H
	DB	0abH
	DB	046H
	DB	03bH
	DB	0e3H
	DB	0bH
	DB	080H
	DB	08dH
	DB	0a5H
	DB	048H
	DB	08H
	DB	01aH
	DB	0c8H
	DB	047H
	DB	0b1H
	DB	058H
	DB	0e1H
	DB	026H
	DB	04bH
	DB	0e2H
	DB	05bH
	DB	0b0H
	DB	091H
	DB	0bH
	DB	0bcH
	DB	092H
	DB	064H
	DB	071H
	DB	08H
	DB	08H
	DB	094H
	DB	015H
	DB	0d4H
	DB	05fH
	DB	0abH
	DB	01bH
	DB	03dH
	DB	026H
	DB	04H
	DB	0e8H
	DB	0a8H
	DB	0efH
	DB	0f1H
	DB	0aeH
	DB	040H
	DB	020H
	DB	0cfH
	DB	0a3H
	DB	099H
	DB	036H
	DB	0b6H
	DB	068H
	DB	027H
	DB	0b2H
	DB	03fH
	DB	037H
	DB	01bH
	DB	092H
	DB	020H
	DB	0bH
	DB	0e9H
	DB	02H
	DB	051H
	DB	0e6H
	DB	0d7H
	DB	03cH
	DB	05fH
	DB	086H
	DB	0deH
	DB	05fH
	DB	0d4H
	DB	0a9H
	DB	050H
	DB	078H
	DB	019H
	DB	033H
	DB	0d7H
	DB	09aH
	DB	028H
	DB	027H
	DB	02bH
	DB	078H
	DB	02aH
	DB	02eH
	DB	0c3H
	DB	013H
	DB	0efH
	DB	0dfH
	DB	0ccH
	DB	06H
	DB	028H
	DB	0f4H
	DB	03dH
	DB	074H
	DB	04cH
	DB	02dH
	DB	0c2H
	DB	0ffH
	DB	03dH
	DB	0cbH
	DB	066H
	DB	099H
	DB	09bH
	DB	050H
	DB	0c7H
	DB	0caH
	DB	089H
	DB	05bH
	DB	0cH
	DB	064H
	DB	079H
	DB	01eH
	DB	0eaH
	DB	0a5H
	DB	0f2H
	DB	094H
	DB	099H
	DB	0fbH
	DB	01cH
	DB	02H
	DB	06fH
	DB	084H
	DB	0ceH
	DB	05bH
	DB	05cH
	DB	072H
	DB	0baH
	DB	010H
	DB	083H
	DB	0cdH
	DB	0dbH
	DB	05cH
	DB	0e4H
	DB	054H
	DB	034H
	DB	063H
	DB	016H
	DB	065H
	DB	0c3H
	DB	033H
	DB	0b6H
	DB	0bH
	DB	011H
	DB	059H
	DB	03fH
	DB	0b2H
	DB	053H
	DB	0c5H
	DB	017H
	DB	09aH
	DB	02cH
	DB	08dH
	DB	0b8H
	DB	013H
	DB	078H
	DB	02aH
	DB	00H
	DB	048H
	DB	056H
	DB	0a1H
	DB	065H
	DB	030H
	DB	011H
	DB	0e9H
	DB	03fH
	DB	0b6H
	DB	0d8H
	DB	076H
	DB	0c1H
	DB	083H
	DB	066H
	DB	0ddH
	DB	086H
	DB	083H
	DB	0f5H
	DB	034H
	DB	012H
	DB	0c0H
	DB	0c1H
	DB	080H
	DB	0f9H
	DB	0c8H
	DB	048H
	DB	059H
	DB	02dH
	DB	059H
	DB	03fH
	DB	086H
	DB	09H
	DB	0caH
	DB	073H
	DB	063H
	DB	017H
	DB	0d3H
	DB	056H
	DB	0e1H
	DB	03eH
	DB	02bH
	DB	0ffH
	DB	03aH
	DB	09fH
	DB	059H
	DB	0cdH
	DB	09aH
	DB	0ebH
	DB	019H
	DB	0cdH
	DB	048H
	DB	025H
	DB	093H
	DB	0d8H
	DB	0c4H
	DB	061H
	DB	028H
	DB	0bbH
	DB	032H
	DB	042H
	DB	03bH
	DB	037H
	DB	0a9H
	DB	0adH
	DB	0fbH
	DB	048H
	DB	02bH
	DB	099H
	DB	045H
	DB	03fH
	DB	0beH
	DB	025H
	DB	0a4H
	DB	01bH
	DB	0f6H
	DB	0feH
	DB	0b4H
	DB	0aaH
	DB	0bH
	DB	0efH
	DB	05eH
	DB	0d2H
	DB	04bH
	DB	0f7H
	DB	03cH
	DB	076H
	DB	029H
	DB	078H
	DB	02H
	DB	054H
	DB	082H
	DB	0c1H
	DB	031H
	DB	015H
	DB	0e4H
	DB	01H
	DB	05aH
	DB	0acH
	DB	099H
	DB	02eH
	DB	056H
	DB	013H
	DB	0a3H
	DB	0b5H
	DB	0c2H
	DB	0f6H
	DB	085H
	DB	0b8H
	DB	047H
	DB	095H
	DB	0cbH
	DB	06eH
	DB	09bH
	DB	026H
	DB	056H
	DB	0d8H
	DB	0c8H
	DB	081H
	DB	057H
	DB	0e5H
	DB	02cH
	DB	042H
	DB	0f9H
	DB	078H
	DB	0d8H
	DB	063H
	DB	04cH
	DB	043H
	DB	0d0H
	DB	06fH
	DB	0eaH
	DB	092H
	DB	08fH
	DB	028H
	DB	022H
	DB	0e4H
	DB	065H
	DB	0aaH
	DB	065H
	DB	076H
	DB	0e9H
	DB	0bfH
	DB	041H
	DB	093H
	DB	084H
	DB	050H
	DB	06cH
	DB	0c3H
	DB	0ceH
	DB	03cH
	DB	054H
	DB	0acH
	DB	01aH
	DB	06fH
	DB	067H
	DB	0dcH
	DB	066H
	DB	0f3H
	DB	0b3H
	DB	01H
	DB	091H
	DB	0e6H
	DB	098H
	DB	038H
	DB	0bH
	DB	0c9H
	DB	099H
	DB	0b0H
	DB	05aH
	DB	0bcH
	DB	0e1H
	DB	09dH
	DB	0c0H
	DB	0c6H
	DB	0dcH
	DB	0c2H
	DB	0ddH
	DB	00H
	DB	01eH
	DB	0c5H
	DB	035H
	DB	0baH
	DB	018H
	DB	0deH
	DB	0b2H
	DB	0dfH
	DB	01aH
	DB	010H
	DB	010H
	DB	023H
	DB	010H
	DB	083H
	DB	018H
	DB	0c7H
	DB	05dH
	DB	0c9H
	DB	086H
	DB	011H
	DB	0a0H
	DB	09dH
	DB	0c4H
	DB	08aH
	DB	0aH
	DB	0cdH
	DB	0ecH
	DB	067H
	DB	06fH
	DB	0abH
	DB	0dfH
	DB	022H
	DB	02fH
	DB	07H
	DB	0e0H
	DB	026H
	DB	0f0H
	DB	059H
	DB	0b6H
	DB	072H
	DB	0b5H
	DB	06eH
	DB	05cH
	DB	0bcH
	DB	08eH
	DB	01dH
	DB	021H
	DB	0bbH
	DB	0d8H
	DB	067H
	DB	0ddH
	DB	092H
	DB	072H
	DB	012H
	DB	05H
	DB	046H
	DB	081H
	DB	0d7H
	DB	0eH
	DB	0a7H
	DB	037H
	DB	013H
	DB	04cH
	DB	0dfH
	DB	0ceH
	DB	093H
	DB	0b6H
	DB	0f8H
	DB	02aH
	DB	0e2H
	DB	024H
	DB	023H
	DB	027H
	DB	04eH
	DB	058H
	DB	0a0H
	DB	082H
	DB	01cH
	DB	0c5H
	DB	050H
	DB	02eH
	DB	02dH
	DB	0aH
	DB	0b4H
	DB	058H
	DB	05eH
	DB	094H
	DB	0deH
	DB	069H
	DB	075H
	DB	0beH
	DB	05eH
	DB	0bH
	DB	04eH
	DB	0fcH
	DB	0e5H
	DB	01cH
	DB	0d3H
	DB	0e7H
	DB	0cH
	DB	025H
	DB	0a1H
	DB	0fbH
	DB	0bbH
	DB	0d6H
	DB	09H
	DB	0d2H
	DB	073H
	DB	0adH
	DB	05bH
	DB	0dH
	DB	059H
	DB	063H
	DB	01cH
	DB	053H
	DB	01fH
	DB	06aH
	DB	0aH
	DB	057H
	DB	0b9H
hmac_whirlpool_test_key DQ FLAT:??_C@_0EB@DIMDKBBC@?$AA?$BB?$CC3DUfw?$II?$JJ?$KK?$LL?L?$NN?n?$PP?$AB?$CDEg?$IJ?$KL?M?o?$AA?$BB?$CC3DUfw@
hmac_whirlpool_test_data DQ FLAT:??_C@_0DJ@NGDOEGCI@abcdbcdecdefdefgefghfghighijhijk@
hmac_whirlpool_test_vectors DQ FLAT:??_C@_0EB@PHFBDMAI@?$AD?$JB?R?$IA?$AA?$LGb?$LL?$LI?f?$CD?$DO?hl?r?$LC?$IEtLs?$ILX?$AA?$LK?$CI?$BC?mRo?c?$BF?3@
hmac_gosthash_test_key DQ FLAT:??_C@_0EB@DIMDKBBC@?$AA?$BB?$CC3DUfw?$II?$JJ?$KK?$LL?L?$NN?n?$PP?$AB?$CDEg?$IJ?$KL?M?o?$AA?$BB?$CC3DUfw@
hmac_gosthash_test_data DQ FLAT:??_C@_0DJ@NGDOEGCI@abcdbcdecdefdefgefghfghighijhijk@
hmac_gosthash_test_vectors DQ FLAT:??_C@_0CB@IGIOKONH@R5?$LH?$BHV?$LIu?$CB?J?iR?$JL?$CB?$JH?$DOmNT?$BC?$PMap?$EA?zFL?w$?$JN?$CI?$NO?$BN@
hmac_stribog_test_key DQ FLAT:??_C@_0EB@DIMDKBBC@?$AA?$BB?$CC3DUfw?$II?$JJ?$KK?$LL?L?$NN?n?$PP?$AB?$CDEg?$IJ?$KL?M?o?$AA?$BB?$CC3DUfw@
hmac_stribog_test_data DQ FLAT:??_C@_0DJ@NGDOEGCI@abcdbcdecdefdefgefghfghighijhijk@
hmac_stribog_test_vectors DQ FLAT:??_C@_0EB@NCCFEKHJ@t?$IKd?$JE?$LI4?$LNr?$JF?$KC?$DL?$BB?$IG?$BNF?g?$II?$APe?$JI?ST?a?$LCJ5?B?$KC?$IFA?$AI?$IF@
	ORG $+8
?key1@?1??TestSectorBufEncryption@@9@9 DB 027H		; `TestSectorBufEncryption'::`2'::key1
	DB	018H
	DB	028H
	DB	018H
	DB	028H
	DB	045H
	DB	090H
	DB	045H
	DB	023H
	DB	053H
	DB	060H
	DB	028H
	DB	074H
	DB	071H
	DB	035H
	DB	026H
	DB	062H
	DB	049H
	DB	077H
	DB	057H
	DB	024H
	DB	070H
	DB	093H
	DB	069H
	DB	099H
	DB	059H
	DB	057H
	DB	049H
	DB	066H
	DB	096H
	DB	076H
	DB	027H
	DB	031H
	DB	041H
	DB	059H
	DB	026H
	DB	053H
	DB	058H
	DB	097H
	DB	093H
	DB	023H
	DB	084H
	DB	062H
	DB	064H
	DB	033H
	DB	083H
	DB	027H
	DB	095H
	DB	02H
	DB	088H
	DB	041H
	DB	097H
	DB	016H
	DB	093H
	DB	099H
	DB	037H
	DB	051H
	DB	05H
	DB	082H
	DB	09H
	DB	074H
	DB	094H
	DB	045H
	DB	092H
	DB	00H
	DB	00H
	DB	00H
	DB	0ffH
	DB	0ffH
	DB	0ffH
	DB	0ffH
	DB	0ffH
	DB	00H
	DB	00H
	DB	00H
	DB	00H
	DB	00H
	DB	01H
	DB	02H
	DB	03H
	DB	04H
	DB	05H
	DB	06H
	DB	07H
	DB	08H
	DB	09H
	DB	0aH
	DB	0bH
	DB	0cH
	DB	0dH
	DB	0eH
	DB	0fH
	DB	010H
	DB	011H
	DB	012H
	DB	013H
PUBLIC	__$ArrayPad$
PUBLIC	test_hmac_whirlpool
;	COMDAT pdata
; File c:\users\alexis\desktop\sources_gostcrypt_windows_1.3.1_commented\sources_gostcrypt_windows_1.3.1\sources_gostcrypt_windows_1.3.1\common\tests.c
pdata	SEGMENT
$pdata$test_hmac_whirlpool DD imagerel $LN4
	DD	imagerel $LN4+122
	DD	imagerel $unwind$test_hmac_whirlpool
pdata	ENDS
;	COMDAT xdata
xdata	SEGMENT
$unwind$test_hmac_whirlpool DD 021619H
	DD	0110107H
	DD	imagerel __GSHandlerCheck
	DD	070H
; Function compile flags: /Ogspy
xdata	ENDS
;	COMDAT test_hmac_whirlpool
_TEXT	SEGMENT
digest$ = 48
__$ArrayPad$ = 112
test_hmac_whirlpool PROC				; COMDAT

; 691  : {

$LN4:
  00000	48 81 ec 88 00
	00 00		 sub	 rsp, 136		; 00000088H
  00007	48 8b 05 00 00
	00 00		 mov	 rax, QWORD PTR __security_cookie
  0000e	48 33 c4	 xor	 rax, rsp
  00011	48 89 44 24 70	 mov	 QWORD PTR __$ArrayPad$[rsp], rax

; 692  : 	unsigned char digest[WHIRLPOOL_DIGESTSIZE];
; 693  : 
; 694  : 	hmac_whirlpool (hmac_whirlpool_test_key, 64, hmac_whirlpool_test_data, (int) strlen (hmac_whirlpool_test_data), digest, WHIRLPOOL_DIGESTSIZE);

  00016	41 b9 38 00 00
	00		 mov	 r9d, 56			; 00000038H
  0001c	48 8d 44 24 30	 lea	 rax, QWORD PTR digest$[rsp]
  00021	4c 8d 05 00 00
	00 00		 lea	 r8, OFFSET FLAT:??_C@_0DJ@NGDOEGCI@abcdbcdecdefdefgefghfghighijhijk@
  00028	48 8d 0d 00 00
	00 00		 lea	 rcx, OFFSET FLAT:??_C@_0EB@DIMDKBBC@?$AA?$BB?$CC3DUfw?$II?$JJ?$KK?$LL?L?$NN?n?$PP?$AB?$CDEg?$IJ?$KL?M?o?$AA?$BB?$CC3DUfw@
  0002f	41 8d 51 08	 lea	 edx, QWORD PTR [r9+8]
  00033	c7 44 24 28 40
	00 00 00	 mov	 DWORD PTR [rsp+40], 64	; 00000040H
  0003b	48 89 44 24 20	 mov	 QWORD PTR [rsp+32], rax
  00040	e8 00 00 00 00	 call	 hmac_whirlpool

; 695  : 	if (memcmp (digest, hmac_whirlpool_test_vectors, WHIRLPOOL_DIGESTSIZE) != 0)

  00045	48 8d 15 00 00
	00 00		 lea	 rdx, OFFSET FLAT:??_C@_0EB@PHFBDMAI@?$AD?$JB?R?$IA?$AA?$LGb?$LL?$LI?f?$CD?$DO?hl?r?$LC?$IEtLs?$ILX?$AA?$LK?$CI?$BC?mRo?c?$BF?3@
  0004c	48 8d 4c 24 30	 lea	 rcx, QWORD PTR digest$[rsp]
  00051	41 b8 40 00 00
	00		 mov	 r8d, 64			; 00000040H
  00057	e8 00 00 00 00	 call	 memcmp
  0005c	33 c9		 xor	 ecx, ecx
  0005e	3b c1		 cmp	 eax, ecx
  00060	0f 94 c1	 sete	 cl
  00063	8b c1		 mov	 eax, ecx

; 696  : 		return FALSE;
; 697  : 
; 698  : 	return TRUE;
; 699  : }

  00065	48 8b 4c 24 70	 mov	 rcx, QWORD PTR __$ArrayPad$[rsp]
  0006a	48 33 cc	 xor	 rcx, rsp
  0006d	e8 00 00 00 00	 call	 __security_check_cookie
  00072	48 81 c4 88 00
	00 00		 add	 rsp, 136		; 00000088H
  00079	c3		 ret	 0
test_hmac_whirlpool ENDP
PUBLIC	__$ArrayPad$
PUBLIC	test_hmac_gosthash
;	COMDAT pdata
pdata	SEGMENT
$pdata$test_hmac_gosthash DD imagerel $LN4
	DD	imagerel $LN4+108
	DD	imagerel $unwind$test_hmac_gosthash
pdata	ENDS
;	COMDAT xdata
xdata	SEGMENT
$unwind$test_hmac_gosthash DD 011319H
	DD	0c204H
	DD	imagerel __GSHandlerCheck
	DD	050H
; Function compile flags: /Ogspy
xdata	ENDS
;	COMDAT test_hmac_gosthash
_TEXT	SEGMENT
digest$ = 48
__$ArrayPad$ = 80
test_hmac_gosthash PROC					; COMDAT

; 709  : {

$LN4:
  00000	48 83 ec 68	 sub	 rsp, 104		; 00000068H
  00004	48 8b 05 00 00
	00 00		 mov	 rax, QWORD PTR __security_cookie
  0000b	48 33 c4	 xor	 rax, rsp
  0000e	48 89 44 24 50	 mov	 QWORD PTR __$ArrayPad$[rsp], rax

; 710  : 	unsigned char digest[GOSTHASH_DIGESTSIZE];
; 711  : 	hmac_gosthash(hmac_gosthash_test_key, 64, hmac_gosthash_test_data, (int) strlen (hmac_gosthash_test_data), digest);

  00013	41 b9 38 00 00
	00		 mov	 r9d, 56			; 00000038H
  00019	48 8d 44 24 30	 lea	 rax, QWORD PTR digest$[rsp]
  0001e	4c 8d 05 00 00
	00 00		 lea	 r8, OFFSET FLAT:??_C@_0DJ@NGDOEGCI@abcdbcdecdefdefgefghfghighijhijk@
  00025	41 8d 51 08	 lea	 edx, QWORD PTR [r9+8]
  00029	48 8d 0d 00 00
	00 00		 lea	 rcx, OFFSET FLAT:??_C@_0EB@DIMDKBBC@?$AA?$BB?$CC3DUfw?$II?$JJ?$KK?$LL?L?$NN?n?$PP?$AB?$CDEg?$IJ?$KL?M?o?$AA?$BB?$CC3DUfw@
  00030	48 89 44 24 20	 mov	 QWORD PTR [rsp+32], rax
  00035	e8 00 00 00 00	 call	 hmac_gosthash

; 712  : 	if (memcmp (digest, hmac_gosthash_test_vectors, GOSTHASH_DIGESTSIZE) != 0)

  0003a	48 8d 15 00 00
	00 00		 lea	 rdx, OFFSET FLAT:??_C@_0CB@IGIOKONH@R5?$LH?$BHV?$LIu?$CB?J?iR?$JL?$CB?$JH?$DOmNT?$BC?$PMap?$EA?zFL?w$?$JN?$CI?$NO?$BN@
  00041	48 8d 4c 24 30	 lea	 rcx, QWORD PTR digest$[rsp]
  00046	41 b8 20 00 00
	00		 mov	 r8d, 32			; 00000020H
  0004c	e8 00 00 00 00	 call	 memcmp
  00051	33 c9		 xor	 ecx, ecx
  00053	3b c1		 cmp	 eax, ecx
  00055	0f 94 c1	 sete	 cl
  00058	8b c1		 mov	 eax, ecx

; 713  : 		return FALSE;
; 714  : 
; 715  : 	return TRUE;
; 716  : }

  0005a	48 8b 4c 24 50	 mov	 rcx, QWORD PTR __$ArrayPad$[rsp]
  0005f	48 33 cc	 xor	 rcx, rsp
  00062	e8 00 00 00 00	 call	 __security_check_cookie
  00067	48 83 c4 68	 add	 rsp, 104		; 00000068H
  0006b	c3		 ret	 0
test_hmac_gosthash ENDP
PUBLIC	__$ArrayPad$
PUBLIC	test_hmac_stribog
;	COMDAT pdata
pdata	SEGMENT
$pdata$test_hmac_stribog DD imagerel $LN4
	DD	imagerel $LN4+114
	DD	imagerel $unwind$test_hmac_stribog
pdata	ENDS
;	COMDAT xdata
xdata	SEGMENT
$unwind$test_hmac_stribog DD 021619H
	DD	0110107H
	DD	imagerel __GSHandlerCheck
	DD	070H
; Function compile flags: /Ogspy
xdata	ENDS
;	COMDAT test_hmac_stribog
_TEXT	SEGMENT
digest$ = 48
__$ArrayPad$ = 112
test_hmac_stribog PROC					; COMDAT

; 726  : {

$LN4:
  00000	48 81 ec 88 00
	00 00		 sub	 rsp, 136		; 00000088H
  00007	48 8b 05 00 00
	00 00		 mov	 rax, QWORD PTR __security_cookie
  0000e	48 33 c4	 xor	 rax, rsp
  00011	48 89 44 24 70	 mov	 QWORD PTR __$ArrayPad$[rsp], rax

; 727  : 	unsigned char digest[STRIBOG_DIGESTSIZE];
; 728  : 	hmac_stribog(hmac_stribog_test_key, 64, hmac_stribog_test_data, (int) strlen (hmac_stribog_test_data), digest);

  00016	41 b9 38 00 00
	00		 mov	 r9d, 56			; 00000038H
  0001c	48 8d 44 24 30	 lea	 rax, QWORD PTR digest$[rsp]
  00021	4c 8d 05 00 00
	00 00		 lea	 r8, OFFSET FLAT:??_C@_0DJ@NGDOEGCI@abcdbcdecdefdefgefghfghighijhijk@
  00028	41 8d 51 08	 lea	 edx, QWORD PTR [r9+8]
  0002c	48 8d 0d 00 00
	00 00		 lea	 rcx, OFFSET FLAT:??_C@_0EB@DIMDKBBC@?$AA?$BB?$CC3DUfw?$II?$JJ?$KK?$LL?L?$NN?n?$PP?$AB?$CDEg?$IJ?$KL?M?o?$AA?$BB?$CC3DUfw@
  00033	48 89 44 24 20	 mov	 QWORD PTR [rsp+32], rax
  00038	e8 00 00 00 00	 call	 hmac_stribog

; 729  : 	if (memcmp (digest, hmac_stribog_test_vectors, STRIBOG_DIGESTSIZE) != 0)

  0003d	48 8d 15 00 00
	00 00		 lea	 rdx, OFFSET FLAT:??_C@_0EB@NCCFEKHJ@t?$IKd?$JE?$LI4?$LNr?$JF?$KC?$DL?$BB?$IG?$BNF?g?$II?$APe?$JI?ST?a?$LCJ5?B?$KC?$IFA?$AI?$IF@
  00044	48 8d 4c 24 30	 lea	 rcx, QWORD PTR digest$[rsp]
  00049	41 b8 40 00 00
	00		 mov	 r8d, 64			; 00000040H
  0004f	e8 00 00 00 00	 call	 memcmp
  00054	33 c9		 xor	 ecx, ecx
  00056	3b c1		 cmp	 eax, ecx
  00058	0f 94 c1	 sete	 cl
  0005b	8b c1		 mov	 eax, ecx

; 730  : 		return FALSE;
; 731  : 
; 732  : 	return TRUE;
; 733  : }

  0005d	48 8b 4c 24 70	 mov	 rcx, QWORD PTR __$ArrayPad$[rsp]
  00062	48 33 cc	 xor	 rcx, rsp
  00065	e8 00 00 00 00	 call	 __security_check_cookie
  0006a	48 81 c4 88 00
	00 00		 add	 rsp, 136		; 00000088H
  00071	c3		 ret	 0
test_hmac_stribog ENDP
PUBLIC	__$ArrayPad$
PUBLIC	test_pkcs5
;	COMDAT pdata
pdata	SEGMENT
$pdata$test_pkcs5 DD imagerel $LN23
	DD	imagerel $LN23+559
	DD	imagerel $unwind$test_pkcs5
pdata	ENDS
;	COMDAT xdata
xdata	SEGMENT
$unwind$test_pkcs5 DD 0b2e19H
	DD	029741cH
	DD	028641cH
	DD	027541cH
	DD	026341cH
	DD	024011cH
	DD	0c015H
	DD	imagerel __GSHandlerCheck
	DD	0110H
; Function compile flags: /Ogspy
xdata	ENDS
;	COMDAT test_pkcs5
_TEXT	SEGMENT
digest$40639 = 64
digest$40631 = 64
digest$40623 = 64
dk$ = 128
__$ArrayPad$ = 272
test_pkcs5 PROC						; COMDAT

; 743  : {

$LN23:
  00000	48 8b c4	 mov	 rax, rsp
  00003	48 89 58 08	 mov	 QWORD PTR [rax+8], rbx
  00007	48 89 68 10	 mov	 QWORD PTR [rax+16], rbp
  0000b	48 89 70 18	 mov	 QWORD PTR [rax+24], rsi
  0000f	48 89 78 20	 mov	 QWORD PTR [rax+32], rdi
  00013	41 54		 push	 r12
  00015	48 81 ec 20 01
	00 00		 sub	 rsp, 288		; 00000120H
  0001c	48 8b 05 00 00
	00 00		 mov	 rax, QWORD PTR __security_cookie
  00023	48 33 c4	 xor	 rax, rsp
  00026	48 89 84 24 10
	01 00 00	 mov	 QWORD PTR __$ArrayPad$[rsp], rax

; 744  : 	char dk[144];
; 745  : 
; 746  : 	/* HMAC-Whirlpool tests */
; 747  : 	if (test_hmac_whirlpool() == FALSE)

  0002e	bf 40 00 00 00	 mov	 edi, 64			; 00000040H
  00033	48 8d 44 24 40	 lea	 rax, QWORD PTR digest$40623[rsp]
  00038	48 8d 2d 00 00
	00 00		 lea	 rbp, OFFSET FLAT:??_C@_0DJ@NGDOEGCI@abcdbcdecdefdefgefghfghighijhijk@
  0003f	8d 77 f8	 lea	 esi, QWORD PTR [rdi-8]
  00042	4c 8d 25 00 00
	00 00		 lea	 r12, OFFSET FLAT:??_C@_0EB@DIMDKBBC@?$AA?$BB?$CC3DUfw?$II?$JJ?$KK?$LL?L?$NN?n?$PP?$AB?$CDEg?$IJ?$KL?M?o?$AA?$BB?$CC3DUfw@
  00049	4c 8b c5	 mov	 r8, rbp
  0004c	8b d7		 mov	 edx, edi
  0004e	44 8b ce	 mov	 r9d, esi
  00051	49 8b cc	 mov	 rcx, r12
  00054	89 7c 24 28	 mov	 DWORD PTR [rsp+40], edi
  00058	48 89 44 24 20	 mov	 QWORD PTR [rsp+32], rax
  0005d	e8 00 00 00 00	 call	 hmac_whirlpool
  00062	48 8d 15 00 00
	00 00		 lea	 rdx, OFFSET FLAT:??_C@_0EB@PHFBDMAI@?$AD?$JB?R?$IA?$AA?$LGb?$LL?$LI?f?$CD?$DO?hl?r?$LC?$IEtLs?$ILX?$AA?$LK?$CI?$BC?mRo?c?$BF?3@
  00069	48 8d 4c 24 40	 lea	 rcx, QWORD PTR digest$40623[rsp]
  0006e	4c 8b c7	 mov	 r8, rdi
  00071	e8 00 00 00 00	 call	 memcmp
  00076	33 db		 xor	 ebx, ebx
  00078	3b c3		 cmp	 eax, ebx
  0007a	74 07		 je	 SHORT $LN7@test_pkcs5
$LN22@test_pkcs5:

; 748  : 		return FALSE;

  0007c	33 c0		 xor	 eax, eax
  0007e	e9 7e 01 00 00	 jmp	 $LN1@test_pkcs5
$LN7@test_pkcs5:

; 749  : 
; 750  : 	/* HMAC-GOSTHASH tests */
; 751  : 	if (test_hmac_gosthash() == FALSE)

  00083	48 8d 44 24 40	 lea	 rax, QWORD PTR digest$40631[rsp]
  00088	44 8b ce	 mov	 r9d, esi
  0008b	4c 8b c5	 mov	 r8, rbp
  0008e	8b d7		 mov	 edx, edi
  00090	49 8b cc	 mov	 rcx, r12
  00093	48 89 44 24 20	 mov	 QWORD PTR [rsp+32], rax
  00098	e8 00 00 00 00	 call	 hmac_gosthash
  0009d	48 8d 15 00 00
	00 00		 lea	 rdx, OFFSET FLAT:??_C@_0CB@IGIOKONH@R5?$LH?$BHV?$LIu?$CB?J?iR?$JL?$CB?$JH?$DOmNT?$BC?$PMap?$EA?zFL?w$?$JN?$CI?$NO?$BN@
  000a4	48 8d 4c 24 40	 lea	 rcx, QWORD PTR digest$40631[rsp]
  000a9	41 b8 20 00 00
	00		 mov	 r8d, 32			; 00000020H
  000af	e8 00 00 00 00	 call	 memcmp
  000b4	3b c3		 cmp	 eax, ebx

; 752  : 		return FALSE;

  000b6	75 c4		 jne	 SHORT $LN22@test_pkcs5

; 753  : 
; 754  : 	/* HMAC-Stribog tests */
; 755  : 	if (test_hmac_stribog() == FALSE)

  000b8	48 8d 44 24 40	 lea	 rax, QWORD PTR digest$40639[rsp]
  000bd	44 8b ce	 mov	 r9d, esi
  000c0	4c 8b c5	 mov	 r8, rbp
  000c3	8b d7		 mov	 edx, edi
  000c5	49 8b cc	 mov	 rcx, r12
  000c8	48 89 44 24 20	 mov	 QWORD PTR [rsp+32], rax
  000cd	e8 00 00 00 00	 call	 hmac_stribog
  000d2	48 8d 15 00 00
	00 00		 lea	 rdx, OFFSET FLAT:??_C@_0EB@NCCFEKHJ@t?$IKd?$JE?$LI4?$LNr?$JF?$KC?$DL?$BB?$IG?$BNF?g?$II?$APe?$JI?ST?a?$LCJ5?B?$KC?$IFA?$AI?$IF@
  000d9	48 8d 4c 24 40	 lea	 rcx, QWORD PTR digest$40639[rsp]
  000de	4c 8b c7	 mov	 r8, rdi
  000e1	e8 00 00 00 00	 call	 memcmp
  000e6	3b c3		 cmp	 eax, ebx

; 756  : 		return FALSE;

  000e8	75 92		 jne	 SHORT $LN22@test_pkcs5

; 757  : 
; 758  : #ifndef GST_WINDOWS_BOOT
; 759  : 	/* PKCS-5 test 1 with HMAC-Whirlpool used as the PRF */
; 760  : 	derive_key_whirlpool ("password", 8, "\x12\x34\x56\x78", 4, 5, dk, 4);

  000ea	be 04 00 00 00	 mov	 esi, 4
  000ef	48 8d 84 24 80
	00 00 00	 lea	 rax, QWORD PTR dk$[rsp]
  000f7	4c 8d 25 00 00
	00 00		 lea	 r12, OFFSET FLAT:??_C@_04NDGDACAK@?$BC4Vx?$AA@FNODOBFM@
  000fe	89 74 24 30	 mov	 DWORD PTR [rsp+48], esi
  00102	48 89 44 24 28	 mov	 QWORD PTR [rsp+40], rax
  00107	8d 6e 01	 lea	 ebp, QWORD PTR [rsi+1]
  0010a	8d 56 04	 lea	 edx, QWORD PTR [rsi+4]
  0010d	48 8d 0d 00 00
	00 00		 lea	 rcx, OFFSET FLAT:??_C@_08NLHBPEGP@password?$AA@FNODOBFM@
  00114	44 8b ce	 mov	 r9d, esi
  00117	4d 8b c4	 mov	 r8, r12
  0011a	89 6c 24 20	 mov	 DWORD PTR [rsp+32], ebp
  0011e	e8 00 00 00 00	 call	 derive_key_whirlpool

; 761  : 	if (memcmp (dk, "\x50\x7c\x36\x6f", 4) != 0)

  00123	44 8b 9c 24 80
	00 00 00	 mov	 r11d, DWORD PTR dk$[rsp]
  0012b	44 3b 1d 00 00
	00 00		 cmp	 r11d, DWORD PTR ??_C@_04OCKEDGEH@P?$HM6o?$AA@FNODOBFM@

; 762  : 		return FALSE;

  00132	0f 85 44 ff ff
	ff		 jne	 $LN22@test_pkcs5

; 763  : 
; 764  : 	/* PKCS-5 test 2 with HMAC-Whirlpool used as the PRF (derives a key longer than the underlying hash) */
; 765  : 	derive_key_whirlpool ("password", 8, "\x12\x34\x56\x78", 4, 5, dk, 96);

  00138	48 8d 84 24 80
	00 00 00	 lea	 rax, QWORD PTR dk$[rsp]
  00140	8d 7e 5c	 lea	 edi, QWORD PTR [rsi+92]
  00143	8d 56 04	 lea	 edx, QWORD PTR [rsi+4]
  00146	89 7c 24 30	 mov	 DWORD PTR [rsp+48], edi
  0014a	48 89 44 24 28	 mov	 QWORD PTR [rsp+40], rax
  0014f	48 8d 0d 00 00
	00 00		 lea	 rcx, OFFSET FLAT:??_C@_08NLHBPEGP@password?$AA@FNODOBFM@
  00156	44 8b ce	 mov	 r9d, esi
  00159	4d 8b c4	 mov	 r8, r12
  0015c	89 6c 24 20	 mov	 DWORD PTR [rsp+32], ebp
  00160	e8 00 00 00 00	 call	 derive_key_whirlpool

; 766  : 	if (memcmp (dk, "\x50\x7c\x36\x6f\xee\x10\x2e\x9a\xe2\x8a\xd5\x82\x72\x7d\x27\x0f\xe8\x4d\x7f\x68\x7a\xcf\xb5\xe7\x43\x67\xaa\x98\x93\x52\x2b\x09\x6e\x42\xdf\x2c\x59\x4a\x91\x6d\x7e\x10\xae\xb2\x1a\x89\x8f\xb9\x8f\xe6\x31\xa9\xd8\x9f\x98\x26\xf4\xda\xcd\x7d\x65\x65\xde\x10\x95\x91\xb4\x84\x26\xae\x43\xa1\x00\x5b\x1e\xb8\x38\x97\xa4\x1e\x4b\xd2\x65\x64\xbc\xfa\x1f\x35\x85\xdb\x4f\x97\x65\x6f\xbd\x24", 96) != 0)

  00165	48 8d 15 00 00
	00 00		 lea	 rdx, OFFSET FLAT:??_C@_0GB@BHABHNEI@P?$HM6o?n?$BA?4?$JK?b?$IK?U?$ICr?$HN?8?$AP?hM?$HPhz?O?$LF?gCg?$KK?$JI?$JDR?$CL?7@FNODOBFM@
  0016c	48 8d 8c 24 80
	00 00 00	 lea	 rcx, QWORD PTR dk$[rsp]
  00174	4c 8b c7	 mov	 r8, rdi
  00177	e8 00 00 00 00	 call	 memcmp
  0017c	3b c3		 cmp	 eax, ebx

; 767  : 		return FALSE;

  0017e	0f 85 f8 fe ff
	ff		 jne	 $LN22@test_pkcs5

; 768  : 
; 769  : 	/* PKCS-5 test 1 with HMAC-GostHash used as the PRF */
; 770  : 	derive_key_gosthash ("password", 8, "\x12\x34\x56\x78", 4, 5, dk, 4);

  00184	48 8d 84 24 80
	00 00 00	 lea	 rax, QWORD PTR dk$[rsp]
  0018c	89 74 24 30	 mov	 DWORD PTR [rsp+48], esi
  00190	8d 56 04	 lea	 edx, QWORD PTR [rsi+4]
  00193	48 89 44 24 28	 mov	 QWORD PTR [rsp+40], rax
  00198	48 8d 0d 00 00
	00 00		 lea	 rcx, OFFSET FLAT:??_C@_08NLHBPEGP@password?$AA@FNODOBFM@
  0019f	44 8b ce	 mov	 r9d, esi
  001a2	4d 8b c4	 mov	 r8, r12
  001a5	89 6c 24 20	 mov	 DWORD PTR [rsp+32], ebp
  001a9	e8 00 00 00 00	 call	 derive_key_gosthash

; 771  : 	if (memcmp (dk, "\x7d\x53\xe0\x7e", 4) != 0)

  001ae	44 8b 9c 24 80
	00 00 00	 mov	 r11d, DWORD PTR dk$[rsp]
  001b6	44 3b 1d 00 00
	00 00		 cmp	 r11d, DWORD PTR ??_C@_04PJHJAIAI@?$HNS?$OA?$HO?$AA@FNODOBFM@

; 772  : 		return FALSE;

  001bd	0f 85 b9 fe ff
	ff		 jne	 $LN22@test_pkcs5

; 773  : #endif
; 774  : 
; 775  : 	/* PKCS-5 test 1 with HMAC-Stribog used as the PRF */
; 776  : 	derive_key_stribog ("password", 8, "\x12\x34\x56\x78", 4, 5, dk, 4);

  001c3	48 8d 84 24 80
	00 00 00	 lea	 rax, QWORD PTR dk$[rsp]
  001cb	89 74 24 30	 mov	 DWORD PTR [rsp+48], esi
  001cf	8d 56 04	 lea	 edx, QWORD PTR [rsi+4]
  001d2	48 89 44 24 28	 mov	 QWORD PTR [rsp+40], rax
  001d7	48 8d 0d 00 00
	00 00		 lea	 rcx, OFFSET FLAT:??_C@_08NLHBPEGP@password?$AA@FNODOBFM@
  001de	44 8b ce	 mov	 r9d, esi
  001e1	4d 8b c4	 mov	 r8, r12
  001e4	89 6c 24 20	 mov	 DWORD PTR [rsp+32], ebp
  001e8	e8 00 00 00 00	 call	 derive_key_stribog

; 777  : 	if (memcmp (dk, "\xc7\x13\x56\xb6", 4) != 0)

  001ed	44 8b 9c 24 80
	00 00 00	 mov	 r11d, DWORD PTR dk$[rsp]
  001f5	44 3b 1d 00 00
	00 00		 cmp	 r11d, DWORD PTR ??_C@_04PKOKJPGE@?G?$BDV?$LG?$AA@FNODOBFM@
  001fc	0f 94 c3	 sete	 bl
  001ff	8b c3		 mov	 eax, ebx
$LN1@test_pkcs5:

; 778  : 		return FALSE;
; 779  : 
; 780  : 	return TRUE;
; 781  : }

  00201	48 8b 8c 24 10
	01 00 00	 mov	 rcx, QWORD PTR __$ArrayPad$[rsp]
  00209	48 33 cc	 xor	 rcx, rsp
  0020c	e8 00 00 00 00	 call	 __security_check_cookie
  00211	4c 8d 9c 24 20
	01 00 00	 lea	 r11, QWORD PTR [rsp+288]
  00219	49 8b 5b 10	 mov	 rbx, QWORD PTR [r11+16]
  0021d	49 8b 6b 18	 mov	 rbp, QWORD PTR [r11+24]
  00221	49 8b 73 20	 mov	 rsi, QWORD PTR [r11+32]
  00225	49 8b 7b 28	 mov	 rdi, QWORD PTR [r11+40]
  00229	49 8b e3	 mov	 rsp, r11
  0022c	41 5c		 pop	 r12
  0022e	c3		 ret	 0
test_pkcs5 ENDP
PUBLIC	__$ArrayPad$
PUBLIC	TestLegacySectorBufEncryption
;	COMDAT pdata
; File c:\users\alexis\desktop\sources_gostcrypt_windows_1.3.1_commented\sources_gostcrypt_windows_1.3.1\sources_gostcrypt_windows_1.3.1\common\crypto.c
pdata	SEGMENT
$pdata$TestLegacySectorBufEncryption DD imagerel $LN66
	DD	imagerel $LN66+514
	DD	imagerel $unwind$TestLegacySectorBufEncryption
pdata	ENDS
;	COMDAT xdata
xdata	SEGMENT
$unwind$TestLegacySectorBufEncryption DD 092919H
	DD	0987417H
	DD	0973417H
	DD	0920117H
	DD	0d00ee010H
	DD	0c00cH
	DD	imagerel __GSHandlerCheck
	DD	0480H
; Function compile flags: /Ogspy
; File c:\users\alexis\desktop\sources_gostcrypt_windows_1.3.1_commented\sources_gostcrypt_windows_1.3.1\sources_gostcrypt_windows_1.3.1\common\tests.c
xdata	ENDS
;	COMDAT TestLegacySectorBufEncryption
_TEXT	SEGMENT
unitNo$ = 48
name$ = 64
buf$ = 128
__$ArrayPad$ = 1152
ci$ = 1200
TestLegacySectorBufEncryption PROC			; COMDAT

; 546  : {

$LN66:
  00000	48 89 5c 24 10	 mov	 QWORD PTR [rsp+16], rbx
  00005	48 89 7c 24 18	 mov	 QWORD PTR [rsp+24], rdi
  0000a	41 54		 push	 r12
  0000c	41 55		 push	 r13
  0000e	41 56		 push	 r14
  00010	48 81 ec 90 04
	00 00		 sub	 rsp, 1168		; 00000490H
  00017	48 8b 05 00 00
	00 00		 mov	 rax, QWORD PTR __security_cookie
  0001e	48 33 c4	 xor	 rax, rsp
  00021	48 89 84 24 80
	04 00 00	 mov	 QWORD PTR __$ArrayPad$[rsp], rax

; 547  : 	unsigned char buf [ENCRYPTION_DATA_UNIT_SIZE * 2];
; 548  : 	unsigned int i;
; 549  : 	char name[64];
; 550  : 	unsigned __int32 crc;
; 551  : 	UINT64_STRUCT unitNo;
; 552  : 	uint32 nbrUnits;
; 553  : 	int blockSize;
; 554  : 	int nTestsPerformed = 0;
; 555  : 
; 556  : 	unitNo.Value = 0x0234567890ABCDEFull;

  00029	48 b8 ef cd ab
	90 78 56 34 02	 mov	 rax, 158846962688052719	; 0234567890abcdefH
  00033	48 8b d9	 mov	 rbx, rcx
  00036	33 ff		 xor	 edi, edi
  00038	48 89 44 24 30	 mov	 QWORD PTR unitNo$[rsp], rax

; 557  : 	nbrUnits = sizeof (buf) / ENCRYPTION_DATA_UNIT_SIZE;
; 558  : 
; 559  : 	for (i = 0; i < sizeof (buf); i++)
; 560  : 		buf[i] = (unsigned char) i;

  0003d	48 8d 8c 24 80
	00 00 00	 lea	 rcx, QWORD PTR buf$[rsp]
  00045	41 bc 00 04 00
	00		 mov	 r12d, 1024		; 00000400H
  0004b	33 c0		 xor	 eax, eax
$LL19@TestLegacy:
  0004d	88 01		 mov	 BYTE PTR [rcx], al
  0004f	ff c0		 inc	 eax
  00051	48 ff c1	 inc	 rcx
  00054	41 3b c4	 cmp	 eax, r12d
  00057	72 f4		 jb	 SHORT $LL19@TestLegacy

; 561  : 
; 562  : 	for (i = 0; i < sizeof (ci->k2); i++)

  00059	33 c0		 xor	 eax, eax
  0005b	48 8d 8b 50 1d
	00 00		 lea	 rcx, QWORD PTR [rbx+7504]
$LL16@TestLegacy:

; 563  : 		ci->k2[i] = (unsigned char) i;

  00062	88 01		 mov	 BYTE PTR [rcx], al
  00064	ff c0		 inc	 eax
  00066	48 ff c1	 inc	 rcx
  00069	3d 00 01 00 00	 cmp	 eax, 256		; 00000100H
  0006e	72 f2		 jb	 SHORT $LL16@TestLegacy

; 564  : 
; 565  : 	// Test all EAs
; 566  : 	for (ci->ea = EAGetFirst (); ci->ea != 0; ci->ea = EAGetNext (ci->ea))

  00070	c7 03 01 00 00
	00		 mov	 DWORD PTR [rbx], 1
  00076	4c 8d 35 00 00
	00 00		 lea	 r14, OFFSET FLAT:EncryptionAlgorithms
  0007d	41 bd 26 4c 0b
	b7		 mov	 r13d, -1223996378	; b70b4c26H
$LL13@TestLegacy:

; 567  : 	{
; 568  : 		EAGetName (name, ci->ea);

  00083	8b 13		 mov	 edx, DWORD PTR [rbx]
  00085	48 8d 4c 24 40	 lea	 rcx, QWORD PTR name$[rsp]
  0008a	e8 00 00 00 00	 call	 EAGetName

; 569  : 		blockSize = CipherGetBlockSize (EAGetFirstCipher (ci->ea));
; 570  : 
; 571  : 		if (EAInit (ci->ea, (unsigned char *)buf, ci->ks) == ERR_CIPHER_INIT_FAILURE)

  0008f	8b 0b		 mov	 ecx, DWORD PTR [rbx]
  00091	85 c9		 test	 ecx, ecx
  00093	0f 84 3d 01 00
	00		 je	 $LN58@TestLegacy
  00099	4c 8d 43 08	 lea	 r8, QWORD PTR [rbx+8]
  0009d	48 8d 94 24 80
	00 00 00	 lea	 rdx, QWORD PTR buf$[rsp]
  000a5	e8 00 00 00 00	 call	 EAInit
  000aa	83 f8 11	 cmp	 eax, 17
  000ad	0f 84 23 01 00
	00		 je	 $LN58@TestLegacy

; 573  : 
; 574  : 		// Test all deprecated modes of operation
; 575  : 		for (ci->mode = EAGetFirstMode (ci->ea);
; 576  : 			ci->mode != 0;
; 577  : 			ci->mode = EAGetNextMode (ci->ea, ci->mode))

  000b3	48 63 03	 movsxd	 rax, DWORD PTR [rbx]
  000b6	48 c1 e0 05	 shl	 rax, 5
  000ba	42 8b 44 30 10	 mov	 eax, DWORD PTR [rax+r14+16]
  000bf	e9 e3 00 00 00	 jmp	 $LN65@TestLegacy
$LL9@TestLegacy:

; 578  : 		{
; 579  : 			// Skip modes that are not deprecated
; 580  : 			if (ci->mode == XTS || ci->mode == XTS8)

  000c4	83 7b 04 01	 cmp	 DWORD PTR [rbx+4], 1
  000c8	0f 84 cf 00 00
	00		 je	 $LN8@TestLegacy
  000ce	83 7b 04 02	 cmp	 DWORD PTR [rbx+4], 2
  000d2	0f 84 c5 00 00
	00		 je	 $LN8@TestLegacy

; 581  : 				continue;
; 582  : 
; 583  : 			EncryptDataUnits (buf, &unitNo, nbrUnits, ci);

  000d8	4c 8d 44 24 30	 lea	 r8, QWORD PTR unitNo$[rsp]
  000dd	48 8d 94 24 80
	00 00 00	 lea	 rdx, QWORD PTR buf$[rsp]
  000e5	41 b9 02 00 00
	00		 mov	 r9d, 2
  000eb	33 c9		 xor	 ecx, ecx
  000ed	48 89 5c 24 20	 mov	 QWORD PTR [rsp+32], rbx
  000f2	e8 00 00 00 00	 call	 EncryptionThreadPoolDoWork

; 584  : 			crc = GetCrc32 (buf, sizeof (buf));

  000f7	48 8d 8c 24 80
	00 00 00	 lea	 rcx, QWORD PTR buf$[rsp]
  000ff	41 8b d4	 mov	 edx, r12d
  00102	e8 00 00 00 00	 call	 GetCrc32

; 585  : 
; 586  : 			if (crc == 0xb70b4c26)

  00107	41 3b c5	 cmp	 eax, r13d
  0010a	0f 84 c6 00 00
	00		 je	 $LN58@TestLegacy

; 587  : 				return FALSE;
; 588  : 
; 589  : 			DecryptDataUnits (buf, &unitNo, nbrUnits, ci);

  00110	41 b9 02 00 00
	00		 mov	 r9d, 2
  00116	4c 8d 44 24 30	 lea	 r8, QWORD PTR unitNo$[rsp]
  0011b	48 8d 94 24 80
	00 00 00	 lea	 rdx, QWORD PTR buf$[rsp]
  00123	41 8d 49 ff	 lea	 ecx, QWORD PTR [r9-1]
  00127	48 89 5c 24 20	 mov	 QWORD PTR [rsp+32], rbx
  0012c	e8 00 00 00 00	 call	 EncryptionThreadPoolDoWork

; 590  : 
; 591  : 			if (GetCrc32 (buf, sizeof (buf)) != 0xb70b4c26)

  00131	48 8d 8c 24 80
	00 00 00	 lea	 rcx, QWORD PTR buf$[rsp]
  00139	41 8b d4	 mov	 edx, r12d
  0013c	e8 00 00 00 00	 call	 GetCrc32
  00141	41 3b c5	 cmp	 eax, r13d
  00144	0f 85 8c 00 00
	00		 jne	 $LN58@TestLegacy

; 592  : 				return FALSE;
; 593  : 
; 594  : 			nTestsPerformed++;
; 595  : 
; 596  : 			EncryptBuffer (buf, sizeof (buf), ci);

  0014a	48 8d 8c 24 80
	00 00 00	 lea	 rcx, QWORD PTR buf$[rsp]
  00152	4c 8b c3	 mov	 r8, rbx
  00155	49 8b d4	 mov	 rdx, r12
  00158	e8 00 00 00 00	 call	 EncryptBuffer

; 597  : 			crc = GetCrc32 (buf, sizeof (buf));

  0015d	48 8d 8c 24 80
	00 00 00	 lea	 rcx, QWORD PTR buf$[rsp]
  00165	41 8b d4	 mov	 edx, r12d
  00168	e8 00 00 00 00	 call	 GetCrc32

; 598  : 
; 599  : 			if (crc == 0xb70b4c26)

  0016d	41 3b c5	 cmp	 eax, r13d
  00170	74 64		 je	 SHORT $LN58@TestLegacy

; 600  : 				return FALSE;
; 601  : 
; 602  : 			DecryptBuffer (buf, sizeof (buf), ci);

  00172	48 8d 8c 24 80
	00 00 00	 lea	 rcx, QWORD PTR buf$[rsp]
  0017a	4c 8b c3	 mov	 r8, rbx
  0017d	49 8b d4	 mov	 rdx, r12
  00180	e8 00 00 00 00	 call	 DecryptBuffer

; 603  : 
; 604  : 			if (GetCrc32 (buf, sizeof (buf)) != 0xb70b4c26)

  00185	48 8d 8c 24 80
	00 00 00	 lea	 rcx, QWORD PTR buf$[rsp]
  0018d	41 8b d4	 mov	 edx, r12d
  00190	e8 00 00 00 00	 call	 GetCrc32
  00195	41 3b c5	 cmp	 eax, r13d
  00198	75 3c		 jne	 SHORT $LN58@TestLegacy

; 605  : 				return FALSE;
; 606  : 
; 607  : 			nTestsPerformed++;

  0019a	83 c7 02	 add	 edi, 2
$LN8@TestLegacy:

; 573  : 
; 574  : 		// Test all deprecated modes of operation
; 575  : 		for (ci->mode = EAGetFirstMode (ci->ea);
; 576  : 			ci->mode != 0;
; 577  : 			ci->mode = EAGetNextMode (ci->ea, ci->mode))

  0019d	8b 53 04	 mov	 edx, DWORD PTR [rbx+4]
  001a0	8b 0b		 mov	 ecx, DWORD PTR [rbx]
  001a2	e8 00 00 00 00	 call	 EAGetNextMode
$LN65@TestLegacy:
  001a7	89 43 04	 mov	 DWORD PTR [rbx+4], eax
  001aa	85 c0		 test	 eax, eax
  001ac	0f 85 12 ff ff
	ff		 jne	 $LL9@TestLegacy
  001b2	8b 13		 mov	 edx, DWORD PTR [rbx]
  001b4	ff c2		 inc	 edx
  001b6	48 63 c2	 movsxd	 rax, edx
  001b9	48 c1 e0 05	 shl	 rax, 5
  001bd	42 8b 04 30	 mov	 eax, DWORD PTR [rax+r14]
  001c1	f7 d8		 neg	 eax
  001c3	1b c9		 sbb	 ecx, ecx
  001c5	23 ca		 and	 ecx, edx
  001c7	89 0b		 mov	 DWORD PTR [rbx], ecx
  001c9	0f 85 b4 fe ff
	ff		 jne	 $LL13@TestLegacy

; 608  : 		}
; 609  : 	}
; 610  : 	return 1;//(nTestsPerformed == 86);

  001cf	b8 01 00 00 00	 mov	 eax, 1
  001d4	eb 02		 jmp	 SHORT $LN20@TestLegacy
$LN58@TestLegacy:

; 572  : 			return FALSE;

  001d6	33 c0		 xor	 eax, eax
$LN20@TestLegacy:

; 611  : }

  001d8	48 8b 8c 24 80
	04 00 00	 mov	 rcx, QWORD PTR __$ArrayPad$[rsp]
  001e0	48 33 cc	 xor	 rcx, rsp
  001e3	e8 00 00 00 00	 call	 __security_check_cookie
  001e8	4c 8d 9c 24 90
	04 00 00	 lea	 r11, QWORD PTR [rsp+1168]
  001f0	49 8b 5b 28	 mov	 rbx, QWORD PTR [r11+40]
  001f4	49 8b 7b 30	 mov	 rdi, QWORD PTR [r11+48]
  001f8	49 8b e3	 mov	 rsp, r11
  001fb	41 5e		 pop	 r14
  001fd	41 5d		 pop	 r13
  001ff	41 5c		 pop	 r12
  00201	c3		 ret	 0
TestLegacySectorBufEncryption ENDP
_TEXT	ENDS
PUBLIC	__$ArrayPad$
PUBLIC	TestSectorBufEncryption
;	COMDAT pdata
; File c:\users\alexis\desktop\sources_gostcrypt_windows_1.3.1_commented\sources_gostcrypt_windows_1.3.1\sources_gostcrypt_windows_1.3.1\common\crypto.c
pdata	SEGMENT
$pdata$TestSectorBufEncryption DD imagerel $LN139
	DD	imagerel $LN139+1080
	DD	imagerel $unwind$TestSectorBufEncryption
pdata	ENDS
;	COMDAT xdata
xdata	SEGMENT
$unwind$TestSectorBufEncryption DD 0d3119H
	DD	011b641fH
	DD	011a541fH
	DD	0119341fH
	DD	0112011fH
	DD	0e016f018H
	DD	0c012d014H
	DD	07010H
	DD	imagerel __GSHandlerCheck
	DD	0880H
; Function compile flags: /Ogspy
; File c:\users\alexis\desktop\sources_gostcrypt_windows_1.3.1_commented\sources_gostcrypt_windows_1.3.1\sources_gostcrypt_windows_1.3.1\common\tests.c
xdata	ENDS
;	COMDAT TestSectorBufEncryption
_TEXT	SEGMENT
unitNo$ = 48
name$ = 64
buf$ = 128
__$ArrayPad$ = 2176
ci$ = 2240
TestSectorBufEncryption PROC				; COMDAT

; 356  : {

$LN139:
  00000	48 89 5c 24 10	 mov	 QWORD PTR [rsp+16], rbx
  00005	48 89 6c 24 18	 mov	 QWORD PTR [rsp+24], rbp
  0000a	48 89 74 24 20	 mov	 QWORD PTR [rsp+32], rsi
  0000f	57		 push	 rdi
  00010	41 54		 push	 r12
  00012	41 55		 push	 r13
  00014	41 56		 push	 r14
  00016	41 57		 push	 r15
  00018	48 81 ec 90 08
	00 00		 sub	 rsp, 2192		; 00000890H
  0001f	48 8b 05 00 00
	00 00		 mov	 rax, QWORD PTR __security_cookie
  00026	48 33 c4	 xor	 rax, rsp
  00029	48 89 84 24 80
	08 00 00	 mov	 QWORD PTR __$ArrayPad$[rsp], rax
  00031	48 8b d9	 mov	 rbx, rcx

; 357  : 	unsigned char buf[ENCRYPTION_DATA_UNIT_SIZE * 4];
; 358  : 	unsigned int i;
; 359  : 	char name[64];
; 360  : 	unsigned __int32 crc;
; 361  : 	UINT64_STRUCT unitNo;
; 362  : 	uint32 nbrUnits;
; 363  : 	unsigned __int64 writeOffset;
; 364  : 	int testCase = 0;

  00034	45 33 e4	 xor	 r12d, r12d

; 365  : 	int nTestsPerformed = 0;

  00037	33 ed		 xor	 ebp, ebp

; 366  : 
; 367  : 	static unsigned char key1[] =
; 368  : 	{
; 369  : 		0x27, 0x18, 0x28, 0x18, 0x28, 0x45, 0x90, 0x45, 0x23, 0x53, 0x60, 0x28, 0x74, 0x71, 0x35, 0x26, 0x62, 0x49, 0x77, 0x57, 0x24, 0x70, 0x93, 0x69, 0x99, 0x59, 0x57, 0x49, 0x66, 0x96, 0x76, 0x27,
; 370  : 		0x31, 0x41, 0x59, 0x26, 0x53, 0x58, 0x97, 0x93, 0x23, 0x84, 0x62, 0x64, 0x33, 0x83, 0x27, 0x95, 0x02, 0x88, 0x41, 0x97, 0x16, 0x93, 0x99, 0x37, 0x51, 0x05, 0x82, 0x09, 0x74, 0x94, 0x45, 0x92,
; 371  : 		0x00, 0x00, 0x00, 0xff, 0xff, 0xff, 0xff, 0xff, 0x00, 0x00, 0x00, 0x00, 0x00, 0x01, 0x02, 0x03, 0x04, 0x05, 0x06, 0x07, 0x08, 0x09, 0x0a, 0x0b, 0x0c, 0x0d, 0x0e, 0x0f, 0x10, 0x11, 0x12, 0x13
; 372  : 	};
; 373  : 
; 374  : 	if (!TestLegacySectorBufEncryption(ci))

  00039	e8 00 00 00 00	 call	 TestLegacySectorBufEncryption
  0003e	85 c0		 test	 eax, eax
  00040	75 07		 jne	 SHORT $LN52@TestSector
$LN107@TestSector:

; 375  : 		return FALSE;

  00042	33 c0		 xor	 eax, eax
  00044	e9 be 03 00 00	 jmp	 $LN53@TestSector
$LN52@TestSector:

; 376  : 
; 377  : 
; 378  : 	/* Encryption/decryption of data units (typically, volume data sectors) */
; 379  : 
; 380  : 	nbrUnits = sizeof (buf) / ENCRYPTION_DATA_UNIT_SIZE;
; 381  : 
; 382  : 	/* The buffer can accommodate 4 data units and we'll test 4 cases by "scrolling". The data unit 0xFFFFFFFFFF
; 383  : 	will "move" from the start of the buffer to its end. For a 512-byte data unit, the byte offset 562949953420800
; 384  : 	corresponds to the data unit 0xFFFFFFFFFF. */
; 385  : 	for (writeOffset = 562949953420800ULL;
; 386  : 		writeOffset > 562949953420800ULL - nbrUnits * ENCRYPTION_DATA_UNIT_SIZE;
; 387  : 		writeOffset -= ENCRYPTION_DATA_UNIT_SIZE)

  00049	49 bd 00 fe ff
	ff ff ff 01 00	 mov	 r13, 562949953420800	; 0001fffffffffe00H
  00053	41 be 01 00 00
	00		 mov	 r14d, 1
  00059	48 8d 35 00 00
	00 00		 lea	 rsi, OFFSET FLAT:EncryptionAlgorithms
  00060	41 bf 58 dd 5e
	9f		 mov	 r15d, -1621172904	; 9f5edd58H
$LL51@TestSector:

; 388  : 	{
; 389  : 		unitNo.Value = writeOffset / ENCRYPTION_DATA_UNIT_SIZE;

  00066	49 8b c5	 mov	 rax, r13

; 390  : 
; 391  : 		// Test all EAs that support this mode of operation
; 392  : 		for (ci->ea = EAGetFirst(); ci->ea != 0; ci->ea = EAGetNext(ci->ea))

  00069	44 89 33	 mov	 DWORD PTR [rbx], r14d
  0006c	48 c1 e8 09	 shr	 rax, 9
  00070	48 89 44 24 30	 mov	 QWORD PTR unitNo$[rsp], rax
$LL48@TestSector:

; 393  : 		{
; 394  : 			for (ci->mode = EAGetFirstMode(ci->ea); ci->mode != 0; ci->mode = EAGetNextMode(ci->ea, ci->mode))

  00075	48 63 3b	 movsxd	 rdi, DWORD PTR [rbx]
  00078	48 8b c7	 mov	 rax, rdi
  0007b	48 c1 e0 05	 shl	 rax, 5
  0007f	8b 44 30 10	 mov	 eax, DWORD PTR [rax+rsi+16]
  00083	89 43 04	 mov	 DWORD PTR [rbx+4], eax
  00086	85 c0		 test	 eax, eax
  00088	0f 84 ae 01 00
	00		 je	 $LN47@TestSector
$LL45@TestSector:

; 395  : 			{
; 396  : 				if (!EAIsModeSupported(ci->ea, ci->mode))

  0008e	8b 53 04	 mov	 edx, DWORD PTR [rbx+4]
  00091	8b cf		 mov	 ecx, edi
  00093	e8 00 00 00 00	 call	 EAIsModeSupported
  00098	85 c0		 test	 eax, eax
  0009a	0f 84 7e 01 00
	00		 je	 $LN44@TestSector

; 397  : 					continue;
; 398  : 
; 399  : 				EAGetName(name, ci->ea);

  000a0	48 8d 4c 24 40	 lea	 rcx, QWORD PTR name$[rsp]
  000a5	8b d7		 mov	 edx, edi
  000a7	e8 00 00 00 00	 call	 EAGetName

; 400  : 
; 401  : 				if (EAInit(ci->ea, key1, ci->ks) != ERR_SUCCESS)

  000ac	8b 0b		 mov	 ecx, DWORD PTR [rbx]
  000ae	85 c9		 test	 ecx, ecx
  000b0	74 90		 je	 SHORT $LN107@TestSector
  000b2	4c 8d 43 08	 lea	 r8, QWORD PTR [rbx+8]
  000b6	48 8d 15 00 00
	00 00		 lea	 rdx, OFFSET FLAT:?key1@?1??TestSectorBufEncryption@@9@9
  000bd	e8 00 00 00 00	 call	 EAInit
  000c2	85 c0		 test	 eax, eax
  000c4	0f 85 78 ff ff
	ff		 jne	 $LN107@TestSector

; 402  : 					return FALSE;
; 403  : 
; 404  : 				for (i = 0; i < sizeof (ci->k2); i++)

  000ca	48 8d 8b 50 1d
	00 00		 lea	 rcx, QWORD PTR [rbx+7504]
  000d1	48 8b d1	 mov	 rdx, rcx
$LL40@TestSector:

; 405  : 					ci->k2[i] = (unsigned char)i;

  000d4	88 02		 mov	 BYTE PTR [rdx], al
  000d6	41 03 c6	 add	 eax, r14d
  000d9	49 03 d6	 add	 rdx, r14
  000dc	3d 00 01 00 00	 cmp	 eax, 256		; 00000100H
  000e1	72 f1		 jb	 SHORT $LL40@TestSector

; 406  : 
; 407  : 				memcpy(&ci->k2, XTS_vectors[XTS_TEST_COUNT - 1].key2, sizeof (XTS_vectors[XTS_TEST_COUNT - 1].key2));

  000e3	48 8d 15 50 11
	00 00		 lea	 rdx, OFFSET FLAT:XTS_vectors+4432
  000ea	41 b8 20 00 00
	00		 mov	 r8d, 32			; 00000020H
  000f0	e8 00 00 00 00	 call	 memcpy

; 408  : 
; 409  : 				if (!EAInitMode(ci))

  000f5	48 8b cb	 mov	 rcx, rbx
  000f8	e8 00 00 00 00	 call	 EAInitMode
  000fd	85 c0		 test	 eax, eax
  000ff	0f 84 3d ff ff
	ff		 je	 $LN107@TestSector

; 410  : 					return FALSE;
; 411  : 
; 412  : 				// Each data unit will contain the same plaintext
; 413  : 				for (i = 0; i < nbrUnits; i++)
; 414  : 				{
; 415  : 					memcpy((unsigned char *)buf + i * ENCRYPTION_DATA_UNIT_SIZE,
; 416  : 						XTS_vectors[XTS_TEST_COUNT - 1].plaintext,
; 417  : 						ENCRYPTION_DATA_UNIT_SIZE);

  00105	48 8d 8c 24 80
	00 00 00	 lea	 rcx, QWORD PTR buf$[rsp]
  0010d	48 8d 15 7c 11
	00 00		 lea	 rdx, OFFSET FLAT:XTS_vectors+4476
  00114	41 b8 00 02 00
	00		 mov	 r8d, 512		; 00000200H
  0011a	e8 00 00 00 00	 call	 memcpy
  0011f	48 8d bc 24 80
	02 00 00	 lea	 rdi, QWORD PTR buf$[rsp+512]
  00127	48 8d b4 24 80
	00 00 00	 lea	 rsi, QWORD PTR buf$[rsp]
  0012f	b9 c0 00 00 00	 mov	 ecx, 192		; 000000c0H

; 418  : 				}
; 419  : 
; 420  : 				EncryptDataUnits(buf, &unitNo, nbrUnits, ci);

  00134	4c 8d 44 24 30	 lea	 r8, QWORD PTR unitNo$[rsp]
  00139	48 8d 94 24 80
	00 00 00	 lea	 rdx, QWORD PTR buf$[rsp]
  00141	f3 48 a5	 rep movsq
  00144	41 b9 04 00 00
	00		 mov	 r9d, 4
  0014a	33 c9		 xor	 ecx, ecx
  0014c	48 89 5c 24 20	 mov	 QWORD PTR [rsp+32], rbx
  00151	e8 00 00 00 00	 call	 EncryptionThreadPoolDoWork

; 421  : 
; 422  : 				crc = GetCrc32(buf, sizeof (buf));

  00156	48 8d 8c 24 80
	00 00 00	 lea	 rcx, QWORD PTR buf$[rsp]
  0015e	ba 00 08 00 00	 mov	 edx, 2048		; 00000800H
  00163	e8 00 00 00 00	 call	 GetCrc32

; 423  : 
; 424  : 				if (strcmp(name, "GOST 28147-89") == 0)

  00168	48 8d 74 24 40	 lea	 rsi, QWORD PTR name$[rsp]
  0016d	48 8d 3d 00 00
	00 00		 lea	 rdi, OFFSET FLAT:??_C@_0O@POKHNLDL@GOST?528147?989?$AA@FNODOBFM@
  00174	b9 0e 00 00 00	 mov	 ecx, 14
  00179	f3 a6		 repe cmpsb
  0017b	75 42		 jne	 SHORT $LN33@TestSector

; 425  : 				{
; 426  : 					switch (testCase)

  0017d	41 8b d4	 mov	 edx, r12d
  00180	45 85 e4	 test	 r12d, r12d
  00183	74 2d		 je	 SHORT $LN30@TestSector
  00185	41 2b d6	 sub	 edx, r14d
  00188	74 21		 je	 SHORT $LN28@TestSector
  0018a	41 2b d6	 sub	 edx, r14d
  0018d	74 15		 je	 SHORT $LN26@TestSector
  0018f	41 3b d6	 cmp	 edx, r14d
  00192	75 43		 jne	 SHORT $LN21@TestSector

; 449  : 					case 3:
; 450  : #ifdef GOST_DYNAMIC_SBOXES
; 451  : 						if (crc != 0xe82865a8)

  00194	3d a8 65 28 e8	 cmp	 eax, -400005720		; e82865a8H
$LN138@TestSector:
  00199	0f 85 a3 fe ff
	ff		 jne	 $LN107@TestSector

; 452  : 							return FALSE;
; 453  : #endif
; 454  : 						nTestsPerformed++;

  0019f	41 03 ee	 add	 ebp, r14d

; 455  : 						break;

  001a2	eb 3c		 jmp	 SHORT $LN128@TestSector
$LN26@TestSector:

; 442  : 					case 2:
; 443  : #ifdef GOST_DYNAMIC_SBOXES
; 444  : 						if (crc != 0xcf0cfdd1)

  001a4	3d d1 fd 0c cf	 cmp	 eax, -821232175		; cf0cfdd1H

; 445  : 							return FALSE;
; 446  : #endif
; 447  : 						nTestsPerformed++;
; 448  : 						break;

  001a9	eb ee		 jmp	 SHORT $LN138@TestSector
$LN28@TestSector:

; 431  : 							return FALSE;
; 432  : #endif
; 433  : 						nTestsPerformed++;
; 434  : 						break;
; 435  : 					case 1:
; 436  : #ifdef GOST_DYNAMIC_SBOXES
; 437  : 						if (crc != 0x5b5926d9)

  001ab	3d d9 26 59 5b	 cmp	 eax, 1532569305		; 5b5926d9H

; 438  : 							return FALSE;
; 439  : #endif
; 440  : 						nTestsPerformed++;
; 441  : 						break;

  001b0	eb e7		 jmp	 SHORT $LN138@TestSector
$LN30@TestSector:

; 427  : 					{
; 428  : 					case 0:
; 429  : #ifdef GOST_DYNAMIC_SBOXES
; 430  : 						if (crc != 0x05eacf7d)

  001b2	3d 7d cf ea 05	 cmp	 eax, 99274621		; 05eacf7dH
  001b7	0f 85 85 fe ff
	ff		 jne	 $LN107@TestSector

; 456  : 					}
; 457  : 				}
; 458  : 				else if (strcmp(name, "Gost Grasshopper") == 0)

  001bd	eb 15		 jmp	 SHORT $LN136@TestSector
$LN33@TestSector:
  001bf	48 8d 74 24 40	 lea	 rsi, QWORD PTR name$[rsp]
  001c4	48 8d 3d 00 00
	00 00		 lea	 rdi, OFFSET FLAT:??_C@_0BB@BMJBGELP@Gost?5Grasshopper?$AA@FNODOBFM@
  001cb	b9 11 00 00 00	 mov	 ecx, 17
  001d0	f3 a6		 repe cmpsb
  001d2	75 03		 jne	 SHORT $LN21@TestSector
$LN136@TestSector:

; 459  : 					nTestsPerformed++;

  001d4	41 03 ee	 add	 ebp, r14d
$LN21@TestSector:

; 460  : 
; 461  : 				if (crc == 0x9f5edd58)

  001d7	41 3b c7	 cmp	 eax, r15d
  001da	0f 84 62 fe ff
	ff		 je	 $LN107@TestSector
$LN128@TestSector:

; 462  : 					return FALSE;
; 463  : 
; 464  : 				DecryptDataUnits(buf, &unitNo, nbrUnits, ci);

  001e0	4c 8d 44 24 30	 lea	 r8, QWORD PTR unitNo$[rsp]
  001e5	48 8d 94 24 80
	00 00 00	 lea	 rdx, QWORD PTR buf$[rsp]
  001ed	41 b9 04 00 00
	00		 mov	 r9d, 4
  001f3	41 8b ce	 mov	 ecx, r14d
  001f6	48 89 5c 24 20	 mov	 QWORD PTR [rsp+32], rbx
  001fb	e8 00 00 00 00	 call	 EncryptionThreadPoolDoWork

; 465  : 
; 466  : 				if (GetCrc32(buf, sizeof (buf)) != 0x9f5edd58)

  00200	48 8d 8c 24 80
	00 00 00	 lea	 rcx, QWORD PTR buf$[rsp]
  00208	ba 00 08 00 00	 mov	 edx, 2048		; 00000800H
  0020d	e8 00 00 00 00	 call	 GetCrc32
  00212	41 3b c7	 cmp	 eax, r15d
  00215	0f 85 27 fe ff
	ff		 jne	 $LN107@TestSector

; 467  : 					return FALSE;
; 468  : 
; 469  : 				nTestsPerformed++;

  0021b	41 03 ee	 add	 ebp, r14d
$LN44@TestSector:

; 393  : 		{
; 394  : 			for (ci->mode = EAGetFirstMode(ci->ea); ci->mode != 0; ci->mode = EAGetNextMode(ci->ea, ci->mode))

  0021e	8b 3b		 mov	 edi, DWORD PTR [rbx]
  00220	8b 53 04	 mov	 edx, DWORD PTR [rbx+4]
  00223	8b cf		 mov	 ecx, edi
  00225	e8 00 00 00 00	 call	 EAGetNextMode
  0022a	89 43 04	 mov	 DWORD PTR [rbx+4], eax
  0022d	85 c0		 test	 eax, eax
  0022f	0f 85 59 fe ff
	ff		 jne	 $LL45@TestSector
  00235	48 8d 35 00 00
	00 00		 lea	 rsi, OFFSET FLAT:EncryptionAlgorithms
$LN47@TestSector:

; 390  : 
; 391  : 		// Test all EAs that support this mode of operation
; 392  : 		for (ci->ea = EAGetFirst(); ci->ea != 0; ci->ea = EAGetNext(ci->ea))

  0023c	8b 13		 mov	 edx, DWORD PTR [rbx]
  0023e	41 03 d6	 add	 edx, r14d
  00241	48 63 c2	 movsxd	 rax, edx
  00244	48 c1 e0 05	 shl	 rax, 5
  00248	8b 04 30	 mov	 eax, DWORD PTR [rax+rsi]
  0024b	f7 d8		 neg	 eax
  0024d	1b c9		 sbb	 ecx, ecx
  0024f	23 ca		 and	 ecx, edx
  00251	89 0b		 mov	 DWORD PTR [rbx], ecx
  00253	0f 85 1c fe ff
	ff		 jne	 $LL48@TestSector
  00259	49 81 ed 00 02
	00 00		 sub	 r13, 512		; 00000200H
  00260	48 b8 00 f6 ff
	ff ff ff 01 00	 mov	 rax, 562949953418752	; 0001fffffffff600H

; 470  : 			}
; 471  : 		}
; 472  : 		testCase++;

  0026a	45 03 e6	 add	 r12d, r14d
  0026d	4c 3b e8	 cmp	 r13, rax
  00270	0f 87 f0 fd ff
	ff		 ja	 $LL51@TestSector

; 473  : 	}
; 474  : 
; 475  : 	/* Encryption/decryption of a buffer (typically, a volume header) */
; 476  : 
; 477  : 	nbrUnits = sizeof (buf) / ENCRYPTION_DATA_UNIT_SIZE;
; 478  : 
; 479  : 	// Test all EAs that support this mode of operation
; 480  : 	for (ci->ea = EAGetFirst(); ci->ea != 0; ci->ea = EAGetNext(ci->ea))

  00276	44 89 33	 mov	 DWORD PTR [rbx], r14d
$LL18@TestSector:

; 481  : 	{
; 482  : 		for (ci->mode = EAGetFirstMode(ci->ea); ci->mode != 0; ci->mode = EAGetNextMode(ci->ea, ci->mode))

  00279	48 63 3b	 movsxd	 rdi, DWORD PTR [rbx]
  0027c	48 8b c7	 mov	 rax, rdi
  0027f	48 c1 e0 05	 shl	 rax, 5
  00283	8b 44 30 10	 mov	 eax, DWORD PTR [rax+rsi+16]
  00287	89 43 04	 mov	 DWORD PTR [rbx+4], eax
  0028a	85 c0		 test	 eax, eax
  0028c	0f 84 55 01 00
	00		 je	 $LN17@TestSector
$LL15@TestSector:

; 483  : 		{
; 484  : 			if (!EAIsModeSupported(ci->ea, ci->mode))

  00292	8b 53 04	 mov	 edx, DWORD PTR [rbx+4]
  00295	8b cf		 mov	 ecx, edi
  00297	e8 00 00 00 00	 call	 EAIsModeSupported
  0029c	85 c0		 test	 eax, eax
  0029e	0f 84 25 01 00
	00		 je	 $LN14@TestSector

; 485  : 				continue;
; 486  : 
; 487  : 			EAGetName(name, ci->ea);

  002a4	48 8d 4c 24 40	 lea	 rcx, QWORD PTR name$[rsp]
  002a9	8b d7		 mov	 edx, edi
  002ab	e8 00 00 00 00	 call	 EAGetName

; 488  : 
; 489  : 			if (EAInit(ci->ea, key1, ci->ks) != ERR_SUCCESS)

  002b0	8b 0b		 mov	 ecx, DWORD PTR [rbx]
  002b2	85 c9		 test	 ecx, ecx
  002b4	0f 84 88 fd ff
	ff		 je	 $LN107@TestSector
  002ba	4c 8d 43 08	 lea	 r8, QWORD PTR [rbx+8]
  002be	48 8d 15 00 00
	00 00		 lea	 rdx, OFFSET FLAT:?key1@?1??TestSectorBufEncryption@@9@9
  002c5	e8 00 00 00 00	 call	 EAInit
  002ca	85 c0		 test	 eax, eax
  002cc	0f 85 70 fd ff
	ff		 jne	 $LN107@TestSector

; 490  : 				return FALSE;
; 491  : 
; 492  : 			memcpy(&ci->k2, XTS_vectors[XTS_TEST_COUNT - 1].key2, sizeof (XTS_vectors[XTS_TEST_COUNT - 1].key2));

  002d2	48 8d 8b 50 1d
	00 00		 lea	 rcx, QWORD PTR [rbx+7504]
  002d9	48 8d 15 50 11
	00 00		 lea	 rdx, OFFSET FLAT:XTS_vectors+4432
  002e0	44 8d 40 20	 lea	 r8d, QWORD PTR [rax+32]
  002e4	e8 00 00 00 00	 call	 memcpy

; 493  : 
; 494  : 			if (!EAInitMode(ci))

  002e9	48 8b cb	 mov	 rcx, rbx
  002ec	e8 00 00 00 00	 call	 EAInitMode
  002f1	85 c0		 test	 eax, eax
  002f3	0f 84 49 fd ff
	ff		 je	 $LN107@TestSector

; 495  : 				return FALSE;
; 496  : 
; 497  : 			// Each data unit will contain the same plaintext
; 498  : 			for (i = 0; i < nbrUnits; i++)
; 499  : 			{
; 500  : 				memcpy((unsigned char *)buf + i * ENCRYPTION_DATA_UNIT_SIZE,
; 501  : 					XTS_vectors[XTS_TEST_COUNT - 1].plaintext,
; 502  : 					ENCRYPTION_DATA_UNIT_SIZE);

  002f9	48 8d 8c 24 80
	00 00 00	 lea	 rcx, QWORD PTR buf$[rsp]
  00301	48 8d 15 7c 11
	00 00		 lea	 rdx, OFFSET FLAT:XTS_vectors+4476
  00308	41 b8 00 02 00
	00		 mov	 r8d, 512		; 00000200H
  0030e	e8 00 00 00 00	 call	 memcpy
  00313	48 8d bc 24 80
	02 00 00	 lea	 rdi, QWORD PTR buf$[rsp+512]
  0031b	48 8d b4 24 80
	00 00 00	 lea	 rsi, QWORD PTR buf$[rsp]
  00323	b9 c0 00 00 00	 mov	 ecx, 192		; 000000c0H

; 503  : 			}
; 504  : 
; 505  : 			EncryptBuffer(buf, sizeof (buf), ci);

  00328	41 bc 00 08 00
	00		 mov	 r12d, 2048		; 00000800H
  0032e	4c 8b c3	 mov	 r8, rbx
  00331	f3 48 a5	 rep movsq
  00334	48 8d 8c 24 80
	00 00 00	 lea	 rcx, QWORD PTR buf$[rsp]
  0033c	49 8b d4	 mov	 rdx, r12
  0033f	e8 00 00 00 00	 call	 EncryptBuffer

; 506  : 
; 507  : 			crc = GetCrc32(buf, sizeof (buf));

  00344	48 8d 8c 24 80
	00 00 00	 lea	 rcx, QWORD PTR buf$[rsp]
  0034c	41 8b d4	 mov	 edx, r12d
  0034f	e8 00 00 00 00	 call	 GetCrc32

; 508  : 
; 509  : 			if (strcmp(name, "GOST 28147-89") == 0)

  00354	48 8d 74 24 40	 lea	 rsi, QWORD PTR name$[rsp]
  00359	48 8d 3d 00 00
	00 00		 lea	 rdi, OFFSET FLAT:??_C@_0O@POKHNLDL@GOST?528147?989?$AA@FNODOBFM@
  00360	b9 0e 00 00 00	 mov	 ecx, 14
  00365	f3 a6		 repe cmpsb
  00367	75 10		 jne	 SHORT $LN6@TestSector

; 510  : 			{
; 511  : #ifdef GOST_DYNAMIC_SBOXES
; 512  : 				if (crc != 0x5d31eec2)

  00369	3d c2 ee 31 5d	 cmp	 eax, 1563553474		; 5d31eec2H
  0036e	0f 85 ce fc ff
	ff		 jne	 $LN107@TestSector

; 513  : 					return FALSE;
; 514  : #endif
; 515  : 				nTestsPerformed++;

  00374	41 03 ee	 add	 ebp, r14d
  00377	eb 21		 jmp	 SHORT $LN129@TestSector
$LN6@TestSector:

; 516  : 			}
; 517  : 			else if (strcmp(name, "Gost Grasshopper") == 0)

  00379	48 8d 74 24 40	 lea	 rsi, QWORD PTR name$[rsp]
  0037e	48 8d 3d 00 00
	00 00		 lea	 rdi, OFFSET FLAT:??_C@_0BB@BMJBGELP@Gost?5Grasshopper?$AA@FNODOBFM@
  00385	b9 11 00 00 00	 mov	 ecx, 17
  0038a	f3 a6		 repe cmpsb
  0038c	75 03		 jne	 SHORT $LN3@TestSector

; 518  : 				nTestsPerformed++;

  0038e	41 03 ee	 add	 ebp, r14d
$LN3@TestSector:

; 519  : 
; 520  : 
; 521  : 			if (crc == 0x9f5edd58)

  00391	41 3b c7	 cmp	 eax, r15d
  00394	0f 84 a8 fc ff
	ff		 je	 $LN107@TestSector
$LN129@TestSector:

; 522  : 				return FALSE;
; 523  : 
; 524  : 			DecryptBuffer(buf, sizeof (buf), ci);

  0039a	48 8d 8c 24 80
	00 00 00	 lea	 rcx, QWORD PTR buf$[rsp]
  003a2	4c 8b c3	 mov	 r8, rbx
  003a5	49 8b d4	 mov	 rdx, r12
  003a8	e8 00 00 00 00	 call	 DecryptBuffer

; 525  : 
; 526  : 			if (GetCrc32(buf, sizeof (buf)) != 0x9f5edd58)

  003ad	48 8d 8c 24 80
	00 00 00	 lea	 rcx, QWORD PTR buf$[rsp]
  003b5	41 8b d4	 mov	 edx, r12d
  003b8	e8 00 00 00 00	 call	 GetCrc32
  003bd	41 3b c7	 cmp	 eax, r15d
  003c0	0f 85 7c fc ff
	ff		 jne	 $LN107@TestSector

; 527  : 				return FALSE;
; 528  : 
; 529  : 			nTestsPerformed++;

  003c6	41 03 ee	 add	 ebp, r14d
$LN14@TestSector:

; 481  : 	{
; 482  : 		for (ci->mode = EAGetFirstMode(ci->ea); ci->mode != 0; ci->mode = EAGetNextMode(ci->ea, ci->mode))

  003c9	8b 3b		 mov	 edi, DWORD PTR [rbx]
  003cb	8b 53 04	 mov	 edx, DWORD PTR [rbx+4]
  003ce	8b cf		 mov	 ecx, edi
  003d0	e8 00 00 00 00	 call	 EAGetNextMode
  003d5	89 43 04	 mov	 DWORD PTR [rbx+4], eax
  003d8	85 c0		 test	 eax, eax
  003da	0f 85 b2 fe ff
	ff		 jne	 $LL15@TestSector
  003e0	48 8d 35 00 00
	00 00		 lea	 rsi, OFFSET FLAT:EncryptionAlgorithms
$LN17@TestSector:

; 473  : 	}
; 474  : 
; 475  : 	/* Encryption/decryption of a buffer (typically, a volume header) */
; 476  : 
; 477  : 	nbrUnits = sizeof (buf) / ENCRYPTION_DATA_UNIT_SIZE;
; 478  : 
; 479  : 	// Test all EAs that support this mode of operation
; 480  : 	for (ci->ea = EAGetFirst(); ci->ea != 0; ci->ea = EAGetNext(ci->ea))

  003e7	8b 13		 mov	 edx, DWORD PTR [rbx]
  003e9	41 03 d6	 add	 edx, r14d
  003ec	48 63 c2	 movsxd	 rax, edx
  003ef	48 c1 e0 05	 shl	 rax, 5
  003f3	8b 04 30	 mov	 eax, DWORD PTR [rax+rsi]
  003f6	f7 d8		 neg	 eax
  003f8	1b c9		 sbb	 ecx, ecx
  003fa	23 ca		 and	 ecx, edx
  003fc	89 0b		 mov	 DWORD PTR [rbx], ecx
  003fe	0f 85 75 fe ff
	ff		 jne	 $LL18@TestSector

; 530  : 		}
; 531  : 	}
; 532  : 
; 533  : 	return 1;

  00404	41 8b c6	 mov	 eax, r14d
$LN53@TestSector:

; 534  : 	//return (nTestsPerformed == 20); // 2 * number of ea
; 535  : }

  00407	48 8b 8c 24 80
	08 00 00	 mov	 rcx, QWORD PTR __$ArrayPad$[rsp]
  0040f	48 33 cc	 xor	 rcx, rsp
  00412	e8 00 00 00 00	 call	 __security_check_cookie
  00417	4c 8d 9c 24 90
	08 00 00	 lea	 r11, QWORD PTR [rsp+2192]
  0041f	49 8b 5b 38	 mov	 rbx, QWORD PTR [r11+56]
  00423	49 8b 6b 40	 mov	 rbp, QWORD PTR [r11+64]
  00427	49 8b 73 48	 mov	 rsi, QWORD PTR [r11+72]
  0042b	49 8b e3	 mov	 rsp, r11
  0042e	41 5f		 pop	 r15
  00430	41 5e		 pop	 r14
  00432	41 5d		 pop	 r13
  00434	41 5c		 pop	 r12
  00436	5f		 pop	 rdi
  00437	c3		 ret	 0
TestSectorBufEncryption ENDP
;	COMDAT pdata
; File c:\users\alexis\desktop\sources_gostcrypt_windows_1.3.1_commented\sources_gostcrypt_windows_1.3.1\sources_gostcrypt_windows_1.3.1\common\crc.c
pdata	SEGMENT
$pdata$DoAutoTestAlgorithms DD imagerel DoAutoTestAlgorithms
	DD	imagerel DoAutoTestAlgorithms+209
	DD	imagerel $unwind$DoAutoTestAlgorithms
pdata	ENDS
;	COMDAT xdata
xdata	SEGMENT
$unwind$DoAutoTestAlgorithms DD 081401H
	DD	086414H
	DD	075414H
	DD	063414H
	DD	070103214H
; Function compile flags: /Ogspy
; File c:\users\alexis\desktop\sources_gostcrypt_windows_1.3.1_commented\sources_gostcrypt_windows_1.3.1\sources_gostcrypt_windows_1.3.1\common\tests.c
xdata	ENDS
;	COMDAT DoAutoTestAlgorithms
_TEXT	SEGMENT
DoAutoTestAlgorithms PROC				; COMDAT

; 622  : {

  00000	48 89 5c 24 08	 mov	 QWORD PTR [rsp+8], rbx
  00005	48 89 6c 24 10	 mov	 QWORD PTR [rsp+16], rbp
  0000a	48 89 74 24 18	 mov	 QWORD PTR [rsp+24], rsi
  0000f	57		 push	 rdi
  00010	48 83 ec 20	 sub	 rsp, 32			; 00000020H

; 623  : 	PCRYPTO_INFO ci;
; 624  : 	BOOL bFailed = FALSE;

  00014	33 db		 xor	 ebx, ebx

; 625  : 
; 626  : 	ci = crypto_open ();

  00016	e8 00 00 00 00	 call	 crypto_open
  0001b	48 8b f8	 mov	 rdi, rax

; 627  : 	if (!ci)

  0001e	48 3b c3	 cmp	 rax, rbx
  00021	75 07		 jne	 SHORT $LN4@DoAutoTest

; 628  : 		return FALSE;

  00023	33 c0		 xor	 eax, eax
  00025	e9 92 00 00 00	 jmp	 $LN5@DoAutoTest
$LN4@DoAutoTest:

; 629  : 
; 630  : 	memset (ci, 0, sizeof (*ci));

  0002a	33 d2		 xor	 edx, edx
  0002c	41 b8 10 1f 00
	00		 mov	 r8d, 7952		; 00001f10H
  00032	48 8b c8	 mov	 rcx, rax
  00035	e8 00 00 00 00	 call	 memset

; 631  : 
; 632  : 	/* GOST Cipher test here */
; 633  : 	
; 634  : 	/* PKCS #5 and HMACs */
; 635  : 	if (!test_pkcs5 ())

  0003a	e8 00 00 00 00	 call	 test_pkcs5
  0003f	8b f3		 mov	 esi, ebx
  00041	3b c3		 cmp	 eax, ebx
  00043	bd 01 00 00 00	 mov	 ebp, 1

; 636  : 		bFailed = TRUE;
; 637  : 
; 638  : 	/* CRC-32 */
; 639  : 	if (!crc32_selftests ())

  00048	4c 8b d3	 mov	 r10, rbx
  0004b	0f 44 f5	 cmove	 esi, ebp
  0004e	48 8d 0d 00 00
	00 00		 lea	 rcx, OFFSET FLAT:crc_32_tab
  00055	ba 00 04 00 00	 mov	 edx, 1024		; 00000400H
  0005a	41 83 cb ff	 or	 r11d, -1		; ffffffffH
$LL9@DoAutoTest:
  0005e	45 0f b6 04 0a	 movzx	 r8d, BYTE PTR [r10+rcx]
  00063	41 8b c3	 mov	 eax, r11d
  00066	4c 03 d5	 add	 r10, rbp
  00069	4c 33 c0	 xor	 r8, rax
  0006c	c1 e8 08	 shr	 eax, 8
  0006f	45 0f b6 c8	 movzx	 r9d, r8b
  00073	46 8b 1c 89	 mov	 r11d, DWORD PTR [rcx+r9*4]
  00077	44 33 d8	 xor	 r11d, eax
  0007a	4c 3b d2	 cmp	 r10, rdx
  0007d	7c df		 jl	 SHORT $LL9@DoAutoTest
  0007f	e8 00 00 00 00	 call	 GetCrc32
  00084	ba 13 9e cf 6f	 mov	 edx, 1875877395		; 6fcf9e13H
  00089	8b cb		 mov	 ecx, ebx
  0008b	3b c2		 cmp	 eax, edx
  0008d	8b c3		 mov	 eax, ebx
  0008f	41 f7 d3	 not	 r11d
  00092	0f 94 c1	 sete	 cl
  00095	44 3b da	 cmp	 r11d, edx
  00098	0f 94 c0	 sete	 al
  0009b	85 c8		 test	 ecx, eax

; 640  : 		bFailed = TRUE;
; 641  : 
; 642  : 	/* GF multiplicator */
; 643  : #if 0
; 644  : 	if (!GfMulSelfTest ())
; 645  : 		bFailed = TRUE;
; 646  : #endif
; 647  : 
; 648  : 	/* Sector and buffer related algorithms */
; 649  : 	if (!TestSectorBufEncryption (ci))

  0009d	48 8b cf	 mov	 rcx, rdi
  000a0	0f 44 f5	 cmove	 esi, ebp
  000a3	e8 00 00 00 00	 call	 TestSectorBufEncryption

; 650  : 		bFailed = TRUE;
; 651  : 	
; 652  : 	crypto_close (ci);

  000a8	48 8b cf	 mov	 rcx, rdi
  000ab	3b c3		 cmp	 eax, ebx
  000ad	0f 44 f5	 cmove	 esi, ebp
  000b0	e8 00 00 00 00	 call	 crypto_close

; 653  : 	return !bFailed;

  000b5	3b f3		 cmp	 esi, ebx
  000b7	0f 94 c3	 sete	 bl
  000ba	8b c3		 mov	 eax, ebx
$LN5@DoAutoTest:

; 654  : }

  000bc	48 8b 5c 24 30	 mov	 rbx, QWORD PTR [rsp+48]
  000c1	48 8b 6c 24 38	 mov	 rbp, QWORD PTR [rsp+56]
  000c6	48 8b 74 24 40	 mov	 rsi, QWORD PTR [rsp+64]
  000cb	48 83 c4 20	 add	 rsp, 32			; 00000020H
  000cf	5f		 pop	 rdi
  000d0	c3		 ret	 0
DoAutoTestAlgorithms ENDP
PUBLIC	AutoTestAlgorithms
;	COMDAT pdata
; File c:\users\alexis\desktop\sources_gostcrypt_windows_1.3.1_commented\sources_gostcrypt_windows_1.3.1\sources_gostcrypt_windows_1.3.1\common\crypto.c
pdata	SEGMENT
$pdata$AutoTestAlgorithms DD imagerel $LN13
	DD	imagerel $LN13+35
	DD	imagerel $unwind$AutoTestAlgorithms
pdata	ENDS
;	COMDAT xdata
xdata	SEGMENT
$unwind$AutoTestAlgorithms DD 020601H
	DD	030023206H
; Function compile flags: /Ogspy
; File c:\users\alexis\desktop\sources_gostcrypt_windows_1.3.1_commented\sources_gostcrypt_windows_1.3.1\sources_gostcrypt_windows_1.3.1\common\tests.c
xdata	ENDS
;	COMDAT AutoTestAlgorithms
_TEXT	SEGMENT
AutoTestAlgorithms PROC					; COMDAT

; 665  : {

$LN13:
  00000	40 53		 push	 rbx
  00002	48 83 ec 20	 sub	 rsp, 32			; 00000020H

; 666  : 	BOOL result = TRUE;
; 667  : 	BOOL hwEncryptionEnabled = IsHwEncryptionEnabled();
; 668  : 
; 669  : 	EnableHwEncryption (FALSE);
; 670  : 
; 671  : 	if (!DoAutoTestAlgorithms())

  00006	e8 00 00 00 00	 call	 DoAutoTestAlgorithms
  0000b	f7 d8		 neg	 eax
  0000d	1b db		 sbb	 ebx, ebx
  0000f	83 e3 01	 and	 ebx, 1

; 672  : 		result = FALSE;
; 673  : 
; 674  : 	EnableHwEncryption (TRUE);
; 675  : 
; 676  : 	if (!DoAutoTestAlgorithms())

  00012	e8 00 00 00 00	 call	 DoAutoTestAlgorithms
  00017	f7 d8		 neg	 eax
  00019	1b c0		 sbb	 eax, eax
  0001b	23 c3		 and	 eax, ebx

; 677  : 		result = FALSE;
; 678  : 
; 679  : 	EnableHwEncryption (hwEncryptionEnabled);
; 680  : 	return result;
; 681  : }

  0001d	48 83 c4 20	 add	 rsp, 32			; 00000020H
  00021	5b		 pop	 rbx
  00022	c3		 ret	 0
AutoTestAlgorithms ENDP
END
