; Listing generated by Microsoft (R) Optimizing Compiler Version 15.00.30729.207 

include listing.inc

INCLUDELIB OLDNAMES

PUBLIC	pi
PUBLIC	pi_inv
PUBLIC	mult_mod_poly
pi	DB	0fcH
	DB	0eeH
	DB	0ddH
	DB	011H
	DB	0cfH
	DB	06eH
	DB	031H
	DB	016H
	DB	0fbH
	DB	0c4H
	DB	0faH
	DB	0daH
	DB	023H
	DB	0c5H
	DB	04H
	DB	04dH
	DB	0e9H
	DB	077H
	DB	0f0H
	DB	0dbH
	DB	093H
	DB	02eH
	DB	099H
	DB	0baH
	DB	017H
	DB	036H
	DB	0f1H
	DB	0bbH
	DB	014H
	DB	0cdH
	DB	05fH
	DB	0c1H
	DB	0f9H
	DB	018H
	DB	065H
	DB	05aH
	DB	0e2H
	DB	05cH
	DB	0efH
	DB	021H
	DB	081H
	DB	01cH
	DB	03cH
	DB	042H
	DB	08bH
	DB	01H
	DB	08eH
	DB	04fH
	DB	05H
	DB	084H
	DB	02H
	DB	0aeH
	DB	0e3H
	DB	06aH
	DB	08fH
	DB	0a0H
	DB	06H
	DB	0bH
	DB	0edH
	DB	098H
	DB	07fH
	DB	0d4H
	DB	0d3H
	DB	01fH
	DB	0ebH
	DB	034H
	DB	02cH
	DB	051H
	DB	0eaH
	DB	0c8H
	DB	048H
	DB	0abH
	DB	0f2H
	DB	02aH
	DB	068H
	DB	0a2H
	DB	0fdH
	DB	03aH
	DB	0ceH
	DB	0ccH
	DB	0b5H
	DB	070H
	DB	0eH
	DB	056H
	DB	08H
	DB	0cH
	DB	076H
	DB	012H
	DB	0bfH
	DB	072H
	DB	013H
	DB	047H
	DB	09cH
	DB	0b7H
	DB	05dH
	DB	087H
	DB	015H
	DB	0a1H
	DB	096H
	DB	029H
	DB	010H
	DB	07bH
	DB	09aH
	DB	0c7H
	DB	0f3H
	DB	091H
	DB	078H
	DB	06fH
	DB	09dH
	DB	09eH
	DB	0b2H
	DB	0b1H
	DB	032H
	DB	075H
	DB	019H
	DB	03dH
	DB	0ffH
	DB	035H
	DB	08aH
	DB	07eH
	DB	06dH
	DB	054H
	DB	0c6H
	DB	080H
	DB	0c3H
	DB	0bdH
	DB	0dH
	DB	057H
	DB	0dfH
	DB	0f5H
	DB	024H
	DB	0a9H
	DB	03eH
	DB	0a8H
	DB	043H
	DB	0c9H
	DB	0d7H
	DB	079H
	DB	0d6H
	DB	0f6H
	DB	07cH
	DB	022H
	DB	0b9H
	DB	03H
	DB	0e0H
	DB	0fH
	DB	0ecH
	DB	0deH
	DB	07aH
	DB	094H
	DB	0b0H
	DB	0bcH
	DB	0dcH
	DB	0e8H
	DB	028H
	DB	050H
	DB	04eH
	DB	033H
	DB	0aH
	DB	04aH
	DB	0a7H
	DB	097H
	DB	060H
	DB	073H
	DB	01eH
	DB	00H
	DB	062H
	DB	044H
	DB	01aH
	DB	0b8H
	DB	038H
	DB	082H
	DB	064H
	DB	09fH
	DB	026H
	DB	041H
	DB	0adH
	DB	045H
	DB	046H
	DB	092H
	DB	027H
	DB	05eH
	DB	055H
	DB	02fH
	DB	08cH
	DB	0a3H
	DB	0a5H
	DB	07dH
	DB	069H
	DB	0d5H
	DB	095H
	DB	03bH
	DB	07H
	DB	058H
	DB	0b3H
	DB	040H
	DB	086H
	DB	0acH
	DB	01dH
	DB	0f7H
	DB	030H
	DB	037H
	DB	06bH
	DB	0e4H
	DB	088H
	DB	0d9H
	DB	0e7H
	DB	089H
	DB	0e1H
	DB	01bH
	DB	083H
	DB	049H
	DB	04cH
	DB	03fH
	DB	0f8H
	DB	0feH
	DB	08dH
	DB	053H
	DB	0aaH
	DB	090H
	DB	0caH
	DB	0d8H
	DB	085H
	DB	061H
	DB	020H
	DB	071H
	DB	067H
	DB	0a4H
	DB	02dH
	DB	02bH
	DB	09H
	DB	05bH
	DB	0cbH
	DB	09bH
	DB	025H
	DB	0d0H
	DB	0beH
	DB	0e5H
	DB	06cH
	DB	052H
	DB	059H
	DB	0a6H
	DB	074H
	DB	0d2H
	DB	0e6H
	DB	0f4H
	DB	0b4H
	DB	0c0H
	DB	0d1H
	DB	066H
	DB	0afH
	DB	0c2H
	DB	039H
	DB	04bH
	DB	063H
	DB	0b6H
pi_inv	DB	0a5H
	DB	02dH
	DB	032H
	DB	08fH
	DB	0eH
	DB	030H
	DB	038H
	DB	0c0H
	DB	054H
	DB	0e6H
	DB	09eH
	DB	039H
	DB	055H
	DB	07eH
	DB	052H
	DB	091H
	DB	064H
	DB	03H
	DB	057H
	DB	05aH
	DB	01cH
	DB	060H
	DB	07H
	DB	018H
	DB	021H
	DB	072H
	DB	0a8H
	DB	0d1H
	DB	029H
	DB	0c6H
	DB	0a4H
	DB	03fH
	DB	0e0H
	DB	027H
	DB	08dH
	DB	0cH
	DB	082H
	DB	0eaH
	DB	0aeH
	DB	0b4H
	DB	09aH
	DB	063H
	DB	049H
	DB	0e5H
	DB	042H
	DB	0e4H
	DB	015H
	DB	0b7H
	DB	0c8H
	DB	06H
	DB	070H
	DB	09dH
	DB	041H
	DB	075H
	DB	019H
	DB	0c9H
	DB	0aaH
	DB	0fcH
	DB	04dH
	DB	0bfH
	DB	02aH
	DB	073H
	DB	084H
	DB	0d5H
	DB	0c3H
	DB	0afH
	DB	02bH
	DB	086H
	DB	0a7H
	DB	0b1H
	DB	0b2H
	DB	05bH
	DB	046H
	DB	0d3H
	DB	09fH
	DB	0fdH
	DB	0d4H
	DB	0fH
	DB	09cH
	DB	02fH
	DB	09bH
	DB	043H
	DB	0efH
	DB	0d9H
	DB	079H
	DB	0b6H
	DB	053H
	DB	07fH
	DB	0c1H
	DB	0f0H
	DB	023H
	DB	0e7H
	DB	025H
	DB	05eH
	DB	0b5H
	DB	01eH
	DB	0a2H
	DB	0dfH
	DB	0a6H
	DB	0feH
	DB	0acH
	DB	022H
	DB	0f9H
	DB	0e2H
	DB	04aH
	DB	0bcH
	DB	035H
	DB	0caH
	DB	0eeH
	DB	078H
	DB	05H
	DB	06bH
	DB	051H
	DB	0e1H
	DB	059H
	DB	0a3H
	DB	0f2H
	DB	071H
	DB	056H
	DB	011H
	DB	06aH
	DB	089H
	DB	094H
	DB	065H
	DB	08cH
	DB	0bbH
	DB	077H
	DB	03cH
	DB	07bH
	DB	028H
	DB	0abH
	DB	0d2H
	DB	031H
	DB	0deH
	DB	0c4H
	DB	05fH
	DB	0ccH
	DB	0cfH
	DB	076H
	DB	02cH
	DB	0b8H
	DB	0d8H
	DB	02eH
	DB	036H
	DB	0dbH
	DB	069H
	DB	0b3H
	DB	014H
	DB	095H
	DB	0beH
	DB	062H
	DB	0a1H
	DB	03bH
	DB	016H
	DB	066H
	DB	0e9H
	DB	05cH
	DB	06cH
	DB	06dH
	DB	0adH
	DB	037H
	DB	061H
	DB	04bH
	DB	0b9H
	DB	0e3H
	DB	0baH
	DB	0f1H
	DB	0a0H
	DB	085H
	DB	083H
	DB	0daH
	DB	047H
	DB	0c5H
	DB	0b0H
	DB	033H
	DB	0faH
	DB	096H
	DB	06fH
	DB	06eH
	DB	0c2H
	DB	0f6H
	DB	050H
	DB	0ffH
	DB	05dH
	DB	0a9H
	DB	08eH
	DB	017H
	DB	01bH
	DB	097H
	DB	07dH
	DB	0ecH
	DB	058H
	DB	0f7H
	DB	01fH
	DB	0fbH
	DB	07cH
	DB	09H
	DB	0dH
	DB	07aH
	DB	067H
	DB	045H
	DB	087H
	DB	0dcH
	DB	0e8H
	DB	04fH
	DB	01dH
	DB	04eH
	DB	04H
	DB	0ebH
	DB	0f8H
	DB	0f3H
	DB	03eH
	DB	03dH
	DB	0bdH
	DB	08aH
	DB	088H
	DB	0ddH
	DB	0cdH
	DB	0bH
	DB	013H
	DB	098H
	DB	02H
	DB	093H
	DB	080H
	DB	090H
	DB	0d0H
	DB	024H
	DB	034H
	DB	0cbH
	DB	0edH
	DB	0f4H
	DB	0ceH
	DB	099H
	DB	010H
	DB	044H
	DB	040H
	DB	092H
	DB	03aH
	DB	01H
	DB	026H
	DB	012H
	DB	01aH
	DB	048H
	DB	068H
	DB	0f5H
	DB	081H
	DB	08bH
	DB	0c7H
	DB	0d6H
	DB	020H
	DB	0aH
	DB	08H
	DB	00H
	DB	04cH
	DB	0d7H
	DB	074H
mult_mod_poly DB 00H
	DB	01H
	DB	02H
	DB	03H
	DB	04H
	DB	05H
	DB	06H
	DB	07H
	DB	08H
	DB	09H
	DB	0aH
	DB	0bH
	DB	0cH
	DB	0dH
	DB	0eH
	DB	0fH
	DB	010H
	DB	011H
	DB	012H
	DB	013H
	DB	014H
	DB	015H
	DB	016H
	DB	017H
	DB	018H
	DB	019H
	DB	01aH
	DB	01bH
	DB	01cH
	DB	01dH
	DB	01eH
	DB	01fH
	DB	020H
	DB	021H
	DB	022H
	DB	023H
	DB	024H
	DB	025H
	DB	026H
	DB	027H
	DB	028H
	DB	029H
	DB	02aH
	DB	02bH
	DB	02cH
	DB	02dH
	DB	02eH
	DB	02fH
	DB	030H
	DB	031H
	DB	032H
	DB	033H
	DB	034H
	DB	035H
	DB	036H
	DB	037H
	DB	038H
	DB	039H
	DB	03aH
	DB	03bH
	DB	03cH
	DB	03dH
	DB	03eH
	DB	03fH
	DB	040H
	DB	041H
	DB	042H
	DB	043H
	DB	044H
	DB	045H
	DB	046H
	DB	047H
	DB	048H
	DB	049H
	DB	04aH
	DB	04bH
	DB	04cH
	DB	04dH
	DB	04eH
	DB	04fH
	DB	050H
	DB	051H
	DB	052H
	DB	053H
	DB	054H
	DB	055H
	DB	056H
	DB	057H
	DB	058H
	DB	059H
	DB	05aH
	DB	05bH
	DB	05cH
	DB	05dH
	DB	05eH
	DB	05fH
	DB	060H
	DB	061H
	DB	062H
	DB	063H
	DB	064H
	DB	065H
	DB	066H
	DB	067H
	DB	068H
	DB	069H
	DB	06aH
	DB	06bH
	DB	06cH
	DB	06dH
	DB	06eH
	DB	06fH
	DB	070H
	DB	071H
	DB	072H
	DB	073H
	DB	074H
	DB	075H
	DB	076H
	DB	077H
	DB	078H
	DB	079H
	DB	07aH
	DB	07bH
	DB	07cH
	DB	07dH
	DB	07eH
	DB	07fH
	DB	080H
	DB	081H
	DB	082H
	DB	083H
	DB	084H
	DB	085H
	DB	086H
	DB	087H
	DB	088H
	DB	089H
	DB	08aH
	DB	08bH
	DB	08cH
	DB	08dH
	DB	08eH
	DB	08fH
	DB	090H
	DB	091H
	DB	092H
	DB	093H
	DB	094H
	DB	095H
	DB	096H
	DB	097H
	DB	098H
	DB	099H
	DB	09aH
	DB	09bH
	DB	09cH
	DB	09dH
	DB	09eH
	DB	09fH
	DB	0a0H
	DB	0a1H
	DB	0a2H
	DB	0a3H
	DB	0a4H
	DB	0a5H
	DB	0a6H
	DB	0a7H
	DB	0a8H
	DB	0a9H
	DB	0aaH
	DB	0abH
	DB	0acH
	DB	0adH
	DB	0aeH
	DB	0afH
	DB	0b0H
	DB	0b1H
	DB	0b2H
	DB	0b3H
	DB	0b4H
	DB	0b5H
	DB	0b6H
	DB	0b7H
	DB	0b8H
	DB	0b9H
	DB	0baH
	DB	0bbH
	DB	0bcH
	DB	0bdH
	DB	0beH
	DB	0bfH
	DB	0c0H
	DB	0c1H
	DB	0c2H
	DB	0c3H
	DB	0c4H
	DB	0c5H
	DB	0c6H
	DB	0c7H
	DB	0c8H
	DB	0c9H
	DB	0caH
	DB	0cbH
	DB	0ccH
	DB	0cdH
	DB	0ceH
	DB	0cfH
	DB	0d0H
	DB	0d1H
	DB	0d2H
	DB	0d3H
	DB	0d4H
	DB	0d5H
	DB	0d6H
	DB	0d7H
	DB	0d8H
	DB	0d9H
	DB	0daH
	DB	0dbH
	DB	0dcH
	DB	0ddH
	DB	0deH
	DB	0dfH
	DB	0e0H
	DB	0e1H
	DB	0e2H
	DB	0e3H
	DB	0e4H
	DB	0e5H
	DB	0e6H
	DB	0e7H
	DB	0e8H
	DB	0e9H
	DB	0eaH
	DB	0ebH
	DB	0ecH
	DB	0edH
	DB	0eeH
	DB	0efH
	DB	0f0H
	DB	0f1H
	DB	0f2H
	DB	0f3H
	DB	0f4H
	DB	0f5H
	DB	0f6H
	DB	0f7H
	DB	0f8H
	DB	0f9H
	DB	0faH
	DB	0fbH
	DB	0fcH
	DB	0fdH
	DB	0feH
	DB	0ffH
	DB	00H
	DB	010H
	DB	020H
	DB	030H
	DB	040H
	DB	050H
	DB	060H
	DB	070H
	DB	080H
	DB	090H
	DB	0a0H
	DB	0b0H
	DB	0c0H
	DB	0d0H
	DB	0e0H
	DB	0f0H
	DB	0c3H
	DB	0d3H
	DB	0e3H
	DB	0f3H
	DB	083H
	DB	093H
	DB	0a3H
	DB	0b3H
	DB	043H
	DB	053H
	DB	063H
	DB	073H
	DB	03H
	DB	013H
	DB	023H
	DB	033H
	DB	045H
	DB	055H
	DB	065H
	DB	075H
	DB	05H
	DB	015H
	DB	025H
	DB	035H
	DB	0c5H
	DB	0d5H
	DB	0e5H
	DB	0f5H
	DB	085H
	DB	095H
	DB	0a5H
	DB	0b5H
	DB	086H
	DB	096H
	DB	0a6H
	DB	0b6H
	DB	0c6H
	DB	0d6H
	DB	0e6H
	DB	0f6H
	DB	06H
	DB	016H
	DB	026H
	DB	036H
	DB	046H
	DB	056H
	DB	066H
	DB	076H
	DB	08aH
	DB	09aH
	DB	0aaH
	DB	0baH
	DB	0caH
	DB	0daH
	DB	0eaH
	DB	0faH
	DB	0aH
	DB	01aH
	DB	02aH
	DB	03aH
	DB	04aH
	DB	05aH
	DB	06aH
	DB	07aH
	DB	049H
	DB	059H
	DB	069H
	DB	079H
	DB	09H
	DB	019H
	DB	029H
	DB	039H
	DB	0c9H
	DB	0d9H
	DB	0e9H
	DB	0f9H
	DB	089H
	DB	099H
	DB	0a9H
	DB	0b9H
	DB	0cfH
	DB	0dfH
	DB	0efH
	DB	0ffH
	DB	08fH
	DB	09fH
	DB	0afH
	DB	0bfH
	DB	04fH
	DB	05fH
	DB	06fH
	DB	07fH
	DB	0fH
	DB	01fH
	DB	02fH
	DB	03fH
	DB	0cH
	DB	01cH
	DB	02cH
	DB	03cH
	DB	04cH
	DB	05cH
	DB	06cH
	DB	07cH
	DB	08cH
	DB	09cH
	DB	0acH
	DB	0bcH
	DB	0ccH
	DB	0dcH
	DB	0ecH
	DB	0fcH
	DB	0d7H
	DB	0c7H
	DB	0f7H
	DB	0e7H
	DB	097H
	DB	087H
	DB	0b7H
	DB	0a7H
	DB	057H
	DB	047H
	DB	077H
	DB	067H
	DB	017H
	DB	07H
	DB	037H
	DB	027H
	DB	014H
	DB	04H
	DB	034H
	DB	024H
	DB	054H
	DB	044H
	DB	074H
	DB	064H
	DB	094H
	DB	084H
	DB	0b4H
	DB	0a4H
	DB	0d4H
	DB	0c4H
	DB	0f4H
	DB	0e4H
	DB	092H
	DB	082H
	DB	0b2H
	DB	0a2H
	DB	0d2H
	DB	0c2H
	DB	0f2H
	DB	0e2H
	DB	012H
	DB	02H
	DB	032H
	DB	022H
	DB	052H
	DB	042H
	DB	072H
	DB	062H
	DB	051H
	DB	041H
	DB	071H
	DB	061H
	DB	011H
	DB	01H
	DB	031H
	DB	021H
	DB	0d1H
	DB	0c1H
	DB	0f1H
	DB	0e1H
	DB	091H
	DB	081H
	DB	0b1H
	DB	0a1H
	DB	05dH
	DB	04dH
	DB	07dH
	DB	06dH
	DB	01dH
	DB	0dH
	DB	03dH
	DB	02dH
	DB	0ddH
	DB	0cdH
	DB	0fdH
	DB	0edH
	DB	09dH
	DB	08dH
	DB	0bdH
	DB	0adH
	DB	09eH
	DB	08eH
	DB	0beH
	DB	0aeH
	DB	0deH
	DB	0ceH
	DB	0feH
	DB	0eeH
	DB	01eH
	DB	0eH
	DB	03eH
	DB	02eH
	DB	05eH
	DB	04eH
	DB	07eH
	DB	06eH
	DB	018H
	DB	08H
	DB	038H
	DB	028H
	DB	058H
	DB	048H
	DB	078H
	DB	068H
	DB	098H
	DB	088H
	DB	0b8H
	DB	0a8H
	DB	0d8H
	DB	0c8H
	DB	0f8H
	DB	0e8H
	DB	0dbH
	DB	0cbH
	DB	0fbH
	DB	0ebH
	DB	09bH
	DB	08bH
	DB	0bbH
	DB	0abH
	DB	05bH
	DB	04bH
	DB	07bH
	DB	06bH
	DB	01bH
	DB	0bH
	DB	03bH
	DB	02bH
	DB	00H
	DB	020H
	DB	040H
	DB	060H
	DB	080H
	DB	0a0H
	DB	0c0H
	DB	0e0H
	DB	0c3H
	DB	0e3H
	DB	083H
	DB	0a3H
	DB	043H
	DB	063H
	DB	03H
	DB	023H
	DB	045H
	DB	065H
	DB	05H
	DB	025H
	DB	0c5H
	DB	0e5H
	DB	085H
	DB	0a5H
	DB	086H
	DB	0a6H
	DB	0c6H
	DB	0e6H
	DB	06H
	DB	026H
	DB	046H
	DB	066H
	DB	08aH
	DB	0aaH
	DB	0caH
	DB	0eaH
	DB	0aH
	DB	02aH
	DB	04aH
	DB	06aH
	DB	049H
	DB	069H
	DB	09H
	DB	029H
	DB	0c9H
	DB	0e9H
	DB	089H
	DB	0a9H
	DB	0cfH
	DB	0efH
	DB	08fH
	DB	0afH
	DB	04fH
	DB	06fH
	DB	0fH
	DB	02fH
	DB	0cH
	DB	02cH
	DB	04cH
	DB	06cH
	DB	08cH
	DB	0acH
	DB	0ccH
	DB	0ecH
	DB	0d7H
	DB	0f7H
	DB	097H
	DB	0b7H
	DB	057H
	DB	077H
	DB	017H
	DB	037H
	DB	014H
	DB	034H
	DB	054H
	DB	074H
	DB	094H
	DB	0b4H
	DB	0d4H
	DB	0f4H
	DB	092H
	DB	0b2H
	DB	0d2H
	DB	0f2H
	DB	012H
	DB	032H
	DB	052H
	DB	072H
	DB	051H
	DB	071H
	DB	011H
	DB	031H
	DB	0d1H
	DB	0f1H
	DB	091H
	DB	0b1H
	DB	05dH
	DB	07dH
	DB	01dH
	DB	03dH
	DB	0ddH
	DB	0fdH
	DB	09dH
	DB	0bdH
	DB	09eH
	DB	0beH
	DB	0deH
	DB	0feH
	DB	01eH
	DB	03eH
	DB	05eH
	DB	07eH
	DB	018H
	DB	038H
	DB	058H
	DB	078H
	DB	098H
	DB	0b8H
	DB	0d8H
	DB	0f8H
	DB	0dbH
	DB	0fbH
	DB	09bH
	DB	0bbH
	DB	05bH
	DB	07bH
	DB	01bH
	DB	03bH
	DB	06dH
	DB	04dH
	DB	02dH
	DB	0dH
	DB	0edH
	DB	0cdH
	DB	0adH
	DB	08dH
	DB	0aeH
	DB	08eH
	DB	0eeH
	DB	0ceH
	DB	02eH
	DB	0eH
	DB	06eH
	DB	04eH
	DB	028H
	DB	08H
	DB	068H
	DB	048H
	DB	0a8H
	DB	088H
	DB	0e8H
	DB	0c8H
	DB	0ebH
	DB	0cbH
	DB	0abH
	DB	08bH
	DB	06bH
	DB	04bH
	DB	02bH
	DB	0bH
	DB	0e7H
	DB	0c7H
	DB	0a7H
	DB	087H
	DB	067H
	DB	047H
	DB	027H
	DB	07H
	DB	024H
	DB	04H
	DB	064H
	DB	044H
	DB	0a4H
	DB	084H
	DB	0e4H
	DB	0c4H
	DB	0a2H
	DB	082H
	DB	0e2H
	DB	0c2H
	DB	022H
	DB	02H
	DB	062H
	DB	042H
	DB	061H
	DB	041H
	DB	021H
	DB	01H
	DB	0e1H
	DB	0c1H
	DB	0a1H
	DB	081H
	DB	0baH
	DB	09aH
	DB	0faH
	DB	0daH
	DB	03aH
	DB	01aH
	DB	07aH
	DB	05aH
	DB	079H
	DB	059H
	DB	039H
	DB	019H
	DB	0f9H
	DB	0d9H
	DB	0b9H
	DB	099H
	DB	0ffH
	DB	0dfH
	DB	0bfH
	DB	09fH
	DB	07fH
	DB	05fH
	DB	03fH
	DB	01fH
	DB	03cH
	DB	01cH
	DB	07cH
	DB	05cH
	DB	0bcH
	DB	09cH
	DB	0fcH
	DB	0dcH
	DB	030H
	DB	010H
	DB	070H
	DB	050H
	DB	0b0H
	DB	090H
	DB	0f0H
	DB	0d0H
	DB	0f3H
	DB	0d3H
	DB	0b3H
	DB	093H
	DB	073H
	DB	053H
	DB	033H
	DB	013H
	DB	075H
	DB	055H
	DB	035H
	DB	015H
	DB	0f5H
	DB	0d5H
	DB	0b5H
	DB	095H
	DB	0b6H
	DB	096H
	DB	0f6H
	DB	0d6H
	DB	036H
	DB	016H
	DB	076H
	DB	056H
	DB	00H
	DB	085H
	DB	0c9H
	DB	04cH
	DB	051H
	DB	0d4H
	DB	098H
	DB	01dH
	DB	0a2H
	DB	027H
	DB	06bH
	DB	0eeH
	DB	0f3H
	DB	076H
	DB	03aH
	DB	0bfH
	DB	087H
	DB	02H
	DB	04eH
	DB	0cbH
	DB	0d6H
	DB	053H
	DB	01fH
	DB	09aH
	DB	025H
	DB	0a0H
	DB	0ecH
	DB	069H
	DB	074H
	DB	0f1H
	DB	0bdH
	DB	038H
	DB	0cdH
	DB	048H
	DB	04H
	DB	081H
	DB	09cH
	DB	019H
	DB	055H
	DB	0d0H
	DB	06fH
	DB	0eaH
	DB	0a6H
	DB	023H
	DB	03eH
	DB	0bbH
	DB	0f7H
	DB	072H
	DB	04aH
	DB	0cfH
	DB	083H
	DB	06H
	DB	01bH
	DB	09eH
	DB	0d2H
	DB	057H
	DB	0e8H
	DB	06dH
	DB	021H
	DB	0a4H
	DB	0b9H
	DB	03cH
	DB	070H
	DB	0f5H
	DB	059H
	DB	0dcH
	DB	090H
	DB	015H
	DB	08H
	DB	08dH
	DB	0c1H
	DB	044H
	DB	0fbH
	DB	07eH
	DB	032H
	DB	0b7H
	DB	0aaH
	DB	02fH
	DB	063H
	DB	0e6H
	DB	0deH
	DB	05bH
	DB	017H
	DB	092H
	DB	08fH
	DB	0aH
	DB	046H
	DB	0c3H
	DB	07cH
	DB	0f9H
	DB	0b5H
	DB	030H
	DB	02dH
	DB	0a8H
	DB	0e4H
	DB	061H
	DB	094H
	DB	011H
	DB	05dH
	DB	0d8H
	DB	0c5H
	DB	040H
	DB	0cH
	DB	089H
	DB	036H
	DB	0b3H
	DB	0ffH
	DB	07aH
	DB	067H
	DB	0e2H
	DB	0aeH
	DB	02bH
	DB	013H
	DB	096H
	DB	0daH
	DB	05fH
	DB	042H
	DB	0c7H
	DB	08bH
	DB	0eH
	DB	0b1H
	DB	034H
	DB	078H
	DB	0fdH
	DB	0e0H
	DB	065H
	DB	029H
	DB	0acH
	DB	0b2H
	DB	037H
	DB	07bH
	DB	0feH
	DB	0e3H
	DB	066H
	DB	02aH
	DB	0afH
	DB	010H
	DB	095H
	DB	0d9H
	DB	05cH
	DB	041H
	DB	0c4H
	DB	088H
	DB	0dH
	DB	035H
	DB	0b0H
	DB	0fcH
	DB	079H
	DB	064H
	DB	0e1H
	DB	0adH
	DB	028H
	DB	097H
	DB	012H
	DB	05eH
	DB	0dbH
	DB	0c6H
	DB	043H
	DB	0fH
	DB	08aH
	DB	07fH
	DB	0faH
	DB	0b6H
	DB	033H
	DB	02eH
	DB	0abH
	DB	0e7H
	DB	062H
	DB	0ddH
	DB	058H
	DB	014H
	DB	091H
	DB	08cH
	DB	09H
	DB	045H
	DB	0c0H
	DB	0f8H
	DB	07dH
	DB	031H
	DB	0b4H
	DB	0a9H
	DB	02cH
	DB	060H
	DB	0e5H
	DB	05aH
	DB	0dfH
	DB	093H
	DB	016H
	DB	0bH
	DB	08eH
	DB	0c2H
	DB	047H
	DB	0ebH
	DB	06eH
	DB	022H
	DB	0a7H
	DB	0baH
	DB	03fH
	DB	073H
	DB	0f6H
	DB	049H
	DB	0ccH
	DB	080H
	DB	05H
	DB	018H
	DB	09dH
	DB	0d1H
	DB	054H
	DB	06cH
	DB	0e9H
	DB	0a5H
	DB	020H
	DB	03dH
	DB	0b8H
	DB	0f4H
	DB	071H
	DB	0ceH
	DB	04bH
	DB	07H
	DB	082H
	DB	09fH
	DB	01aH
	DB	056H
	DB	0d3H
	DB	026H
	DB	0a3H
	DB	0efH
	DB	06aH
	DB	077H
	DB	0f2H
	DB	0beH
	DB	03bH
	DB	084H
	DB	01H
	DB	04dH
	DB	0c8H
	DB	0d5H
	DB	050H
	DB	01cH
	DB	099H
	DB	0a1H
	DB	024H
	DB	068H
	DB	0edH
	DB	0f0H
	DB	075H
	DB	039H
	DB	0bcH
	DB	03H
	DB	086H
	DB	0caH
	DB	04fH
	DB	052H
	DB	0d7H
	DB	09bH
	DB	01eH
	DB	00H
	DB	094H
	DB	0ebH
	DB	07fH
	DB	015H
	DB	081H
	DB	0feH
	DB	06aH
	DB	02aH
	DB	0beH
	DB	0c1H
	DB	055H
	DB	03fH
	DB	0abH
	DB	0d4H
	DB	040H
	DB	054H
	DB	0c0H
	DB	0bfH
	DB	02bH
	DB	041H
	DB	0d5H
	DB	0aaH
	DB	03eH
	DB	07eH
	DB	0eaH
	DB	095H
	DB	01H
	DB	06bH
	DB	0ffH
	DB	080H
	DB	014H
	DB	0a8H
	DB	03cH
	DB	043H
	DB	0d7H
	DB	0bdH
	DB	029H
	DB	056H
	DB	0c2H
	DB	082H
	DB	016H
	DB	069H
	DB	0fdH
	DB	097H
	DB	03H
	DB	07cH
	DB	0e8H
	DB	0fcH
	DB	068H
	DB	017H
	DB	083H
	DB	0e9H
	DB	07dH
	DB	02H
	DB	096H
	DB	0d6H
	DB	042H
	DB	03dH
	DB	0a9H
	DB	0c3H
	DB	057H
	DB	028H
	DB	0bcH
	DB	093H
	DB	07H
	DB	078H
	DB	0ecH
	DB	086H
	DB	012H
	DB	06dH
	DB	0f9H
	DB	0b9H
	DB	02dH
	DB	052H
	DB	0c6H
	DB	0acH
	DB	038H
	DB	047H
	DB	0d3H
	DB	0c7H
	DB	053H
	DB	02cH
	DB	0b8H
	DB	0d2H
	DB	046H
	DB	039H
	DB	0adH
	DB	0edH
	DB	079H
	DB	06H
	DB	092H
	DB	0f8H
	DB	06cH
	DB	013H
	DB	087H
	DB	03bH
	DB	0afH
	DB	0d0H
	DB	044H
	DB	02eH
	DB	0baH
	DB	0c5H
	DB	051H
	DB	011H
	DB	085H
	DB	0faH
	DB	06eH
	DB	04H
	DB	090H
	DB	0efH
	DB	07bH
	DB	06fH
	DB	0fbH
	DB	084H
	DB	010H
	DB	07aH
	DB	0eeH
	DB	091H
	DB	05H
	DB	045H
	DB	0d1H
	DB	0aeH
	DB	03aH
	DB	050H
	DB	0c4H
	DB	0bbH
	DB	02fH
	DB	0e5H
	DB	071H
	DB	0eH
	DB	09aH
	DB	0f0H
	DB	064H
	DB	01bH
	DB	08fH
	DB	0cfH
	DB	05bH
	DB	024H
	DB	0b0H
	DB	0daH
	DB	04eH
	DB	031H
	DB	0a5H
	DB	0b1H
	DB	025H
	DB	05aH
	DB	0ceH
	DB	0a4H
	DB	030H
	DB	04fH
	DB	0dbH
	DB	09bH
	DB	0fH
	DB	070H
	DB	0e4H
	DB	08eH
	DB	01aH
	DB	065H
	DB	0f1H
	DB	04dH
	DB	0d9H
	DB	0a6H
	DB	032H
	DB	058H
	DB	0ccH
	DB	0b3H
	DB	027H
	DB	067H
	DB	0f3H
	DB	08cH
	DB	018H
	DB	072H
	DB	0e6H
	DB	099H
	DB	0dH
	DB	019H
	DB	08dH
	DB	0f2H
	DB	066H
	DB	0cH
	DB	098H
	DB	0e7H
	DB	073H
	DB	033H
	DB	0a7H
	DB	0d8H
	DB	04cH
	DB	026H
	DB	0b2H
	DB	0cdH
	DB	059H
	DB	076H
	DB	0e2H
	DB	09dH
	DB	09H
	DB	063H
	DB	0f7H
	DB	088H
	DB	01cH
	DB	05cH
	DB	0c8H
	DB	0b7H
	DB	023H
	DB	049H
	DB	0ddH
	DB	0a2H
	DB	036H
	DB	022H
	DB	0b6H
	DB	0c9H
	DB	05dH
	DB	037H
	DB	0a3H
	DB	0dcH
	DB	048H
	DB	08H
	DB	09cH
	DB	0e3H
	DB	077H
	DB	01dH
	DB	089H
	DB	0f6H
	DB	062H
	DB	0deH
	DB	04aH
	DB	035H
	DB	0a1H
	DB	0cbH
	DB	05fH
	DB	020H
	DB	0b4H
	DB	0f4H
	DB	060H
	DB	01fH
	DB	08bH
	DB	0e1H
	DB	075H
	DB	0aH
	DB	09eH
	DB	08aH
	DB	01eH
	DB	061H
	DB	0f5H
	DB	09fH
	DB	0bH
	DB	074H
	DB	0e0H
	DB	0a0H
	DB	034H
	DB	04bH
	DB	0dfH
	DB	0b5H
	DB	021H
	DB	05eH
	DB	0caH
	DB	00H
	DB	0c0H
	DB	043H
	DB	083H
	DB	086H
	DB	046H
	DB	0c5H
	DB	05H
	DB	0cfH
	DB	0fH
	DB	08cH
	DB	04cH
	DB	049H
	DB	089H
	DB	0aH
	DB	0caH
	DB	05dH
	DB	09dH
	DB	01eH
	DB	0deH
	DB	0dbH
	DB	01bH
	DB	098H
	DB	058H
	DB	092H
	DB	052H
	DB	0d1H
	DB	011H
	DB	014H
	DB	0d4H
	DB	057H
	DB	097H
	DB	0baH
	DB	07aH
	DB	0f9H
	DB	039H
	DB	03cH
	DB	0fcH
	DB	07fH
	DB	0bfH
	DB	075H
	DB	0b5H
	DB	036H
	DB	0f6H
	DB	0f3H
	DB	033H
	DB	0b0H
	DB	070H
	DB	0e7H
	DB	027H
	DB	0a4H
	DB	064H
	DB	061H
	DB	0a1H
	DB	022H
	DB	0e2H
	DB	028H
	DB	0e8H
	DB	06bH
	DB	0abH
	DB	0aeH
	DB	06eH
	DB	0edH
	DB	02dH
	DB	0b7H
	DB	077H
	DB	0f4H
	DB	034H
	DB	031H
	DB	0f1H
	DB	072H
	DB	0b2H
	DB	078H
	DB	0b8H
	DB	03bH
	DB	0fbH
	DB	0feH
	DB	03eH
	DB	0bdH
	DB	07dH
	DB	0eaH
	DB	02aH
	DB	0a9H
	DB	069H
	DB	06cH
	DB	0acH
	DB	02fH
	DB	0efH
	DB	025H
	DB	0e5H
	DB	066H
	DB	0a6H
	DB	0a3H
	DB	063H
	DB	0e0H
	DB	020H
	DB	0dH
	DB	0cdH
	DB	04eH
	DB	08eH
	DB	08bH
	DB	04bH
	DB	0c8H
	DB	08H
	DB	0c2H
	DB	02H
	DB	081H
	DB	041H
	DB	044H
	DB	084H
	DB	07H
	DB	0c7H
	DB	050H
	DB	090H
	DB	013H
	DB	0d3H
	DB	0d6H
	DB	016H
	DB	095H
	DB	055H
	DB	09fH
	DB	05fH
	DB	0dcH
	DB	01cH
	DB	019H
	DB	0d9H
	DB	05aH
	DB	09aH
	DB	0adH
	DB	06dH
	DB	0eeH
	DB	02eH
	DB	02bH
	DB	0ebH
	DB	068H
	DB	0a8H
	DB	062H
	DB	0a2H
	DB	021H
	DB	0e1H
	DB	0e4H
	DB	024H
	DB	0a7H
	DB	067H
	DB	0f0H
	DB	030H
	DB	0b3H
	DB	073H
	DB	076H
	DB	0b6H
	DB	035H
	DB	0f5H
	DB	03fH
	DB	0ffH
	DB	07cH
	DB	0bcH
	DB	0b9H
	DB	079H
	DB	0faH
	DB	03aH
	DB	017H
	DB	0d7H
	DB	054H
	DB	094H
	DB	091H
	DB	051H
	DB	0d2H
	DB	012H
	DB	0d8H
	DB	018H
	DB	09bH
	DB	05bH
	DB	05eH
	DB	09eH
	DB	01dH
	DB	0ddH
	DB	04aH
	DB	08aH
	DB	09H
	DB	0c9H
	DB	0ccH
	DB	0cH
	DB	08fH
	DB	04fH
	DB	085H
	DB	045H
	DB	0c6H
	DB	06H
	DB	03H
	DB	0c3H
	DB	040H
	DB	080H
	DB	01aH
	DB	0daH
	DB	059H
	DB	099H
	DB	09cH
	DB	05cH
	DB	0dfH
	DB	01fH
	DB	0d5H
	DB	015H
	DB	096H
	DB	056H
	DB	053H
	DB	093H
	DB	010H
	DB	0d0H
	DB	047H
	DB	087H
	DB	04H
	DB	0c4H
	DB	0c1H
	DB	01H
	DB	082H
	DB	042H
	DB	088H
	DB	048H
	DB	0cbH
	DB	0bH
	DB	0eH
	DB	0ceH
	DB	04dH
	DB	08dH
	DB	0a0H
	DB	060H
	DB	0e3H
	DB	023H
	DB	026H
	DB	0e6H
	DB	065H
	DB	0a5H
	DB	06fH
	DB	0afH
	DB	02cH
	DB	0ecH
	DB	0e9H
	DB	029H
	DB	0aaH
	DB	06aH
	DB	0fdH
	DB	03dH
	DB	0beH
	DB	07eH
	DB	07bH
	DB	0bbH
	DB	038H
	DB	0f8H
	DB	032H
	DB	0f2H
	DB	071H
	DB	0b1H
	DB	0b4H
	DB	074H
	DB	0f7H
	DB	037H
	DB	00H
	DB	0c2H
	DB	047H
	DB	085H
	DB	08eH
	DB	04cH
	DB	0c9H
	DB	0bH
	DB	0dfH
	DB	01dH
	DB	098H
	DB	05aH
	DB	051H
	DB	093H
	DB	016H
	DB	0d4H
	DB	07dH
	DB	0bfH
	DB	03aH
	DB	0f8H
	DB	0f3H
	DB	031H
	DB	0b4H
	DB	076H
	DB	0a2H
	DB	060H
	DB	0e5H
	DB	027H
	DB	02cH
	DB	0eeH
	DB	06bH
	DB	0a9H
	DB	0faH
	DB	038H
	DB	0bdH
	DB	07fH
	DB	074H
	DB	0b6H
	DB	033H
	DB	0f1H
	DB	025H
	DB	0e7H
	DB	062H
	DB	0a0H
	DB	0abH
	DB	069H
	DB	0ecH
	DB	02eH
	DB	087H
	DB	045H
	DB	0c0H
	DB	02H
	DB	09H
	DB	0cbH
	DB	04eH
	DB	08cH
	DB	058H
	DB	09aH
	DB	01fH
	DB	0ddH
	DB	0d6H
	DB	014H
	DB	091H
	DB	053H
	DB	037H
	DB	0f5H
	DB	070H
	DB	0b2H
	DB	0b9H
	DB	07bH
	DB	0feH
	DB	03cH
	DB	0e8H
	DB	02aH
	DB	0afH
	DB	06dH
	DB	066H
	DB	0a4H
	DB	021H
	DB	0e3H
	DB	04aH
	DB	088H
	DB	0dH
	DB	0cfH
	DB	0c4H
	DB	06H
	DB	083H
	DB	041H
	DB	095H
	DB	057H
	DB	0d2H
	DB	010H
	DB	01bH
	DB	0d9H
	DB	05cH
	DB	09eH
	DB	0cdH
	DB	0fH
	DB	08aH
	DB	048H
	DB	043H
	DB	081H
	DB	04H
	DB	0c6H
	DB	012H
	DB	0d0H
	DB	055H
	DB	097H
	DB	09cH
	DB	05eH
	DB	0dbH
	DB	019H
	DB	0b0H
	DB	072H
	DB	0f7H
	DB	035H
	DB	03eH
	DB	0fcH
	DB	079H
	DB	0bbH
	DB	06fH
	DB	0adH
	DB	028H
	DB	0eaH
	DB	0e1H
	DB	023H
	DB	0a6H
	DB	064H
	DB	06eH
	DB	0acH
	DB	029H
	DB	0ebH
	DB	0e0H
	DB	022H
	DB	0a7H
	DB	065H
	DB	0b1H
	DB	073H
	DB	0f6H
	DB	034H
	DB	03fH
	DB	0fdH
	DB	078H
	DB	0baH
	DB	013H
	DB	0d1H
	DB	054H
	DB	096H
	DB	09dH
	DB	05fH
	DB	0daH
	DB	018H
	DB	0ccH
	DB	0eH
	DB	08bH
	DB	049H
	DB	042H
	DB	080H
	DB	05H
	DB	0c7H
	DB	094H
	DB	056H
	DB	0d3H
	DB	011H
	DB	01aH
	DB	0d8H
	DB	05dH
	DB	09fH
	DB	04bH
	DB	089H
	DB	0cH
	DB	0ceH
	DB	0c5H
	DB	07H
	DB	082H
	DB	040H
	DB	0e9H
	DB	02bH
	DB	0aeH
	DB	06cH
	DB	067H
	DB	0a5H
	DB	020H
	DB	0e2H
	DB	036H
	DB	0f4H
	DB	071H
	DB	0b3H
	DB	0b8H
	DB	07aH
	DB	0ffH
	DB	03dH
	DB	059H
	DB	09bH
	DB	01eH
	DB	0dcH
	DB	0d7H
	DB	015H
	DB	090H
	DB	052H
	DB	086H
	DB	044H
	DB	0c1H
	DB	03H
	DB	08H
	DB	0caH
	DB	04fH
	DB	08dH
	DB	024H
	DB	0e6H
	DB	063H
	DB	0a1H
	DB	0aaH
	DB	068H
	DB	0edH
	DB	02fH
	DB	0fbH
	DB	039H
	DB	0bcH
	DB	07eH
	DB	075H
	DB	0b7H
	DB	032H
	DB	0f0H
	DB	0a3H
	DB	061H
	DB	0e4H
	DB	026H
	DB	02dH
	DB	0efH
	DB	06aH
	DB	0a8H
	DB	07cH
	DB	0beH
	DB	03bH
	DB	0f9H
	DB	0f2H
	DB	030H
	DB	0b5H
	DB	077H
	DB	0deH
	DB	01cH
	DB	099H
	DB	05bH
	DB	050H
	DB	092H
	DB	017H
	DB	0d5H
	DB	01H
	DB	0c3H
	DB	046H
	DB	084H
	DB	08fH
	DB	04dH
	DB	0c8H
	DB	0aH
	DB	00H
	DB	0fbH
	DB	035H
	DB	0ceH
	DB	06aH
	DB	091H
	DB	05fH
	DB	0a4H
	DB	0d4H
	DB	02fH
	DB	0e1H
	DB	01aH
	DB	0beH
	DB	045H
	DB	08bH
	DB	070H
	DB	06bH
	DB	090H
	DB	05eH
	DB	0a5H
	DB	01H
	DB	0faH
	DB	034H
	DB	0cfH
	DB	0bfH
	DB	044H
	DB	08aH
	DB	071H
	DB	0d5H
	DB	02eH
	DB	0e0H
	DB	01bH
	DB	0d6H
	DB	02dH
	DB	0e3H
	DB	018H
	DB	0bcH
	DB	047H
	DB	089H
	DB	072H
	DB	02H
	DB	0f9H
	DB	037H
	DB	0ccH
	DB	068H
	DB	093H
	DB	05dH
	DB	0a6H
	DB	0bdH
	DB	046H
	DB	088H
	DB	073H
	DB	0d7H
	DB	02cH
	DB	0e2H
	DB	019H
	DB	069H
	DB	092H
	DB	05cH
	DB	0a7H
	DB	03H
	DB	0f8H
	DB	036H
	DB	0cdH
	DB	06fH
	DB	094H
	DB	05aH
	DB	0a1H
	DB	05H
	DB	0feH
	DB	030H
	DB	0cbH
	DB	0bbH
	DB	040H
	DB	08eH
	DB	075H
	DB	0d1H
	DB	02aH
	DB	0e4H
	DB	01fH
	DB	04H
	DB	0ffH
	DB	031H
	DB	0caH
	DB	06eH
	DB	095H
	DB	05bH
	DB	0a0H
	DB	0d0H
	DB	02bH
	DB	0e5H
	DB	01eH
	DB	0baH
	DB	041H
	DB	08fH
	DB	074H
	DB	0b9H
	DB	042H
	DB	08cH
	DB	077H
	DB	0d3H
	DB	028H
	DB	0e6H
	DB	01dH
	DB	06dH
	DB	096H
	DB	058H
	DB	0a3H
	DB	07H
	DB	0fcH
	DB	032H
	DB	0c9H
	DB	0d2H
	DB	029H
	DB	0e7H
	DB	01cH
	DB	0b8H
	DB	043H
	DB	08dH
	DB	076H
	DB	06H
	DB	0fdH
	DB	033H
	DB	0c8H
	DB	06cH
	DB	097H
	DB	059H
	DB	0a2H
	DB	0deH
	DB	025H
	DB	0ebH
	DB	010H
	DB	0b4H
	DB	04fH
	DB	081H
	DB	07aH
	DB	0aH
	DB	0f1H
	DB	03fH
	DB	0c4H
	DB	060H
	DB	09bH
	DB	055H
	DB	0aeH
	DB	0b5H
	DB	04eH
	DB	080H
	DB	07bH
	DB	0dfH
	DB	024H
	DB	0eaH
	DB	011H
	DB	061H
	DB	09aH
	DB	054H
	DB	0afH
	DB	0bH
	DB	0f0H
	DB	03eH
	DB	0c5H
	DB	08H
	DB	0f3H
	DB	03dH
	DB	0c6H
	DB	062H
	DB	099H
	DB	057H
	DB	0acH
	DB	0dcH
	DB	027H
	DB	0e9H
	DB	012H
	DB	0b6H
	DB	04dH
	DB	083H
	DB	078H
	DB	063H
	DB	098H
	DB	056H
	DB	0adH
	DB	09H
	DB	0f2H
	DB	03cH
	DB	0c7H
	DB	0b7H
	DB	04cH
	DB	082H
	DB	079H
	DB	0ddH
	DB	026H
	DB	0e8H
	DB	013H
	DB	0b1H
	DB	04aH
	DB	084H
	DB	07fH
	DB	0dbH
	DB	020H
	DB	0eeH
	DB	015H
	DB	065H
	DB	09eH
	DB	050H
	DB	0abH
	DB	0fH
	DB	0f4H
	DB	03aH
	DB	0c1H
	DB	0daH
	DB	021H
	DB	0efH
	DB	014H
	DB	0b0H
	DB	04bH
	DB	085H
	DB	07eH
	DB	0eH
	DB	0f5H
	DB	03bH
	DB	0c0H
	DB	064H
	DB	09fH
	DB	051H
	DB	0aaH
	DB	067H
	DB	09cH
	DB	052H
	DB	0a9H
	DB	0dH
	DB	0f6H
	DB	038H
	DB	0c3H
	DB	0b3H
	DB	048H
	DB	086H
	DB	07dH
	DB	0d9H
	DB	022H
	DB	0ecH
	DB	017H
	DB	0cH
	DB	0f7H
	DB	039H
	DB	0c2H
	DB	066H
	DB	09dH
	DB	053H
	DB	0a8H
	DB	0d8H
	DB	023H
	DB	0edH
	DB	016H
	DB	0b2H
	DB	049H
	DB	087H
	DB	07cH
PUBLIC	changeEndian
;	COMDAT pdata
; File c:\users\alexis\desktop\sources_gostcrypt_windows_1.3.1_commented\sources_gostcrypt_windows_1.3.1é\sources_gostcrypt_windows_1.3.1\crypto\grasshoppercipher.c
pdata	SEGMENT
$pdata$changeEndian DD imagerel $LN3
	DD	imagerel $LN3+121
	DD	imagerel $unwind$changeEndian
pdata	ENDS
;	COMDAT xdata
xdata	SEGMENT
$unwind$changeEndian DD 010901H
	DD	02209H
; Function compile flags: /Odtp
xdata	ENDS
;	COMDAT changeEndian
_TEXT	SEGMENT
tmp$ = 0
ret$ = 32
changeEndian PROC					; COMDAT

; 630  : {

$LN3:
  00000	48 89 4c 24 08	 mov	 QWORD PTR [rsp+8], rcx
  00005	48 83 ec 18	 sub	 rsp, 24

; 631  : 	unsigned long tmp = 0L;

  00009	c7 04 24 00 00
	00 00		 mov	 DWORD PTR tmp$[rsp], 0

; 632  : 
; 633  : 	tmp  = (*ret & 0xFF) << 24;

  00010	48 8b 44 24 20	 mov	 rax, QWORD PTR ret$[rsp]
  00015	8b 00		 mov	 eax, DWORD PTR [rax]
  00017	25 ff 00 00 00	 and	 eax, 255		; 000000ffH
  0001c	c1 e0 18	 shl	 eax, 24
  0001f	89 04 24	 mov	 DWORD PTR tmp$[rsp], eax

; 634  : 	tmp |= (*ret & 0xFF00) << 8;

  00022	48 8b 44 24 20	 mov	 rax, QWORD PTR ret$[rsp]
  00027	8b 08		 mov	 ecx, DWORD PTR [rax]
  00029	81 e1 00 ff 00
	00		 and	 ecx, 65280		; 0000ff00H
  0002f	c1 e1 08	 shl	 ecx, 8
  00032	8b 04 24	 mov	 eax, DWORD PTR tmp$[rsp]
  00035	0b c1		 or	 eax, ecx
  00037	89 04 24	 mov	 DWORD PTR tmp$[rsp], eax

; 635  : 	tmp |= (*ret & 0xFF0000) >> 8;

  0003a	48 8b 44 24 20	 mov	 rax, QWORD PTR ret$[rsp]
  0003f	8b 08		 mov	 ecx, DWORD PTR [rax]
  00041	81 e1 00 00 ff
	00		 and	 ecx, 16711680		; 00ff0000H
  00047	c1 e9 08	 shr	 ecx, 8
  0004a	8b 04 24	 mov	 eax, DWORD PTR tmp$[rsp]
  0004d	0b c1		 or	 eax, ecx
  0004f	89 04 24	 mov	 DWORD PTR tmp$[rsp], eax

; 636  : 	tmp |= (*ret & 0xFF000000) >> 24;

  00052	48 8b 44 24 20	 mov	 rax, QWORD PTR ret$[rsp]
  00057	8b 08		 mov	 ecx, DWORD PTR [rax]
  00059	81 e1 00 00 00
	ff		 and	 ecx, -16777216		; ff000000H
  0005f	c1 e9 18	 shr	 ecx, 24
  00062	8b 04 24	 mov	 eax, DWORD PTR tmp$[rsp]
  00065	0b c1		 or	 eax, ecx
  00067	89 04 24	 mov	 DWORD PTR tmp$[rsp], eax

; 637  : 	*ret = tmp;

  0006a	48 8b 4c 24 20	 mov	 rcx, QWORD PTR ret$[rsp]
  0006f	8b 04 24	 mov	 eax, DWORD PTR tmp$[rsp]
  00072	89 01		 mov	 DWORD PTR [rcx], eax

; 638  : 
; 639  : 	return;
; 640  : }

  00074	48 83 c4 18	 add	 rsp, 24
  00078	c3		 ret	 0
changeEndian ENDP
_TEXT	ENDS
PUBLIC	grasshopper_xor_ks
;	COMDAT pdata
pdata	SEGMENT
$pdata$grasshopper_xor_ks DD imagerel $LN7
	DD	imagerel $LN7+2209
	DD	imagerel $unwind$grasshopper_xor_ks
pdata	ENDS
;	COMDAT xdata
xdata	SEGMENT
$unwind$grasshopper_xor_ks DD 011801H
	DD	02218H
; Function compile flags: /Odtp
xdata	ENDS
;	COMDAT grasshopper_xor_ks
_TEXT	SEGMENT
i$ = 0
ks$ = 32
out_ks$ = 40
in$ = 48
len$ = 56
grasshopper_xor_ks PROC					; COMDAT

; 591  : {

$LN7:
  00000	44 89 4c 24 20	 mov	 DWORD PTR [rsp+32], r9d
  00005	4c 89 44 24 18	 mov	 QWORD PTR [rsp+24], r8
  0000a	48 89 54 24 10	 mov	 QWORD PTR [rsp+16], rdx
  0000f	48 89 4c 24 08	 mov	 QWORD PTR [rsp+8], rcx
  00014	48 83 ec 18	 sub	 rsp, 24

; 592  : 	unsigned long i;
; 593  : 	if (!len)

  00018	83 7c 24 38 00	 cmp	 DWORD PTR len$[rsp], 0
  0001d	75 05		 jne	 SHORT $LN4@grasshoppe

; 594  : 		return;

  0001f	e9 78 08 00 00	 jmp	 $LN5@grasshoppe
$LN4@grasshoppe:

; 595  : 
; 596  : 	out_ks->y000 = ks->y000 ^ in[0]; out_ks->y001 = ks->y001 ^ in[0]; out_ks->y010 = ks->y010 ^ in[0]; out_ks->y011 = ks->y011 ^ in[0];

  00024	48 8b 4c 24 20	 mov	 rcx, QWORD PTR ks$[rsp]
  00029	48 8b 44 24 30	 mov	 rax, QWORD PTR in$[rsp]
  0002e	8b 00		 mov	 eax, DWORD PTR [rax]
  00030	8b 09		 mov	 ecx, DWORD PTR [rcx]
  00032	33 c8		 xor	 ecx, eax
  00034	48 8b 44 24 28	 mov	 rax, QWORD PTR out_ks$[rsp]
  00039	89 08		 mov	 DWORD PTR [rax], ecx
  0003b	48 8b 4c 24 20	 mov	 rcx, QWORD PTR ks$[rsp]
  00040	48 8b 44 24 30	 mov	 rax, QWORD PTR in$[rsp]
  00045	8b 00		 mov	 eax, DWORD PTR [rax]
  00047	8b 49 04	 mov	 ecx, DWORD PTR [rcx+4]
  0004a	33 c8		 xor	 ecx, eax
  0004c	48 8b 44 24 28	 mov	 rax, QWORD PTR out_ks$[rsp]
  00051	89 48 04	 mov	 DWORD PTR [rax+4], ecx
  00054	48 8b 4c 24 20	 mov	 rcx, QWORD PTR ks$[rsp]
  00059	48 8b 44 24 30	 mov	 rax, QWORD PTR in$[rsp]
  0005e	8b 00		 mov	 eax, DWORD PTR [rax]
  00060	8b 49 08	 mov	 ecx, DWORD PTR [rcx+8]
  00063	33 c8		 xor	 ecx, eax
  00065	48 8b 44 24 28	 mov	 rax, QWORD PTR out_ks$[rsp]
  0006a	89 48 08	 mov	 DWORD PTR [rax+8], ecx
  0006d	48 8b 4c 24 20	 mov	 rcx, QWORD PTR ks$[rsp]
  00072	48 8b 44 24 30	 mov	 rax, QWORD PTR in$[rsp]
  00077	8b 00		 mov	 eax, DWORD PTR [rax]
  00079	8b 49 0c	 mov	 ecx, DWORD PTR [rcx+12]
  0007c	33 c8		 xor	 ecx, eax
  0007e	48 8b 44 24 28	 mov	 rax, QWORD PTR out_ks$[rsp]
  00083	89 48 0c	 mov	 DWORD PTR [rax+12], ecx

; 597  : 	out_ks->y100 = ks->y100 ^ in[0]; out_ks->y101 = ks->y101 ^ in[0]; out_ks->y110 = ks->y110 ^ in[0]; out_ks->y111 = ks->y111 ^ in[0];

  00086	48 8b 4c 24 20	 mov	 rcx, QWORD PTR ks$[rsp]
  0008b	48 8b 44 24 30	 mov	 rax, QWORD PTR in$[rsp]
  00090	8b 00		 mov	 eax, DWORD PTR [rax]
  00092	8b 49 10	 mov	 ecx, DWORD PTR [rcx+16]
  00095	33 c8		 xor	 ecx, eax
  00097	48 8b 44 24 28	 mov	 rax, QWORD PTR out_ks$[rsp]
  0009c	89 48 10	 mov	 DWORD PTR [rax+16], ecx
  0009f	48 8b 4c 24 20	 mov	 rcx, QWORD PTR ks$[rsp]
  000a4	48 8b 44 24 30	 mov	 rax, QWORD PTR in$[rsp]
  000a9	8b 00		 mov	 eax, DWORD PTR [rax]
  000ab	8b 49 14	 mov	 ecx, DWORD PTR [rcx+20]
  000ae	33 c8		 xor	 ecx, eax
  000b0	48 8b 44 24 28	 mov	 rax, QWORD PTR out_ks$[rsp]
  000b5	89 48 14	 mov	 DWORD PTR [rax+20], ecx
  000b8	48 8b 4c 24 20	 mov	 rcx, QWORD PTR ks$[rsp]
  000bd	48 8b 44 24 30	 mov	 rax, QWORD PTR in$[rsp]
  000c2	8b 00		 mov	 eax, DWORD PTR [rax]
  000c4	8b 49 18	 mov	 ecx, DWORD PTR [rcx+24]
  000c7	33 c8		 xor	 ecx, eax
  000c9	48 8b 44 24 28	 mov	 rax, QWORD PTR out_ks$[rsp]
  000ce	89 48 18	 mov	 DWORD PTR [rax+24], ecx
  000d1	48 8b 4c 24 20	 mov	 rcx, QWORD PTR ks$[rsp]
  000d6	48 8b 44 24 30	 mov	 rax, QWORD PTR in$[rsp]
  000db	8b 00		 mov	 eax, DWORD PTR [rax]
  000dd	8b 49 1c	 mov	 ecx, DWORD PTR [rcx+28]
  000e0	33 c8		 xor	 ecx, eax
  000e2	48 8b 44 24 28	 mov	 rax, QWORD PTR out_ks$[rsp]
  000e7	89 48 1c	 mov	 DWORD PTR [rax+28], ecx

; 598  : 	out_ks->y200 = ks->y200 ^ in[0]; out_ks->y201 = ks->y201 ^ in[0]; out_ks->y210 = ks->y210 ^ in[0]; out_ks->y211 = ks->y211 ^ in[0];

  000ea	48 8b 4c 24 20	 mov	 rcx, QWORD PTR ks$[rsp]
  000ef	48 8b 44 24 30	 mov	 rax, QWORD PTR in$[rsp]
  000f4	8b 00		 mov	 eax, DWORD PTR [rax]
  000f6	8b 49 20	 mov	 ecx, DWORD PTR [rcx+32]
  000f9	33 c8		 xor	 ecx, eax
  000fb	48 8b 44 24 28	 mov	 rax, QWORD PTR out_ks$[rsp]
  00100	89 48 20	 mov	 DWORD PTR [rax+32], ecx
  00103	48 8b 4c 24 20	 mov	 rcx, QWORD PTR ks$[rsp]
  00108	48 8b 44 24 30	 mov	 rax, QWORD PTR in$[rsp]
  0010d	8b 00		 mov	 eax, DWORD PTR [rax]
  0010f	8b 49 24	 mov	 ecx, DWORD PTR [rcx+36]
  00112	33 c8		 xor	 ecx, eax
  00114	48 8b 44 24 28	 mov	 rax, QWORD PTR out_ks$[rsp]
  00119	89 48 24	 mov	 DWORD PTR [rax+36], ecx
  0011c	48 8b 4c 24 20	 mov	 rcx, QWORD PTR ks$[rsp]
  00121	48 8b 44 24 30	 mov	 rax, QWORD PTR in$[rsp]
  00126	8b 00		 mov	 eax, DWORD PTR [rax]
  00128	8b 49 28	 mov	 ecx, DWORD PTR [rcx+40]
  0012b	33 c8		 xor	 ecx, eax
  0012d	48 8b 44 24 28	 mov	 rax, QWORD PTR out_ks$[rsp]
  00132	89 48 28	 mov	 DWORD PTR [rax+40], ecx
  00135	48 8b 4c 24 20	 mov	 rcx, QWORD PTR ks$[rsp]
  0013a	48 8b 44 24 30	 mov	 rax, QWORD PTR in$[rsp]
  0013f	8b 00		 mov	 eax, DWORD PTR [rax]
  00141	8b 49 2c	 mov	 ecx, DWORD PTR [rcx+44]
  00144	33 c8		 xor	 ecx, eax
  00146	48 8b 44 24 28	 mov	 rax, QWORD PTR out_ks$[rsp]
  0014b	89 48 2c	 mov	 DWORD PTR [rax+44], ecx

; 599  : 	out_ks->y300 = ks->y300 ^ in[0]; out_ks->y301 = ks->y301 ^ in[0]; out_ks->y310 = ks->y310 ^ in[0]; out_ks->y311 = ks->y311 ^ in[0];

  0014e	48 8b 4c 24 20	 mov	 rcx, QWORD PTR ks$[rsp]
  00153	48 8b 44 24 30	 mov	 rax, QWORD PTR in$[rsp]
  00158	8b 00		 mov	 eax, DWORD PTR [rax]
  0015a	8b 49 30	 mov	 ecx, DWORD PTR [rcx+48]
  0015d	33 c8		 xor	 ecx, eax
  0015f	48 8b 44 24 28	 mov	 rax, QWORD PTR out_ks$[rsp]
  00164	89 48 30	 mov	 DWORD PTR [rax+48], ecx
  00167	48 8b 4c 24 20	 mov	 rcx, QWORD PTR ks$[rsp]
  0016c	48 8b 44 24 30	 mov	 rax, QWORD PTR in$[rsp]
  00171	8b 00		 mov	 eax, DWORD PTR [rax]
  00173	8b 49 34	 mov	 ecx, DWORD PTR [rcx+52]
  00176	33 c8		 xor	 ecx, eax
  00178	48 8b 44 24 28	 mov	 rax, QWORD PTR out_ks$[rsp]
  0017d	89 48 34	 mov	 DWORD PTR [rax+52], ecx
  00180	48 8b 4c 24 20	 mov	 rcx, QWORD PTR ks$[rsp]
  00185	48 8b 44 24 30	 mov	 rax, QWORD PTR in$[rsp]
  0018a	8b 00		 mov	 eax, DWORD PTR [rax]
  0018c	8b 49 38	 mov	 ecx, DWORD PTR [rcx+56]
  0018f	33 c8		 xor	 ecx, eax
  00191	48 8b 44 24 28	 mov	 rax, QWORD PTR out_ks$[rsp]
  00196	89 48 38	 mov	 DWORD PTR [rax+56], ecx
  00199	48 8b 4c 24 20	 mov	 rcx, QWORD PTR ks$[rsp]
  0019e	48 8b 44 24 30	 mov	 rax, QWORD PTR in$[rsp]
  001a3	8b 00		 mov	 eax, DWORD PTR [rax]
  001a5	8b 49 3c	 mov	 ecx, DWORD PTR [rcx+60]
  001a8	33 c8		 xor	 ecx, eax
  001aa	48 8b 44 24 28	 mov	 rax, QWORD PTR out_ks$[rsp]
  001af	89 48 3c	 mov	 DWORD PTR [rax+60], ecx

; 600  : 	out_ks->y400 = ks->y400 ^ in[0]; out_ks->y401 = ks->y401 ^ in[0]; out_ks->y410 = ks->y410 ^ in[0]; out_ks->y411 = ks->y411 ^ in[0];

  001b2	48 8b 4c 24 20	 mov	 rcx, QWORD PTR ks$[rsp]
  001b7	48 8b 44 24 30	 mov	 rax, QWORD PTR in$[rsp]
  001bc	8b 00		 mov	 eax, DWORD PTR [rax]
  001be	8b 49 40	 mov	 ecx, DWORD PTR [rcx+64]
  001c1	33 c8		 xor	 ecx, eax
  001c3	48 8b 44 24 28	 mov	 rax, QWORD PTR out_ks$[rsp]
  001c8	89 48 40	 mov	 DWORD PTR [rax+64], ecx
  001cb	48 8b 4c 24 20	 mov	 rcx, QWORD PTR ks$[rsp]
  001d0	48 8b 44 24 30	 mov	 rax, QWORD PTR in$[rsp]
  001d5	8b 00		 mov	 eax, DWORD PTR [rax]
  001d7	8b 49 44	 mov	 ecx, DWORD PTR [rcx+68]
  001da	33 c8		 xor	 ecx, eax
  001dc	48 8b 44 24 28	 mov	 rax, QWORD PTR out_ks$[rsp]
  001e1	89 48 44	 mov	 DWORD PTR [rax+68], ecx
  001e4	48 8b 4c 24 20	 mov	 rcx, QWORD PTR ks$[rsp]
  001e9	48 8b 44 24 30	 mov	 rax, QWORD PTR in$[rsp]
  001ee	8b 00		 mov	 eax, DWORD PTR [rax]
  001f0	8b 49 48	 mov	 ecx, DWORD PTR [rcx+72]
  001f3	33 c8		 xor	 ecx, eax
  001f5	48 8b 44 24 28	 mov	 rax, QWORD PTR out_ks$[rsp]
  001fa	89 48 48	 mov	 DWORD PTR [rax+72], ecx
  001fd	48 8b 4c 24 20	 mov	 rcx, QWORD PTR ks$[rsp]
  00202	48 8b 44 24 30	 mov	 rax, QWORD PTR in$[rsp]
  00207	8b 00		 mov	 eax, DWORD PTR [rax]
  00209	8b 49 4c	 mov	 ecx, DWORD PTR [rcx+76]
  0020c	33 c8		 xor	 ecx, eax
  0020e	48 8b 44 24 28	 mov	 rax, QWORD PTR out_ks$[rsp]
  00213	89 48 4c	 mov	 DWORD PTR [rax+76], ecx

; 601  : 	out_ks->y500 = ks->y500 ^ in[0]; out_ks->y501 = ks->y501 ^ in[0]; out_ks->y510 = ks->y510 ^ in[0]; out_ks->y511 = ks->y511 ^ in[0];

  00216	48 8b 4c 24 20	 mov	 rcx, QWORD PTR ks$[rsp]
  0021b	48 8b 44 24 30	 mov	 rax, QWORD PTR in$[rsp]
  00220	8b 00		 mov	 eax, DWORD PTR [rax]
  00222	8b 49 50	 mov	 ecx, DWORD PTR [rcx+80]
  00225	33 c8		 xor	 ecx, eax
  00227	48 8b 44 24 28	 mov	 rax, QWORD PTR out_ks$[rsp]
  0022c	89 48 50	 mov	 DWORD PTR [rax+80], ecx
  0022f	48 8b 4c 24 20	 mov	 rcx, QWORD PTR ks$[rsp]
  00234	48 8b 44 24 30	 mov	 rax, QWORD PTR in$[rsp]
  00239	8b 00		 mov	 eax, DWORD PTR [rax]
  0023b	8b 49 54	 mov	 ecx, DWORD PTR [rcx+84]
  0023e	33 c8		 xor	 ecx, eax
  00240	48 8b 44 24 28	 mov	 rax, QWORD PTR out_ks$[rsp]
  00245	89 48 54	 mov	 DWORD PTR [rax+84], ecx
  00248	48 8b 4c 24 20	 mov	 rcx, QWORD PTR ks$[rsp]
  0024d	48 8b 44 24 30	 mov	 rax, QWORD PTR in$[rsp]
  00252	8b 00		 mov	 eax, DWORD PTR [rax]
  00254	8b 49 58	 mov	 ecx, DWORD PTR [rcx+88]
  00257	33 c8		 xor	 ecx, eax
  00259	48 8b 44 24 28	 mov	 rax, QWORD PTR out_ks$[rsp]
  0025e	89 48 58	 mov	 DWORD PTR [rax+88], ecx
  00261	48 8b 4c 24 20	 mov	 rcx, QWORD PTR ks$[rsp]
  00266	48 8b 44 24 30	 mov	 rax, QWORD PTR in$[rsp]
  0026b	8b 00		 mov	 eax, DWORD PTR [rax]
  0026d	8b 49 5c	 mov	 ecx, DWORD PTR [rcx+92]
  00270	33 c8		 xor	 ecx, eax
  00272	48 8b 44 24 28	 mov	 rax, QWORD PTR out_ks$[rsp]
  00277	89 48 5c	 mov	 DWORD PTR [rax+92], ecx

; 602  : 	out_ks->y600 = ks->y600 ^ in[0]; out_ks->y601 = ks->y601 ^ in[0]; out_ks->y610 = ks->y610 ^ in[0]; out_ks->y611 = ks->y611 ^ in[0];

  0027a	48 8b 4c 24 20	 mov	 rcx, QWORD PTR ks$[rsp]
  0027f	48 8b 44 24 30	 mov	 rax, QWORD PTR in$[rsp]
  00284	8b 00		 mov	 eax, DWORD PTR [rax]
  00286	8b 49 60	 mov	 ecx, DWORD PTR [rcx+96]
  00289	33 c8		 xor	 ecx, eax
  0028b	48 8b 44 24 28	 mov	 rax, QWORD PTR out_ks$[rsp]
  00290	89 48 60	 mov	 DWORD PTR [rax+96], ecx
  00293	48 8b 4c 24 20	 mov	 rcx, QWORD PTR ks$[rsp]
  00298	48 8b 44 24 30	 mov	 rax, QWORD PTR in$[rsp]
  0029d	8b 00		 mov	 eax, DWORD PTR [rax]
  0029f	8b 49 64	 mov	 ecx, DWORD PTR [rcx+100]
  002a2	33 c8		 xor	 ecx, eax
  002a4	48 8b 44 24 28	 mov	 rax, QWORD PTR out_ks$[rsp]
  002a9	89 48 64	 mov	 DWORD PTR [rax+100], ecx
  002ac	48 8b 4c 24 20	 mov	 rcx, QWORD PTR ks$[rsp]
  002b1	48 8b 44 24 30	 mov	 rax, QWORD PTR in$[rsp]
  002b6	8b 00		 mov	 eax, DWORD PTR [rax]
  002b8	8b 49 68	 mov	 ecx, DWORD PTR [rcx+104]
  002bb	33 c8		 xor	 ecx, eax
  002bd	48 8b 44 24 28	 mov	 rax, QWORD PTR out_ks$[rsp]
  002c2	89 48 68	 mov	 DWORD PTR [rax+104], ecx
  002c5	48 8b 4c 24 20	 mov	 rcx, QWORD PTR ks$[rsp]
  002ca	48 8b 44 24 30	 mov	 rax, QWORD PTR in$[rsp]
  002cf	8b 00		 mov	 eax, DWORD PTR [rax]
  002d1	8b 49 6c	 mov	 ecx, DWORD PTR [rcx+108]
  002d4	33 c8		 xor	 ecx, eax
  002d6	48 8b 44 24 28	 mov	 rax, QWORD PTR out_ks$[rsp]
  002db	89 48 6c	 mov	 DWORD PTR [rax+108], ecx

; 603  : 	out_ks->y700 = ks->y700 ^ in[0]; out_ks->y701 = ks->y701 ^ in[0]; out_ks->y710 = ks->y710 ^ in[0]; out_ks->y711 = ks->y711 ^ in[0];

  002de	48 8b 4c 24 20	 mov	 rcx, QWORD PTR ks$[rsp]
  002e3	48 8b 44 24 30	 mov	 rax, QWORD PTR in$[rsp]
  002e8	8b 00		 mov	 eax, DWORD PTR [rax]
  002ea	8b 49 70	 mov	 ecx, DWORD PTR [rcx+112]
  002ed	33 c8		 xor	 ecx, eax
  002ef	48 8b 44 24 28	 mov	 rax, QWORD PTR out_ks$[rsp]
  002f4	89 48 70	 mov	 DWORD PTR [rax+112], ecx
  002f7	48 8b 4c 24 20	 mov	 rcx, QWORD PTR ks$[rsp]
  002fc	48 8b 44 24 30	 mov	 rax, QWORD PTR in$[rsp]
  00301	8b 00		 mov	 eax, DWORD PTR [rax]
  00303	8b 49 74	 mov	 ecx, DWORD PTR [rcx+116]
  00306	33 c8		 xor	 ecx, eax
  00308	48 8b 44 24 28	 mov	 rax, QWORD PTR out_ks$[rsp]
  0030d	89 48 74	 mov	 DWORD PTR [rax+116], ecx
  00310	48 8b 4c 24 20	 mov	 rcx, QWORD PTR ks$[rsp]
  00315	48 8b 44 24 30	 mov	 rax, QWORD PTR in$[rsp]
  0031a	8b 00		 mov	 eax, DWORD PTR [rax]
  0031c	8b 49 78	 mov	 ecx, DWORD PTR [rcx+120]
  0031f	33 c8		 xor	 ecx, eax
  00321	48 8b 44 24 28	 mov	 rax, QWORD PTR out_ks$[rsp]
  00326	89 48 78	 mov	 DWORD PTR [rax+120], ecx
  00329	48 8b 4c 24 20	 mov	 rcx, QWORD PTR ks$[rsp]
  0032e	48 8b 44 24 30	 mov	 rax, QWORD PTR in$[rsp]
  00333	8b 00		 mov	 eax, DWORD PTR [rax]
  00335	8b 49 7c	 mov	 ecx, DWORD PTR [rcx+124]
  00338	33 c8		 xor	 ecx, eax
  0033a	48 8b 44 24 28	 mov	 rax, QWORD PTR out_ks$[rsp]
  0033f	89 48 7c	 mov	 DWORD PTR [rax+124], ecx

; 604  : 	out_ks->y800 = ks->y800 ^ in[0]; out_ks->y801 = ks->y801 ^ in[0]; out_ks->y810 = ks->y810 ^ in[0]; out_ks->y811 = ks->y811 ^ in[0];

  00342	48 8b 4c 24 20	 mov	 rcx, QWORD PTR ks$[rsp]
  00347	48 8b 44 24 30	 mov	 rax, QWORD PTR in$[rsp]
  0034c	8b 00		 mov	 eax, DWORD PTR [rax]
  0034e	8b 89 80 00 00
	00		 mov	 ecx, DWORD PTR [rcx+128]
  00354	33 c8		 xor	 ecx, eax
  00356	48 8b 44 24 28	 mov	 rax, QWORD PTR out_ks$[rsp]
  0035b	89 88 80 00 00
	00		 mov	 DWORD PTR [rax+128], ecx
  00361	48 8b 4c 24 20	 mov	 rcx, QWORD PTR ks$[rsp]
  00366	48 8b 44 24 30	 mov	 rax, QWORD PTR in$[rsp]
  0036b	8b 00		 mov	 eax, DWORD PTR [rax]
  0036d	8b 89 84 00 00
	00		 mov	 ecx, DWORD PTR [rcx+132]
  00373	33 c8		 xor	 ecx, eax
  00375	48 8b 44 24 28	 mov	 rax, QWORD PTR out_ks$[rsp]
  0037a	89 88 84 00 00
	00		 mov	 DWORD PTR [rax+132], ecx
  00380	48 8b 4c 24 20	 mov	 rcx, QWORD PTR ks$[rsp]
  00385	48 8b 44 24 30	 mov	 rax, QWORD PTR in$[rsp]
  0038a	8b 00		 mov	 eax, DWORD PTR [rax]
  0038c	8b 89 88 00 00
	00		 mov	 ecx, DWORD PTR [rcx+136]
  00392	33 c8		 xor	 ecx, eax
  00394	48 8b 44 24 28	 mov	 rax, QWORD PTR out_ks$[rsp]
  00399	89 88 88 00 00
	00		 mov	 DWORD PTR [rax+136], ecx
  0039f	48 8b 4c 24 20	 mov	 rcx, QWORD PTR ks$[rsp]
  003a4	48 8b 44 24 30	 mov	 rax, QWORD PTR in$[rsp]
  003a9	8b 00		 mov	 eax, DWORD PTR [rax]
  003ab	8b 89 8c 00 00
	00		 mov	 ecx, DWORD PTR [rcx+140]
  003b1	33 c8		 xor	 ecx, eax
  003b3	48 8b 44 24 28	 mov	 rax, QWORD PTR out_ks$[rsp]
  003b8	89 88 8c 00 00
	00		 mov	 DWORD PTR [rax+140], ecx

; 605  : 	out_ks->y900 = ks->y900 ^ in[0]; out_ks->y901 = ks->y901 ^ in[0]; out_ks->y910 = ks->y910 ^ in[0]; out_ks->y911 = ks->y911 ^ in[0];

  003be	48 8b 4c 24 20	 mov	 rcx, QWORD PTR ks$[rsp]
  003c3	48 8b 44 24 30	 mov	 rax, QWORD PTR in$[rsp]
  003c8	8b 00		 mov	 eax, DWORD PTR [rax]
  003ca	8b 89 90 00 00
	00		 mov	 ecx, DWORD PTR [rcx+144]
  003d0	33 c8		 xor	 ecx, eax
  003d2	48 8b 44 24 28	 mov	 rax, QWORD PTR out_ks$[rsp]
  003d7	89 88 90 00 00
	00		 mov	 DWORD PTR [rax+144], ecx
  003dd	48 8b 4c 24 20	 mov	 rcx, QWORD PTR ks$[rsp]
  003e2	48 8b 44 24 30	 mov	 rax, QWORD PTR in$[rsp]
  003e7	8b 00		 mov	 eax, DWORD PTR [rax]
  003e9	8b 89 94 00 00
	00		 mov	 ecx, DWORD PTR [rcx+148]
  003ef	33 c8		 xor	 ecx, eax
  003f1	48 8b 44 24 28	 mov	 rax, QWORD PTR out_ks$[rsp]
  003f6	89 88 94 00 00
	00		 mov	 DWORD PTR [rax+148], ecx
  003fc	48 8b 4c 24 20	 mov	 rcx, QWORD PTR ks$[rsp]
  00401	48 8b 44 24 30	 mov	 rax, QWORD PTR in$[rsp]
  00406	8b 00		 mov	 eax, DWORD PTR [rax]
  00408	8b 89 98 00 00
	00		 mov	 ecx, DWORD PTR [rcx+152]
  0040e	33 c8		 xor	 ecx, eax
  00410	48 8b 44 24 28	 mov	 rax, QWORD PTR out_ks$[rsp]
  00415	89 88 98 00 00
	00		 mov	 DWORD PTR [rax+152], ecx
  0041b	48 8b 4c 24 20	 mov	 rcx, QWORD PTR ks$[rsp]
  00420	48 8b 44 24 30	 mov	 rax, QWORD PTR in$[rsp]
  00425	8b 00		 mov	 eax, DWORD PTR [rax]
  00427	8b 89 9c 00 00
	00		 mov	 ecx, DWORD PTR [rcx+156]
  0042d	33 c8		 xor	 ecx, eax
  0042f	48 8b 44 24 28	 mov	 rax, QWORD PTR out_ks$[rsp]
  00434	89 88 9c 00 00
	00		 mov	 DWORD PTR [rax+156], ecx

; 606  : 	for (i = 1; i < len; i++)

  0043a	c7 04 24 01 00
	00 00		 mov	 DWORD PTR i$[rsp], 1
  00441	eb 09		 jmp	 SHORT $LN3@grasshoppe
$LN2@grasshoppe:
  00443	8b 04 24	 mov	 eax, DWORD PTR i$[rsp]
  00446	83 c0 01	 add	 eax, 1
  00449	89 04 24	 mov	 DWORD PTR i$[rsp], eax
$LN3@grasshoppe:
  0044c	8b 44 24 38	 mov	 eax, DWORD PTR len$[rsp]
  00450	39 04 24	 cmp	 DWORD PTR i$[rsp], eax
  00453	0f 83 43 04 00
	00		 jae	 $LN1@grasshoppe

; 607  : 	{
; 608  : 		out_ks->y000 = ks->y000 ^ in[i]; out_ks->y001 = ks->y001 ^ in[0]; out_ks->y010 = ks->y010 ^ in[0]; out_ks->y011 = ks->y011 ^ in[0];

  00459	8b 14 24	 mov	 edx, DWORD PTR i$[rsp]
  0045c	48 8b 4c 24 20	 mov	 rcx, QWORD PTR ks$[rsp]
  00461	48 8b 44 24 30	 mov	 rax, QWORD PTR in$[rsp]
  00466	8b 04 90	 mov	 eax, DWORD PTR [rax+rdx*4]
  00469	8b 09		 mov	 ecx, DWORD PTR [rcx]
  0046b	33 c8		 xor	 ecx, eax
  0046d	48 8b 44 24 28	 mov	 rax, QWORD PTR out_ks$[rsp]
  00472	89 08		 mov	 DWORD PTR [rax], ecx
  00474	48 8b 4c 24 20	 mov	 rcx, QWORD PTR ks$[rsp]
  00479	48 8b 44 24 30	 mov	 rax, QWORD PTR in$[rsp]
  0047e	8b 00		 mov	 eax, DWORD PTR [rax]
  00480	8b 49 04	 mov	 ecx, DWORD PTR [rcx+4]
  00483	33 c8		 xor	 ecx, eax
  00485	48 8b 44 24 28	 mov	 rax, QWORD PTR out_ks$[rsp]
  0048a	89 48 04	 mov	 DWORD PTR [rax+4], ecx
  0048d	48 8b 4c 24 20	 mov	 rcx, QWORD PTR ks$[rsp]
  00492	48 8b 44 24 30	 mov	 rax, QWORD PTR in$[rsp]
  00497	8b 00		 mov	 eax, DWORD PTR [rax]
  00499	8b 49 08	 mov	 ecx, DWORD PTR [rcx+8]
  0049c	33 c8		 xor	 ecx, eax
  0049e	48 8b 44 24 28	 mov	 rax, QWORD PTR out_ks$[rsp]
  004a3	89 48 08	 mov	 DWORD PTR [rax+8], ecx
  004a6	48 8b 4c 24 20	 mov	 rcx, QWORD PTR ks$[rsp]
  004ab	48 8b 44 24 30	 mov	 rax, QWORD PTR in$[rsp]
  004b0	8b 00		 mov	 eax, DWORD PTR [rax]
  004b2	8b 49 0c	 mov	 ecx, DWORD PTR [rcx+12]
  004b5	33 c8		 xor	 ecx, eax
  004b7	48 8b 44 24 28	 mov	 rax, QWORD PTR out_ks$[rsp]
  004bc	89 48 0c	 mov	 DWORD PTR [rax+12], ecx

; 609  : 		out_ks->y100 = ks->y100 ^ in[i]; out_ks->y101 = ks->y101 ^ in[0]; out_ks->y110 = ks->y110 ^ in[0]; out_ks->y111 = ks->y111 ^ in[0];

  004bf	8b 14 24	 mov	 edx, DWORD PTR i$[rsp]
  004c2	48 8b 4c 24 20	 mov	 rcx, QWORD PTR ks$[rsp]
  004c7	48 8b 44 24 30	 mov	 rax, QWORD PTR in$[rsp]
  004cc	8b 04 90	 mov	 eax, DWORD PTR [rax+rdx*4]
  004cf	8b 49 10	 mov	 ecx, DWORD PTR [rcx+16]
  004d2	33 c8		 xor	 ecx, eax
  004d4	48 8b 44 24 28	 mov	 rax, QWORD PTR out_ks$[rsp]
  004d9	89 48 10	 mov	 DWORD PTR [rax+16], ecx
  004dc	48 8b 4c 24 20	 mov	 rcx, QWORD PTR ks$[rsp]
  004e1	48 8b 44 24 30	 mov	 rax, QWORD PTR in$[rsp]
  004e6	8b 00		 mov	 eax, DWORD PTR [rax]
  004e8	8b 49 14	 mov	 ecx, DWORD PTR [rcx+20]
  004eb	33 c8		 xor	 ecx, eax
  004ed	48 8b 44 24 28	 mov	 rax, QWORD PTR out_ks$[rsp]
  004f2	89 48 14	 mov	 DWORD PTR [rax+20], ecx
  004f5	48 8b 4c 24 20	 mov	 rcx, QWORD PTR ks$[rsp]
  004fa	48 8b 44 24 30	 mov	 rax, QWORD PTR in$[rsp]
  004ff	8b 00		 mov	 eax, DWORD PTR [rax]
  00501	8b 49 18	 mov	 ecx, DWORD PTR [rcx+24]
  00504	33 c8		 xor	 ecx, eax
  00506	48 8b 44 24 28	 mov	 rax, QWORD PTR out_ks$[rsp]
  0050b	89 48 18	 mov	 DWORD PTR [rax+24], ecx
  0050e	48 8b 4c 24 20	 mov	 rcx, QWORD PTR ks$[rsp]
  00513	48 8b 44 24 30	 mov	 rax, QWORD PTR in$[rsp]
  00518	8b 00		 mov	 eax, DWORD PTR [rax]
  0051a	8b 49 1c	 mov	 ecx, DWORD PTR [rcx+28]
  0051d	33 c8		 xor	 ecx, eax
  0051f	48 8b 44 24 28	 mov	 rax, QWORD PTR out_ks$[rsp]
  00524	89 48 1c	 mov	 DWORD PTR [rax+28], ecx

; 610  : 		out_ks->y200 = ks->y200 ^ in[i]; out_ks->y201 = ks->y201 ^ in[0]; out_ks->y210 = ks->y210 ^ in[0]; out_ks->y211 = ks->y211 ^ in[0];

  00527	8b 14 24	 mov	 edx, DWORD PTR i$[rsp]
  0052a	48 8b 4c 24 20	 mov	 rcx, QWORD PTR ks$[rsp]
  0052f	48 8b 44 24 30	 mov	 rax, QWORD PTR in$[rsp]
  00534	8b 04 90	 mov	 eax, DWORD PTR [rax+rdx*4]
  00537	8b 49 20	 mov	 ecx, DWORD PTR [rcx+32]
  0053a	33 c8		 xor	 ecx, eax
  0053c	48 8b 44 24 28	 mov	 rax, QWORD PTR out_ks$[rsp]
  00541	89 48 20	 mov	 DWORD PTR [rax+32], ecx
  00544	48 8b 4c 24 20	 mov	 rcx, QWORD PTR ks$[rsp]
  00549	48 8b 44 24 30	 mov	 rax, QWORD PTR in$[rsp]
  0054e	8b 00		 mov	 eax, DWORD PTR [rax]
  00550	8b 49 24	 mov	 ecx, DWORD PTR [rcx+36]
  00553	33 c8		 xor	 ecx, eax
  00555	48 8b 44 24 28	 mov	 rax, QWORD PTR out_ks$[rsp]
  0055a	89 48 24	 mov	 DWORD PTR [rax+36], ecx
  0055d	48 8b 4c 24 20	 mov	 rcx, QWORD PTR ks$[rsp]
  00562	48 8b 44 24 30	 mov	 rax, QWORD PTR in$[rsp]
  00567	8b 00		 mov	 eax, DWORD PTR [rax]
  00569	8b 49 28	 mov	 ecx, DWORD PTR [rcx+40]
  0056c	33 c8		 xor	 ecx, eax
  0056e	48 8b 44 24 28	 mov	 rax, QWORD PTR out_ks$[rsp]
  00573	89 48 28	 mov	 DWORD PTR [rax+40], ecx
  00576	48 8b 4c 24 20	 mov	 rcx, QWORD PTR ks$[rsp]
  0057b	48 8b 44 24 30	 mov	 rax, QWORD PTR in$[rsp]
  00580	8b 00		 mov	 eax, DWORD PTR [rax]
  00582	8b 49 2c	 mov	 ecx, DWORD PTR [rcx+44]
  00585	33 c8		 xor	 ecx, eax
  00587	48 8b 44 24 28	 mov	 rax, QWORD PTR out_ks$[rsp]
  0058c	89 48 2c	 mov	 DWORD PTR [rax+44], ecx

; 611  : 		out_ks->y300 = ks->y300 ^ in[i]; out_ks->y301 = ks->y301 ^ in[0]; out_ks->y310 = ks->y310 ^ in[0]; out_ks->y311 = ks->y311 ^ in[0];

  0058f	8b 14 24	 mov	 edx, DWORD PTR i$[rsp]
  00592	48 8b 4c 24 20	 mov	 rcx, QWORD PTR ks$[rsp]
  00597	48 8b 44 24 30	 mov	 rax, QWORD PTR in$[rsp]
  0059c	8b 04 90	 mov	 eax, DWORD PTR [rax+rdx*4]
  0059f	8b 49 30	 mov	 ecx, DWORD PTR [rcx+48]
  005a2	33 c8		 xor	 ecx, eax
  005a4	48 8b 44 24 28	 mov	 rax, QWORD PTR out_ks$[rsp]
  005a9	89 48 30	 mov	 DWORD PTR [rax+48], ecx
  005ac	48 8b 4c 24 20	 mov	 rcx, QWORD PTR ks$[rsp]
  005b1	48 8b 44 24 30	 mov	 rax, QWORD PTR in$[rsp]
  005b6	8b 00		 mov	 eax, DWORD PTR [rax]
  005b8	8b 49 34	 mov	 ecx, DWORD PTR [rcx+52]
  005bb	33 c8		 xor	 ecx, eax
  005bd	48 8b 44 24 28	 mov	 rax, QWORD PTR out_ks$[rsp]
  005c2	89 48 34	 mov	 DWORD PTR [rax+52], ecx
  005c5	48 8b 4c 24 20	 mov	 rcx, QWORD PTR ks$[rsp]
  005ca	48 8b 44 24 30	 mov	 rax, QWORD PTR in$[rsp]
  005cf	8b 00		 mov	 eax, DWORD PTR [rax]
  005d1	8b 49 38	 mov	 ecx, DWORD PTR [rcx+56]
  005d4	33 c8		 xor	 ecx, eax
  005d6	48 8b 44 24 28	 mov	 rax, QWORD PTR out_ks$[rsp]
  005db	89 48 38	 mov	 DWORD PTR [rax+56], ecx
  005de	48 8b 4c 24 20	 mov	 rcx, QWORD PTR ks$[rsp]
  005e3	48 8b 44 24 30	 mov	 rax, QWORD PTR in$[rsp]
  005e8	8b 00		 mov	 eax, DWORD PTR [rax]
  005ea	8b 49 3c	 mov	 ecx, DWORD PTR [rcx+60]
  005ed	33 c8		 xor	 ecx, eax
  005ef	48 8b 44 24 28	 mov	 rax, QWORD PTR out_ks$[rsp]
  005f4	89 48 3c	 mov	 DWORD PTR [rax+60], ecx

; 612  : 		out_ks->y400 = ks->y400 ^ in[i]; out_ks->y401 = ks->y401 ^ in[0]; out_ks->y410 = ks->y410 ^ in[0]; out_ks->y411 = ks->y411 ^ in[0];

  005f7	8b 14 24	 mov	 edx, DWORD PTR i$[rsp]
  005fa	48 8b 4c 24 20	 mov	 rcx, QWORD PTR ks$[rsp]
  005ff	48 8b 44 24 30	 mov	 rax, QWORD PTR in$[rsp]
  00604	8b 04 90	 mov	 eax, DWORD PTR [rax+rdx*4]
  00607	8b 49 40	 mov	 ecx, DWORD PTR [rcx+64]
  0060a	33 c8		 xor	 ecx, eax
  0060c	48 8b 44 24 28	 mov	 rax, QWORD PTR out_ks$[rsp]
  00611	89 48 40	 mov	 DWORD PTR [rax+64], ecx
  00614	48 8b 4c 24 20	 mov	 rcx, QWORD PTR ks$[rsp]
  00619	48 8b 44 24 30	 mov	 rax, QWORD PTR in$[rsp]
  0061e	8b 00		 mov	 eax, DWORD PTR [rax]
  00620	8b 49 44	 mov	 ecx, DWORD PTR [rcx+68]
  00623	33 c8		 xor	 ecx, eax
  00625	48 8b 44 24 28	 mov	 rax, QWORD PTR out_ks$[rsp]
  0062a	89 48 44	 mov	 DWORD PTR [rax+68], ecx
  0062d	48 8b 4c 24 20	 mov	 rcx, QWORD PTR ks$[rsp]
  00632	48 8b 44 24 30	 mov	 rax, QWORD PTR in$[rsp]
  00637	8b 00		 mov	 eax, DWORD PTR [rax]
  00639	8b 49 48	 mov	 ecx, DWORD PTR [rcx+72]
  0063c	33 c8		 xor	 ecx, eax
  0063e	48 8b 44 24 28	 mov	 rax, QWORD PTR out_ks$[rsp]
  00643	89 48 48	 mov	 DWORD PTR [rax+72], ecx
  00646	48 8b 4c 24 20	 mov	 rcx, QWORD PTR ks$[rsp]
  0064b	48 8b 44 24 30	 mov	 rax, QWORD PTR in$[rsp]
  00650	8b 00		 mov	 eax, DWORD PTR [rax]
  00652	8b 49 4c	 mov	 ecx, DWORD PTR [rcx+76]
  00655	33 c8		 xor	 ecx, eax
  00657	48 8b 44 24 28	 mov	 rax, QWORD PTR out_ks$[rsp]
  0065c	89 48 4c	 mov	 DWORD PTR [rax+76], ecx

; 613  : 		out_ks->y500 = ks->y500 ^ in[i]; out_ks->y501 = ks->y501 ^ in[0]; out_ks->y510 = ks->y510 ^ in[0]; out_ks->y511 = ks->y511 ^ in[0];

  0065f	8b 14 24	 mov	 edx, DWORD PTR i$[rsp]
  00662	48 8b 4c 24 20	 mov	 rcx, QWORD PTR ks$[rsp]
  00667	48 8b 44 24 30	 mov	 rax, QWORD PTR in$[rsp]
  0066c	8b 04 90	 mov	 eax, DWORD PTR [rax+rdx*4]
  0066f	8b 49 50	 mov	 ecx, DWORD PTR [rcx+80]
  00672	33 c8		 xor	 ecx, eax
  00674	48 8b 44 24 28	 mov	 rax, QWORD PTR out_ks$[rsp]
  00679	89 48 50	 mov	 DWORD PTR [rax+80], ecx
  0067c	48 8b 4c 24 20	 mov	 rcx, QWORD PTR ks$[rsp]
  00681	48 8b 44 24 30	 mov	 rax, QWORD PTR in$[rsp]
  00686	8b 00		 mov	 eax, DWORD PTR [rax]
  00688	8b 49 54	 mov	 ecx, DWORD PTR [rcx+84]
  0068b	33 c8		 xor	 ecx, eax
  0068d	48 8b 44 24 28	 mov	 rax, QWORD PTR out_ks$[rsp]
  00692	89 48 54	 mov	 DWORD PTR [rax+84], ecx
  00695	48 8b 4c 24 20	 mov	 rcx, QWORD PTR ks$[rsp]
  0069a	48 8b 44 24 30	 mov	 rax, QWORD PTR in$[rsp]
  0069f	8b 00		 mov	 eax, DWORD PTR [rax]
  006a1	8b 49 58	 mov	 ecx, DWORD PTR [rcx+88]
  006a4	33 c8		 xor	 ecx, eax
  006a6	48 8b 44 24 28	 mov	 rax, QWORD PTR out_ks$[rsp]
  006ab	89 48 58	 mov	 DWORD PTR [rax+88], ecx
  006ae	48 8b 4c 24 20	 mov	 rcx, QWORD PTR ks$[rsp]
  006b3	48 8b 44 24 30	 mov	 rax, QWORD PTR in$[rsp]
  006b8	8b 00		 mov	 eax, DWORD PTR [rax]
  006ba	8b 49 5c	 mov	 ecx, DWORD PTR [rcx+92]
  006bd	33 c8		 xor	 ecx, eax
  006bf	48 8b 44 24 28	 mov	 rax, QWORD PTR out_ks$[rsp]
  006c4	89 48 5c	 mov	 DWORD PTR [rax+92], ecx

; 614  : 		out_ks->y600 = ks->y600 ^ in[i]; out_ks->y601 = ks->y601 ^ in[0]; out_ks->y610 = ks->y610 ^ in[0]; out_ks->y611 = ks->y611 ^ in[0];

  006c7	8b 14 24	 mov	 edx, DWORD PTR i$[rsp]
  006ca	48 8b 4c 24 20	 mov	 rcx, QWORD PTR ks$[rsp]
  006cf	48 8b 44 24 30	 mov	 rax, QWORD PTR in$[rsp]
  006d4	8b 04 90	 mov	 eax, DWORD PTR [rax+rdx*4]
  006d7	8b 49 60	 mov	 ecx, DWORD PTR [rcx+96]
  006da	33 c8		 xor	 ecx, eax
  006dc	48 8b 44 24 28	 mov	 rax, QWORD PTR out_ks$[rsp]
  006e1	89 48 60	 mov	 DWORD PTR [rax+96], ecx
  006e4	48 8b 4c 24 20	 mov	 rcx, QWORD PTR ks$[rsp]
  006e9	48 8b 44 24 30	 mov	 rax, QWORD PTR in$[rsp]
  006ee	8b 00		 mov	 eax, DWORD PTR [rax]
  006f0	8b 49 64	 mov	 ecx, DWORD PTR [rcx+100]
  006f3	33 c8		 xor	 ecx, eax
  006f5	48 8b 44 24 28	 mov	 rax, QWORD PTR out_ks$[rsp]
  006fa	89 48 64	 mov	 DWORD PTR [rax+100], ecx
  006fd	48 8b 4c 24 20	 mov	 rcx, QWORD PTR ks$[rsp]
  00702	48 8b 44 24 30	 mov	 rax, QWORD PTR in$[rsp]
  00707	8b 00		 mov	 eax, DWORD PTR [rax]
  00709	8b 49 68	 mov	 ecx, DWORD PTR [rcx+104]
  0070c	33 c8		 xor	 ecx, eax
  0070e	48 8b 44 24 28	 mov	 rax, QWORD PTR out_ks$[rsp]
  00713	89 48 68	 mov	 DWORD PTR [rax+104], ecx
  00716	48 8b 4c 24 20	 mov	 rcx, QWORD PTR ks$[rsp]
  0071b	48 8b 44 24 30	 mov	 rax, QWORD PTR in$[rsp]
  00720	8b 00		 mov	 eax, DWORD PTR [rax]
  00722	8b 49 6c	 mov	 ecx, DWORD PTR [rcx+108]
  00725	33 c8		 xor	 ecx, eax
  00727	48 8b 44 24 28	 mov	 rax, QWORD PTR out_ks$[rsp]
  0072c	89 48 6c	 mov	 DWORD PTR [rax+108], ecx

; 615  : 		out_ks->y700 = ks->y700 ^ in[i]; out_ks->y701 = ks->y701 ^ in[0]; out_ks->y710 = ks->y710 ^ in[0]; out_ks->y711 = ks->y711 ^ in[0];

  0072f	8b 14 24	 mov	 edx, DWORD PTR i$[rsp]
  00732	48 8b 4c 24 20	 mov	 rcx, QWORD PTR ks$[rsp]
  00737	48 8b 44 24 30	 mov	 rax, QWORD PTR in$[rsp]
  0073c	8b 04 90	 mov	 eax, DWORD PTR [rax+rdx*4]
  0073f	8b 49 70	 mov	 ecx, DWORD PTR [rcx+112]
  00742	33 c8		 xor	 ecx, eax
  00744	48 8b 44 24 28	 mov	 rax, QWORD PTR out_ks$[rsp]
  00749	89 48 70	 mov	 DWORD PTR [rax+112], ecx
  0074c	48 8b 4c 24 20	 mov	 rcx, QWORD PTR ks$[rsp]
  00751	48 8b 44 24 30	 mov	 rax, QWORD PTR in$[rsp]
  00756	8b 00		 mov	 eax, DWORD PTR [rax]
  00758	8b 49 74	 mov	 ecx, DWORD PTR [rcx+116]
  0075b	33 c8		 xor	 ecx, eax
  0075d	48 8b 44 24 28	 mov	 rax, QWORD PTR out_ks$[rsp]
  00762	89 48 74	 mov	 DWORD PTR [rax+116], ecx
  00765	48 8b 4c 24 20	 mov	 rcx, QWORD PTR ks$[rsp]
  0076a	48 8b 44 24 30	 mov	 rax, QWORD PTR in$[rsp]
  0076f	8b 00		 mov	 eax, DWORD PTR [rax]
  00771	8b 49 78	 mov	 ecx, DWORD PTR [rcx+120]
  00774	33 c8		 xor	 ecx, eax
  00776	48 8b 44 24 28	 mov	 rax, QWORD PTR out_ks$[rsp]
  0077b	89 48 78	 mov	 DWORD PTR [rax+120], ecx
  0077e	48 8b 4c 24 20	 mov	 rcx, QWORD PTR ks$[rsp]
  00783	48 8b 44 24 30	 mov	 rax, QWORD PTR in$[rsp]
  00788	8b 00		 mov	 eax, DWORD PTR [rax]
  0078a	8b 49 7c	 mov	 ecx, DWORD PTR [rcx+124]
  0078d	33 c8		 xor	 ecx, eax
  0078f	48 8b 44 24 28	 mov	 rax, QWORD PTR out_ks$[rsp]
  00794	89 48 7c	 mov	 DWORD PTR [rax+124], ecx

; 616  : 		out_ks->y800 = ks->y800 ^ in[i]; out_ks->y801 = ks->y801 ^ in[0]; out_ks->y810 = ks->y810 ^ in[0]; out_ks->y811 = ks->y811 ^ in[0];

  00797	8b 14 24	 mov	 edx, DWORD PTR i$[rsp]
  0079a	48 8b 4c 24 20	 mov	 rcx, QWORD PTR ks$[rsp]
  0079f	48 8b 44 24 30	 mov	 rax, QWORD PTR in$[rsp]
  007a4	8b 04 90	 mov	 eax, DWORD PTR [rax+rdx*4]
  007a7	8b 89 80 00 00
	00		 mov	 ecx, DWORD PTR [rcx+128]
  007ad	33 c8		 xor	 ecx, eax
  007af	48 8b 44 24 28	 mov	 rax, QWORD PTR out_ks$[rsp]
  007b4	89 88 80 00 00
	00		 mov	 DWORD PTR [rax+128], ecx
  007ba	48 8b 4c 24 20	 mov	 rcx, QWORD PTR ks$[rsp]
  007bf	48 8b 44 24 30	 mov	 rax, QWORD PTR in$[rsp]
  007c4	8b 00		 mov	 eax, DWORD PTR [rax]
  007c6	8b 89 84 00 00
	00		 mov	 ecx, DWORD PTR [rcx+132]
  007cc	33 c8		 xor	 ecx, eax
  007ce	48 8b 44 24 28	 mov	 rax, QWORD PTR out_ks$[rsp]
  007d3	89 88 84 00 00
	00		 mov	 DWORD PTR [rax+132], ecx
  007d9	48 8b 4c 24 20	 mov	 rcx, QWORD PTR ks$[rsp]
  007de	48 8b 44 24 30	 mov	 rax, QWORD PTR in$[rsp]
  007e3	8b 00		 mov	 eax, DWORD PTR [rax]
  007e5	8b 89 88 00 00
	00		 mov	 ecx, DWORD PTR [rcx+136]
  007eb	33 c8		 xor	 ecx, eax
  007ed	48 8b 44 24 28	 mov	 rax, QWORD PTR out_ks$[rsp]
  007f2	89 88 88 00 00
	00		 mov	 DWORD PTR [rax+136], ecx
  007f8	48 8b 4c 24 20	 mov	 rcx, QWORD PTR ks$[rsp]
  007fd	48 8b 44 24 30	 mov	 rax, QWORD PTR in$[rsp]
  00802	8b 00		 mov	 eax, DWORD PTR [rax]
  00804	8b 89 8c 00 00
	00		 mov	 ecx, DWORD PTR [rcx+140]
  0080a	33 c8		 xor	 ecx, eax
  0080c	48 8b 44 24 28	 mov	 rax, QWORD PTR out_ks$[rsp]
  00811	89 88 8c 00 00
	00		 mov	 DWORD PTR [rax+140], ecx

; 617  : 		out_ks->y900 = ks->y900 ^ in[i]; out_ks->y901 = ks->y901 ^ in[0]; out_ks->y910 = ks->y910 ^ in[0]; out_ks->y911 = ks->y911 ^ in[0];

  00817	8b 14 24	 mov	 edx, DWORD PTR i$[rsp]
  0081a	48 8b 4c 24 20	 mov	 rcx, QWORD PTR ks$[rsp]
  0081f	48 8b 44 24 30	 mov	 rax, QWORD PTR in$[rsp]
  00824	8b 04 90	 mov	 eax, DWORD PTR [rax+rdx*4]
  00827	8b 89 90 00 00
	00		 mov	 ecx, DWORD PTR [rcx+144]
  0082d	33 c8		 xor	 ecx, eax
  0082f	48 8b 44 24 28	 mov	 rax, QWORD PTR out_ks$[rsp]
  00834	89 88 90 00 00
	00		 mov	 DWORD PTR [rax+144], ecx
  0083a	48 8b 4c 24 20	 mov	 rcx, QWORD PTR ks$[rsp]
  0083f	48 8b 44 24 30	 mov	 rax, QWORD PTR in$[rsp]
  00844	8b 00		 mov	 eax, DWORD PTR [rax]
  00846	8b 89 94 00 00
	00		 mov	 ecx, DWORD PTR [rcx+148]
  0084c	33 c8		 xor	 ecx, eax
  0084e	48 8b 44 24 28	 mov	 rax, QWORD PTR out_ks$[rsp]
  00853	89 88 94 00 00
	00		 mov	 DWORD PTR [rax+148], ecx
  00859	48 8b 4c 24 20	 mov	 rcx, QWORD PTR ks$[rsp]
  0085e	48 8b 44 24 30	 mov	 rax, QWORD PTR in$[rsp]
  00863	8b 00		 mov	 eax, DWORD PTR [rax]
  00865	8b 89 98 00 00
	00		 mov	 ecx, DWORD PTR [rcx+152]
  0086b	33 c8		 xor	 ecx, eax
  0086d	48 8b 44 24 28	 mov	 rax, QWORD PTR out_ks$[rsp]
  00872	89 88 98 00 00
	00		 mov	 DWORD PTR [rax+152], ecx
  00878	48 8b 4c 24 20	 mov	 rcx, QWORD PTR ks$[rsp]
  0087d	48 8b 44 24 30	 mov	 rax, QWORD PTR in$[rsp]
  00882	8b 00		 mov	 eax, DWORD PTR [rax]
  00884	8b 89 9c 00 00
	00		 mov	 ecx, DWORD PTR [rcx+156]
  0088a	33 c8		 xor	 ecx, eax
  0088c	48 8b 44 24 28	 mov	 rax, QWORD PTR out_ks$[rsp]
  00891	89 88 9c 00 00
	00		 mov	 DWORD PTR [rax+156], ecx

; 618  : 	}

  00897	e9 a7 fb ff ff	 jmp	 $LN2@grasshoppe
$LN1@grasshoppe:
$LN5@grasshoppe:

; 619  : }

  0089c	48 83 c4 18	 add	 rsp, 24
  008a0	c3		 ret	 0
grasshopper_xor_ks ENDP
_TEXT	ENDS
PUBLIC	ll
;	COMDAT pdata
pdata	SEGMENT
$pdata$ll DD	imagerel $LN3
	DD	imagerel $LN3+655
	DD	imagerel $unwind$ll
pdata	ENDS
;	COMDAT xdata
xdata	SEGMENT
$unwind$ll DD	010901H
	DD	02209H
; Function compile flags: /Odtp
xdata	ENDS
;	COMDAT ll
_TEXT	SEGMENT
val$ = 0
block$ = 32
ll	PROC						; COMDAT

; 223  : {

$LN3:
  00000	48 89 4c 24 08	 mov	 QWORD PTR [rsp+8], rcx
  00005	48 83 ec 18	 sub	 rsp, 24

; 224  : 	unsigned char val;
; 225  : 
; 226  : 	val  =  mult_mod_poly[4][(block[0] >> 24) & 0xFF];

  00009	48 8d 0d 00 00
	00 00		 lea	 rcx, OFFSET FLAT:mult_mod_poly
  00010	48 8b 44 24 20	 mov	 rax, QWORD PTR block$[rsp]
  00015	8b 00		 mov	 eax, DWORD PTR [rax]
  00017	c1 e8 18	 shr	 eax, 24
  0001a	25 ff 00 00 00	 and	 eax, 255		; 000000ffH
  0001f	8b c0		 mov	 eax, eax
  00021	0f b6 84 01 00
	04 00 00	 movzx	 eax, BYTE PTR [rcx+rax+1024]
  00029	88 04 24	 mov	 BYTE PTR val$[rsp], al

; 227  : 	val ^=  mult_mod_poly[2][(block[0] >> 16) & 0xFF];

  0002c	48 8d 0d 00 00
	00 00		 lea	 rcx, OFFSET FLAT:mult_mod_poly
  00033	48 8b 44 24 20	 mov	 rax, QWORD PTR block$[rsp]
  00038	8b 00		 mov	 eax, DWORD PTR [rax]
  0003a	c1 e8 10	 shr	 eax, 16
  0003d	25 ff 00 00 00	 and	 eax, 255		; 000000ffH
  00042	8b c0		 mov	 eax, eax
  00044	0f b6 8c 01 00
	02 00 00	 movzx	 ecx, BYTE PTR [rcx+rax+512]
  0004c	0f b6 04 24	 movzx	 eax, BYTE PTR val$[rsp]
  00050	33 c1		 xor	 eax, ecx
  00052	88 04 24	 mov	 BYTE PTR val$[rsp], al

; 228  : 	val ^=  mult_mod_poly[3][(block[0] >>  8) & 0xFF];

  00055	48 8d 0d 00 00
	00 00		 lea	 rcx, OFFSET FLAT:mult_mod_poly
  0005c	48 8b 44 24 20	 mov	 rax, QWORD PTR block$[rsp]
  00061	8b 00		 mov	 eax, DWORD PTR [rax]
  00063	c1 e8 08	 shr	 eax, 8
  00066	25 ff 00 00 00	 and	 eax, 255		; 000000ffH
  0006b	8b c0		 mov	 eax, eax
  0006d	0f b6 8c 01 00
	03 00 00	 movzx	 ecx, BYTE PTR [rcx+rax+768]
  00075	0f b6 04 24	 movzx	 eax, BYTE PTR val$[rsp]
  00079	33 c1		 xor	 eax, ecx
  0007b	88 04 24	 mov	 BYTE PTR val$[rsp], al

; 229  : 	val ^=  mult_mod_poly[1][(block[0] >>  0) & 0xFF];

  0007e	48 8d 0d 00 00
	00 00		 lea	 rcx, OFFSET FLAT:mult_mod_poly
  00085	48 8b 44 24 20	 mov	 rax, QWORD PTR block$[rsp]
  0008a	8b 00		 mov	 eax, DWORD PTR [rax]
  0008c	25 ff 00 00 00	 and	 eax, 255		; 000000ffH
  00091	8b c0		 mov	 eax, eax
  00093	0f b6 8c 01 00
	01 00 00	 movzx	 ecx, BYTE PTR [rcx+rax+256]
  0009b	0f b6 04 24	 movzx	 eax, BYTE PTR val$[rsp]
  0009f	33 c1		 xor	 eax, ecx
  000a1	88 04 24	 mov	 BYTE PTR val$[rsp], al

; 230  : 
; 231  : 	val ^=  mult_mod_poly[6][(block[1] >> 24) & 0xFF];

  000a4	48 8d 0d 00 00
	00 00		 lea	 rcx, OFFSET FLAT:mult_mod_poly
  000ab	48 8b 44 24 20	 mov	 rax, QWORD PTR block$[rsp]
  000b0	8b 40 04	 mov	 eax, DWORD PTR [rax+4]
  000b3	c1 e8 18	 shr	 eax, 24
  000b6	25 ff 00 00 00	 and	 eax, 255		; 000000ffH
  000bb	8b c0		 mov	 eax, eax
  000bd	0f b6 8c 01 00
	06 00 00	 movzx	 ecx, BYTE PTR [rcx+rax+1536]
  000c5	0f b6 04 24	 movzx	 eax, BYTE PTR val$[rsp]
  000c9	33 c1		 xor	 eax, ecx
  000cb	88 04 24	 mov	 BYTE PTR val$[rsp], al

; 232  : 	val ^=  mult_mod_poly[5][(block[1] >> 16) & 0xFF];

  000ce	48 8d 0d 00 00
	00 00		 lea	 rcx, OFFSET FLAT:mult_mod_poly
  000d5	48 8b 44 24 20	 mov	 rax, QWORD PTR block$[rsp]
  000da	8b 40 04	 mov	 eax, DWORD PTR [rax+4]
  000dd	c1 e8 10	 shr	 eax, 16
  000e0	25 ff 00 00 00	 and	 eax, 255		; 000000ffH
  000e5	8b c0		 mov	 eax, eax
  000e7	0f b6 8c 01 00
	05 00 00	 movzx	 ecx, BYTE PTR [rcx+rax+1280]
  000ef	0f b6 04 24	 movzx	 eax, BYTE PTR val$[rsp]
  000f3	33 c1		 xor	 eax, ecx
  000f5	88 04 24	 mov	 BYTE PTR val$[rsp], al

; 233  : 	val ^=  mult_mod_poly[0][(block[1] >>  8) & 0xFF];

  000f8	48 8b 44 24 20	 mov	 rax, QWORD PTR block$[rsp]
  000fd	8b 40 04	 mov	 eax, DWORD PTR [rax+4]
  00100	c1 e8 08	 shr	 eax, 8
  00103	25 ff 00 00 00	 and	 eax, 255		; 000000ffH
  00108	8b c8		 mov	 ecx, eax
  0010a	48 8d 05 00 00
	00 00		 lea	 rax, OFFSET FLAT:mult_mod_poly
  00111	0f b6 0c 08	 movzx	 ecx, BYTE PTR [rax+rcx]
  00115	0f b6 04 24	 movzx	 eax, BYTE PTR val$[rsp]
  00119	33 c1		 xor	 eax, ecx
  0011b	88 04 24	 mov	 BYTE PTR val$[rsp], al

; 234  : 	val ^=  mult_mod_poly[7][(block[1] >>  0) & 0xFF];

  0011e	48 8d 0d 00 00
	00 00		 lea	 rcx, OFFSET FLAT:mult_mod_poly
  00125	48 8b 44 24 20	 mov	 rax, QWORD PTR block$[rsp]
  0012a	8b 40 04	 mov	 eax, DWORD PTR [rax+4]
  0012d	25 ff 00 00 00	 and	 eax, 255		; 000000ffH
  00132	8b c0		 mov	 eax, eax
  00134	0f b6 8c 01 00
	07 00 00	 movzx	 ecx, BYTE PTR [rcx+rax+1792]
  0013c	0f b6 04 24	 movzx	 eax, BYTE PTR val$[rsp]
  00140	33 c1		 xor	 eax, ecx
  00142	88 04 24	 mov	 BYTE PTR val$[rsp], al

; 235  : 
; 236  : 	val ^=  mult_mod_poly[0][(block[2] >> 24) & 0xFF];

  00145	48 8b 44 24 20	 mov	 rax, QWORD PTR block$[rsp]
  0014a	8b 40 08	 mov	 eax, DWORD PTR [rax+8]
  0014d	c1 e8 18	 shr	 eax, 24
  00150	25 ff 00 00 00	 and	 eax, 255		; 000000ffH
  00155	8b c8		 mov	 ecx, eax
  00157	48 8d 05 00 00
	00 00		 lea	 rax, OFFSET FLAT:mult_mod_poly
  0015e	0f b6 0c 08	 movzx	 ecx, BYTE PTR [rax+rcx]
  00162	0f b6 04 24	 movzx	 eax, BYTE PTR val$[rsp]
  00166	33 c1		 xor	 eax, ecx
  00168	88 04 24	 mov	 BYTE PTR val$[rsp], al

; 237  : 	val ^=  mult_mod_poly[5][(block[2] >> 16) & 0xFF];

  0016b	48 8d 0d 00 00
	00 00		 lea	 rcx, OFFSET FLAT:mult_mod_poly
  00172	48 8b 44 24 20	 mov	 rax, QWORD PTR block$[rsp]
  00177	8b 40 08	 mov	 eax, DWORD PTR [rax+8]
  0017a	c1 e8 10	 shr	 eax, 16
  0017d	25 ff 00 00 00	 and	 eax, 255		; 000000ffH
  00182	8b c0		 mov	 eax, eax
  00184	0f b6 8c 01 00
	05 00 00	 movzx	 ecx, BYTE PTR [rcx+rax+1280]
  0018c	0f b6 04 24	 movzx	 eax, BYTE PTR val$[rsp]
  00190	33 c1		 xor	 eax, ecx
  00192	88 04 24	 mov	 BYTE PTR val$[rsp], al

; 238  : 	val ^=  mult_mod_poly[6][(block[2] >>  8) & 0xFF];

  00195	48 8d 0d 00 00
	00 00		 lea	 rcx, OFFSET FLAT:mult_mod_poly
  0019c	48 8b 44 24 20	 mov	 rax, QWORD PTR block$[rsp]
  001a1	8b 40 08	 mov	 eax, DWORD PTR [rax+8]
  001a4	c1 e8 08	 shr	 eax, 8
  001a7	25 ff 00 00 00	 and	 eax, 255		; 000000ffH
  001ac	8b c0		 mov	 eax, eax
  001ae	0f b6 8c 01 00
	06 00 00	 movzx	 ecx, BYTE PTR [rcx+rax+1536]
  001b6	0f b6 04 24	 movzx	 eax, BYTE PTR val$[rsp]
  001ba	33 c1		 xor	 eax, ecx
  001bc	88 04 24	 mov	 BYTE PTR val$[rsp], al

; 239  : 	val ^=  mult_mod_poly[1][(block[2] >>  0) & 0xFF];

  001bf	48 8d 0d 00 00
	00 00		 lea	 rcx, OFFSET FLAT:mult_mod_poly
  001c6	48 8b 44 24 20	 mov	 rax, QWORD PTR block$[rsp]
  001cb	8b 40 08	 mov	 eax, DWORD PTR [rax+8]
  001ce	25 ff 00 00 00	 and	 eax, 255		; 000000ffH
  001d3	8b c0		 mov	 eax, eax
  001d5	0f b6 8c 01 00
	01 00 00	 movzx	 ecx, BYTE PTR [rcx+rax+256]
  001dd	0f b6 04 24	 movzx	 eax, BYTE PTR val$[rsp]
  001e1	33 c1		 xor	 eax, ecx
  001e3	88 04 24	 mov	 BYTE PTR val$[rsp], al

; 240  : 
; 241  : 	val ^=  mult_mod_poly[3][(block[3] >> 24) & 0xFF];

  001e6	48 8d 0d 00 00
	00 00		 lea	 rcx, OFFSET FLAT:mult_mod_poly
  001ed	48 8b 44 24 20	 mov	 rax, QWORD PTR block$[rsp]
  001f2	8b 40 0c	 mov	 eax, DWORD PTR [rax+12]
  001f5	c1 e8 18	 shr	 eax, 24
  001f8	25 ff 00 00 00	 and	 eax, 255		; 000000ffH
  001fd	8b c0		 mov	 eax, eax
  001ff	0f b6 8c 01 00
	03 00 00	 movzx	 ecx, BYTE PTR [rcx+rax+768]
  00207	0f b6 04 24	 movzx	 eax, BYTE PTR val$[rsp]
  0020b	33 c1		 xor	 eax, ecx
  0020d	88 04 24	 mov	 BYTE PTR val$[rsp], al

; 242  : 	val ^=  mult_mod_poly[2][(block[3] >> 16) & 0xFF];

  00210	48 8d 0d 00 00
	00 00		 lea	 rcx, OFFSET FLAT:mult_mod_poly
  00217	48 8b 44 24 20	 mov	 rax, QWORD PTR block$[rsp]
  0021c	8b 40 0c	 mov	 eax, DWORD PTR [rax+12]
  0021f	c1 e8 10	 shr	 eax, 16
  00222	25 ff 00 00 00	 and	 eax, 255		; 000000ffH
  00227	8b c0		 mov	 eax, eax
  00229	0f b6 8c 01 00
	02 00 00	 movzx	 ecx, BYTE PTR [rcx+rax+512]
  00231	0f b6 04 24	 movzx	 eax, BYTE PTR val$[rsp]
  00235	33 c1		 xor	 eax, ecx
  00237	88 04 24	 mov	 BYTE PTR val$[rsp], al

; 243  : 	val ^=  mult_mod_poly[4][(block[3] >>  8) & 0xFF];

  0023a	48 8d 0d 00 00
	00 00		 lea	 rcx, OFFSET FLAT:mult_mod_poly
  00241	48 8b 44 24 20	 mov	 rax, QWORD PTR block$[rsp]
  00246	8b 40 0c	 mov	 eax, DWORD PTR [rax+12]
  00249	c1 e8 08	 shr	 eax, 8
  0024c	25 ff 00 00 00	 and	 eax, 255		; 000000ffH
  00251	8b c0		 mov	 eax, eax
  00253	0f b6 8c 01 00
	04 00 00	 movzx	 ecx, BYTE PTR [rcx+rax+1024]
  0025b	0f b6 04 24	 movzx	 eax, BYTE PTR val$[rsp]
  0025f	33 c1		 xor	 eax, ecx
  00261	88 04 24	 mov	 BYTE PTR val$[rsp], al

; 244  : 	val ^=  mult_mod_poly[0][(block[3] >>  0) & 0xFF];

  00264	48 8b 44 24 20	 mov	 rax, QWORD PTR block$[rsp]
  00269	8b 40 0c	 mov	 eax, DWORD PTR [rax+12]
  0026c	25 ff 00 00 00	 and	 eax, 255		; 000000ffH
  00271	8b c8		 mov	 ecx, eax
  00273	48 8d 05 00 00
	00 00		 lea	 rax, OFFSET FLAT:mult_mod_poly
  0027a	0f b6 0c 08	 movzx	 ecx, BYTE PTR [rax+rcx]
  0027e	0f b6 04 24	 movzx	 eax, BYTE PTR val$[rsp]
  00282	33 c1		 xor	 eax, ecx
  00284	88 04 24	 mov	 BYTE PTR val$[rsp], al

; 245  : 
; 246  : 	return(val);

  00287	8a 04 24	 mov	 al, BYTE PTR val$[rsp]

; 247  : }

  0028a	48 83 c4 18	 add	 rsp, 24
  0028e	c3		 ret	 0
ll	ENDP
_TEXT	ENDS
PUBLIC	S_inv
;	COMDAT pdata
pdata	SEGMENT
$pdata$S_inv DD	imagerel $LN3
	DD	imagerel $LN3+649
	DD	imagerel $unwind$S_inv
pdata	ENDS
;	COMDAT xdata
xdata	SEGMENT
$unwind$S_inv DD 010901H
	DD	02209H
; Function compile flags: /Odtp
xdata	ENDS
;	COMDAT S_inv
_TEXT	SEGMENT
valtmp$ = 0
block$ = 32
S_inv	PROC						; COMDAT

; 182  : {

$LN3:
  00000	48 89 4c 24 08	 mov	 QWORD PTR [rsp+8], rcx
  00005	48 83 ec 18	 sub	 rsp, 24

; 183  : 	unsigned long valtmp;
; 184  : 
; 185  : 	valtmp  = ((unsigned long)(pi_inv[(block[0] >> 24) & 0xFF]) << 24);

  00009	48 8b 44 24 20	 mov	 rax, QWORD PTR block$[rsp]
  0000e	8b 00		 mov	 eax, DWORD PTR [rax]
  00010	c1 e8 18	 shr	 eax, 24
  00013	25 ff 00 00 00	 and	 eax, 255		; 000000ffH
  00018	8b c8		 mov	 ecx, eax
  0001a	48 8d 05 00 00
	00 00		 lea	 rax, OFFSET FLAT:pi_inv
  00021	0f b6 04 08	 movzx	 eax, BYTE PTR [rax+rcx]
  00025	c1 e0 18	 shl	 eax, 24
  00028	89 04 24	 mov	 DWORD PTR valtmp$[rsp], eax

; 186  : 	valtmp |= ((unsigned long)(pi_inv[(block[0] >> 16) & 0xFF]) << 16);

  0002b	48 8b 44 24 20	 mov	 rax, QWORD PTR block$[rsp]
  00030	8b 00		 mov	 eax, DWORD PTR [rax]
  00032	c1 e8 10	 shr	 eax, 16
  00035	25 ff 00 00 00	 and	 eax, 255		; 000000ffH
  0003a	8b c8		 mov	 ecx, eax
  0003c	48 8d 05 00 00
	00 00		 lea	 rax, OFFSET FLAT:pi_inv
  00043	0f b6 0c 08	 movzx	 ecx, BYTE PTR [rax+rcx]
  00047	c1 e1 10	 shl	 ecx, 16
  0004a	8b 04 24	 mov	 eax, DWORD PTR valtmp$[rsp]
  0004d	0b c1		 or	 eax, ecx
  0004f	89 04 24	 mov	 DWORD PTR valtmp$[rsp], eax

; 187  : 	valtmp |= ((unsigned long)(pi_inv[(block[0] >>  8) & 0xFF]) <<  8);

  00052	48 8b 44 24 20	 mov	 rax, QWORD PTR block$[rsp]
  00057	8b 00		 mov	 eax, DWORD PTR [rax]
  00059	c1 e8 08	 shr	 eax, 8
  0005c	25 ff 00 00 00	 and	 eax, 255		; 000000ffH
  00061	8b c8		 mov	 ecx, eax
  00063	48 8d 05 00 00
	00 00		 lea	 rax, OFFSET FLAT:pi_inv
  0006a	0f b6 0c 08	 movzx	 ecx, BYTE PTR [rax+rcx]
  0006e	c1 e1 08	 shl	 ecx, 8
  00071	8b 04 24	 mov	 eax, DWORD PTR valtmp$[rsp]
  00074	0b c1		 or	 eax, ecx
  00076	89 04 24	 mov	 DWORD PTR valtmp$[rsp], eax

; 188  : 	valtmp |=  (unsigned long)(pi_inv[ block[0] & 0xFF]);

  00079	48 8b 44 24 20	 mov	 rax, QWORD PTR block$[rsp]
  0007e	8b 00		 mov	 eax, DWORD PTR [rax]
  00080	25 ff 00 00 00	 and	 eax, 255		; 000000ffH
  00085	8b c8		 mov	 ecx, eax
  00087	48 8d 05 00 00
	00 00		 lea	 rax, OFFSET FLAT:pi_inv
  0008e	0f b6 0c 08	 movzx	 ecx, BYTE PTR [rax+rcx]
  00092	8b 04 24	 mov	 eax, DWORD PTR valtmp$[rsp]
  00095	0b c1		 or	 eax, ecx
  00097	89 04 24	 mov	 DWORD PTR valtmp$[rsp], eax

; 189  : 
; 190  : 	block[0] = valtmp;

  0009a	48 8b 4c 24 20	 mov	 rcx, QWORD PTR block$[rsp]
  0009f	8b 04 24	 mov	 eax, DWORD PTR valtmp$[rsp]
  000a2	89 01		 mov	 DWORD PTR [rcx], eax

; 191  : 
; 192  : 	valtmp  = ((unsigned long)(pi_inv[(block[1] >> 24) & 0xFF]) << 24);

  000a4	48 8b 44 24 20	 mov	 rax, QWORD PTR block$[rsp]
  000a9	8b 40 04	 mov	 eax, DWORD PTR [rax+4]
  000ac	c1 e8 18	 shr	 eax, 24
  000af	25 ff 00 00 00	 and	 eax, 255		; 000000ffH
  000b4	8b c8		 mov	 ecx, eax
  000b6	48 8d 05 00 00
	00 00		 lea	 rax, OFFSET FLAT:pi_inv
  000bd	0f b6 04 08	 movzx	 eax, BYTE PTR [rax+rcx]
  000c1	c1 e0 18	 shl	 eax, 24
  000c4	89 04 24	 mov	 DWORD PTR valtmp$[rsp], eax

; 193  : 	valtmp |= ((unsigned long)(pi_inv[(block[1] >> 16) & 0xFF]) << 16);

  000c7	48 8b 44 24 20	 mov	 rax, QWORD PTR block$[rsp]
  000cc	8b 40 04	 mov	 eax, DWORD PTR [rax+4]
  000cf	c1 e8 10	 shr	 eax, 16
  000d2	25 ff 00 00 00	 and	 eax, 255		; 000000ffH
  000d7	8b c8		 mov	 ecx, eax
  000d9	48 8d 05 00 00
	00 00		 lea	 rax, OFFSET FLAT:pi_inv
  000e0	0f b6 0c 08	 movzx	 ecx, BYTE PTR [rax+rcx]
  000e4	c1 e1 10	 shl	 ecx, 16
  000e7	8b 04 24	 mov	 eax, DWORD PTR valtmp$[rsp]
  000ea	0b c1		 or	 eax, ecx
  000ec	89 04 24	 mov	 DWORD PTR valtmp$[rsp], eax

; 194  : 	valtmp |= ((unsigned long)(pi_inv[(block[1] >>  8) & 0xFF]) <<  8);

  000ef	48 8b 44 24 20	 mov	 rax, QWORD PTR block$[rsp]
  000f4	8b 40 04	 mov	 eax, DWORD PTR [rax+4]
  000f7	c1 e8 08	 shr	 eax, 8
  000fa	25 ff 00 00 00	 and	 eax, 255		; 000000ffH
  000ff	8b c8		 mov	 ecx, eax
  00101	48 8d 05 00 00
	00 00		 lea	 rax, OFFSET FLAT:pi_inv
  00108	0f b6 0c 08	 movzx	 ecx, BYTE PTR [rax+rcx]
  0010c	c1 e1 08	 shl	 ecx, 8
  0010f	8b 04 24	 mov	 eax, DWORD PTR valtmp$[rsp]
  00112	0b c1		 or	 eax, ecx
  00114	89 04 24	 mov	 DWORD PTR valtmp$[rsp], eax

; 195  : 	valtmp |=  (unsigned long)(pi_inv[block[1] & 0xFF]);

  00117	48 8b 44 24 20	 mov	 rax, QWORD PTR block$[rsp]
  0011c	8b 40 04	 mov	 eax, DWORD PTR [rax+4]
  0011f	25 ff 00 00 00	 and	 eax, 255		; 000000ffH
  00124	8b c8		 mov	 ecx, eax
  00126	48 8d 05 00 00
	00 00		 lea	 rax, OFFSET FLAT:pi_inv
  0012d	0f b6 0c 08	 movzx	 ecx, BYTE PTR [rax+rcx]
  00131	8b 04 24	 mov	 eax, DWORD PTR valtmp$[rsp]
  00134	0b c1		 or	 eax, ecx
  00136	89 04 24	 mov	 DWORD PTR valtmp$[rsp], eax

; 196  : 
; 197  : 	block[1] = valtmp;

  00139	48 8b 4c 24 20	 mov	 rcx, QWORD PTR block$[rsp]
  0013e	8b 04 24	 mov	 eax, DWORD PTR valtmp$[rsp]
  00141	89 41 04	 mov	 DWORD PTR [rcx+4], eax

; 198  : 
; 199  : 	valtmp  = ((unsigned long)(pi_inv[(block[2] >> 24) & 0xFF]) << 24);

  00144	48 8b 44 24 20	 mov	 rax, QWORD PTR block$[rsp]
  00149	8b 40 08	 mov	 eax, DWORD PTR [rax+8]
  0014c	c1 e8 18	 shr	 eax, 24
  0014f	25 ff 00 00 00	 and	 eax, 255		; 000000ffH
  00154	8b c8		 mov	 ecx, eax
  00156	48 8d 05 00 00
	00 00		 lea	 rax, OFFSET FLAT:pi_inv
  0015d	0f b6 04 08	 movzx	 eax, BYTE PTR [rax+rcx]
  00161	c1 e0 18	 shl	 eax, 24
  00164	89 04 24	 mov	 DWORD PTR valtmp$[rsp], eax

; 200  : 	valtmp |= ((unsigned long)(pi_inv[(block[2] >> 16) & 0xFF]) << 16);

  00167	48 8b 44 24 20	 mov	 rax, QWORD PTR block$[rsp]
  0016c	8b 40 08	 mov	 eax, DWORD PTR [rax+8]
  0016f	c1 e8 10	 shr	 eax, 16
  00172	25 ff 00 00 00	 and	 eax, 255		; 000000ffH
  00177	8b c8		 mov	 ecx, eax
  00179	48 8d 05 00 00
	00 00		 lea	 rax, OFFSET FLAT:pi_inv
  00180	0f b6 0c 08	 movzx	 ecx, BYTE PTR [rax+rcx]
  00184	c1 e1 10	 shl	 ecx, 16
  00187	8b 04 24	 mov	 eax, DWORD PTR valtmp$[rsp]
  0018a	0b c1		 or	 eax, ecx
  0018c	89 04 24	 mov	 DWORD PTR valtmp$[rsp], eax

; 201  : 	valtmp |= ((unsigned long)(pi_inv[(block[2] >>  8) & 0xFF]) <<  8);

  0018f	48 8b 44 24 20	 mov	 rax, QWORD PTR block$[rsp]
  00194	8b 40 08	 mov	 eax, DWORD PTR [rax+8]
  00197	c1 e8 08	 shr	 eax, 8
  0019a	25 ff 00 00 00	 and	 eax, 255		; 000000ffH
  0019f	8b c8		 mov	 ecx, eax
  001a1	48 8d 05 00 00
	00 00		 lea	 rax, OFFSET FLAT:pi_inv
  001a8	0f b6 0c 08	 movzx	 ecx, BYTE PTR [rax+rcx]
  001ac	c1 e1 08	 shl	 ecx, 8
  001af	8b 04 24	 mov	 eax, DWORD PTR valtmp$[rsp]
  001b2	0b c1		 or	 eax, ecx
  001b4	89 04 24	 mov	 DWORD PTR valtmp$[rsp], eax

; 202  : 	valtmp |=  (unsigned long)(pi_inv[block[2] & 0xFF]);

  001b7	48 8b 44 24 20	 mov	 rax, QWORD PTR block$[rsp]
  001bc	8b 40 08	 mov	 eax, DWORD PTR [rax+8]
  001bf	25 ff 00 00 00	 and	 eax, 255		; 000000ffH
  001c4	8b c8		 mov	 ecx, eax
  001c6	48 8d 05 00 00
	00 00		 lea	 rax, OFFSET FLAT:pi_inv
  001cd	0f b6 0c 08	 movzx	 ecx, BYTE PTR [rax+rcx]
  001d1	8b 04 24	 mov	 eax, DWORD PTR valtmp$[rsp]
  001d4	0b c1		 or	 eax, ecx
  001d6	89 04 24	 mov	 DWORD PTR valtmp$[rsp], eax

; 203  : 	
; 204  : 	block[2] = valtmp;

  001d9	48 8b 4c 24 20	 mov	 rcx, QWORD PTR block$[rsp]
  001de	8b 04 24	 mov	 eax, DWORD PTR valtmp$[rsp]
  001e1	89 41 08	 mov	 DWORD PTR [rcx+8], eax

; 205  : 
; 206  : 	valtmp  = ((unsigned long)(pi_inv[(block[3] >> 24) & 0xFF]) << 24);

  001e4	48 8b 44 24 20	 mov	 rax, QWORD PTR block$[rsp]
  001e9	8b 40 0c	 mov	 eax, DWORD PTR [rax+12]
  001ec	c1 e8 18	 shr	 eax, 24
  001ef	25 ff 00 00 00	 and	 eax, 255		; 000000ffH
  001f4	8b c8		 mov	 ecx, eax
  001f6	48 8d 05 00 00
	00 00		 lea	 rax, OFFSET FLAT:pi_inv
  001fd	0f b6 04 08	 movzx	 eax, BYTE PTR [rax+rcx]
  00201	c1 e0 18	 shl	 eax, 24
  00204	89 04 24	 mov	 DWORD PTR valtmp$[rsp], eax

; 207  : 	valtmp |= ((unsigned long)(pi_inv[(block[3] >> 16) & 0xFF]) << 16);

  00207	48 8b 44 24 20	 mov	 rax, QWORD PTR block$[rsp]
  0020c	8b 40 0c	 mov	 eax, DWORD PTR [rax+12]
  0020f	c1 e8 10	 shr	 eax, 16
  00212	25 ff 00 00 00	 and	 eax, 255		; 000000ffH
  00217	8b c8		 mov	 ecx, eax
  00219	48 8d 05 00 00
	00 00		 lea	 rax, OFFSET FLAT:pi_inv
  00220	0f b6 0c 08	 movzx	 ecx, BYTE PTR [rax+rcx]
  00224	c1 e1 10	 shl	 ecx, 16
  00227	8b 04 24	 mov	 eax, DWORD PTR valtmp$[rsp]
  0022a	0b c1		 or	 eax, ecx
  0022c	89 04 24	 mov	 DWORD PTR valtmp$[rsp], eax

; 208  : 	valtmp |= ((unsigned long)(pi_inv[(block[3] >>  8) & 0xFF]) <<  8);

  0022f	48 8b 44 24 20	 mov	 rax, QWORD PTR block$[rsp]
  00234	8b 40 0c	 mov	 eax, DWORD PTR [rax+12]
  00237	c1 e8 08	 shr	 eax, 8
  0023a	25 ff 00 00 00	 and	 eax, 255		; 000000ffH
  0023f	8b c8		 mov	 ecx, eax
  00241	48 8d 05 00 00
	00 00		 lea	 rax, OFFSET FLAT:pi_inv
  00248	0f b6 0c 08	 movzx	 ecx, BYTE PTR [rax+rcx]
  0024c	c1 e1 08	 shl	 ecx, 8
  0024f	8b 04 24	 mov	 eax, DWORD PTR valtmp$[rsp]
  00252	0b c1		 or	 eax, ecx
  00254	89 04 24	 mov	 DWORD PTR valtmp$[rsp], eax

; 209  : 	valtmp |=  (unsigned long)(pi_inv[ block[3] & 0xFF]);

  00257	48 8b 44 24 20	 mov	 rax, QWORD PTR block$[rsp]
  0025c	8b 40 0c	 mov	 eax, DWORD PTR [rax+12]
  0025f	25 ff 00 00 00	 and	 eax, 255		; 000000ffH
  00264	8b c8		 mov	 ecx, eax
  00266	48 8d 05 00 00
	00 00		 lea	 rax, OFFSET FLAT:pi_inv
  0026d	0f b6 0c 08	 movzx	 ecx, BYTE PTR [rax+rcx]
  00271	8b 04 24	 mov	 eax, DWORD PTR valtmp$[rsp]
  00274	0b c1		 or	 eax, ecx
  00276	89 04 24	 mov	 DWORD PTR valtmp$[rsp], eax

; 210  : 
; 211  : 	block[3] = valtmp;

  00279	48 8b 4c 24 20	 mov	 rcx, QWORD PTR block$[rsp]
  0027e	8b 04 24	 mov	 eax, DWORD PTR valtmp$[rsp]
  00281	89 41 0c	 mov	 DWORD PTR [rcx+12], eax

; 212  : }

  00284	48 83 c4 18	 add	 rsp, 24
  00288	c3		 ret	 0
S_inv	ENDP
_TEXT	ENDS
PUBLIC	S
;	COMDAT pdata
pdata	SEGMENT
$pdata$S DD	imagerel $LN3
	DD	imagerel $LN3+649
	DD	imagerel $unwind$S
pdata	ENDS
;	COMDAT xdata
xdata	SEGMENT
$unwind$S DD	010901H
	DD	02209H
; Function compile flags: /Odtp
xdata	ENDS
;	COMDAT S
_TEXT	SEGMENT
valtmp$ = 0
block$ = 32
S	PROC						; COMDAT

; 141  : {

$LN3:
  00000	48 89 4c 24 08	 mov	 QWORD PTR [rsp+8], rcx
  00005	48 83 ec 18	 sub	 rsp, 24

; 142  : 	unsigned long valtmp;
; 143  : 
; 144  : 	valtmp  = ((unsigned long)(pi[(block[0] >> 24) & 0xFF]) << 24);

  00009	48 8b 44 24 20	 mov	 rax, QWORD PTR block$[rsp]
  0000e	8b 00		 mov	 eax, DWORD PTR [rax]
  00010	c1 e8 18	 shr	 eax, 24
  00013	25 ff 00 00 00	 and	 eax, 255		; 000000ffH
  00018	8b c8		 mov	 ecx, eax
  0001a	48 8d 05 00 00
	00 00		 lea	 rax, OFFSET FLAT:pi
  00021	0f b6 04 08	 movzx	 eax, BYTE PTR [rax+rcx]
  00025	c1 e0 18	 shl	 eax, 24
  00028	89 04 24	 mov	 DWORD PTR valtmp$[rsp], eax

; 145  : 	valtmp |= ((unsigned long)(pi[(block[0] >> 16) & 0xFF]) << 16);

  0002b	48 8b 44 24 20	 mov	 rax, QWORD PTR block$[rsp]
  00030	8b 00		 mov	 eax, DWORD PTR [rax]
  00032	c1 e8 10	 shr	 eax, 16
  00035	25 ff 00 00 00	 and	 eax, 255		; 000000ffH
  0003a	8b c8		 mov	 ecx, eax
  0003c	48 8d 05 00 00
	00 00		 lea	 rax, OFFSET FLAT:pi
  00043	0f b6 0c 08	 movzx	 ecx, BYTE PTR [rax+rcx]
  00047	c1 e1 10	 shl	 ecx, 16
  0004a	8b 04 24	 mov	 eax, DWORD PTR valtmp$[rsp]
  0004d	0b c1		 or	 eax, ecx
  0004f	89 04 24	 mov	 DWORD PTR valtmp$[rsp], eax

; 146  : 	valtmp |= ((unsigned long)(pi[(block[0] >>  8) & 0xFF]) <<  8);

  00052	48 8b 44 24 20	 mov	 rax, QWORD PTR block$[rsp]
  00057	8b 00		 mov	 eax, DWORD PTR [rax]
  00059	c1 e8 08	 shr	 eax, 8
  0005c	25 ff 00 00 00	 and	 eax, 255		; 000000ffH
  00061	8b c8		 mov	 ecx, eax
  00063	48 8d 05 00 00
	00 00		 lea	 rax, OFFSET FLAT:pi
  0006a	0f b6 0c 08	 movzx	 ecx, BYTE PTR [rax+rcx]
  0006e	c1 e1 08	 shl	 ecx, 8
  00071	8b 04 24	 mov	 eax, DWORD PTR valtmp$[rsp]
  00074	0b c1		 or	 eax, ecx
  00076	89 04 24	 mov	 DWORD PTR valtmp$[rsp], eax

; 147  : 	valtmp |= ((unsigned long)(pi[(block[0] >>  0) & 0xFF]) <<  0);

  00079	48 8b 44 24 20	 mov	 rax, QWORD PTR block$[rsp]
  0007e	8b 00		 mov	 eax, DWORD PTR [rax]
  00080	25 ff 00 00 00	 and	 eax, 255		; 000000ffH
  00085	8b c8		 mov	 ecx, eax
  00087	48 8d 05 00 00
	00 00		 lea	 rax, OFFSET FLAT:pi
  0008e	0f b6 0c 08	 movzx	 ecx, BYTE PTR [rax+rcx]
  00092	8b 04 24	 mov	 eax, DWORD PTR valtmp$[rsp]
  00095	0b c1		 or	 eax, ecx
  00097	89 04 24	 mov	 DWORD PTR valtmp$[rsp], eax

; 148  : 	block[0] = valtmp;

  0009a	48 8b 4c 24 20	 mov	 rcx, QWORD PTR block$[rsp]
  0009f	8b 04 24	 mov	 eax, DWORD PTR valtmp$[rsp]
  000a2	89 01		 mov	 DWORD PTR [rcx], eax

; 149  : 
; 150  : 	valtmp  = ((unsigned long)(pi[(block[1] >> 24) & 0xFF]) << 24);

  000a4	48 8b 44 24 20	 mov	 rax, QWORD PTR block$[rsp]
  000a9	8b 40 04	 mov	 eax, DWORD PTR [rax+4]
  000ac	c1 e8 18	 shr	 eax, 24
  000af	25 ff 00 00 00	 and	 eax, 255		; 000000ffH
  000b4	8b c8		 mov	 ecx, eax
  000b6	48 8d 05 00 00
	00 00		 lea	 rax, OFFSET FLAT:pi
  000bd	0f b6 04 08	 movzx	 eax, BYTE PTR [rax+rcx]
  000c1	c1 e0 18	 shl	 eax, 24
  000c4	89 04 24	 mov	 DWORD PTR valtmp$[rsp], eax

; 151  : 	valtmp |= ((unsigned long)(pi[(block[1] >> 16) & 0xFF]) << 16);

  000c7	48 8b 44 24 20	 mov	 rax, QWORD PTR block$[rsp]
  000cc	8b 40 04	 mov	 eax, DWORD PTR [rax+4]
  000cf	c1 e8 10	 shr	 eax, 16
  000d2	25 ff 00 00 00	 and	 eax, 255		; 000000ffH
  000d7	8b c8		 mov	 ecx, eax
  000d9	48 8d 05 00 00
	00 00		 lea	 rax, OFFSET FLAT:pi
  000e0	0f b6 0c 08	 movzx	 ecx, BYTE PTR [rax+rcx]
  000e4	c1 e1 10	 shl	 ecx, 16
  000e7	8b 04 24	 mov	 eax, DWORD PTR valtmp$[rsp]
  000ea	0b c1		 or	 eax, ecx
  000ec	89 04 24	 mov	 DWORD PTR valtmp$[rsp], eax

; 152  : 	valtmp |= ((unsigned long)(pi[(block[1] >>  8) & 0xFF]) <<  8);

  000ef	48 8b 44 24 20	 mov	 rax, QWORD PTR block$[rsp]
  000f4	8b 40 04	 mov	 eax, DWORD PTR [rax+4]
  000f7	c1 e8 08	 shr	 eax, 8
  000fa	25 ff 00 00 00	 and	 eax, 255		; 000000ffH
  000ff	8b c8		 mov	 ecx, eax
  00101	48 8d 05 00 00
	00 00		 lea	 rax, OFFSET FLAT:pi
  00108	0f b6 0c 08	 movzx	 ecx, BYTE PTR [rax+rcx]
  0010c	c1 e1 08	 shl	 ecx, 8
  0010f	8b 04 24	 mov	 eax, DWORD PTR valtmp$[rsp]
  00112	0b c1		 or	 eax, ecx
  00114	89 04 24	 mov	 DWORD PTR valtmp$[rsp], eax

; 153  : 	valtmp |=  (unsigned long)(pi[ block[1] & 0xFF]);

  00117	48 8b 44 24 20	 mov	 rax, QWORD PTR block$[rsp]
  0011c	8b 40 04	 mov	 eax, DWORD PTR [rax+4]
  0011f	25 ff 00 00 00	 and	 eax, 255		; 000000ffH
  00124	8b c8		 mov	 ecx, eax
  00126	48 8d 05 00 00
	00 00		 lea	 rax, OFFSET FLAT:pi
  0012d	0f b6 0c 08	 movzx	 ecx, BYTE PTR [rax+rcx]
  00131	8b 04 24	 mov	 eax, DWORD PTR valtmp$[rsp]
  00134	0b c1		 or	 eax, ecx
  00136	89 04 24	 mov	 DWORD PTR valtmp$[rsp], eax

; 154  : 
; 155  : 	block[1] = valtmp;

  00139	48 8b 4c 24 20	 mov	 rcx, QWORD PTR block$[rsp]
  0013e	8b 04 24	 mov	 eax, DWORD PTR valtmp$[rsp]
  00141	89 41 04	 mov	 DWORD PTR [rcx+4], eax

; 156  : 
; 157  : 	valtmp  = ((unsigned long)(pi[(block[2] >> 24) & 0xFF]) << 24);

  00144	48 8b 44 24 20	 mov	 rax, QWORD PTR block$[rsp]
  00149	8b 40 08	 mov	 eax, DWORD PTR [rax+8]
  0014c	c1 e8 18	 shr	 eax, 24
  0014f	25 ff 00 00 00	 and	 eax, 255		; 000000ffH
  00154	8b c8		 mov	 ecx, eax
  00156	48 8d 05 00 00
	00 00		 lea	 rax, OFFSET FLAT:pi
  0015d	0f b6 04 08	 movzx	 eax, BYTE PTR [rax+rcx]
  00161	c1 e0 18	 shl	 eax, 24
  00164	89 04 24	 mov	 DWORD PTR valtmp$[rsp], eax

; 158  : 	valtmp |= ((unsigned long)(pi[(block[2] >> 16) & 0xFF]) << 16);

  00167	48 8b 44 24 20	 mov	 rax, QWORD PTR block$[rsp]
  0016c	8b 40 08	 mov	 eax, DWORD PTR [rax+8]
  0016f	c1 e8 10	 shr	 eax, 16
  00172	25 ff 00 00 00	 and	 eax, 255		; 000000ffH
  00177	8b c8		 mov	 ecx, eax
  00179	48 8d 05 00 00
	00 00		 lea	 rax, OFFSET FLAT:pi
  00180	0f b6 0c 08	 movzx	 ecx, BYTE PTR [rax+rcx]
  00184	c1 e1 10	 shl	 ecx, 16
  00187	8b 04 24	 mov	 eax, DWORD PTR valtmp$[rsp]
  0018a	0b c1		 or	 eax, ecx
  0018c	89 04 24	 mov	 DWORD PTR valtmp$[rsp], eax

; 159  : 	valtmp |= ((unsigned long)(pi[(block[2] >>  8) & 0xFF]) <<  8);

  0018f	48 8b 44 24 20	 mov	 rax, QWORD PTR block$[rsp]
  00194	8b 40 08	 mov	 eax, DWORD PTR [rax+8]
  00197	c1 e8 08	 shr	 eax, 8
  0019a	25 ff 00 00 00	 and	 eax, 255		; 000000ffH
  0019f	8b c8		 mov	 ecx, eax
  001a1	48 8d 05 00 00
	00 00		 lea	 rax, OFFSET FLAT:pi
  001a8	0f b6 0c 08	 movzx	 ecx, BYTE PTR [rax+rcx]
  001ac	c1 e1 08	 shl	 ecx, 8
  001af	8b 04 24	 mov	 eax, DWORD PTR valtmp$[rsp]
  001b2	0b c1		 or	 eax, ecx
  001b4	89 04 24	 mov	 DWORD PTR valtmp$[rsp], eax

; 160  : 	valtmp |=  (unsigned long)(pi[ block[2] & 0xFF]);

  001b7	48 8b 44 24 20	 mov	 rax, QWORD PTR block$[rsp]
  001bc	8b 40 08	 mov	 eax, DWORD PTR [rax+8]
  001bf	25 ff 00 00 00	 and	 eax, 255		; 000000ffH
  001c4	8b c8		 mov	 ecx, eax
  001c6	48 8d 05 00 00
	00 00		 lea	 rax, OFFSET FLAT:pi
  001cd	0f b6 0c 08	 movzx	 ecx, BYTE PTR [rax+rcx]
  001d1	8b 04 24	 mov	 eax, DWORD PTR valtmp$[rsp]
  001d4	0b c1		 or	 eax, ecx
  001d6	89 04 24	 mov	 DWORD PTR valtmp$[rsp], eax

; 161  : 
; 162  : 	block[2] = valtmp;

  001d9	48 8b 4c 24 20	 mov	 rcx, QWORD PTR block$[rsp]
  001de	8b 04 24	 mov	 eax, DWORD PTR valtmp$[rsp]
  001e1	89 41 08	 mov	 DWORD PTR [rcx+8], eax

; 163  : 
; 164  : 	valtmp  = ((unsigned long)(pi[(block[3] >> 24) & 0xFF]) << 24);

  001e4	48 8b 44 24 20	 mov	 rax, QWORD PTR block$[rsp]
  001e9	8b 40 0c	 mov	 eax, DWORD PTR [rax+12]
  001ec	c1 e8 18	 shr	 eax, 24
  001ef	25 ff 00 00 00	 and	 eax, 255		; 000000ffH
  001f4	8b c8		 mov	 ecx, eax
  001f6	48 8d 05 00 00
	00 00		 lea	 rax, OFFSET FLAT:pi
  001fd	0f b6 04 08	 movzx	 eax, BYTE PTR [rax+rcx]
  00201	c1 e0 18	 shl	 eax, 24
  00204	89 04 24	 mov	 DWORD PTR valtmp$[rsp], eax

; 165  : 	valtmp |= ((unsigned long)(pi[(block[3] >> 16) & 0xFF]) << 16);

  00207	48 8b 44 24 20	 mov	 rax, QWORD PTR block$[rsp]
  0020c	8b 40 0c	 mov	 eax, DWORD PTR [rax+12]
  0020f	c1 e8 10	 shr	 eax, 16
  00212	25 ff 00 00 00	 and	 eax, 255		; 000000ffH
  00217	8b c8		 mov	 ecx, eax
  00219	48 8d 05 00 00
	00 00		 lea	 rax, OFFSET FLAT:pi
  00220	0f b6 0c 08	 movzx	 ecx, BYTE PTR [rax+rcx]
  00224	c1 e1 10	 shl	 ecx, 16
  00227	8b 04 24	 mov	 eax, DWORD PTR valtmp$[rsp]
  0022a	0b c1		 or	 eax, ecx
  0022c	89 04 24	 mov	 DWORD PTR valtmp$[rsp], eax

; 166  : 	valtmp |= ((unsigned long)(pi[(block[3] >>  8) & 0xFF]) <<  8);

  0022f	48 8b 44 24 20	 mov	 rax, QWORD PTR block$[rsp]
  00234	8b 40 0c	 mov	 eax, DWORD PTR [rax+12]
  00237	c1 e8 08	 shr	 eax, 8
  0023a	25 ff 00 00 00	 and	 eax, 255		; 000000ffH
  0023f	8b c8		 mov	 ecx, eax
  00241	48 8d 05 00 00
	00 00		 lea	 rax, OFFSET FLAT:pi
  00248	0f b6 0c 08	 movzx	 ecx, BYTE PTR [rax+rcx]
  0024c	c1 e1 08	 shl	 ecx, 8
  0024f	8b 04 24	 mov	 eax, DWORD PTR valtmp$[rsp]
  00252	0b c1		 or	 eax, ecx
  00254	89 04 24	 mov	 DWORD PTR valtmp$[rsp], eax

; 167  : 	valtmp |=  (unsigned long)(pi[ block[3] & 0xFF]);

  00257	48 8b 44 24 20	 mov	 rax, QWORD PTR block$[rsp]
  0025c	8b 40 0c	 mov	 eax, DWORD PTR [rax+12]
  0025f	25 ff 00 00 00	 and	 eax, 255		; 000000ffH
  00264	8b c8		 mov	 ecx, eax
  00266	48 8d 05 00 00
	00 00		 lea	 rax, OFFSET FLAT:pi
  0026d	0f b6 0c 08	 movzx	 ecx, BYTE PTR [rax+rcx]
  00271	8b 04 24	 mov	 eax, DWORD PTR valtmp$[rsp]
  00274	0b c1		 or	 eax, ecx
  00276	89 04 24	 mov	 DWORD PTR valtmp$[rsp], eax

; 168  : 
; 169  : 	block[3] = valtmp;

  00279	48 8b 4c 24 20	 mov	 rcx, QWORD PTR block$[rsp]
  0027e	8b 04 24	 mov	 eax, DWORD PTR valtmp$[rsp]
  00281	89 41 0c	 mov	 DWORD PTR [rcx+12], eax

; 170  : }

  00284	48 83 c4 18	 add	 rsp, 24
  00288	c3		 ret	 0
S	ENDP
PUBLIC	R_inv
;	COMDAT pdata
pdata	SEGMENT
$pdata$R_inv DD	imagerel $LN3
	DD	imagerel $LN3+270
	DD	imagerel $unwind$R_inv
pdata	ENDS
;	COMDAT xdata
xdata	SEGMENT
$unwind$R_inv DD 010901H
	DD	08209H
; Function compile flags: /Odtp
xdata	ENDS
;	COMDAT R_inv
_TEXT	SEGMENT
valtmp$ = 32
val$ = 48
block$ = 80
R_inv	PROC						; COMDAT

; 296  : {

$LN3:
  00000	48 89 4c 24 08	 mov	 QWORD PTR [rsp+8], rcx
  00005	48 83 ec 48	 sub	 rsp, 72			; 00000048H

; 297  : 	unsigned long valtmp[4];
; 298  : 	unsigned char val;
; 299  : 
; 300  : 	//valtmp[0]  = (block[0] << 8);
; 301  : 	//valtmp[0] |= ((block[1] >> 56) & 0xFF);
; 302  : 	valtmp[0] = block[0] << 8;

  00009	48 8b 44 24 50	 mov	 rax, QWORD PTR block$[rsp]
  0000e	8b 00		 mov	 eax, DWORD PTR [rax]
  00010	c1 e0 08	 shl	 eax, 8
  00013	89 44 24 20	 mov	 DWORD PTR valtmp$[rsp], eax

; 303  : 	valtmp[0] |= (block[1] >> 24) & 0xFF;

  00017	48 8b 44 24 50	 mov	 rax, QWORD PTR block$[rsp]
  0001c	8b 48 04	 mov	 ecx, DWORD PTR [rax+4]
  0001f	c1 e9 18	 shr	 ecx, 24
  00022	81 e1 ff 00 00
	00		 and	 ecx, 255		; 000000ffH
  00028	8b 44 24 20	 mov	 eax, DWORD PTR valtmp$[rsp]
  0002c	0b c1		 or	 eax, ecx
  0002e	89 44 24 20	 mov	 DWORD PTR valtmp$[rsp], eax

; 304  : 	valtmp[1] = block[1] << 8;

  00032	48 8b 44 24 50	 mov	 rax, QWORD PTR block$[rsp]
  00037	8b 40 04	 mov	 eax, DWORD PTR [rax+4]
  0003a	c1 e0 08	 shl	 eax, 8
  0003d	89 44 24 24	 mov	 DWORD PTR valtmp$[rsp+4], eax

; 305  : 	valtmp[1] |= (block[2] >> 24) & 0xFF;

  00041	48 8b 44 24 50	 mov	 rax, QWORD PTR block$[rsp]
  00046	8b 48 08	 mov	 ecx, DWORD PTR [rax+8]
  00049	c1 e9 18	 shr	 ecx, 24
  0004c	81 e1 ff 00 00
	00		 and	 ecx, 255		; 000000ffH
  00052	8b 44 24 24	 mov	 eax, DWORD PTR valtmp$[rsp+4]
  00056	0b c1		 or	 eax, ecx
  00058	89 44 24 24	 mov	 DWORD PTR valtmp$[rsp+4], eax

; 306  : 
; 307  : 	//valtmp[1]  = (block[1] << 8);
; 308  : 	//valtmp[1] |= ((block[0] >> 56) & 0xFF);
; 309  : 
; 310  : 	valtmp[2] = block[2] << 8;

  0005c	48 8b 44 24 50	 mov	 rax, QWORD PTR block$[rsp]
  00061	8b 40 08	 mov	 eax, DWORD PTR [rax+8]
  00064	c1 e0 08	 shl	 eax, 8
  00067	89 44 24 28	 mov	 DWORD PTR valtmp$[rsp+8], eax

; 311  : 	valtmp[2] |= (block[3] >> 24) & 0xFF;

  0006b	48 8b 44 24 50	 mov	 rax, QWORD PTR block$[rsp]
  00070	8b 48 0c	 mov	 ecx, DWORD PTR [rax+12]
  00073	c1 e9 18	 shr	 ecx, 24
  00076	81 e1 ff 00 00
	00		 and	 ecx, 255		; 000000ffH
  0007c	8b 44 24 28	 mov	 eax, DWORD PTR valtmp$[rsp+8]
  00080	0b c1		 or	 eax, ecx
  00082	89 44 24 28	 mov	 DWORD PTR valtmp$[rsp+8], eax

; 312  : 	valtmp[3] = block[3] << 8;

  00086	48 8b 44 24 50	 mov	 rax, QWORD PTR block$[rsp]
  0008b	8b 40 0c	 mov	 eax, DWORD PTR [rax+12]
  0008e	c1 e0 08	 shl	 eax, 8
  00091	89 44 24 2c	 mov	 DWORD PTR valtmp$[rsp+12], eax

; 313  : 	valtmp[3] |= (block[0] >> 24) & 0xFF;

  00095	48 8b 44 24 50	 mov	 rax, QWORD PTR block$[rsp]
  0009a	8b 08		 mov	 ecx, DWORD PTR [rax]
  0009c	c1 e9 18	 shr	 ecx, 24
  0009f	81 e1 ff 00 00
	00		 and	 ecx, 255		; 000000ffH
  000a5	8b 44 24 2c	 mov	 eax, DWORD PTR valtmp$[rsp+12]
  000a9	0b c1		 or	 eax, ecx
  000ab	89 44 24 2c	 mov	 DWORD PTR valtmp$[rsp+12], eax

; 314  : 
; 315  : 	val = ll(valtmp);

  000af	48 8d 4c 24 20	 lea	 rcx, QWORD PTR valtmp$[rsp]
  000b4	e8 00 00 00 00	 call	 ll
  000b9	88 44 24 30	 mov	 BYTE PTR val$[rsp], al

; 316  : 
; 317  : 	block[0]  = valtmp[0];

  000bd	48 8b 4c 24 50	 mov	 rcx, QWORD PTR block$[rsp]
  000c2	8b 44 24 20	 mov	 eax, DWORD PTR valtmp$[rsp]
  000c6	89 01		 mov	 DWORD PTR [rcx], eax

; 318  : 	block[1] = valtmp[1];

  000c8	48 8b 4c 24 50	 mov	 rcx, QWORD PTR block$[rsp]
  000cd	8b 44 24 24	 mov	 eax, DWORD PTR valtmp$[rsp+4]
  000d1	89 41 04	 mov	 DWORD PTR [rcx+4], eax

; 319  : 	block[2]  = (valtmp[2] & 0xFFFFFFFFL);

  000d4	48 8b 4c 24 50	 mov	 rcx, QWORD PTR block$[rsp]
  000d9	8b 44 24 28	 mov	 eax, DWORD PTR valtmp$[rsp+8]
  000dd	89 41 08	 mov	 DWORD PTR [rcx+8], eax

; 320  : 	block[3] = valtmp[3] & 0xFFFFFF00L;

  000e0	8b 4c 24 2c	 mov	 ecx, DWORD PTR valtmp$[rsp+12]
  000e4	81 e1 00 ff ff
	ff		 and	 ecx, -256		; ffffff00H
  000ea	48 8b 44 24 50	 mov	 rax, QWORD PTR block$[rsp]
  000ef	89 48 0c	 mov	 DWORD PTR [rax+12], ecx

; 321  : 	block[3] |= val;

  000f2	0f b6 54 24 30	 movzx	 edx, BYTE PTR val$[rsp]
  000f7	48 8b 44 24 50	 mov	 rax, QWORD PTR block$[rsp]
  000fc	8b 48 0c	 mov	 ecx, DWORD PTR [rax+12]
  000ff	0b ca		 or	 ecx, edx
  00101	48 8b 44 24 50	 mov	 rax, QWORD PTR block$[rsp]
  00106	89 48 0c	 mov	 DWORD PTR [rax+12], ecx

; 322  : }

  00109	48 83 c4 48	 add	 rsp, 72			; 00000048H
  0010d	c3		 ret	 0
R_inv	ENDP
_TEXT	ENDS
PUBLIC	R
;	COMDAT pdata
pdata	SEGMENT
$pdata$R DD	imagerel $LN3
	DD	imagerel $LN3+283
	DD	imagerel $unwind$R
pdata	ENDS
;	COMDAT xdata
xdata	SEGMENT
$unwind$R DD	010901H
	DD	08209H
; Function compile flags: /Odtp
xdata	ENDS
;	COMDAT R
_TEXT	SEGMENT
valtmp$ = 32
val$ = 48
block$ = 80
R	PROC						; COMDAT

; 259  : {

$LN3:
  00000	48 89 4c 24 08	 mov	 QWORD PTR [rsp+8], rcx
  00005	48 83 ec 48	 sub	 rsp, 72			; 00000048H

; 260  : 	unsigned long valtmp[4];
; 261  : 	unsigned char val;
; 262  : 
; 263  : 	valtmp[0] = block[0];

  00009	48 8b 44 24 50	 mov	 rax, QWORD PTR block$[rsp]
  0000e	8b 00		 mov	 eax, DWORD PTR [rax]
  00010	89 44 24 20	 mov	 DWORD PTR valtmp$[rsp], eax

; 264  : 	valtmp[1] = block[1];

  00014	48 8b 44 24 50	 mov	 rax, QWORD PTR block$[rsp]
  00019	8b 40 04	 mov	 eax, DWORD PTR [rax+4]
  0001c	89 44 24 24	 mov	 DWORD PTR valtmp$[rsp+4], eax

; 265  : 	valtmp[2] = block[2];

  00020	48 8b 44 24 50	 mov	 rax, QWORD PTR block$[rsp]
  00025	8b 40 08	 mov	 eax, DWORD PTR [rax+8]
  00028	89 44 24 28	 mov	 DWORD PTR valtmp$[rsp+8], eax

; 266  : 	valtmp[3] = block[3];

  0002c	48 8b 44 24 50	 mov	 rax, QWORD PTR block$[rsp]
  00031	8b 40 0c	 mov	 eax, DWORD PTR [rax+12]
  00034	89 44 24 2c	 mov	 DWORD PTR valtmp$[rsp+12], eax

; 267  : 	val = ll(valtmp);

  00038	48 8d 4c 24 20	 lea	 rcx, QWORD PTR valtmp$[rsp]
  0003d	e8 00 00 00 00	 call	 ll
  00042	88 44 24 30	 mov	 BYTE PTR val$[rsp], al

; 268  : 
; 269  : 	//block[1] >>= 8;
; 270  : 	//block[1]  |= (((block[0]) & 0xFF) << 56);
; 271  : 	block[3] >>= 8;

  00046	48 8b 44 24 50	 mov	 rax, QWORD PTR block$[rsp]
  0004b	8b 48 0c	 mov	 ecx, DWORD PTR [rax+12]
  0004e	c1 e9 08	 shr	 ecx, 8
  00051	48 8b 44 24 50	 mov	 rax, QWORD PTR block$[rsp]
  00056	89 48 0c	 mov	 DWORD PTR [rax+12], ecx

; 272  : 	block[3] |= (block[2] & 0xFF) << 24;

  00059	48 8b 44 24 50	 mov	 rax, QWORD PTR block$[rsp]
  0005e	8b 50 08	 mov	 edx, DWORD PTR [rax+8]
  00061	81 e2 ff 00 00
	00		 and	 edx, 255		; 000000ffH
  00067	c1 e2 18	 shl	 edx, 24
  0006a	48 8b 44 24 50	 mov	 rax, QWORD PTR block$[rsp]
  0006f	8b 48 0c	 mov	 ecx, DWORD PTR [rax+12]
  00072	0b ca		 or	 ecx, edx
  00074	48 8b 44 24 50	 mov	 rax, QWORD PTR block$[rsp]
  00079	89 48 0c	 mov	 DWORD PTR [rax+12], ecx

; 273  : 	block[2] >>= 8;

  0007c	48 8b 44 24 50	 mov	 rax, QWORD PTR block$[rsp]
  00081	8b 48 08	 mov	 ecx, DWORD PTR [rax+8]
  00084	c1 e9 08	 shr	 ecx, 8
  00087	48 8b 44 24 50	 mov	 rax, QWORD PTR block$[rsp]
  0008c	89 48 08	 mov	 DWORD PTR [rax+8], ecx

; 274  : 	block[2] |= (block[1] & 0xFF) << 24;

  0008f	48 8b 44 24 50	 mov	 rax, QWORD PTR block$[rsp]
  00094	8b 50 04	 mov	 edx, DWORD PTR [rax+4]
  00097	81 e2 ff 00 00
	00		 and	 edx, 255		; 000000ffH
  0009d	c1 e2 18	 shl	 edx, 24
  000a0	48 8b 44 24 50	 mov	 rax, QWORD PTR block$[rsp]
  000a5	8b 48 08	 mov	 ecx, DWORD PTR [rax+8]
  000a8	0b ca		 or	 ecx, edx
  000aa	48 8b 44 24 50	 mov	 rax, QWORD PTR block$[rsp]
  000af	89 48 08	 mov	 DWORD PTR [rax+8], ecx

; 275  : 	
; 276  : 
; 277  : //	block[0] >>= 8;
; 278  : //	block[0]  |= ((unsigned long)(val) << 56);
; 279  : 	block[1] >>= 8;

  000b2	48 8b 44 24 50	 mov	 rax, QWORD PTR block$[rsp]
  000b7	8b 48 04	 mov	 ecx, DWORD PTR [rax+4]
  000ba	c1 e9 08	 shr	 ecx, 8
  000bd	48 8b 44 24 50	 mov	 rax, QWORD PTR block$[rsp]
  000c2	89 48 04	 mov	 DWORD PTR [rax+4], ecx

; 280  : 	block[1] |= (block[0] & 0xFF) << 24;

  000c5	48 8b 44 24 50	 mov	 rax, QWORD PTR block$[rsp]
  000ca	8b 10		 mov	 edx, DWORD PTR [rax]
  000cc	81 e2 ff 00 00
	00		 and	 edx, 255		; 000000ffH
  000d2	c1 e2 18	 shl	 edx, 24
  000d5	48 8b 44 24 50	 mov	 rax, QWORD PTR block$[rsp]
  000da	8b 48 04	 mov	 ecx, DWORD PTR [rax+4]
  000dd	0b ca		 or	 ecx, edx
  000df	48 8b 44 24 50	 mov	 rax, QWORD PTR block$[rsp]
  000e4	89 48 04	 mov	 DWORD PTR [rax+4], ecx

; 281  : 	block[0] >>= 8;

  000e7	48 8b 44 24 50	 mov	 rax, QWORD PTR block$[rsp]
  000ec	8b 08		 mov	 ecx, DWORD PTR [rax]
  000ee	c1 e9 08	 shr	 ecx, 8
  000f1	48 8b 44 24 50	 mov	 rax, QWORD PTR block$[rsp]
  000f6	89 08		 mov	 DWORD PTR [rax], ecx

; 282  : 	block[0] |= ((unsigned long int)(val & 0xFF) << 24);

  000f8	0f b6 54 24 30	 movzx	 edx, BYTE PTR val$[rsp]
  000fd	81 e2 ff 00 00
	00		 and	 edx, 255		; 000000ffH
  00103	c1 e2 18	 shl	 edx, 24
  00106	48 8b 44 24 50	 mov	 rax, QWORD PTR block$[rsp]
  0010b	8b 08		 mov	 ecx, DWORD PTR [rax]
  0010d	0b ca		 or	 ecx, edx
  0010f	48 8b 44 24 50	 mov	 rax, QWORD PTR block$[rsp]
  00114	89 08		 mov	 DWORD PTR [rax], ecx

; 283  : 
; 284  : }

  00116	48 83 c4 48	 add	 rsp, 72			; 00000048H
  0011a	c3		 ret	 0
R	ENDP
PUBLIC	L_inv
;	COMDAT pdata
pdata	SEGMENT
$pdata$L_inv DD	imagerel $LN3
	DD	imagerel $LN3+174
	DD	imagerel $unwind$L_inv
pdata	ENDS
;	COMDAT xdata
xdata	SEGMENT
$unwind$L_inv DD 010901H
	DD	04209H
; Function compile flags: /Odtp
xdata	ENDS
;	COMDAT L_inv
_TEXT	SEGMENT
block$ = 48
L_inv	PROC						; COMDAT

; 351  : {

$LN3:
  00000	48 89 4c 24 08	 mov	 QWORD PTR [rsp+8], rcx
  00005	48 83 ec 28	 sub	 rsp, 40			; 00000028H

; 352  : 	R_inv(block); R_inv(block); R_inv(block); R_inv(block);

  00009	48 8b 4c 24 30	 mov	 rcx, QWORD PTR block$[rsp]
  0000e	e8 00 00 00 00	 call	 R_inv
  00013	48 8b 4c 24 30	 mov	 rcx, QWORD PTR block$[rsp]
  00018	e8 00 00 00 00	 call	 R_inv
  0001d	48 8b 4c 24 30	 mov	 rcx, QWORD PTR block$[rsp]
  00022	e8 00 00 00 00	 call	 R_inv
  00027	48 8b 4c 24 30	 mov	 rcx, QWORD PTR block$[rsp]
  0002c	e8 00 00 00 00	 call	 R_inv

; 353  : 	R_inv(block); R_inv(block); R_inv(block); R_inv(block);

  00031	48 8b 4c 24 30	 mov	 rcx, QWORD PTR block$[rsp]
  00036	e8 00 00 00 00	 call	 R_inv
  0003b	48 8b 4c 24 30	 mov	 rcx, QWORD PTR block$[rsp]
  00040	e8 00 00 00 00	 call	 R_inv
  00045	48 8b 4c 24 30	 mov	 rcx, QWORD PTR block$[rsp]
  0004a	e8 00 00 00 00	 call	 R_inv
  0004f	48 8b 4c 24 30	 mov	 rcx, QWORD PTR block$[rsp]
  00054	e8 00 00 00 00	 call	 R_inv

; 354  : 	R_inv(block); R_inv(block); R_inv(block); R_inv(block);

  00059	48 8b 4c 24 30	 mov	 rcx, QWORD PTR block$[rsp]
  0005e	e8 00 00 00 00	 call	 R_inv
  00063	48 8b 4c 24 30	 mov	 rcx, QWORD PTR block$[rsp]
  00068	e8 00 00 00 00	 call	 R_inv
  0006d	48 8b 4c 24 30	 mov	 rcx, QWORD PTR block$[rsp]
  00072	e8 00 00 00 00	 call	 R_inv
  00077	48 8b 4c 24 30	 mov	 rcx, QWORD PTR block$[rsp]
  0007c	e8 00 00 00 00	 call	 R_inv

; 355  : 	R_inv(block); R_inv(block); R_inv(block); R_inv(block);

  00081	48 8b 4c 24 30	 mov	 rcx, QWORD PTR block$[rsp]
  00086	e8 00 00 00 00	 call	 R_inv
  0008b	48 8b 4c 24 30	 mov	 rcx, QWORD PTR block$[rsp]
  00090	e8 00 00 00 00	 call	 R_inv
  00095	48 8b 4c 24 30	 mov	 rcx, QWORD PTR block$[rsp]
  0009a	e8 00 00 00 00	 call	 R_inv
  0009f	48 8b 4c 24 30	 mov	 rcx, QWORD PTR block$[rsp]
  000a4	e8 00 00 00 00	 call	 R_inv

; 356  : }

  000a9	48 83 c4 28	 add	 rsp, 40			; 00000028H
  000ad	c3		 ret	 0
L_inv	ENDP
_TEXT	ENDS
PUBLIC	L
;	COMDAT pdata
pdata	SEGMENT
$pdata$L DD	imagerel $LN3
	DD	imagerel $LN3+174
	DD	imagerel $unwind$L
pdata	ENDS
;	COMDAT xdata
xdata	SEGMENT
$unwind$L DD	010901H
	DD	04209H
; Function compile flags: /Odtp
xdata	ENDS
;	COMDAT L
_TEXT	SEGMENT
block$ = 48
L	PROC						; COMDAT

; 334  : {

$LN3:
  00000	48 89 4c 24 08	 mov	 QWORD PTR [rsp+8], rcx
  00005	48 83 ec 28	 sub	 rsp, 40			; 00000028H

; 335  : 	R(block); R(block); R(block); R(block);

  00009	48 8b 4c 24 30	 mov	 rcx, QWORD PTR block$[rsp]
  0000e	e8 00 00 00 00	 call	 R
  00013	48 8b 4c 24 30	 mov	 rcx, QWORD PTR block$[rsp]
  00018	e8 00 00 00 00	 call	 R
  0001d	48 8b 4c 24 30	 mov	 rcx, QWORD PTR block$[rsp]
  00022	e8 00 00 00 00	 call	 R
  00027	48 8b 4c 24 30	 mov	 rcx, QWORD PTR block$[rsp]
  0002c	e8 00 00 00 00	 call	 R

; 336  : 	R(block); R(block); R(block); R(block);

  00031	48 8b 4c 24 30	 mov	 rcx, QWORD PTR block$[rsp]
  00036	e8 00 00 00 00	 call	 R
  0003b	48 8b 4c 24 30	 mov	 rcx, QWORD PTR block$[rsp]
  00040	e8 00 00 00 00	 call	 R
  00045	48 8b 4c 24 30	 mov	 rcx, QWORD PTR block$[rsp]
  0004a	e8 00 00 00 00	 call	 R
  0004f	48 8b 4c 24 30	 mov	 rcx, QWORD PTR block$[rsp]
  00054	e8 00 00 00 00	 call	 R

; 337  : 	R(block); R(block); R(block); R(block);

  00059	48 8b 4c 24 30	 mov	 rcx, QWORD PTR block$[rsp]
  0005e	e8 00 00 00 00	 call	 R
  00063	48 8b 4c 24 30	 mov	 rcx, QWORD PTR block$[rsp]
  00068	e8 00 00 00 00	 call	 R
  0006d	48 8b 4c 24 30	 mov	 rcx, QWORD PTR block$[rsp]
  00072	e8 00 00 00 00	 call	 R
  00077	48 8b 4c 24 30	 mov	 rcx, QWORD PTR block$[rsp]
  0007c	e8 00 00 00 00	 call	 R

; 338  : 	R(block); R(block); R(block); R(block);

  00081	48 8b 4c 24 30	 mov	 rcx, QWORD PTR block$[rsp]
  00086	e8 00 00 00 00	 call	 R
  0008b	48 8b 4c 24 30	 mov	 rcx, QWORD PTR block$[rsp]
  00090	e8 00 00 00 00	 call	 R
  00095	48 8b 4c 24 30	 mov	 rcx, QWORD PTR block$[rsp]
  0009a	e8 00 00 00 00	 call	 R
  0009f	48 8b 4c 24 30	 mov	 rcx, QWORD PTR block$[rsp]
  000a4	e8 00 00 00 00	 call	 R

; 339  : }

  000a9	48 83 c4 28	 add	 rsp, 40			; 00000028H
  000ad	c3		 ret	 0
L	ENDP
PUBLIC	grasshopper_decrypt
;	COMDAT pdata
pdata	SEGMENT
$pdata$grasshopper_decrypt DD imagerel $LN3
	DD	imagerel $LN3+1361
	DD	imagerel $unwind$grasshopper_decrypt
pdata	ENDS
;	COMDAT xdata
xdata	SEGMENT
$unwind$grasshopper_decrypt DD 011301H
	DD	04213H
; Function compile flags: /Odtp
xdata	ENDS
;	COMDAT grasshopper_decrypt
_TEXT	SEGMENT
subkeys$ = 48
ciphertext$ = 56
plaintext$ = 64
grasshopper_decrypt PROC				; COMDAT

; 532  : {

$LN3:
  00000	4c 89 44 24 18	 mov	 QWORD PTR [rsp+24], r8
  00005	48 89 54 24 10	 mov	 QWORD PTR [rsp+16], rdx
  0000a	48 89 4c 24 08	 mov	 QWORD PTR [rsp+8], rcx
  0000f	48 83 ec 28	 sub	 rsp, 40			; 00000028H

; 533  : 	changeEndian(&ciphertext[0]); changeEndian(&ciphertext[1]); changeEndian(&ciphertext[2]); changeEndian(&ciphertext[3]);

  00013	48 8b 4c 24 38	 mov	 rcx, QWORD PTR ciphertext$[rsp]
  00018	e8 00 00 00 00	 call	 changeEndian
  0001d	48 8b 4c 24 38	 mov	 rcx, QWORD PTR ciphertext$[rsp]
  00022	48 83 c1 04	 add	 rcx, 4
  00026	e8 00 00 00 00	 call	 changeEndian
  0002b	48 8b 4c 24 38	 mov	 rcx, QWORD PTR ciphertext$[rsp]
  00030	48 83 c1 08	 add	 rcx, 8
  00034	e8 00 00 00 00	 call	 changeEndian
  00039	48 8b 4c 24 38	 mov	 rcx, QWORD PTR ciphertext$[rsp]
  0003e	48 83 c1 0c	 add	 rcx, 12
  00042	e8 00 00 00 00	 call	 changeEndian

; 534  : 
; 535  : 	/* Round 1 with subkey 10 */
; 536  : 	plaintext[0] = ciphertext[0] ^ subkeys->y900; plaintext[1] = ciphertext[1] ^ subkeys->y901; plaintext[2] = ciphertext[2] ^ subkeys->y910; plaintext[3] = ciphertext[3] ^ subkeys->y911;

  00047	4c 8b 5c 24 38	 mov	 r11, QWORD PTR ciphertext$[rsp]
  0004c	48 8b 44 24 30	 mov	 rax, QWORD PTR subkeys$[rsp]
  00051	8b 80 90 00 00
	00		 mov	 eax, DWORD PTR [rax+144]
  00057	41 8b 0b	 mov	 ecx, DWORD PTR [r11]
  0005a	33 c8		 xor	 ecx, eax
  0005c	48 8b 44 24 40	 mov	 rax, QWORD PTR plaintext$[rsp]
  00061	89 08		 mov	 DWORD PTR [rax], ecx
  00063	48 8b 4c 24 38	 mov	 rcx, QWORD PTR ciphertext$[rsp]
  00068	48 8b 44 24 30	 mov	 rax, QWORD PTR subkeys$[rsp]
  0006d	8b 80 94 00 00
	00		 mov	 eax, DWORD PTR [rax+148]
  00073	8b 49 04	 mov	 ecx, DWORD PTR [rcx+4]
  00076	33 c8		 xor	 ecx, eax
  00078	48 8b 44 24 40	 mov	 rax, QWORD PTR plaintext$[rsp]
  0007d	89 48 04	 mov	 DWORD PTR [rax+4], ecx
  00080	48 8b 4c 24 38	 mov	 rcx, QWORD PTR ciphertext$[rsp]
  00085	48 8b 44 24 30	 mov	 rax, QWORD PTR subkeys$[rsp]
  0008a	8b 80 98 00 00
	00		 mov	 eax, DWORD PTR [rax+152]
  00090	8b 49 08	 mov	 ecx, DWORD PTR [rcx+8]
  00093	33 c8		 xor	 ecx, eax
  00095	48 8b 44 24 40	 mov	 rax, QWORD PTR plaintext$[rsp]
  0009a	89 48 08	 mov	 DWORD PTR [rax+8], ecx
  0009d	48 8b 4c 24 38	 mov	 rcx, QWORD PTR ciphertext$[rsp]
  000a2	48 8b 44 24 30	 mov	 rax, QWORD PTR subkeys$[rsp]
  000a7	8b 80 9c 00 00
	00		 mov	 eax, DWORD PTR [rax+156]
  000ad	8b 49 0c	 mov	 ecx, DWORD PTR [rcx+12]
  000b0	33 c8		 xor	 ecx, eax
  000b2	48 8b 44 24 40	 mov	 rax, QWORD PTR plaintext$[rsp]
  000b7	89 48 0c	 mov	 DWORD PTR [rax+12], ecx

; 537  : 	L_inv(plaintext); S_inv(plaintext);

  000ba	48 8b 4c 24 40	 mov	 rcx, QWORD PTR plaintext$[rsp]
  000bf	e8 00 00 00 00	 call	 L_inv
  000c4	48 8b 4c 24 40	 mov	 rcx, QWORD PTR plaintext$[rsp]
  000c9	e8 00 00 00 00	 call	 S_inv

; 538  : 
; 539  : 	/* Round 2 with subkey 9 */
; 540  : 	plaintext[0] ^= subkeys->y800; plaintext[1] ^= subkeys->y801; plaintext[2] ^= subkeys->y810; plaintext[3] ^= subkeys->y811;

  000ce	4c 8b 5c 24 40	 mov	 r11, QWORD PTR plaintext$[rsp]
  000d3	48 8b 44 24 30	 mov	 rax, QWORD PTR subkeys$[rsp]
  000d8	8b 80 80 00 00
	00		 mov	 eax, DWORD PTR [rax+128]
  000de	41 8b 0b	 mov	 ecx, DWORD PTR [r11]
  000e1	33 c8		 xor	 ecx, eax
  000e3	48 8b 44 24 40	 mov	 rax, QWORD PTR plaintext$[rsp]
  000e8	89 08		 mov	 DWORD PTR [rax], ecx
  000ea	48 8b 4c 24 40	 mov	 rcx, QWORD PTR plaintext$[rsp]
  000ef	48 8b 44 24 30	 mov	 rax, QWORD PTR subkeys$[rsp]
  000f4	8b 80 84 00 00
	00		 mov	 eax, DWORD PTR [rax+132]
  000fa	8b 49 04	 mov	 ecx, DWORD PTR [rcx+4]
  000fd	33 c8		 xor	 ecx, eax
  000ff	48 8b 44 24 40	 mov	 rax, QWORD PTR plaintext$[rsp]
  00104	89 48 04	 mov	 DWORD PTR [rax+4], ecx
  00107	48 8b 4c 24 40	 mov	 rcx, QWORD PTR plaintext$[rsp]
  0010c	48 8b 44 24 30	 mov	 rax, QWORD PTR subkeys$[rsp]
  00111	8b 80 88 00 00
	00		 mov	 eax, DWORD PTR [rax+136]
  00117	8b 49 08	 mov	 ecx, DWORD PTR [rcx+8]
  0011a	33 c8		 xor	 ecx, eax
  0011c	48 8b 44 24 40	 mov	 rax, QWORD PTR plaintext$[rsp]
  00121	89 48 08	 mov	 DWORD PTR [rax+8], ecx
  00124	48 8b 4c 24 40	 mov	 rcx, QWORD PTR plaintext$[rsp]
  00129	48 8b 44 24 30	 mov	 rax, QWORD PTR subkeys$[rsp]
  0012e	8b 80 8c 00 00
	00		 mov	 eax, DWORD PTR [rax+140]
  00134	8b 49 0c	 mov	 ecx, DWORD PTR [rcx+12]
  00137	33 c8		 xor	 ecx, eax
  00139	48 8b 44 24 40	 mov	 rax, QWORD PTR plaintext$[rsp]
  0013e	89 48 0c	 mov	 DWORD PTR [rax+12], ecx

; 541  : 	L_inv(plaintext); S_inv(plaintext);

  00141	48 8b 4c 24 40	 mov	 rcx, QWORD PTR plaintext$[rsp]
  00146	e8 00 00 00 00	 call	 L_inv
  0014b	48 8b 4c 24 40	 mov	 rcx, QWORD PTR plaintext$[rsp]
  00150	e8 00 00 00 00	 call	 S_inv

; 542  : 
; 543  : 	/* Round 3 with subkey 8 */
; 544  : 	plaintext[0] ^= subkeys->y700; plaintext[1] ^= subkeys->y701; plaintext[2] ^= subkeys->y710; plaintext[3] ^= subkeys->y711;

  00155	4c 8b 5c 24 40	 mov	 r11, QWORD PTR plaintext$[rsp]
  0015a	48 8b 44 24 30	 mov	 rax, QWORD PTR subkeys$[rsp]
  0015f	8b 40 70	 mov	 eax, DWORD PTR [rax+112]
  00162	41 8b 0b	 mov	 ecx, DWORD PTR [r11]
  00165	33 c8		 xor	 ecx, eax
  00167	48 8b 44 24 40	 mov	 rax, QWORD PTR plaintext$[rsp]
  0016c	89 08		 mov	 DWORD PTR [rax], ecx
  0016e	48 8b 4c 24 40	 mov	 rcx, QWORD PTR plaintext$[rsp]
  00173	48 8b 44 24 30	 mov	 rax, QWORD PTR subkeys$[rsp]
  00178	8b 40 74	 mov	 eax, DWORD PTR [rax+116]
  0017b	8b 49 04	 mov	 ecx, DWORD PTR [rcx+4]
  0017e	33 c8		 xor	 ecx, eax
  00180	48 8b 44 24 40	 mov	 rax, QWORD PTR plaintext$[rsp]
  00185	89 48 04	 mov	 DWORD PTR [rax+4], ecx
  00188	48 8b 4c 24 40	 mov	 rcx, QWORD PTR plaintext$[rsp]
  0018d	48 8b 44 24 30	 mov	 rax, QWORD PTR subkeys$[rsp]
  00192	8b 40 78	 mov	 eax, DWORD PTR [rax+120]
  00195	8b 49 08	 mov	 ecx, DWORD PTR [rcx+8]
  00198	33 c8		 xor	 ecx, eax
  0019a	48 8b 44 24 40	 mov	 rax, QWORD PTR plaintext$[rsp]
  0019f	89 48 08	 mov	 DWORD PTR [rax+8], ecx
  001a2	48 8b 4c 24 40	 mov	 rcx, QWORD PTR plaintext$[rsp]
  001a7	48 8b 44 24 30	 mov	 rax, QWORD PTR subkeys$[rsp]
  001ac	8b 40 7c	 mov	 eax, DWORD PTR [rax+124]
  001af	8b 49 0c	 mov	 ecx, DWORD PTR [rcx+12]
  001b2	33 c8		 xor	 ecx, eax
  001b4	48 8b 44 24 40	 mov	 rax, QWORD PTR plaintext$[rsp]
  001b9	89 48 0c	 mov	 DWORD PTR [rax+12], ecx

; 545  : 	L_inv(plaintext); S_inv(plaintext);

  001bc	48 8b 4c 24 40	 mov	 rcx, QWORD PTR plaintext$[rsp]
  001c1	e8 00 00 00 00	 call	 L_inv
  001c6	48 8b 4c 24 40	 mov	 rcx, QWORD PTR plaintext$[rsp]
  001cb	e8 00 00 00 00	 call	 S_inv

; 546  : 
; 547  : 	/* Round 4 with subkey 7 */
; 548  : 	plaintext[0] ^= subkeys->y600; plaintext[1] ^= subkeys->y601; plaintext[2] ^= subkeys->y610; plaintext[3] ^= subkeys->y611;

  001d0	4c 8b 5c 24 40	 mov	 r11, QWORD PTR plaintext$[rsp]
  001d5	48 8b 44 24 30	 mov	 rax, QWORD PTR subkeys$[rsp]
  001da	8b 40 60	 mov	 eax, DWORD PTR [rax+96]
  001dd	41 8b 0b	 mov	 ecx, DWORD PTR [r11]
  001e0	33 c8		 xor	 ecx, eax
  001e2	48 8b 44 24 40	 mov	 rax, QWORD PTR plaintext$[rsp]
  001e7	89 08		 mov	 DWORD PTR [rax], ecx
  001e9	48 8b 4c 24 40	 mov	 rcx, QWORD PTR plaintext$[rsp]
  001ee	48 8b 44 24 30	 mov	 rax, QWORD PTR subkeys$[rsp]
  001f3	8b 40 64	 mov	 eax, DWORD PTR [rax+100]
  001f6	8b 49 04	 mov	 ecx, DWORD PTR [rcx+4]
  001f9	33 c8		 xor	 ecx, eax
  001fb	48 8b 44 24 40	 mov	 rax, QWORD PTR plaintext$[rsp]
  00200	89 48 04	 mov	 DWORD PTR [rax+4], ecx
  00203	48 8b 4c 24 40	 mov	 rcx, QWORD PTR plaintext$[rsp]
  00208	48 8b 44 24 30	 mov	 rax, QWORD PTR subkeys$[rsp]
  0020d	8b 40 68	 mov	 eax, DWORD PTR [rax+104]
  00210	8b 49 08	 mov	 ecx, DWORD PTR [rcx+8]
  00213	33 c8		 xor	 ecx, eax
  00215	48 8b 44 24 40	 mov	 rax, QWORD PTR plaintext$[rsp]
  0021a	89 48 08	 mov	 DWORD PTR [rax+8], ecx
  0021d	48 8b 4c 24 40	 mov	 rcx, QWORD PTR plaintext$[rsp]
  00222	48 8b 44 24 30	 mov	 rax, QWORD PTR subkeys$[rsp]
  00227	8b 40 6c	 mov	 eax, DWORD PTR [rax+108]
  0022a	8b 49 0c	 mov	 ecx, DWORD PTR [rcx+12]
  0022d	33 c8		 xor	 ecx, eax
  0022f	48 8b 44 24 40	 mov	 rax, QWORD PTR plaintext$[rsp]
  00234	89 48 0c	 mov	 DWORD PTR [rax+12], ecx

; 549  : 	L_inv(plaintext); S_inv(plaintext);

  00237	48 8b 4c 24 40	 mov	 rcx, QWORD PTR plaintext$[rsp]
  0023c	e8 00 00 00 00	 call	 L_inv
  00241	48 8b 4c 24 40	 mov	 rcx, QWORD PTR plaintext$[rsp]
  00246	e8 00 00 00 00	 call	 S_inv

; 550  : 
; 551  : 	/* Round 5 with subkey 6 */
; 552  : 	plaintext[0] ^= subkeys->y500; plaintext[1] ^= subkeys->y501; plaintext[2] ^= subkeys->y510; plaintext[3] ^= subkeys->y511;

  0024b	4c 8b 5c 24 40	 mov	 r11, QWORD PTR plaintext$[rsp]
  00250	48 8b 44 24 30	 mov	 rax, QWORD PTR subkeys$[rsp]
  00255	8b 40 50	 mov	 eax, DWORD PTR [rax+80]
  00258	41 8b 0b	 mov	 ecx, DWORD PTR [r11]
  0025b	33 c8		 xor	 ecx, eax
  0025d	48 8b 44 24 40	 mov	 rax, QWORD PTR plaintext$[rsp]
  00262	89 08		 mov	 DWORD PTR [rax], ecx
  00264	48 8b 4c 24 40	 mov	 rcx, QWORD PTR plaintext$[rsp]
  00269	48 8b 44 24 30	 mov	 rax, QWORD PTR subkeys$[rsp]
  0026e	8b 40 54	 mov	 eax, DWORD PTR [rax+84]
  00271	8b 49 04	 mov	 ecx, DWORD PTR [rcx+4]
  00274	33 c8		 xor	 ecx, eax
  00276	48 8b 44 24 40	 mov	 rax, QWORD PTR plaintext$[rsp]
  0027b	89 48 04	 mov	 DWORD PTR [rax+4], ecx
  0027e	48 8b 4c 24 40	 mov	 rcx, QWORD PTR plaintext$[rsp]
  00283	48 8b 44 24 30	 mov	 rax, QWORD PTR subkeys$[rsp]
  00288	8b 40 58	 mov	 eax, DWORD PTR [rax+88]
  0028b	8b 49 08	 mov	 ecx, DWORD PTR [rcx+8]
  0028e	33 c8		 xor	 ecx, eax
  00290	48 8b 44 24 40	 mov	 rax, QWORD PTR plaintext$[rsp]
  00295	89 48 08	 mov	 DWORD PTR [rax+8], ecx
  00298	48 8b 4c 24 40	 mov	 rcx, QWORD PTR plaintext$[rsp]
  0029d	48 8b 44 24 30	 mov	 rax, QWORD PTR subkeys$[rsp]
  002a2	8b 40 5c	 mov	 eax, DWORD PTR [rax+92]
  002a5	8b 49 0c	 mov	 ecx, DWORD PTR [rcx+12]
  002a8	33 c8		 xor	 ecx, eax
  002aa	48 8b 44 24 40	 mov	 rax, QWORD PTR plaintext$[rsp]
  002af	89 48 0c	 mov	 DWORD PTR [rax+12], ecx

; 553  : 	L_inv(plaintext); S_inv(plaintext);

  002b2	48 8b 4c 24 40	 mov	 rcx, QWORD PTR plaintext$[rsp]
  002b7	e8 00 00 00 00	 call	 L_inv
  002bc	48 8b 4c 24 40	 mov	 rcx, QWORD PTR plaintext$[rsp]
  002c1	e8 00 00 00 00	 call	 S_inv

; 554  : 
; 555  : 	/* Round 6 with subkey 5 */
; 556  : 	plaintext[0] ^= subkeys->y400; plaintext[1] ^= subkeys->y401; plaintext[2] ^= subkeys->y410; plaintext[3] ^= subkeys->y411;

  002c6	4c 8b 5c 24 40	 mov	 r11, QWORD PTR plaintext$[rsp]
  002cb	48 8b 44 24 30	 mov	 rax, QWORD PTR subkeys$[rsp]
  002d0	8b 40 40	 mov	 eax, DWORD PTR [rax+64]
  002d3	41 8b 0b	 mov	 ecx, DWORD PTR [r11]
  002d6	33 c8		 xor	 ecx, eax
  002d8	48 8b 44 24 40	 mov	 rax, QWORD PTR plaintext$[rsp]
  002dd	89 08		 mov	 DWORD PTR [rax], ecx
  002df	48 8b 4c 24 40	 mov	 rcx, QWORD PTR plaintext$[rsp]
  002e4	48 8b 44 24 30	 mov	 rax, QWORD PTR subkeys$[rsp]
  002e9	8b 40 44	 mov	 eax, DWORD PTR [rax+68]
  002ec	8b 49 04	 mov	 ecx, DWORD PTR [rcx+4]
  002ef	33 c8		 xor	 ecx, eax
  002f1	48 8b 44 24 40	 mov	 rax, QWORD PTR plaintext$[rsp]
  002f6	89 48 04	 mov	 DWORD PTR [rax+4], ecx
  002f9	48 8b 4c 24 40	 mov	 rcx, QWORD PTR plaintext$[rsp]
  002fe	48 8b 44 24 30	 mov	 rax, QWORD PTR subkeys$[rsp]
  00303	8b 40 48	 mov	 eax, DWORD PTR [rax+72]
  00306	8b 49 08	 mov	 ecx, DWORD PTR [rcx+8]
  00309	33 c8		 xor	 ecx, eax
  0030b	48 8b 44 24 40	 mov	 rax, QWORD PTR plaintext$[rsp]
  00310	89 48 08	 mov	 DWORD PTR [rax+8], ecx
  00313	48 8b 4c 24 40	 mov	 rcx, QWORD PTR plaintext$[rsp]
  00318	48 8b 44 24 30	 mov	 rax, QWORD PTR subkeys$[rsp]
  0031d	8b 40 4c	 mov	 eax, DWORD PTR [rax+76]
  00320	8b 49 0c	 mov	 ecx, DWORD PTR [rcx+12]
  00323	33 c8		 xor	 ecx, eax
  00325	48 8b 44 24 40	 mov	 rax, QWORD PTR plaintext$[rsp]
  0032a	89 48 0c	 mov	 DWORD PTR [rax+12], ecx

; 557  : 	L_inv(plaintext); S_inv(plaintext);

  0032d	48 8b 4c 24 40	 mov	 rcx, QWORD PTR plaintext$[rsp]
  00332	e8 00 00 00 00	 call	 L_inv
  00337	48 8b 4c 24 40	 mov	 rcx, QWORD PTR plaintext$[rsp]
  0033c	e8 00 00 00 00	 call	 S_inv

; 558  : 
; 559  : 	/* Round 7 with subkey 4 */
; 560  : 	plaintext[0] ^= subkeys->y300; plaintext[1] ^= subkeys->y301; plaintext[2] ^= subkeys->y310; plaintext[3] ^= subkeys->y311;

  00341	4c 8b 5c 24 40	 mov	 r11, QWORD PTR plaintext$[rsp]
  00346	48 8b 44 24 30	 mov	 rax, QWORD PTR subkeys$[rsp]
  0034b	8b 40 30	 mov	 eax, DWORD PTR [rax+48]
  0034e	41 8b 0b	 mov	 ecx, DWORD PTR [r11]
  00351	33 c8		 xor	 ecx, eax
  00353	48 8b 44 24 40	 mov	 rax, QWORD PTR plaintext$[rsp]
  00358	89 08		 mov	 DWORD PTR [rax], ecx
  0035a	48 8b 4c 24 40	 mov	 rcx, QWORD PTR plaintext$[rsp]
  0035f	48 8b 44 24 30	 mov	 rax, QWORD PTR subkeys$[rsp]
  00364	8b 40 34	 mov	 eax, DWORD PTR [rax+52]
  00367	8b 49 04	 mov	 ecx, DWORD PTR [rcx+4]
  0036a	33 c8		 xor	 ecx, eax
  0036c	48 8b 44 24 40	 mov	 rax, QWORD PTR plaintext$[rsp]
  00371	89 48 04	 mov	 DWORD PTR [rax+4], ecx
  00374	48 8b 4c 24 40	 mov	 rcx, QWORD PTR plaintext$[rsp]
  00379	48 8b 44 24 30	 mov	 rax, QWORD PTR subkeys$[rsp]
  0037e	8b 40 38	 mov	 eax, DWORD PTR [rax+56]
  00381	8b 49 08	 mov	 ecx, DWORD PTR [rcx+8]
  00384	33 c8		 xor	 ecx, eax
  00386	48 8b 44 24 40	 mov	 rax, QWORD PTR plaintext$[rsp]
  0038b	89 48 08	 mov	 DWORD PTR [rax+8], ecx
  0038e	48 8b 4c 24 40	 mov	 rcx, QWORD PTR plaintext$[rsp]
  00393	48 8b 44 24 30	 mov	 rax, QWORD PTR subkeys$[rsp]
  00398	8b 40 3c	 mov	 eax, DWORD PTR [rax+60]
  0039b	8b 49 0c	 mov	 ecx, DWORD PTR [rcx+12]
  0039e	33 c8		 xor	 ecx, eax
  003a0	48 8b 44 24 40	 mov	 rax, QWORD PTR plaintext$[rsp]
  003a5	89 48 0c	 mov	 DWORD PTR [rax+12], ecx

; 561  : 	L_inv(plaintext); S_inv(plaintext);

  003a8	48 8b 4c 24 40	 mov	 rcx, QWORD PTR plaintext$[rsp]
  003ad	e8 00 00 00 00	 call	 L_inv
  003b2	48 8b 4c 24 40	 mov	 rcx, QWORD PTR plaintext$[rsp]
  003b7	e8 00 00 00 00	 call	 S_inv

; 562  : 
; 563  : 	/* Round 8 with subkey 3 */
; 564  : 	plaintext[0] ^= subkeys->y200; plaintext[1] ^= subkeys->y201; plaintext[2] ^= subkeys->y210; plaintext[3] ^= subkeys->y211;

  003bc	4c 8b 5c 24 40	 mov	 r11, QWORD PTR plaintext$[rsp]
  003c1	48 8b 44 24 30	 mov	 rax, QWORD PTR subkeys$[rsp]
  003c6	8b 40 20	 mov	 eax, DWORD PTR [rax+32]
  003c9	41 8b 0b	 mov	 ecx, DWORD PTR [r11]
  003cc	33 c8		 xor	 ecx, eax
  003ce	48 8b 44 24 40	 mov	 rax, QWORD PTR plaintext$[rsp]
  003d3	89 08		 mov	 DWORD PTR [rax], ecx
  003d5	48 8b 4c 24 40	 mov	 rcx, QWORD PTR plaintext$[rsp]
  003da	48 8b 44 24 30	 mov	 rax, QWORD PTR subkeys$[rsp]
  003df	8b 40 24	 mov	 eax, DWORD PTR [rax+36]
  003e2	8b 49 04	 mov	 ecx, DWORD PTR [rcx+4]
  003e5	33 c8		 xor	 ecx, eax
  003e7	48 8b 44 24 40	 mov	 rax, QWORD PTR plaintext$[rsp]
  003ec	89 48 04	 mov	 DWORD PTR [rax+4], ecx
  003ef	48 8b 4c 24 40	 mov	 rcx, QWORD PTR plaintext$[rsp]
  003f4	48 8b 44 24 30	 mov	 rax, QWORD PTR subkeys$[rsp]
  003f9	8b 40 28	 mov	 eax, DWORD PTR [rax+40]
  003fc	8b 49 08	 mov	 ecx, DWORD PTR [rcx+8]
  003ff	33 c8		 xor	 ecx, eax
  00401	48 8b 44 24 40	 mov	 rax, QWORD PTR plaintext$[rsp]
  00406	89 48 08	 mov	 DWORD PTR [rax+8], ecx
  00409	48 8b 4c 24 40	 mov	 rcx, QWORD PTR plaintext$[rsp]
  0040e	48 8b 44 24 30	 mov	 rax, QWORD PTR subkeys$[rsp]
  00413	8b 40 2c	 mov	 eax, DWORD PTR [rax+44]
  00416	8b 49 0c	 mov	 ecx, DWORD PTR [rcx+12]
  00419	33 c8		 xor	 ecx, eax
  0041b	48 8b 44 24 40	 mov	 rax, QWORD PTR plaintext$[rsp]
  00420	89 48 0c	 mov	 DWORD PTR [rax+12], ecx

; 565  : 	L_inv(plaintext); S_inv(plaintext);

  00423	48 8b 4c 24 40	 mov	 rcx, QWORD PTR plaintext$[rsp]
  00428	e8 00 00 00 00	 call	 L_inv
  0042d	48 8b 4c 24 40	 mov	 rcx, QWORD PTR plaintext$[rsp]
  00432	e8 00 00 00 00	 call	 S_inv

; 566  : 
; 567  : 	/* Round 9 with subkey 2 */
; 568  : 	plaintext[0] ^= subkeys->y100; plaintext[1] ^= subkeys->y101; plaintext[2] ^= subkeys->y110; plaintext[3] ^= subkeys->y111;

  00437	4c 8b 5c 24 40	 mov	 r11, QWORD PTR plaintext$[rsp]
  0043c	48 8b 44 24 30	 mov	 rax, QWORD PTR subkeys$[rsp]
  00441	8b 40 10	 mov	 eax, DWORD PTR [rax+16]
  00444	41 8b 0b	 mov	 ecx, DWORD PTR [r11]
  00447	33 c8		 xor	 ecx, eax
  00449	48 8b 44 24 40	 mov	 rax, QWORD PTR plaintext$[rsp]
  0044e	89 08		 mov	 DWORD PTR [rax], ecx
  00450	48 8b 4c 24 40	 mov	 rcx, QWORD PTR plaintext$[rsp]
  00455	48 8b 44 24 30	 mov	 rax, QWORD PTR subkeys$[rsp]
  0045a	8b 40 14	 mov	 eax, DWORD PTR [rax+20]
  0045d	8b 49 04	 mov	 ecx, DWORD PTR [rcx+4]
  00460	33 c8		 xor	 ecx, eax
  00462	48 8b 44 24 40	 mov	 rax, QWORD PTR plaintext$[rsp]
  00467	89 48 04	 mov	 DWORD PTR [rax+4], ecx
  0046a	48 8b 4c 24 40	 mov	 rcx, QWORD PTR plaintext$[rsp]
  0046f	48 8b 44 24 30	 mov	 rax, QWORD PTR subkeys$[rsp]
  00474	8b 40 18	 mov	 eax, DWORD PTR [rax+24]
  00477	8b 49 08	 mov	 ecx, DWORD PTR [rcx+8]
  0047a	33 c8		 xor	 ecx, eax
  0047c	48 8b 44 24 40	 mov	 rax, QWORD PTR plaintext$[rsp]
  00481	89 48 08	 mov	 DWORD PTR [rax+8], ecx
  00484	48 8b 4c 24 40	 mov	 rcx, QWORD PTR plaintext$[rsp]
  00489	48 8b 44 24 30	 mov	 rax, QWORD PTR subkeys$[rsp]
  0048e	8b 40 1c	 mov	 eax, DWORD PTR [rax+28]
  00491	8b 49 0c	 mov	 ecx, DWORD PTR [rcx+12]
  00494	33 c8		 xor	 ecx, eax
  00496	48 8b 44 24 40	 mov	 rax, QWORD PTR plaintext$[rsp]
  0049b	89 48 0c	 mov	 DWORD PTR [rax+12], ecx

; 569  : 	L_inv(plaintext); S_inv(plaintext);

  0049e	48 8b 4c 24 40	 mov	 rcx, QWORD PTR plaintext$[rsp]
  004a3	e8 00 00 00 00	 call	 L_inv
  004a8	48 8b 4c 24 40	 mov	 rcx, QWORD PTR plaintext$[rsp]
  004ad	e8 00 00 00 00	 call	 S_inv

; 570  : 
; 571  : 	/* Round 10 with subkey 1 */
; 572  : 	plaintext[0] ^= subkeys->y000; plaintext[1] ^= subkeys->y001; plaintext[2] ^= subkeys->y010; plaintext[3] ^= subkeys->y011;

  004b2	4c 8b 5c 24 40	 mov	 r11, QWORD PTR plaintext$[rsp]
  004b7	48 8b 44 24 30	 mov	 rax, QWORD PTR subkeys$[rsp]
  004bc	8b 00		 mov	 eax, DWORD PTR [rax]
  004be	41 8b 0b	 mov	 ecx, DWORD PTR [r11]
  004c1	33 c8		 xor	 ecx, eax
  004c3	48 8b 44 24 40	 mov	 rax, QWORD PTR plaintext$[rsp]
  004c8	89 08		 mov	 DWORD PTR [rax], ecx
  004ca	48 8b 4c 24 40	 mov	 rcx, QWORD PTR plaintext$[rsp]
  004cf	48 8b 44 24 30	 mov	 rax, QWORD PTR subkeys$[rsp]
  004d4	8b 40 04	 mov	 eax, DWORD PTR [rax+4]
  004d7	8b 49 04	 mov	 ecx, DWORD PTR [rcx+4]
  004da	33 c8		 xor	 ecx, eax
  004dc	48 8b 44 24 40	 mov	 rax, QWORD PTR plaintext$[rsp]
  004e1	89 48 04	 mov	 DWORD PTR [rax+4], ecx
  004e4	48 8b 4c 24 40	 mov	 rcx, QWORD PTR plaintext$[rsp]
  004e9	48 8b 44 24 30	 mov	 rax, QWORD PTR subkeys$[rsp]
  004ee	8b 40 08	 mov	 eax, DWORD PTR [rax+8]
  004f1	8b 49 08	 mov	 ecx, DWORD PTR [rcx+8]
  004f4	33 c8		 xor	 ecx, eax
  004f6	48 8b 44 24 40	 mov	 rax, QWORD PTR plaintext$[rsp]
  004fb	89 48 08	 mov	 DWORD PTR [rax+8], ecx
  004fe	48 8b 4c 24 40	 mov	 rcx, QWORD PTR plaintext$[rsp]
  00503	48 8b 44 24 30	 mov	 rax, QWORD PTR subkeys$[rsp]
  00508	8b 40 0c	 mov	 eax, DWORD PTR [rax+12]
  0050b	8b 49 0c	 mov	 ecx, DWORD PTR [rcx+12]
  0050e	33 c8		 xor	 ecx, eax
  00510	48 8b 44 24 40	 mov	 rax, QWORD PTR plaintext$[rsp]
  00515	89 48 0c	 mov	 DWORD PTR [rax+12], ecx

; 573  : 	/*L_inv(plaintext); S_inv(plaintext);*/
; 574  : 
; 575  : 	changeEndian(&plaintext[0]); changeEndian(&plaintext[1]); changeEndian(&plaintext[2]); changeEndian(&plaintext[3]);

  00518	48 8b 4c 24 40	 mov	 rcx, QWORD PTR plaintext$[rsp]
  0051d	e8 00 00 00 00	 call	 changeEndian
  00522	48 8b 4c 24 40	 mov	 rcx, QWORD PTR plaintext$[rsp]
  00527	48 83 c1 04	 add	 rcx, 4
  0052b	e8 00 00 00 00	 call	 changeEndian
  00530	48 8b 4c 24 40	 mov	 rcx, QWORD PTR plaintext$[rsp]
  00535	48 83 c1 08	 add	 rcx, 8
  00539	e8 00 00 00 00	 call	 changeEndian
  0053e	48 8b 4c 24 40	 mov	 rcx, QWORD PTR plaintext$[rsp]
  00543	48 83 c1 0c	 add	 rcx, 12
  00547	e8 00 00 00 00	 call	 changeEndian

; 576  : 
; 577  : }

  0054c	48 83 c4 28	 add	 rsp, 40			; 00000028H
  00550	c3		 ret	 0
grasshopper_decrypt ENDP
_TEXT	ENDS
PUBLIC	grasshopper_encrypt
;	COMDAT pdata
pdata	SEGMENT
$pdata$grasshopper_encrypt DD imagerel $LN3
	DD	imagerel $LN3+1361
	DD	imagerel $unwind$grasshopper_encrypt
pdata	ENDS
;	COMDAT xdata
xdata	SEGMENT
$unwind$grasshopper_encrypt DD 011301H
	DD	04213H
; Function compile flags: /Odtp
xdata	ENDS
;	COMDAT grasshopper_encrypt
_TEXT	SEGMENT
subkeys$ = 48
plaintext$ = 56
ciphertext$ = 64
grasshopper_encrypt PROC				; COMDAT

; 481  : {

$LN3:
  00000	4c 89 44 24 18	 mov	 QWORD PTR [rsp+24], r8
  00005	48 89 54 24 10	 mov	 QWORD PTR [rsp+16], rdx
  0000a	48 89 4c 24 08	 mov	 QWORD PTR [rsp+8], rcx
  0000f	48 83 ec 28	 sub	 rsp, 40			; 00000028H

; 482  : 	/* Round 1 with subkey 1 */
; 483  : 
; 484  : 	changeEndian(&plaintext[0]); changeEndian(&plaintext[1]); changeEndian(&plaintext[2]); changeEndian(&plaintext[3]);

  00013	48 8b 4c 24 38	 mov	 rcx, QWORD PTR plaintext$[rsp]
  00018	e8 00 00 00 00	 call	 changeEndian
  0001d	48 8b 4c 24 38	 mov	 rcx, QWORD PTR plaintext$[rsp]
  00022	48 83 c1 04	 add	 rcx, 4
  00026	e8 00 00 00 00	 call	 changeEndian
  0002b	48 8b 4c 24 38	 mov	 rcx, QWORD PTR plaintext$[rsp]
  00030	48 83 c1 08	 add	 rcx, 8
  00034	e8 00 00 00 00	 call	 changeEndian
  00039	48 8b 4c 24 38	 mov	 rcx, QWORD PTR plaintext$[rsp]
  0003e	48 83 c1 0c	 add	 rcx, 12
  00042	e8 00 00 00 00	 call	 changeEndian

; 485  : 
; 486  : 	ciphertext[0] = plaintext[0] ^ subkeys->y000; ciphertext[1] = plaintext[1] ^ subkeys->y001; ciphertext[2] = plaintext[2] ^ subkeys->y010; ciphertext[3] = plaintext[3] ^ subkeys->y011;

  00047	4c 8b 5c 24 38	 mov	 r11, QWORD PTR plaintext$[rsp]
  0004c	48 8b 44 24 30	 mov	 rax, QWORD PTR subkeys$[rsp]
  00051	8b 00		 mov	 eax, DWORD PTR [rax]
  00053	41 8b 0b	 mov	 ecx, DWORD PTR [r11]
  00056	33 c8		 xor	 ecx, eax
  00058	48 8b 44 24 40	 mov	 rax, QWORD PTR ciphertext$[rsp]
  0005d	89 08		 mov	 DWORD PTR [rax], ecx
  0005f	48 8b 4c 24 38	 mov	 rcx, QWORD PTR plaintext$[rsp]
  00064	48 8b 44 24 30	 mov	 rax, QWORD PTR subkeys$[rsp]
  00069	8b 40 04	 mov	 eax, DWORD PTR [rax+4]
  0006c	8b 49 04	 mov	 ecx, DWORD PTR [rcx+4]
  0006f	33 c8		 xor	 ecx, eax
  00071	48 8b 44 24 40	 mov	 rax, QWORD PTR ciphertext$[rsp]
  00076	89 48 04	 mov	 DWORD PTR [rax+4], ecx
  00079	48 8b 4c 24 38	 mov	 rcx, QWORD PTR plaintext$[rsp]
  0007e	48 8b 44 24 30	 mov	 rax, QWORD PTR subkeys$[rsp]
  00083	8b 40 08	 mov	 eax, DWORD PTR [rax+8]
  00086	8b 49 08	 mov	 ecx, DWORD PTR [rcx+8]
  00089	33 c8		 xor	 ecx, eax
  0008b	48 8b 44 24 40	 mov	 rax, QWORD PTR ciphertext$[rsp]
  00090	89 48 08	 mov	 DWORD PTR [rax+8], ecx
  00093	48 8b 4c 24 38	 mov	 rcx, QWORD PTR plaintext$[rsp]
  00098	48 8b 44 24 30	 mov	 rax, QWORD PTR subkeys$[rsp]
  0009d	8b 40 0c	 mov	 eax, DWORD PTR [rax+12]
  000a0	8b 49 0c	 mov	 ecx, DWORD PTR [rcx+12]
  000a3	33 c8		 xor	 ecx, eax
  000a5	48 8b 44 24 40	 mov	 rax, QWORD PTR ciphertext$[rsp]
  000aa	89 48 0c	 mov	 DWORD PTR [rax+12], ecx

; 487  : 	S(ciphertext); L(ciphertext);

  000ad	48 8b 4c 24 40	 mov	 rcx, QWORD PTR ciphertext$[rsp]
  000b2	e8 00 00 00 00	 call	 S
  000b7	48 8b 4c 24 40	 mov	 rcx, QWORD PTR ciphertext$[rsp]
  000bc	e8 00 00 00 00	 call	 L

; 488  : 
; 489  : 	/* Round 2 with subkey 2 */
; 490  : 	ciphertext[0] ^= subkeys->y100; ciphertext[1] ^= subkeys->y101; ciphertext[2] ^= subkeys->y110; ciphertext[3] ^= subkeys->y111;

  000c1	4c 8b 5c 24 40	 mov	 r11, QWORD PTR ciphertext$[rsp]
  000c6	48 8b 44 24 30	 mov	 rax, QWORD PTR subkeys$[rsp]
  000cb	8b 40 10	 mov	 eax, DWORD PTR [rax+16]
  000ce	41 8b 0b	 mov	 ecx, DWORD PTR [r11]
  000d1	33 c8		 xor	 ecx, eax
  000d3	48 8b 44 24 40	 mov	 rax, QWORD PTR ciphertext$[rsp]
  000d8	89 08		 mov	 DWORD PTR [rax], ecx
  000da	48 8b 4c 24 40	 mov	 rcx, QWORD PTR ciphertext$[rsp]
  000df	48 8b 44 24 30	 mov	 rax, QWORD PTR subkeys$[rsp]
  000e4	8b 40 14	 mov	 eax, DWORD PTR [rax+20]
  000e7	8b 49 04	 mov	 ecx, DWORD PTR [rcx+4]
  000ea	33 c8		 xor	 ecx, eax
  000ec	48 8b 44 24 40	 mov	 rax, QWORD PTR ciphertext$[rsp]
  000f1	89 48 04	 mov	 DWORD PTR [rax+4], ecx
  000f4	48 8b 4c 24 40	 mov	 rcx, QWORD PTR ciphertext$[rsp]
  000f9	48 8b 44 24 30	 mov	 rax, QWORD PTR subkeys$[rsp]
  000fe	8b 40 18	 mov	 eax, DWORD PTR [rax+24]
  00101	8b 49 08	 mov	 ecx, DWORD PTR [rcx+8]
  00104	33 c8		 xor	 ecx, eax
  00106	48 8b 44 24 40	 mov	 rax, QWORD PTR ciphertext$[rsp]
  0010b	89 48 08	 mov	 DWORD PTR [rax+8], ecx
  0010e	48 8b 4c 24 40	 mov	 rcx, QWORD PTR ciphertext$[rsp]
  00113	48 8b 44 24 30	 mov	 rax, QWORD PTR subkeys$[rsp]
  00118	8b 40 1c	 mov	 eax, DWORD PTR [rax+28]
  0011b	8b 49 0c	 mov	 ecx, DWORD PTR [rcx+12]
  0011e	33 c8		 xor	 ecx, eax
  00120	48 8b 44 24 40	 mov	 rax, QWORD PTR ciphertext$[rsp]
  00125	89 48 0c	 mov	 DWORD PTR [rax+12], ecx

; 491  : 	S(ciphertext); L(ciphertext);

  00128	48 8b 4c 24 40	 mov	 rcx, QWORD PTR ciphertext$[rsp]
  0012d	e8 00 00 00 00	 call	 S
  00132	48 8b 4c 24 40	 mov	 rcx, QWORD PTR ciphertext$[rsp]
  00137	e8 00 00 00 00	 call	 L

; 492  : 
; 493  : 	/* Round 3 with subkey 3 */
; 494  : 	ciphertext[0] ^= subkeys->y200; ciphertext[1] ^= subkeys->y201; ciphertext[2] ^= subkeys->y210; ciphertext[3] ^= subkeys->y211;

  0013c	4c 8b 5c 24 40	 mov	 r11, QWORD PTR ciphertext$[rsp]
  00141	48 8b 44 24 30	 mov	 rax, QWORD PTR subkeys$[rsp]
  00146	8b 40 20	 mov	 eax, DWORD PTR [rax+32]
  00149	41 8b 0b	 mov	 ecx, DWORD PTR [r11]
  0014c	33 c8		 xor	 ecx, eax
  0014e	48 8b 44 24 40	 mov	 rax, QWORD PTR ciphertext$[rsp]
  00153	89 08		 mov	 DWORD PTR [rax], ecx
  00155	48 8b 4c 24 40	 mov	 rcx, QWORD PTR ciphertext$[rsp]
  0015a	48 8b 44 24 30	 mov	 rax, QWORD PTR subkeys$[rsp]
  0015f	8b 40 24	 mov	 eax, DWORD PTR [rax+36]
  00162	8b 49 04	 mov	 ecx, DWORD PTR [rcx+4]
  00165	33 c8		 xor	 ecx, eax
  00167	48 8b 44 24 40	 mov	 rax, QWORD PTR ciphertext$[rsp]
  0016c	89 48 04	 mov	 DWORD PTR [rax+4], ecx
  0016f	48 8b 4c 24 40	 mov	 rcx, QWORD PTR ciphertext$[rsp]
  00174	48 8b 44 24 30	 mov	 rax, QWORD PTR subkeys$[rsp]
  00179	8b 40 28	 mov	 eax, DWORD PTR [rax+40]
  0017c	8b 49 08	 mov	 ecx, DWORD PTR [rcx+8]
  0017f	33 c8		 xor	 ecx, eax
  00181	48 8b 44 24 40	 mov	 rax, QWORD PTR ciphertext$[rsp]
  00186	89 48 08	 mov	 DWORD PTR [rax+8], ecx
  00189	48 8b 4c 24 40	 mov	 rcx, QWORD PTR ciphertext$[rsp]
  0018e	48 8b 44 24 30	 mov	 rax, QWORD PTR subkeys$[rsp]
  00193	8b 40 2c	 mov	 eax, DWORD PTR [rax+44]
  00196	8b 49 0c	 mov	 ecx, DWORD PTR [rcx+12]
  00199	33 c8		 xor	 ecx, eax
  0019b	48 8b 44 24 40	 mov	 rax, QWORD PTR ciphertext$[rsp]
  001a0	89 48 0c	 mov	 DWORD PTR [rax+12], ecx

; 495  : 	S(ciphertext); L(ciphertext);

  001a3	48 8b 4c 24 40	 mov	 rcx, QWORD PTR ciphertext$[rsp]
  001a8	e8 00 00 00 00	 call	 S
  001ad	48 8b 4c 24 40	 mov	 rcx, QWORD PTR ciphertext$[rsp]
  001b2	e8 00 00 00 00	 call	 L

; 496  : 	
; 497  : 	/* Round 4 with subkey 4 */
; 498  : 	ciphertext[0] ^= subkeys->y300; ciphertext[1] ^= subkeys->y301; ciphertext[2] ^= subkeys->y310; ciphertext[3] ^= subkeys->y311;

  001b7	4c 8b 5c 24 40	 mov	 r11, QWORD PTR ciphertext$[rsp]
  001bc	48 8b 44 24 30	 mov	 rax, QWORD PTR subkeys$[rsp]
  001c1	8b 40 30	 mov	 eax, DWORD PTR [rax+48]
  001c4	41 8b 0b	 mov	 ecx, DWORD PTR [r11]
  001c7	33 c8		 xor	 ecx, eax
  001c9	48 8b 44 24 40	 mov	 rax, QWORD PTR ciphertext$[rsp]
  001ce	89 08		 mov	 DWORD PTR [rax], ecx
  001d0	48 8b 4c 24 40	 mov	 rcx, QWORD PTR ciphertext$[rsp]
  001d5	48 8b 44 24 30	 mov	 rax, QWORD PTR subkeys$[rsp]
  001da	8b 40 34	 mov	 eax, DWORD PTR [rax+52]
  001dd	8b 49 04	 mov	 ecx, DWORD PTR [rcx+4]
  001e0	33 c8		 xor	 ecx, eax
  001e2	48 8b 44 24 40	 mov	 rax, QWORD PTR ciphertext$[rsp]
  001e7	89 48 04	 mov	 DWORD PTR [rax+4], ecx
  001ea	48 8b 4c 24 40	 mov	 rcx, QWORD PTR ciphertext$[rsp]
  001ef	48 8b 44 24 30	 mov	 rax, QWORD PTR subkeys$[rsp]
  001f4	8b 40 38	 mov	 eax, DWORD PTR [rax+56]
  001f7	8b 49 08	 mov	 ecx, DWORD PTR [rcx+8]
  001fa	33 c8		 xor	 ecx, eax
  001fc	48 8b 44 24 40	 mov	 rax, QWORD PTR ciphertext$[rsp]
  00201	89 48 08	 mov	 DWORD PTR [rax+8], ecx
  00204	48 8b 4c 24 40	 mov	 rcx, QWORD PTR ciphertext$[rsp]
  00209	48 8b 44 24 30	 mov	 rax, QWORD PTR subkeys$[rsp]
  0020e	8b 40 3c	 mov	 eax, DWORD PTR [rax+60]
  00211	8b 49 0c	 mov	 ecx, DWORD PTR [rcx+12]
  00214	33 c8		 xor	 ecx, eax
  00216	48 8b 44 24 40	 mov	 rax, QWORD PTR ciphertext$[rsp]
  0021b	89 48 0c	 mov	 DWORD PTR [rax+12], ecx

; 499  : 	S(ciphertext); L(ciphertext);

  0021e	48 8b 4c 24 40	 mov	 rcx, QWORD PTR ciphertext$[rsp]
  00223	e8 00 00 00 00	 call	 S
  00228	48 8b 4c 24 40	 mov	 rcx, QWORD PTR ciphertext$[rsp]
  0022d	e8 00 00 00 00	 call	 L

; 500  : 	
; 501  : 	/* Round 5 with subkey 5 */
; 502  : 	ciphertext[0] ^= subkeys->y400; ciphertext[1] ^= subkeys->y401; ciphertext[2] ^= subkeys->y410; ciphertext[3] ^= subkeys->y411;

  00232	4c 8b 5c 24 40	 mov	 r11, QWORD PTR ciphertext$[rsp]
  00237	48 8b 44 24 30	 mov	 rax, QWORD PTR subkeys$[rsp]
  0023c	8b 40 40	 mov	 eax, DWORD PTR [rax+64]
  0023f	41 8b 0b	 mov	 ecx, DWORD PTR [r11]
  00242	33 c8		 xor	 ecx, eax
  00244	48 8b 44 24 40	 mov	 rax, QWORD PTR ciphertext$[rsp]
  00249	89 08		 mov	 DWORD PTR [rax], ecx
  0024b	48 8b 4c 24 40	 mov	 rcx, QWORD PTR ciphertext$[rsp]
  00250	48 8b 44 24 30	 mov	 rax, QWORD PTR subkeys$[rsp]
  00255	8b 40 44	 mov	 eax, DWORD PTR [rax+68]
  00258	8b 49 04	 mov	 ecx, DWORD PTR [rcx+4]
  0025b	33 c8		 xor	 ecx, eax
  0025d	48 8b 44 24 40	 mov	 rax, QWORD PTR ciphertext$[rsp]
  00262	89 48 04	 mov	 DWORD PTR [rax+4], ecx
  00265	48 8b 4c 24 40	 mov	 rcx, QWORD PTR ciphertext$[rsp]
  0026a	48 8b 44 24 30	 mov	 rax, QWORD PTR subkeys$[rsp]
  0026f	8b 40 48	 mov	 eax, DWORD PTR [rax+72]
  00272	8b 49 08	 mov	 ecx, DWORD PTR [rcx+8]
  00275	33 c8		 xor	 ecx, eax
  00277	48 8b 44 24 40	 mov	 rax, QWORD PTR ciphertext$[rsp]
  0027c	89 48 08	 mov	 DWORD PTR [rax+8], ecx
  0027f	48 8b 4c 24 40	 mov	 rcx, QWORD PTR ciphertext$[rsp]
  00284	48 8b 44 24 30	 mov	 rax, QWORD PTR subkeys$[rsp]
  00289	8b 40 4c	 mov	 eax, DWORD PTR [rax+76]
  0028c	8b 49 0c	 mov	 ecx, DWORD PTR [rcx+12]
  0028f	33 c8		 xor	 ecx, eax
  00291	48 8b 44 24 40	 mov	 rax, QWORD PTR ciphertext$[rsp]
  00296	89 48 0c	 mov	 DWORD PTR [rax+12], ecx

; 503  : 	S(ciphertext); L(ciphertext);

  00299	48 8b 4c 24 40	 mov	 rcx, QWORD PTR ciphertext$[rsp]
  0029e	e8 00 00 00 00	 call	 S
  002a3	48 8b 4c 24 40	 mov	 rcx, QWORD PTR ciphertext$[rsp]
  002a8	e8 00 00 00 00	 call	 L

; 504  : 	
; 505  : 	/* Round 6 with subkey 6 */
; 506  : 	ciphertext[0] ^= subkeys->y500; ciphertext[1] ^= subkeys->y501; ciphertext[2] ^= subkeys->y510; ciphertext[3] ^= subkeys->y511;

  002ad	4c 8b 5c 24 40	 mov	 r11, QWORD PTR ciphertext$[rsp]
  002b2	48 8b 44 24 30	 mov	 rax, QWORD PTR subkeys$[rsp]
  002b7	8b 40 50	 mov	 eax, DWORD PTR [rax+80]
  002ba	41 8b 0b	 mov	 ecx, DWORD PTR [r11]
  002bd	33 c8		 xor	 ecx, eax
  002bf	48 8b 44 24 40	 mov	 rax, QWORD PTR ciphertext$[rsp]
  002c4	89 08		 mov	 DWORD PTR [rax], ecx
  002c6	48 8b 4c 24 40	 mov	 rcx, QWORD PTR ciphertext$[rsp]
  002cb	48 8b 44 24 30	 mov	 rax, QWORD PTR subkeys$[rsp]
  002d0	8b 40 54	 mov	 eax, DWORD PTR [rax+84]
  002d3	8b 49 04	 mov	 ecx, DWORD PTR [rcx+4]
  002d6	33 c8		 xor	 ecx, eax
  002d8	48 8b 44 24 40	 mov	 rax, QWORD PTR ciphertext$[rsp]
  002dd	89 48 04	 mov	 DWORD PTR [rax+4], ecx
  002e0	48 8b 4c 24 40	 mov	 rcx, QWORD PTR ciphertext$[rsp]
  002e5	48 8b 44 24 30	 mov	 rax, QWORD PTR subkeys$[rsp]
  002ea	8b 40 58	 mov	 eax, DWORD PTR [rax+88]
  002ed	8b 49 08	 mov	 ecx, DWORD PTR [rcx+8]
  002f0	33 c8		 xor	 ecx, eax
  002f2	48 8b 44 24 40	 mov	 rax, QWORD PTR ciphertext$[rsp]
  002f7	89 48 08	 mov	 DWORD PTR [rax+8], ecx
  002fa	48 8b 4c 24 40	 mov	 rcx, QWORD PTR ciphertext$[rsp]
  002ff	48 8b 44 24 30	 mov	 rax, QWORD PTR subkeys$[rsp]
  00304	8b 40 5c	 mov	 eax, DWORD PTR [rax+92]
  00307	8b 49 0c	 mov	 ecx, DWORD PTR [rcx+12]
  0030a	33 c8		 xor	 ecx, eax
  0030c	48 8b 44 24 40	 mov	 rax, QWORD PTR ciphertext$[rsp]
  00311	89 48 0c	 mov	 DWORD PTR [rax+12], ecx

; 507  : 	S(ciphertext); L(ciphertext);

  00314	48 8b 4c 24 40	 mov	 rcx, QWORD PTR ciphertext$[rsp]
  00319	e8 00 00 00 00	 call	 S
  0031e	48 8b 4c 24 40	 mov	 rcx, QWORD PTR ciphertext$[rsp]
  00323	e8 00 00 00 00	 call	 L

; 508  : 	
; 509  : 	/* Round 7 with subkey 7 */
; 510  : 	ciphertext[0] ^= subkeys->y600; ciphertext[1] ^= subkeys->y601; ciphertext[2] ^= subkeys->y610; ciphertext[3] ^= subkeys->y611;

  00328	4c 8b 5c 24 40	 mov	 r11, QWORD PTR ciphertext$[rsp]
  0032d	48 8b 44 24 30	 mov	 rax, QWORD PTR subkeys$[rsp]
  00332	8b 40 60	 mov	 eax, DWORD PTR [rax+96]
  00335	41 8b 0b	 mov	 ecx, DWORD PTR [r11]
  00338	33 c8		 xor	 ecx, eax
  0033a	48 8b 44 24 40	 mov	 rax, QWORD PTR ciphertext$[rsp]
  0033f	89 08		 mov	 DWORD PTR [rax], ecx
  00341	48 8b 4c 24 40	 mov	 rcx, QWORD PTR ciphertext$[rsp]
  00346	48 8b 44 24 30	 mov	 rax, QWORD PTR subkeys$[rsp]
  0034b	8b 40 64	 mov	 eax, DWORD PTR [rax+100]
  0034e	8b 49 04	 mov	 ecx, DWORD PTR [rcx+4]
  00351	33 c8		 xor	 ecx, eax
  00353	48 8b 44 24 40	 mov	 rax, QWORD PTR ciphertext$[rsp]
  00358	89 48 04	 mov	 DWORD PTR [rax+4], ecx
  0035b	48 8b 4c 24 40	 mov	 rcx, QWORD PTR ciphertext$[rsp]
  00360	48 8b 44 24 30	 mov	 rax, QWORD PTR subkeys$[rsp]
  00365	8b 40 68	 mov	 eax, DWORD PTR [rax+104]
  00368	8b 49 08	 mov	 ecx, DWORD PTR [rcx+8]
  0036b	33 c8		 xor	 ecx, eax
  0036d	48 8b 44 24 40	 mov	 rax, QWORD PTR ciphertext$[rsp]
  00372	89 48 08	 mov	 DWORD PTR [rax+8], ecx
  00375	48 8b 4c 24 40	 mov	 rcx, QWORD PTR ciphertext$[rsp]
  0037a	48 8b 44 24 30	 mov	 rax, QWORD PTR subkeys$[rsp]
  0037f	8b 40 6c	 mov	 eax, DWORD PTR [rax+108]
  00382	8b 49 0c	 mov	 ecx, DWORD PTR [rcx+12]
  00385	33 c8		 xor	 ecx, eax
  00387	48 8b 44 24 40	 mov	 rax, QWORD PTR ciphertext$[rsp]
  0038c	89 48 0c	 mov	 DWORD PTR [rax+12], ecx

; 511  : 	S(ciphertext); L(ciphertext);

  0038f	48 8b 4c 24 40	 mov	 rcx, QWORD PTR ciphertext$[rsp]
  00394	e8 00 00 00 00	 call	 S
  00399	48 8b 4c 24 40	 mov	 rcx, QWORD PTR ciphertext$[rsp]
  0039e	e8 00 00 00 00	 call	 L

; 512  : 	
; 513  : 	/* Round 8 with subkey 8 */
; 514  : 	ciphertext[0] ^= subkeys->y700; ciphertext[1] ^= subkeys->y701; ciphertext[2] ^= subkeys->y710; ciphertext[3] ^= subkeys->y711;

  003a3	4c 8b 5c 24 40	 mov	 r11, QWORD PTR ciphertext$[rsp]
  003a8	48 8b 44 24 30	 mov	 rax, QWORD PTR subkeys$[rsp]
  003ad	8b 40 70	 mov	 eax, DWORD PTR [rax+112]
  003b0	41 8b 0b	 mov	 ecx, DWORD PTR [r11]
  003b3	33 c8		 xor	 ecx, eax
  003b5	48 8b 44 24 40	 mov	 rax, QWORD PTR ciphertext$[rsp]
  003ba	89 08		 mov	 DWORD PTR [rax], ecx
  003bc	48 8b 4c 24 40	 mov	 rcx, QWORD PTR ciphertext$[rsp]
  003c1	48 8b 44 24 30	 mov	 rax, QWORD PTR subkeys$[rsp]
  003c6	8b 40 74	 mov	 eax, DWORD PTR [rax+116]
  003c9	8b 49 04	 mov	 ecx, DWORD PTR [rcx+4]
  003cc	33 c8		 xor	 ecx, eax
  003ce	48 8b 44 24 40	 mov	 rax, QWORD PTR ciphertext$[rsp]
  003d3	89 48 04	 mov	 DWORD PTR [rax+4], ecx
  003d6	48 8b 4c 24 40	 mov	 rcx, QWORD PTR ciphertext$[rsp]
  003db	48 8b 44 24 30	 mov	 rax, QWORD PTR subkeys$[rsp]
  003e0	8b 40 78	 mov	 eax, DWORD PTR [rax+120]
  003e3	8b 49 08	 mov	 ecx, DWORD PTR [rcx+8]
  003e6	33 c8		 xor	 ecx, eax
  003e8	48 8b 44 24 40	 mov	 rax, QWORD PTR ciphertext$[rsp]
  003ed	89 48 08	 mov	 DWORD PTR [rax+8], ecx
  003f0	48 8b 4c 24 40	 mov	 rcx, QWORD PTR ciphertext$[rsp]
  003f5	48 8b 44 24 30	 mov	 rax, QWORD PTR subkeys$[rsp]
  003fa	8b 40 7c	 mov	 eax, DWORD PTR [rax+124]
  003fd	8b 49 0c	 mov	 ecx, DWORD PTR [rcx+12]
  00400	33 c8		 xor	 ecx, eax
  00402	48 8b 44 24 40	 mov	 rax, QWORD PTR ciphertext$[rsp]
  00407	89 48 0c	 mov	 DWORD PTR [rax+12], ecx

; 515  : 	S(ciphertext); L(ciphertext);

  0040a	48 8b 4c 24 40	 mov	 rcx, QWORD PTR ciphertext$[rsp]
  0040f	e8 00 00 00 00	 call	 S
  00414	48 8b 4c 24 40	 mov	 rcx, QWORD PTR ciphertext$[rsp]
  00419	e8 00 00 00 00	 call	 L

; 516  : 	
; 517  : 	/* Round 9 with subkey 9 */
; 518  : 	ciphertext[0] ^= subkeys->y800; ciphertext[1] ^= subkeys->y801; ciphertext[2] ^= subkeys->y810; ciphertext[3] ^= subkeys->y811;

  0041e	4c 8b 5c 24 40	 mov	 r11, QWORD PTR ciphertext$[rsp]
  00423	48 8b 44 24 30	 mov	 rax, QWORD PTR subkeys$[rsp]
  00428	8b 80 80 00 00
	00		 mov	 eax, DWORD PTR [rax+128]
  0042e	41 8b 0b	 mov	 ecx, DWORD PTR [r11]
  00431	33 c8		 xor	 ecx, eax
  00433	48 8b 44 24 40	 mov	 rax, QWORD PTR ciphertext$[rsp]
  00438	89 08		 mov	 DWORD PTR [rax], ecx
  0043a	48 8b 4c 24 40	 mov	 rcx, QWORD PTR ciphertext$[rsp]
  0043f	48 8b 44 24 30	 mov	 rax, QWORD PTR subkeys$[rsp]
  00444	8b 80 84 00 00
	00		 mov	 eax, DWORD PTR [rax+132]
  0044a	8b 49 04	 mov	 ecx, DWORD PTR [rcx+4]
  0044d	33 c8		 xor	 ecx, eax
  0044f	48 8b 44 24 40	 mov	 rax, QWORD PTR ciphertext$[rsp]
  00454	89 48 04	 mov	 DWORD PTR [rax+4], ecx
  00457	48 8b 4c 24 40	 mov	 rcx, QWORD PTR ciphertext$[rsp]
  0045c	48 8b 44 24 30	 mov	 rax, QWORD PTR subkeys$[rsp]
  00461	8b 80 88 00 00
	00		 mov	 eax, DWORD PTR [rax+136]
  00467	8b 49 08	 mov	 ecx, DWORD PTR [rcx+8]
  0046a	33 c8		 xor	 ecx, eax
  0046c	48 8b 44 24 40	 mov	 rax, QWORD PTR ciphertext$[rsp]
  00471	89 48 08	 mov	 DWORD PTR [rax+8], ecx
  00474	48 8b 4c 24 40	 mov	 rcx, QWORD PTR ciphertext$[rsp]
  00479	48 8b 44 24 30	 mov	 rax, QWORD PTR subkeys$[rsp]
  0047e	8b 80 8c 00 00
	00		 mov	 eax, DWORD PTR [rax+140]
  00484	8b 49 0c	 mov	 ecx, DWORD PTR [rcx+12]
  00487	33 c8		 xor	 ecx, eax
  00489	48 8b 44 24 40	 mov	 rax, QWORD PTR ciphertext$[rsp]
  0048e	89 48 0c	 mov	 DWORD PTR [rax+12], ecx

; 519  : 	S(ciphertext); L(ciphertext);

  00491	48 8b 4c 24 40	 mov	 rcx, QWORD PTR ciphertext$[rsp]
  00496	e8 00 00 00 00	 call	 S
  0049b	48 8b 4c 24 40	 mov	 rcx, QWORD PTR ciphertext$[rsp]
  004a0	e8 00 00 00 00	 call	 L

; 520  : 	
; 521  : 	/* Round 10 with subkey 10 */
; 522  : 	ciphertext[0] ^= subkeys->y900; ciphertext[1] ^= subkeys->y901; ciphertext[2] ^= subkeys->y910; ciphertext[3] ^= subkeys->y911;

  004a5	4c 8b 5c 24 40	 mov	 r11, QWORD PTR ciphertext$[rsp]
  004aa	48 8b 44 24 30	 mov	 rax, QWORD PTR subkeys$[rsp]
  004af	8b 80 90 00 00
	00		 mov	 eax, DWORD PTR [rax+144]
  004b5	41 8b 0b	 mov	 ecx, DWORD PTR [r11]
  004b8	33 c8		 xor	 ecx, eax
  004ba	48 8b 44 24 40	 mov	 rax, QWORD PTR ciphertext$[rsp]
  004bf	89 08		 mov	 DWORD PTR [rax], ecx
  004c1	48 8b 4c 24 40	 mov	 rcx, QWORD PTR ciphertext$[rsp]
  004c6	48 8b 44 24 30	 mov	 rax, QWORD PTR subkeys$[rsp]
  004cb	8b 80 94 00 00
	00		 mov	 eax, DWORD PTR [rax+148]
  004d1	8b 49 04	 mov	 ecx, DWORD PTR [rcx+4]
  004d4	33 c8		 xor	 ecx, eax
  004d6	48 8b 44 24 40	 mov	 rax, QWORD PTR ciphertext$[rsp]
  004db	89 48 04	 mov	 DWORD PTR [rax+4], ecx
  004de	48 8b 4c 24 40	 mov	 rcx, QWORD PTR ciphertext$[rsp]
  004e3	48 8b 44 24 30	 mov	 rax, QWORD PTR subkeys$[rsp]
  004e8	8b 80 98 00 00
	00		 mov	 eax, DWORD PTR [rax+152]
  004ee	8b 49 08	 mov	 ecx, DWORD PTR [rcx+8]
  004f1	33 c8		 xor	 ecx, eax
  004f3	48 8b 44 24 40	 mov	 rax, QWORD PTR ciphertext$[rsp]
  004f8	89 48 08	 mov	 DWORD PTR [rax+8], ecx
  004fb	48 8b 4c 24 40	 mov	 rcx, QWORD PTR ciphertext$[rsp]
  00500	48 8b 44 24 30	 mov	 rax, QWORD PTR subkeys$[rsp]
  00505	8b 80 9c 00 00
	00		 mov	 eax, DWORD PTR [rax+156]
  0050b	8b 49 0c	 mov	 ecx, DWORD PTR [rcx+12]
  0050e	33 c8		 xor	 ecx, eax
  00510	48 8b 44 24 40	 mov	 rax, QWORD PTR ciphertext$[rsp]
  00515	89 48 0c	 mov	 DWORD PTR [rax+12], ecx

; 523  : 
; 524  : 	changeEndian(&ciphertext[0]); changeEndian(&ciphertext[1]); changeEndian(&plaintext[2]); changeEndian(&plaintext[3]);

  00518	48 8b 4c 24 40	 mov	 rcx, QWORD PTR ciphertext$[rsp]
  0051d	e8 00 00 00 00	 call	 changeEndian
  00522	48 8b 4c 24 40	 mov	 rcx, QWORD PTR ciphertext$[rsp]
  00527	48 83 c1 04	 add	 rcx, 4
  0052b	e8 00 00 00 00	 call	 changeEndian
  00530	48 8b 4c 24 38	 mov	 rcx, QWORD PTR plaintext$[rsp]
  00535	48 83 c1 08	 add	 rcx, 8
  00539	e8 00 00 00 00	 call	 changeEndian
  0053e	48 8b 4c 24 38	 mov	 rcx, QWORD PTR plaintext$[rsp]
  00543	48 83 c1 0c	 add	 rcx, 12
  00547	e8 00 00 00 00	 call	 changeEndian

; 525  : 	
; 526  : }

  0054c	48 83 c4 28	 add	 rsp, 40			; 00000028H
  00550	c3		 ret	 0
grasshopper_encrypt ENDP
_TEXT	ENDS
PUBLIC	F
;	COMDAT pdata
pdata	SEGMENT
$pdata$F DD	imagerel $LN3
	DD	imagerel $LN3+311
	DD	imagerel $unwind$F
pdata	ENDS
;	COMDAT xdata
xdata	SEGMENT
$unwind$F DD	011301H
	DD	06213H
; Function compile flags: /Odtp
xdata	ENDS
;	COMDAT F
_TEXT	SEGMENT
tmpblock$ = 32
k$ = 64
block1$ = 72
block0$ = 80
F	PROC						; COMDAT

; 370  : {

$LN3:
  00000	4c 89 44 24 18	 mov	 QWORD PTR [rsp+24], r8
  00005	48 89 54 24 10	 mov	 QWORD PTR [rsp+16], rdx
  0000a	48 89 4c 24 08	 mov	 QWORD PTR [rsp+8], rcx
  0000f	48 83 ec 38	 sub	 rsp, 56			; 00000038H

; 371  : 	unsigned long tmpblock[4];
; 372  : 
; 373  : 	/* Bitwise xor of k with block2 */
; 374  : 	tmpblock[0] = (block1[0] ^ k[0]);

  00013	48 8b 54 24 48	 mov	 rdx, QWORD PTR block1$[rsp]
  00018	48 8b 44 24 40	 mov	 rax, QWORD PTR k$[rsp]
  0001d	8b 08		 mov	 ecx, DWORD PTR [rax]
  0001f	8b 02		 mov	 eax, DWORD PTR [rdx]
  00021	33 c1		 xor	 eax, ecx
  00023	89 44 24 20	 mov	 DWORD PTR tmpblock$[rsp], eax

; 375  : 	tmpblock[1] = (block1[1] ^ k[1]);

  00027	48 8b 54 24 48	 mov	 rdx, QWORD PTR block1$[rsp]
  0002c	48 8b 44 24 40	 mov	 rax, QWORD PTR k$[rsp]
  00031	8b 48 04	 mov	 ecx, DWORD PTR [rax+4]
  00034	8b 42 04	 mov	 eax, DWORD PTR [rdx+4]
  00037	33 c1		 xor	 eax, ecx
  00039	89 44 24 24	 mov	 DWORD PTR tmpblock$[rsp+4], eax

; 376  : 	tmpblock[2] = (block1[2] ^ k[2]);

  0003d	48 8b 54 24 48	 mov	 rdx, QWORD PTR block1$[rsp]
  00042	48 8b 44 24 40	 mov	 rax, QWORD PTR k$[rsp]
  00047	8b 48 08	 mov	 ecx, DWORD PTR [rax+8]
  0004a	8b 42 08	 mov	 eax, DWORD PTR [rdx+8]
  0004d	33 c1		 xor	 eax, ecx
  0004f	89 44 24 28	 mov	 DWORD PTR tmpblock$[rsp+8], eax

; 377  : 	tmpblock[3] = (block1[3] ^ k[3]);

  00053	48 8b 54 24 48	 mov	 rdx, QWORD PTR block1$[rsp]
  00058	48 8b 44 24 40	 mov	 rax, QWORD PTR k$[rsp]
  0005d	8b 48 0c	 mov	 ecx, DWORD PTR [rax+12]
  00060	8b 42 0c	 mov	 eax, DWORD PTR [rdx+12]
  00063	33 c1		 xor	 eax, ecx
  00065	89 44 24 2c	 mov	 DWORD PTR tmpblock$[rsp+12], eax

; 378  : 
; 379  : 	/* Apply S conversion function  */
; 380  : 	S(tmpblock);

  00069	48 8d 4c 24 20	 lea	 rcx, QWORD PTR tmpblock$[rsp]
  0006e	e8 00 00 00 00	 call	 S

; 381  : 
; 382  : 	/* Apply L conversion function  */
; 383  : 	L(tmpblock);

  00073	48 8d 4c 24 20	 lea	 rcx, QWORD PTR tmpblock$[rsp]
  00078	e8 00 00 00 00	 call	 L

; 384  : 
; 385  : 	/* Add a0 to the the result     */
; 386  : 	tmpblock[0] ^= block0[0];

  0007d	4c 8b 5c 24 50	 mov	 r11, QWORD PTR block0$[rsp]
  00082	41 8b 0b	 mov	 ecx, DWORD PTR [r11]
  00085	8b 44 24 20	 mov	 eax, DWORD PTR tmpblock$[rsp]
  00089	33 c1		 xor	 eax, ecx
  0008b	89 44 24 20	 mov	 DWORD PTR tmpblock$[rsp], eax

; 387  : 	tmpblock[1] ^= block0[1];

  0008f	48 8b 44 24 50	 mov	 rax, QWORD PTR block0$[rsp]
  00094	8b 48 04	 mov	 ecx, DWORD PTR [rax+4]
  00097	8b 44 24 24	 mov	 eax, DWORD PTR tmpblock$[rsp+4]
  0009b	33 c1		 xor	 eax, ecx
  0009d	89 44 24 24	 mov	 DWORD PTR tmpblock$[rsp+4], eax

; 388  : 	tmpblock[2] ^= block0[2];

  000a1	48 8b 44 24 50	 mov	 rax, QWORD PTR block0$[rsp]
  000a6	8b 48 08	 mov	 ecx, DWORD PTR [rax+8]
  000a9	8b 44 24 28	 mov	 eax, DWORD PTR tmpblock$[rsp+8]
  000ad	33 c1		 xor	 eax, ecx
  000af	89 44 24 28	 mov	 DWORD PTR tmpblock$[rsp+8], eax

; 389  : 	tmpblock[3] ^= block0[3];

  000b3	48 8b 44 24 50	 mov	 rax, QWORD PTR block0$[rsp]
  000b8	8b 48 0c	 mov	 ecx, DWORD PTR [rax+12]
  000bb	8b 44 24 2c	 mov	 eax, DWORD PTR tmpblock$[rsp+12]
  000bf	33 c1		 xor	 eax, ecx
  000c1	89 44 24 2c	 mov	 DWORD PTR tmpblock$[rsp+12], eax

; 390  : 
; 391  : 	/* Update the results           */
; 392  : 	block0[0] = block1[0];

  000c5	48 8b 4c 24 50	 mov	 rcx, QWORD PTR block0$[rsp]
  000ca	48 8b 44 24 48	 mov	 rax, QWORD PTR block1$[rsp]
  000cf	8b 00		 mov	 eax, DWORD PTR [rax]
  000d1	89 01		 mov	 DWORD PTR [rcx], eax

; 393  : 	block0[1] = block1[1];

  000d3	48 8b 4c 24 50	 mov	 rcx, QWORD PTR block0$[rsp]
  000d8	48 8b 44 24 48	 mov	 rax, QWORD PTR block1$[rsp]
  000dd	8b 40 04	 mov	 eax, DWORD PTR [rax+4]
  000e0	89 41 04	 mov	 DWORD PTR [rcx+4], eax

; 394  : 	block0[2] = block1[2];

  000e3	48 8b 4c 24 50	 mov	 rcx, QWORD PTR block0$[rsp]
  000e8	48 8b 44 24 48	 mov	 rax, QWORD PTR block1$[rsp]
  000ed	8b 40 08	 mov	 eax, DWORD PTR [rax+8]
  000f0	89 41 08	 mov	 DWORD PTR [rcx+8], eax

; 395  : 	block0[3] = block1[3];

  000f3	48 8b 4c 24 50	 mov	 rcx, QWORD PTR block0$[rsp]
  000f8	48 8b 44 24 48	 mov	 rax, QWORD PTR block1$[rsp]
  000fd	8b 40 0c	 mov	 eax, DWORD PTR [rax+12]
  00100	89 41 0c	 mov	 DWORD PTR [rcx+12], eax

; 396  : 
; 397  : 	block1[0] = tmpblock[0];

  00103	48 8b 4c 24 48	 mov	 rcx, QWORD PTR block1$[rsp]
  00108	8b 44 24 20	 mov	 eax, DWORD PTR tmpblock$[rsp]
  0010c	89 01		 mov	 DWORD PTR [rcx], eax

; 398  : 	block1[1] = tmpblock[1];

  0010e	48 8b 4c 24 48	 mov	 rcx, QWORD PTR block1$[rsp]
  00113	8b 44 24 24	 mov	 eax, DWORD PTR tmpblock$[rsp+4]
  00117	89 41 04	 mov	 DWORD PTR [rcx+4], eax

; 399  : 	block1[2] = tmpblock[2];

  0011a	48 8b 4c 24 48	 mov	 rcx, QWORD PTR block1$[rsp]
  0011f	8b 44 24 28	 mov	 eax, DWORD PTR tmpblock$[rsp+8]
  00123	89 41 08	 mov	 DWORD PTR [rcx+8], eax

; 400  : 	block1[3] = tmpblock[3];

  00126	48 8b 4c 24 48	 mov	 rcx, QWORD PTR block1$[rsp]
  0012b	8b 44 24 2c	 mov	 eax, DWORD PTR tmpblock$[rsp+12]
  0012f	89 41 0c	 mov	 DWORD PTR [rcx+12], eax

; 401  : }

  00132	48 83 c4 38	 add	 rsp, 56			; 00000038H
  00136	c3		 ret	 0
F	ENDP
PUBLIC	grasshopper_set_key
;	COMDAT pdata
pdata	SEGMENT
$pdata$grasshopper_set_key DD imagerel $LN6
	DD	imagerel $LN6+1986
	DD	imagerel $unwind$grasshopper_set_key
pdata	ENDS
;	COMDAT xdata
xdata	SEGMENT
$unwind$grasshopper_set_key DD 021101H
	DD	04b0111H
; Function compile flags: /Odtp
xdata	ENDS
;	COMDAT grasshopper_set_key
_TEXT	SEGMENT
blocktmp$ = 32
i$ = 48
c_values$ = 64
blocktmp2$ = 576
master_key$ = 608
subkeys$ = 616
grasshopper_set_key PROC				; COMDAT

; 413  : {

$LN6:
  00000	48 89 54 24 10	 mov	 QWORD PTR [rsp+16], rdx
  00005	48 89 4c 24 08	 mov	 QWORD PTR [rsp+8], rcx
  0000a	48 81 ec 58 02
	00 00		 sub	 rsp, 600		; 00000258H

; 414  : 
; 415  : 	unsigned long c_values[32][4], blocktmp[4], blocktmp2[4];
; 416  : 	unsigned char i;
; 417  : 
; 418  : 	/* Compute the C_i values       */
; 419  : 	for(i = 0;i < 32;i++)

  00011	c6 44 24 30 00	 mov	 BYTE PTR i$[rsp], 0
  00016	eb 0b		 jmp	 SHORT $LN3@grasshoppe@2
$LN2@grasshoppe@2:
  00018	0f b6 44 24 30	 movzx	 eax, BYTE PTR i$[rsp]
  0001d	04 01		 add	 al, 1
  0001f	88 44 24 30	 mov	 BYTE PTR i$[rsp], al
$LN3@grasshoppe@2:
  00023	0f b6 44 24 30	 movzx	 eax, BYTE PTR i$[rsp]
  00028	83 f8 20	 cmp	 eax, 32			; 00000020H
  0002b	7d 77		 jge	 SHORT $LN1@grasshoppe@2

; 420  : 	{
; 421  : 		blocktmp[0] = 0L;

  0002d	c7 44 24 20 00
	00 00 00	 mov	 DWORD PTR blocktmp$[rsp], 0

; 422  : 		blocktmp[1] = 0L;

  00035	c7 44 24 24 00
	00 00 00	 mov	 DWORD PTR blocktmp$[rsp+4], 0

; 423  : 		blocktmp[2] = 0L;

  0003d	c7 44 24 28 00
	00 00 00	 mov	 DWORD PTR blocktmp$[rsp+8], 0

; 424  : 		blocktmp[3] = (unsigned long)(i + 1);

  00045	0f b6 44 24 30	 movzx	 eax, BYTE PTR i$[rsp]
  0004a	83 c0 01	 add	 eax, 1
  0004d	89 44 24 2c	 mov	 DWORD PTR blocktmp$[rsp+12], eax

; 425  : 		L(blocktmp);

  00051	48 8d 4c 24 20	 lea	 rcx, QWORD PTR blocktmp$[rsp]
  00056	e8 00 00 00 00	 call	 L

; 426  : 		c_values[i][0] = blocktmp[0]; c_values[i][1] = blocktmp[1]; c_values[i][2] = blocktmp[2]; c_values[i][3] = blocktmp[3];

  0005b	0f b6 4c 24 30	 movzx	 ecx, BYTE PTR i$[rsp]
  00060	48 6b c9 10	 imul	 rcx, 16
  00064	8b 44 24 20	 mov	 eax, DWORD PTR blocktmp$[rsp]
  00068	89 44 0c 40	 mov	 DWORD PTR c_values$[rsp+rcx], eax
  0006c	0f b6 4c 24 30	 movzx	 ecx, BYTE PTR i$[rsp]
  00071	48 6b c9 10	 imul	 rcx, 16
  00075	8b 44 24 24	 mov	 eax, DWORD PTR blocktmp$[rsp+4]
  00079	89 44 0c 44	 mov	 DWORD PTR c_values$[rsp+rcx+4], eax
  0007d	0f b6 4c 24 30	 movzx	 ecx, BYTE PTR i$[rsp]
  00082	48 6b c9 10	 imul	 rcx, 16
  00086	8b 44 24 28	 mov	 eax, DWORD PTR blocktmp$[rsp+8]
  0008a	89 44 0c 48	 mov	 DWORD PTR c_values$[rsp+rcx+8], eax
  0008e	0f b6 4c 24 30	 movzx	 ecx, BYTE PTR i$[rsp]
  00093	48 6b c9 10	 imul	 rcx, 16
  00097	8b 44 24 2c	 mov	 eax, DWORD PTR blocktmp$[rsp+12]
  0009b	89 44 0c 4c	 mov	 DWORD PTR c_values$[rsp+rcx+12], eax

; 427  : 	}

  0009f	e9 74 ff ff ff	 jmp	 $LN2@grasshoppe@2
$LN1@grasshoppe@2:

; 428  : 
; 429  : 
; 430  : 	/* Compute subkeys K_1 and K_2  */
; 431  : 	subkeys->y000 = master_key[0]; subkeys->y001 = master_key[1]; subkeys->y010 = master_key[2]; subkeys->y011 = master_key[3];

  000a4	48 8b 8c 24 68
	02 00 00	 mov	 rcx, QWORD PTR subkeys$[rsp]
  000ac	48 8b 84 24 60
	02 00 00	 mov	 rax, QWORD PTR master_key$[rsp]
  000b4	8b 00		 mov	 eax, DWORD PTR [rax]
  000b6	89 01		 mov	 DWORD PTR [rcx], eax
  000b8	48 8b 8c 24 68
	02 00 00	 mov	 rcx, QWORD PTR subkeys$[rsp]
  000c0	48 8b 84 24 60
	02 00 00	 mov	 rax, QWORD PTR master_key$[rsp]
  000c8	8b 40 04	 mov	 eax, DWORD PTR [rax+4]
  000cb	89 41 04	 mov	 DWORD PTR [rcx+4], eax
  000ce	48 8b 8c 24 68
	02 00 00	 mov	 rcx, QWORD PTR subkeys$[rsp]
  000d6	48 8b 84 24 60
	02 00 00	 mov	 rax, QWORD PTR master_key$[rsp]
  000de	8b 40 08	 mov	 eax, DWORD PTR [rax+8]
  000e1	89 41 08	 mov	 DWORD PTR [rcx+8], eax
  000e4	48 8b 8c 24 68
	02 00 00	 mov	 rcx, QWORD PTR subkeys$[rsp]
  000ec	48 8b 84 24 60
	02 00 00	 mov	 rax, QWORD PTR master_key$[rsp]
  000f4	8b 40 0c	 mov	 eax, DWORD PTR [rax+12]
  000f7	89 41 0c	 mov	 DWORD PTR [rcx+12], eax

; 432  : 	subkeys->y100 = master_key[4]; subkeys->y101 = master_key[5]; subkeys->y110 = master_key[6]; subkeys->y111 = master_key[7];

  000fa	48 8b 8c 24 68
	02 00 00	 mov	 rcx, QWORD PTR subkeys$[rsp]
  00102	48 8b 84 24 60
	02 00 00	 mov	 rax, QWORD PTR master_key$[rsp]
  0010a	8b 40 10	 mov	 eax, DWORD PTR [rax+16]
  0010d	89 41 10	 mov	 DWORD PTR [rcx+16], eax
  00110	48 8b 8c 24 68
	02 00 00	 mov	 rcx, QWORD PTR subkeys$[rsp]
  00118	48 8b 84 24 60
	02 00 00	 mov	 rax, QWORD PTR master_key$[rsp]
  00120	8b 40 14	 mov	 eax, DWORD PTR [rax+20]
  00123	89 41 14	 mov	 DWORD PTR [rcx+20], eax
  00126	48 8b 8c 24 68
	02 00 00	 mov	 rcx, QWORD PTR subkeys$[rsp]
  0012e	48 8b 84 24 60
	02 00 00	 mov	 rax, QWORD PTR master_key$[rsp]
  00136	8b 40 18	 mov	 eax, DWORD PTR [rax+24]
  00139	89 41 18	 mov	 DWORD PTR [rcx+24], eax
  0013c	48 8b 8c 24 68
	02 00 00	 mov	 rcx, QWORD PTR subkeys$[rsp]
  00144	48 8b 84 24 60
	02 00 00	 mov	 rax, QWORD PTR master_key$[rsp]
  0014c	8b 40 1c	 mov	 eax, DWORD PTR [rax+28]
  0014f	89 41 1c	 mov	 DWORD PTR [rcx+28], eax

; 433  : 
; 434  : 	changeEndian(&subkeys->y000); changeEndian(&subkeys->y010); changeEndian(&subkeys->y001); changeEndian(&subkeys->y011);

  00152	48 8b 8c 24 68
	02 00 00	 mov	 rcx, QWORD PTR subkeys$[rsp]
  0015a	e8 00 00 00 00	 call	 changeEndian
  0015f	48 8b 8c 24 68
	02 00 00	 mov	 rcx, QWORD PTR subkeys$[rsp]
  00167	48 83 c1 08	 add	 rcx, 8
  0016b	e8 00 00 00 00	 call	 changeEndian
  00170	48 8b 8c 24 68
	02 00 00	 mov	 rcx, QWORD PTR subkeys$[rsp]
  00178	48 83 c1 04	 add	 rcx, 4
  0017c	e8 00 00 00 00	 call	 changeEndian
  00181	48 8b 8c 24 68
	02 00 00	 mov	 rcx, QWORD PTR subkeys$[rsp]
  00189	48 83 c1 0c	 add	 rcx, 12
  0018d	e8 00 00 00 00	 call	 changeEndian

; 435  : 	changeEndian(&subkeys->y100); changeEndian(&subkeys->y101); changeEndian(&subkeys->y110); changeEndian(&subkeys->y111);

  00192	48 8b 8c 24 68
	02 00 00	 mov	 rcx, QWORD PTR subkeys$[rsp]
  0019a	48 83 c1 10	 add	 rcx, 16
  0019e	e8 00 00 00 00	 call	 changeEndian
  001a3	48 8b 8c 24 68
	02 00 00	 mov	 rcx, QWORD PTR subkeys$[rsp]
  001ab	48 83 c1 14	 add	 rcx, 20
  001af	e8 00 00 00 00	 call	 changeEndian
  001b4	48 8b 8c 24 68
	02 00 00	 mov	 rcx, QWORD PTR subkeys$[rsp]
  001bc	48 83 c1 18	 add	 rcx, 24
  001c0	e8 00 00 00 00	 call	 changeEndian
  001c5	48 8b 8c 24 68
	02 00 00	 mov	 rcx, QWORD PTR subkeys$[rsp]
  001cd	48 83 c1 1c	 add	 rcx, 28
  001d1	e8 00 00 00 00	 call	 changeEndian

; 436  : 
; 437  : 	/* Compute subkeys K_3 and K_4  */
; 438  : 	blocktmp[0] = subkeys->y000; blocktmp[1] = subkeys->y001; blocktmp[2] = subkeys->y010; blocktmp[3] = subkeys->y011;

  001d6	4c 8b 9c 24 68
	02 00 00	 mov	 r11, QWORD PTR subkeys$[rsp]
  001de	41 8b 03	 mov	 eax, DWORD PTR [r11]
  001e1	89 44 24 20	 mov	 DWORD PTR blocktmp$[rsp], eax
  001e5	48 8b 84 24 68
	02 00 00	 mov	 rax, QWORD PTR subkeys$[rsp]
  001ed	8b 40 04	 mov	 eax, DWORD PTR [rax+4]
  001f0	89 44 24 24	 mov	 DWORD PTR blocktmp$[rsp+4], eax
  001f4	48 8b 84 24 68
	02 00 00	 mov	 rax, QWORD PTR subkeys$[rsp]
  001fc	8b 40 08	 mov	 eax, DWORD PTR [rax+8]
  001ff	89 44 24 28	 mov	 DWORD PTR blocktmp$[rsp+8], eax
  00203	48 8b 84 24 68
	02 00 00	 mov	 rax, QWORD PTR subkeys$[rsp]
  0020b	8b 40 0c	 mov	 eax, DWORD PTR [rax+12]
  0020e	89 44 24 2c	 mov	 DWORD PTR blocktmp$[rsp+12], eax

; 439  : 	blocktmp2[0] = subkeys->y100; blocktmp2[1] = subkeys->y101; blocktmp2[2] = subkeys->y110; blocktmp2[3] = subkeys->y111;

  00212	48 8b 84 24 68
	02 00 00	 mov	 rax, QWORD PTR subkeys$[rsp]
  0021a	8b 40 10	 mov	 eax, DWORD PTR [rax+16]
  0021d	89 84 24 40 02
	00 00		 mov	 DWORD PTR blocktmp2$[rsp], eax
  00224	48 8b 84 24 68
	02 00 00	 mov	 rax, QWORD PTR subkeys$[rsp]
  0022c	8b 40 14	 mov	 eax, DWORD PTR [rax+20]
  0022f	89 84 24 44 02
	00 00		 mov	 DWORD PTR blocktmp2$[rsp+4], eax
  00236	48 8b 84 24 68
	02 00 00	 mov	 rax, QWORD PTR subkeys$[rsp]
  0023e	8b 40 18	 mov	 eax, DWORD PTR [rax+24]
  00241	89 84 24 48 02
	00 00		 mov	 DWORD PTR blocktmp2$[rsp+8], eax
  00248	48 8b 84 24 68
	02 00 00	 mov	 rax, QWORD PTR subkeys$[rsp]
  00250	8b 40 1c	 mov	 eax, DWORD PTR [rax+28]
  00253	89 84 24 4c 02
	00 00		 mov	 DWORD PTR blocktmp2$[rsp+12], eax

; 440  : 	F(c_values[0], blocktmp, blocktmp2); F(c_values[1], blocktmp, blocktmp2);

  0025a	4c 8d 84 24 40
	02 00 00	 lea	 r8, QWORD PTR blocktmp2$[rsp]
  00262	48 8d 54 24 20	 lea	 rdx, QWORD PTR blocktmp$[rsp]
  00267	48 8d 4c 24 40	 lea	 rcx, QWORD PTR c_values$[rsp]
  0026c	e8 00 00 00 00	 call	 F
  00271	48 8d 4c 24 50	 lea	 rcx, QWORD PTR c_values$[rsp+16]
  00276	4c 8d 84 24 40
	02 00 00	 lea	 r8, QWORD PTR blocktmp2$[rsp]
  0027e	48 8d 54 24 20	 lea	 rdx, QWORD PTR blocktmp$[rsp]
  00283	e8 00 00 00 00	 call	 F

; 441  : 	F(c_values[2], blocktmp, blocktmp2); F(c_values[3], blocktmp, blocktmp2);

  00288	48 8d 4c 24 60	 lea	 rcx, QWORD PTR c_values$[rsp+32]
  0028d	4c 8d 84 24 40
	02 00 00	 lea	 r8, QWORD PTR blocktmp2$[rsp]
  00295	48 8d 54 24 20	 lea	 rdx, QWORD PTR blocktmp$[rsp]
  0029a	e8 00 00 00 00	 call	 F
  0029f	48 8d 4c 24 70	 lea	 rcx, QWORD PTR c_values$[rsp+48]
  002a4	4c 8d 84 24 40
	02 00 00	 lea	 r8, QWORD PTR blocktmp2$[rsp]
  002ac	48 8d 54 24 20	 lea	 rdx, QWORD PTR blocktmp$[rsp]
  002b1	e8 00 00 00 00	 call	 F

; 442  : 	F(c_values[4], blocktmp, blocktmp2); F(c_values[5], blocktmp, blocktmp2);

  002b6	48 8d 8c 24 80
	00 00 00	 lea	 rcx, QWORD PTR c_values$[rsp+64]
  002be	4c 8d 84 24 40
	02 00 00	 lea	 r8, QWORD PTR blocktmp2$[rsp]
  002c6	48 8d 54 24 20	 lea	 rdx, QWORD PTR blocktmp$[rsp]
  002cb	e8 00 00 00 00	 call	 F
  002d0	48 8d 8c 24 90
	00 00 00	 lea	 rcx, QWORD PTR c_values$[rsp+80]
  002d8	4c 8d 84 24 40
	02 00 00	 lea	 r8, QWORD PTR blocktmp2$[rsp]
  002e0	48 8d 54 24 20	 lea	 rdx, QWORD PTR blocktmp$[rsp]
  002e5	e8 00 00 00 00	 call	 F

; 443  : 	F(c_values[6], blocktmp, blocktmp2); F(c_values[7], blocktmp, blocktmp2);

  002ea	48 8d 8c 24 a0
	00 00 00	 lea	 rcx, QWORD PTR c_values$[rsp+96]
  002f2	4c 8d 84 24 40
	02 00 00	 lea	 r8, QWORD PTR blocktmp2$[rsp]
  002fa	48 8d 54 24 20	 lea	 rdx, QWORD PTR blocktmp$[rsp]
  002ff	e8 00 00 00 00	 call	 F
  00304	48 8d 8c 24 b0
	00 00 00	 lea	 rcx, QWORD PTR c_values$[rsp+112]
  0030c	4c 8d 84 24 40
	02 00 00	 lea	 r8, QWORD PTR blocktmp2$[rsp]
  00314	48 8d 54 24 20	 lea	 rdx, QWORD PTR blocktmp$[rsp]
  00319	e8 00 00 00 00	 call	 F

; 444  : 
; 445  : 	subkeys->y200 = blocktmp[0]; subkeys->y201 = blocktmp[1]; subkeys->y210 = blocktmp[2]; subkeys->y211 = blocktmp[3];

  0031e	4c 8b 9c 24 68
	02 00 00	 mov	 r11, QWORD PTR subkeys$[rsp]
  00326	8b 44 24 20	 mov	 eax, DWORD PTR blocktmp$[rsp]
  0032a	41 89 43 20	 mov	 DWORD PTR [r11+32], eax
  0032e	48 8b 8c 24 68
	02 00 00	 mov	 rcx, QWORD PTR subkeys$[rsp]
  00336	8b 44 24 24	 mov	 eax, DWORD PTR blocktmp$[rsp+4]
  0033a	89 41 24	 mov	 DWORD PTR [rcx+36], eax
  0033d	48 8b 8c 24 68
	02 00 00	 mov	 rcx, QWORD PTR subkeys$[rsp]
  00345	8b 44 24 28	 mov	 eax, DWORD PTR blocktmp$[rsp+8]
  00349	89 41 28	 mov	 DWORD PTR [rcx+40], eax
  0034c	48 8b 8c 24 68
	02 00 00	 mov	 rcx, QWORD PTR subkeys$[rsp]
  00354	8b 44 24 2c	 mov	 eax, DWORD PTR blocktmp$[rsp+12]
  00358	89 41 2c	 mov	 DWORD PTR [rcx+44], eax

; 446  : 	subkeys->y300 = blocktmp2[0]; subkeys->y301 = blocktmp2[1]; subkeys->y310 = blocktmp2[2]; subkeys->y311 = blocktmp2[3];

  0035b	48 8b 8c 24 68
	02 00 00	 mov	 rcx, QWORD PTR subkeys$[rsp]
  00363	8b 84 24 40 02
	00 00		 mov	 eax, DWORD PTR blocktmp2$[rsp]
  0036a	89 41 30	 mov	 DWORD PTR [rcx+48], eax
  0036d	48 8b 8c 24 68
	02 00 00	 mov	 rcx, QWORD PTR subkeys$[rsp]
  00375	8b 84 24 44 02
	00 00		 mov	 eax, DWORD PTR blocktmp2$[rsp+4]
  0037c	89 41 34	 mov	 DWORD PTR [rcx+52], eax
  0037f	48 8b 8c 24 68
	02 00 00	 mov	 rcx, QWORD PTR subkeys$[rsp]
  00387	8b 84 24 48 02
	00 00		 mov	 eax, DWORD PTR blocktmp2$[rsp+8]
  0038e	89 41 38	 mov	 DWORD PTR [rcx+56], eax
  00391	48 8b 8c 24 68
	02 00 00	 mov	 rcx, QWORD PTR subkeys$[rsp]
  00399	8b 84 24 4c 02
	00 00		 mov	 eax, DWORD PTR blocktmp2$[rsp+12]
  003a0	89 41 3c	 mov	 DWORD PTR [rcx+60], eax

; 447  : 
; 448  : 	/* Compute subkeys K_5 and K_6  */
; 449  : 	F(c_values[ 8], blocktmp, blocktmp2); F(c_values[ 9], blocktmp, blocktmp2);

  003a3	48 8d 8c 24 c0
	00 00 00	 lea	 rcx, QWORD PTR c_values$[rsp+128]
  003ab	4c 8d 84 24 40
	02 00 00	 lea	 r8, QWORD PTR blocktmp2$[rsp]
  003b3	48 8d 54 24 20	 lea	 rdx, QWORD PTR blocktmp$[rsp]
  003b8	e8 00 00 00 00	 call	 F
  003bd	48 8d 8c 24 d0
	00 00 00	 lea	 rcx, QWORD PTR c_values$[rsp+144]
  003c5	4c 8d 84 24 40
	02 00 00	 lea	 r8, QWORD PTR blocktmp2$[rsp]
  003cd	48 8d 54 24 20	 lea	 rdx, QWORD PTR blocktmp$[rsp]
  003d2	e8 00 00 00 00	 call	 F

; 450  : 	F(c_values[10], blocktmp, blocktmp2); F(c_values[11], blocktmp, blocktmp2);

  003d7	48 8d 8c 24 e0
	00 00 00	 lea	 rcx, QWORD PTR c_values$[rsp+160]
  003df	4c 8d 84 24 40
	02 00 00	 lea	 r8, QWORD PTR blocktmp2$[rsp]
  003e7	48 8d 54 24 20	 lea	 rdx, QWORD PTR blocktmp$[rsp]
  003ec	e8 00 00 00 00	 call	 F
  003f1	48 8d 8c 24 f0
	00 00 00	 lea	 rcx, QWORD PTR c_values$[rsp+176]
  003f9	4c 8d 84 24 40
	02 00 00	 lea	 r8, QWORD PTR blocktmp2$[rsp]
  00401	48 8d 54 24 20	 lea	 rdx, QWORD PTR blocktmp$[rsp]
  00406	e8 00 00 00 00	 call	 F

; 451  : 	F(c_values[12], blocktmp, blocktmp2); F(c_values[13], blocktmp, blocktmp2);

  0040b	48 8d 8c 24 00
	01 00 00	 lea	 rcx, QWORD PTR c_values$[rsp+192]
  00413	4c 8d 84 24 40
	02 00 00	 lea	 r8, QWORD PTR blocktmp2$[rsp]
  0041b	48 8d 54 24 20	 lea	 rdx, QWORD PTR blocktmp$[rsp]
  00420	e8 00 00 00 00	 call	 F
  00425	48 8d 8c 24 10
	01 00 00	 lea	 rcx, QWORD PTR c_values$[rsp+208]
  0042d	4c 8d 84 24 40
	02 00 00	 lea	 r8, QWORD PTR blocktmp2$[rsp]
  00435	48 8d 54 24 20	 lea	 rdx, QWORD PTR blocktmp$[rsp]
  0043a	e8 00 00 00 00	 call	 F

; 452  : 	F(c_values[14], blocktmp, blocktmp2); F(c_values[15], blocktmp, blocktmp2);

  0043f	48 8d 8c 24 20
	01 00 00	 lea	 rcx, QWORD PTR c_values$[rsp+224]
  00447	4c 8d 84 24 40
	02 00 00	 lea	 r8, QWORD PTR blocktmp2$[rsp]
  0044f	48 8d 54 24 20	 lea	 rdx, QWORD PTR blocktmp$[rsp]
  00454	e8 00 00 00 00	 call	 F
  00459	48 8d 8c 24 30
	01 00 00	 lea	 rcx, QWORD PTR c_values$[rsp+240]
  00461	4c 8d 84 24 40
	02 00 00	 lea	 r8, QWORD PTR blocktmp2$[rsp]
  00469	48 8d 54 24 20	 lea	 rdx, QWORD PTR blocktmp$[rsp]
  0046e	e8 00 00 00 00	 call	 F

; 453  : 
; 454  : 	subkeys->y400 = blocktmp[0]; subkeys->y401 = blocktmp[1]; subkeys->y410 = blocktmp[2]; subkeys->y411 = blocktmp[3];

  00473	4c 8b 9c 24 68
	02 00 00	 mov	 r11, QWORD PTR subkeys$[rsp]
  0047b	8b 44 24 20	 mov	 eax, DWORD PTR blocktmp$[rsp]
  0047f	41 89 43 40	 mov	 DWORD PTR [r11+64], eax
  00483	48 8b 8c 24 68
	02 00 00	 mov	 rcx, QWORD PTR subkeys$[rsp]
  0048b	8b 44 24 24	 mov	 eax, DWORD PTR blocktmp$[rsp+4]
  0048f	89 41 44	 mov	 DWORD PTR [rcx+68], eax
  00492	48 8b 8c 24 68
	02 00 00	 mov	 rcx, QWORD PTR subkeys$[rsp]
  0049a	8b 44 24 28	 mov	 eax, DWORD PTR blocktmp$[rsp+8]
  0049e	89 41 48	 mov	 DWORD PTR [rcx+72], eax
  004a1	48 8b 8c 24 68
	02 00 00	 mov	 rcx, QWORD PTR subkeys$[rsp]
  004a9	8b 44 24 2c	 mov	 eax, DWORD PTR blocktmp$[rsp+12]
  004ad	89 41 4c	 mov	 DWORD PTR [rcx+76], eax

; 455  : 	subkeys->y500 = blocktmp2[0]; subkeys->y501 = blocktmp2[1]; subkeys->y510 = blocktmp2[2]; subkeys->y511 = blocktmp2[3];

  004b0	48 8b 8c 24 68
	02 00 00	 mov	 rcx, QWORD PTR subkeys$[rsp]
  004b8	8b 84 24 40 02
	00 00		 mov	 eax, DWORD PTR blocktmp2$[rsp]
  004bf	89 41 50	 mov	 DWORD PTR [rcx+80], eax
  004c2	48 8b 8c 24 68
	02 00 00	 mov	 rcx, QWORD PTR subkeys$[rsp]
  004ca	8b 84 24 44 02
	00 00		 mov	 eax, DWORD PTR blocktmp2$[rsp+4]
  004d1	89 41 54	 mov	 DWORD PTR [rcx+84], eax
  004d4	48 8b 8c 24 68
	02 00 00	 mov	 rcx, QWORD PTR subkeys$[rsp]
  004dc	8b 84 24 48 02
	00 00		 mov	 eax, DWORD PTR blocktmp2$[rsp+8]
  004e3	89 41 58	 mov	 DWORD PTR [rcx+88], eax
  004e6	48 8b 8c 24 68
	02 00 00	 mov	 rcx, QWORD PTR subkeys$[rsp]
  004ee	8b 84 24 4c 02
	00 00		 mov	 eax, DWORD PTR blocktmp2$[rsp+12]
  004f5	89 41 5c	 mov	 DWORD PTR [rcx+92], eax

; 456  : 
; 457  : 	/* Compute subkeys K_7 and K_8  */
; 458  : 	F(c_values[16], blocktmp, blocktmp2); F(c_values[17], blocktmp, blocktmp2);

  004f8	48 8d 8c 24 40
	01 00 00	 lea	 rcx, QWORD PTR c_values$[rsp+256]
  00500	4c 8d 84 24 40
	02 00 00	 lea	 r8, QWORD PTR blocktmp2$[rsp]
  00508	48 8d 54 24 20	 lea	 rdx, QWORD PTR blocktmp$[rsp]
  0050d	e8 00 00 00 00	 call	 F
  00512	48 8d 8c 24 50
	01 00 00	 lea	 rcx, QWORD PTR c_values$[rsp+272]
  0051a	4c 8d 84 24 40
	02 00 00	 lea	 r8, QWORD PTR blocktmp2$[rsp]
  00522	48 8d 54 24 20	 lea	 rdx, QWORD PTR blocktmp$[rsp]
  00527	e8 00 00 00 00	 call	 F

; 459  : 	F(c_values[18], blocktmp, blocktmp2); F(c_values[19], blocktmp, blocktmp2);

  0052c	48 8d 8c 24 60
	01 00 00	 lea	 rcx, QWORD PTR c_values$[rsp+288]
  00534	4c 8d 84 24 40
	02 00 00	 lea	 r8, QWORD PTR blocktmp2$[rsp]
  0053c	48 8d 54 24 20	 lea	 rdx, QWORD PTR blocktmp$[rsp]
  00541	e8 00 00 00 00	 call	 F
  00546	48 8d 8c 24 70
	01 00 00	 lea	 rcx, QWORD PTR c_values$[rsp+304]
  0054e	4c 8d 84 24 40
	02 00 00	 lea	 r8, QWORD PTR blocktmp2$[rsp]
  00556	48 8d 54 24 20	 lea	 rdx, QWORD PTR blocktmp$[rsp]
  0055b	e8 00 00 00 00	 call	 F

; 460  : 	F(c_values[20], blocktmp, blocktmp2); F(c_values[21], blocktmp, blocktmp2);

  00560	48 8d 8c 24 80
	01 00 00	 lea	 rcx, QWORD PTR c_values$[rsp+320]
  00568	4c 8d 84 24 40
	02 00 00	 lea	 r8, QWORD PTR blocktmp2$[rsp]
  00570	48 8d 54 24 20	 lea	 rdx, QWORD PTR blocktmp$[rsp]
  00575	e8 00 00 00 00	 call	 F
  0057a	48 8d 8c 24 90
	01 00 00	 lea	 rcx, QWORD PTR c_values$[rsp+336]
  00582	4c 8d 84 24 40
	02 00 00	 lea	 r8, QWORD PTR blocktmp2$[rsp]
  0058a	48 8d 54 24 20	 lea	 rdx, QWORD PTR blocktmp$[rsp]
  0058f	e8 00 00 00 00	 call	 F

; 461  : 	F(c_values[22], blocktmp, blocktmp2); F(c_values[23], blocktmp, blocktmp2);

  00594	48 8d 8c 24 a0
	01 00 00	 lea	 rcx, QWORD PTR c_values$[rsp+352]
  0059c	4c 8d 84 24 40
	02 00 00	 lea	 r8, QWORD PTR blocktmp2$[rsp]
  005a4	48 8d 54 24 20	 lea	 rdx, QWORD PTR blocktmp$[rsp]
  005a9	e8 00 00 00 00	 call	 F
  005ae	48 8d 8c 24 b0
	01 00 00	 lea	 rcx, QWORD PTR c_values$[rsp+368]
  005b6	4c 8d 84 24 40
	02 00 00	 lea	 r8, QWORD PTR blocktmp2$[rsp]
  005be	48 8d 54 24 20	 lea	 rdx, QWORD PTR blocktmp$[rsp]
  005c3	e8 00 00 00 00	 call	 F

; 462  : 
; 463  : 	subkeys->y600 = blocktmp[0]; subkeys->y601 = blocktmp[1]; subkeys->y610 = blocktmp[2]; subkeys->y611 = blocktmp[3];

  005c8	4c 8b 9c 24 68
	02 00 00	 mov	 r11, QWORD PTR subkeys$[rsp]
  005d0	8b 44 24 20	 mov	 eax, DWORD PTR blocktmp$[rsp]
  005d4	41 89 43 60	 mov	 DWORD PTR [r11+96], eax
  005d8	48 8b 8c 24 68
	02 00 00	 mov	 rcx, QWORD PTR subkeys$[rsp]
  005e0	8b 44 24 24	 mov	 eax, DWORD PTR blocktmp$[rsp+4]
  005e4	89 41 64	 mov	 DWORD PTR [rcx+100], eax
  005e7	48 8b 8c 24 68
	02 00 00	 mov	 rcx, QWORD PTR subkeys$[rsp]
  005ef	8b 44 24 28	 mov	 eax, DWORD PTR blocktmp$[rsp+8]
  005f3	89 41 68	 mov	 DWORD PTR [rcx+104], eax
  005f6	48 8b 8c 24 68
	02 00 00	 mov	 rcx, QWORD PTR subkeys$[rsp]
  005fe	8b 44 24 2c	 mov	 eax, DWORD PTR blocktmp$[rsp+12]
  00602	89 41 6c	 mov	 DWORD PTR [rcx+108], eax

; 464  : 	subkeys->y700 = blocktmp2[0]; subkeys->y701 = blocktmp2[1]; subkeys->y710 = blocktmp2[2]; subkeys->y711 = blocktmp2[3];

  00605	48 8b 8c 24 68
	02 00 00	 mov	 rcx, QWORD PTR subkeys$[rsp]
  0060d	8b 84 24 40 02
	00 00		 mov	 eax, DWORD PTR blocktmp2$[rsp]
  00614	89 41 70	 mov	 DWORD PTR [rcx+112], eax
  00617	48 8b 8c 24 68
	02 00 00	 mov	 rcx, QWORD PTR subkeys$[rsp]
  0061f	8b 84 24 44 02
	00 00		 mov	 eax, DWORD PTR blocktmp2$[rsp+4]
  00626	89 41 74	 mov	 DWORD PTR [rcx+116], eax
  00629	48 8b 8c 24 68
	02 00 00	 mov	 rcx, QWORD PTR subkeys$[rsp]
  00631	8b 84 24 48 02
	00 00		 mov	 eax, DWORD PTR blocktmp2$[rsp+8]
  00638	89 41 78	 mov	 DWORD PTR [rcx+120], eax
  0063b	48 8b 8c 24 68
	02 00 00	 mov	 rcx, QWORD PTR subkeys$[rsp]
  00643	8b 84 24 4c 02
	00 00		 mov	 eax, DWORD PTR blocktmp2$[rsp+12]
  0064a	89 41 7c	 mov	 DWORD PTR [rcx+124], eax

; 465  : 
; 466  : 	/* Compute subkeys K_9 and K_{10} */
; 467  : 	F(c_values[24], blocktmp, blocktmp2); F(c_values[25], blocktmp, blocktmp2);

  0064d	48 8d 8c 24 c0
	01 00 00	 lea	 rcx, QWORD PTR c_values$[rsp+384]
  00655	4c 8d 84 24 40
	02 00 00	 lea	 r8, QWORD PTR blocktmp2$[rsp]
  0065d	48 8d 54 24 20	 lea	 rdx, QWORD PTR blocktmp$[rsp]
  00662	e8 00 00 00 00	 call	 F
  00667	48 8d 8c 24 d0
	01 00 00	 lea	 rcx, QWORD PTR c_values$[rsp+400]
  0066f	4c 8d 84 24 40
	02 00 00	 lea	 r8, QWORD PTR blocktmp2$[rsp]
  00677	48 8d 54 24 20	 lea	 rdx, QWORD PTR blocktmp$[rsp]
  0067c	e8 00 00 00 00	 call	 F

; 468  : 	F(c_values[26], blocktmp, blocktmp2); F(c_values[27], blocktmp, blocktmp2);

  00681	48 8d 8c 24 e0
	01 00 00	 lea	 rcx, QWORD PTR c_values$[rsp+416]
  00689	4c 8d 84 24 40
	02 00 00	 lea	 r8, QWORD PTR blocktmp2$[rsp]
  00691	48 8d 54 24 20	 lea	 rdx, QWORD PTR blocktmp$[rsp]
  00696	e8 00 00 00 00	 call	 F
  0069b	48 8d 8c 24 f0
	01 00 00	 lea	 rcx, QWORD PTR c_values$[rsp+432]
  006a3	4c 8d 84 24 40
	02 00 00	 lea	 r8, QWORD PTR blocktmp2$[rsp]
  006ab	48 8d 54 24 20	 lea	 rdx, QWORD PTR blocktmp$[rsp]
  006b0	e8 00 00 00 00	 call	 F

; 469  : 	F(c_values[28], blocktmp, blocktmp2); F(c_values[29], blocktmp, blocktmp2);

  006b5	48 8d 8c 24 00
	02 00 00	 lea	 rcx, QWORD PTR c_values$[rsp+448]
  006bd	4c 8d 84 24 40
	02 00 00	 lea	 r8, QWORD PTR blocktmp2$[rsp]
  006c5	48 8d 54 24 20	 lea	 rdx, QWORD PTR blocktmp$[rsp]
  006ca	e8 00 00 00 00	 call	 F
  006cf	48 8d 8c 24 10
	02 00 00	 lea	 rcx, QWORD PTR c_values$[rsp+464]
  006d7	4c 8d 84 24 40
	02 00 00	 lea	 r8, QWORD PTR blocktmp2$[rsp]
  006df	48 8d 54 24 20	 lea	 rdx, QWORD PTR blocktmp$[rsp]
  006e4	e8 00 00 00 00	 call	 F

; 470  : 	F(c_values[30], blocktmp, blocktmp2); F(c_values[31], blocktmp, blocktmp2);

  006e9	48 8d 8c 24 20
	02 00 00	 lea	 rcx, QWORD PTR c_values$[rsp+480]
  006f1	4c 8d 84 24 40
	02 00 00	 lea	 r8, QWORD PTR blocktmp2$[rsp]
  006f9	48 8d 54 24 20	 lea	 rdx, QWORD PTR blocktmp$[rsp]
  006fe	e8 00 00 00 00	 call	 F
  00703	48 8d 8c 24 30
	02 00 00	 lea	 rcx, QWORD PTR c_values$[rsp+496]
  0070b	4c 8d 84 24 40
	02 00 00	 lea	 r8, QWORD PTR blocktmp2$[rsp]
  00713	48 8d 54 24 20	 lea	 rdx, QWORD PTR blocktmp$[rsp]
  00718	e8 00 00 00 00	 call	 F

; 471  : 
; 472  : 	subkeys->y800 = blocktmp[0]; subkeys->y801 = blocktmp[1]; subkeys->y810 = blocktmp[2]; subkeys->y811 = blocktmp[3];

  0071d	4c 8b 9c 24 68
	02 00 00	 mov	 r11, QWORD PTR subkeys$[rsp]
  00725	8b 44 24 20	 mov	 eax, DWORD PTR blocktmp$[rsp]
  00729	41 89 83 80 00
	00 00		 mov	 DWORD PTR [r11+128], eax
  00730	48 8b 8c 24 68
	02 00 00	 mov	 rcx, QWORD PTR subkeys$[rsp]
  00738	8b 44 24 24	 mov	 eax, DWORD PTR blocktmp$[rsp+4]
  0073c	89 81 84 00 00
	00		 mov	 DWORD PTR [rcx+132], eax
  00742	48 8b 8c 24 68
	02 00 00	 mov	 rcx, QWORD PTR subkeys$[rsp]
  0074a	8b 44 24 28	 mov	 eax, DWORD PTR blocktmp$[rsp+8]
  0074e	89 81 88 00 00
	00		 mov	 DWORD PTR [rcx+136], eax
  00754	48 8b 8c 24 68
	02 00 00	 mov	 rcx, QWORD PTR subkeys$[rsp]
  0075c	8b 44 24 2c	 mov	 eax, DWORD PTR blocktmp$[rsp+12]
  00760	89 81 8c 00 00
	00		 mov	 DWORD PTR [rcx+140], eax

; 473  : 	subkeys->y900 = blocktmp2[0]; subkeys->y901 = blocktmp2[1]; subkeys->y910 = blocktmp2[2]; subkeys->y911 = blocktmp2[3];

  00766	48 8b 8c 24 68
	02 00 00	 mov	 rcx, QWORD PTR subkeys$[rsp]
  0076e	8b 84 24 40 02
	00 00		 mov	 eax, DWORD PTR blocktmp2$[rsp]
  00775	89 81 90 00 00
	00		 mov	 DWORD PTR [rcx+144], eax
  0077b	48 8b 8c 24 68
	02 00 00	 mov	 rcx, QWORD PTR subkeys$[rsp]
  00783	8b 84 24 44 02
	00 00		 mov	 eax, DWORD PTR blocktmp2$[rsp+4]
  0078a	89 81 94 00 00
	00		 mov	 DWORD PTR [rcx+148], eax
  00790	48 8b 8c 24 68
	02 00 00	 mov	 rcx, QWORD PTR subkeys$[rsp]
  00798	8b 84 24 48 02
	00 00		 mov	 eax, DWORD PTR blocktmp2$[rsp+8]
  0079f	89 81 98 00 00
	00		 mov	 DWORD PTR [rcx+152], eax
  007a5	48 8b 8c 24 68
	02 00 00	 mov	 rcx, QWORD PTR subkeys$[rsp]
  007ad	8b 84 24 4c 02
	00 00		 mov	 eax, DWORD PTR blocktmp2$[rsp+12]
  007b4	89 81 9c 00 00
	00		 mov	 DWORD PTR [rcx+156], eax

; 474  : 
; 475  : }

  007ba	48 81 c4 58 02
	00 00		 add	 rsp, 600		; 00000258H
  007c1	c3		 ret	 0
grasshopper_set_key ENDP
END
