; Listing generated by Microsoft (R) Optimizing Compiler Version 15.00.30729.207 

include listing.inc

INCLUDELIB OLDNAMES

PUBLIC	??_C@_0EB@NCCFEKHJ@t?$IKd?$JE?$LI4?$LNr?$JF?$KC?$DL?$BB?$IG?$BNF?g?$II?$APe?$JI?ST?a?$LCJ5?B?$KC?$IFA?$AI?$IF@ ; `string'
PUBLIC	??_C@_0CB@IGIOKONH@R5?$LH?$BHV?$LIu?$CB?J?iR?$JL?$CB?$JH?$DOmNT?$BC?$PMap?$EA?zFL?w$?$JN?$CI?$NO?$BN@ ; `string'
PUBLIC	??_C@_0EB@PHFBDMAI@?$AD?$JB?R?$IA?$AA?$LGb?$LL?$LI?f?$CD?$DO?hl?r?$LC?$IEtLs?$ILX?$AA?$LK?$CI?$BC?mRo?c?$BF?3@ ; `string'
PUBLIC	??_C@_0DJ@NGDOEGCI@abcdbcdecdefdefgefghfghighijhijk@ ; `string'
PUBLIC	??_C@_0EB@DIMDKBBC@?$AA?$BB?$CC3DUfw?$II?$JJ?$KK?$LL?L?$NN?n?$PP?$AB?$CDEg?$IJ?$KL?M?o?$AA?$BB?$CC3DUfw@ ; `string'
PUBLIC	XTS_vectors
PUBLIC	hmac_whirlpool_test_key
PUBLIC	hmac_whirlpool_test_data
PUBLIC	hmac_whirlpool_test_vectors
PUBLIC	hmac_gosthash_test_key
PUBLIC	hmac_gosthash_test_data
PUBLIC	hmac_gosthash_test_vectors
PUBLIC	hmac_stribog_test_key
PUBLIC	hmac_stribog_test_data
PUBLIC	hmac_stribog_test_vectors
PUBLIC	??_C@_0O@POKHNLDL@GOST?528147?989?$AA@FNODOBFM@	;  ?? ::FNODOBFM::`string'
PUBLIC	??_C@_0BB@BMJBGELP@Gost?5Grasshopper?$AA@FNODOBFM@ ;  ?? ::FNODOBFM::`string'
PUBLIC	??_C@_04NDGDACAK@?$BC4Vx?$AA@FNODOBFM@		;  ?? ::FNODOBFM::`string'
PUBLIC	??_C@_08NLHBPEGP@password?$AA@FNODOBFM@		;  ?? ::FNODOBFM::`string'
PUBLIC	??_C@_04OCKEDGEH@P?$HM6o?$AA@FNODOBFM@		;  ?? ::FNODOBFM::`string'
PUBLIC	??_C@_0GB@BHABHNEI@P?$HM6o?n?$BA?4?$JK?b?$IK?U?$ICr?$HN?8?$AP?hM?$HPhz?O?$LF?gCg?$KK?$JI?$JDR?$CL?7@FNODOBFM@ ;  ?? ::FNODOBFM::`string'
PUBLIC	??_C@_04PJHJAIAI@?$HNS?$OA?$HO?$AA@FNODOBFM@	;  ?? ::FNODOBFM::`string'
PUBLIC	??_C@_04PKOKJPGE@?G?$BDV?$LG?$AA@FNODOBFM@	;  ?? ::FNODOBFM::`string'
COMM	ks_tmp:BYTE:0220H
;	COMDAT ??_C@_04PKOKJPGE@?G?$BDV?$LG?$AA@FNODOBFM@
text$s	SEGMENT
??_C@_04PKOKJPGE@?G?$BDV?$LG?$AA@FNODOBFM@ DB 0c7H, 013H, 'V', 0b6H, 00H ;  ?? ::FNODOBFM::`string'
text$s	ENDS
;	COMDAT ??_C@_04PJHJAIAI@?$HNS?$OA?$HO?$AA@FNODOBFM@
text$s	SEGMENT
??_C@_04PJHJAIAI@?$HNS?$OA?$HO?$AA@FNODOBFM@ DB '}S', 0e0H, '~', 00H ;  ?? ::FNODOBFM::`string'
text$s	ENDS
;	COMDAT ??_C@_0GB@BHABHNEI@P?$HM6o?n?$BA?4?$JK?b?$IK?U?$ICr?$HN?8?$AP?hM?$HPhz?O?$LF?gCg?$KK?$JI?$JDR?$CL?7@FNODOBFM@
text$s	SEGMENT
??_C@_0GB@BHABHNEI@P?$HM6o?n?$BA?4?$JK?b?$IK?U?$ICr?$HN?8?$AP?hM?$HPhz?O?$LF?gCg?$KK?$JI?$JDR?$CL?7@FNODOBFM@ DB 'P'
	DB	'|6o', 0eeH, 010H, '.', 09aH, 0e2H, 08aH, 0d5H, 082H, 'r}''', 0fH
	DB	0e8H, 'M', 07fH, 'hz', 0cfH, 0b5H, 0e7H, 'Cg', 0aaH, 098H, 093H
	DB	'R+', 09H, 'nB', 0dfH, ',YJ', 091H, 'm~', 010H, 0aeH, 0b2H, 01aH
	DB	089H, 08fH, 0b9H, 08fH, 0e6H, '1', 0a9H, 0d8H, 09fH, 098H, '&', 0f4H
	DB	0daH, 0cdH, '}ee', 0deH, 010H, 095H, 091H, 0b4H, 084H, '&', 0aeH
	DB	'C', 0a1H, 00H, '[', 01eH, 0b8H, '8', 097H, 0a4H, 01eH, 'K', 0d2H
	DB	'ed', 0bcH, 0faH, 01fH, '5', 085H, 0dbH, 'O', 097H, 'eo', 0bdH
	DB	'$', 00H					;  ?? ::FNODOBFM::`string'
text$s	ENDS
;	COMDAT ??_C@_04OCKEDGEH@P?$HM6o?$AA@FNODOBFM@
text$s	SEGMENT
??_C@_04OCKEDGEH@P?$HM6o?$AA@FNODOBFM@ DB 'P|6o', 00H	;  ?? ::FNODOBFM::`string'
text$s	ENDS
;	COMDAT ??_C@_08NLHBPEGP@password?$AA@FNODOBFM@
text$s	SEGMENT
??_C@_08NLHBPEGP@password?$AA@FNODOBFM@ DB 'password', 00H ;  ?? ::FNODOBFM::`string'
text$s	ENDS
;	COMDAT ??_C@_04NDGDACAK@?$BC4Vx?$AA@FNODOBFM@
text$s	SEGMENT
??_C@_04NDGDACAK@?$BC4Vx?$AA@FNODOBFM@ DB 012H, '4Vx', 00H ;  ?? ::FNODOBFM::`string'
text$s	ENDS
;	COMDAT ??_C@_0BB@BMJBGELP@Gost?5Grasshopper?$AA@FNODOBFM@
text$s	SEGMENT
??_C@_0BB@BMJBGELP@Gost?5Grasshopper?$AA@FNODOBFM@ DB 'Gost Grasshopper', 00H ;  ?? ::FNODOBFM::`string'
text$s	ENDS
;	COMDAT ??_C@_0O@POKHNLDL@GOST?528147?989?$AA@FNODOBFM@
text$s	SEGMENT
??_C@_0O@POKHNLDL@GOST?528147?989?$AA@FNODOBFM@ DB 'GOST 28147-89', 00H ;  ?? ::FNODOBFM::`string'
text$s	ENDS
;	COMDAT ??_C@_0EB@NCCFEKHJ@t?$IKd?$JE?$LI4?$LNr?$JF?$KC?$DL?$BB?$IG?$BNF?g?$II?$APe?$JI?ST?a?$LCJ5?B?$KC?$IFA?$AI?$IF@
CONST	SEGMENT
??_C@_0EB@NCCFEKHJ@t?$IKd?$JE?$LI4?$LNr?$JF?$KC?$DL?$BB?$IG?$BNF?g?$II?$APe?$JI?ST?a?$LCJ5?B?$KC?$IFA?$AI?$IF@ DB 't'
	DB	08aH, 'd', 094H, 0b8H, '4', 0bdH, 'r', 095H, 0a2H, ';', 011H, 086H
	DB	01dH, 'F', 0e7H, 088H, 0fH, 'e', 098H, 0d3H, 'T', 0e1H, 0b2H, 'J'
	DB	'5', 0c2H, 0a2H, 085H, 'A', 08H, 085H, 07H, 0c8H, 'RQ6&', 0d2H
	DB	08cH, '8', 0e5H, 'U', 09eH, 0d2H, 01bH, 088H, '++7', 0aeH, 087H
	DB	011H, 01aH, '7', 0e4H, 0b1H, 088H, 0d3H, 0d7H, 08cH, 09fH, 0efH
	DB	01bH, 00H					; `string'
CONST	ENDS
;	COMDAT ??_C@_0CB@IGIOKONH@R5?$LH?$BHV?$LIu?$CB?J?iR?$JL?$CB?$JH?$DOmNT?$BC?$PMap?$EA?zFL?w$?$JN?$CI?$NO?$BN@
CONST	SEGMENT
??_C@_0CB@IGIOKONH@R5?$LH?$BHV?$LIu?$CB?J?iR?$JL?$CB?$JH?$DOmNT?$BC?$PMap?$EA?zFL?w$?$JN?$CI?$NO?$BN@ DB 'R'
	DB	'5', 0b7H, 017H, 'V', 0b8H, 'u!', 0caH, 0e9H, 'R', 09bH, '!', 097H
	DB	'>mNT', 012H, 0fcH, 'ap@', 0faH, 'FL', 0f7H, '$', 09dH, '(', 0deH
	DB	01dH, 00H					; `string'
CONST	ENDS
;	COMDAT ??_C@_0EB@PHFBDMAI@?$AD?$JB?R?$IA?$AA?$LGb?$LL?$LI?f?$CD?$DO?hl?r?$LC?$IEtLs?$ILX?$AA?$LK?$CI?$BC?mRo?c?$BF?3@
CONST	SEGMENT
??_C@_0EB@PHFBDMAI@?$AD?$JB?R?$IA?$AA?$LGb?$LL?$LI?f?$CD?$DO?hl?r?$LC?$IEtLs?$ILX?$AA?$LK?$CI?$BC?mRo?c?$BF?3@ DB 03H
	DB	091H, 0d2H, 080H, 00H, 0b6H, 'b', 0bbH, 0b8H, 0e6H, '#>', 0e8H
	DB	'l', 0f2H, 0b2H, 084H, 'tLs', 08bH, 'X', 00H, 0baH, '(', 012H, 0edH
	DB	'Ro', 0e3H, 015H, ':', 0b1H, 0baH, 0e7H, 0e2H, '6', 0beH, 096H
	DB	'TI?', 019H, 0faH, 0ceH, 0a6H, 'D', 01fH, '`', 0f5H, 0f0H, 018H
	DB	093H, 09H, 011H, 0a5H, 0e5H, 0ceH, 0d8H, 0f2H, 'j', 0bfH, 0a4H
	DB	02H, 00H					; `string'
CONST	ENDS
;	COMDAT ??_C@_0DJ@NGDOEGCI@abcdbcdecdefdefgefghfghighijhijk@
CONST	SEGMENT
??_C@_0DJ@NGDOEGCI@abcdbcdecdefdefgefghfghighijhijk@ DB 'abcdbcdecdefdefg'
	DB	'efghfghighijhijkijkljklmklmnlmnomnopnopq', 00H ; `string'
CONST	ENDS
;	COMDAT ??_C@_0EB@DIMDKBBC@?$AA?$BB?$CC3DUfw?$II?$JJ?$KK?$LL?L?$NN?n?$PP?$AB?$CDEg?$IJ?$KL?M?o?$AA?$BB?$CC3DUfw@
CONST	SEGMENT
??_C@_0EB@DIMDKBBC@?$AA?$BB?$CC3DUfw?$II?$JJ?$KK?$LL?L?$NN?n?$PP?$AB?$CDEg?$IJ?$KL?M?o?$AA?$BB?$CC3DUfw@ DB 00H
	DB	011H, '"3DUfw', 088H, 099H, 0aaH, 0bbH, 0ccH, 0ddH, 0eeH, 0ffH
	DB	01H, '#Eg', 089H, 0abH, 0cdH, 0efH, 00H, 011H, '"3DUfw', 088H, 099H
	DB	0aaH, 0bbH, 0ccH, 0ddH, 0eeH, 0ffH, 01H, '#Eg', 089H, 0abH, 0cdH
	DB	0efH, 00H, 011H, '"3DUfw', 088H, 099H, 0aaH, 0bbH, 0ccH, 0ddH, 0eeH
	DB	0ffH, 00H					; `string'
XTS_vectors DB	027H
	DB	018H
	DB	028H
	DB	018H
	DB	028H
	DB	045H
	DB	090H
	DB	045H
	DB	023H
	DB	053H
	DB	060H
	DB	028H
	DB	074H
	DB	071H
	DB	035H
	DB	026H
	DB	062H
	DB	049H
	DB	077H
	DB	057H
	DB	024H
	DB	070H
	DB	093H
	DB	069H
	DB	099H
	DB	059H
	DB	057H
	DB	049H
	DB	066H
	DB	096H
	DB	076H
	DB	027H
	DB	031H
	DB	041H
	DB	059H
	DB	026H
	DB	053H
	DB	058H
	DB	097H
	DB	093H
	DB	023H
	DB	084H
	DB	062H
	DB	064H
	DB	033H
	DB	083H
	DB	027H
	DB	095H
	DB	02H
	DB	088H
	DB	041H
	DB	097H
	DB	016H
	DB	093H
	DB	099H
	DB	037H
	DB	051H
	DB	05H
	DB	082H
	DB	09H
	DB	074H
	DB	094H
	DB	045H
	DB	092H
	DB	00H
	DB	00H
	DB	00H
	DB	00H
	DB	00H
	DB	00H
	DB	00H
	DB	0ffH
	DD	00H
	DB	00H
	DB	01H
	DB	02H
	DB	03H
	DB	04H
	DB	05H
	DB	06H
	DB	07H
	DB	08H
	DB	09H
	DB	0aH
	DB	0bH
	DB	0cH
	DB	0dH
	DB	0eH
	DB	0fH
	DB	010H
	DB	011H
	DB	012H
	DB	013H
	DB	014H
	DB	015H
	DB	016H
	DB	017H
	DB	018H
	DB	019H
	DB	01aH
	DB	01bH
	DB	01cH
	DB	01dH
	DB	01eH
	DB	01fH
	DB	020H
	DB	021H
	DB	022H
	DB	023H
	DB	024H
	DB	025H
	DB	026H
	DB	027H
	DB	028H
	DB	029H
	DB	02aH
	DB	02bH
	DB	02cH
	DB	02dH
	DB	02eH
	DB	02fH
	DB	030H
	DB	031H
	DB	032H
	DB	033H
	DB	034H
	DB	035H
	DB	036H
	DB	037H
	DB	038H
	DB	039H
	DB	03aH
	DB	03bH
	DB	03cH
	DB	03dH
	DB	03eH
	DB	03fH
	DB	040H
	DB	041H
	DB	042H
	DB	043H
	DB	044H
	DB	045H
	DB	046H
	DB	047H
	DB	048H
	DB	049H
	DB	04aH
	DB	04bH
	DB	04cH
	DB	04dH
	DB	04eH
	DB	04fH
	DB	050H
	DB	051H
	DB	052H
	DB	053H
	DB	054H
	DB	055H
	DB	056H
	DB	057H
	DB	058H
	DB	059H
	DB	05aH
	DB	05bH
	DB	05cH
	DB	05dH
	DB	05eH
	DB	05fH
	DB	060H
	DB	061H
	DB	062H
	DB	063H
	DB	064H
	DB	065H
	DB	066H
	DB	067H
	DB	068H
	DB	069H
	DB	06aH
	DB	06bH
	DB	06cH
	DB	06dH
	DB	06eH
	DB	06fH
	DB	070H
	DB	071H
	DB	072H
	DB	073H
	DB	074H
	DB	075H
	DB	076H
	DB	077H
	DB	078H
	DB	079H
	DB	07aH
	DB	07bH
	DB	07cH
	DB	07dH
	DB	07eH
	DB	07fH
	DB	080H
	DB	081H
	DB	082H
	DB	083H
	DB	084H
	DB	085H
	DB	086H
	DB	087H
	DB	088H
	DB	089H
	DB	08aH
	DB	08bH
	DB	08cH
	DB	08dH
	DB	08eH
	DB	08fH
	DB	090H
	DB	091H
	DB	092H
	DB	093H
	DB	094H
	DB	095H
	DB	096H
	DB	097H
	DB	098H
	DB	099H
	DB	09aH
	DB	09bH
	DB	09cH
	DB	09dH
	DB	09eH
	DB	09fH
	DB	0a0H
	DB	0a1H
	DB	0a2H
	DB	0a3H
	DB	0a4H
	DB	0a5H
	DB	0a6H
	DB	0a7H
	DB	0a8H
	DB	0a9H
	DB	0aaH
	DB	0abH
	DB	0acH
	DB	0adH
	DB	0aeH
	DB	0afH
	DB	0b0H
	DB	0b1H
	DB	0b2H
	DB	0b3H
	DB	0b4H
	DB	0b5H
	DB	0b6H
	DB	0b7H
	DB	0b8H
	DB	0b9H
	DB	0baH
	DB	0bbH
	DB	0bcH
	DB	0bdH
	DB	0beH
	DB	0bfH
	DB	0c0H
	DB	0c1H
	DB	0c2H
	DB	0c3H
	DB	0c4H
	DB	0c5H
	DB	0c6H
	DB	0c7H
	DB	0c8H
	DB	0c9H
	DB	0caH
	DB	0cbH
	DB	0ccH
	DB	0cdH
	DB	0ceH
	DB	0cfH
	DB	0d0H
	DB	0d1H
	DB	0d2H
	DB	0d3H
	DB	0d4H
	DB	0d5H
	DB	0d6H
	DB	0d7H
	DB	0d8H
	DB	0d9H
	DB	0daH
	DB	0dbH
	DB	0dcH
	DB	0ddH
	DB	0deH
	DB	0dfH
	DB	0e0H
	DB	0e1H
	DB	0e2H
	DB	0e3H
	DB	0e4H
	DB	0e5H
	DB	0e6H
	DB	0e7H
	DB	0e8H
	DB	0e9H
	DB	0eaH
	DB	0ebH
	DB	0ecH
	DB	0edH
	DB	0eeH
	DB	0efH
	DB	0f0H
	DB	0f1H
	DB	0f2H
	DB	0f3H
	DB	0f4H
	DB	0f5H
	DB	0f6H
	DB	0f7H
	DB	0f8H
	DB	0f9H
	DB	0faH
	DB	0fbH
	DB	0fcH
	DB	0fdH
	DB	0feH
	DB	0ffH
	DB	00H
	DB	01H
	DB	02H
	DB	03H
	DB	04H
	DB	05H
	DB	06H
	DB	07H
	DB	08H
	DB	09H
	DB	0aH
	DB	0bH
	DB	0cH
	DB	0dH
	DB	0eH
	DB	0fH
	DB	010H
	DB	011H
	DB	012H
	DB	013H
	DB	014H
	DB	015H
	DB	016H
	DB	017H
	DB	018H
	DB	019H
	DB	01aH
	DB	01bH
	DB	01cH
	DB	01dH
	DB	01eH
	DB	01fH
	DB	020H
	DB	021H
	DB	022H
	DB	023H
	DB	024H
	DB	025H
	DB	026H
	DB	027H
	DB	028H
	DB	029H
	DB	02aH
	DB	02bH
	DB	02cH
	DB	02dH
	DB	02eH
	DB	02fH
	DB	030H
	DB	031H
	DB	032H
	DB	033H
	DB	034H
	DB	035H
	DB	036H
	DB	037H
	DB	038H
	DB	039H
	DB	03aH
	DB	03bH
	DB	03cH
	DB	03dH
	DB	03eH
	DB	03fH
	DB	040H
	DB	041H
	DB	042H
	DB	043H
	DB	044H
	DB	045H
	DB	046H
	DB	047H
	DB	048H
	DB	049H
	DB	04aH
	DB	04bH
	DB	04cH
	DB	04dH
	DB	04eH
	DB	04fH
	DB	050H
	DB	051H
	DB	052H
	DB	053H
	DB	054H
	DB	055H
	DB	056H
	DB	057H
	DB	058H
	DB	059H
	DB	05aH
	DB	05bH
	DB	05cH
	DB	05dH
	DB	05eH
	DB	05fH
	DB	060H
	DB	061H
	DB	062H
	DB	063H
	DB	064H
	DB	065H
	DB	066H
	DB	067H
	DB	068H
	DB	069H
	DB	06aH
	DB	06bH
	DB	06cH
	DB	06dH
	DB	06eH
	DB	06fH
	DB	070H
	DB	071H
	DB	072H
	DB	073H
	DB	074H
	DB	075H
	DB	076H
	DB	077H
	DB	078H
	DB	079H
	DB	07aH
	DB	07bH
	DB	07cH
	DB	07dH
	DB	07eH
	DB	07fH
	DB	080H
	DB	081H
	DB	082H
	DB	083H
	DB	084H
	DB	085H
	DB	086H
	DB	087H
	DB	088H
	DB	089H
	DB	08aH
	DB	08bH
	DB	08cH
	DB	08dH
	DB	08eH
	DB	08fH
	DB	090H
	DB	091H
	DB	092H
	DB	093H
	DB	094H
	DB	095H
	DB	096H
	DB	097H
	DB	098H
	DB	099H
	DB	09aH
	DB	09bH
	DB	09cH
	DB	09dH
	DB	09eH
	DB	09fH
	DB	0a0H
	DB	0a1H
	DB	0a2H
	DB	0a3H
	DB	0a4H
	DB	0a5H
	DB	0a6H
	DB	0a7H
	DB	0a8H
	DB	0a9H
	DB	0aaH
	DB	0abH
	DB	0acH
	DB	0adH
	DB	0aeH
	DB	0afH
	DB	0b0H
	DB	0b1H
	DB	0b2H
	DB	0b3H
	DB	0b4H
	DB	0b5H
	DB	0b6H
	DB	0b7H
	DB	0b8H
	DB	0b9H
	DB	0baH
	DB	0bbH
	DB	0bcH
	DB	0bdH
	DB	0beH
	DB	0bfH
	DB	0c0H
	DB	0c1H
	DB	0c2H
	DB	0c3H
	DB	0c4H
	DB	0c5H
	DB	0c6H
	DB	0c7H
	DB	0c8H
	DB	0c9H
	DB	0caH
	DB	0cbH
	DB	0ccH
	DB	0cdH
	DB	0ceH
	DB	0cfH
	DB	0d0H
	DB	0d1H
	DB	0d2H
	DB	0d3H
	DB	0d4H
	DB	0d5H
	DB	0d6H
	DB	0d7H
	DB	0d8H
	DB	0d9H
	DB	0daH
	DB	0dbH
	DB	0dcH
	DB	0ddH
	DB	0deH
	DB	0dfH
	DB	0e0H
	DB	0e1H
	DB	0e2H
	DB	0e3H
	DB	0e4H
	DB	0e5H
	DB	0e6H
	DB	0e7H
	DB	0e8H
	DB	0e9H
	DB	0eaH
	DB	0ebH
	DB	0ecH
	DB	0edH
	DB	0eeH
	DB	0efH
	DB	0f0H
	DB	0f1H
	DB	0f2H
	DB	0f3H
	DB	0f4H
	DB	0f5H
	DB	0f6H
	DB	0f7H
	DB	0f8H
	DB	0f9H
	DB	0faH
	DB	0fbH
	DB	0fcH
	DB	0fdH
	DB	0feH
	DB	0ffH
	DB	01cH
	DB	03bH
	DB	03aH
	DB	010H
	DB	02fH
	DB	077H
	DB	03H
	DB	086H
	DB	0e4H
	DB	083H
	DB	06cH
	DB	099H
	DB	0e3H
	DB	070H
	DB	0cfH
	DB	09bH
	DB	0eaH
	DB	00H
	DB	080H
	DB	03fH
	DB	05eH
	DB	048H
	DB	023H
	DB	057H
	DB	0a4H
	DB	0aeH
	DB	012H
	DB	0d4H
	DB	014H
	DB	0a3H
	DB	0e6H
	DB	03bH
	DB	05dH
	DB	031H
	DB	0e2H
	DB	076H
	DB	0f8H
	DB	0feH
	DB	04aH
	DB	08dH
	DB	066H
	DB	0b3H
	DB	017H
	DB	0f9H
	DB	0acH
	DB	068H
	DB	03fH
	DB	044H
	DB	068H
	DB	0aH
	DB	086H
	DB	0acH
	DB	035H
	DB	0adH
	DB	0fcH
	DB	033H
	DB	045H
	DB	0beH
	DB	0feH
	DB	0cbH
	DB	04bH
	DB	0b1H
	DB	088H
	DB	0fdH
	DB	057H
	DB	076H
	DB	092H
	DB	06cH
	DB	049H
	DB	0a3H
	DB	09H
	DB	05eH
	DB	0b1H
	DB	08H
	DB	0fdH
	DB	010H
	DB	098H
	DB	0baH
	DB	0ecH
	DB	070H
	DB	0aaH
	DB	0a6H
	DB	069H
	DB	099H
	DB	0a7H
	DB	02aH
	DB	082H
	DB	0f2H
	DB	07dH
	DB	084H
	DB	08bH
	DB	021H
	DB	0d4H
	DB	0a7H
	DB	041H
	DB	0b0H
	DB	0c5H
	DB	0cdH
	DB	04dH
	DB	05fH
	DB	0ffH
	DB	09dH
	DB	0acH
	DB	089H
	DB	0aeH
	DB	0baH
	DB	012H
	DB	029H
	DB	061H
	DB	0d0H
	DB	03aH
	DB	075H
	DB	071H
	DB	023H
	DB	0e9H
	DB	087H
	DB	0fH
	DB	08aH
	DB	0cfH
	DB	010H
	DB	00H
	DB	02H
	DB	08H
	DB	087H
	DB	089H
	DB	014H
	DB	029H
	DB	0caH
	DB	02aH
	DB	03eH
	DB	07aH
	DB	07dH
	DB	07dH
	DB	0f7H
	DB	0b1H
	DB	03H
	DB	055H
	DB	016H
	DB	05cH
	DB	08bH
	DB	09aH
	DB	06dH
	DB	0aH
	DB	07dH
	DB	0e8H
	DB	0b0H
	DB	062H
	DB	0c4H
	DB	050H
	DB	0dH
	DB	0c4H
	DB	0cdH
	DB	012H
	DB	0cH
	DB	0fH
	DB	074H
	DB	018H
	DB	0daH
	DB	0e3H
	DB	0d0H
	DB	0b5H
	DB	078H
	DB	01cH
	DB	034H
	DB	080H
	DB	03fH
	DB	0a7H
	DB	054H
	DB	021H
	DB	0c7H
	DB	090H
	DB	0dfH
	DB	0e1H
	DB	0deH
	DB	018H
	DB	034H
	DB	0f2H
	DB	080H
	DB	0d7H
	DB	066H
	DB	07bH
	DB	032H
	DB	07fH
	DB	06cH
	DB	08cH
	DB	0d7H
	DB	055H
	DB	07eH
	DB	012H
	DB	0acH
	DB	03aH
	DB	0fH
	DB	093H
	DB	0ecH
	DB	05H
	DB	0c5H
	DB	02eH
	DB	04H
	DB	093H
	DB	0efH
	DB	031H
	DB	0a1H
	DB	02dH
	DB	03dH
	DB	092H
	DB	060H
	DB	0f7H
	DB	09aH
	DB	028H
	DB	09dH
	DB	06aH
	DB	037H
	DB	09bH
	DB	0c7H
	DB	0cH
	DB	050H
	DB	084H
	DB	014H
	DB	073H
	DB	0d1H
	DB	0a8H
	DB	0ccH
	DB	081H
	DB	0ecH
	DB	058H
	DB	03eH
	DB	096H
	DB	045H
	DB	0e0H
	DB	07bH
	DB	08dH
	DB	096H
	DB	070H
	DB	065H
	DB	05bH
	DB	0a5H
	DB	0bbH
	DB	0cfH
	DB	0ecH
	DB	0c6H
	DB	0dcH
	DB	039H
	DB	066H
	DB	038H
	DB	0aH
	DB	0d8H
	DB	0feH
	DB	0cbH
	DB	017H
	DB	0b6H
	DB	0baH
	DB	02H
	DB	046H
	DB	09aH
	DB	02H
	DB	0aH
	DB	084H
	DB	0e1H
	DB	08eH
	DB	08fH
	DB	084H
	DB	025H
	DB	020H
	DB	070H
	DB	0c1H
	DB	03eH
	DB	09fH
	DB	01fH
	DB	028H
	DB	09bH
	DB	0e5H
	DB	04fH
	DB	0bcH
	DB	048H
	DB	014H
	DB	057H
	DB	077H
	DB	08fH
	DB	061H
	DB	060H
	DB	015H
	DB	0e1H
	DB	032H
	DB	07aH
	DB	02H
	DB	0b1H
	DB	040H
	DB	0f1H
	DB	050H
	DB	05eH
	DB	0b3H
	DB	09H
	DB	032H
	DB	06dH
	DB	068H
	DB	037H
	DB	08fH
	DB	083H
	DB	074H
	DB	059H
	DB	05cH
	DB	084H
	DB	09dH
	DB	084H
	DB	0f4H
	DB	0c3H
	DB	033H
	DB	0ecH
	DB	044H
	DB	023H
	DB	088H
	DB	051H
	DB	043H
	DB	0cbH
	DB	047H
	DB	0bdH
	DB	071H
	DB	0c5H
	DB	0edH
	DB	0aeH
	DB	09bH
	DB	0e6H
	DB	09aH
	DB	02fH
	DB	0feH
	DB	0ceH
	DB	0b1H
	DB	0beH
	DB	0c9H
	DB	0deH
	DB	024H
	DB	04fH
	DB	0beH
	DB	015H
	DB	099H
	DB	02bH
	DB	011H
	DB	0b7H
	DB	07cH
	DB	04H
	DB	0fH
	DB	012H
	DB	0bdH
	DB	08fH
	DB	06aH
	DB	097H
	DB	05aH
	DB	044H
	DB	0a0H
	DB	0f9H
	DB	0cH
	DB	029H
	DB	0a9H
	DB	0abH
	DB	0c3H
	DB	0d4H
	DB	0d8H
	DB	093H
	DB	092H
	DB	072H
	DB	084H
	DB	0c5H
	DB	087H
	DB	054H
	DB	0ccH
	DB	0e2H
	DB	094H
	DB	052H
	DB	09fH
	DB	086H
	DB	014H
	DB	0dcH
	DB	0d2H
	DB	0abH
	DB	0a9H
	DB	091H
	DB	092H
	DB	05fH
	DB	0edH
	DB	0c4H
	DB	0aeH
	DB	074H
	DB	0ffH
	DB	0acH
	DB	06eH
	DB	033H
	DB	03bH
	DB	093H
	DB	0ebH
	DB	04aH
	DB	0ffH
	DB	04H
	DB	079H
	DB	0daH
	DB	09aH
	DB	041H
	DB	0eH
	DB	044H
	DB	050H
	DB	0e0H
	DB	0ddH
	DB	07aH
	DB	0e4H
	DB	0c6H
	DB	0e2H
	DB	091H
	DB	09H
	DB	00H
	DB	057H
	DB	05dH
	DB	0a4H
	DB	01H
	DB	0fcH
	DB	07H
	DB	05H
	DB	09fH
	DB	064H
	DB	05eH
	DB	08bH
	DB	07eH
	DB	09bH
	DB	0fdH
	DB	0efH
	DB	033H
	DB	094H
	DB	030H
	DB	054H
	DB	0ffH
	DB	084H
	DB	01H
	DB	014H
	DB	093H
	DB	0c2H
	DB	07bH
	DB	034H
	DB	029H
	DB	0eaH
	DB	0edH
	DB	0b4H
	DB	0edH
	DB	053H
	DB	076H
	DB	044H
	DB	01aH
	DB	077H
	DB	0edH
	DB	043H
	DB	085H
	DB	01aH
	DB	0d7H
	DB	07fH
	DB	016H
	DB	0f5H
	DB	041H
	DB	0dfH
	DB	0d2H
	DB	069H
	DB	0d5H
	DB	0dH
	DB	06aH
	DB	05fH
	DB	014H
	DB	0fbH
	DB	0aH
	DB	0abH
	DB	01cH
	DB	0bbH
	DB	04cH
	DB	015H
	DB	050H
	DB	0beH
	DB	097H
	DB	0f7H
	DB	0abH
	DB	040H
	DB	066H
	DB	019H
	DB	03cH
	DB	04cH
	DB	0aaH
	DB	077H
	DB	03dH
	DB	0adH
	DB	038H
	DB	01H
	DB	04bH
	DB	0d2H
	DB	09H
	DB	02fH
	DB	0a7H
	DB	055H
	DB	0c8H
	DB	024H
	DB	0bbH
	DB	05eH
	DB	054H
	DB	0c4H
	DB	0f3H
	DB	06fH
	DB	0fdH
	DB	0a9H
	DB	0fcH
	DB	0eaH
	DB	070H
	DB	0b9H
	DB	0c6H
	DB	0e6H
	DB	093H
	DB	0e1H
	DB	048H
	DB	0c1H
	DB	051H
	DB	027H
	DB	018H
	DB	028H
	DB	018H
	DB	028H
	DB	045H
	DB	090H
	DB	045H
	DB	023H
	DB	053H
	DB	060H
	DB	028H
	DB	074H
	DB	071H
	DB	035H
	DB	026H
	DB	062H
	DB	049H
	DB	077H
	DB	057H
	DB	024H
	DB	070H
	DB	093H
	DB	069H
	DB	099H
	DB	059H
	DB	057H
	DB	049H
	DB	066H
	DB	096H
	DB	076H
	DB	027H
	DB	031H
	DB	041H
	DB	059H
	DB	026H
	DB	053H
	DB	058H
	DB	097H
	DB	093H
	DB	023H
	DB	084H
	DB	062H
	DB	064H
	DB	033H
	DB	083H
	DB	027H
	DB	095H
	DB	02H
	DB	088H
	DB	041H
	DB	097H
	DB	016H
	DB	093H
	DB	099H
	DB	037H
	DB	051H
	DB	05H
	DB	082H
	DB	09H
	DB	074H
	DB	094H
	DB	045H
	DB	092H
	DB	00H
	DB	00H
	DB	00H
	DB	00H
	DB	00H
	DB	00H
	DB	0ffH
	DB	0ffH
	DD	00H
	DB	00H
	DB	01H
	DB	02H
	DB	03H
	DB	04H
	DB	05H
	DB	06H
	DB	07H
	DB	08H
	DB	09H
	DB	0aH
	DB	0bH
	DB	0cH
	DB	0dH
	DB	0eH
	DB	0fH
	DB	010H
	DB	011H
	DB	012H
	DB	013H
	DB	014H
	DB	015H
	DB	016H
	DB	017H
	DB	018H
	DB	019H
	DB	01aH
	DB	01bH
	DB	01cH
	DB	01dH
	DB	01eH
	DB	01fH
	DB	020H
	DB	021H
	DB	022H
	DB	023H
	DB	024H
	DB	025H
	DB	026H
	DB	027H
	DB	028H
	DB	029H
	DB	02aH
	DB	02bH
	DB	02cH
	DB	02dH
	DB	02eH
	DB	02fH
	DB	030H
	DB	031H
	DB	032H
	DB	033H
	DB	034H
	DB	035H
	DB	036H
	DB	037H
	DB	038H
	DB	039H
	DB	03aH
	DB	03bH
	DB	03cH
	DB	03dH
	DB	03eH
	DB	03fH
	DB	040H
	DB	041H
	DB	042H
	DB	043H
	DB	044H
	DB	045H
	DB	046H
	DB	047H
	DB	048H
	DB	049H
	DB	04aH
	DB	04bH
	DB	04cH
	DB	04dH
	DB	04eH
	DB	04fH
	DB	050H
	DB	051H
	DB	052H
	DB	053H
	DB	054H
	DB	055H
	DB	056H
	DB	057H
	DB	058H
	DB	059H
	DB	05aH
	DB	05bH
	DB	05cH
	DB	05dH
	DB	05eH
	DB	05fH
	DB	060H
	DB	061H
	DB	062H
	DB	063H
	DB	064H
	DB	065H
	DB	066H
	DB	067H
	DB	068H
	DB	069H
	DB	06aH
	DB	06bH
	DB	06cH
	DB	06dH
	DB	06eH
	DB	06fH
	DB	070H
	DB	071H
	DB	072H
	DB	073H
	DB	074H
	DB	075H
	DB	076H
	DB	077H
	DB	078H
	DB	079H
	DB	07aH
	DB	07bH
	DB	07cH
	DB	07dH
	DB	07eH
	DB	07fH
	DB	080H
	DB	081H
	DB	082H
	DB	083H
	DB	084H
	DB	085H
	DB	086H
	DB	087H
	DB	088H
	DB	089H
	DB	08aH
	DB	08bH
	DB	08cH
	DB	08dH
	DB	08eH
	DB	08fH
	DB	090H
	DB	091H
	DB	092H
	DB	093H
	DB	094H
	DB	095H
	DB	096H
	DB	097H
	DB	098H
	DB	099H
	DB	09aH
	DB	09bH
	DB	09cH
	DB	09dH
	DB	09eH
	DB	09fH
	DB	0a0H
	DB	0a1H
	DB	0a2H
	DB	0a3H
	DB	0a4H
	DB	0a5H
	DB	0a6H
	DB	0a7H
	DB	0a8H
	DB	0a9H
	DB	0aaH
	DB	0abH
	DB	0acH
	DB	0adH
	DB	0aeH
	DB	0afH
	DB	0b0H
	DB	0b1H
	DB	0b2H
	DB	0b3H
	DB	0b4H
	DB	0b5H
	DB	0b6H
	DB	0b7H
	DB	0b8H
	DB	0b9H
	DB	0baH
	DB	0bbH
	DB	0bcH
	DB	0bdH
	DB	0beH
	DB	0bfH
	DB	0c0H
	DB	0c1H
	DB	0c2H
	DB	0c3H
	DB	0c4H
	DB	0c5H
	DB	0c6H
	DB	0c7H
	DB	0c8H
	DB	0c9H
	DB	0caH
	DB	0cbH
	DB	0ccH
	DB	0cdH
	DB	0ceH
	DB	0cfH
	DB	0d0H
	DB	0d1H
	DB	0d2H
	DB	0d3H
	DB	0d4H
	DB	0d5H
	DB	0d6H
	DB	0d7H
	DB	0d8H
	DB	0d9H
	DB	0daH
	DB	0dbH
	DB	0dcH
	DB	0ddH
	DB	0deH
	DB	0dfH
	DB	0e0H
	DB	0e1H
	DB	0e2H
	DB	0e3H
	DB	0e4H
	DB	0e5H
	DB	0e6H
	DB	0e7H
	DB	0e8H
	DB	0e9H
	DB	0eaH
	DB	0ebH
	DB	0ecH
	DB	0edH
	DB	0eeH
	DB	0efH
	DB	0f0H
	DB	0f1H
	DB	0f2H
	DB	0f3H
	DB	0f4H
	DB	0f5H
	DB	0f6H
	DB	0f7H
	DB	0f8H
	DB	0f9H
	DB	0faH
	DB	0fbH
	DB	0fcH
	DB	0fdH
	DB	0feH
	DB	0ffH
	DB	00H
	DB	01H
	DB	02H
	DB	03H
	DB	04H
	DB	05H
	DB	06H
	DB	07H
	DB	08H
	DB	09H
	DB	0aH
	DB	0bH
	DB	0cH
	DB	0dH
	DB	0eH
	DB	0fH
	DB	010H
	DB	011H
	DB	012H
	DB	013H
	DB	014H
	DB	015H
	DB	016H
	DB	017H
	DB	018H
	DB	019H
	DB	01aH
	DB	01bH
	DB	01cH
	DB	01dH
	DB	01eH
	DB	01fH
	DB	020H
	DB	021H
	DB	022H
	DB	023H
	DB	024H
	DB	025H
	DB	026H
	DB	027H
	DB	028H
	DB	029H
	DB	02aH
	DB	02bH
	DB	02cH
	DB	02dH
	DB	02eH
	DB	02fH
	DB	030H
	DB	031H
	DB	032H
	DB	033H
	DB	034H
	DB	035H
	DB	036H
	DB	037H
	DB	038H
	DB	039H
	DB	03aH
	DB	03bH
	DB	03cH
	DB	03dH
	DB	03eH
	DB	03fH
	DB	040H
	DB	041H
	DB	042H
	DB	043H
	DB	044H
	DB	045H
	DB	046H
	DB	047H
	DB	048H
	DB	049H
	DB	04aH
	DB	04bH
	DB	04cH
	DB	04dH
	DB	04eH
	DB	04fH
	DB	050H
	DB	051H
	DB	052H
	DB	053H
	DB	054H
	DB	055H
	DB	056H
	DB	057H
	DB	058H
	DB	059H
	DB	05aH
	DB	05bH
	DB	05cH
	DB	05dH
	DB	05eH
	DB	05fH
	DB	060H
	DB	061H
	DB	062H
	DB	063H
	DB	064H
	DB	065H
	DB	066H
	DB	067H
	DB	068H
	DB	069H
	DB	06aH
	DB	06bH
	DB	06cH
	DB	06dH
	DB	06eH
	DB	06fH
	DB	070H
	DB	071H
	DB	072H
	DB	073H
	DB	074H
	DB	075H
	DB	076H
	DB	077H
	DB	078H
	DB	079H
	DB	07aH
	DB	07bH
	DB	07cH
	DB	07dH
	DB	07eH
	DB	07fH
	DB	080H
	DB	081H
	DB	082H
	DB	083H
	DB	084H
	DB	085H
	DB	086H
	DB	087H
	DB	088H
	DB	089H
	DB	08aH
	DB	08bH
	DB	08cH
	DB	08dH
	DB	08eH
	DB	08fH
	DB	090H
	DB	091H
	DB	092H
	DB	093H
	DB	094H
	DB	095H
	DB	096H
	DB	097H
	DB	098H
	DB	099H
	DB	09aH
	DB	09bH
	DB	09cH
	DB	09dH
	DB	09eH
	DB	09fH
	DB	0a0H
	DB	0a1H
	DB	0a2H
	DB	0a3H
	DB	0a4H
	DB	0a5H
	DB	0a6H
	DB	0a7H
	DB	0a8H
	DB	0a9H
	DB	0aaH
	DB	0abH
	DB	0acH
	DB	0adH
	DB	0aeH
	DB	0afH
	DB	0b0H
	DB	0b1H
	DB	0b2H
	DB	0b3H
	DB	0b4H
	DB	0b5H
	DB	0b6H
	DB	0b7H
	DB	0b8H
	DB	0b9H
	DB	0baH
	DB	0bbH
	DB	0bcH
	DB	0bdH
	DB	0beH
	DB	0bfH
	DB	0c0H
	DB	0c1H
	DB	0c2H
	DB	0c3H
	DB	0c4H
	DB	0c5H
	DB	0c6H
	DB	0c7H
	DB	0c8H
	DB	0c9H
	DB	0caH
	DB	0cbH
	DB	0ccH
	DB	0cdH
	DB	0ceH
	DB	0cfH
	DB	0d0H
	DB	0d1H
	DB	0d2H
	DB	0d3H
	DB	0d4H
	DB	0d5H
	DB	0d6H
	DB	0d7H
	DB	0d8H
	DB	0d9H
	DB	0daH
	DB	0dbH
	DB	0dcH
	DB	0ddH
	DB	0deH
	DB	0dfH
	DB	0e0H
	DB	0e1H
	DB	0e2H
	DB	0e3H
	DB	0e4H
	DB	0e5H
	DB	0e6H
	DB	0e7H
	DB	0e8H
	DB	0e9H
	DB	0eaH
	DB	0ebH
	DB	0ecH
	DB	0edH
	DB	0eeH
	DB	0efH
	DB	0f0H
	DB	0f1H
	DB	0f2H
	DB	0f3H
	DB	0f4H
	DB	0f5H
	DB	0f6H
	DB	0f7H
	DB	0f8H
	DB	0f9H
	DB	0faH
	DB	0fbH
	DB	0fcH
	DB	0fdH
	DB	0feH
	DB	0ffH
	DB	077H
	DB	0a3H
	DB	012H
	DB	051H
	DB	061H
	DB	08aH
	DB	015H
	DB	0e6H
	DB	0b9H
	DB	02dH
	DB	01dH
	DB	066H
	DB	0dfH
	DB	0feH
	DB	07bH
	DB	050H
	DB	0b5H
	DB	0bH
	DB	0adH
	DB	055H
	DB	023H
	DB	05H
	DB	0baH
	DB	02H
	DB	017H
	DB	0a6H
	DB	010H
	DB	068H
	DB	08eH
	DB	0ffH
	DB	07eH
	DB	011H
	DB	0e1H
	DB	0d0H
	DB	022H
	DB	054H
	DB	038H
	DB	0e0H
	DB	093H
	DB	024H
	DB	02dH
	DB	06dH
	DB	0b2H
	DB	074H
	DB	0fdH
	DB	0e8H
	DB	01H
	DB	0d4H
	DB	0caH
	DB	0e0H
	DB	06fH
	DB	020H
	DB	092H
	DB	0c7H
	DB	028H
	DB	0b2H
	DB	047H
	DB	085H
	DB	059H
	DB	0dfH
	DB	058H
	DB	0e8H
	DB	037H
	DB	0c2H
	DB	046H
	DB	09eH
	DB	0e4H
	DB	0a4H
	DB	0faH
	DB	079H
	DB	04eH
	DB	04bH
	DB	0bcH
	DB	07fH
	DB	039H
	DB	0bcH
	DB	02H
	DB	06eH
	DB	03cH
	DB	0b7H
	DB	02cH
	DB	033H
	DB	0b0H
	DB	088H
	DB	08fH
	DB	025H
	DB	0b4H
	DB	0acH
	DB	0f5H
	DB	06aH
	DB	02aH
	DB	098H
	DB	04H
	DB	0f1H
	DB	0ceH
	DB	06dH
	DB	03dH
	DB	06eH
	DB	01dH
	DB	0c6H
	DB	0caH
	DB	018H
	DB	01dH
	DB	04bH
	DB	054H
	DB	061H
	DB	079H
	DB	0d5H
	DB	055H
	DB	044H
	DB	0aaH
	DB	077H
	DB	060H
	DB	0c4H
	DB	0dH
	DB	06H
	DB	074H
	DB	015H
	DB	039H
	DB	0c7H
	DB	0e3H
	DB	0cdH
	DB	09dH
	DB	02fH
	DB	066H
	DB	050H
	DB	0b2H
	DB	01H
	DB	03fH
	DB	0d0H
	DB	0eeH
	DB	0b8H
	DB	0c2H
	DB	0b8H
	DB	0e3H
	DB	0d8H
	DB	0d2H
	DB	040H
	DB	0ccH
	DB	0aeH
	DB	02dH
	DB	04cH
	DB	098H
	DB	032H
	DB	0aH
	DB	074H
	DB	042H
	DB	0e1H
	DB	0c8H
	DB	0d7H
	DB	05aH
	DB	042H
	DB	0d6H
	DB	0e6H
	DB	0cfH
	DB	0a4H
	DB	0c2H
	DB	0ecH
	DB	0a1H
	DB	079H
	DB	08dH
	DB	015H
	DB	08cH
	DB	07aH
	DB	0ecH
	DB	0dfH
	DB	082H
	DB	049H
	DB	0fH
	DB	024H
	DB	0bbH
	DB	09bH
	DB	038H
	DB	0e1H
	DB	08H
	DB	0bcH
	DB	0daH
	DB	012H
	DB	0c3H
	DB	0faH
	DB	0f9H
	DB	0a2H
	DB	011H
	DB	041H
	DB	0c3H
	DB	061H
	DB	03bH
	DB	058H
	DB	036H
	DB	07fH
	DB	092H
	DB	02aH
	DB	0aaH
	DB	026H
	DB	0cdH
	DB	022H
	DB	0f2H
	DB	03dH
	DB	070H
	DB	08dH
	DB	0aeH
	DB	069H
	DB	09aH
	DB	0d7H
	DB	0cbH
	DB	040H
	DB	0a8H
	DB	0adH
	DB	0bH
	DB	06eH
	DB	027H
	DB	084H
	DB	097H
	DB	03dH
	DB	0cbH
	DB	060H
	DB	056H
	DB	084H
	DB	0c0H
	DB	08bH
	DB	08dH
	DB	069H
	DB	098H
	DB	0c6H
	DB	09aH
	DB	0acH
	DB	04H
	DB	099H
	DB	021H
	DB	087H
	DB	01eH
	DB	0bbH
	DB	065H
	DB	030H
	DB	01aH
	DB	046H
	DB	019H
	DB	0caH
	DB	080H
	DB	0ecH
	DB	0b4H
	DB	085H
	DB	0a3H
	DB	01dH
	DB	074H
	DB	042H
	DB	023H
	DB	0ceH
	DB	08dH
	DB	0dcH
	DB	023H
	DB	094H
	DB	082H
	DB	08dH
	DB	06aH
	DB	080H
	DB	047H
	DB	0cH
	DB	09H
	DB	02fH
	DB	05bH
	DB	0a4H
	DB	013H
	DB	0c3H
	DB	037H
	DB	08fH
	DB	0a6H
	DB	05H
	DB	042H
	DB	055H
	DB	0c6H
	DB	0f9H
	DB	0dfH
	DB	044H
	DB	095H
	DB	086H
	DB	02bH
	DB	0bbH
	DB	032H
	DB	087H
	DB	068H
	DB	01fH
	DB	093H
	DB	01bH
	DB	068H
	DB	07cH
	DB	088H
	DB	08aH
	DB	0bfH
	DB	084H
	DB	04dH
	DB	0fcH
	DB	08fH
	DB	0c2H
	DB	083H
	DB	031H
	DB	0e5H
	DB	079H
	DB	092H
	DB	08cH
	DB	0d1H
	DB	02bH
	DB	0d2H
	DB	039H
	DB	0aH
	DB	0e1H
	DB	023H
	DB	0cfH
	DB	03H
	DB	081H
	DB	08dH
	DB	014H
	DB	0deH
	DB	0ddH
	DB	0e5H
	DB	0c0H
	DB	0c2H
	DB	04cH
	DB	08aH
	DB	0b0H
	DB	018H
	DB	0bfH
	DB	0caH
	DB	075H
	DB	0caH
	DB	09H
	DB	06fH
	DB	02dH
	DB	053H
	DB	01fH
	DB	03dH
	DB	016H
	DB	019H
	DB	0e7H
	DB	085H
	DB	0f1H
	DB	0adH
	DB	0a4H
	DB	037H
	DB	0caH
	DB	0b9H
	DB	02eH
	DB	098H
	DB	05H
	DB	058H
	DB	0b3H
	DB	0dcH
	DB	0e1H
	DB	047H
	DB	04aH
	DB	0fbH
	DB	075H
	DB	0bfH
	DB	0edH
	DB	0bfH
	DB	08fH
	DB	0f5H
	DB	04cH
	DB	0b2H
	DB	061H
	DB	08eH
	DB	02H
	DB	044H
	DB	0c9H
	DB	0acH
	DB	0dH
	DB	03cH
	DB	066H
	DB	0fbH
	DB	051H
	DB	059H
	DB	08cH
	DB	0d2H
	DB	0dbH
	DB	011H
	DB	0f9H
	DB	0beH
	DB	039H
	DB	079H
	DB	01aH
	DB	0beH
	DB	044H
	DB	07cH
	DB	063H
	DB	09H
	DB	04fH
	DB	07cH
	DB	045H
	DB	03bH
	DB	07fH
	DB	0f8H
	DB	07cH
	DB	0b5H
	DB	0bbH
	DB	036H
	DB	0b7H
	DB	0c7H
	DB	09eH
	DB	0fbH
	DB	08H
	DB	072H
	DB	0d1H
	DB	070H
	DB	058H
	DB	0b8H
	DB	03bH
	DB	015H
	DB	0abH
	DB	08H
	DB	066H
	DB	0adH
	DB	08aH
	DB	058H
	DB	065H
	DB	06cH
	DB	05aH
	DB	07eH
	DB	020H
	DB	0dbH
	DB	0dfH
	DB	030H
	DB	08bH
	DB	024H
	DB	061H
	DB	0d9H
	DB	07cH
	DB	0eH
	DB	0c0H
	DB	02H
	DB	04aH
	DB	027H
	DB	015H
	DB	05H
	DB	052H
	DB	049H
	DB	0cfH
	DB	03bH
	DB	047H
	DB	08dH
	DB	0ddH
	DB	047H
	DB	040H
	DB	0deH
	DB	065H
	DB	04fH
	DB	075H
	DB	0caH
	DB	068H
	DB	06eH
	DB	0dH
	DB	073H
	DB	045H
	DB	0c6H
	DB	09eH
	DB	0d5H
	DB	0cH
	DB	0dcH
	DB	02aH
	DB	08bH
	DB	033H
	DB	02bH
	DB	01fH
	DB	088H
	DB	024H
	DB	010H
	DB	08aH
	DB	0c9H
	DB	037H
	DB	0ebH
	DB	05H
	DB	05H
	DB	085H
	DB	060H
	DB	08eH
	DB	0e7H
	DB	034H
	DB	09H
	DB	07fH
	DB	0c0H
	DB	090H
	DB	054H
	DB	0fbH
	DB	0ffH
	DB	089H
	DB	0eeH
	DB	0aeH
	DB	0eaH
	DB	079H
	DB	01fH
	DB	04aH
	DB	07aH
	DB	0b1H
	DB	0f9H
	DB	086H
	DB	082H
	DB	094H
	DB	0a4H
	DB	0f9H
	DB	0e2H
	DB	07bH
	DB	042H
	DB	0afH
	DB	081H
	DB	00H
	DB	0cbH
	DB	09dH
	DB	059H
	DB	0ceH
	DB	0f9H
	DB	064H
	DB	058H
	DB	03H
	DB	027H
	DB	018H
	DB	028H
	DB	018H
	DB	028H
	DB	045H
	DB	090H
	DB	045H
	DB	023H
	DB	053H
	DB	060H
	DB	028H
	DB	074H
	DB	071H
	DB	035H
	DB	026H
	DB	062H
	DB	049H
	DB	077H
	DB	057H
	DB	024H
	DB	070H
	DB	093H
	DB	069H
	DB	099H
	DB	059H
	DB	057H
	DB	049H
	DB	066H
	DB	096H
	DB	076H
	DB	027H
	DB	031H
	DB	041H
	DB	059H
	DB	026H
	DB	053H
	DB	058H
	DB	097H
	DB	093H
	DB	023H
	DB	084H
	DB	062H
	DB	064H
	DB	033H
	DB	083H
	DB	027H
	DB	095H
	DB	02H
	DB	088H
	DB	041H
	DB	097H
	DB	016H
	DB	093H
	DB	099H
	DB	037H
	DB	051H
	DB	05H
	DB	082H
	DB	09H
	DB	074H
	DB	094H
	DB	045H
	DB	092H
	DB	00H
	DB	00H
	DB	00H
	DB	00H
	DB	00H
	DB	0ffH
	DB	0ffH
	DB	0ffH
	DD	00H
	DB	00H
	DB	01H
	DB	02H
	DB	03H
	DB	04H
	DB	05H
	DB	06H
	DB	07H
	DB	08H
	DB	09H
	DB	0aH
	DB	0bH
	DB	0cH
	DB	0dH
	DB	0eH
	DB	0fH
	DB	010H
	DB	011H
	DB	012H
	DB	013H
	DB	014H
	DB	015H
	DB	016H
	DB	017H
	DB	018H
	DB	019H
	DB	01aH
	DB	01bH
	DB	01cH
	DB	01dH
	DB	01eH
	DB	01fH
	DB	020H
	DB	021H
	DB	022H
	DB	023H
	DB	024H
	DB	025H
	DB	026H
	DB	027H
	DB	028H
	DB	029H
	DB	02aH
	DB	02bH
	DB	02cH
	DB	02dH
	DB	02eH
	DB	02fH
	DB	030H
	DB	031H
	DB	032H
	DB	033H
	DB	034H
	DB	035H
	DB	036H
	DB	037H
	DB	038H
	DB	039H
	DB	03aH
	DB	03bH
	DB	03cH
	DB	03dH
	DB	03eH
	DB	03fH
	DB	040H
	DB	041H
	DB	042H
	DB	043H
	DB	044H
	DB	045H
	DB	046H
	DB	047H
	DB	048H
	DB	049H
	DB	04aH
	DB	04bH
	DB	04cH
	DB	04dH
	DB	04eH
	DB	04fH
	DB	050H
	DB	051H
	DB	052H
	DB	053H
	DB	054H
	DB	055H
	DB	056H
	DB	057H
	DB	058H
	DB	059H
	DB	05aH
	DB	05bH
	DB	05cH
	DB	05dH
	DB	05eH
	DB	05fH
	DB	060H
	DB	061H
	DB	062H
	DB	063H
	DB	064H
	DB	065H
	DB	066H
	DB	067H
	DB	068H
	DB	069H
	DB	06aH
	DB	06bH
	DB	06cH
	DB	06dH
	DB	06eH
	DB	06fH
	DB	070H
	DB	071H
	DB	072H
	DB	073H
	DB	074H
	DB	075H
	DB	076H
	DB	077H
	DB	078H
	DB	079H
	DB	07aH
	DB	07bH
	DB	07cH
	DB	07dH
	DB	07eH
	DB	07fH
	DB	080H
	DB	081H
	DB	082H
	DB	083H
	DB	084H
	DB	085H
	DB	086H
	DB	087H
	DB	088H
	DB	089H
	DB	08aH
	DB	08bH
	DB	08cH
	DB	08dH
	DB	08eH
	DB	08fH
	DB	090H
	DB	091H
	DB	092H
	DB	093H
	DB	094H
	DB	095H
	DB	096H
	DB	097H
	DB	098H
	DB	099H
	DB	09aH
	DB	09bH
	DB	09cH
	DB	09dH
	DB	09eH
	DB	09fH
	DB	0a0H
	DB	0a1H
	DB	0a2H
	DB	0a3H
	DB	0a4H
	DB	0a5H
	DB	0a6H
	DB	0a7H
	DB	0a8H
	DB	0a9H
	DB	0aaH
	DB	0abH
	DB	0acH
	DB	0adH
	DB	0aeH
	DB	0afH
	DB	0b0H
	DB	0b1H
	DB	0b2H
	DB	0b3H
	DB	0b4H
	DB	0b5H
	DB	0b6H
	DB	0b7H
	DB	0b8H
	DB	0b9H
	DB	0baH
	DB	0bbH
	DB	0bcH
	DB	0bdH
	DB	0beH
	DB	0bfH
	DB	0c0H
	DB	0c1H
	DB	0c2H
	DB	0c3H
	DB	0c4H
	DB	0c5H
	DB	0c6H
	DB	0c7H
	DB	0c8H
	DB	0c9H
	DB	0caH
	DB	0cbH
	DB	0ccH
	DB	0cdH
	DB	0ceH
	DB	0cfH
	DB	0d0H
	DB	0d1H
	DB	0d2H
	DB	0d3H
	DB	0d4H
	DB	0d5H
	DB	0d6H
	DB	0d7H
	DB	0d8H
	DB	0d9H
	DB	0daH
	DB	0dbH
	DB	0dcH
	DB	0ddH
	DB	0deH
	DB	0dfH
	DB	0e0H
	DB	0e1H
	DB	0e2H
	DB	0e3H
	DB	0e4H
	DB	0e5H
	DB	0e6H
	DB	0e7H
	DB	0e8H
	DB	0e9H
	DB	0eaH
	DB	0ebH
	DB	0ecH
	DB	0edH
	DB	0eeH
	DB	0efH
	DB	0f0H
	DB	0f1H
	DB	0f2H
	DB	0f3H
	DB	0f4H
	DB	0f5H
	DB	0f6H
	DB	0f7H
	DB	0f8H
	DB	0f9H
	DB	0faH
	DB	0fbH
	DB	0fcH
	DB	0fdH
	DB	0feH
	DB	0ffH
	DB	00H
	DB	01H
	DB	02H
	DB	03H
	DB	04H
	DB	05H
	DB	06H
	DB	07H
	DB	08H
	DB	09H
	DB	0aH
	DB	0bH
	DB	0cH
	DB	0dH
	DB	0eH
	DB	0fH
	DB	010H
	DB	011H
	DB	012H
	DB	013H
	DB	014H
	DB	015H
	DB	016H
	DB	017H
	DB	018H
	DB	019H
	DB	01aH
	DB	01bH
	DB	01cH
	DB	01dH
	DB	01eH
	DB	01fH
	DB	020H
	DB	021H
	DB	022H
	DB	023H
	DB	024H
	DB	025H
	DB	026H
	DB	027H
	DB	028H
	DB	029H
	DB	02aH
	DB	02bH
	DB	02cH
	DB	02dH
	DB	02eH
	DB	02fH
	DB	030H
	DB	031H
	DB	032H
	DB	033H
	DB	034H
	DB	035H
	DB	036H
	DB	037H
	DB	038H
	DB	039H
	DB	03aH
	DB	03bH
	DB	03cH
	DB	03dH
	DB	03eH
	DB	03fH
	DB	040H
	DB	041H
	DB	042H
	DB	043H
	DB	044H
	DB	045H
	DB	046H
	DB	047H
	DB	048H
	DB	049H
	DB	04aH
	DB	04bH
	DB	04cH
	DB	04dH
	DB	04eH
	DB	04fH
	DB	050H
	DB	051H
	DB	052H
	DB	053H
	DB	054H
	DB	055H
	DB	056H
	DB	057H
	DB	058H
	DB	059H
	DB	05aH
	DB	05bH
	DB	05cH
	DB	05dH
	DB	05eH
	DB	05fH
	DB	060H
	DB	061H
	DB	062H
	DB	063H
	DB	064H
	DB	065H
	DB	066H
	DB	067H
	DB	068H
	DB	069H
	DB	06aH
	DB	06bH
	DB	06cH
	DB	06dH
	DB	06eH
	DB	06fH
	DB	070H
	DB	071H
	DB	072H
	DB	073H
	DB	074H
	DB	075H
	DB	076H
	DB	077H
	DB	078H
	DB	079H
	DB	07aH
	DB	07bH
	DB	07cH
	DB	07dH
	DB	07eH
	DB	07fH
	DB	080H
	DB	081H
	DB	082H
	DB	083H
	DB	084H
	DB	085H
	DB	086H
	DB	087H
	DB	088H
	DB	089H
	DB	08aH
	DB	08bH
	DB	08cH
	DB	08dH
	DB	08eH
	DB	08fH
	DB	090H
	DB	091H
	DB	092H
	DB	093H
	DB	094H
	DB	095H
	DB	096H
	DB	097H
	DB	098H
	DB	099H
	DB	09aH
	DB	09bH
	DB	09cH
	DB	09dH
	DB	09eH
	DB	09fH
	DB	0a0H
	DB	0a1H
	DB	0a2H
	DB	0a3H
	DB	0a4H
	DB	0a5H
	DB	0a6H
	DB	0a7H
	DB	0a8H
	DB	0a9H
	DB	0aaH
	DB	0abH
	DB	0acH
	DB	0adH
	DB	0aeH
	DB	0afH
	DB	0b0H
	DB	0b1H
	DB	0b2H
	DB	0b3H
	DB	0b4H
	DB	0b5H
	DB	0b6H
	DB	0b7H
	DB	0b8H
	DB	0b9H
	DB	0baH
	DB	0bbH
	DB	0bcH
	DB	0bdH
	DB	0beH
	DB	0bfH
	DB	0c0H
	DB	0c1H
	DB	0c2H
	DB	0c3H
	DB	0c4H
	DB	0c5H
	DB	0c6H
	DB	0c7H
	DB	0c8H
	DB	0c9H
	DB	0caH
	DB	0cbH
	DB	0ccH
	DB	0cdH
	DB	0ceH
	DB	0cfH
	DB	0d0H
	DB	0d1H
	DB	0d2H
	DB	0d3H
	DB	0d4H
	DB	0d5H
	DB	0d6H
	DB	0d7H
	DB	0d8H
	DB	0d9H
	DB	0daH
	DB	0dbH
	DB	0dcH
	DB	0ddH
	DB	0deH
	DB	0dfH
	DB	0e0H
	DB	0e1H
	DB	0e2H
	DB	0e3H
	DB	0e4H
	DB	0e5H
	DB	0e6H
	DB	0e7H
	DB	0e8H
	DB	0e9H
	DB	0eaH
	DB	0ebH
	DB	0ecH
	DB	0edH
	DB	0eeH
	DB	0efH
	DB	0f0H
	DB	0f1H
	DB	0f2H
	DB	0f3H
	DB	0f4H
	DB	0f5H
	DB	0f6H
	DB	0f7H
	DB	0f8H
	DB	0f9H
	DB	0faH
	DB	0fbH
	DB	0fcH
	DB	0fdH
	DB	0feH
	DB	0ffH
	DB	0e3H
	DB	087H
	DB	0aaH
	DB	0a5H
	DB	08bH
	DB	0a4H
	DB	083H
	DB	0afH
	DB	0a7H
	DB	0e8H
	DB	0ebH
	DB	046H
	DB	097H
	DB	078H
	DB	031H
	DB	07eH
	DB	0cfH
	DB	04cH
	DB	0f5H
	DB	073H
	DB	0aaH
	DB	09dH
	DB	04eH
	DB	0acH
	DB	023H
	DB	0f2H
	DB	0cdH
	DB	0f9H
	DB	014H
	DB	0e4H
	DB	0e2H
	DB	00H
	DB	0a8H
	DB	0b4H
	DB	090H
	DB	0e4H
	DB	02eH
	DB	0e6H
	DB	046H
	DB	080H
	DB	02dH
	DB	0c6H
	DB	0eeH
	DB	02bH
	DB	047H
	DB	01bH
	DB	027H
	DB	081H
	DB	095H
	DB	0d6H
	DB	09H
	DB	018H
	DB	0ecH
	DB	0ecH
	DB	0b4H
	DB	04bH
	DB	0f7H
	DB	099H
	DB	066H
	DB	0f8H
	DB	03fH
	DB	0abH
	DB	0a0H
	DB	049H
	DB	092H
	DB	098H
	DB	0ebH
	DB	0c6H
	DB	099H
	DB	0c0H
	DB	0c8H
	DB	063H
	DB	047H
	DB	015H
	DB	0a3H
	DB	020H
	DB	0bbH
	DB	04fH
	DB	07H
	DB	05dH
	DB	062H
	DB	02eH
	DB	074H
	DB	0c8H
	DB	0c9H
	DB	032H
	DB	00H
	DB	04fH
	DB	025H
	DB	0b4H
	DB	01eH
	DB	036H
	DB	010H
	DB	025H
	DB	0b5H
	DB	0a8H
	DB	078H
	DB	015H
	DB	039H
	DB	01fH
	DB	061H
	DB	08H
	DB	0fcH
	DB	04aH
	DB	0faH
	DB	06aH
	DB	05H
	DB	0d9H
	DB	030H
	DB	03cH
	DB	06bH
	DB	0a6H
	DB	08aH
	DB	012H
	DB	08aH
	DB	055H
	DB	070H
	DB	05dH
	DB	041H
	DB	059H
	DB	085H
	DB	083H
	DB	02fH
	DB	0deH
	DB	0aaH
	DB	0e6H
	DB	0c8H
	DB	0e1H
	DB	091H
	DB	010H
	DB	0e8H
	DB	04dH
	DB	01bH
	DB	01fH
	DB	019H
	DB	09aH
	DB	026H
	DB	092H
	DB	011H
	DB	09eH
	DB	0dcH
	DB	096H
	DB	013H
	DB	026H
	DB	058H
	DB	0f0H
	DB	09dH
	DB	0a7H
	DB	0c6H
	DB	023H
	DB	0efH
	DB	0ceH
	DB	0c7H
	DB	012H
	DB	053H
	DB	07aH
	DB	03dH
	DB	094H
	DB	0c0H
	DB	0bfH
	DB	05dH
	DB	07eH
	DB	035H
	DB	02eH
	DB	0c9H
	DB	04aH
	DB	0e5H
	DB	079H
	DB	07fH
	DB	0dbH
	DB	037H
	DB	07dH
	DB	0c1H
	DB	055H
	DB	011H
	DB	050H
	DB	072H
	DB	01aH
	DB	0dfH
	DB	015H
	DB	0bdH
	DB	026H
	DB	0a8H
	DB	0efH
	DB	0c2H
	DB	0fcH
	DB	0aaH
	DB	0d5H
	DB	068H
	DB	081H
	DB	0faH
	DB	09eH
	DB	062H
	DB	046H
	DB	02cH
	DB	028H
	DB	0f3H
	DB	0aH
	DB	0e1H
	DB	0ceH
	DB	0acH
	DB	0a9H
	DB	03cH
	DB	034H
	DB	05cH
	DB	0f2H
	DB	043H
	DB	0b7H
	DB	03fH
	DB	054H
	DB	02eH
	DB	020H
	DB	074H
	DB	0a7H
	DB	05H
	DB	0bdH
	DB	026H
	DB	043H
	DB	0bbH
	DB	09fH
	DB	07cH
	DB	0c7H
	DB	09bH
	DB	0b6H
	DB	0e7H
	DB	09H
	DB	01eH
	DB	0a6H
	DB	0e2H
	DB	032H
	DB	0dfH
	DB	0fH
	DB	09aH
	DB	0d0H
	DB	0d6H
	DB	0cfH
	DB	050H
	DB	023H
	DB	027H
	DB	087H
	DB	06dH
	DB	082H
	DB	020H
	DB	07aH
	DB	0bfH
	DB	021H
	DB	015H
	DB	0cdH
	DB	0acH
	DB	0f6H
	DB	0d5H
	DB	0a4H
	DB	08fH
	DB	06cH
	DB	018H
	DB	079H
	DB	0a6H
	DB	05bH
	DB	011H
	DB	05fH
	DB	0fH
	DB	08bH
	DB	03cH
	DB	0b3H
	DB	0c5H
	DB	09dH
	DB	015H
	DB	0ddH
	DB	08cH
	DB	076H
	DB	09bH
	DB	0c0H
	DB	014H
	DB	079H
	DB	05aH
	DB	018H
	DB	037H
	DB	0f3H
	DB	090H
	DB	01bH
	DB	058H
	DB	045H
	DB	0ebH
	DB	049H
	DB	01aH
	DB	0dfH
	DB	0efH
	DB	0e0H
	DB	097H
	DB	0b1H
	DB	0faH
	DB	030H
	DB	0a1H
	DB	02fH
	DB	0c1H
	DB	0f6H
	DB	05bH
	DB	0a2H
	DB	029H
	DB	05H
	DB	03H
	DB	015H
	DB	039H
	DB	097H
	DB	01aH
	DB	010H
	DB	0f2H
	DB	0f3H
	DB	06cH
	DB	032H
	DB	01bH
	DB	0b5H
	DB	013H
	DB	031H
	DB	0cdH
	DB	0efH
	DB	0b3H
	DB	09eH
	DB	039H
	DB	064H
	DB	0c7H
	DB	0efH
	DB	07H
	DB	099H
	DB	094H
	DB	0f5H
	DB	0b6H
	DB	09bH
	DB	02eH
	DB	0ddH
	DB	083H
	DB	0a7H
	DB	01eH
	DB	0f5H
	DB	049H
	DB	097H
	DB	01eH
	DB	0e9H
	DB	03fH
	DB	044H
	DB	0eaH
	DB	0c3H
	DB	093H
	DB	08fH
	DB	0cdH
	DB	0d6H
	DB	01dH
	DB	01H
	DB	0faH
	DB	071H
	DB	079H
	DB	09dH
	DB	0a3H
	DB	0a8H
	DB	09H
	DB	01cH
	DB	04cH
	DB	048H
	DB	0aaH
	DB	09eH
	DB	0d2H
	DB	063H
	DB	0ffH
	DB	07H
	DB	049H
	DB	0dfH
	DB	095H
	DB	0d4H
	DB	04fH
	DB	0efH
	DB	06aH
	DB	0bH
	DB	0b5H
	DB	078H
	DB	0ecH
	DB	069H
	DB	045H
	DB	06aH
	DB	0a5H
	DB	040H
	DB	08aH
	DB	0e3H
	DB	02cH
	DB	07aH
	DB	0f0H
	DB	08aH
	DB	0d7H
	DB	0baH
	DB	089H
	DB	021H
	DB	028H
	DB	07eH
	DB	03bH
	DB	0beH
	DB	0e3H
	DB	01bH
	DB	076H
	DB	07bH
	DB	0e0H
	DB	06aH
	DB	0eH
	DB	070H
	DB	05cH
	DB	086H
	DB	04aH
	DB	076H
	DB	091H
	DB	037H
	DB	0dfH
	DB	028H
	DB	029H
	DB	022H
	DB	083H
	DB	0eaH
	DB	081H
	DB	0a2H
	DB	048H
	DB	02H
	DB	041H
	DB	0b4H
	DB	04dH
	DB	099H
	DB	021H
	DB	0cdH
	DB	0beH
	DB	0c1H
	DB	0bcH
	DB	028H
	DB	0dcH
	DB	01fH
	DB	0daH
	DB	011H
	DB	04bH
	DB	0d8H
	DB	0e5H
	DB	021H
	DB	07aH
	DB	0c9H
	DB	0d8H
	DB	0ebH
	DB	0afH
	DB	0a7H
	DB	020H
	DB	0e9H
	DB	0daH
	DB	04fH
	DB	09aH
	DB	0ceH
	DB	023H
	DB	01cH
	DB	0c9H
	DB	049H
	DB	0e5H
	DB	0b9H
	DB	06fH
	DB	0e7H
	DB	06fH
	DB	0fcH
	DB	021H
	DB	06H
	DB	03fH
	DB	0ddH
	DB	0c8H
	DB	03aH
	DB	06bH
	DB	086H
	DB	079H
	DB	0c0H
	DB	0dH
	DB	035H
	DB	0e0H
	DB	095H
	DB	076H
	DB	0a8H
	DB	075H
	DB	030H
	DB	05bH
	DB	0edH
	DB	05fH
	DB	036H
	DB	0edH
	DB	024H
	DB	02cH
	DB	089H
	DB	00H
	DB	0ddH
	DB	01fH
	DB	0a9H
	DB	065H
	DB	0bcH
	DB	095H
	DB	0dH
	DB	0fcH
	DB	0e0H
	DB	09bH
	DB	013H
	DB	022H
	DB	063H
	DB	0a1H
	DB	0eeH
	DB	0f5H
	DB	02dH
	DB	0d6H
	DB	088H
	DB	08cH
	DB	030H
	DB	09fH
	DB	05aH
	DB	07dH
	DB	071H
	DB	028H
	DB	026H
	DB	027H
	DB	018H
	DB	028H
	DB	018H
	DB	028H
	DB	045H
	DB	090H
	DB	045H
	DB	023H
	DB	053H
	DB	060H
	DB	028H
	DB	074H
	DB	071H
	DB	035H
	DB	026H
	DB	062H
	DB	049H
	DB	077H
	DB	057H
	DB	024H
	DB	070H
	DB	093H
	DB	069H
	DB	099H
	DB	059H
	DB	057H
	DB	049H
	DB	066H
	DB	096H
	DB	076H
	DB	027H
	DB	031H
	DB	041H
	DB	059H
	DB	026H
	DB	053H
	DB	058H
	DB	097H
	DB	093H
	DB	023H
	DB	084H
	DB	062H
	DB	064H
	DB	033H
	DB	083H
	DB	027H
	DB	095H
	DB	02H
	DB	088H
	DB	041H
	DB	097H
	DB	016H
	DB	093H
	DB	099H
	DB	037H
	DB	051H
	DB	05H
	DB	082H
	DB	09H
	DB	074H
	DB	094H
	DB	045H
	DB	092H
	DB	00H
	DB	00H
	DB	00H
	DB	00H
	DB	0ffH
	DB	0ffH
	DB	0ffH
	DB	0ffH
	DD	00H
	DB	00H
	DB	01H
	DB	02H
	DB	03H
	DB	04H
	DB	05H
	DB	06H
	DB	07H
	DB	08H
	DB	09H
	DB	0aH
	DB	0bH
	DB	0cH
	DB	0dH
	DB	0eH
	DB	0fH
	DB	010H
	DB	011H
	DB	012H
	DB	013H
	DB	014H
	DB	015H
	DB	016H
	DB	017H
	DB	018H
	DB	019H
	DB	01aH
	DB	01bH
	DB	01cH
	DB	01dH
	DB	01eH
	DB	01fH
	DB	020H
	DB	021H
	DB	022H
	DB	023H
	DB	024H
	DB	025H
	DB	026H
	DB	027H
	DB	028H
	DB	029H
	DB	02aH
	DB	02bH
	DB	02cH
	DB	02dH
	DB	02eH
	DB	02fH
	DB	030H
	DB	031H
	DB	032H
	DB	033H
	DB	034H
	DB	035H
	DB	036H
	DB	037H
	DB	038H
	DB	039H
	DB	03aH
	DB	03bH
	DB	03cH
	DB	03dH
	DB	03eH
	DB	03fH
	DB	040H
	DB	041H
	DB	042H
	DB	043H
	DB	044H
	DB	045H
	DB	046H
	DB	047H
	DB	048H
	DB	049H
	DB	04aH
	DB	04bH
	DB	04cH
	DB	04dH
	DB	04eH
	DB	04fH
	DB	050H
	DB	051H
	DB	052H
	DB	053H
	DB	054H
	DB	055H
	DB	056H
	DB	057H
	DB	058H
	DB	059H
	DB	05aH
	DB	05bH
	DB	05cH
	DB	05dH
	DB	05eH
	DB	05fH
	DB	060H
	DB	061H
	DB	062H
	DB	063H
	DB	064H
	DB	065H
	DB	066H
	DB	067H
	DB	068H
	DB	069H
	DB	06aH
	DB	06bH
	DB	06cH
	DB	06dH
	DB	06eH
	DB	06fH
	DB	070H
	DB	071H
	DB	072H
	DB	073H
	DB	074H
	DB	075H
	DB	076H
	DB	077H
	DB	078H
	DB	079H
	DB	07aH
	DB	07bH
	DB	07cH
	DB	07dH
	DB	07eH
	DB	07fH
	DB	080H
	DB	081H
	DB	082H
	DB	083H
	DB	084H
	DB	085H
	DB	086H
	DB	087H
	DB	088H
	DB	089H
	DB	08aH
	DB	08bH
	DB	08cH
	DB	08dH
	DB	08eH
	DB	08fH
	DB	090H
	DB	091H
	DB	092H
	DB	093H
	DB	094H
	DB	095H
	DB	096H
	DB	097H
	DB	098H
	DB	099H
	DB	09aH
	DB	09bH
	DB	09cH
	DB	09dH
	DB	09eH
	DB	09fH
	DB	0a0H
	DB	0a1H
	DB	0a2H
	DB	0a3H
	DB	0a4H
	DB	0a5H
	DB	0a6H
	DB	0a7H
	DB	0a8H
	DB	0a9H
	DB	0aaH
	DB	0abH
	DB	0acH
	DB	0adH
	DB	0aeH
	DB	0afH
	DB	0b0H
	DB	0b1H
	DB	0b2H
	DB	0b3H
	DB	0b4H
	DB	0b5H
	DB	0b6H
	DB	0b7H
	DB	0b8H
	DB	0b9H
	DB	0baH
	DB	0bbH
	DB	0bcH
	DB	0bdH
	DB	0beH
	DB	0bfH
	DB	0c0H
	DB	0c1H
	DB	0c2H
	DB	0c3H
	DB	0c4H
	DB	0c5H
	DB	0c6H
	DB	0c7H
	DB	0c8H
	DB	0c9H
	DB	0caH
	DB	0cbH
	DB	0ccH
	DB	0cdH
	DB	0ceH
	DB	0cfH
	DB	0d0H
	DB	0d1H
	DB	0d2H
	DB	0d3H
	DB	0d4H
	DB	0d5H
	DB	0d6H
	DB	0d7H
	DB	0d8H
	DB	0d9H
	DB	0daH
	DB	0dbH
	DB	0dcH
	DB	0ddH
	DB	0deH
	DB	0dfH
	DB	0e0H
	DB	0e1H
	DB	0e2H
	DB	0e3H
	DB	0e4H
	DB	0e5H
	DB	0e6H
	DB	0e7H
	DB	0e8H
	DB	0e9H
	DB	0eaH
	DB	0ebH
	DB	0ecH
	DB	0edH
	DB	0eeH
	DB	0efH
	DB	0f0H
	DB	0f1H
	DB	0f2H
	DB	0f3H
	DB	0f4H
	DB	0f5H
	DB	0f6H
	DB	0f7H
	DB	0f8H
	DB	0f9H
	DB	0faH
	DB	0fbH
	DB	0fcH
	DB	0fdH
	DB	0feH
	DB	0ffH
	DB	00H
	DB	01H
	DB	02H
	DB	03H
	DB	04H
	DB	05H
	DB	06H
	DB	07H
	DB	08H
	DB	09H
	DB	0aH
	DB	0bH
	DB	0cH
	DB	0dH
	DB	0eH
	DB	0fH
	DB	010H
	DB	011H
	DB	012H
	DB	013H
	DB	014H
	DB	015H
	DB	016H
	DB	017H
	DB	018H
	DB	019H
	DB	01aH
	DB	01bH
	DB	01cH
	DB	01dH
	DB	01eH
	DB	01fH
	DB	020H
	DB	021H
	DB	022H
	DB	023H
	DB	024H
	DB	025H
	DB	026H
	DB	027H
	DB	028H
	DB	029H
	DB	02aH
	DB	02bH
	DB	02cH
	DB	02dH
	DB	02eH
	DB	02fH
	DB	030H
	DB	031H
	DB	032H
	DB	033H
	DB	034H
	DB	035H
	DB	036H
	DB	037H
	DB	038H
	DB	039H
	DB	03aH
	DB	03bH
	DB	03cH
	DB	03dH
	DB	03eH
	DB	03fH
	DB	040H
	DB	041H
	DB	042H
	DB	043H
	DB	044H
	DB	045H
	DB	046H
	DB	047H
	DB	048H
	DB	049H
	DB	04aH
	DB	04bH
	DB	04cH
	DB	04dH
	DB	04eH
	DB	04fH
	DB	050H
	DB	051H
	DB	052H
	DB	053H
	DB	054H
	DB	055H
	DB	056H
	DB	057H
	DB	058H
	DB	059H
	DB	05aH
	DB	05bH
	DB	05cH
	DB	05dH
	DB	05eH
	DB	05fH
	DB	060H
	DB	061H
	DB	062H
	DB	063H
	DB	064H
	DB	065H
	DB	066H
	DB	067H
	DB	068H
	DB	069H
	DB	06aH
	DB	06bH
	DB	06cH
	DB	06dH
	DB	06eH
	DB	06fH
	DB	070H
	DB	071H
	DB	072H
	DB	073H
	DB	074H
	DB	075H
	DB	076H
	DB	077H
	DB	078H
	DB	079H
	DB	07aH
	DB	07bH
	DB	07cH
	DB	07dH
	DB	07eH
	DB	07fH
	DB	080H
	DB	081H
	DB	082H
	DB	083H
	DB	084H
	DB	085H
	DB	086H
	DB	087H
	DB	088H
	DB	089H
	DB	08aH
	DB	08bH
	DB	08cH
	DB	08dH
	DB	08eH
	DB	08fH
	DB	090H
	DB	091H
	DB	092H
	DB	093H
	DB	094H
	DB	095H
	DB	096H
	DB	097H
	DB	098H
	DB	099H
	DB	09aH
	DB	09bH
	DB	09cH
	DB	09dH
	DB	09eH
	DB	09fH
	DB	0a0H
	DB	0a1H
	DB	0a2H
	DB	0a3H
	DB	0a4H
	DB	0a5H
	DB	0a6H
	DB	0a7H
	DB	0a8H
	DB	0a9H
	DB	0aaH
	DB	0abH
	DB	0acH
	DB	0adH
	DB	0aeH
	DB	0afH
	DB	0b0H
	DB	0b1H
	DB	0b2H
	DB	0b3H
	DB	0b4H
	DB	0b5H
	DB	0b6H
	DB	0b7H
	DB	0b8H
	DB	0b9H
	DB	0baH
	DB	0bbH
	DB	0bcH
	DB	0bdH
	DB	0beH
	DB	0bfH
	DB	0c0H
	DB	0c1H
	DB	0c2H
	DB	0c3H
	DB	0c4H
	DB	0c5H
	DB	0c6H
	DB	0c7H
	DB	0c8H
	DB	0c9H
	DB	0caH
	DB	0cbH
	DB	0ccH
	DB	0cdH
	DB	0ceH
	DB	0cfH
	DB	0d0H
	DB	0d1H
	DB	0d2H
	DB	0d3H
	DB	0d4H
	DB	0d5H
	DB	0d6H
	DB	0d7H
	DB	0d8H
	DB	0d9H
	DB	0daH
	DB	0dbH
	DB	0dcH
	DB	0ddH
	DB	0deH
	DB	0dfH
	DB	0e0H
	DB	0e1H
	DB	0e2H
	DB	0e3H
	DB	0e4H
	DB	0e5H
	DB	0e6H
	DB	0e7H
	DB	0e8H
	DB	0e9H
	DB	0eaH
	DB	0ebH
	DB	0ecH
	DB	0edH
	DB	0eeH
	DB	0efH
	DB	0f0H
	DB	0f1H
	DB	0f2H
	DB	0f3H
	DB	0f4H
	DB	0f5H
	DB	0f6H
	DB	0f7H
	DB	0f8H
	DB	0f9H
	DB	0faH
	DB	0fbH
	DB	0fcH
	DB	0fdH
	DB	0feH
	DB	0ffH
	DB	0bfH
	DB	053H
	DB	0d2H
	DB	0daH
	DB	0deH
	DB	078H
	DB	0e8H
	DB	022H
	DB	0a4H
	DB	0d9H
	DB	049H
	DB	0a9H
	DB	0bcH
	DB	067H
	DB	066H
	DB	0b0H
	DB	01bH
	DB	06H
	DB	0a8H
	DB	0efH
	DB	070H
	DB	0d2H
	DB	067H
	DB	048H
	DB	0c6H
	DB	0a7H
	DB	0fcH
	DB	036H
	DB	0d8H
	DB	0aH
	DB	0e4H
	DB	0c5H
	DB	052H
	DB	0fH
	DB	07cH
	DB	04aH
	DB	0b0H
	DB	0acH
	DB	085H
	DB	044H
	DB	042H
	DB	04fH
	DB	0a4H
	DB	05H
	DB	016H
	DB	02fH
	DB	0efH
	DB	05aH
	DB	06bH
	DB	07fH
	DB	022H
	DB	094H
	DB	098H
	DB	06H
	DB	036H
	DB	018H
	DB	0d3H
	DB	09fH
	DB	00H
	DB	03H
	DB	0cbH
	DB	05fH
	DB	0b8H
	DB	0d1H
	DB	0c8H
	DB	06bH
	DB	064H
	DB	034H
	DB	097H
	DB	0daH
	DB	01fH
	DB	0f9H
	DB	045H
	DB	0c8H
	DB	0d3H
	DB	0beH
	DB	0deH
	DB	0caH
	DB	04fH
	DB	047H
	DB	097H
	DB	02H
	DB	0a7H
	DB	0a7H
	DB	035H
	DB	0f0H
	DB	043H
	DB	0ddH
	DB	0b1H
	DB	0d6H
	DB	0aaH
	DB	0adH
	DB	0e3H
	DB	0c4H
	DB	0a0H
	DB	0acH
	DB	07cH
	DB	0a7H
	DB	0f3H
	DB	0faH
	DB	052H
	DB	079H
	DB	0beH
	DB	0f5H
	DB	06fH
	DB	082H
	DB	0cdH
	DB	07aH
	DB	02fH
	DB	038H
	DB	067H
	DB	02eH
	DB	082H
	DB	048H
	DB	014H
	DB	0e1H
	DB	07H
	DB	00H
	DB	030H
	DB	0aH
	DB	05H
	DB	05eH
	DB	016H
	DB	030H
	DB	0b8H
	DB	0f1H
	DB	0cbH
	DB	0eH
	DB	091H
	DB	09fH
	DB	05eH
	DB	094H
	DB	020H
	DB	010H
	DB	0a4H
	DB	016H
	DB	0e2H
	DB	0bfH
	DB	048H
	DB	0cbH
	DB	046H
	DB	099H
	DB	03dH
	DB	03cH
	DB	0b6H
	DB	0a5H
	DB	01cH
	DB	019H
	DB	0baH
	DB	0cfH
	DB	086H
	DB	047H
	DB	085H
	DB	0a0H
	DB	0bH
	DB	0c2H
	DB	0ecH
	DB	0ffH
	DB	015H
	DB	0d3H
	DB	050H
	DB	087H
	DB	05bH
	DB	024H
	DB	06eH
	DB	0d5H
	DB	03eH
	DB	068H
	DB	0beH
	DB	06fH
	DB	055H
	DB	0bdH
	DB	07eH
	DB	05H
	DB	0cfH
	DB	0c2H
	DB	0b2H
	DB	0edH
	DB	064H
	DB	032H
	DB	019H
	DB	08aH
	DB	064H
	DB	044H
	DB	0b6H
	DB	0d8H
	DB	0c2H
	DB	047H
	DB	0faH
	DB	0b9H
	DB	041H
	DB	0f5H
	DB	069H
	DB	076H
	DB	08bH
	DB	05cH
	DB	042H
	DB	093H
	DB	066H
	DB	0f1H
	DB	0d3H
	DB	0f0H
	DB	0fH
	DB	03H
	DB	045H
	DB	0b9H
	DB	061H
	DB	023H
	DB	0d5H
	DB	062H
	DB	04H
	DB	0c0H
	DB	01cH
	DB	063H
	DB	0b2H
	DB	02cH
	DB	0e7H
	DB	08bH
	DB	0afH
	DB	011H
	DB	06eH
	DB	052H
	DB	05eH
	DB	0d9H
	DB	0fH
	DB	0deH
	DB	0a3H
	DB	09fH
	DB	0a4H
	DB	069H
	DB	049H
	DB	04dH
	DB	038H
	DB	066H
	DB	0c3H
	DB	01eH
	DB	05H
	DB	0f2H
	DB	095H
	DB	0ffH
	DB	021H
	DB	0feH
	DB	0a8H
	DB	0d4H
	DB	0e6H
	DB	0e1H
	DB	03dH
	DB	067H
	DB	0e4H
	DB	07cH
	DB	0e7H
	DB	022H
	DB	0e9H
	DB	069H
	DB	08aH
	DB	01cH
	DB	010H
	DB	048H
	DB	0d6H
	DB	08eH
	DB	0bcH
	DB	0deH
	DB	076H
	DB	0b8H
	DB	06fH
	DB	0cfH
	DB	097H
	DB	06eH
	DB	0abH
	DB	08aH
	DB	0a9H
	DB	079H
	DB	02H
	DB	068H
	DB	0b7H
	DB	06H
	DB	08eH
	DB	01H
	DB	07aH
	DB	08bH
	DB	09bH
	DB	074H
	DB	094H
	DB	09H
	DB	051H
	DB	04fH
	DB	010H
	DB	053H
	DB	02H
	DB	07fH
	DB	0d1H
	DB	06cH
	DB	037H
	DB	086H
	DB	0eaH
	DB	01bH
	DB	0acH
	DB	05fH
	DB	015H
	DB	0cbH
	DB	079H
	DB	071H
	DB	01eH
	DB	0e2H
	DB	0abH
	DB	0e8H
	DB	02fH
	DB	05cH
	DB	0f8H
	DB	0b1H
	DB	03aH
	DB	0e7H
	DB	030H
	DB	030H
	DB	0efH
	DB	05bH
	DB	09eH
	DB	044H
	DB	057H
	DB	0e7H
	DB	05dH
	DB	013H
	DB	04H
	DB	0f9H
	DB	088H
	DB	0d6H
	DB	02dH
	DB	0d6H
	DB	0fcH
	DB	04bH
	DB	094H
	DB	0edH
	DB	038H
	DB	0baH
	DB	083H
	DB	01dH
	DB	0a4H
	DB	0b7H
	DB	063H
	DB	049H
	DB	071H
	DB	0b6H
	DB	0cdH
	DB	08eH
	DB	0c3H
	DB	025H
	DB	0d9H
	DB	0c6H
	DB	01cH
	DB	00H
	DB	0f1H
	DB	0dfH
	DB	073H
	DB	062H
	DB	07eH
	DB	0d3H
	DB	074H
	DB	05aH
	DB	05eH
	DB	084H
	DB	089H
	DB	0f3H
	DB	0a9H
	DB	05cH
	DB	069H
	DB	063H
	DB	09cH
	DB	032H
	DB	0cdH
	DB	06eH
	DB	01dH
	DB	053H
	DB	07aH
	DB	085H
	DB	0f7H
	DB	05cH
	DB	0c8H
	DB	044H
	DB	072H
	DB	06eH
	DB	08aH
	DB	072H
	DB	0fcH
	DB	00H
	DB	077H
	DB	0adH
	DB	022H
	DB	00H
	DB	0fH
	DB	01dH
	DB	050H
	DB	078H
	DB	0f6H
	DB	0b8H
	DB	066H
	DB	031H
	DB	08cH
	DB	066H
	DB	08fH
	DB	01aH
	DB	0d0H
	DB	03dH
	DB	05aH
	DB	05fH
	DB	0ceH
	DB	0d5H
	DB	021H
	DB	09fH
	DB	02eH
	DB	0abH
	DB	0bdH
	DB	0aH
	DB	0a5H
	DB	0c0H
	DB	0f4H
	DB	060H
	DB	0d1H
	DB	083H
	DB	0f0H
	DB	044H
	DB	04H
	DB	0a0H
	DB	0d6H
	DB	0f4H
	DB	069H
	DB	055H
	DB	08eH
	DB	081H
	DB	0faH
	DB	0b2H
	DB	04aH
	DB	016H
	DB	079H
	DB	05H
	DB	0abH
	DB	04cH
	DB	078H
	DB	078H
	DB	050H
	DB	02aH
	DB	0d3H
	DB	0e3H
	DB	08fH
	DB	0dbH
	DB	0e6H
	DB	02aH
	DB	041H
	DB	055H
	DB	06cH
	DB	0ecH
	DB	037H
	DB	032H
	DB	057H
	DB	059H
	DB	053H
	DB	03cH
	DB	0e8H
	DB	0f2H
	DB	05fH
	DB	036H
	DB	07cH
	DB	087H
	DB	0bbH
	DB	055H
	DB	078H
	DB	0d6H
	DB	067H
	DB	0aeH
	DB	093H
	DB	0f9H
	DB	0e2H
	DB	0fdH
	DB	099H
	DB	0bcH
	DB	0bcH
	DB	05fH
	DB	02fH
	DB	0bbH
	DB	0a8H
	DB	08cH
	DB	0f6H
	DB	051H
	DB	061H
	DB	039H
	DB	042H
	DB	0fH
	DB	0cfH
	DB	0f3H
	DB	0b7H
	DB	036H
	DB	01dH
	DB	086H
	DB	032H
	DB	02cH
	DB	04bH
	DB	0d8H
	DB	04cH
	DB	082H
	DB	0f3H
	DB	035H
	DB	0abH
	DB	0b1H
	DB	052H
	DB	0c4H
	DB	0a9H
	DB	034H
	DB	011H
	DB	037H
	DB	03aH
	DB	0aaH
	DB	082H
	DB	020H
	DB	027H
	DB	018H
	DB	028H
	DB	018H
	DB	028H
	DB	045H
	DB	090H
	DB	045H
	DB	023H
	DB	053H
	DB	060H
	DB	028H
	DB	074H
	DB	071H
	DB	035H
	DB	026H
	DB	062H
	DB	049H
	DB	077H
	DB	057H
	DB	024H
	DB	070H
	DB	093H
	DB	069H
	DB	099H
	DB	059H
	DB	057H
	DB	049H
	DB	066H
	DB	096H
	DB	076H
	DB	027H
	DB	031H
	DB	041H
	DB	059H
	DB	026H
	DB	053H
	DB	058H
	DB	097H
	DB	093H
	DB	023H
	DB	084H
	DB	062H
	DB	064H
	DB	033H
	DB	083H
	DB	027H
	DB	095H
	DB	02H
	DB	088H
	DB	041H
	DB	097H
	DB	016H
	DB	093H
	DB	099H
	DB	037H
	DB	051H
	DB	05H
	DB	082H
	DB	09H
	DB	074H
	DB	094H
	DB	045H
	DB	092H
	DB	00H
	DB	00H
	DB	00H
	DB	0ffH
	DB	0ffH
	DB	0ffH
	DB	0ffH
	DB	0ffH
	DD	00H
	DB	00H
	DB	01H
	DB	02H
	DB	03H
	DB	04H
	DB	05H
	DB	06H
	DB	07H
	DB	08H
	DB	09H
	DB	0aH
	DB	0bH
	DB	0cH
	DB	0dH
	DB	0eH
	DB	0fH
	DB	010H
	DB	011H
	DB	012H
	DB	013H
	DB	014H
	DB	015H
	DB	016H
	DB	017H
	DB	018H
	DB	019H
	DB	01aH
	DB	01bH
	DB	01cH
	DB	01dH
	DB	01eH
	DB	01fH
	DB	020H
	DB	021H
	DB	022H
	DB	023H
	DB	024H
	DB	025H
	DB	026H
	DB	027H
	DB	028H
	DB	029H
	DB	02aH
	DB	02bH
	DB	02cH
	DB	02dH
	DB	02eH
	DB	02fH
	DB	030H
	DB	031H
	DB	032H
	DB	033H
	DB	034H
	DB	035H
	DB	036H
	DB	037H
	DB	038H
	DB	039H
	DB	03aH
	DB	03bH
	DB	03cH
	DB	03dH
	DB	03eH
	DB	03fH
	DB	040H
	DB	041H
	DB	042H
	DB	043H
	DB	044H
	DB	045H
	DB	046H
	DB	047H
	DB	048H
	DB	049H
	DB	04aH
	DB	04bH
	DB	04cH
	DB	04dH
	DB	04eH
	DB	04fH
	DB	050H
	DB	051H
	DB	052H
	DB	053H
	DB	054H
	DB	055H
	DB	056H
	DB	057H
	DB	058H
	DB	059H
	DB	05aH
	DB	05bH
	DB	05cH
	DB	05dH
	DB	05eH
	DB	05fH
	DB	060H
	DB	061H
	DB	062H
	DB	063H
	DB	064H
	DB	065H
	DB	066H
	DB	067H
	DB	068H
	DB	069H
	DB	06aH
	DB	06bH
	DB	06cH
	DB	06dH
	DB	06eH
	DB	06fH
	DB	070H
	DB	071H
	DB	072H
	DB	073H
	DB	074H
	DB	075H
	DB	076H
	DB	077H
	DB	078H
	DB	079H
	DB	07aH
	DB	07bH
	DB	07cH
	DB	07dH
	DB	07eH
	DB	07fH
	DB	080H
	DB	081H
	DB	082H
	DB	083H
	DB	084H
	DB	085H
	DB	086H
	DB	087H
	DB	088H
	DB	089H
	DB	08aH
	DB	08bH
	DB	08cH
	DB	08dH
	DB	08eH
	DB	08fH
	DB	090H
	DB	091H
	DB	092H
	DB	093H
	DB	094H
	DB	095H
	DB	096H
	DB	097H
	DB	098H
	DB	099H
	DB	09aH
	DB	09bH
	DB	09cH
	DB	09dH
	DB	09eH
	DB	09fH
	DB	0a0H
	DB	0a1H
	DB	0a2H
	DB	0a3H
	DB	0a4H
	DB	0a5H
	DB	0a6H
	DB	0a7H
	DB	0a8H
	DB	0a9H
	DB	0aaH
	DB	0abH
	DB	0acH
	DB	0adH
	DB	0aeH
	DB	0afH
	DB	0b0H
	DB	0b1H
	DB	0b2H
	DB	0b3H
	DB	0b4H
	DB	0b5H
	DB	0b6H
	DB	0b7H
	DB	0b8H
	DB	0b9H
	DB	0baH
	DB	0bbH
	DB	0bcH
	DB	0bdH
	DB	0beH
	DB	0bfH
	DB	0c0H
	DB	0c1H
	DB	0c2H
	DB	0c3H
	DB	0c4H
	DB	0c5H
	DB	0c6H
	DB	0c7H
	DB	0c8H
	DB	0c9H
	DB	0caH
	DB	0cbH
	DB	0ccH
	DB	0cdH
	DB	0ceH
	DB	0cfH
	DB	0d0H
	DB	0d1H
	DB	0d2H
	DB	0d3H
	DB	0d4H
	DB	0d5H
	DB	0d6H
	DB	0d7H
	DB	0d8H
	DB	0d9H
	DB	0daH
	DB	0dbH
	DB	0dcH
	DB	0ddH
	DB	0deH
	DB	0dfH
	DB	0e0H
	DB	0e1H
	DB	0e2H
	DB	0e3H
	DB	0e4H
	DB	0e5H
	DB	0e6H
	DB	0e7H
	DB	0e8H
	DB	0e9H
	DB	0eaH
	DB	0ebH
	DB	0ecH
	DB	0edH
	DB	0eeH
	DB	0efH
	DB	0f0H
	DB	0f1H
	DB	0f2H
	DB	0f3H
	DB	0f4H
	DB	0f5H
	DB	0f6H
	DB	0f7H
	DB	0f8H
	DB	0f9H
	DB	0faH
	DB	0fbH
	DB	0fcH
	DB	0fdH
	DB	0feH
	DB	0ffH
	DB	00H
	DB	01H
	DB	02H
	DB	03H
	DB	04H
	DB	05H
	DB	06H
	DB	07H
	DB	08H
	DB	09H
	DB	0aH
	DB	0bH
	DB	0cH
	DB	0dH
	DB	0eH
	DB	0fH
	DB	010H
	DB	011H
	DB	012H
	DB	013H
	DB	014H
	DB	015H
	DB	016H
	DB	017H
	DB	018H
	DB	019H
	DB	01aH
	DB	01bH
	DB	01cH
	DB	01dH
	DB	01eH
	DB	01fH
	DB	020H
	DB	021H
	DB	022H
	DB	023H
	DB	024H
	DB	025H
	DB	026H
	DB	027H
	DB	028H
	DB	029H
	DB	02aH
	DB	02bH
	DB	02cH
	DB	02dH
	DB	02eH
	DB	02fH
	DB	030H
	DB	031H
	DB	032H
	DB	033H
	DB	034H
	DB	035H
	DB	036H
	DB	037H
	DB	038H
	DB	039H
	DB	03aH
	DB	03bH
	DB	03cH
	DB	03dH
	DB	03eH
	DB	03fH
	DB	040H
	DB	041H
	DB	042H
	DB	043H
	DB	044H
	DB	045H
	DB	046H
	DB	047H
	DB	048H
	DB	049H
	DB	04aH
	DB	04bH
	DB	04cH
	DB	04dH
	DB	04eH
	DB	04fH
	DB	050H
	DB	051H
	DB	052H
	DB	053H
	DB	054H
	DB	055H
	DB	056H
	DB	057H
	DB	058H
	DB	059H
	DB	05aH
	DB	05bH
	DB	05cH
	DB	05dH
	DB	05eH
	DB	05fH
	DB	060H
	DB	061H
	DB	062H
	DB	063H
	DB	064H
	DB	065H
	DB	066H
	DB	067H
	DB	068H
	DB	069H
	DB	06aH
	DB	06bH
	DB	06cH
	DB	06dH
	DB	06eH
	DB	06fH
	DB	070H
	DB	071H
	DB	072H
	DB	073H
	DB	074H
	DB	075H
	DB	076H
	DB	077H
	DB	078H
	DB	079H
	DB	07aH
	DB	07bH
	DB	07cH
	DB	07dH
	DB	07eH
	DB	07fH
	DB	080H
	DB	081H
	DB	082H
	DB	083H
	DB	084H
	DB	085H
	DB	086H
	DB	087H
	DB	088H
	DB	089H
	DB	08aH
	DB	08bH
	DB	08cH
	DB	08dH
	DB	08eH
	DB	08fH
	DB	090H
	DB	091H
	DB	092H
	DB	093H
	DB	094H
	DB	095H
	DB	096H
	DB	097H
	DB	098H
	DB	099H
	DB	09aH
	DB	09bH
	DB	09cH
	DB	09dH
	DB	09eH
	DB	09fH
	DB	0a0H
	DB	0a1H
	DB	0a2H
	DB	0a3H
	DB	0a4H
	DB	0a5H
	DB	0a6H
	DB	0a7H
	DB	0a8H
	DB	0a9H
	DB	0aaH
	DB	0abH
	DB	0acH
	DB	0adH
	DB	0aeH
	DB	0afH
	DB	0b0H
	DB	0b1H
	DB	0b2H
	DB	0b3H
	DB	0b4H
	DB	0b5H
	DB	0b6H
	DB	0b7H
	DB	0b8H
	DB	0b9H
	DB	0baH
	DB	0bbH
	DB	0bcH
	DB	0bdH
	DB	0beH
	DB	0bfH
	DB	0c0H
	DB	0c1H
	DB	0c2H
	DB	0c3H
	DB	0c4H
	DB	0c5H
	DB	0c6H
	DB	0c7H
	DB	0c8H
	DB	0c9H
	DB	0caH
	DB	0cbH
	DB	0ccH
	DB	0cdH
	DB	0ceH
	DB	0cfH
	DB	0d0H
	DB	0d1H
	DB	0d2H
	DB	0d3H
	DB	0d4H
	DB	0d5H
	DB	0d6H
	DB	0d7H
	DB	0d8H
	DB	0d9H
	DB	0daH
	DB	0dbH
	DB	0dcH
	DB	0ddH
	DB	0deH
	DB	0dfH
	DB	0e0H
	DB	0e1H
	DB	0e2H
	DB	0e3H
	DB	0e4H
	DB	0e5H
	DB	0e6H
	DB	0e7H
	DB	0e8H
	DB	0e9H
	DB	0eaH
	DB	0ebH
	DB	0ecH
	DB	0edH
	DB	0eeH
	DB	0efH
	DB	0f0H
	DB	0f1H
	DB	0f2H
	DB	0f3H
	DB	0f4H
	DB	0f5H
	DB	0f6H
	DB	0f7H
	DB	0f8H
	DB	0f9H
	DB	0faH
	DB	0fbH
	DB	0fcH
	DB	0fdH
	DB	0feH
	DB	0ffH
	DB	064H
	DB	049H
	DB	07eH
	DB	05aH
	DB	083H
	DB	01eH
	DB	04aH
	DB	093H
	DB	02cH
	DB	09H
	DB	0beH
	DB	03eH
	DB	053H
	DB	093H
	DB	037H
	DB	06dH
	DB	0aaH
	DB	059H
	DB	095H
	DB	048H
	DB	0b8H
	DB	016H
	DB	03H
	DB	01dH
	DB	022H
	DB	04bH
	DB	0bfH
	DB	050H
	DB	0a8H
	DB	018H
	DB	0edH
	DB	023H
	DB	050H
	DB	0eaH
	DB	0e7H
	DB	0e9H
	DB	060H
	DB	087H
	DB	0c8H
	DB	0a0H
	DB	0dbH
	DB	051H
	DB	0adH
	DB	029H
	DB	0bH
	DB	0d0H
	DB	0cH
	DB	01aH
	DB	0c1H
	DB	062H
	DB	08H
	DB	057H
	DB	063H
	DB	05bH
	DB	0f2H
	DB	046H
	DB	0c1H
	DB	076H
	DB	0abH
	DB	046H
	DB	03bH
	DB	0e3H
	DB	0bH
	DB	080H
	DB	08dH
	DB	0a5H
	DB	048H
	DB	08H
	DB	01aH
	DB	0c8H
	DB	047H
	DB	0b1H
	DB	058H
	DB	0e1H
	DB	026H
	DB	04bH
	DB	0e2H
	DB	05bH
	DB	0b0H
	DB	091H
	DB	0bH
	DB	0bcH
	DB	092H
	DB	064H
	DB	071H
	DB	08H
	DB	08H
	DB	094H
	DB	015H
	DB	0d4H
	DB	05fH
	DB	0abH
	DB	01bH
	DB	03dH
	DB	026H
	DB	04H
	DB	0e8H
	DB	0a8H
	DB	0efH
	DB	0f1H
	DB	0aeH
	DB	040H
	DB	020H
	DB	0cfH
	DB	0a3H
	DB	099H
	DB	036H
	DB	0b6H
	DB	068H
	DB	027H
	DB	0b2H
	DB	03fH
	DB	037H
	DB	01bH
	DB	092H
	DB	020H
	DB	0bH
	DB	0e9H
	DB	02H
	DB	051H
	DB	0e6H
	DB	0d7H
	DB	03cH
	DB	05fH
	DB	086H
	DB	0deH
	DB	05fH
	DB	0d4H
	DB	0a9H
	DB	050H
	DB	078H
	DB	019H
	DB	033H
	DB	0d7H
	DB	09aH
	DB	028H
	DB	027H
	DB	02bH
	DB	078H
	DB	02aH
	DB	02eH
	DB	0c3H
	DB	013H
	DB	0efH
	DB	0dfH
	DB	0ccH
	DB	06H
	DB	028H
	DB	0f4H
	DB	03dH
	DB	074H
	DB	04cH
	DB	02dH
	DB	0c2H
	DB	0ffH
	DB	03dH
	DB	0cbH
	DB	066H
	DB	099H
	DB	09bH
	DB	050H
	DB	0c7H
	DB	0caH
	DB	089H
	DB	05bH
	DB	0cH
	DB	064H
	DB	079H
	DB	01eH
	DB	0eaH
	DB	0a5H
	DB	0f2H
	DB	094H
	DB	099H
	DB	0fbH
	DB	01cH
	DB	02H
	DB	06fH
	DB	084H
	DB	0ceH
	DB	05bH
	DB	05cH
	DB	072H
	DB	0baH
	DB	010H
	DB	083H
	DB	0cdH
	DB	0dbH
	DB	05cH
	DB	0e4H
	DB	054H
	DB	034H
	DB	063H
	DB	016H
	DB	065H
	DB	0c3H
	DB	033H
	DB	0b6H
	DB	0bH
	DB	011H
	DB	059H
	DB	03fH
	DB	0b2H
	DB	053H
	DB	0c5H
	DB	017H
	DB	09aH
	DB	02cH
	DB	08dH
	DB	0b8H
	DB	013H
	DB	078H
	DB	02aH
	DB	00H
	DB	048H
	DB	056H
	DB	0a1H
	DB	065H
	DB	030H
	DB	011H
	DB	0e9H
	DB	03fH
	DB	0b6H
	DB	0d8H
	DB	076H
	DB	0c1H
	DB	083H
	DB	066H
	DB	0ddH
	DB	086H
	DB	083H
	DB	0f5H
	DB	034H
	DB	012H
	DB	0c0H
	DB	0c1H
	DB	080H
	DB	0f9H
	DB	0c8H
	DB	048H
	DB	059H
	DB	02dH
	DB	059H
	DB	03fH
	DB	086H
	DB	09H
	DB	0caH
	DB	073H
	DB	063H
	DB	017H
	DB	0d3H
	DB	056H
	DB	0e1H
	DB	03eH
	DB	02bH
	DB	0ffH
	DB	03aH
	DB	09fH
	DB	059H
	DB	0cdH
	DB	09aH
	DB	0ebH
	DB	019H
	DB	0cdH
	DB	048H
	DB	025H
	DB	093H
	DB	0d8H
	DB	0c4H
	DB	061H
	DB	028H
	DB	0bbH
	DB	032H
	DB	042H
	DB	03bH
	DB	037H
	DB	0a9H
	DB	0adH
	DB	0fbH
	DB	048H
	DB	02bH
	DB	099H
	DB	045H
	DB	03fH
	DB	0beH
	DB	025H
	DB	0a4H
	DB	01bH
	DB	0f6H
	DB	0feH
	DB	0b4H
	DB	0aaH
	DB	0bH
	DB	0efH
	DB	05eH
	DB	0d2H
	DB	04bH
	DB	0f7H
	DB	03cH
	DB	076H
	DB	029H
	DB	078H
	DB	02H
	DB	054H
	DB	082H
	DB	0c1H
	DB	031H
	DB	015H
	DB	0e4H
	DB	01H
	DB	05aH
	DB	0acH
	DB	099H
	DB	02eH
	DB	056H
	DB	013H
	DB	0a3H
	DB	0b5H
	DB	0c2H
	DB	0f6H
	DB	085H
	DB	0b8H
	DB	047H
	DB	095H
	DB	0cbH
	DB	06eH
	DB	09bH
	DB	026H
	DB	056H
	DB	0d8H
	DB	0c8H
	DB	081H
	DB	057H
	DB	0e5H
	DB	02cH
	DB	042H
	DB	0f9H
	DB	078H
	DB	0d8H
	DB	063H
	DB	04cH
	DB	043H
	DB	0d0H
	DB	06fH
	DB	0eaH
	DB	092H
	DB	08fH
	DB	028H
	DB	022H
	DB	0e4H
	DB	065H
	DB	0aaH
	DB	065H
	DB	076H
	DB	0e9H
	DB	0bfH
	DB	041H
	DB	093H
	DB	084H
	DB	050H
	DB	06cH
	DB	0c3H
	DB	0ceH
	DB	03cH
	DB	054H
	DB	0acH
	DB	01aH
	DB	06fH
	DB	067H
	DB	0dcH
	DB	066H
	DB	0f3H
	DB	0b3H
	DB	01H
	DB	091H
	DB	0e6H
	DB	098H
	DB	038H
	DB	0bH
	DB	0c9H
	DB	099H
	DB	0b0H
	DB	05aH
	DB	0bcH
	DB	0e1H
	DB	09dH
	DB	0c0H
	DB	0c6H
	DB	0dcH
	DB	0c2H
	DB	0ddH
	DB	00H
	DB	01eH
	DB	0c5H
	DB	035H
	DB	0baH
	DB	018H
	DB	0deH
	DB	0b2H
	DB	0dfH
	DB	01aH
	DB	010H
	DB	010H
	DB	023H
	DB	010H
	DB	083H
	DB	018H
	DB	0c7H
	DB	05dH
	DB	0c9H
	DB	086H
	DB	011H
	DB	0a0H
	DB	09dH
	DB	0c4H
	DB	08aH
	DB	0aH
	DB	0cdH
	DB	0ecH
	DB	067H
	DB	06fH
	DB	0abH
	DB	0dfH
	DB	022H
	DB	02fH
	DB	07H
	DB	0e0H
	DB	026H
	DB	0f0H
	DB	059H
	DB	0b6H
	DB	072H
	DB	0b5H
	DB	06eH
	DB	05cH
	DB	0bcH
	DB	08eH
	DB	01dH
	DB	021H
	DB	0bbH
	DB	0d8H
	DB	067H
	DB	0ddH
	DB	092H
	DB	072H
	DB	012H
	DB	05H
	DB	046H
	DB	081H
	DB	0d7H
	DB	0eH
	DB	0a7H
	DB	037H
	DB	013H
	DB	04cH
	DB	0dfH
	DB	0ceH
	DB	093H
	DB	0b6H
	DB	0f8H
	DB	02aH
	DB	0e2H
	DB	024H
	DB	023H
	DB	027H
	DB	04eH
	DB	058H
	DB	0a0H
	DB	082H
	DB	01cH
	DB	0c5H
	DB	050H
	DB	02eH
	DB	02dH
	DB	0aH
	DB	0b4H
	DB	058H
	DB	05eH
	DB	094H
	DB	0deH
	DB	069H
	DB	075H
	DB	0beH
	DB	05eH
	DB	0bH
	DB	04eH
	DB	0fcH
	DB	0e5H
	DB	01cH
	DB	0d3H
	DB	0e7H
	DB	0cH
	DB	025H
	DB	0a1H
	DB	0fbH
	DB	0bbH
	DB	0d6H
	DB	09H
	DB	0d2H
	DB	073H
	DB	0adH
	DB	05bH
	DB	0dH
	DB	059H
	DB	063H
	DB	01cH
	DB	053H
	DB	01fH
	DB	06aH
	DB	0aH
	DB	057H
	DB	0b9H
hmac_whirlpool_test_key DQ FLAT:??_C@_0EB@DIMDKBBC@?$AA?$BB?$CC3DUfw?$II?$JJ?$KK?$LL?L?$NN?n?$PP?$AB?$CDEg?$IJ?$KL?M?o?$AA?$BB?$CC3DUfw@
hmac_whirlpool_test_data DQ FLAT:??_C@_0DJ@NGDOEGCI@abcdbcdecdefdefgefghfghighijhijk@
hmac_whirlpool_test_vectors DQ FLAT:??_C@_0EB@PHFBDMAI@?$AD?$JB?R?$IA?$AA?$LGb?$LL?$LI?f?$CD?$DO?hl?r?$LC?$IEtLs?$ILX?$AA?$LK?$CI?$BC?mRo?c?$BF?3@
hmac_gosthash_test_key DQ FLAT:??_C@_0EB@DIMDKBBC@?$AA?$BB?$CC3DUfw?$II?$JJ?$KK?$LL?L?$NN?n?$PP?$AB?$CDEg?$IJ?$KL?M?o?$AA?$BB?$CC3DUfw@
hmac_gosthash_test_data DQ FLAT:??_C@_0DJ@NGDOEGCI@abcdbcdecdefdefgefghfghighijhijk@
hmac_gosthash_test_vectors DQ FLAT:??_C@_0CB@IGIOKONH@R5?$LH?$BHV?$LIu?$CB?J?iR?$JL?$CB?$JH?$DOmNT?$BC?$PMap?$EA?zFL?w$?$JN?$CI?$NO?$BN@
hmac_stribog_test_key DQ FLAT:??_C@_0EB@DIMDKBBC@?$AA?$BB?$CC3DUfw?$II?$JJ?$KK?$LL?L?$NN?n?$PP?$AB?$CDEg?$IJ?$KL?M?o?$AA?$BB?$CC3DUfw@
hmac_stribog_test_data DQ FLAT:??_C@_0DJ@NGDOEGCI@abcdbcdecdefdefgefghfghighijhijk@
hmac_stribog_test_vectors DQ FLAT:??_C@_0EB@NCCFEKHJ@t?$IKd?$JE?$LI4?$LNr?$JF?$KC?$DL?$BB?$IG?$BNF?g?$II?$APe?$JI?ST?a?$LCJ5?B?$KC?$IFA?$AI?$IF@
	ORG $+8
?key1@?1??TestSectorBufEncryption@@9@9 DB 027H		; `TestSectorBufEncryption'::`2'::key1
	DB	018H
	DB	028H
	DB	018H
	DB	028H
	DB	045H
	DB	090H
	DB	045H
	DB	023H
	DB	053H
	DB	060H
	DB	028H
	DB	074H
	DB	071H
	DB	035H
	DB	026H
	DB	062H
	DB	049H
	DB	077H
	DB	057H
	DB	024H
	DB	070H
	DB	093H
	DB	069H
	DB	099H
	DB	059H
	DB	057H
	DB	049H
	DB	066H
	DB	096H
	DB	076H
	DB	027H
	DB	031H
	DB	041H
	DB	059H
	DB	026H
	DB	053H
	DB	058H
	DB	097H
	DB	093H
	DB	023H
	DB	084H
	DB	062H
	DB	064H
	DB	033H
	DB	083H
	DB	027H
	DB	095H
	DB	02H
	DB	088H
	DB	041H
	DB	097H
	DB	016H
	DB	093H
	DB	099H
	DB	037H
	DB	051H
	DB	05H
	DB	082H
	DB	09H
	DB	074H
	DB	094H
	DB	045H
	DB	092H
	DB	00H
	DB	00H
	DB	00H
	DB	0ffH
	DB	0ffH
	DB	0ffH
	DB	0ffH
	DB	0ffH
	DB	00H
	DB	00H
	DB	00H
	DB	00H
	DB	00H
	DB	01H
	DB	02H
	DB	03H
	DB	04H
	DB	05H
	DB	06H
	DB	07H
	DB	08H
	DB	09H
	DB	0aH
	DB	0bH
	DB	0cH
	DB	0dH
	DB	0eH
	DB	0fH
	DB	010H
	DB	011H
	DB	012H
	DB	013H
PUBLIC	__$ArrayPad$
PUBLIC	test_hmac_whirlpool
;	COMDAT pdata
; File c:\users\alexis\desktop\sources_gostcrypt_windows_1.3.1_commented\sources_gostcrypt_windows_1.3.1\sources_gostcrypt_windows_1.3.1\common\tests.c
pdata	SEGMENT
$pdata$test_hmac_whirlpool DD imagerel $LN4
	DD	imagerel $LN4+158
	DD	imagerel $unwind$test_hmac_whirlpool
pdata	ENDS
;	COMDAT xdata
xdata	SEGMENT
$unwind$test_hmac_whirlpool DD 031b19H
	DD	0120109H
	DD	07002H
	DD	imagerel __GSHandlerCheck
	DD	080H
; Function compile flags: /Odtp
xdata	ENDS
;	COMDAT test_hmac_whirlpool
_TEXT	SEGMENT
digest$ = 64
__$ArrayPad$ = 128
test_hmac_whirlpool PROC				; COMDAT

; 691  : {

$LN4:
  00000	40 57		 push	 rdi
  00002	48 81 ec 90 00
	00 00		 sub	 rsp, 144		; 00000090H
  00009	48 8b 05 00 00
	00 00		 mov	 rax, QWORD PTR __security_cookie
  00010	48 33 c4	 xor	 rax, rsp
  00013	48 89 84 24 80
	00 00 00	 mov	 QWORD PTR __$ArrayPad$[rsp], rax

; 692  : 	unsigned char digest[WHIRLPOOL_DIGESTSIZE];
; 693  : 
; 694  : 	hmac_whirlpool (hmac_whirlpool_test_key, 64, hmac_whirlpool_test_data, (int) strlen (hmac_whirlpool_test_data), digest, WHIRLPOOL_DIGESTSIZE);

  0001b	33 c0		 xor	 eax, eax
  0001d	48 c7 c1 ff ff
	ff ff		 mov	 rcx, -1
  00024	48 8b 3d 00 00
	00 00		 mov	 rdi, QWORD PTR hmac_whirlpool_test_data
  0002b	f2 ae		 repne scasb
  0002d	48 f7 d1	 not	 rcx
  00030	48 83 e9 01	 sub	 rcx, 1
  00034	c7 44 24 28 40
	00 00 00	 mov	 DWORD PTR [rsp+40], 64	; 00000040H
  0003c	48 8d 44 24 40	 lea	 rax, QWORD PTR digest$[rsp]
  00041	48 89 44 24 20	 mov	 QWORD PTR [rsp+32], rax
  00046	44 8b c9	 mov	 r9d, ecx
  00049	4c 8b 05 00 00
	00 00		 mov	 r8, QWORD PTR hmac_whirlpool_test_data
  00050	ba 40 00 00 00	 mov	 edx, 64			; 00000040H
  00055	48 8b 0d 00 00
	00 00		 mov	 rcx, QWORD PTR hmac_whirlpool_test_key
  0005c	e8 00 00 00 00	 call	 hmac_whirlpool

; 695  : 	if (memcmp (digest, hmac_whirlpool_test_vectors, WHIRLPOOL_DIGESTSIZE) != 0)

  00061	41 b8 40 00 00
	00		 mov	 r8d, 64			; 00000040H
  00067	48 8b 15 00 00
	00 00		 mov	 rdx, QWORD PTR hmac_whirlpool_test_vectors
  0006e	48 8d 4c 24 40	 lea	 rcx, QWORD PTR digest$[rsp]
  00073	e8 00 00 00 00	 call	 memcmp
  00078	85 c0		 test	 eax, eax
  0007a	74 04		 je	 SHORT $LN1@test_hmac_

; 696  : 		return FALSE;

  0007c	33 c0		 xor	 eax, eax
  0007e	eb 05		 jmp	 SHORT $LN2@test_hmac_
$LN1@test_hmac_:

; 697  : 
; 698  : 	return TRUE;

  00080	b8 01 00 00 00	 mov	 eax, 1
$LN2@test_hmac_:

; 699  : }

  00085	48 8b 8c 24 80
	00 00 00	 mov	 rcx, QWORD PTR __$ArrayPad$[rsp]
  0008d	48 33 cc	 xor	 rcx, rsp
  00090	e8 00 00 00 00	 call	 __security_check_cookie
  00095	48 81 c4 90 00
	00 00		 add	 rsp, 144		; 00000090H
  0009c	5f		 pop	 rdi
  0009d	c3		 ret	 0
test_hmac_whirlpool ENDP
PUBLIC	__$ArrayPad$
PUBLIC	test_hmac_gosthash
;	COMDAT pdata
pdata	SEGMENT
$pdata$test_hmac_gosthash DD imagerel $LN4
	DD	imagerel $LN4+138
	DD	imagerel $unwind$test_hmac_gosthash
pdata	ENDS
;	COMDAT xdata
xdata	SEGMENT
$unwind$test_hmac_gosthash DD 021519H
	DD	07002b206H
	DD	imagerel __GSHandlerCheck
	DD	058H
; Function compile flags: /Odtp
xdata	ENDS
;	COMDAT test_hmac_gosthash
_TEXT	SEGMENT
digest$ = 56
__$ArrayPad$ = 88
test_hmac_gosthash PROC					; COMDAT

; 709  : {

$LN4:
  00000	40 57		 push	 rdi
  00002	48 83 ec 60	 sub	 rsp, 96			; 00000060H
  00006	48 8b 05 00 00
	00 00		 mov	 rax, QWORD PTR __security_cookie
  0000d	48 33 c4	 xor	 rax, rsp
  00010	48 89 44 24 58	 mov	 QWORD PTR __$ArrayPad$[rsp], rax

; 710  : 	unsigned char digest[GOSTHASH_DIGESTSIZE];
; 711  : 	hmac_gosthash(hmac_gosthash_test_key, 64, hmac_gosthash_test_data, (int) strlen (hmac_gosthash_test_data), digest);

  00015	33 c0		 xor	 eax, eax
  00017	48 c7 c1 ff ff
	ff ff		 mov	 rcx, -1
  0001e	48 8b 3d 00 00
	00 00		 mov	 rdi, QWORD PTR hmac_gosthash_test_data
  00025	f2 ae		 repne scasb
  00027	48 f7 d1	 not	 rcx
  0002a	48 83 e9 01	 sub	 rcx, 1
  0002e	48 8d 44 24 38	 lea	 rax, QWORD PTR digest$[rsp]
  00033	48 89 44 24 20	 mov	 QWORD PTR [rsp+32], rax
  00038	44 8b c9	 mov	 r9d, ecx
  0003b	4c 8b 05 00 00
	00 00		 mov	 r8, QWORD PTR hmac_gosthash_test_data
  00042	ba 40 00 00 00	 mov	 edx, 64			; 00000040H
  00047	48 8b 0d 00 00
	00 00		 mov	 rcx, QWORD PTR hmac_gosthash_test_key
  0004e	e8 00 00 00 00	 call	 hmac_gosthash

; 712  : 	if (memcmp (digest, hmac_gosthash_test_vectors, GOSTHASH_DIGESTSIZE) != 0)

  00053	41 b8 20 00 00
	00		 mov	 r8d, 32			; 00000020H
  00059	48 8b 15 00 00
	00 00		 mov	 rdx, QWORD PTR hmac_gosthash_test_vectors
  00060	48 8d 4c 24 38	 lea	 rcx, QWORD PTR digest$[rsp]
  00065	e8 00 00 00 00	 call	 memcmp
  0006a	85 c0		 test	 eax, eax
  0006c	74 04		 je	 SHORT $LN1@test_hmac_@2

; 713  : 		return FALSE;

  0006e	33 c0		 xor	 eax, eax
  00070	eb 05		 jmp	 SHORT $LN2@test_hmac_@2
$LN1@test_hmac_@2:

; 714  : 
; 715  : 	return TRUE;

  00072	b8 01 00 00 00	 mov	 eax, 1
$LN2@test_hmac_@2:

; 716  : }

  00077	48 8b 4c 24 58	 mov	 rcx, QWORD PTR __$ArrayPad$[rsp]
  0007c	48 33 cc	 xor	 rcx, rsp
  0007f	e8 00 00 00 00	 call	 __security_check_cookie
  00084	48 83 c4 60	 add	 rsp, 96			; 00000060H
  00088	5f		 pop	 rdi
  00089	c3		 ret	 0
test_hmac_gosthash ENDP
PUBLIC	__$ArrayPad$
PUBLIC	test_hmac_stribog
;	COMDAT pdata
pdata	SEGMENT
$pdata$test_hmac_stribog DD imagerel $LN4
	DD	imagerel $LN4+150
	DD	imagerel $unwind$test_hmac_stribog
pdata	ENDS
;	COMDAT xdata
xdata	SEGMENT
$unwind$test_hmac_stribog DD 031b19H
	DD	0120109H
	DD	07002H
	DD	imagerel __GSHandlerCheck
	DD	080H
; Function compile flags: /Odtp
xdata	ENDS
;	COMDAT test_hmac_stribog
_TEXT	SEGMENT
digest$ = 64
__$ArrayPad$ = 128
test_hmac_stribog PROC					; COMDAT

; 726  : {

$LN4:
  00000	40 57		 push	 rdi
  00002	48 81 ec 90 00
	00 00		 sub	 rsp, 144		; 00000090H
  00009	48 8b 05 00 00
	00 00		 mov	 rax, QWORD PTR __security_cookie
  00010	48 33 c4	 xor	 rax, rsp
  00013	48 89 84 24 80
	00 00 00	 mov	 QWORD PTR __$ArrayPad$[rsp], rax

; 727  : 	unsigned char digest[STRIBOG_DIGESTSIZE];
; 728  : 	hmac_stribog(hmac_stribog_test_key, 64, hmac_stribog_test_data, (int) strlen (hmac_stribog_test_data), digest);

  0001b	33 c0		 xor	 eax, eax
  0001d	48 c7 c1 ff ff
	ff ff		 mov	 rcx, -1
  00024	48 8b 3d 00 00
	00 00		 mov	 rdi, QWORD PTR hmac_stribog_test_data
  0002b	f2 ae		 repne scasb
  0002d	48 f7 d1	 not	 rcx
  00030	48 83 e9 01	 sub	 rcx, 1
  00034	48 8d 44 24 40	 lea	 rax, QWORD PTR digest$[rsp]
  00039	48 89 44 24 20	 mov	 QWORD PTR [rsp+32], rax
  0003e	44 8b c9	 mov	 r9d, ecx
  00041	4c 8b 05 00 00
	00 00		 mov	 r8, QWORD PTR hmac_stribog_test_data
  00048	ba 40 00 00 00	 mov	 edx, 64			; 00000040H
  0004d	48 8b 0d 00 00
	00 00		 mov	 rcx, QWORD PTR hmac_stribog_test_key
  00054	e8 00 00 00 00	 call	 hmac_stribog

; 729  : 	if (memcmp (digest, hmac_stribog_test_vectors, STRIBOG_DIGESTSIZE) != 0)

  00059	41 b8 40 00 00
	00		 mov	 r8d, 64			; 00000040H
  0005f	48 8b 15 00 00
	00 00		 mov	 rdx, QWORD PTR hmac_stribog_test_vectors
  00066	48 8d 4c 24 40	 lea	 rcx, QWORD PTR digest$[rsp]
  0006b	e8 00 00 00 00	 call	 memcmp
  00070	85 c0		 test	 eax, eax
  00072	74 04		 je	 SHORT $LN1@test_hmac_@3

; 730  : 		return FALSE;

  00074	33 c0		 xor	 eax, eax
  00076	eb 05		 jmp	 SHORT $LN2@test_hmac_@3
$LN1@test_hmac_@3:

; 731  : 
; 732  : 	return TRUE;

  00078	b8 01 00 00 00	 mov	 eax, 1
$LN2@test_hmac_@3:

; 733  : }

  0007d	48 8b 8c 24 80
	00 00 00	 mov	 rcx, QWORD PTR __$ArrayPad$[rsp]
  00085	48 33 cc	 xor	 rcx, rsp
  00088	e8 00 00 00 00	 call	 __security_check_cookie
  0008d	48 81 c4 90 00
	00 00		 add	 rsp, 144		; 00000090H
  00094	5f		 pop	 rdi
  00095	c3		 ret	 0
test_hmac_stribog ENDP
PUBLIC	__$ArrayPad$
PUBLIC	test_pkcs5
;	COMDAT pdata
pdata	SEGMENT
$pdata$test_pkcs5 DD imagerel $LN10
	DD	imagerel $LN10+456
	DD	imagerel $unwind$test_pkcs5
pdata	ENDS
;	COMDAT xdata
xdata	SEGMENT
$unwind$test_pkcs5 DD 021919H
	DD	01f0107H
	DD	imagerel __GSHandlerCheck
	DD	0e0H
; Function compile flags: /Odtp
xdata	ENDS
;	COMDAT test_pkcs5
_TEXT	SEGMENT
dk$ = 80
__$ArrayPad$ = 224
test_pkcs5 PROC						; COMDAT

; 743  : {

$LN10:
  00000	48 81 ec f8 00
	00 00		 sub	 rsp, 248		; 000000f8H
  00007	48 8b 05 00 00
	00 00		 mov	 rax, QWORD PTR __security_cookie
  0000e	48 33 c4	 xor	 rax, rsp
  00011	48 89 84 24 e0
	00 00 00	 mov	 QWORD PTR __$ArrayPad$[rsp], rax

; 744  : 	char dk[144];
; 745  : 
; 746  : 	/* HMAC-Whirlpool tests */
; 747  : 	if (test_hmac_whirlpool() == FALSE)

  00019	e8 00 00 00 00	 call	 test_hmac_whirlpool
  0001e	85 c0		 test	 eax, eax
  00020	75 07		 jne	 SHORT $LN7@test_pkcs5

; 748  : 		return FALSE;

  00022	33 c0		 xor	 eax, eax
  00024	e9 87 01 00 00	 jmp	 $LN8@test_pkcs5
$LN7@test_pkcs5:

; 749  : 
; 750  : 	/* HMAC-GOSTHASH tests */
; 751  : 	if (test_hmac_gosthash() == FALSE)

  00029	e8 00 00 00 00	 call	 test_hmac_gosthash
  0002e	85 c0		 test	 eax, eax
  00030	75 07		 jne	 SHORT $LN6@test_pkcs5

; 752  : 		return FALSE;

  00032	33 c0		 xor	 eax, eax
  00034	e9 77 01 00 00	 jmp	 $LN8@test_pkcs5
$LN6@test_pkcs5:

; 753  : 
; 754  : 	/* HMAC-Stribog tests */
; 755  : 	if (test_hmac_stribog() == FALSE)

  00039	e8 00 00 00 00	 call	 test_hmac_stribog
  0003e	85 c0		 test	 eax, eax
  00040	75 07		 jne	 SHORT $LN5@test_pkcs5

; 756  : 		return FALSE;

  00042	33 c0		 xor	 eax, eax
  00044	e9 67 01 00 00	 jmp	 $LN8@test_pkcs5
$LN5@test_pkcs5:

; 757  : 
; 758  : #ifndef GST_WINDOWS_BOOT
; 759  : 	/* PKCS-5 test 1 with HMAC-Whirlpool used as the PRF */
; 760  : 	derive_key_whirlpool ("password", 8, "\x12\x34\x56\x78", 4, 5, dk, 4);

  00049	c7 44 24 30 04
	00 00 00	 mov	 DWORD PTR [rsp+48], 4
  00051	48 8d 44 24 50	 lea	 rax, QWORD PTR dk$[rsp]
  00056	48 89 44 24 28	 mov	 QWORD PTR [rsp+40], rax
  0005b	c7 44 24 20 05
	00 00 00	 mov	 DWORD PTR [rsp+32], 5
  00063	41 b9 04 00 00
	00		 mov	 r9d, 4
  00069	4c 8d 05 00 00
	00 00		 lea	 r8, OFFSET FLAT:??_C@_04NDGDACAK@?$BC4Vx?$AA@FNODOBFM@
  00070	ba 08 00 00 00	 mov	 edx, 8
  00075	48 8d 0d 00 00
	00 00		 lea	 rcx, OFFSET FLAT:??_C@_08NLHBPEGP@password?$AA@FNODOBFM@
  0007c	e8 00 00 00 00	 call	 derive_key_whirlpool

; 761  : 	if (memcmp (dk, "\x50\x7c\x36\x6f", 4) != 0)

  00081	41 b8 04 00 00
	00		 mov	 r8d, 4
  00087	48 8d 15 00 00
	00 00		 lea	 rdx, OFFSET FLAT:??_C@_04OCKEDGEH@P?$HM6o?$AA@FNODOBFM@
  0008e	48 8d 4c 24 50	 lea	 rcx, QWORD PTR dk$[rsp]
  00093	e8 00 00 00 00	 call	 memcmp
  00098	85 c0		 test	 eax, eax
  0009a	74 07		 je	 SHORT $LN4@test_pkcs5

; 762  : 		return FALSE;

  0009c	33 c0		 xor	 eax, eax
  0009e	e9 0d 01 00 00	 jmp	 $LN8@test_pkcs5
$LN4@test_pkcs5:

; 763  : 
; 764  : 	/* PKCS-5 test 2 with HMAC-Whirlpool used as the PRF (derives a key longer than the underlying hash) */
; 765  : 	derive_key_whirlpool ("password", 8, "\x12\x34\x56\x78", 4, 5, dk, 96);

  000a3	c7 44 24 30 60
	00 00 00	 mov	 DWORD PTR [rsp+48], 96	; 00000060H
  000ab	48 8d 44 24 50	 lea	 rax, QWORD PTR dk$[rsp]
  000b0	48 89 44 24 28	 mov	 QWORD PTR [rsp+40], rax
  000b5	c7 44 24 20 05
	00 00 00	 mov	 DWORD PTR [rsp+32], 5
  000bd	41 b9 04 00 00
	00		 mov	 r9d, 4
  000c3	4c 8d 05 00 00
	00 00		 lea	 r8, OFFSET FLAT:??_C@_04NDGDACAK@?$BC4Vx?$AA@FNODOBFM@
  000ca	ba 08 00 00 00	 mov	 edx, 8
  000cf	48 8d 0d 00 00
	00 00		 lea	 rcx, OFFSET FLAT:??_C@_08NLHBPEGP@password?$AA@FNODOBFM@
  000d6	e8 00 00 00 00	 call	 derive_key_whirlpool

; 766  : 	if (memcmp (dk, "\x50\x7c\x36\x6f\xee\x10\x2e\x9a\xe2\x8a\xd5\x82\x72\x7d\x27\x0f\xe8\x4d\x7f\x68\x7a\xcf\xb5\xe7\x43\x67\xaa\x98\x93\x52\x2b\x09\x6e\x42\xdf\x2c\x59\x4a\x91\x6d\x7e\x10\xae\xb2\x1a\x89\x8f\xb9\x8f\xe6\x31\xa9\xd8\x9f\x98\x26\xf4\xda\xcd\x7d\x65\x65\xde\x10\x95\x91\xb4\x84\x26\xae\x43\xa1\x00\x5b\x1e\xb8\x38\x97\xa4\x1e\x4b\xd2\x65\x64\xbc\xfa\x1f\x35\x85\xdb\x4f\x97\x65\x6f\xbd\x24", 96) != 0)

  000db	41 b8 60 00 00
	00		 mov	 r8d, 96			; 00000060H
  000e1	48 8d 15 00 00
	00 00		 lea	 rdx, OFFSET FLAT:??_C@_0GB@BHABHNEI@P?$HM6o?n?$BA?4?$JK?b?$IK?U?$ICr?$HN?8?$AP?hM?$HPhz?O?$LF?gCg?$KK?$JI?$JDR?$CL?7@FNODOBFM@
  000e8	48 8d 4c 24 50	 lea	 rcx, QWORD PTR dk$[rsp]
  000ed	e8 00 00 00 00	 call	 memcmp
  000f2	85 c0		 test	 eax, eax
  000f4	74 07		 je	 SHORT $LN3@test_pkcs5

; 767  : 		return FALSE;

  000f6	33 c0		 xor	 eax, eax
  000f8	e9 b3 00 00 00	 jmp	 $LN8@test_pkcs5
$LN3@test_pkcs5:

; 768  : 
; 769  : 	/* PKCS-5 test 1 with HMAC-GostHash used as the PRF */
; 770  : 	derive_key_gosthash ("password", 8, "\x12\x34\x56\x78", 4, 5, dk, 4);

  000fd	c7 44 24 30 04
	00 00 00	 mov	 DWORD PTR [rsp+48], 4
  00105	48 8d 44 24 50	 lea	 rax, QWORD PTR dk$[rsp]
  0010a	48 89 44 24 28	 mov	 QWORD PTR [rsp+40], rax
  0010f	c7 44 24 20 05
	00 00 00	 mov	 DWORD PTR [rsp+32], 5
  00117	41 b9 04 00 00
	00		 mov	 r9d, 4
  0011d	4c 8d 05 00 00
	00 00		 lea	 r8, OFFSET FLAT:??_C@_04NDGDACAK@?$BC4Vx?$AA@FNODOBFM@
  00124	ba 08 00 00 00	 mov	 edx, 8
  00129	48 8d 0d 00 00
	00 00		 lea	 rcx, OFFSET FLAT:??_C@_08NLHBPEGP@password?$AA@FNODOBFM@
  00130	e8 00 00 00 00	 call	 derive_key_gosthash

; 771  : 	if (memcmp (dk, "\x7d\x53\xe0\x7e", 4) != 0)

  00135	41 b8 04 00 00
	00		 mov	 r8d, 4
  0013b	48 8d 15 00 00
	00 00		 lea	 rdx, OFFSET FLAT:??_C@_04PJHJAIAI@?$HNS?$OA?$HO?$AA@FNODOBFM@
  00142	48 8d 4c 24 50	 lea	 rcx, QWORD PTR dk$[rsp]
  00147	e8 00 00 00 00	 call	 memcmp
  0014c	85 c0		 test	 eax, eax
  0014e	74 04		 je	 SHORT $LN2@test_pkcs5

; 772  : 		return FALSE;

  00150	33 c0		 xor	 eax, eax
  00152	eb 5c		 jmp	 SHORT $LN8@test_pkcs5
$LN2@test_pkcs5:

; 773  : #endif
; 774  : 
; 775  : 	/* PKCS-5 test 1 with HMAC-Stribog used as the PRF */
; 776  : 	derive_key_stribog ("password", 8, "\x12\x34\x56\x78", 4, 5, dk, 4);

  00154	c7 44 24 30 04
	00 00 00	 mov	 DWORD PTR [rsp+48], 4
  0015c	48 8d 44 24 50	 lea	 rax, QWORD PTR dk$[rsp]
  00161	48 89 44 24 28	 mov	 QWORD PTR [rsp+40], rax
  00166	c7 44 24 20 05
	00 00 00	 mov	 DWORD PTR [rsp+32], 5
  0016e	41 b9 04 00 00
	00		 mov	 r9d, 4
  00174	4c 8d 05 00 00
	00 00		 lea	 r8, OFFSET FLAT:??_C@_04NDGDACAK@?$BC4Vx?$AA@FNODOBFM@
  0017b	ba 08 00 00 00	 mov	 edx, 8
  00180	48 8d 0d 00 00
	00 00		 lea	 rcx, OFFSET FLAT:??_C@_08NLHBPEGP@password?$AA@FNODOBFM@
  00187	e8 00 00 00 00	 call	 derive_key_stribog

; 777  : 	if (memcmp (dk, "\xc7\x13\x56\xb6", 4) != 0)

  0018c	41 b8 04 00 00
	00		 mov	 r8d, 4
  00192	48 8d 15 00 00
	00 00		 lea	 rdx, OFFSET FLAT:??_C@_04PKOKJPGE@?G?$BDV?$LG?$AA@FNODOBFM@
  00199	48 8d 4c 24 50	 lea	 rcx, QWORD PTR dk$[rsp]
  0019e	e8 00 00 00 00	 call	 memcmp
  001a3	85 c0		 test	 eax, eax
  001a5	74 04		 je	 SHORT $LN1@test_pkcs5

; 778  : 		return FALSE;

  001a7	33 c0		 xor	 eax, eax
  001a9	eb 05		 jmp	 SHORT $LN8@test_pkcs5
$LN1@test_pkcs5:

; 779  : 
; 780  : 	return TRUE;

  001ab	b8 01 00 00 00	 mov	 eax, 1
$LN8@test_pkcs5:

; 781  : }

  001b0	48 8b 8c 24 e0
	00 00 00	 mov	 rcx, QWORD PTR __$ArrayPad$[rsp]
  001b8	48 33 cc	 xor	 rcx, rsp
  001bb	e8 00 00 00 00	 call	 __security_check_cookie
  001c0	48 81 c4 f8 00
	00 00		 add	 rsp, 248		; 000000f8H
  001c7	c3		 ret	 0
test_pkcs5 ENDP
PUBLIC	__$ArrayPad$
PUBLIC	TestLegacySectorBufEncryption
;	COMDAT pdata
pdata	SEGMENT
$pdata$TestLegacySectorBufEncryption DD imagerel $LN22
	DD	imagerel $LN22+791
	DD	imagerel $unwind$TestLegacySectorBufEncryption
pdata	ENDS
;	COMDAT xdata
xdata	SEGMENT
$unwind$TestLegacySectorBufEncryption DD 021e19H
	DD	095010cH
	DD	imagerel __GSHandlerCheck
	DD	0490H
; Function compile flags: /Odtp
xdata	ENDS
;	COMDAT TestLegacySectorBufEncryption
_TEXT	SEGMENT
crc$ = 32
i$ = 36
unitNo$ = 40
name$ = 64
buf$ = 128
nbrUnits$ = 1152
nTestsPerformed$ = 1156
blockSize$ = 1160
__$ArrayPad$ = 1168
ci$ = 1200
TestLegacySectorBufEncryption PROC			; COMDAT

; 546  : {

$LN22:
  00000	48 89 4c 24 08	 mov	 QWORD PTR [rsp+8], rcx
  00005	48 81 ec a8 04
	00 00		 sub	 rsp, 1192		; 000004a8H
  0000c	48 8b 05 00 00
	00 00		 mov	 rax, QWORD PTR __security_cookie
  00013	48 33 c4	 xor	 rax, rsp
  00016	48 89 84 24 90
	04 00 00	 mov	 QWORD PTR __$ArrayPad$[rsp], rax

; 547  : 	unsigned char buf [ENCRYPTION_DATA_UNIT_SIZE * 2];
; 548  : 	unsigned int i;
; 549  : 	char name[64];
; 550  : 	unsigned __int32 crc;
; 551  : 	UINT64_STRUCT unitNo;
; 552  : 	uint32 nbrUnits;
; 553  : 	int blockSize;
; 554  : 	int nTestsPerformed = 0;

  0001e	c7 84 24 84 04
	00 00 00 00 00
	00		 mov	 DWORD PTR nTestsPerformed$[rsp], 0

; 555  : 
; 556  : 	unitNo.Value = 0x0234567890ABCDEFull;

  00029	48 b8 ef cd ab
	90 78 56 34 02	 mov	 rax, 158846962688052719	; 0234567890abcdefH
  00033	48 89 44 24 28	 mov	 QWORD PTR unitNo$[rsp], rax

; 557  : 	nbrUnits = sizeof (buf) / ENCRYPTION_DATA_UNIT_SIZE;

  00038	c7 84 24 80 04
	00 00 02 00 00
	00		 mov	 DWORD PTR nbrUnits$[rsp], 2

; 558  : 
; 559  : 	for (i = 0; i < sizeof (buf); i++)

  00043	c7 44 24 24 00
	00 00 00	 mov	 DWORD PTR i$[rsp], 0
  0004b	eb 0b		 jmp	 SHORT $LN19@TestLegacy
$LN18@TestLegacy:
  0004d	8b 44 24 24	 mov	 eax, DWORD PTR i$[rsp]
  00051	83 c0 01	 add	 eax, 1
  00054	89 44 24 24	 mov	 DWORD PTR i$[rsp], eax
$LN19@TestLegacy:
  00058	8b 44 24 24	 mov	 eax, DWORD PTR i$[rsp]
  0005c	48 3d 00 04 00
	00		 cmp	 rax, 1024		; 00000400H
  00062	73 12		 jae	 SHORT $LN17@TestLegacy

; 560  : 		buf[i] = (unsigned char) i;

  00064	8b 4c 24 24	 mov	 ecx, DWORD PTR i$[rsp]
  00068	0f b6 44 24 24	 movzx	 eax, BYTE PTR i$[rsp]
  0006d	88 84 0c 80 00
	00 00		 mov	 BYTE PTR buf$[rsp+rcx], al
  00074	eb d7		 jmp	 SHORT $LN18@TestLegacy
$LN17@TestLegacy:

; 561  : 
; 562  : 	for (i = 0; i < sizeof (ci->k2); i++)

  00076	c7 44 24 24 00
	00 00 00	 mov	 DWORD PTR i$[rsp], 0
  0007e	eb 0b		 jmp	 SHORT $LN16@TestLegacy
$LN15@TestLegacy:
  00080	8b 44 24 24	 mov	 eax, DWORD PTR i$[rsp]
  00084	83 c0 01	 add	 eax, 1
  00087	89 44 24 24	 mov	 DWORD PTR i$[rsp], eax
$LN16@TestLegacy:
  0008b	8b 44 24 24	 mov	 eax, DWORD PTR i$[rsp]
  0008f	48 3d 00 01 00
	00		 cmp	 rax, 256		; 00000100H
  00095	73 1a		 jae	 SHORT $LN14@TestLegacy

; 563  : 		ci->k2[i] = (unsigned char) i;

  00097	8b 54 24 24	 mov	 edx, DWORD PTR i$[rsp]
  0009b	48 8b 8c 24 b0
	04 00 00	 mov	 rcx, QWORD PTR ci$[rsp]
  000a3	0f b6 44 24 24	 movzx	 eax, BYTE PTR i$[rsp]
  000a8	88 84 11 50 1d
	00 00		 mov	 BYTE PTR [rcx+rdx+7504], al
  000af	eb cf		 jmp	 SHORT $LN15@TestLegacy
$LN14@TestLegacy:

; 564  : 
; 565  : 	// Test all EAs
; 566  : 	for (ci->ea = EAGetFirst (); ci->ea != 0; ci->ea = EAGetNext (ci->ea))

  000b1	e8 00 00 00 00	 call	 EAGetFirst
  000b6	44 8b d8	 mov	 r11d, eax
  000b9	48 8b 84 24 b0
	04 00 00	 mov	 rax, QWORD PTR ci$[rsp]
  000c1	44 89 18	 mov	 DWORD PTR [rax], r11d
  000c4	eb 1d		 jmp	 SHORT $LN13@TestLegacy
$LN12@TestLegacy:
  000c6	48 8b 84 24 b0
	04 00 00	 mov	 rax, QWORD PTR ci$[rsp]
  000ce	8b 08		 mov	 ecx, DWORD PTR [rax]
  000d0	e8 00 00 00 00	 call	 EAGetNext
  000d5	44 8b d8	 mov	 r11d, eax
  000d8	48 8b 84 24 b0
	04 00 00	 mov	 rax, QWORD PTR ci$[rsp]
  000e0	44 89 18	 mov	 DWORD PTR [rax], r11d
$LN13@TestLegacy:
  000e3	48 8b 84 24 b0
	04 00 00	 mov	 rax, QWORD PTR ci$[rsp]
  000eb	83 38 00	 cmp	 DWORD PTR [rax], 0
  000ee	0f 84 06 02 00
	00		 je	 $LN11@TestLegacy

; 567  : 	{
; 568  : 		EAGetName (name, ci->ea);

  000f4	48 8b 84 24 b0
	04 00 00	 mov	 rax, QWORD PTR ci$[rsp]
  000fc	8b 10		 mov	 edx, DWORD PTR [rax]
  000fe	48 8d 4c 24 40	 lea	 rcx, QWORD PTR name$[rsp]
  00103	e8 00 00 00 00	 call	 EAGetName

; 569  : 		blockSize = CipherGetBlockSize (EAGetFirstCipher (ci->ea));

  00108	4c 8b 9c 24 b0
	04 00 00	 mov	 r11, QWORD PTR ci$[rsp]
  00110	41 8b 0b	 mov	 ecx, DWORD PTR [r11]
  00113	e8 00 00 00 00	 call	 EAGetFirstCipher
  00118	8b c8		 mov	 ecx, eax
  0011a	e8 00 00 00 00	 call	 CipherGetBlockSize
  0011f	89 84 24 88 04
	00 00		 mov	 DWORD PTR blockSize$[rsp], eax

; 570  : 
; 571  : 		if (EAInit (ci->ea, (unsigned char *)buf, ci->ks) == ERR_CIPHER_INIT_FAILURE)

  00126	4c 8b 84 24 b0
	04 00 00	 mov	 r8, QWORD PTR ci$[rsp]
  0012e	49 83 c0 08	 add	 r8, 8
  00132	48 8d 94 24 80
	00 00 00	 lea	 rdx, QWORD PTR buf$[rsp]
  0013a	48 8b 84 24 b0
	04 00 00	 mov	 rax, QWORD PTR ci$[rsp]
  00142	8b 08		 mov	 ecx, DWORD PTR [rax]
  00144	e8 00 00 00 00	 call	 EAInit
  00149	83 f8 11	 cmp	 eax, 17
  0014c	75 07		 jne	 SHORT $LN10@TestLegacy

; 572  : 			return FALSE;

  0014e	33 c0		 xor	 eax, eax
  00150	e9 aa 01 00 00	 jmp	 $LN20@TestLegacy
$LN10@TestLegacy:

; 573  : 
; 574  : 		// Test all deprecated modes of operation
; 575  : 		for (ci->mode = EAGetFirstMode (ci->ea);
; 576  : 			ci->mode != 0;
; 577  : 			ci->mode = EAGetNextMode (ci->ea, ci->mode))

  00155	48 8b 84 24 b0
	04 00 00	 mov	 rax, QWORD PTR ci$[rsp]
  0015d	8b 08		 mov	 ecx, DWORD PTR [rax]
  0015f	e8 00 00 00 00	 call	 EAGetFirstMode
  00164	44 8b d8	 mov	 r11d, eax
  00167	48 8b 84 24 b0
	04 00 00	 mov	 rax, QWORD PTR ci$[rsp]
  0016f	44 89 58 04	 mov	 DWORD PTR [rax+4], r11d
  00173	eb 29		 jmp	 SHORT $LN9@TestLegacy
$LN8@TestLegacy:
  00175	48 8b 84 24 b0
	04 00 00	 mov	 rax, QWORD PTR ci$[rsp]
  0017d	8b 50 04	 mov	 edx, DWORD PTR [rax+4]
  00180	48 8b 84 24 b0
	04 00 00	 mov	 rax, QWORD PTR ci$[rsp]
  00188	8b 08		 mov	 ecx, DWORD PTR [rax]
  0018a	e8 00 00 00 00	 call	 EAGetNextMode
  0018f	44 8b d8	 mov	 r11d, eax
  00192	48 8b 84 24 b0
	04 00 00	 mov	 rax, QWORD PTR ci$[rsp]
  0019a	44 89 58 04	 mov	 DWORD PTR [rax+4], r11d
$LN9@TestLegacy:
  0019e	48 8b 84 24 b0
	04 00 00	 mov	 rax, QWORD PTR ci$[rsp]
  001a6	83 78 04 00	 cmp	 DWORD PTR [rax+4], 0
  001aa	0f 84 45 01 00
	00		 je	 $LN7@TestLegacy

; 578  : 		{
; 579  : 			// Skip modes that are not deprecated
; 580  : 			if (ci->mode == XTS || ci->mode == XTS8)

  001b0	48 8b 84 24 b0
	04 00 00	 mov	 rax, QWORD PTR ci$[rsp]
  001b8	83 78 04 01	 cmp	 DWORD PTR [rax+4], 1
  001bc	74 0e		 je	 SHORT $LN5@TestLegacy
  001be	48 8b 84 24 b0
	04 00 00	 mov	 rax, QWORD PTR ci$[rsp]
  001c6	83 78 04 02	 cmp	 DWORD PTR [rax+4], 2
  001ca	75 02		 jne	 SHORT $LN6@TestLegacy
$LN5@TestLegacy:

; 581  : 				continue;

  001cc	eb a7		 jmp	 SHORT $LN8@TestLegacy
$LN6@TestLegacy:

; 582  : 
; 583  : 			EncryptDataUnits (buf, &unitNo, nbrUnits, ci);

  001ce	4c 8b 8c 24 b0
	04 00 00	 mov	 r9, QWORD PTR ci$[rsp]
  001d6	44 8b 84 24 80
	04 00 00	 mov	 r8d, DWORD PTR nbrUnits$[rsp]
  001de	48 8d 54 24 28	 lea	 rdx, QWORD PTR unitNo$[rsp]
  001e3	48 8d 8c 24 80
	00 00 00	 lea	 rcx, QWORD PTR buf$[rsp]
  001eb	e8 00 00 00 00	 call	 EncryptDataUnits

; 584  : 			crc = GetCrc32 (buf, sizeof (buf));

  001f0	ba 00 04 00 00	 mov	 edx, 1024		; 00000400H
  001f5	48 8d 8c 24 80
	00 00 00	 lea	 rcx, QWORD PTR buf$[rsp]
  001fd	e8 00 00 00 00	 call	 GetCrc32
  00202	89 44 24 20	 mov	 DWORD PTR crc$[rsp], eax

; 585  : 
; 586  : 			if (crc == 0xb70b4c26)

  00206	81 7c 24 20 26
	4c 0b b7	 cmp	 DWORD PTR crc$[rsp], -1223996378 ; b70b4c26H
  0020e	75 07		 jne	 SHORT $LN4@TestLegacy

; 587  : 				return FALSE;

  00210	33 c0		 xor	 eax, eax
  00212	e9 e8 00 00 00	 jmp	 $LN20@TestLegacy
$LN4@TestLegacy:

; 588  : 
; 589  : 			DecryptDataUnits (buf, &unitNo, nbrUnits, ci);

  00217	4c 8b 8c 24 b0
	04 00 00	 mov	 r9, QWORD PTR ci$[rsp]
  0021f	44 8b 84 24 80
	04 00 00	 mov	 r8d, DWORD PTR nbrUnits$[rsp]
  00227	48 8d 54 24 28	 lea	 rdx, QWORD PTR unitNo$[rsp]
  0022c	48 8d 8c 24 80
	00 00 00	 lea	 rcx, QWORD PTR buf$[rsp]
  00234	e8 00 00 00 00	 call	 DecryptDataUnits

; 590  : 
; 591  : 			if (GetCrc32 (buf, sizeof (buf)) != 0xb70b4c26)

  00239	ba 00 04 00 00	 mov	 edx, 1024		; 00000400H
  0023e	48 8d 8c 24 80
	00 00 00	 lea	 rcx, QWORD PTR buf$[rsp]
  00246	e8 00 00 00 00	 call	 GetCrc32
  0024b	3d 26 4c 0b b7	 cmp	 eax, -1223996378	; b70b4c26H
  00250	74 07		 je	 SHORT $LN3@TestLegacy

; 592  : 				return FALSE;

  00252	33 c0		 xor	 eax, eax
  00254	e9 a6 00 00 00	 jmp	 $LN20@TestLegacy
$LN3@TestLegacy:

; 593  : 
; 594  : 			nTestsPerformed++;

  00259	8b 84 24 84 04
	00 00		 mov	 eax, DWORD PTR nTestsPerformed$[rsp]
  00260	83 c0 01	 add	 eax, 1
  00263	89 84 24 84 04
	00 00		 mov	 DWORD PTR nTestsPerformed$[rsp], eax

; 595  : 
; 596  : 			EncryptBuffer (buf, sizeof (buf), ci);

  0026a	4c 8b 84 24 b0
	04 00 00	 mov	 r8, QWORD PTR ci$[rsp]
  00272	ba 00 04 00 00	 mov	 edx, 1024		; 00000400H
  00277	48 8d 8c 24 80
	00 00 00	 lea	 rcx, QWORD PTR buf$[rsp]
  0027f	e8 00 00 00 00	 call	 EncryptBuffer

; 597  : 			crc = GetCrc32 (buf, sizeof (buf));

  00284	ba 00 04 00 00	 mov	 edx, 1024		; 00000400H
  00289	48 8d 8c 24 80
	00 00 00	 lea	 rcx, QWORD PTR buf$[rsp]
  00291	e8 00 00 00 00	 call	 GetCrc32
  00296	89 44 24 20	 mov	 DWORD PTR crc$[rsp], eax

; 598  : 
; 599  : 			if (crc == 0xb70b4c26)

  0029a	81 7c 24 20 26
	4c 0b b7	 cmp	 DWORD PTR crc$[rsp], -1223996378 ; b70b4c26H
  002a2	75 04		 jne	 SHORT $LN2@TestLegacy

; 600  : 				return FALSE;

  002a4	33 c0		 xor	 eax, eax
  002a6	eb 57		 jmp	 SHORT $LN20@TestLegacy
$LN2@TestLegacy:

; 601  : 
; 602  : 			DecryptBuffer (buf, sizeof (buf), ci);

  002a8	4c 8b 84 24 b0
	04 00 00	 mov	 r8, QWORD PTR ci$[rsp]
  002b0	ba 00 04 00 00	 mov	 edx, 1024		; 00000400H
  002b5	48 8d 8c 24 80
	00 00 00	 lea	 rcx, QWORD PTR buf$[rsp]
  002bd	e8 00 00 00 00	 call	 DecryptBuffer

; 603  : 
; 604  : 			if (GetCrc32 (buf, sizeof (buf)) != 0xb70b4c26)

  002c2	ba 00 04 00 00	 mov	 edx, 1024		; 00000400H
  002c7	48 8d 8c 24 80
	00 00 00	 lea	 rcx, QWORD PTR buf$[rsp]
  002cf	e8 00 00 00 00	 call	 GetCrc32
  002d4	3d 26 4c 0b b7	 cmp	 eax, -1223996378	; b70b4c26H
  002d9	74 04		 je	 SHORT $LN1@TestLegacy

; 605  : 				return FALSE;

  002db	33 c0		 xor	 eax, eax
  002dd	eb 20		 jmp	 SHORT $LN20@TestLegacy
$LN1@TestLegacy:

; 606  : 
; 607  : 			nTestsPerformed++;

  002df	8b 84 24 84 04
	00 00		 mov	 eax, DWORD PTR nTestsPerformed$[rsp]
  002e6	83 c0 01	 add	 eax, 1
  002e9	89 84 24 84 04
	00 00		 mov	 DWORD PTR nTestsPerformed$[rsp], eax

; 608  : 		}

  002f0	e9 80 fe ff ff	 jmp	 $LN8@TestLegacy
$LN7@TestLegacy:

; 609  : 	}

  002f5	e9 cc fd ff ff	 jmp	 $LN12@TestLegacy
$LN11@TestLegacy:

; 610  : 	return 1;//(nTestsPerformed == 86);

  002fa	b8 01 00 00 00	 mov	 eax, 1
$LN20@TestLegacy:

; 611  : }

  002ff	48 8b 8c 24 90
	04 00 00	 mov	 rcx, QWORD PTR __$ArrayPad$[rsp]
  00307	48 33 cc	 xor	 rcx, rsp
  0030a	e8 00 00 00 00	 call	 __security_check_cookie
  0030f	48 81 c4 a8 04
	00 00		 add	 rsp, 1192		; 000004a8H
  00316	c3		 ret	 0
TestLegacySectorBufEncryption ENDP
_TEXT	ENDS
PUBLIC	__$ArrayPad$
PUBLIC	TestSectorBufEncryption
;	COMDAT pdata
pdata	SEGMENT
$pdata$TestSectorBufEncryption DD imagerel $LN67
	DD	imagerel $LN67+1838
	DD	imagerel $unwind$TestSectorBufEncryption
pdata	ENDS
;	COMDAT xdata
xdata	SEGMENT
$unwind$TestSectorBufEncryption DD 042019H
	DD	0117010eH
	DD	060067007H
	DD	imagerel __GSHandlerCheck
	DD	08a0H
; Function compile flags: /Odtp
xdata	ENDS
;	COMDAT TestSectorBufEncryption
_TEXT	SEGMENT
testCase$ = 32
crc$ = 36
i$ = 40
unitNo$ = 48
name$ = 64
writeOffset$ = 128
buf$ = 144
nbrUnits$ = 2192
nTestsPerformed$ = 2196
tv176 = 2200
__$ArrayPad$ = 2208
ci$ = 2256
TestSectorBufEncryption PROC				; COMDAT

; 356  : {

$LN67:
  00000	48 89 4c 24 08	 mov	 QWORD PTR [rsp+8], rcx
  00005	56		 push	 rsi
  00006	57		 push	 rdi
  00007	48 81 ec b8 08
	00 00		 sub	 rsp, 2232		; 000008b8H
  0000e	48 8b 05 00 00
	00 00		 mov	 rax, QWORD PTR __security_cookie
  00015	48 33 c4	 xor	 rax, rsp
  00018	48 89 84 24 a0
	08 00 00	 mov	 QWORD PTR __$ArrayPad$[rsp], rax

; 357  : 	unsigned char buf[ENCRYPTION_DATA_UNIT_SIZE * 4];
; 358  : 	unsigned int i;
; 359  : 	char name[64];
; 360  : 	unsigned __int32 crc;
; 361  : 	UINT64_STRUCT unitNo;
; 362  : 	uint32 nbrUnits;
; 363  : 	unsigned __int64 writeOffset;
; 364  : 	int testCase = 0;

  00020	c7 44 24 20 00
	00 00 00	 mov	 DWORD PTR testCase$[rsp], 0

; 365  : 	int nTestsPerformed = 0;

  00028	c7 84 24 94 08
	00 00 00 00 00
	00		 mov	 DWORD PTR nTestsPerformed$[rsp], 0

; 366  : 
; 367  : 	static unsigned char key1[] =
; 368  : 	{
; 369  : 		0x27, 0x18, 0x28, 0x18, 0x28, 0x45, 0x90, 0x45, 0x23, 0x53, 0x60, 0x28, 0x74, 0x71, 0x35, 0x26, 0x62, 0x49, 0x77, 0x57, 0x24, 0x70, 0x93, 0x69, 0x99, 0x59, 0x57, 0x49, 0x66, 0x96, 0x76, 0x27,
; 370  : 		0x31, 0x41, 0x59, 0x26, 0x53, 0x58, 0x97, 0x93, 0x23, 0x84, 0x62, 0x64, 0x33, 0x83, 0x27, 0x95, 0x02, 0x88, 0x41, 0x97, 0x16, 0x93, 0x99, 0x37, 0x51, 0x05, 0x82, 0x09, 0x74, 0x94, 0x45, 0x92,
; 371  : 		0x00, 0x00, 0x00, 0xff, 0xff, 0xff, 0xff, 0xff, 0x00, 0x00, 0x00, 0x00, 0x00, 0x01, 0x02, 0x03, 0x04, 0x05, 0x06, 0x07, 0x08, 0x09, 0x0a, 0x0b, 0x0c, 0x0d, 0x0e, 0x0f, 0x10, 0x11, 0x12, 0x13
; 372  : 	};
; 373  : 
; 374  : 	if (!TestLegacySectorBufEncryption(ci))

  00033	48 8b 8c 24 d0
	08 00 00	 mov	 rcx, QWORD PTR ci$[rsp]
  0003b	e8 00 00 00 00	 call	 TestLegacySectorBufEncryption
  00040	85 c0		 test	 eax, eax
  00042	75 07		 jne	 SHORT $LN52@TestSector

; 375  : 		return FALSE;

  00044	33 c0		 xor	 eax, eax
  00046	e9 c9 06 00 00	 jmp	 $LN53@TestSector
$LN52@TestSector:

; 376  : 
; 377  : 
; 378  : 	/* Encryption/decryption of data units (typically, volume data sectors) */
; 379  : 
; 380  : 	nbrUnits = sizeof (buf) / ENCRYPTION_DATA_UNIT_SIZE;

  0004b	c7 84 24 90 08
	00 00 04 00 00
	00		 mov	 DWORD PTR nbrUnits$[rsp], 4

; 381  : 
; 382  : 	/* The buffer can accommodate 4 data units and we'll test 4 cases by "scrolling". The data unit 0xFFFFFFFFFF
; 383  : 	will "move" from the start of the buffer to its end. For a 512-byte data unit, the byte offset 562949953420800
; 384  : 	corresponds to the data unit 0xFFFFFFFFFF. */
; 385  : 	for (writeOffset = 562949953420800ULL;
; 386  : 		writeOffset > 562949953420800ULL - nbrUnits * ENCRYPTION_DATA_UNIT_SIZE;
; 387  : 		writeOffset -= ENCRYPTION_DATA_UNIT_SIZE)

  00056	48 b8 00 fe ff
	ff ff ff 01 00	 mov	 rax, 562949953420800	; 0001fffffffffe00H
  00060	48 89 84 24 80
	00 00 00	 mov	 QWORD PTR writeOffset$[rsp], rax
  00068	eb 16		 jmp	 SHORT $LN51@TestSector
$LN50@TestSector:
  0006a	48 8b 84 24 80
	00 00 00	 mov	 rax, QWORD PTR writeOffset$[rsp]
  00072	48 2d 00 02 00
	00		 sub	 rax, 512		; 00000200H
  00078	48 89 84 24 80
	00 00 00	 mov	 QWORD PTR writeOffset$[rsp], rax
$LN51@TestSector:
  00080	8b 84 24 90 08
	00 00		 mov	 eax, DWORD PTR nbrUnits$[rsp]
  00087	69 c0 00 02 00
	00		 imul	 eax, 512		; 00000200H
  0008d	8b c8		 mov	 ecx, eax
  0008f	48 b8 00 fe ff
	ff ff ff 01 00	 mov	 rax, 562949953420800	; 0001fffffffffe00H
  00099	48 2b c1	 sub	 rax, rcx
  0009c	48 39 84 24 80
	00 00 00	 cmp	 QWORD PTR writeOffset$[rsp], rax
  000a4	0f 86 bd 03 00
	00		 jbe	 $LN49@TestSector

; 388  : 	{
; 389  : 		unitNo.Value = writeOffset / ENCRYPTION_DATA_UNIT_SIZE;

  000aa	33 d2		 xor	 edx, edx
  000ac	48 8b 84 24 80
	00 00 00	 mov	 rax, QWORD PTR writeOffset$[rsp]
  000b4	b9 00 02 00 00	 mov	 ecx, 512		; 00000200H
  000b9	48 f7 f1	 div	 rcx
  000bc	48 89 44 24 30	 mov	 QWORD PTR unitNo$[rsp], rax

; 390  : 
; 391  : 		// Test all EAs that support this mode of operation
; 392  : 		for (ci->ea = EAGetFirst(); ci->ea != 0; ci->ea = EAGetNext(ci->ea))

  000c1	e8 00 00 00 00	 call	 EAGetFirst
  000c6	8b d0		 mov	 edx, eax
  000c8	48 8b 84 24 d0
	08 00 00	 mov	 rax, QWORD PTR ci$[rsp]
  000d0	89 10		 mov	 DWORD PTR [rax], edx
  000d2	eb 1b		 jmp	 SHORT $LN48@TestSector
$LN47@TestSector:
  000d4	48 8b 84 24 d0
	08 00 00	 mov	 rax, QWORD PTR ci$[rsp]
  000dc	8b 08		 mov	 ecx, DWORD PTR [rax]
  000de	e8 00 00 00 00	 call	 EAGetNext
  000e3	8b d0		 mov	 edx, eax
  000e5	48 8b 84 24 d0
	08 00 00	 mov	 rax, QWORD PTR ci$[rsp]
  000ed	89 10		 mov	 DWORD PTR [rax], edx
$LN48@TestSector:
  000ef	48 8b 84 24 d0
	08 00 00	 mov	 rax, QWORD PTR ci$[rsp]
  000f7	83 38 00	 cmp	 DWORD PTR [rax], 0
  000fa	0f 84 57 03 00
	00		 je	 $LN46@TestSector

; 393  : 		{
; 394  : 			for (ci->mode = EAGetFirstMode(ci->ea); ci->mode != 0; ci->mode = EAGetNextMode(ci->ea, ci->mode))

  00100	48 8b 84 24 d0
	08 00 00	 mov	 rax, QWORD PTR ci$[rsp]
  00108	8b 08		 mov	 ecx, DWORD PTR [rax]
  0010a	e8 00 00 00 00	 call	 EAGetFirstMode
  0010f	8b d0		 mov	 edx, eax
  00111	48 8b 84 24 d0
	08 00 00	 mov	 rax, QWORD PTR ci$[rsp]
  00119	89 50 04	 mov	 DWORD PTR [rax+4], edx
  0011c	eb 27		 jmp	 SHORT $LN45@TestSector
$LN44@TestSector:
  0011e	48 8b 84 24 d0
	08 00 00	 mov	 rax, QWORD PTR ci$[rsp]
  00126	8b 50 04	 mov	 edx, DWORD PTR [rax+4]
  00129	48 8b 84 24 d0
	08 00 00	 mov	 rax, QWORD PTR ci$[rsp]
  00131	8b 08		 mov	 ecx, DWORD PTR [rax]
  00133	e8 00 00 00 00	 call	 EAGetNextMode
  00138	8b d0		 mov	 edx, eax
  0013a	48 8b 84 24 d0
	08 00 00	 mov	 rax, QWORD PTR ci$[rsp]
  00142	89 50 04	 mov	 DWORD PTR [rax+4], edx
$LN45@TestSector:
  00145	48 8b 84 24 d0
	08 00 00	 mov	 rax, QWORD PTR ci$[rsp]
  0014d	83 78 04 00	 cmp	 DWORD PTR [rax+4], 0
  00151	0f 84 fb 02 00
	00		 je	 $LN43@TestSector

; 395  : 			{
; 396  : 				if (!EAIsModeSupported(ci->ea, ci->mode))

  00157	48 8b 84 24 d0
	08 00 00	 mov	 rax, QWORD PTR ci$[rsp]
  0015f	8b 50 04	 mov	 edx, DWORD PTR [rax+4]
  00162	48 8b 84 24 d0
	08 00 00	 mov	 rax, QWORD PTR ci$[rsp]
  0016a	8b 08		 mov	 ecx, DWORD PTR [rax]
  0016c	e8 00 00 00 00	 call	 EAIsModeSupported
  00171	85 c0		 test	 eax, eax
  00173	75 02		 jne	 SHORT $LN42@TestSector

; 397  : 					continue;

  00175	eb a7		 jmp	 SHORT $LN44@TestSector
$LN42@TestSector:

; 398  : 
; 399  : 				EAGetName(name, ci->ea);

  00177	48 8b 84 24 d0
	08 00 00	 mov	 rax, QWORD PTR ci$[rsp]
  0017f	8b 10		 mov	 edx, DWORD PTR [rax]
  00181	48 8d 4c 24 40	 lea	 rcx, QWORD PTR name$[rsp]
  00186	e8 00 00 00 00	 call	 EAGetName

; 400  : 
; 401  : 				if (EAInit(ci->ea, key1, ci->ks) != ERR_SUCCESS)

  0018b	4c 8b 84 24 d0
	08 00 00	 mov	 r8, QWORD PTR ci$[rsp]
  00193	49 83 c0 08	 add	 r8, 8
  00197	48 8d 15 00 00
	00 00		 lea	 rdx, OFFSET FLAT:?key1@?1??TestSectorBufEncryption@@9@9
  0019e	48 8b 84 24 d0
	08 00 00	 mov	 rax, QWORD PTR ci$[rsp]
  001a6	8b 08		 mov	 ecx, DWORD PTR [rax]
  001a8	e8 00 00 00 00	 call	 EAInit
  001ad	85 c0		 test	 eax, eax
  001af	74 07		 je	 SHORT $LN41@TestSector

; 402  : 					return FALSE;

  001b1	33 c0		 xor	 eax, eax
  001b3	e9 5c 05 00 00	 jmp	 $LN53@TestSector
$LN41@TestSector:

; 403  : 
; 404  : 				for (i = 0; i < sizeof (ci->k2); i++)

  001b8	c7 44 24 28 00
	00 00 00	 mov	 DWORD PTR i$[rsp], 0
  001c0	eb 0b		 jmp	 SHORT $LN40@TestSector
$LN39@TestSector:
  001c2	8b 44 24 28	 mov	 eax, DWORD PTR i$[rsp]
  001c6	83 c0 01	 add	 eax, 1
  001c9	89 44 24 28	 mov	 DWORD PTR i$[rsp], eax
$LN40@TestSector:
  001cd	8b 44 24 28	 mov	 eax, DWORD PTR i$[rsp]
  001d1	48 3d 00 01 00
	00		 cmp	 rax, 256		; 00000100H
  001d7	73 1a		 jae	 SHORT $LN38@TestSector

; 405  : 					ci->k2[i] = (unsigned char)i;

  001d9	8b 54 24 28	 mov	 edx, DWORD PTR i$[rsp]
  001dd	48 8b 8c 24 d0
	08 00 00	 mov	 rcx, QWORD PTR ci$[rsp]
  001e5	0f b6 44 24 28	 movzx	 eax, BYTE PTR i$[rsp]
  001ea	88 84 11 50 1d
	00 00		 mov	 BYTE PTR [rcx+rdx+7504], al
  001f1	eb cf		 jmp	 SHORT $LN39@TestSector
$LN38@TestSector:

; 406  : 
; 407  : 				memcpy(&ci->k2, XTS_vectors[XTS_TEST_COUNT - 1].key2, sizeof (XTS_vectors[XTS_TEST_COUNT - 1].key2));

  001f3	48 8d 35 00 00
	00 00		 lea	 rsi, OFFSET FLAT:XTS_vectors
  001fa	48 8b bc 24 d0
	08 00 00	 mov	 rdi, QWORD PTR ci$[rsp]
  00202	48 81 c7 50 1d
	00 00		 add	 rdi, 7504		; 00001d50H
  00209	48 81 c6 50 11
	00 00		 add	 rsi, 4432		; 00001150H
  00210	b9 20 00 00 00	 mov	 ecx, 32			; 00000020H
  00215	f3 a4		 rep movsb

; 408  : 
; 409  : 				if (!EAInitMode(ci))

  00217	48 8b 8c 24 d0
	08 00 00	 mov	 rcx, QWORD PTR ci$[rsp]
  0021f	e8 00 00 00 00	 call	 EAInitMode
  00224	85 c0		 test	 eax, eax
  00226	75 07		 jne	 SHORT $LN37@TestSector

; 410  : 					return FALSE;

  00228	33 c0		 xor	 eax, eax
  0022a	e9 e5 04 00 00	 jmp	 $LN53@TestSector
$LN37@TestSector:

; 411  : 
; 412  : 				// Each data unit will contain the same plaintext
; 413  : 				for (i = 0; i < nbrUnits; i++)

  0022f	c7 44 24 28 00
	00 00 00	 mov	 DWORD PTR i$[rsp], 0
  00237	eb 0b		 jmp	 SHORT $LN36@TestSector
$LN35@TestSector:
  00239	8b 44 24 28	 mov	 eax, DWORD PTR i$[rsp]
  0023d	83 c0 01	 add	 eax, 1
  00240	89 44 24 28	 mov	 DWORD PTR i$[rsp], eax
$LN36@TestSector:
  00244	8b 84 24 90 08
	00 00		 mov	 eax, DWORD PTR nbrUnits$[rsp]
  0024b	39 44 24 28	 cmp	 DWORD PTR i$[rsp], eax
  0024f	73 2b		 jae	 SHORT $LN34@TestSector

; 414  : 				{
; 415  : 					memcpy((unsigned char *)buf + i * ENCRYPTION_DATA_UNIT_SIZE,
; 416  : 						XTS_vectors[XTS_TEST_COUNT - 1].plaintext,
; 417  : 						ENCRYPTION_DATA_UNIT_SIZE);

  00251	48 8d 35 00 00
	00 00		 lea	 rsi, OFFSET FLAT:XTS_vectors
  00258	8b 44 24 28	 mov	 eax, DWORD PTR i$[rsp]
  0025c	69 c0 00 02 00
	00		 imul	 eax, 512		; 00000200H
  00262	8b c0		 mov	 eax, eax
  00264	48 8d bc 04 90
	00 00 00	 lea	 rdi, QWORD PTR buf$[rsp+rax]
  0026c	48 81 c6 7c 11
	00 00		 add	 rsi, 4476		; 0000117cH
  00273	b9 00 02 00 00	 mov	 ecx, 512		; 00000200H
  00278	f3 a4		 rep movsb

; 418  : 				}

  0027a	eb bd		 jmp	 SHORT $LN35@TestSector
$LN34@TestSector:

; 419  : 
; 420  : 				EncryptDataUnits(buf, &unitNo, nbrUnits, ci);

  0027c	4c 8b 8c 24 d0
	08 00 00	 mov	 r9, QWORD PTR ci$[rsp]
  00284	44 8b 84 24 90
	08 00 00	 mov	 r8d, DWORD PTR nbrUnits$[rsp]
  0028c	48 8d 54 24 30	 lea	 rdx, QWORD PTR unitNo$[rsp]
  00291	48 8d 8c 24 90
	00 00 00	 lea	 rcx, QWORD PTR buf$[rsp]
  00299	e8 00 00 00 00	 call	 EncryptDataUnits

; 421  : 
; 422  : 				crc = GetCrc32(buf, sizeof (buf));

  0029e	ba 00 08 00 00	 mov	 edx, 2048		; 00000800H
  002a3	48 8d 8c 24 90
	00 00 00	 lea	 rcx, QWORD PTR buf$[rsp]
  002ab	e8 00 00 00 00	 call	 GetCrc32
  002b0	89 44 24 24	 mov	 DWORD PTR crc$[rsp], eax

; 423  : 
; 424  : 				if (strcmp(name, "GOST 28147-89") == 0)

  002b4	48 8d 54 24 40	 lea	 rdx, QWORD PTR name$[rsp]
  002b9	48 8d 0d 00 00
	00 00		 lea	 rcx, OFFSET FLAT:??_C@_0O@POKHNLDL@GOST?528147?989?$AA@FNODOBFM@
  002c0	48 2b ca	 sub	 rcx, rdx
$LL64@TestSector:
  002c3	0f b6 02	 movzx	 eax, BYTE PTR [rdx]
  002c6	3a 04 0a	 cmp	 al, BYTE PTR [rdx+rcx]
  002c9	75 0c		 jne	 SHORT $LN66@TestSector
  002cb	48 83 c2 01	 add	 rdx, 1
  002cf	84 c0		 test	 al, al
  002d1	75 f0		 jne	 SHORT $LL64@TestSector
  002d3	33 c0		 xor	 eax, eax
  002d5	eb 05		 jmp	 SHORT $LN65@TestSector
$LN66@TestSector:
  002d7	1b c0		 sbb	 eax, eax
  002d9	83 d8 ff	 sbb	 eax, -1
$LN65@TestSector:
  002dc	85 c0		 test	 eax, eax
  002de	0f 85 c8 00 00
	00		 jne	 $LN33@TestSector

; 425  : 				{
; 426  : 					switch (testCase)

  002e4	8b 44 24 20	 mov	 eax, DWORD PTR testCase$[rsp]
  002e8	89 84 24 98 08
	00 00		 mov	 DWORD PTR tv176[rsp], eax
  002ef	83 bc 24 98 08
	00 00 00	 cmp	 DWORD PTR tv176[rsp], 0
  002f7	74 23		 je	 SHORT $LN30@TestSector
  002f9	83 bc 24 98 08
	00 00 01	 cmp	 DWORD PTR tv176[rsp], 1
  00301	74 3d		 je	 SHORT $LN28@TestSector
  00303	83 bc 24 98 08
	00 00 02	 cmp	 DWORD PTR tv176[rsp], 2
  0030b	74 57		 je	 SHORT $LN26@TestSector
  0030d	83 bc 24 98 08
	00 00 03	 cmp	 DWORD PTR tv176[rsp], 3
  00315	74 71		 je	 SHORT $LN24@TestSector
  00317	e9 8e 00 00 00	 jmp	 $LN31@TestSector
$LN30@TestSector:

; 427  : 					{
; 428  : 					case 0:
; 429  : #ifdef GOST_DYNAMIC_SBOXES
; 430  : 						if (crc != 0x05eacf7d)

  0031c	81 7c 24 24 7d
	cf ea 05	 cmp	 DWORD PTR crc$[rsp], 99274621 ; 05eacf7dH
  00324	74 07		 je	 SHORT $LN29@TestSector

; 431  : 							return FALSE;

  00326	33 c0		 xor	 eax, eax
  00328	e9 e7 03 00 00	 jmp	 $LN53@TestSector
$LN29@TestSector:

; 432  : #endif
; 433  : 						nTestsPerformed++;

  0032d	8b 84 24 94 08
	00 00		 mov	 eax, DWORD PTR nTestsPerformed$[rsp]
  00334	83 c0 01	 add	 eax, 1
  00337	89 84 24 94 08
	00 00		 mov	 DWORD PTR nTestsPerformed$[rsp], eax

; 434  : 						break;

  0033e	eb 6a		 jmp	 SHORT $LN31@TestSector
$LN28@TestSector:

; 435  : 					case 1:
; 436  : #ifdef GOST_DYNAMIC_SBOXES
; 437  : 						if (crc != 0x5b5926d9)

  00340	81 7c 24 24 d9
	26 59 5b	 cmp	 DWORD PTR crc$[rsp], 1532569305 ; 5b5926d9H
  00348	74 07		 je	 SHORT $LN27@TestSector

; 438  : 							return FALSE;

  0034a	33 c0		 xor	 eax, eax
  0034c	e9 c3 03 00 00	 jmp	 $LN53@TestSector
$LN27@TestSector:

; 439  : #endif
; 440  : 						nTestsPerformed++;

  00351	8b 84 24 94 08
	00 00		 mov	 eax, DWORD PTR nTestsPerformed$[rsp]
  00358	83 c0 01	 add	 eax, 1
  0035b	89 84 24 94 08
	00 00		 mov	 DWORD PTR nTestsPerformed$[rsp], eax

; 441  : 						break;

  00362	eb 46		 jmp	 SHORT $LN31@TestSector
$LN26@TestSector:

; 442  : 					case 2:
; 443  : #ifdef GOST_DYNAMIC_SBOXES
; 444  : 						if (crc != 0xcf0cfdd1)

  00364	81 7c 24 24 d1
	fd 0c cf	 cmp	 DWORD PTR crc$[rsp], -821232175 ; cf0cfdd1H
  0036c	74 07		 je	 SHORT $LN25@TestSector

; 445  : 							return FALSE;

  0036e	33 c0		 xor	 eax, eax
  00370	e9 9f 03 00 00	 jmp	 $LN53@TestSector
$LN25@TestSector:

; 446  : #endif
; 447  : 						nTestsPerformed++;

  00375	8b 84 24 94 08
	00 00		 mov	 eax, DWORD PTR nTestsPerformed$[rsp]
  0037c	83 c0 01	 add	 eax, 1
  0037f	89 84 24 94 08
	00 00		 mov	 DWORD PTR nTestsPerformed$[rsp], eax

; 448  : 						break;

  00386	eb 22		 jmp	 SHORT $LN31@TestSector
$LN24@TestSector:

; 449  : 					case 3:
; 450  : #ifdef GOST_DYNAMIC_SBOXES
; 451  : 						if (crc != 0xe82865a8)

  00388	81 7c 24 24 a8
	65 28 e8	 cmp	 DWORD PTR crc$[rsp], -400005720 ; e82865a8H
  00390	74 07		 je	 SHORT $LN23@TestSector

; 452  : 							return FALSE;

  00392	33 c0		 xor	 eax, eax
  00394	e9 7b 03 00 00	 jmp	 $LN53@TestSector
$LN23@TestSector:

; 453  : #endif
; 454  : 						nTestsPerformed++;

  00399	8b 84 24 94 08
	00 00		 mov	 eax, DWORD PTR nTestsPerformed$[rsp]
  003a0	83 c0 01	 add	 eax, 1
  003a3	89 84 24 94 08
	00 00		 mov	 DWORD PTR nTestsPerformed$[rsp], eax
$LN31@TestSector:

; 455  : 						break;
; 456  : 					}
; 457  : 				}
; 458  : 				else if (strcmp(name, "Gost Grasshopper") == 0)

  003aa	eb 3d		 jmp	 SHORT $LN22@TestSector
$LN33@TestSector:
  003ac	48 8d 54 24 40	 lea	 rdx, QWORD PTR name$[rsp]
  003b1	48 8d 0d 00 00
	00 00		 lea	 rcx, OFFSET FLAT:??_C@_0BB@BMJBGELP@Gost?5Grasshopper?$AA@FNODOBFM@
  003b8	48 2b ca	 sub	 rcx, rdx
$LL61@TestSector:
  003bb	0f b6 02	 movzx	 eax, BYTE PTR [rdx]
  003be	3a 04 0a	 cmp	 al, BYTE PTR [rdx+rcx]
  003c1	75 0c		 jne	 SHORT $LN63@TestSector
  003c3	48 83 c2 01	 add	 rdx, 1
  003c7	84 c0		 test	 al, al
  003c9	75 f0		 jne	 SHORT $LL61@TestSector
  003cb	33 c0		 xor	 eax, eax
  003cd	eb 05		 jmp	 SHORT $LN62@TestSector
$LN63@TestSector:
  003cf	1b c0		 sbb	 eax, eax
  003d1	83 d8 ff	 sbb	 eax, -1
$LN62@TestSector:
  003d4	85 c0		 test	 eax, eax
  003d6	75 11		 jne	 SHORT $LN21@TestSector

; 459  : 					nTestsPerformed++;

  003d8	8b 84 24 94 08
	00 00		 mov	 eax, DWORD PTR nTestsPerformed$[rsp]
  003df	83 c0 01	 add	 eax, 1
  003e2	89 84 24 94 08
	00 00		 mov	 DWORD PTR nTestsPerformed$[rsp], eax
$LN21@TestSector:
$LN22@TestSector:

; 460  : 
; 461  : 				if (crc == 0x9f5edd58)

  003e9	81 7c 24 24 58
	dd 5e 9f	 cmp	 DWORD PTR crc$[rsp], -1621172904 ; 9f5edd58H
  003f1	75 07		 jne	 SHORT $LN20@TestSector

; 462  : 					return FALSE;

  003f3	33 c0		 xor	 eax, eax
  003f5	e9 1a 03 00 00	 jmp	 $LN53@TestSector
$LN20@TestSector:

; 463  : 
; 464  : 				DecryptDataUnits(buf, &unitNo, nbrUnits, ci);

  003fa	4c 8b 8c 24 d0
	08 00 00	 mov	 r9, QWORD PTR ci$[rsp]
  00402	44 8b 84 24 90
	08 00 00	 mov	 r8d, DWORD PTR nbrUnits$[rsp]
  0040a	48 8d 54 24 30	 lea	 rdx, QWORD PTR unitNo$[rsp]
  0040f	48 8d 8c 24 90
	00 00 00	 lea	 rcx, QWORD PTR buf$[rsp]
  00417	e8 00 00 00 00	 call	 DecryptDataUnits

; 465  : 
; 466  : 				if (GetCrc32(buf, sizeof (buf)) != 0x9f5edd58)

  0041c	ba 00 08 00 00	 mov	 edx, 2048		; 00000800H
  00421	48 8d 8c 24 90
	00 00 00	 lea	 rcx, QWORD PTR buf$[rsp]
  00429	e8 00 00 00 00	 call	 GetCrc32
  0042e	3d 58 dd 5e 9f	 cmp	 eax, -1621172904	; 9f5edd58H
  00433	74 07		 je	 SHORT $LN19@TestSector

; 467  : 					return FALSE;

  00435	33 c0		 xor	 eax, eax
  00437	e9 d8 02 00 00	 jmp	 $LN53@TestSector
$LN19@TestSector:

; 468  : 
; 469  : 				nTestsPerformed++;

  0043c	8b 84 24 94 08
	00 00		 mov	 eax, DWORD PTR nTestsPerformed$[rsp]
  00443	83 c0 01	 add	 eax, 1
  00446	89 84 24 94 08
	00 00		 mov	 DWORD PTR nTestsPerformed$[rsp], eax

; 470  : 			}

  0044d	e9 cc fc ff ff	 jmp	 $LN44@TestSector
$LN43@TestSector:

; 471  : 		}

  00452	e9 7d fc ff ff	 jmp	 $LN47@TestSector
$LN46@TestSector:

; 472  : 		testCase++;

  00457	8b 44 24 20	 mov	 eax, DWORD PTR testCase$[rsp]
  0045b	83 c0 01	 add	 eax, 1
  0045e	89 44 24 20	 mov	 DWORD PTR testCase$[rsp], eax

; 473  : 	}

  00462	e9 03 fc ff ff	 jmp	 $LN50@TestSector
$LN49@TestSector:

; 474  : 
; 475  : 	/* Encryption/decryption of a buffer (typically, a volume header) */
; 476  : 
; 477  : 	nbrUnits = sizeof (buf) / ENCRYPTION_DATA_UNIT_SIZE;

  00467	c7 84 24 90 08
	00 00 04 00 00
	00		 mov	 DWORD PTR nbrUnits$[rsp], 4

; 478  : 
; 479  : 	// Test all EAs that support this mode of operation
; 480  : 	for (ci->ea = EAGetFirst(); ci->ea != 0; ci->ea = EAGetNext(ci->ea))

  00472	e8 00 00 00 00	 call	 EAGetFirst
  00477	8b d0		 mov	 edx, eax
  00479	48 8b 84 24 d0
	08 00 00	 mov	 rax, QWORD PTR ci$[rsp]
  00481	89 10		 mov	 DWORD PTR [rax], edx
  00483	eb 1b		 jmp	 SHORT $LN18@TestSector
$LN17@TestSector:
  00485	48 8b 84 24 d0
	08 00 00	 mov	 rax, QWORD PTR ci$[rsp]
  0048d	8b 08		 mov	 ecx, DWORD PTR [rax]
  0048f	e8 00 00 00 00	 call	 EAGetNext
  00494	8b d0		 mov	 edx, eax
  00496	48 8b 84 24 d0
	08 00 00	 mov	 rax, QWORD PTR ci$[rsp]
  0049e	89 10		 mov	 DWORD PTR [rax], edx
$LN18@TestSector:
  004a0	48 8b 84 24 d0
	08 00 00	 mov	 rax, QWORD PTR ci$[rsp]
  004a8	83 38 00	 cmp	 DWORD PTR [rax], 0
  004ab	0f 84 5e 02 00
	00		 je	 $LN16@TestSector

; 481  : 	{
; 482  : 		for (ci->mode = EAGetFirstMode(ci->ea); ci->mode != 0; ci->mode = EAGetNextMode(ci->ea, ci->mode))

  004b1	48 8b 84 24 d0
	08 00 00	 mov	 rax, QWORD PTR ci$[rsp]
  004b9	8b 08		 mov	 ecx, DWORD PTR [rax]
  004bb	e8 00 00 00 00	 call	 EAGetFirstMode
  004c0	8b d0		 mov	 edx, eax
  004c2	48 8b 84 24 d0
	08 00 00	 mov	 rax, QWORD PTR ci$[rsp]
  004ca	89 50 04	 mov	 DWORD PTR [rax+4], edx
  004cd	eb 27		 jmp	 SHORT $LN15@TestSector
$LN14@TestSector:
  004cf	48 8b 84 24 d0
	08 00 00	 mov	 rax, QWORD PTR ci$[rsp]
  004d7	8b 50 04	 mov	 edx, DWORD PTR [rax+4]
  004da	48 8b 84 24 d0
	08 00 00	 mov	 rax, QWORD PTR ci$[rsp]
  004e2	8b 08		 mov	 ecx, DWORD PTR [rax]
  004e4	e8 00 00 00 00	 call	 EAGetNextMode
  004e9	8b d0		 mov	 edx, eax
  004eb	48 8b 84 24 d0
	08 00 00	 mov	 rax, QWORD PTR ci$[rsp]
  004f3	89 50 04	 mov	 DWORD PTR [rax+4], edx
$LN15@TestSector:
  004f6	48 8b 84 24 d0
	08 00 00	 mov	 rax, QWORD PTR ci$[rsp]
  004fe	83 78 04 00	 cmp	 DWORD PTR [rax+4], 0
  00502	0f 84 02 02 00
	00		 je	 $LN13@TestSector

; 483  : 		{
; 484  : 			if (!EAIsModeSupported(ci->ea, ci->mode))

  00508	48 8b 84 24 d0
	08 00 00	 mov	 rax, QWORD PTR ci$[rsp]
  00510	8b 50 04	 mov	 edx, DWORD PTR [rax+4]
  00513	48 8b 84 24 d0
	08 00 00	 mov	 rax, QWORD PTR ci$[rsp]
  0051b	8b 08		 mov	 ecx, DWORD PTR [rax]
  0051d	e8 00 00 00 00	 call	 EAIsModeSupported
  00522	85 c0		 test	 eax, eax
  00524	75 02		 jne	 SHORT $LN12@TestSector

; 485  : 				continue;

  00526	eb a7		 jmp	 SHORT $LN14@TestSector
$LN12@TestSector:

; 486  : 
; 487  : 			EAGetName(name, ci->ea);

  00528	48 8b 84 24 d0
	08 00 00	 mov	 rax, QWORD PTR ci$[rsp]
  00530	8b 10		 mov	 edx, DWORD PTR [rax]
  00532	48 8d 4c 24 40	 lea	 rcx, QWORD PTR name$[rsp]
  00537	e8 00 00 00 00	 call	 EAGetName

; 488  : 
; 489  : 			if (EAInit(ci->ea, key1, ci->ks) != ERR_SUCCESS)

  0053c	4c 8b 84 24 d0
	08 00 00	 mov	 r8, QWORD PTR ci$[rsp]
  00544	49 83 c0 08	 add	 r8, 8
  00548	48 8d 15 00 00
	00 00		 lea	 rdx, OFFSET FLAT:?key1@?1??TestSectorBufEncryption@@9@9
  0054f	48 8b 84 24 d0
	08 00 00	 mov	 rax, QWORD PTR ci$[rsp]
  00557	8b 08		 mov	 ecx, DWORD PTR [rax]
  00559	e8 00 00 00 00	 call	 EAInit
  0055e	85 c0		 test	 eax, eax
  00560	74 07		 je	 SHORT $LN11@TestSector

; 490  : 				return FALSE;

  00562	33 c0		 xor	 eax, eax
  00564	e9 ab 01 00 00	 jmp	 $LN53@TestSector
$LN11@TestSector:

; 491  : 
; 492  : 			memcpy(&ci->k2, XTS_vectors[XTS_TEST_COUNT - 1].key2, sizeof (XTS_vectors[XTS_TEST_COUNT - 1].key2));

  00569	48 8d 35 00 00
	00 00		 lea	 rsi, OFFSET FLAT:XTS_vectors
  00570	48 8b bc 24 d0
	08 00 00	 mov	 rdi, QWORD PTR ci$[rsp]
  00578	48 81 c7 50 1d
	00 00		 add	 rdi, 7504		; 00001d50H
  0057f	48 81 c6 50 11
	00 00		 add	 rsi, 4432		; 00001150H
  00586	b9 20 00 00 00	 mov	 ecx, 32			; 00000020H
  0058b	f3 a4		 rep movsb

; 493  : 
; 494  : 			if (!EAInitMode(ci))

  0058d	48 8b 8c 24 d0
	08 00 00	 mov	 rcx, QWORD PTR ci$[rsp]
  00595	e8 00 00 00 00	 call	 EAInitMode
  0059a	85 c0		 test	 eax, eax
  0059c	75 07		 jne	 SHORT $LN10@TestSector

; 495  : 				return FALSE;

  0059e	33 c0		 xor	 eax, eax
  005a0	e9 6f 01 00 00	 jmp	 $LN53@TestSector
$LN10@TestSector:

; 496  : 
; 497  : 			// Each data unit will contain the same plaintext
; 498  : 			for (i = 0; i < nbrUnits; i++)

  005a5	c7 44 24 28 00
	00 00 00	 mov	 DWORD PTR i$[rsp], 0
  005ad	eb 0b		 jmp	 SHORT $LN9@TestSector
$LN8@TestSector:
  005af	8b 44 24 28	 mov	 eax, DWORD PTR i$[rsp]
  005b3	83 c0 01	 add	 eax, 1
  005b6	89 44 24 28	 mov	 DWORD PTR i$[rsp], eax
$LN9@TestSector:
  005ba	8b 84 24 90 08
	00 00		 mov	 eax, DWORD PTR nbrUnits$[rsp]
  005c1	39 44 24 28	 cmp	 DWORD PTR i$[rsp], eax
  005c5	73 2b		 jae	 SHORT $LN7@TestSector

; 499  : 			{
; 500  : 				memcpy((unsigned char *)buf + i * ENCRYPTION_DATA_UNIT_SIZE,
; 501  : 					XTS_vectors[XTS_TEST_COUNT - 1].plaintext,
; 502  : 					ENCRYPTION_DATA_UNIT_SIZE);

  005c7	48 8d 35 00 00
	00 00		 lea	 rsi, OFFSET FLAT:XTS_vectors
  005ce	8b 44 24 28	 mov	 eax, DWORD PTR i$[rsp]
  005d2	69 c0 00 02 00
	00		 imul	 eax, 512		; 00000200H
  005d8	8b c0		 mov	 eax, eax
  005da	48 8d bc 04 90
	00 00 00	 lea	 rdi, QWORD PTR buf$[rsp+rax]
  005e2	48 81 c6 7c 11
	00 00		 add	 rsi, 4476		; 0000117cH
  005e9	b9 00 02 00 00	 mov	 ecx, 512		; 00000200H
  005ee	f3 a4		 rep movsb

; 503  : 			}

  005f0	eb bd		 jmp	 SHORT $LN8@TestSector
$LN7@TestSector:

; 504  : 
; 505  : 			EncryptBuffer(buf, sizeof (buf), ci);

  005f2	4c 8b 84 24 d0
	08 00 00	 mov	 r8, QWORD PTR ci$[rsp]
  005fa	ba 00 08 00 00	 mov	 edx, 2048		; 00000800H
  005ff	48 8d 8c 24 90
	00 00 00	 lea	 rcx, QWORD PTR buf$[rsp]
  00607	e8 00 00 00 00	 call	 EncryptBuffer

; 506  : 
; 507  : 			crc = GetCrc32(buf, sizeof (buf));

  0060c	ba 00 08 00 00	 mov	 edx, 2048		; 00000800H
  00611	48 8d 8c 24 90
	00 00 00	 lea	 rcx, QWORD PTR buf$[rsp]
  00619	e8 00 00 00 00	 call	 GetCrc32
  0061e	89 44 24 24	 mov	 DWORD PTR crc$[rsp], eax

; 508  : 
; 509  : 			if (strcmp(name, "GOST 28147-89") == 0)

  00622	48 8d 54 24 40	 lea	 rdx, QWORD PTR name$[rsp]
  00627	48 8d 0d 00 00
	00 00		 lea	 rcx, OFFSET FLAT:??_C@_0O@POKHNLDL@GOST?528147?989?$AA@FNODOBFM@
  0062e	48 2b ca	 sub	 rcx, rdx
$LL58@TestSector:
  00631	0f b6 02	 movzx	 eax, BYTE PTR [rdx]
  00634	3a 04 0a	 cmp	 al, BYTE PTR [rdx+rcx]
  00637	75 0c		 jne	 SHORT $LN60@TestSector
  00639	48 83 c2 01	 add	 rdx, 1
  0063d	84 c0		 test	 al, al
  0063f	75 f0		 jne	 SHORT $LL58@TestSector
  00641	33 c0		 xor	 eax, eax
  00643	eb 05		 jmp	 SHORT $LN59@TestSector
$LN60@TestSector:
  00645	1b c0		 sbb	 eax, eax
  00647	83 d8 ff	 sbb	 eax, -1
$LN59@TestSector:
  0064a	85 c0		 test	 eax, eax
  0064c	75 24		 jne	 SHORT $LN6@TestSector

; 510  : 			{
; 511  : #ifdef GOST_DYNAMIC_SBOXES
; 512  : 				if (crc != 0x5d31eec2)

  0064e	81 7c 24 24 c2
	ee 31 5d	 cmp	 DWORD PTR crc$[rsp], 1563553474 ; 5d31eec2H
  00656	74 07		 je	 SHORT $LN5@TestSector

; 513  : 					return FALSE;

  00658	33 c0		 xor	 eax, eax
  0065a	e9 b5 00 00 00	 jmp	 $LN53@TestSector
$LN5@TestSector:

; 514  : #endif
; 515  : 				nTestsPerformed++;

  0065f	8b 84 24 94 08
	00 00		 mov	 eax, DWORD PTR nTestsPerformed$[rsp]
  00666	83 c0 01	 add	 eax, 1
  00669	89 84 24 94 08
	00 00		 mov	 DWORD PTR nTestsPerformed$[rsp], eax
  00670	eb 3d		 jmp	 SHORT $LN4@TestSector
$LN6@TestSector:

; 516  : 			}
; 517  : 			else if (strcmp(name, "Gost Grasshopper") == 0)

  00672	48 8d 54 24 40	 lea	 rdx, QWORD PTR name$[rsp]
  00677	48 8d 0d 00 00
	00 00		 lea	 rcx, OFFSET FLAT:??_C@_0BB@BMJBGELP@Gost?5Grasshopper?$AA@FNODOBFM@
  0067e	48 2b ca	 sub	 rcx, rdx
$LL55@TestSector:
  00681	0f b6 02	 movzx	 eax, BYTE PTR [rdx]
  00684	3a 04 0a	 cmp	 al, BYTE PTR [rdx+rcx]
  00687	75 0c		 jne	 SHORT $LN57@TestSector
  00689	48 83 c2 01	 add	 rdx, 1
  0068d	84 c0		 test	 al, al
  0068f	75 f0		 jne	 SHORT $LL55@TestSector
  00691	33 c0		 xor	 eax, eax
  00693	eb 05		 jmp	 SHORT $LN56@TestSector
$LN57@TestSector:
  00695	1b c0		 sbb	 eax, eax
  00697	83 d8 ff	 sbb	 eax, -1
$LN56@TestSector:
  0069a	85 c0		 test	 eax, eax
  0069c	75 11		 jne	 SHORT $LN3@TestSector

; 518  : 				nTestsPerformed++;

  0069e	8b 84 24 94 08
	00 00		 mov	 eax, DWORD PTR nTestsPerformed$[rsp]
  006a5	83 c0 01	 add	 eax, 1
  006a8	89 84 24 94 08
	00 00		 mov	 DWORD PTR nTestsPerformed$[rsp], eax
$LN3@TestSector:
$LN4@TestSector:

; 519  : 
; 520  : 
; 521  : 			if (crc == 0x9f5edd58)

  006af	81 7c 24 24 58
	dd 5e 9f	 cmp	 DWORD PTR crc$[rsp], -1621172904 ; 9f5edd58H
  006b7	75 04		 jne	 SHORT $LN2@TestSector

; 522  : 				return FALSE;

  006b9	33 c0		 xor	 eax, eax
  006bb	eb 57		 jmp	 SHORT $LN53@TestSector
$LN2@TestSector:

; 523  : 
; 524  : 			DecryptBuffer(buf, sizeof (buf), ci);

  006bd	4c 8b 84 24 d0
	08 00 00	 mov	 r8, QWORD PTR ci$[rsp]
  006c5	ba 00 08 00 00	 mov	 edx, 2048		; 00000800H
  006ca	48 8d 8c 24 90
	00 00 00	 lea	 rcx, QWORD PTR buf$[rsp]
  006d2	e8 00 00 00 00	 call	 DecryptBuffer

; 525  : 
; 526  : 			if (GetCrc32(buf, sizeof (buf)) != 0x9f5edd58)

  006d7	ba 00 08 00 00	 mov	 edx, 2048		; 00000800H
  006dc	48 8d 8c 24 90
	00 00 00	 lea	 rcx, QWORD PTR buf$[rsp]
  006e4	e8 00 00 00 00	 call	 GetCrc32
  006e9	3d 58 dd 5e 9f	 cmp	 eax, -1621172904	; 9f5edd58H
  006ee	74 04		 je	 SHORT $LN1@TestSector

; 527  : 				return FALSE;

  006f0	33 c0		 xor	 eax, eax
  006f2	eb 20		 jmp	 SHORT $LN53@TestSector
$LN1@TestSector:

; 528  : 
; 529  : 			nTestsPerformed++;

  006f4	8b 84 24 94 08
	00 00		 mov	 eax, DWORD PTR nTestsPerformed$[rsp]
  006fb	83 c0 01	 add	 eax, 1
  006fe	89 84 24 94 08
	00 00		 mov	 DWORD PTR nTestsPerformed$[rsp], eax

; 530  : 		}

  00705	e9 c5 fd ff ff	 jmp	 $LN14@TestSector
$LN13@TestSector:

; 531  : 	}

  0070a	e9 76 fd ff ff	 jmp	 $LN17@TestSector
$LN16@TestSector:

; 532  : 
; 533  : 	return 1;

  0070f	b8 01 00 00 00	 mov	 eax, 1
$LN53@TestSector:

; 534  : 	//return (nTestsPerformed == 20); // 2 * number of ea
; 535  : }

  00714	48 8b 8c 24 a0
	08 00 00	 mov	 rcx, QWORD PTR __$ArrayPad$[rsp]
  0071c	48 33 cc	 xor	 rcx, rsp
  0071f	e8 00 00 00 00	 call	 __security_check_cookie
  00724	48 81 c4 b8 08
	00 00		 add	 rsp, 2232		; 000008b8H
  0072b	5f		 pop	 rdi
  0072c	5e		 pop	 rsi
  0072d	c3		 ret	 0
TestSectorBufEncryption ENDP
;	COMDAT pdata
pdata	SEGMENT
$pdata$DoAutoTestAlgorithms DD imagerel DoAutoTestAlgorithms
	DD	imagerel DoAutoTestAlgorithms+151
	DD	imagerel $unwind$DoAutoTestAlgorithms
pdata	ENDS
;	COMDAT xdata
xdata	SEGMENT
$unwind$DoAutoTestAlgorithms DD 020601H
	DD	070025206H
; Function compile flags: /Odtp
xdata	ENDS
;	COMDAT DoAutoTestAlgorithms
_TEXT	SEGMENT
ci$ = 32
bFailed$ = 40
tv79 = 44
DoAutoTestAlgorithms PROC				; COMDAT

; 622  : {

  00000	40 57		 push	 rdi
  00002	48 83 ec 30	 sub	 rsp, 48			; 00000030H

; 623  : 	PCRYPTO_INFO ci;
; 624  : 	BOOL bFailed = FALSE;

  00006	c7 44 24 28 00
	00 00 00	 mov	 DWORD PTR bFailed$[rsp], 0

; 625  : 
; 626  : 	ci = crypto_open ();

  0000e	e8 00 00 00 00	 call	 crypto_open
  00013	48 89 44 24 20	 mov	 QWORD PTR ci$[rsp], rax

; 627  : 	if (!ci)

  00018	48 83 7c 24 20
	00		 cmp	 QWORD PTR ci$[rsp], 0
  0001e	75 04		 jne	 SHORT $LN4@DoAutoTest

; 628  : 		return FALSE;

  00020	33 c0		 xor	 eax, eax
  00022	eb 6d		 jmp	 SHORT $LN5@DoAutoTest
$LN4@DoAutoTest:

; 629  : 
; 630  : 	memset (ci, 0, sizeof (*ci));

  00024	48 8b 7c 24 20	 mov	 rdi, QWORD PTR ci$[rsp]
  00029	33 c0		 xor	 eax, eax
  0002b	b9 10 1f 00 00	 mov	 ecx, 7952		; 00001f10H
  00030	f3 aa		 rep stosb

; 631  : 
; 632  : 	/* GOST Cipher test here */
; 633  : 	
; 634  : 	/* PKCS #5 and HMACs */
; 635  : 	if (!test_pkcs5 ())

  00032	e8 00 00 00 00	 call	 test_pkcs5
  00037	85 c0		 test	 eax, eax
  00039	75 08		 jne	 SHORT $LN3@DoAutoTest

; 636  : 		bFailed = TRUE;

  0003b	c7 44 24 28 01
	00 00 00	 mov	 DWORD PTR bFailed$[rsp], 1
$LN3@DoAutoTest:

; 637  : 
; 638  : 	/* CRC-32 */
; 639  : 	if (!crc32_selftests ())

  00043	e8 00 00 00 00	 call	 crc32_selftests
  00048	85 c0		 test	 eax, eax
  0004a	75 08		 jne	 SHORT $LN2@DoAutoTest

; 640  : 		bFailed = TRUE;

  0004c	c7 44 24 28 01
	00 00 00	 mov	 DWORD PTR bFailed$[rsp], 1
$LN2@DoAutoTest:

; 641  : 
; 642  : 	/* GF multiplicator */
; 643  : #if 0
; 644  : 	if (!GfMulSelfTest ())
; 645  : 		bFailed = TRUE;
; 646  : #endif
; 647  : 
; 648  : 	/* Sector and buffer related algorithms */
; 649  : 	if (!TestSectorBufEncryption (ci))

  00054	48 8b 4c 24 20	 mov	 rcx, QWORD PTR ci$[rsp]
  00059	e8 00 00 00 00	 call	 TestSectorBufEncryption
  0005e	85 c0		 test	 eax, eax
  00060	75 08		 jne	 SHORT $LN1@DoAutoTest

; 650  : 		bFailed = TRUE;

  00062	c7 44 24 28 01
	00 00 00	 mov	 DWORD PTR bFailed$[rsp], 1
$LN1@DoAutoTest:

; 651  : 	
; 652  : 	crypto_close (ci);

  0006a	48 8b 4c 24 20	 mov	 rcx, QWORD PTR ci$[rsp]
  0006f	e8 00 00 00 00	 call	 crypto_close

; 653  : 	return !bFailed;

  00074	83 7c 24 28 00	 cmp	 DWORD PTR bFailed$[rsp], 0
  00079	75 0a		 jne	 SHORT $LN7@DoAutoTest
  0007b	c7 44 24 2c 01
	00 00 00	 mov	 DWORD PTR tv79[rsp], 1
  00083	eb 08		 jmp	 SHORT $LN8@DoAutoTest
$LN7@DoAutoTest:
  00085	c7 44 24 2c 00
	00 00 00	 mov	 DWORD PTR tv79[rsp], 0
$LN8@DoAutoTest:
  0008d	8b 44 24 2c	 mov	 eax, DWORD PTR tv79[rsp]
$LN5@DoAutoTest:

; 654  : }

  00091	48 83 c4 30	 add	 rsp, 48			; 00000030H
  00095	5f		 pop	 rdi
  00096	c3		 ret	 0
DoAutoTestAlgorithms ENDP
PUBLIC	AutoTestAlgorithms
;	COMDAT pdata
pdata	SEGMENT
$pdata$AutoTestAlgorithms DD imagerel $LN5
	DD	imagerel $LN5+90
	DD	imagerel $unwind$AutoTestAlgorithms
pdata	ENDS
;	COMDAT xdata
xdata	SEGMENT
$unwind$AutoTestAlgorithms DD 010401H
	DD	06204H
; Function compile flags: /Odtp
xdata	ENDS
;	COMDAT AutoTestAlgorithms
_TEXT	SEGMENT
hwEncryptionEnabled$ = 32
result$ = 36
AutoTestAlgorithms PROC					; COMDAT

; 665  : {

$LN5:
  00000	48 83 ec 38	 sub	 rsp, 56			; 00000038H

; 666  : 	BOOL result = TRUE;

  00004	c7 44 24 24 01
	00 00 00	 mov	 DWORD PTR result$[rsp], 1

; 667  : 	BOOL hwEncryptionEnabled = IsHwEncryptionEnabled();

  0000c	e8 00 00 00 00	 call	 IsHwEncryptionEnabled
  00011	89 44 24 20	 mov	 DWORD PTR hwEncryptionEnabled$[rsp], eax

; 668  : 
; 669  : 	EnableHwEncryption (FALSE);

  00015	33 c9		 xor	 ecx, ecx
  00017	e8 00 00 00 00	 call	 EnableHwEncryption

; 670  : 
; 671  : 	if (!DoAutoTestAlgorithms())

  0001c	e8 00 00 00 00	 call	 DoAutoTestAlgorithms
  00021	85 c0		 test	 eax, eax
  00023	75 08		 jne	 SHORT $LN2@AutoTestAl

; 672  : 		result = FALSE;

  00025	c7 44 24 24 00
	00 00 00	 mov	 DWORD PTR result$[rsp], 0
$LN2@AutoTestAl:

; 673  : 
; 674  : 	EnableHwEncryption (TRUE);

  0002d	b9 01 00 00 00	 mov	 ecx, 1
  00032	e8 00 00 00 00	 call	 EnableHwEncryption

; 675  : 
; 676  : 	if (!DoAutoTestAlgorithms())

  00037	e8 00 00 00 00	 call	 DoAutoTestAlgorithms
  0003c	85 c0		 test	 eax, eax
  0003e	75 08		 jne	 SHORT $LN1@AutoTestAl

; 677  : 		result = FALSE;

  00040	c7 44 24 24 00
	00 00 00	 mov	 DWORD PTR result$[rsp], 0
$LN1@AutoTestAl:

; 678  : 
; 679  : 	EnableHwEncryption (hwEncryptionEnabled);

  00048	8b 4c 24 20	 mov	 ecx, DWORD PTR hwEncryptionEnabled$[rsp]
  0004c	e8 00 00 00 00	 call	 EnableHwEncryption

; 680  : 	return result;

  00051	8b 44 24 24	 mov	 eax, DWORD PTR result$[rsp]

; 681  : }

  00055	48 83 c4 38	 add	 rsp, 56			; 00000038H
  00059	c3		 ret	 0
AutoTestAlgorithms ENDP
END
