; Listing generated by Microsoft (R) Optimizing Compiler Version 15.00.30729.207 

include listing.inc

INCLUDELIB OLDNAMES

PUBLIC	pi
PUBLIC	pi_inv
PUBLIC	mult_mod_poly
pi	DB	0fcH
	DB	0eeH
	DB	0ddH
	DB	011H
	DB	0cfH
	DB	06eH
	DB	031H
	DB	016H
	DB	0fbH
	DB	0c4H
	DB	0faH
	DB	0daH
	DB	023H
	DB	0c5H
	DB	04H
	DB	04dH
	DB	0e9H
	DB	077H
	DB	0f0H
	DB	0dbH
	DB	093H
	DB	02eH
	DB	099H
	DB	0baH
	DB	017H
	DB	036H
	DB	0f1H
	DB	0bbH
	DB	014H
	DB	0cdH
	DB	05fH
	DB	0c1H
	DB	0f9H
	DB	018H
	DB	065H
	DB	05aH
	DB	0e2H
	DB	05cH
	DB	0efH
	DB	021H
	DB	081H
	DB	01cH
	DB	03cH
	DB	042H
	DB	08bH
	DB	01H
	DB	08eH
	DB	04fH
	DB	05H
	DB	084H
	DB	02H
	DB	0aeH
	DB	0e3H
	DB	06aH
	DB	08fH
	DB	0a0H
	DB	06H
	DB	0bH
	DB	0edH
	DB	098H
	DB	07fH
	DB	0d4H
	DB	0d3H
	DB	01fH
	DB	0ebH
	DB	034H
	DB	02cH
	DB	051H
	DB	0eaH
	DB	0c8H
	DB	048H
	DB	0abH
	DB	0f2H
	DB	02aH
	DB	068H
	DB	0a2H
	DB	0fdH
	DB	03aH
	DB	0ceH
	DB	0ccH
	DB	0b5H
	DB	070H
	DB	0eH
	DB	056H
	DB	08H
	DB	0cH
	DB	076H
	DB	012H
	DB	0bfH
	DB	072H
	DB	013H
	DB	047H
	DB	09cH
	DB	0b7H
	DB	05dH
	DB	087H
	DB	015H
	DB	0a1H
	DB	096H
	DB	029H
	DB	010H
	DB	07bH
	DB	09aH
	DB	0c7H
	DB	0f3H
	DB	091H
	DB	078H
	DB	06fH
	DB	09dH
	DB	09eH
	DB	0b2H
	DB	0b1H
	DB	032H
	DB	075H
	DB	019H
	DB	03dH
	DB	0ffH
	DB	035H
	DB	08aH
	DB	07eH
	DB	06dH
	DB	054H
	DB	0c6H
	DB	080H
	DB	0c3H
	DB	0bdH
	DB	0dH
	DB	057H
	DB	0dfH
	DB	0f5H
	DB	024H
	DB	0a9H
	DB	03eH
	DB	0a8H
	DB	043H
	DB	0c9H
	DB	0d7H
	DB	079H
	DB	0d6H
	DB	0f6H
	DB	07cH
	DB	022H
	DB	0b9H
	DB	03H
	DB	0e0H
	DB	0fH
	DB	0ecH
	DB	0deH
	DB	07aH
	DB	094H
	DB	0b0H
	DB	0bcH
	DB	0dcH
	DB	0e8H
	DB	028H
	DB	050H
	DB	04eH
	DB	033H
	DB	0aH
	DB	04aH
	DB	0a7H
	DB	097H
	DB	060H
	DB	073H
	DB	01eH
	DB	00H
	DB	062H
	DB	044H
	DB	01aH
	DB	0b8H
	DB	038H
	DB	082H
	DB	064H
	DB	09fH
	DB	026H
	DB	041H
	DB	0adH
	DB	045H
	DB	046H
	DB	092H
	DB	027H
	DB	05eH
	DB	055H
	DB	02fH
	DB	08cH
	DB	0a3H
	DB	0a5H
	DB	07dH
	DB	069H
	DB	0d5H
	DB	095H
	DB	03bH
	DB	07H
	DB	058H
	DB	0b3H
	DB	040H
	DB	086H
	DB	0acH
	DB	01dH
	DB	0f7H
	DB	030H
	DB	037H
	DB	06bH
	DB	0e4H
	DB	088H
	DB	0d9H
	DB	0e7H
	DB	089H
	DB	0e1H
	DB	01bH
	DB	083H
	DB	049H
	DB	04cH
	DB	03fH
	DB	0f8H
	DB	0feH
	DB	08dH
	DB	053H
	DB	0aaH
	DB	090H
	DB	0caH
	DB	0d8H
	DB	085H
	DB	061H
	DB	020H
	DB	071H
	DB	067H
	DB	0a4H
	DB	02dH
	DB	02bH
	DB	09H
	DB	05bH
	DB	0cbH
	DB	09bH
	DB	025H
	DB	0d0H
	DB	0beH
	DB	0e5H
	DB	06cH
	DB	052H
	DB	059H
	DB	0a6H
	DB	074H
	DB	0d2H
	DB	0e6H
	DB	0f4H
	DB	0b4H
	DB	0c0H
	DB	0d1H
	DB	066H
	DB	0afH
	DB	0c2H
	DB	039H
	DB	04bH
	DB	063H
	DB	0b6H
pi_inv	DB	0a5H
	DB	02dH
	DB	032H
	DB	08fH
	DB	0eH
	DB	030H
	DB	038H
	DB	0c0H
	DB	054H
	DB	0e6H
	DB	09eH
	DB	039H
	DB	055H
	DB	07eH
	DB	052H
	DB	091H
	DB	064H
	DB	03H
	DB	057H
	DB	05aH
	DB	01cH
	DB	060H
	DB	07H
	DB	018H
	DB	021H
	DB	072H
	DB	0a8H
	DB	0d1H
	DB	029H
	DB	0c6H
	DB	0a4H
	DB	03fH
	DB	0e0H
	DB	027H
	DB	08dH
	DB	0cH
	DB	082H
	DB	0eaH
	DB	0aeH
	DB	0b4H
	DB	09aH
	DB	063H
	DB	049H
	DB	0e5H
	DB	042H
	DB	0e4H
	DB	015H
	DB	0b7H
	DB	0c8H
	DB	06H
	DB	070H
	DB	09dH
	DB	041H
	DB	075H
	DB	019H
	DB	0c9H
	DB	0aaH
	DB	0fcH
	DB	04dH
	DB	0bfH
	DB	02aH
	DB	073H
	DB	084H
	DB	0d5H
	DB	0c3H
	DB	0afH
	DB	02bH
	DB	086H
	DB	0a7H
	DB	0b1H
	DB	0b2H
	DB	05bH
	DB	046H
	DB	0d3H
	DB	09fH
	DB	0fdH
	DB	0d4H
	DB	0fH
	DB	09cH
	DB	02fH
	DB	09bH
	DB	043H
	DB	0efH
	DB	0d9H
	DB	079H
	DB	0b6H
	DB	053H
	DB	07fH
	DB	0c1H
	DB	0f0H
	DB	023H
	DB	0e7H
	DB	025H
	DB	05eH
	DB	0b5H
	DB	01eH
	DB	0a2H
	DB	0dfH
	DB	0a6H
	DB	0feH
	DB	0acH
	DB	022H
	DB	0f9H
	DB	0e2H
	DB	04aH
	DB	0bcH
	DB	035H
	DB	0caH
	DB	0eeH
	DB	078H
	DB	05H
	DB	06bH
	DB	051H
	DB	0e1H
	DB	059H
	DB	0a3H
	DB	0f2H
	DB	071H
	DB	056H
	DB	011H
	DB	06aH
	DB	089H
	DB	094H
	DB	065H
	DB	08cH
	DB	0bbH
	DB	077H
	DB	03cH
	DB	07bH
	DB	028H
	DB	0abH
	DB	0d2H
	DB	031H
	DB	0deH
	DB	0c4H
	DB	05fH
	DB	0ccH
	DB	0cfH
	DB	076H
	DB	02cH
	DB	0b8H
	DB	0d8H
	DB	02eH
	DB	036H
	DB	0dbH
	DB	069H
	DB	0b3H
	DB	014H
	DB	095H
	DB	0beH
	DB	062H
	DB	0a1H
	DB	03bH
	DB	016H
	DB	066H
	DB	0e9H
	DB	05cH
	DB	06cH
	DB	06dH
	DB	0adH
	DB	037H
	DB	061H
	DB	04bH
	DB	0b9H
	DB	0e3H
	DB	0baH
	DB	0f1H
	DB	0a0H
	DB	085H
	DB	083H
	DB	0daH
	DB	047H
	DB	0c5H
	DB	0b0H
	DB	033H
	DB	0faH
	DB	096H
	DB	06fH
	DB	06eH
	DB	0c2H
	DB	0f6H
	DB	050H
	DB	0ffH
	DB	05dH
	DB	0a9H
	DB	08eH
	DB	017H
	DB	01bH
	DB	097H
	DB	07dH
	DB	0ecH
	DB	058H
	DB	0f7H
	DB	01fH
	DB	0fbH
	DB	07cH
	DB	09H
	DB	0dH
	DB	07aH
	DB	067H
	DB	045H
	DB	087H
	DB	0dcH
	DB	0e8H
	DB	04fH
	DB	01dH
	DB	04eH
	DB	04H
	DB	0ebH
	DB	0f8H
	DB	0f3H
	DB	03eH
	DB	03dH
	DB	0bdH
	DB	08aH
	DB	088H
	DB	0ddH
	DB	0cdH
	DB	0bH
	DB	013H
	DB	098H
	DB	02H
	DB	093H
	DB	080H
	DB	090H
	DB	0d0H
	DB	024H
	DB	034H
	DB	0cbH
	DB	0edH
	DB	0f4H
	DB	0ceH
	DB	099H
	DB	010H
	DB	044H
	DB	040H
	DB	092H
	DB	03aH
	DB	01H
	DB	026H
	DB	012H
	DB	01aH
	DB	048H
	DB	068H
	DB	0f5H
	DB	081H
	DB	08bH
	DB	0c7H
	DB	0d6H
	DB	020H
	DB	0aH
	DB	08H
	DB	00H
	DB	04cH
	DB	0d7H
	DB	074H
mult_mod_poly DB 00H
	DB	01H
	DB	02H
	DB	03H
	DB	04H
	DB	05H
	DB	06H
	DB	07H
	DB	08H
	DB	09H
	DB	0aH
	DB	0bH
	DB	0cH
	DB	0dH
	DB	0eH
	DB	0fH
	DB	010H
	DB	011H
	DB	012H
	DB	013H
	DB	014H
	DB	015H
	DB	016H
	DB	017H
	DB	018H
	DB	019H
	DB	01aH
	DB	01bH
	DB	01cH
	DB	01dH
	DB	01eH
	DB	01fH
	DB	020H
	DB	021H
	DB	022H
	DB	023H
	DB	024H
	DB	025H
	DB	026H
	DB	027H
	DB	028H
	DB	029H
	DB	02aH
	DB	02bH
	DB	02cH
	DB	02dH
	DB	02eH
	DB	02fH
	DB	030H
	DB	031H
	DB	032H
	DB	033H
	DB	034H
	DB	035H
	DB	036H
	DB	037H
	DB	038H
	DB	039H
	DB	03aH
	DB	03bH
	DB	03cH
	DB	03dH
	DB	03eH
	DB	03fH
	DB	040H
	DB	041H
	DB	042H
	DB	043H
	DB	044H
	DB	045H
	DB	046H
	DB	047H
	DB	048H
	DB	049H
	DB	04aH
	DB	04bH
	DB	04cH
	DB	04dH
	DB	04eH
	DB	04fH
	DB	050H
	DB	051H
	DB	052H
	DB	053H
	DB	054H
	DB	055H
	DB	056H
	DB	057H
	DB	058H
	DB	059H
	DB	05aH
	DB	05bH
	DB	05cH
	DB	05dH
	DB	05eH
	DB	05fH
	DB	060H
	DB	061H
	DB	062H
	DB	063H
	DB	064H
	DB	065H
	DB	066H
	DB	067H
	DB	068H
	DB	069H
	DB	06aH
	DB	06bH
	DB	06cH
	DB	06dH
	DB	06eH
	DB	06fH
	DB	070H
	DB	071H
	DB	072H
	DB	073H
	DB	074H
	DB	075H
	DB	076H
	DB	077H
	DB	078H
	DB	079H
	DB	07aH
	DB	07bH
	DB	07cH
	DB	07dH
	DB	07eH
	DB	07fH
	DB	080H
	DB	081H
	DB	082H
	DB	083H
	DB	084H
	DB	085H
	DB	086H
	DB	087H
	DB	088H
	DB	089H
	DB	08aH
	DB	08bH
	DB	08cH
	DB	08dH
	DB	08eH
	DB	08fH
	DB	090H
	DB	091H
	DB	092H
	DB	093H
	DB	094H
	DB	095H
	DB	096H
	DB	097H
	DB	098H
	DB	099H
	DB	09aH
	DB	09bH
	DB	09cH
	DB	09dH
	DB	09eH
	DB	09fH
	DB	0a0H
	DB	0a1H
	DB	0a2H
	DB	0a3H
	DB	0a4H
	DB	0a5H
	DB	0a6H
	DB	0a7H
	DB	0a8H
	DB	0a9H
	DB	0aaH
	DB	0abH
	DB	0acH
	DB	0adH
	DB	0aeH
	DB	0afH
	DB	0b0H
	DB	0b1H
	DB	0b2H
	DB	0b3H
	DB	0b4H
	DB	0b5H
	DB	0b6H
	DB	0b7H
	DB	0b8H
	DB	0b9H
	DB	0baH
	DB	0bbH
	DB	0bcH
	DB	0bdH
	DB	0beH
	DB	0bfH
	DB	0c0H
	DB	0c1H
	DB	0c2H
	DB	0c3H
	DB	0c4H
	DB	0c5H
	DB	0c6H
	DB	0c7H
	DB	0c8H
	DB	0c9H
	DB	0caH
	DB	0cbH
	DB	0ccH
	DB	0cdH
	DB	0ceH
	DB	0cfH
	DB	0d0H
	DB	0d1H
	DB	0d2H
	DB	0d3H
	DB	0d4H
	DB	0d5H
	DB	0d6H
	DB	0d7H
	DB	0d8H
	DB	0d9H
	DB	0daH
	DB	0dbH
	DB	0dcH
	DB	0ddH
	DB	0deH
	DB	0dfH
	DB	0e0H
	DB	0e1H
	DB	0e2H
	DB	0e3H
	DB	0e4H
	DB	0e5H
	DB	0e6H
	DB	0e7H
	DB	0e8H
	DB	0e9H
	DB	0eaH
	DB	0ebH
	DB	0ecH
	DB	0edH
	DB	0eeH
	DB	0efH
	DB	0f0H
	DB	0f1H
	DB	0f2H
	DB	0f3H
	DB	0f4H
	DB	0f5H
	DB	0f6H
	DB	0f7H
	DB	0f8H
	DB	0f9H
	DB	0faH
	DB	0fbH
	DB	0fcH
	DB	0fdH
	DB	0feH
	DB	0ffH
	DB	00H
	DB	010H
	DB	020H
	DB	030H
	DB	040H
	DB	050H
	DB	060H
	DB	070H
	DB	080H
	DB	090H
	DB	0a0H
	DB	0b0H
	DB	0c0H
	DB	0d0H
	DB	0e0H
	DB	0f0H
	DB	0c3H
	DB	0d3H
	DB	0e3H
	DB	0f3H
	DB	083H
	DB	093H
	DB	0a3H
	DB	0b3H
	DB	043H
	DB	053H
	DB	063H
	DB	073H
	DB	03H
	DB	013H
	DB	023H
	DB	033H
	DB	045H
	DB	055H
	DB	065H
	DB	075H
	DB	05H
	DB	015H
	DB	025H
	DB	035H
	DB	0c5H
	DB	0d5H
	DB	0e5H
	DB	0f5H
	DB	085H
	DB	095H
	DB	0a5H
	DB	0b5H
	DB	086H
	DB	096H
	DB	0a6H
	DB	0b6H
	DB	0c6H
	DB	0d6H
	DB	0e6H
	DB	0f6H
	DB	06H
	DB	016H
	DB	026H
	DB	036H
	DB	046H
	DB	056H
	DB	066H
	DB	076H
	DB	08aH
	DB	09aH
	DB	0aaH
	DB	0baH
	DB	0caH
	DB	0daH
	DB	0eaH
	DB	0faH
	DB	0aH
	DB	01aH
	DB	02aH
	DB	03aH
	DB	04aH
	DB	05aH
	DB	06aH
	DB	07aH
	DB	049H
	DB	059H
	DB	069H
	DB	079H
	DB	09H
	DB	019H
	DB	029H
	DB	039H
	DB	0c9H
	DB	0d9H
	DB	0e9H
	DB	0f9H
	DB	089H
	DB	099H
	DB	0a9H
	DB	0b9H
	DB	0cfH
	DB	0dfH
	DB	0efH
	DB	0ffH
	DB	08fH
	DB	09fH
	DB	0afH
	DB	0bfH
	DB	04fH
	DB	05fH
	DB	06fH
	DB	07fH
	DB	0fH
	DB	01fH
	DB	02fH
	DB	03fH
	DB	0cH
	DB	01cH
	DB	02cH
	DB	03cH
	DB	04cH
	DB	05cH
	DB	06cH
	DB	07cH
	DB	08cH
	DB	09cH
	DB	0acH
	DB	0bcH
	DB	0ccH
	DB	0dcH
	DB	0ecH
	DB	0fcH
	DB	0d7H
	DB	0c7H
	DB	0f7H
	DB	0e7H
	DB	097H
	DB	087H
	DB	0b7H
	DB	0a7H
	DB	057H
	DB	047H
	DB	077H
	DB	067H
	DB	017H
	DB	07H
	DB	037H
	DB	027H
	DB	014H
	DB	04H
	DB	034H
	DB	024H
	DB	054H
	DB	044H
	DB	074H
	DB	064H
	DB	094H
	DB	084H
	DB	0b4H
	DB	0a4H
	DB	0d4H
	DB	0c4H
	DB	0f4H
	DB	0e4H
	DB	092H
	DB	082H
	DB	0b2H
	DB	0a2H
	DB	0d2H
	DB	0c2H
	DB	0f2H
	DB	0e2H
	DB	012H
	DB	02H
	DB	032H
	DB	022H
	DB	052H
	DB	042H
	DB	072H
	DB	062H
	DB	051H
	DB	041H
	DB	071H
	DB	061H
	DB	011H
	DB	01H
	DB	031H
	DB	021H
	DB	0d1H
	DB	0c1H
	DB	0f1H
	DB	0e1H
	DB	091H
	DB	081H
	DB	0b1H
	DB	0a1H
	DB	05dH
	DB	04dH
	DB	07dH
	DB	06dH
	DB	01dH
	DB	0dH
	DB	03dH
	DB	02dH
	DB	0ddH
	DB	0cdH
	DB	0fdH
	DB	0edH
	DB	09dH
	DB	08dH
	DB	0bdH
	DB	0adH
	DB	09eH
	DB	08eH
	DB	0beH
	DB	0aeH
	DB	0deH
	DB	0ceH
	DB	0feH
	DB	0eeH
	DB	01eH
	DB	0eH
	DB	03eH
	DB	02eH
	DB	05eH
	DB	04eH
	DB	07eH
	DB	06eH
	DB	018H
	DB	08H
	DB	038H
	DB	028H
	DB	058H
	DB	048H
	DB	078H
	DB	068H
	DB	098H
	DB	088H
	DB	0b8H
	DB	0a8H
	DB	0d8H
	DB	0c8H
	DB	0f8H
	DB	0e8H
	DB	0dbH
	DB	0cbH
	DB	0fbH
	DB	0ebH
	DB	09bH
	DB	08bH
	DB	0bbH
	DB	0abH
	DB	05bH
	DB	04bH
	DB	07bH
	DB	06bH
	DB	01bH
	DB	0bH
	DB	03bH
	DB	02bH
	DB	00H
	DB	020H
	DB	040H
	DB	060H
	DB	080H
	DB	0a0H
	DB	0c0H
	DB	0e0H
	DB	0c3H
	DB	0e3H
	DB	083H
	DB	0a3H
	DB	043H
	DB	063H
	DB	03H
	DB	023H
	DB	045H
	DB	065H
	DB	05H
	DB	025H
	DB	0c5H
	DB	0e5H
	DB	085H
	DB	0a5H
	DB	086H
	DB	0a6H
	DB	0c6H
	DB	0e6H
	DB	06H
	DB	026H
	DB	046H
	DB	066H
	DB	08aH
	DB	0aaH
	DB	0caH
	DB	0eaH
	DB	0aH
	DB	02aH
	DB	04aH
	DB	06aH
	DB	049H
	DB	069H
	DB	09H
	DB	029H
	DB	0c9H
	DB	0e9H
	DB	089H
	DB	0a9H
	DB	0cfH
	DB	0efH
	DB	08fH
	DB	0afH
	DB	04fH
	DB	06fH
	DB	0fH
	DB	02fH
	DB	0cH
	DB	02cH
	DB	04cH
	DB	06cH
	DB	08cH
	DB	0acH
	DB	0ccH
	DB	0ecH
	DB	0d7H
	DB	0f7H
	DB	097H
	DB	0b7H
	DB	057H
	DB	077H
	DB	017H
	DB	037H
	DB	014H
	DB	034H
	DB	054H
	DB	074H
	DB	094H
	DB	0b4H
	DB	0d4H
	DB	0f4H
	DB	092H
	DB	0b2H
	DB	0d2H
	DB	0f2H
	DB	012H
	DB	032H
	DB	052H
	DB	072H
	DB	051H
	DB	071H
	DB	011H
	DB	031H
	DB	0d1H
	DB	0f1H
	DB	091H
	DB	0b1H
	DB	05dH
	DB	07dH
	DB	01dH
	DB	03dH
	DB	0ddH
	DB	0fdH
	DB	09dH
	DB	0bdH
	DB	09eH
	DB	0beH
	DB	0deH
	DB	0feH
	DB	01eH
	DB	03eH
	DB	05eH
	DB	07eH
	DB	018H
	DB	038H
	DB	058H
	DB	078H
	DB	098H
	DB	0b8H
	DB	0d8H
	DB	0f8H
	DB	0dbH
	DB	0fbH
	DB	09bH
	DB	0bbH
	DB	05bH
	DB	07bH
	DB	01bH
	DB	03bH
	DB	06dH
	DB	04dH
	DB	02dH
	DB	0dH
	DB	0edH
	DB	0cdH
	DB	0adH
	DB	08dH
	DB	0aeH
	DB	08eH
	DB	0eeH
	DB	0ceH
	DB	02eH
	DB	0eH
	DB	06eH
	DB	04eH
	DB	028H
	DB	08H
	DB	068H
	DB	048H
	DB	0a8H
	DB	088H
	DB	0e8H
	DB	0c8H
	DB	0ebH
	DB	0cbH
	DB	0abH
	DB	08bH
	DB	06bH
	DB	04bH
	DB	02bH
	DB	0bH
	DB	0e7H
	DB	0c7H
	DB	0a7H
	DB	087H
	DB	067H
	DB	047H
	DB	027H
	DB	07H
	DB	024H
	DB	04H
	DB	064H
	DB	044H
	DB	0a4H
	DB	084H
	DB	0e4H
	DB	0c4H
	DB	0a2H
	DB	082H
	DB	0e2H
	DB	0c2H
	DB	022H
	DB	02H
	DB	062H
	DB	042H
	DB	061H
	DB	041H
	DB	021H
	DB	01H
	DB	0e1H
	DB	0c1H
	DB	0a1H
	DB	081H
	DB	0baH
	DB	09aH
	DB	0faH
	DB	0daH
	DB	03aH
	DB	01aH
	DB	07aH
	DB	05aH
	DB	079H
	DB	059H
	DB	039H
	DB	019H
	DB	0f9H
	DB	0d9H
	DB	0b9H
	DB	099H
	DB	0ffH
	DB	0dfH
	DB	0bfH
	DB	09fH
	DB	07fH
	DB	05fH
	DB	03fH
	DB	01fH
	DB	03cH
	DB	01cH
	DB	07cH
	DB	05cH
	DB	0bcH
	DB	09cH
	DB	0fcH
	DB	0dcH
	DB	030H
	DB	010H
	DB	070H
	DB	050H
	DB	0b0H
	DB	090H
	DB	0f0H
	DB	0d0H
	DB	0f3H
	DB	0d3H
	DB	0b3H
	DB	093H
	DB	073H
	DB	053H
	DB	033H
	DB	013H
	DB	075H
	DB	055H
	DB	035H
	DB	015H
	DB	0f5H
	DB	0d5H
	DB	0b5H
	DB	095H
	DB	0b6H
	DB	096H
	DB	0f6H
	DB	0d6H
	DB	036H
	DB	016H
	DB	076H
	DB	056H
	DB	00H
	DB	085H
	DB	0c9H
	DB	04cH
	DB	051H
	DB	0d4H
	DB	098H
	DB	01dH
	DB	0a2H
	DB	027H
	DB	06bH
	DB	0eeH
	DB	0f3H
	DB	076H
	DB	03aH
	DB	0bfH
	DB	087H
	DB	02H
	DB	04eH
	DB	0cbH
	DB	0d6H
	DB	053H
	DB	01fH
	DB	09aH
	DB	025H
	DB	0a0H
	DB	0ecH
	DB	069H
	DB	074H
	DB	0f1H
	DB	0bdH
	DB	038H
	DB	0cdH
	DB	048H
	DB	04H
	DB	081H
	DB	09cH
	DB	019H
	DB	055H
	DB	0d0H
	DB	06fH
	DB	0eaH
	DB	0a6H
	DB	023H
	DB	03eH
	DB	0bbH
	DB	0f7H
	DB	072H
	DB	04aH
	DB	0cfH
	DB	083H
	DB	06H
	DB	01bH
	DB	09eH
	DB	0d2H
	DB	057H
	DB	0e8H
	DB	06dH
	DB	021H
	DB	0a4H
	DB	0b9H
	DB	03cH
	DB	070H
	DB	0f5H
	DB	059H
	DB	0dcH
	DB	090H
	DB	015H
	DB	08H
	DB	08dH
	DB	0c1H
	DB	044H
	DB	0fbH
	DB	07eH
	DB	032H
	DB	0b7H
	DB	0aaH
	DB	02fH
	DB	063H
	DB	0e6H
	DB	0deH
	DB	05bH
	DB	017H
	DB	092H
	DB	08fH
	DB	0aH
	DB	046H
	DB	0c3H
	DB	07cH
	DB	0f9H
	DB	0b5H
	DB	030H
	DB	02dH
	DB	0a8H
	DB	0e4H
	DB	061H
	DB	094H
	DB	011H
	DB	05dH
	DB	0d8H
	DB	0c5H
	DB	040H
	DB	0cH
	DB	089H
	DB	036H
	DB	0b3H
	DB	0ffH
	DB	07aH
	DB	067H
	DB	0e2H
	DB	0aeH
	DB	02bH
	DB	013H
	DB	096H
	DB	0daH
	DB	05fH
	DB	042H
	DB	0c7H
	DB	08bH
	DB	0eH
	DB	0b1H
	DB	034H
	DB	078H
	DB	0fdH
	DB	0e0H
	DB	065H
	DB	029H
	DB	0acH
	DB	0b2H
	DB	037H
	DB	07bH
	DB	0feH
	DB	0e3H
	DB	066H
	DB	02aH
	DB	0afH
	DB	010H
	DB	095H
	DB	0d9H
	DB	05cH
	DB	041H
	DB	0c4H
	DB	088H
	DB	0dH
	DB	035H
	DB	0b0H
	DB	0fcH
	DB	079H
	DB	064H
	DB	0e1H
	DB	0adH
	DB	028H
	DB	097H
	DB	012H
	DB	05eH
	DB	0dbH
	DB	0c6H
	DB	043H
	DB	0fH
	DB	08aH
	DB	07fH
	DB	0faH
	DB	0b6H
	DB	033H
	DB	02eH
	DB	0abH
	DB	0e7H
	DB	062H
	DB	0ddH
	DB	058H
	DB	014H
	DB	091H
	DB	08cH
	DB	09H
	DB	045H
	DB	0c0H
	DB	0f8H
	DB	07dH
	DB	031H
	DB	0b4H
	DB	0a9H
	DB	02cH
	DB	060H
	DB	0e5H
	DB	05aH
	DB	0dfH
	DB	093H
	DB	016H
	DB	0bH
	DB	08eH
	DB	0c2H
	DB	047H
	DB	0ebH
	DB	06eH
	DB	022H
	DB	0a7H
	DB	0baH
	DB	03fH
	DB	073H
	DB	0f6H
	DB	049H
	DB	0ccH
	DB	080H
	DB	05H
	DB	018H
	DB	09dH
	DB	0d1H
	DB	054H
	DB	06cH
	DB	0e9H
	DB	0a5H
	DB	020H
	DB	03dH
	DB	0b8H
	DB	0f4H
	DB	071H
	DB	0ceH
	DB	04bH
	DB	07H
	DB	082H
	DB	09fH
	DB	01aH
	DB	056H
	DB	0d3H
	DB	026H
	DB	0a3H
	DB	0efH
	DB	06aH
	DB	077H
	DB	0f2H
	DB	0beH
	DB	03bH
	DB	084H
	DB	01H
	DB	04dH
	DB	0c8H
	DB	0d5H
	DB	050H
	DB	01cH
	DB	099H
	DB	0a1H
	DB	024H
	DB	068H
	DB	0edH
	DB	0f0H
	DB	075H
	DB	039H
	DB	0bcH
	DB	03H
	DB	086H
	DB	0caH
	DB	04fH
	DB	052H
	DB	0d7H
	DB	09bH
	DB	01eH
	DB	00H
	DB	094H
	DB	0ebH
	DB	07fH
	DB	015H
	DB	081H
	DB	0feH
	DB	06aH
	DB	02aH
	DB	0beH
	DB	0c1H
	DB	055H
	DB	03fH
	DB	0abH
	DB	0d4H
	DB	040H
	DB	054H
	DB	0c0H
	DB	0bfH
	DB	02bH
	DB	041H
	DB	0d5H
	DB	0aaH
	DB	03eH
	DB	07eH
	DB	0eaH
	DB	095H
	DB	01H
	DB	06bH
	DB	0ffH
	DB	080H
	DB	014H
	DB	0a8H
	DB	03cH
	DB	043H
	DB	0d7H
	DB	0bdH
	DB	029H
	DB	056H
	DB	0c2H
	DB	082H
	DB	016H
	DB	069H
	DB	0fdH
	DB	097H
	DB	03H
	DB	07cH
	DB	0e8H
	DB	0fcH
	DB	068H
	DB	017H
	DB	083H
	DB	0e9H
	DB	07dH
	DB	02H
	DB	096H
	DB	0d6H
	DB	042H
	DB	03dH
	DB	0a9H
	DB	0c3H
	DB	057H
	DB	028H
	DB	0bcH
	DB	093H
	DB	07H
	DB	078H
	DB	0ecH
	DB	086H
	DB	012H
	DB	06dH
	DB	0f9H
	DB	0b9H
	DB	02dH
	DB	052H
	DB	0c6H
	DB	0acH
	DB	038H
	DB	047H
	DB	0d3H
	DB	0c7H
	DB	053H
	DB	02cH
	DB	0b8H
	DB	0d2H
	DB	046H
	DB	039H
	DB	0adH
	DB	0edH
	DB	079H
	DB	06H
	DB	092H
	DB	0f8H
	DB	06cH
	DB	013H
	DB	087H
	DB	03bH
	DB	0afH
	DB	0d0H
	DB	044H
	DB	02eH
	DB	0baH
	DB	0c5H
	DB	051H
	DB	011H
	DB	085H
	DB	0faH
	DB	06eH
	DB	04H
	DB	090H
	DB	0efH
	DB	07bH
	DB	06fH
	DB	0fbH
	DB	084H
	DB	010H
	DB	07aH
	DB	0eeH
	DB	091H
	DB	05H
	DB	045H
	DB	0d1H
	DB	0aeH
	DB	03aH
	DB	050H
	DB	0c4H
	DB	0bbH
	DB	02fH
	DB	0e5H
	DB	071H
	DB	0eH
	DB	09aH
	DB	0f0H
	DB	064H
	DB	01bH
	DB	08fH
	DB	0cfH
	DB	05bH
	DB	024H
	DB	0b0H
	DB	0daH
	DB	04eH
	DB	031H
	DB	0a5H
	DB	0b1H
	DB	025H
	DB	05aH
	DB	0ceH
	DB	0a4H
	DB	030H
	DB	04fH
	DB	0dbH
	DB	09bH
	DB	0fH
	DB	070H
	DB	0e4H
	DB	08eH
	DB	01aH
	DB	065H
	DB	0f1H
	DB	04dH
	DB	0d9H
	DB	0a6H
	DB	032H
	DB	058H
	DB	0ccH
	DB	0b3H
	DB	027H
	DB	067H
	DB	0f3H
	DB	08cH
	DB	018H
	DB	072H
	DB	0e6H
	DB	099H
	DB	0dH
	DB	019H
	DB	08dH
	DB	0f2H
	DB	066H
	DB	0cH
	DB	098H
	DB	0e7H
	DB	073H
	DB	033H
	DB	0a7H
	DB	0d8H
	DB	04cH
	DB	026H
	DB	0b2H
	DB	0cdH
	DB	059H
	DB	076H
	DB	0e2H
	DB	09dH
	DB	09H
	DB	063H
	DB	0f7H
	DB	088H
	DB	01cH
	DB	05cH
	DB	0c8H
	DB	0b7H
	DB	023H
	DB	049H
	DB	0ddH
	DB	0a2H
	DB	036H
	DB	022H
	DB	0b6H
	DB	0c9H
	DB	05dH
	DB	037H
	DB	0a3H
	DB	0dcH
	DB	048H
	DB	08H
	DB	09cH
	DB	0e3H
	DB	077H
	DB	01dH
	DB	089H
	DB	0f6H
	DB	062H
	DB	0deH
	DB	04aH
	DB	035H
	DB	0a1H
	DB	0cbH
	DB	05fH
	DB	020H
	DB	0b4H
	DB	0f4H
	DB	060H
	DB	01fH
	DB	08bH
	DB	0e1H
	DB	075H
	DB	0aH
	DB	09eH
	DB	08aH
	DB	01eH
	DB	061H
	DB	0f5H
	DB	09fH
	DB	0bH
	DB	074H
	DB	0e0H
	DB	0a0H
	DB	034H
	DB	04bH
	DB	0dfH
	DB	0b5H
	DB	021H
	DB	05eH
	DB	0caH
	DB	00H
	DB	0c0H
	DB	043H
	DB	083H
	DB	086H
	DB	046H
	DB	0c5H
	DB	05H
	DB	0cfH
	DB	0fH
	DB	08cH
	DB	04cH
	DB	049H
	DB	089H
	DB	0aH
	DB	0caH
	DB	05dH
	DB	09dH
	DB	01eH
	DB	0deH
	DB	0dbH
	DB	01bH
	DB	098H
	DB	058H
	DB	092H
	DB	052H
	DB	0d1H
	DB	011H
	DB	014H
	DB	0d4H
	DB	057H
	DB	097H
	DB	0baH
	DB	07aH
	DB	0f9H
	DB	039H
	DB	03cH
	DB	0fcH
	DB	07fH
	DB	0bfH
	DB	075H
	DB	0b5H
	DB	036H
	DB	0f6H
	DB	0f3H
	DB	033H
	DB	0b0H
	DB	070H
	DB	0e7H
	DB	027H
	DB	0a4H
	DB	064H
	DB	061H
	DB	0a1H
	DB	022H
	DB	0e2H
	DB	028H
	DB	0e8H
	DB	06bH
	DB	0abH
	DB	0aeH
	DB	06eH
	DB	0edH
	DB	02dH
	DB	0b7H
	DB	077H
	DB	0f4H
	DB	034H
	DB	031H
	DB	0f1H
	DB	072H
	DB	0b2H
	DB	078H
	DB	0b8H
	DB	03bH
	DB	0fbH
	DB	0feH
	DB	03eH
	DB	0bdH
	DB	07dH
	DB	0eaH
	DB	02aH
	DB	0a9H
	DB	069H
	DB	06cH
	DB	0acH
	DB	02fH
	DB	0efH
	DB	025H
	DB	0e5H
	DB	066H
	DB	0a6H
	DB	0a3H
	DB	063H
	DB	0e0H
	DB	020H
	DB	0dH
	DB	0cdH
	DB	04eH
	DB	08eH
	DB	08bH
	DB	04bH
	DB	0c8H
	DB	08H
	DB	0c2H
	DB	02H
	DB	081H
	DB	041H
	DB	044H
	DB	084H
	DB	07H
	DB	0c7H
	DB	050H
	DB	090H
	DB	013H
	DB	0d3H
	DB	0d6H
	DB	016H
	DB	095H
	DB	055H
	DB	09fH
	DB	05fH
	DB	0dcH
	DB	01cH
	DB	019H
	DB	0d9H
	DB	05aH
	DB	09aH
	DB	0adH
	DB	06dH
	DB	0eeH
	DB	02eH
	DB	02bH
	DB	0ebH
	DB	068H
	DB	0a8H
	DB	062H
	DB	0a2H
	DB	021H
	DB	0e1H
	DB	0e4H
	DB	024H
	DB	0a7H
	DB	067H
	DB	0f0H
	DB	030H
	DB	0b3H
	DB	073H
	DB	076H
	DB	0b6H
	DB	035H
	DB	0f5H
	DB	03fH
	DB	0ffH
	DB	07cH
	DB	0bcH
	DB	0b9H
	DB	079H
	DB	0faH
	DB	03aH
	DB	017H
	DB	0d7H
	DB	054H
	DB	094H
	DB	091H
	DB	051H
	DB	0d2H
	DB	012H
	DB	0d8H
	DB	018H
	DB	09bH
	DB	05bH
	DB	05eH
	DB	09eH
	DB	01dH
	DB	0ddH
	DB	04aH
	DB	08aH
	DB	09H
	DB	0c9H
	DB	0ccH
	DB	0cH
	DB	08fH
	DB	04fH
	DB	085H
	DB	045H
	DB	0c6H
	DB	06H
	DB	03H
	DB	0c3H
	DB	040H
	DB	080H
	DB	01aH
	DB	0daH
	DB	059H
	DB	099H
	DB	09cH
	DB	05cH
	DB	0dfH
	DB	01fH
	DB	0d5H
	DB	015H
	DB	096H
	DB	056H
	DB	053H
	DB	093H
	DB	010H
	DB	0d0H
	DB	047H
	DB	087H
	DB	04H
	DB	0c4H
	DB	0c1H
	DB	01H
	DB	082H
	DB	042H
	DB	088H
	DB	048H
	DB	0cbH
	DB	0bH
	DB	0eH
	DB	0ceH
	DB	04dH
	DB	08dH
	DB	0a0H
	DB	060H
	DB	0e3H
	DB	023H
	DB	026H
	DB	0e6H
	DB	065H
	DB	0a5H
	DB	06fH
	DB	0afH
	DB	02cH
	DB	0ecH
	DB	0e9H
	DB	029H
	DB	0aaH
	DB	06aH
	DB	0fdH
	DB	03dH
	DB	0beH
	DB	07eH
	DB	07bH
	DB	0bbH
	DB	038H
	DB	0f8H
	DB	032H
	DB	0f2H
	DB	071H
	DB	0b1H
	DB	0b4H
	DB	074H
	DB	0f7H
	DB	037H
	DB	00H
	DB	0c2H
	DB	047H
	DB	085H
	DB	08eH
	DB	04cH
	DB	0c9H
	DB	0bH
	DB	0dfH
	DB	01dH
	DB	098H
	DB	05aH
	DB	051H
	DB	093H
	DB	016H
	DB	0d4H
	DB	07dH
	DB	0bfH
	DB	03aH
	DB	0f8H
	DB	0f3H
	DB	031H
	DB	0b4H
	DB	076H
	DB	0a2H
	DB	060H
	DB	0e5H
	DB	027H
	DB	02cH
	DB	0eeH
	DB	06bH
	DB	0a9H
	DB	0faH
	DB	038H
	DB	0bdH
	DB	07fH
	DB	074H
	DB	0b6H
	DB	033H
	DB	0f1H
	DB	025H
	DB	0e7H
	DB	062H
	DB	0a0H
	DB	0abH
	DB	069H
	DB	0ecH
	DB	02eH
	DB	087H
	DB	045H
	DB	0c0H
	DB	02H
	DB	09H
	DB	0cbH
	DB	04eH
	DB	08cH
	DB	058H
	DB	09aH
	DB	01fH
	DB	0ddH
	DB	0d6H
	DB	014H
	DB	091H
	DB	053H
	DB	037H
	DB	0f5H
	DB	070H
	DB	0b2H
	DB	0b9H
	DB	07bH
	DB	0feH
	DB	03cH
	DB	0e8H
	DB	02aH
	DB	0afH
	DB	06dH
	DB	066H
	DB	0a4H
	DB	021H
	DB	0e3H
	DB	04aH
	DB	088H
	DB	0dH
	DB	0cfH
	DB	0c4H
	DB	06H
	DB	083H
	DB	041H
	DB	095H
	DB	057H
	DB	0d2H
	DB	010H
	DB	01bH
	DB	0d9H
	DB	05cH
	DB	09eH
	DB	0cdH
	DB	0fH
	DB	08aH
	DB	048H
	DB	043H
	DB	081H
	DB	04H
	DB	0c6H
	DB	012H
	DB	0d0H
	DB	055H
	DB	097H
	DB	09cH
	DB	05eH
	DB	0dbH
	DB	019H
	DB	0b0H
	DB	072H
	DB	0f7H
	DB	035H
	DB	03eH
	DB	0fcH
	DB	079H
	DB	0bbH
	DB	06fH
	DB	0adH
	DB	028H
	DB	0eaH
	DB	0e1H
	DB	023H
	DB	0a6H
	DB	064H
	DB	06eH
	DB	0acH
	DB	029H
	DB	0ebH
	DB	0e0H
	DB	022H
	DB	0a7H
	DB	065H
	DB	0b1H
	DB	073H
	DB	0f6H
	DB	034H
	DB	03fH
	DB	0fdH
	DB	078H
	DB	0baH
	DB	013H
	DB	0d1H
	DB	054H
	DB	096H
	DB	09dH
	DB	05fH
	DB	0daH
	DB	018H
	DB	0ccH
	DB	0eH
	DB	08bH
	DB	049H
	DB	042H
	DB	080H
	DB	05H
	DB	0c7H
	DB	094H
	DB	056H
	DB	0d3H
	DB	011H
	DB	01aH
	DB	0d8H
	DB	05dH
	DB	09fH
	DB	04bH
	DB	089H
	DB	0cH
	DB	0ceH
	DB	0c5H
	DB	07H
	DB	082H
	DB	040H
	DB	0e9H
	DB	02bH
	DB	0aeH
	DB	06cH
	DB	067H
	DB	0a5H
	DB	020H
	DB	0e2H
	DB	036H
	DB	0f4H
	DB	071H
	DB	0b3H
	DB	0b8H
	DB	07aH
	DB	0ffH
	DB	03dH
	DB	059H
	DB	09bH
	DB	01eH
	DB	0dcH
	DB	0d7H
	DB	015H
	DB	090H
	DB	052H
	DB	086H
	DB	044H
	DB	0c1H
	DB	03H
	DB	08H
	DB	0caH
	DB	04fH
	DB	08dH
	DB	024H
	DB	0e6H
	DB	063H
	DB	0a1H
	DB	0aaH
	DB	068H
	DB	0edH
	DB	02fH
	DB	0fbH
	DB	039H
	DB	0bcH
	DB	07eH
	DB	075H
	DB	0b7H
	DB	032H
	DB	0f0H
	DB	0a3H
	DB	061H
	DB	0e4H
	DB	026H
	DB	02dH
	DB	0efH
	DB	06aH
	DB	0a8H
	DB	07cH
	DB	0beH
	DB	03bH
	DB	0f9H
	DB	0f2H
	DB	030H
	DB	0b5H
	DB	077H
	DB	0deH
	DB	01cH
	DB	099H
	DB	05bH
	DB	050H
	DB	092H
	DB	017H
	DB	0d5H
	DB	01H
	DB	0c3H
	DB	046H
	DB	084H
	DB	08fH
	DB	04dH
	DB	0c8H
	DB	0aH
	DB	00H
	DB	0fbH
	DB	035H
	DB	0ceH
	DB	06aH
	DB	091H
	DB	05fH
	DB	0a4H
	DB	0d4H
	DB	02fH
	DB	0e1H
	DB	01aH
	DB	0beH
	DB	045H
	DB	08bH
	DB	070H
	DB	06bH
	DB	090H
	DB	05eH
	DB	0a5H
	DB	01H
	DB	0faH
	DB	034H
	DB	0cfH
	DB	0bfH
	DB	044H
	DB	08aH
	DB	071H
	DB	0d5H
	DB	02eH
	DB	0e0H
	DB	01bH
	DB	0d6H
	DB	02dH
	DB	0e3H
	DB	018H
	DB	0bcH
	DB	047H
	DB	089H
	DB	072H
	DB	02H
	DB	0f9H
	DB	037H
	DB	0ccH
	DB	068H
	DB	093H
	DB	05dH
	DB	0a6H
	DB	0bdH
	DB	046H
	DB	088H
	DB	073H
	DB	0d7H
	DB	02cH
	DB	0e2H
	DB	019H
	DB	069H
	DB	092H
	DB	05cH
	DB	0a7H
	DB	03H
	DB	0f8H
	DB	036H
	DB	0cdH
	DB	06fH
	DB	094H
	DB	05aH
	DB	0a1H
	DB	05H
	DB	0feH
	DB	030H
	DB	0cbH
	DB	0bbH
	DB	040H
	DB	08eH
	DB	075H
	DB	0d1H
	DB	02aH
	DB	0e4H
	DB	01fH
	DB	04H
	DB	0ffH
	DB	031H
	DB	0caH
	DB	06eH
	DB	095H
	DB	05bH
	DB	0a0H
	DB	0d0H
	DB	02bH
	DB	0e5H
	DB	01eH
	DB	0baH
	DB	041H
	DB	08fH
	DB	074H
	DB	0b9H
	DB	042H
	DB	08cH
	DB	077H
	DB	0d3H
	DB	028H
	DB	0e6H
	DB	01dH
	DB	06dH
	DB	096H
	DB	058H
	DB	0a3H
	DB	07H
	DB	0fcH
	DB	032H
	DB	0c9H
	DB	0d2H
	DB	029H
	DB	0e7H
	DB	01cH
	DB	0b8H
	DB	043H
	DB	08dH
	DB	076H
	DB	06H
	DB	0fdH
	DB	033H
	DB	0c8H
	DB	06cH
	DB	097H
	DB	059H
	DB	0a2H
	DB	0deH
	DB	025H
	DB	0ebH
	DB	010H
	DB	0b4H
	DB	04fH
	DB	081H
	DB	07aH
	DB	0aH
	DB	0f1H
	DB	03fH
	DB	0c4H
	DB	060H
	DB	09bH
	DB	055H
	DB	0aeH
	DB	0b5H
	DB	04eH
	DB	080H
	DB	07bH
	DB	0dfH
	DB	024H
	DB	0eaH
	DB	011H
	DB	061H
	DB	09aH
	DB	054H
	DB	0afH
	DB	0bH
	DB	0f0H
	DB	03eH
	DB	0c5H
	DB	08H
	DB	0f3H
	DB	03dH
	DB	0c6H
	DB	062H
	DB	099H
	DB	057H
	DB	0acH
	DB	0dcH
	DB	027H
	DB	0e9H
	DB	012H
	DB	0b6H
	DB	04dH
	DB	083H
	DB	078H
	DB	063H
	DB	098H
	DB	056H
	DB	0adH
	DB	09H
	DB	0f2H
	DB	03cH
	DB	0c7H
	DB	0b7H
	DB	04cH
	DB	082H
	DB	079H
	DB	0ddH
	DB	026H
	DB	0e8H
	DB	013H
	DB	0b1H
	DB	04aH
	DB	084H
	DB	07fH
	DB	0dbH
	DB	020H
	DB	0eeH
	DB	015H
	DB	065H
	DB	09eH
	DB	050H
	DB	0abH
	DB	0fH
	DB	0f4H
	DB	03aH
	DB	0c1H
	DB	0daH
	DB	021H
	DB	0efH
	DB	014H
	DB	0b0H
	DB	04bH
	DB	085H
	DB	07eH
	DB	0eH
	DB	0f5H
	DB	03bH
	DB	0c0H
	DB	064H
	DB	09fH
	DB	051H
	DB	0aaH
	DB	067H
	DB	09cH
	DB	052H
	DB	0a9H
	DB	0dH
	DB	0f6H
	DB	038H
	DB	0c3H
	DB	0b3H
	DB	048H
	DB	086H
	DB	07dH
	DB	0d9H
	DB	022H
	DB	0ecH
	DB	017H
	DB	0cH
	DB	0f7H
	DB	039H
	DB	0c2H
	DB	066H
	DB	09dH
	DB	053H
	DB	0a8H
	DB	0d8H
	DB	023H
	DB	0edH
	DB	016H
	DB	0b2H
	DB	049H
	DB	087H
	DB	07cH
PUBLIC	changeEndian
; Function compile flags: /Ogspy
; File c:\users\alexis\desktop\sources_gostcrypt_windows_1.3.1_commented\sources_gostcrypt_windows_1.3.1é\sources_gostcrypt_windows_1.3.1\crypto\grasshoppercipher.c
;	COMDAT changeEndian
_TEXT	SEGMENT
ret$ = 8
changeEndian PROC					; COMDAT

; 631  : 	unsigned long tmp = 0L;
; 632  : 
; 633  : 	tmp  = (*ret & 0xFF) << 24;

  00000	8b 11		 mov	 edx, DWORD PTR [rcx]

; 634  : 	tmp |= (*ret & 0xFF00) << 8;
; 635  : 	tmp |= (*ret & 0xFF0000) >> 8;
; 636  : 	tmp |= (*ret & 0xFF000000) >> 24;
; 637  : 	*ret = tmp;

  00002	41 b9 00 ff 00
	00		 mov	 r9d, 65280		; 0000ff00H
  00008	44 8b c2	 mov	 r8d, edx
  0000b	8b c2		 mov	 eax, edx
  0000d	c1 ea 08	 shr	 edx, 8
  00010	41 c1 e0 10	 shl	 r8d, 16
  00014	41 23 c1	 and	 eax, r9d
  00017	41 23 d1	 and	 edx, r9d
  0001a	44 0b c0	 or	 r8d, eax
  0001d	0f b6 41 03	 movzx	 eax, BYTE PTR [rcx+3]
  00021	41 c1 e0 08	 shl	 r8d, 8
  00025	44 0b c2	 or	 r8d, edx
  00028	44 0b c0	 or	 r8d, eax
  0002b	44 89 01	 mov	 DWORD PTR [rcx], r8d

; 638  : 
; 639  : 	return;
; 640  : }

  0002e	c3		 ret	 0
changeEndian ENDP
_TEXT	ENDS
PUBLIC	grasshopper_xor_ks
; Function compile flags: /Ogspy
;	COMDAT grasshopper_xor_ks
_TEXT	SEGMENT
ks$ = 8
out_ks$ = 16
in$ = 24
len$ = 32
grasshopper_xor_ks PROC					; COMDAT

; 592  : 	unsigned long i;
; 593  : 	if (!len)
; 594  : 		return;
; 595  : 
; 596  : 	out_ks->y000 = ks->y000 ^ in[0]; out_ks->y001 = ks->y001 ^ in[0]; out_ks->y010 = ks->y010 ^ in[0]; out_ks->y011 = ks->y011 ^ in[0];

  00000	41 8b 00	 mov	 eax, DWORD PTR [r8]
  00003	4c 8b c9	 mov	 r9, rcx
  00006	33 01		 xor	 eax, DWORD PTR [rcx]
  00008	89 02		 mov	 DWORD PTR [rdx], eax
  0000a	8b 41 04	 mov	 eax, DWORD PTR [rcx+4]
  0000d	41 33 00	 xor	 eax, DWORD PTR [r8]
  00010	89 42 04	 mov	 DWORD PTR [rdx+4], eax
  00013	41 8b 00	 mov	 eax, DWORD PTR [r8]
  00016	33 41 08	 xor	 eax, DWORD PTR [rcx+8]
  00019	89 42 08	 mov	 DWORD PTR [rdx+8], eax
  0001c	8b 41 0c	 mov	 eax, DWORD PTR [rcx+12]
  0001f	41 33 00	 xor	 eax, DWORD PTR [r8]
  00022	89 42 0c	 mov	 DWORD PTR [rdx+12], eax

; 597  : 	out_ks->y100 = ks->y100 ^ in[0]; out_ks->y101 = ks->y101 ^ in[0]; out_ks->y110 = ks->y110 ^ in[0]; out_ks->y111 = ks->y111 ^ in[0];

  00025	41 8b 00	 mov	 eax, DWORD PTR [r8]
  00028	33 41 10	 xor	 eax, DWORD PTR [rcx+16]
  0002b	89 42 10	 mov	 DWORD PTR [rdx+16], eax
  0002e	8b 41 14	 mov	 eax, DWORD PTR [rcx+20]
  00031	41 33 00	 xor	 eax, DWORD PTR [r8]
  00034	89 42 14	 mov	 DWORD PTR [rdx+20], eax
  00037	41 8b 00	 mov	 eax, DWORD PTR [r8]
  0003a	33 41 18	 xor	 eax, DWORD PTR [rcx+24]
  0003d	89 42 18	 mov	 DWORD PTR [rdx+24], eax
  00040	8b 41 1c	 mov	 eax, DWORD PTR [rcx+28]
  00043	41 33 00	 xor	 eax, DWORD PTR [r8]
  00046	89 42 1c	 mov	 DWORD PTR [rdx+28], eax

; 598  : 	out_ks->y200 = ks->y200 ^ in[0]; out_ks->y201 = ks->y201 ^ in[0]; out_ks->y210 = ks->y210 ^ in[0]; out_ks->y211 = ks->y211 ^ in[0];

  00049	41 8b 00	 mov	 eax, DWORD PTR [r8]
  0004c	33 41 20	 xor	 eax, DWORD PTR [rcx+32]
  0004f	89 42 20	 mov	 DWORD PTR [rdx+32], eax
  00052	8b 41 24	 mov	 eax, DWORD PTR [rcx+36]
  00055	41 33 00	 xor	 eax, DWORD PTR [r8]
  00058	89 42 24	 mov	 DWORD PTR [rdx+36], eax
  0005b	41 8b 00	 mov	 eax, DWORD PTR [r8]
  0005e	33 41 28	 xor	 eax, DWORD PTR [rcx+40]
  00061	89 42 28	 mov	 DWORD PTR [rdx+40], eax
  00064	8b 41 2c	 mov	 eax, DWORD PTR [rcx+44]
  00067	41 33 00	 xor	 eax, DWORD PTR [r8]
  0006a	89 42 2c	 mov	 DWORD PTR [rdx+44], eax

; 599  : 	out_ks->y300 = ks->y300 ^ in[0]; out_ks->y301 = ks->y301 ^ in[0]; out_ks->y310 = ks->y310 ^ in[0]; out_ks->y311 = ks->y311 ^ in[0];

  0006d	41 8b 00	 mov	 eax, DWORD PTR [r8]
  00070	33 41 30	 xor	 eax, DWORD PTR [rcx+48]
  00073	89 42 30	 mov	 DWORD PTR [rdx+48], eax
  00076	8b 41 34	 mov	 eax, DWORD PTR [rcx+52]
  00079	41 33 00	 xor	 eax, DWORD PTR [r8]
  0007c	89 42 34	 mov	 DWORD PTR [rdx+52], eax
  0007f	41 8b 00	 mov	 eax, DWORD PTR [r8]
  00082	33 41 38	 xor	 eax, DWORD PTR [rcx+56]
  00085	89 42 38	 mov	 DWORD PTR [rdx+56], eax
  00088	8b 41 3c	 mov	 eax, DWORD PTR [rcx+60]
  0008b	41 33 00	 xor	 eax, DWORD PTR [r8]
  0008e	89 42 3c	 mov	 DWORD PTR [rdx+60], eax

; 600  : 	out_ks->y400 = ks->y400 ^ in[0]; out_ks->y401 = ks->y401 ^ in[0]; out_ks->y410 = ks->y410 ^ in[0]; out_ks->y411 = ks->y411 ^ in[0];

  00091	41 8b 00	 mov	 eax, DWORD PTR [r8]
  00094	33 41 40	 xor	 eax, DWORD PTR [rcx+64]
  00097	89 42 40	 mov	 DWORD PTR [rdx+64], eax
  0009a	8b 41 44	 mov	 eax, DWORD PTR [rcx+68]
  0009d	41 33 00	 xor	 eax, DWORD PTR [r8]
  000a0	89 42 44	 mov	 DWORD PTR [rdx+68], eax
  000a3	41 8b 00	 mov	 eax, DWORD PTR [r8]
  000a6	33 41 48	 xor	 eax, DWORD PTR [rcx+72]
  000a9	89 42 48	 mov	 DWORD PTR [rdx+72], eax
  000ac	8b 41 4c	 mov	 eax, DWORD PTR [rcx+76]
  000af	41 33 00	 xor	 eax, DWORD PTR [r8]
  000b2	89 42 4c	 mov	 DWORD PTR [rdx+76], eax

; 601  : 	out_ks->y500 = ks->y500 ^ in[0]; out_ks->y501 = ks->y501 ^ in[0]; out_ks->y510 = ks->y510 ^ in[0]; out_ks->y511 = ks->y511 ^ in[0];

  000b5	41 8b 00	 mov	 eax, DWORD PTR [r8]
  000b8	33 41 50	 xor	 eax, DWORD PTR [rcx+80]
  000bb	89 42 50	 mov	 DWORD PTR [rdx+80], eax
  000be	8b 41 54	 mov	 eax, DWORD PTR [rcx+84]
  000c1	41 33 00	 xor	 eax, DWORD PTR [r8]
  000c4	89 42 54	 mov	 DWORD PTR [rdx+84], eax
  000c7	41 8b 00	 mov	 eax, DWORD PTR [r8]
  000ca	33 41 58	 xor	 eax, DWORD PTR [rcx+88]
  000cd	89 42 58	 mov	 DWORD PTR [rdx+88], eax
  000d0	8b 41 5c	 mov	 eax, DWORD PTR [rcx+92]
  000d3	41 33 00	 xor	 eax, DWORD PTR [r8]
  000d6	89 42 5c	 mov	 DWORD PTR [rdx+92], eax

; 602  : 	out_ks->y600 = ks->y600 ^ in[0]; out_ks->y601 = ks->y601 ^ in[0]; out_ks->y610 = ks->y610 ^ in[0]; out_ks->y611 = ks->y611 ^ in[0];

  000d9	41 8b 00	 mov	 eax, DWORD PTR [r8]
  000dc	33 41 60	 xor	 eax, DWORD PTR [rcx+96]
  000df	89 42 60	 mov	 DWORD PTR [rdx+96], eax
  000e2	8b 41 64	 mov	 eax, DWORD PTR [rcx+100]
  000e5	41 33 00	 xor	 eax, DWORD PTR [r8]
  000e8	89 42 64	 mov	 DWORD PTR [rdx+100], eax
  000eb	41 8b 00	 mov	 eax, DWORD PTR [r8]
  000ee	33 41 68	 xor	 eax, DWORD PTR [rcx+104]
  000f1	89 42 68	 mov	 DWORD PTR [rdx+104], eax
  000f4	8b 41 6c	 mov	 eax, DWORD PTR [rcx+108]
  000f7	41 33 00	 xor	 eax, DWORD PTR [r8]
  000fa	89 42 6c	 mov	 DWORD PTR [rdx+108], eax

; 603  : 	out_ks->y700 = ks->y700 ^ in[0]; out_ks->y701 = ks->y701 ^ in[0]; out_ks->y710 = ks->y710 ^ in[0]; out_ks->y711 = ks->y711 ^ in[0];

  000fd	41 8b 00	 mov	 eax, DWORD PTR [r8]
  00100	33 41 70	 xor	 eax, DWORD PTR [rcx+112]
  00103	89 42 70	 mov	 DWORD PTR [rdx+112], eax
  00106	8b 41 74	 mov	 eax, DWORD PTR [rcx+116]
  00109	41 33 00	 xor	 eax, DWORD PTR [r8]
  0010c	89 42 74	 mov	 DWORD PTR [rdx+116], eax
  0010f	41 8b 00	 mov	 eax, DWORD PTR [r8]
  00112	33 41 78	 xor	 eax, DWORD PTR [rcx+120]
  00115	89 42 78	 mov	 DWORD PTR [rdx+120], eax
  00118	8b 41 7c	 mov	 eax, DWORD PTR [rcx+124]
  0011b	41 33 00	 xor	 eax, DWORD PTR [r8]
  0011e	89 42 7c	 mov	 DWORD PTR [rdx+124], eax

; 604  : 	out_ks->y800 = ks->y800 ^ in[0]; out_ks->y801 = ks->y801 ^ in[0]; out_ks->y810 = ks->y810 ^ in[0]; out_ks->y811 = ks->y811 ^ in[0];

  00121	41 8b 00	 mov	 eax, DWORD PTR [r8]
  00124	33 81 80 00 00
	00		 xor	 eax, DWORD PTR [rcx+128]
  0012a	89 82 80 00 00
	00		 mov	 DWORD PTR [rdx+128], eax
  00130	8b 81 84 00 00
	00		 mov	 eax, DWORD PTR [rcx+132]
  00136	41 33 00	 xor	 eax, DWORD PTR [r8]
  00139	89 82 84 00 00
	00		 mov	 DWORD PTR [rdx+132], eax
  0013f	41 8b 00	 mov	 eax, DWORD PTR [r8]
  00142	33 81 88 00 00
	00		 xor	 eax, DWORD PTR [rcx+136]
  00148	89 82 88 00 00
	00		 mov	 DWORD PTR [rdx+136], eax
  0014e	8b 81 8c 00 00
	00		 mov	 eax, DWORD PTR [rcx+140]
  00154	41 33 00	 xor	 eax, DWORD PTR [r8]
  00157	89 82 8c 00 00
	00		 mov	 DWORD PTR [rdx+140], eax

; 605  : 	out_ks->y900 = ks->y900 ^ in[0]; out_ks->y901 = ks->y901 ^ in[0]; out_ks->y910 = ks->y910 ^ in[0]; out_ks->y911 = ks->y911 ^ in[0];

  0015d	41 8b 00	 mov	 eax, DWORD PTR [r8]
  00160	33 81 90 00 00
	00		 xor	 eax, DWORD PTR [rcx+144]
  00166	89 82 90 00 00
	00		 mov	 DWORD PTR [rdx+144], eax
  0016c	8b 81 94 00 00
	00		 mov	 eax, DWORD PTR [rcx+148]
  00172	41 33 00	 xor	 eax, DWORD PTR [r8]
  00175	89 82 94 00 00
	00		 mov	 DWORD PTR [rdx+148], eax
  0017b	41 8b 00	 mov	 eax, DWORD PTR [r8]
  0017e	33 81 98 00 00
	00		 xor	 eax, DWORD PTR [rcx+152]
  00184	89 82 98 00 00
	00		 mov	 DWORD PTR [rdx+152], eax
  0018a	8b 81 9c 00 00
	00		 mov	 eax, DWORD PTR [rcx+156]

; 606  : 	for (i = 1; i < len; i++)
; 607  : 	{
; 608  : 		out_ks->y000 = ks->y000 ^ in[i]; out_ks->y001 = ks->y001 ^ in[0]; out_ks->y010 = ks->y010 ^ in[0]; out_ks->y011 = ks->y011 ^ in[0];

  00190	41 8b 48 04	 mov	 ecx, DWORD PTR [r8+4]
  00194	41 33 00	 xor	 eax, DWORD PTR [r8]
  00197	89 82 9c 00 00
	00		 mov	 DWORD PTR [rdx+156], eax
  0019d	8b c1		 mov	 eax, ecx
  0019f	41 33 01	 xor	 eax, DWORD PTR [r9]
  001a2	89 02		 mov	 DWORD PTR [rdx], eax
  001a4	41 8b 41 04	 mov	 eax, DWORD PTR [r9+4]
  001a8	41 33 00	 xor	 eax, DWORD PTR [r8]
  001ab	89 42 04	 mov	 DWORD PTR [rdx+4], eax
  001ae	41 8b 00	 mov	 eax, DWORD PTR [r8]
  001b1	41 33 41 08	 xor	 eax, DWORD PTR [r9+8]
  001b5	89 42 08	 mov	 DWORD PTR [rdx+8], eax
  001b8	41 8b 41 0c	 mov	 eax, DWORD PTR [r9+12]
  001bc	41 33 00	 xor	 eax, DWORD PTR [r8]
  001bf	89 42 0c	 mov	 DWORD PTR [rdx+12], eax

; 609  : 		out_ks->y100 = ks->y100 ^ in[i]; out_ks->y101 = ks->y101 ^ in[0]; out_ks->y110 = ks->y110 ^ in[0]; out_ks->y111 = ks->y111 ^ in[0];

  001c2	8b c1		 mov	 eax, ecx
  001c4	41 33 41 10	 xor	 eax, DWORD PTR [r9+16]
  001c8	89 42 10	 mov	 DWORD PTR [rdx+16], eax
  001cb	41 8b 41 14	 mov	 eax, DWORD PTR [r9+20]
  001cf	41 33 00	 xor	 eax, DWORD PTR [r8]
  001d2	89 42 14	 mov	 DWORD PTR [rdx+20], eax
  001d5	41 8b 00	 mov	 eax, DWORD PTR [r8]
  001d8	41 33 41 18	 xor	 eax, DWORD PTR [r9+24]
  001dc	89 42 18	 mov	 DWORD PTR [rdx+24], eax
  001df	41 8b 41 1c	 mov	 eax, DWORD PTR [r9+28]
  001e3	41 33 00	 xor	 eax, DWORD PTR [r8]
  001e6	89 42 1c	 mov	 DWORD PTR [rdx+28], eax

; 610  : 		out_ks->y200 = ks->y200 ^ in[i]; out_ks->y201 = ks->y201 ^ in[0]; out_ks->y210 = ks->y210 ^ in[0]; out_ks->y211 = ks->y211 ^ in[0];

  001e9	8b c1		 mov	 eax, ecx
  001eb	41 33 41 20	 xor	 eax, DWORD PTR [r9+32]
  001ef	89 42 20	 mov	 DWORD PTR [rdx+32], eax
  001f2	41 8b 41 24	 mov	 eax, DWORD PTR [r9+36]
  001f6	41 33 00	 xor	 eax, DWORD PTR [r8]
  001f9	89 42 24	 mov	 DWORD PTR [rdx+36], eax
  001fc	41 8b 00	 mov	 eax, DWORD PTR [r8]
  001ff	41 33 41 28	 xor	 eax, DWORD PTR [r9+40]
  00203	89 42 28	 mov	 DWORD PTR [rdx+40], eax
  00206	41 8b 41 2c	 mov	 eax, DWORD PTR [r9+44]
  0020a	41 33 00	 xor	 eax, DWORD PTR [r8]
  0020d	89 42 2c	 mov	 DWORD PTR [rdx+44], eax

; 611  : 		out_ks->y300 = ks->y300 ^ in[i]; out_ks->y301 = ks->y301 ^ in[0]; out_ks->y310 = ks->y310 ^ in[0]; out_ks->y311 = ks->y311 ^ in[0];

  00210	8b c1		 mov	 eax, ecx
  00212	41 33 41 30	 xor	 eax, DWORD PTR [r9+48]
  00216	89 42 30	 mov	 DWORD PTR [rdx+48], eax
  00219	41 8b 41 34	 mov	 eax, DWORD PTR [r9+52]
  0021d	41 33 00	 xor	 eax, DWORD PTR [r8]
  00220	89 42 34	 mov	 DWORD PTR [rdx+52], eax
  00223	41 8b 00	 mov	 eax, DWORD PTR [r8]
  00226	41 33 41 38	 xor	 eax, DWORD PTR [r9+56]
  0022a	89 42 38	 mov	 DWORD PTR [rdx+56], eax
  0022d	41 8b 41 3c	 mov	 eax, DWORD PTR [r9+60]
  00231	41 33 00	 xor	 eax, DWORD PTR [r8]
  00234	89 42 3c	 mov	 DWORD PTR [rdx+60], eax

; 612  : 		out_ks->y400 = ks->y400 ^ in[i]; out_ks->y401 = ks->y401 ^ in[0]; out_ks->y410 = ks->y410 ^ in[0]; out_ks->y411 = ks->y411 ^ in[0];

  00237	8b c1		 mov	 eax, ecx
  00239	41 33 41 40	 xor	 eax, DWORD PTR [r9+64]
  0023d	89 42 40	 mov	 DWORD PTR [rdx+64], eax
  00240	41 8b 41 44	 mov	 eax, DWORD PTR [r9+68]
  00244	41 33 00	 xor	 eax, DWORD PTR [r8]
  00247	89 42 44	 mov	 DWORD PTR [rdx+68], eax
  0024a	41 8b 00	 mov	 eax, DWORD PTR [r8]
  0024d	41 33 41 48	 xor	 eax, DWORD PTR [r9+72]
  00251	89 42 48	 mov	 DWORD PTR [rdx+72], eax
  00254	41 8b 41 4c	 mov	 eax, DWORD PTR [r9+76]
  00258	41 33 00	 xor	 eax, DWORD PTR [r8]
  0025b	89 42 4c	 mov	 DWORD PTR [rdx+76], eax

; 613  : 		out_ks->y500 = ks->y500 ^ in[i]; out_ks->y501 = ks->y501 ^ in[0]; out_ks->y510 = ks->y510 ^ in[0]; out_ks->y511 = ks->y511 ^ in[0];

  0025e	8b c1		 mov	 eax, ecx
  00260	41 33 41 50	 xor	 eax, DWORD PTR [r9+80]
  00264	89 42 50	 mov	 DWORD PTR [rdx+80], eax
  00267	41 8b 41 54	 mov	 eax, DWORD PTR [r9+84]
  0026b	41 33 00	 xor	 eax, DWORD PTR [r8]
  0026e	89 42 54	 mov	 DWORD PTR [rdx+84], eax
  00271	41 8b 00	 mov	 eax, DWORD PTR [r8]
  00274	41 33 41 58	 xor	 eax, DWORD PTR [r9+88]
  00278	89 42 58	 mov	 DWORD PTR [rdx+88], eax
  0027b	41 8b 41 5c	 mov	 eax, DWORD PTR [r9+92]
  0027f	41 33 00	 xor	 eax, DWORD PTR [r8]
  00282	89 42 5c	 mov	 DWORD PTR [rdx+92], eax

; 614  : 		out_ks->y600 = ks->y600 ^ in[i]; out_ks->y601 = ks->y601 ^ in[0]; out_ks->y610 = ks->y610 ^ in[0]; out_ks->y611 = ks->y611 ^ in[0];

  00285	8b c1		 mov	 eax, ecx
  00287	41 33 41 60	 xor	 eax, DWORD PTR [r9+96]
  0028b	89 42 60	 mov	 DWORD PTR [rdx+96], eax
  0028e	41 8b 41 64	 mov	 eax, DWORD PTR [r9+100]
  00292	41 33 00	 xor	 eax, DWORD PTR [r8]
  00295	89 42 64	 mov	 DWORD PTR [rdx+100], eax
  00298	41 8b 00	 mov	 eax, DWORD PTR [r8]
  0029b	41 33 41 68	 xor	 eax, DWORD PTR [r9+104]
  0029f	89 42 68	 mov	 DWORD PTR [rdx+104], eax
  002a2	41 8b 41 6c	 mov	 eax, DWORD PTR [r9+108]
  002a6	41 33 00	 xor	 eax, DWORD PTR [r8]
  002a9	89 42 6c	 mov	 DWORD PTR [rdx+108], eax

; 615  : 		out_ks->y700 = ks->y700 ^ in[i]; out_ks->y701 = ks->y701 ^ in[0]; out_ks->y710 = ks->y710 ^ in[0]; out_ks->y711 = ks->y711 ^ in[0];

  002ac	8b c1		 mov	 eax, ecx
  002ae	41 33 41 70	 xor	 eax, DWORD PTR [r9+112]
  002b2	89 42 70	 mov	 DWORD PTR [rdx+112], eax
  002b5	41 8b 41 74	 mov	 eax, DWORD PTR [r9+116]
  002b9	41 33 00	 xor	 eax, DWORD PTR [r8]
  002bc	89 42 74	 mov	 DWORD PTR [rdx+116], eax
  002bf	41 8b 00	 mov	 eax, DWORD PTR [r8]
  002c2	41 33 41 78	 xor	 eax, DWORD PTR [r9+120]
  002c6	89 42 78	 mov	 DWORD PTR [rdx+120], eax
  002c9	41 8b 41 7c	 mov	 eax, DWORD PTR [r9+124]
  002cd	41 33 00	 xor	 eax, DWORD PTR [r8]
  002d0	89 42 7c	 mov	 DWORD PTR [rdx+124], eax

; 616  : 		out_ks->y800 = ks->y800 ^ in[i]; out_ks->y801 = ks->y801 ^ in[0]; out_ks->y810 = ks->y810 ^ in[0]; out_ks->y811 = ks->y811 ^ in[0];

  002d3	8b c1		 mov	 eax, ecx
  002d5	41 33 81 80 00
	00 00		 xor	 eax, DWORD PTR [r9+128]
  002dc	89 82 80 00 00
	00		 mov	 DWORD PTR [rdx+128], eax
  002e2	41 8b 81 84 00
	00 00		 mov	 eax, DWORD PTR [r9+132]
  002e9	41 33 00	 xor	 eax, DWORD PTR [r8]
  002ec	89 82 84 00 00
	00		 mov	 DWORD PTR [rdx+132], eax
  002f2	41 8b 00	 mov	 eax, DWORD PTR [r8]
  002f5	41 33 81 88 00
	00 00		 xor	 eax, DWORD PTR [r9+136]
  002fc	89 82 88 00 00
	00		 mov	 DWORD PTR [rdx+136], eax
  00302	41 8b 81 8c 00
	00 00		 mov	 eax, DWORD PTR [r9+140]
  00309	41 33 00	 xor	 eax, DWORD PTR [r8]
  0030c	89 82 8c 00 00
	00		 mov	 DWORD PTR [rdx+140], eax

; 617  : 		out_ks->y900 = ks->y900 ^ in[i]; out_ks->y901 = ks->y901 ^ in[0]; out_ks->y910 = ks->y910 ^ in[0]; out_ks->y911 = ks->y911 ^ in[0];

  00312	41 33 89 90 00
	00 00		 xor	 ecx, DWORD PTR [r9+144]
  00319	89 8a 90 00 00
	00		 mov	 DWORD PTR [rdx+144], ecx
  0031f	41 8b 81 94 00
	00 00		 mov	 eax, DWORD PTR [r9+148]
  00326	41 33 00	 xor	 eax, DWORD PTR [r8]
  00329	89 82 94 00 00
	00		 mov	 DWORD PTR [rdx+148], eax
  0032f	41 8b 00	 mov	 eax, DWORD PTR [r8]
  00332	41 33 81 98 00
	00 00		 xor	 eax, DWORD PTR [r9+152]
  00339	89 82 98 00 00
	00		 mov	 DWORD PTR [rdx+152], eax
  0033f	41 8b 81 9c 00
	00 00		 mov	 eax, DWORD PTR [r9+156]
  00346	41 33 00	 xor	 eax, DWORD PTR [r8]
  00349	89 82 9c 00 00
	00		 mov	 DWORD PTR [rdx+156], eax

; 618  : 	}
; 619  : }

  0034f	c3		 ret	 0
grasshopper_xor_ks ENDP
_TEXT	ENDS
PUBLIC	ll
; Function compile flags: /Ogspy
;	COMDAT ll
_TEXT	SEGMENT
block$ = 8
ll	PROC						; COMDAT

; 224  : 	unsigned char val;
; 225  : 
; 226  : 	val  =  mult_mod_poly[4][(block[0] >> 24) & 0xFF];
; 227  : 	val ^=  mult_mod_poly[2][(block[0] >> 16) & 0xFF];
; 228  : 	val ^=  mult_mod_poly[3][(block[0] >>  8) & 0xFF];
; 229  : 	val ^=  mult_mod_poly[1][(block[0] >>  0) & 0xFF];
; 230  : 
; 231  : 	val ^=  mult_mod_poly[6][(block[1] >> 24) & 0xFF];
; 232  : 	val ^=  mult_mod_poly[5][(block[1] >> 16) & 0xFF];
; 233  : 	val ^=  mult_mod_poly[0][(block[1] >>  8) & 0xFF];
; 234  : 	val ^=  mult_mod_poly[7][(block[1] >>  0) & 0xFF];

  00000	0f b6 41 04	 movzx	 eax, BYTE PTR [rcx+4]

; 235  : 
; 236  : 	val ^=  mult_mod_poly[0][(block[2] >> 24) & 0xFF];
; 237  : 	val ^=  mult_mod_poly[5][(block[2] >> 16) & 0xFF];
; 238  : 	val ^=  mult_mod_poly[6][(block[2] >>  8) & 0xFF];
; 239  : 	val ^=  mult_mod_poly[1][(block[2] >>  0) & 0xFF];

  00004	0f b6 51 08	 movzx	 edx, BYTE PTR [rcx+8]
  00008	4c 8d 15 00 00
	00 00		 lea	 r10, OFFSET FLAT:mult_mod_poly
  0000f	46 8a 84 12 00
	01 00 00	 mov	 r8b, BYTE PTR [rdx+r10+256]
  00017	4c 8b c9	 mov	 r9, rcx
  0001a	46 32 84 10 00
	07 00 00	 xor	 r8b, BYTE PTR [rax+r10+1792]

; 240  : 
; 241  : 	val ^=  mult_mod_poly[3][(block[3] >> 24) & 0xFF];
; 242  : 	val ^=  mult_mod_poly[2][(block[3] >> 16) & 0xFF];
; 243  : 	val ^=  mult_mod_poly[4][(block[3] >>  8) & 0xFF];
; 244  : 	val ^=  mult_mod_poly[0][(block[3] >>  0) & 0xFF];

  00022	0f b6 41 0c	 movzx	 eax, BYTE PTR [rcx+12]

; 245  : 
; 246  : 	return(val);

  00026	46 32 04 10	 xor	 r8b, BYTE PTR [rax+r10]
  0002a	0f b6 01	 movzx	 eax, BYTE PTR [rcx]
  0002d	46 32 84 10 00
	01 00 00	 xor	 r8b, BYTE PTR [rax+r10+256]
  00035	0f b6 41 0f	 movzx	 eax, BYTE PTR [rcx+15]
  00039	46 32 84 10 00
	03 00 00	 xor	 r8b, BYTE PTR [rax+r10+768]
  00041	0f b6 41 0e	 movzx	 eax, BYTE PTR [rcx+14]
  00045	46 32 84 10 00
	02 00 00	 xor	 r8b, BYTE PTR [rax+r10+512]
  0004d	0f b6 41 0a	 movzx	 eax, BYTE PTR [rcx+10]
  00051	46 32 84 10 00
	05 00 00	 xor	 r8b, BYTE PTR [rax+r10+1280]
  00059	0f b6 41 0d	 movzx	 eax, BYTE PTR [rcx+13]
  0005d	46 32 84 10 00
	04 00 00	 xor	 r8b, BYTE PTR [rax+r10+1024]
  00065	0f b6 41 09	 movzx	 eax, BYTE PTR [rcx+9]
  00069	46 32 84 10 00
	06 00 00	 xor	 r8b, BYTE PTR [rax+r10+1536]
  00071	0f b6 41 06	 movzx	 eax, BYTE PTR [rcx+6]
  00075	46 32 84 10 00
	05 00 00	 xor	 r8b, BYTE PTR [rax+r10+1280]
  0007d	0f b6 41 07	 movzx	 eax, BYTE PTR [rcx+7]
  00081	46 32 84 10 00
	06 00 00	 xor	 r8b, BYTE PTR [rax+r10+1536]
  00089	0f b6 41 0b	 movzx	 eax, BYTE PTR [rcx+11]
  0008d	46 32 04 10	 xor	 r8b, BYTE PTR [rax+r10]
  00091	0f b6 41 01	 movzx	 eax, BYTE PTR [rcx+1]
  00095	0f b6 49 02	 movzx	 ecx, BYTE PTR [rcx+2]
  00099	46 32 84 10 00
	03 00 00	 xor	 r8b, BYTE PTR [rax+r10+768]
  000a1	46 32 84 11 00
	02 00 00	 xor	 r8b, BYTE PTR [rcx+r10+512]
  000a9	41 0f b6 49 03	 movzx	 ecx, BYTE PTR [r9+3]
  000ae	46 32 84 11 00
	04 00 00	 xor	 r8b, BYTE PTR [rcx+r10+1024]
  000b6	41 0f b6 49 05	 movzx	 ecx, BYTE PTR [r9+5]
  000bb	46 32 04 11	 xor	 r8b, BYTE PTR [rcx+r10]
  000bf	41 8a c0	 mov	 al, r8b

; 247  : }

  000c2	c3		 ret	 0
ll	ENDP
_TEXT	ENDS
PUBLIC	S_inv
; Function compile flags: /Ogspy
;	COMDAT S_inv
_TEXT	SEGMENT
block$ = 8
S_inv	PROC						; COMDAT

; 183  : 	unsigned long valtmp;
; 184  : 
; 185  : 	valtmp  = ((unsigned long)(pi_inv[(block[0] >> 24) & 0xFF]) << 24);
; 186  : 	valtmp |= ((unsigned long)(pi_inv[(block[0] >> 16) & 0xFF]) << 16);
; 187  : 	valtmp |= ((unsigned long)(pi_inv[(block[0] >>  8) & 0xFF]) <<  8);
; 188  : 	valtmp |=  (unsigned long)(pi_inv[ block[0] & 0xFF]);
; 189  : 
; 190  : 	block[0] = valtmp;

  00000	0f b6 41 03	 movzx	 eax, BYTE PTR [rcx+3]
  00004	4c 8b c9	 mov	 r9, rcx
  00007	4c 8d 15 00 00
	00 00		 lea	 r10, OFFSET FLAT:pi_inv
  0000e	46 0f b6 04 10	 movzx	 r8d, BYTE PTR [rax+r10]
  00013	0f b6 41 02	 movzx	 eax, BYTE PTR [rcx+2]
  00017	42 0f b6 14 10	 movzx	 edx, BYTE PTR [rax+r10]
  0001c	0f b6 41 01	 movzx	 eax, BYTE PTR [rcx+1]
  00020	41 c1 e0 08	 shl	 r8d, 8
  00024	42 0f b6 0c 10	 movzx	 ecx, BYTE PTR [rax+r10]
  00029	41 0f b6 01	 movzx	 eax, BYTE PTR [r9]
  0002d	44 0b c2	 or	 r8d, edx
  00030	41 c1 e0 08	 shl	 r8d, 8
  00034	44 0b c1	 or	 r8d, ecx
  00037	42 0f b6 0c 10	 movzx	 ecx, BYTE PTR [rax+r10]

; 191  : 
; 192  : 	valtmp  = ((unsigned long)(pi_inv[(block[1] >> 24) & 0xFF]) << 24);
; 193  : 	valtmp |= ((unsigned long)(pi_inv[(block[1] >> 16) & 0xFF]) << 16);
; 194  : 	valtmp |= ((unsigned long)(pi_inv[(block[1] >>  8) & 0xFF]) <<  8);
; 195  : 	valtmp |=  (unsigned long)(pi_inv[block[1] & 0xFF]);
; 196  : 
; 197  : 	block[1] = valtmp;

  0003c	41 0f b6 41 07	 movzx	 eax, BYTE PTR [r9+7]
  00041	41 c1 e0 08	 shl	 r8d, 8
  00045	44 0b c1	 or	 r8d, ecx
  00048	45 89 01	 mov	 DWORD PTR [r9], r8d
  0004b	42 0f b6 14 10	 movzx	 edx, BYTE PTR [rax+r10]
  00050	41 0f b6 41 06	 movzx	 eax, BYTE PTR [r9+6]
  00055	42 0f b6 0c 10	 movzx	 ecx, BYTE PTR [rax+r10]
  0005a	41 0f b6 41 05	 movzx	 eax, BYTE PTR [r9+5]
  0005f	c1 e2 08	 shl	 edx, 8
  00062	0b d1		 or	 edx, ecx
  00064	42 0f b6 0c 10	 movzx	 ecx, BYTE PTR [rax+r10]
  00069	41 0f b6 41 04	 movzx	 eax, BYTE PTR [r9+4]
  0006e	c1 e2 08	 shl	 edx, 8
  00071	0b d1		 or	 edx, ecx
  00073	42 0f b6 0c 10	 movzx	 ecx, BYTE PTR [rax+r10]

; 198  : 
; 199  : 	valtmp  = ((unsigned long)(pi_inv[(block[2] >> 24) & 0xFF]) << 24);
; 200  : 	valtmp |= ((unsigned long)(pi_inv[(block[2] >> 16) & 0xFF]) << 16);
; 201  : 	valtmp |= ((unsigned long)(pi_inv[(block[2] >>  8) & 0xFF]) <<  8);
; 202  : 	valtmp |=  (unsigned long)(pi_inv[block[2] & 0xFF]);
; 203  : 	
; 204  : 	block[2] = valtmp;

  00078	41 0f b6 41 0b	 movzx	 eax, BYTE PTR [r9+11]
  0007d	c1 e2 08	 shl	 edx, 8
  00080	0b d1		 or	 edx, ecx
  00082	41 89 51 04	 mov	 DWORD PTR [r9+4], edx
  00086	42 0f b6 14 10	 movzx	 edx, BYTE PTR [rax+r10]
  0008b	41 0f b6 41 0a	 movzx	 eax, BYTE PTR [r9+10]
  00090	42 0f b6 0c 10	 movzx	 ecx, BYTE PTR [rax+r10]
  00095	41 0f b6 41 09	 movzx	 eax, BYTE PTR [r9+9]
  0009a	c1 e2 08	 shl	 edx, 8
  0009d	0b d1		 or	 edx, ecx
  0009f	42 0f b6 0c 10	 movzx	 ecx, BYTE PTR [rax+r10]
  000a4	41 0f b6 41 08	 movzx	 eax, BYTE PTR [r9+8]
  000a9	c1 e2 08	 shl	 edx, 8
  000ac	0b d1		 or	 edx, ecx
  000ae	42 0f b6 0c 10	 movzx	 ecx, BYTE PTR [rax+r10]

; 205  : 
; 206  : 	valtmp  = ((unsigned long)(pi_inv[(block[3] >> 24) & 0xFF]) << 24);
; 207  : 	valtmp |= ((unsigned long)(pi_inv[(block[3] >> 16) & 0xFF]) << 16);
; 208  : 	valtmp |= ((unsigned long)(pi_inv[(block[3] >>  8) & 0xFF]) <<  8);
; 209  : 	valtmp |=  (unsigned long)(pi_inv[ block[3] & 0xFF]);
; 210  : 
; 211  : 	block[3] = valtmp;

  000b3	41 0f b6 41 0f	 movzx	 eax, BYTE PTR [r9+15]
  000b8	c1 e2 08	 shl	 edx, 8
  000bb	0b d1		 or	 edx, ecx
  000bd	41 89 51 08	 mov	 DWORD PTR [r9+8], edx
  000c1	42 0f b6 14 10	 movzx	 edx, BYTE PTR [rax+r10]
  000c6	41 0f b6 41 0e	 movzx	 eax, BYTE PTR [r9+14]
  000cb	42 0f b6 0c 10	 movzx	 ecx, BYTE PTR [rax+r10]
  000d0	41 0f b6 41 0d	 movzx	 eax, BYTE PTR [r9+13]
  000d5	c1 e2 08	 shl	 edx, 8
  000d8	0b d1		 or	 edx, ecx
  000da	42 0f b6 0c 10	 movzx	 ecx, BYTE PTR [rax+r10]
  000df	41 0f b6 41 0c	 movzx	 eax, BYTE PTR [r9+12]
  000e4	c1 e2 08	 shl	 edx, 8
  000e7	0b d1		 or	 edx, ecx
  000e9	42 0f b6 0c 10	 movzx	 ecx, BYTE PTR [rax+r10]
  000ee	c1 e2 08	 shl	 edx, 8
  000f1	0b d1		 or	 edx, ecx
  000f3	41 89 51 0c	 mov	 DWORD PTR [r9+12], edx

; 212  : }

  000f7	c3		 ret	 0
S_inv	ENDP
_TEXT	ENDS
PUBLIC	S
; Function compile flags: /Ogspy
;	COMDAT S
_TEXT	SEGMENT
block$ = 8
S	PROC						; COMDAT

; 142  : 	unsigned long valtmp;
; 143  : 
; 144  : 	valtmp  = ((unsigned long)(pi[(block[0] >> 24) & 0xFF]) << 24);
; 145  : 	valtmp |= ((unsigned long)(pi[(block[0] >> 16) & 0xFF]) << 16);
; 146  : 	valtmp |= ((unsigned long)(pi[(block[0] >>  8) & 0xFF]) <<  8);
; 147  : 	valtmp |= ((unsigned long)(pi[(block[0] >>  0) & 0xFF]) <<  0);
; 148  : 	block[0] = valtmp;

  00000	0f b6 41 03	 movzx	 eax, BYTE PTR [rcx+3]
  00004	4c 8b c9	 mov	 r9, rcx
  00007	4c 8d 15 00 00
	00 00		 lea	 r10, OFFSET FLAT:pi
  0000e	46 0f b6 04 10	 movzx	 r8d, BYTE PTR [rax+r10]
  00013	0f b6 41 02	 movzx	 eax, BYTE PTR [rcx+2]
  00017	42 0f b6 14 10	 movzx	 edx, BYTE PTR [rax+r10]
  0001c	0f b6 41 01	 movzx	 eax, BYTE PTR [rcx+1]
  00020	41 c1 e0 08	 shl	 r8d, 8
  00024	42 0f b6 0c 10	 movzx	 ecx, BYTE PTR [rax+r10]
  00029	41 0f b6 01	 movzx	 eax, BYTE PTR [r9]
  0002d	44 0b c2	 or	 r8d, edx
  00030	41 c1 e0 08	 shl	 r8d, 8
  00034	44 0b c1	 or	 r8d, ecx
  00037	42 0f b6 0c 10	 movzx	 ecx, BYTE PTR [rax+r10]

; 149  : 
; 150  : 	valtmp  = ((unsigned long)(pi[(block[1] >> 24) & 0xFF]) << 24);
; 151  : 	valtmp |= ((unsigned long)(pi[(block[1] >> 16) & 0xFF]) << 16);
; 152  : 	valtmp |= ((unsigned long)(pi[(block[1] >>  8) & 0xFF]) <<  8);
; 153  : 	valtmp |=  (unsigned long)(pi[ block[1] & 0xFF]);
; 154  : 
; 155  : 	block[1] = valtmp;

  0003c	41 0f b6 41 07	 movzx	 eax, BYTE PTR [r9+7]
  00041	41 c1 e0 08	 shl	 r8d, 8
  00045	44 0b c1	 or	 r8d, ecx
  00048	45 89 01	 mov	 DWORD PTR [r9], r8d
  0004b	42 0f b6 14 10	 movzx	 edx, BYTE PTR [rax+r10]
  00050	41 0f b6 41 06	 movzx	 eax, BYTE PTR [r9+6]
  00055	42 0f b6 0c 10	 movzx	 ecx, BYTE PTR [rax+r10]
  0005a	41 0f b6 41 05	 movzx	 eax, BYTE PTR [r9+5]
  0005f	c1 e2 08	 shl	 edx, 8
  00062	0b d1		 or	 edx, ecx
  00064	42 0f b6 0c 10	 movzx	 ecx, BYTE PTR [rax+r10]
  00069	41 0f b6 41 04	 movzx	 eax, BYTE PTR [r9+4]
  0006e	c1 e2 08	 shl	 edx, 8
  00071	0b d1		 or	 edx, ecx
  00073	42 0f b6 0c 10	 movzx	 ecx, BYTE PTR [rax+r10]

; 156  : 
; 157  : 	valtmp  = ((unsigned long)(pi[(block[2] >> 24) & 0xFF]) << 24);
; 158  : 	valtmp |= ((unsigned long)(pi[(block[2] >> 16) & 0xFF]) << 16);
; 159  : 	valtmp |= ((unsigned long)(pi[(block[2] >>  8) & 0xFF]) <<  8);
; 160  : 	valtmp |=  (unsigned long)(pi[ block[2] & 0xFF]);
; 161  : 
; 162  : 	block[2] = valtmp;

  00078	41 0f b6 41 0b	 movzx	 eax, BYTE PTR [r9+11]
  0007d	c1 e2 08	 shl	 edx, 8
  00080	0b d1		 or	 edx, ecx
  00082	41 89 51 04	 mov	 DWORD PTR [r9+4], edx
  00086	42 0f b6 14 10	 movzx	 edx, BYTE PTR [rax+r10]
  0008b	41 0f b6 41 0a	 movzx	 eax, BYTE PTR [r9+10]
  00090	42 0f b6 0c 10	 movzx	 ecx, BYTE PTR [rax+r10]
  00095	41 0f b6 41 09	 movzx	 eax, BYTE PTR [r9+9]
  0009a	c1 e2 08	 shl	 edx, 8
  0009d	0b d1		 or	 edx, ecx
  0009f	42 0f b6 0c 10	 movzx	 ecx, BYTE PTR [rax+r10]
  000a4	41 0f b6 41 08	 movzx	 eax, BYTE PTR [r9+8]
  000a9	c1 e2 08	 shl	 edx, 8
  000ac	0b d1		 or	 edx, ecx
  000ae	42 0f b6 0c 10	 movzx	 ecx, BYTE PTR [rax+r10]

; 163  : 
; 164  : 	valtmp  = ((unsigned long)(pi[(block[3] >> 24) & 0xFF]) << 24);
; 165  : 	valtmp |= ((unsigned long)(pi[(block[3] >> 16) & 0xFF]) << 16);
; 166  : 	valtmp |= ((unsigned long)(pi[(block[3] >>  8) & 0xFF]) <<  8);
; 167  : 	valtmp |=  (unsigned long)(pi[ block[3] & 0xFF]);
; 168  : 
; 169  : 	block[3] = valtmp;

  000b3	41 0f b6 41 0f	 movzx	 eax, BYTE PTR [r9+15]
  000b8	c1 e2 08	 shl	 edx, 8
  000bb	0b d1		 or	 edx, ecx
  000bd	41 89 51 08	 mov	 DWORD PTR [r9+8], edx
  000c1	42 0f b6 14 10	 movzx	 edx, BYTE PTR [rax+r10]
  000c6	41 0f b6 41 0e	 movzx	 eax, BYTE PTR [r9+14]
  000cb	42 0f b6 0c 10	 movzx	 ecx, BYTE PTR [rax+r10]
  000d0	41 0f b6 41 0d	 movzx	 eax, BYTE PTR [r9+13]
  000d5	c1 e2 08	 shl	 edx, 8
  000d8	0b d1		 or	 edx, ecx
  000da	42 0f b6 0c 10	 movzx	 ecx, BYTE PTR [rax+r10]
  000df	41 0f b6 41 0c	 movzx	 eax, BYTE PTR [r9+12]
  000e4	c1 e2 08	 shl	 edx, 8
  000e7	0b d1		 or	 edx, ecx
  000e9	42 0f b6 0c 10	 movzx	 ecx, BYTE PTR [rax+r10]
  000ee	c1 e2 08	 shl	 edx, 8
  000f1	0b d1		 or	 edx, ecx
  000f3	41 89 51 0c	 mov	 DWORD PTR [r9+12], edx

; 170  : }

  000f7	c3		 ret	 0
S	ENDP
PUBLIC	R_inv
;	COMDAT pdata
pdata	SEGMENT
$pdata$R_inv DD	imagerel $LN3
	DD	imagerel $LN3+146
	DD	imagerel $unwind$R_inv
pdata	ENDS
;	COMDAT xdata
xdata	SEGMENT
$unwind$R_inv DD 081401H
	DD	0a6414H
	DD	095414H
	DD	083414H
	DD	070105214H
; Function compile flags: /Ogspy
xdata	ENDS
;	COMDAT R_inv
_TEXT	SEGMENT
valtmp$ = 32
block$ = 64
R_inv	PROC						; COMDAT

; 296  : {

$LN3:
  00000	48 89 5c 24 08	 mov	 QWORD PTR [rsp+8], rbx
  00005	48 89 6c 24 10	 mov	 QWORD PTR [rsp+16], rbp
  0000a	48 89 74 24 18	 mov	 QWORD PTR [rsp+24], rsi
  0000f	57		 push	 rdi
  00010	48 83 ec 30	 sub	 rsp, 48			; 00000030H

; 297  : 	unsigned long valtmp[4];
; 298  : 	unsigned char val;
; 299  : 
; 300  : 	//valtmp[0]  = (block[0] << 8);
; 301  : 	//valtmp[0] |= ((block[1] >> 56) & 0xFF);
; 302  : 	valtmp[0] = block[0] << 8;

  00014	8b 01		 mov	 eax, DWORD PTR [rcx]

; 303  : 	valtmp[0] |= (block[1] >> 24) & 0xFF;

  00016	0f b6 71 07	 movzx	 esi, BYTE PTR [rcx+7]

; 304  : 	valtmp[1] = block[1] << 8;
; 305  : 	valtmp[1] |= (block[2] >> 24) & 0xFF;

  0001a	0f b6 79 0b	 movzx	 edi, BYTE PTR [rcx+11]

; 306  : 
; 307  : 	//valtmp[1]  = (block[1] << 8);
; 308  : 	//valtmp[1] |= ((block[0] >> 56) & 0xFF);
; 309  : 
; 310  : 	valtmp[2] = block[2] << 8;
; 311  : 	valtmp[2] |= (block[3] >> 24) & 0xFF;

  0001e	0f b6 59 0f	 movzx	 ebx, BYTE PTR [rcx+15]

; 312  : 	valtmp[3] = block[3] << 8;
; 313  : 	valtmp[3] |= (block[0] >> 24) & 0xFF;

  00022	44 0f b6 59 03	 movzx	 r11d, BYTE PTR [rcx+3]
  00027	c1 e0 08	 shl	 eax, 8
  0002a	0b f0		 or	 esi, eax
  0002c	8b 41 04	 mov	 eax, DWORD PTR [rcx+4]
  0002f	48 8b e9	 mov	 rbp, rcx
  00032	c1 e0 08	 shl	 eax, 8
  00035	89 74 24 20	 mov	 DWORD PTR valtmp$[rsp], esi
  00039	0b f8		 or	 edi, eax
  0003b	8b 41 08	 mov	 eax, DWORD PTR [rcx+8]
  0003e	c1 e0 08	 shl	 eax, 8
  00041	89 7c 24 24	 mov	 DWORD PTR valtmp$[rsp+4], edi
  00045	0b d8		 or	 ebx, eax
  00047	8b 41 0c	 mov	 eax, DWORD PTR [rcx+12]

; 314  : 
; 315  : 	val = ll(valtmp);

  0004a	48 8d 4c 24 20	 lea	 rcx, QWORD PTR valtmp$[rsp]
  0004f	c1 e0 08	 shl	 eax, 8
  00052	89 5c 24 28	 mov	 DWORD PTR valtmp$[rsp+8], ebx
  00056	44 0b d8	 or	 r11d, eax
  00059	44 89 5c 24 2c	 mov	 DWORD PTR valtmp$[rsp+12], r11d
  0005e	e8 00 00 00 00	 call	 ll

; 316  : 
; 317  : 	block[0]  = valtmp[0];

  00063	89 75 00	 mov	 DWORD PTR [rbp], esi

; 318  : 	block[1] = valtmp[1];
; 319  : 	block[2]  = (valtmp[2] & 0xFFFFFFFFL);
; 320  : 	block[3] = valtmp[3] & 0xFFFFFF00L;
; 321  : 	block[3] |= val;
; 322  : }

  00066	48 8b 74 24 50	 mov	 rsi, QWORD PTR [rsp+80]
  0006b	89 5d 08	 mov	 DWORD PTR [rbp+8], ebx
  0006e	48 8b 5c 24 40	 mov	 rbx, QWORD PTR [rsp+64]
  00073	0f b6 c0	 movzx	 eax, al
  00076	41 81 e3 00 ff
	ff ff		 and	 r11d, -256		; ffffff00H
  0007d	89 7d 04	 mov	 DWORD PTR [rbp+4], edi
  00080	44 0b d8	 or	 r11d, eax
  00083	44 89 5d 0c	 mov	 DWORD PTR [rbp+12], r11d
  00087	48 8b 6c 24 48	 mov	 rbp, QWORD PTR [rsp+72]
  0008c	48 83 c4 30	 add	 rsp, 48			; 00000030H
  00090	5f		 pop	 rdi
  00091	c3		 ret	 0
R_inv	ENDP
_TEXT	ENDS
PUBLIC	R
;	COMDAT pdata
pdata	SEGMENT
$pdata$R DD	imagerel $LN3
	DD	imagerel $LN3+138
	DD	imagerel $unwind$R
pdata	ENDS
;	COMDAT xdata
xdata	SEGMENT
$unwind$R DD	081401H
	DD	0a6414H
	DD	095414H
	DD	083414H
	DD	070105214H
; Function compile flags: /Ogspy
xdata	ENDS
;	COMDAT R
_TEXT	SEGMENT
block$ = 64
R	PROC						; COMDAT

; 259  : {

$LN3:
  00000	48 8b c4	 mov	 rax, rsp
  00003	48 89 58 08	 mov	 QWORD PTR [rax+8], rbx
  00007	48 89 68 10	 mov	 QWORD PTR [rax+16], rbp
  0000b	48 89 70 18	 mov	 QWORD PTR [rax+24], rsi
  0000f	57		 push	 rdi
  00010	48 83 ec 30	 sub	 rsp, 48			; 00000030H

; 260  : 	unsigned long valtmp[4];
; 261  : 	unsigned char val;
; 262  : 
; 263  : 	valtmp[0] = block[0];

  00014	8b 31		 mov	 esi, DWORD PTR [rcx]

; 264  : 	valtmp[1] = block[1];

  00016	8b 79 04	 mov	 edi, DWORD PTR [rcx+4]

; 265  : 	valtmp[2] = block[2];

  00019	8b 59 08	 mov	 ebx, DWORD PTR [rcx+8]

; 266  : 	valtmp[3] = block[3];

  0001c	44 8b 59 0c	 mov	 r11d, DWORD PTR [rcx+12]
  00020	48 8b e9	 mov	 rbp, rcx

; 267  : 	val = ll(valtmp);

  00023	48 8d 48 e8	 lea	 rcx, QWORD PTR [rax-24]
  00027	89 70 e8	 mov	 DWORD PTR [rax-24], esi
  0002a	89 78 ec	 mov	 DWORD PTR [rax-20], edi
  0002d	89 58 f0	 mov	 DWORD PTR [rax-16], ebx
  00030	44 89 58 f4	 mov	 DWORD PTR [rax-12], r11d
  00034	e8 00 00 00 00	 call	 ll

; 268  : 
; 269  : 	//block[1] >>= 8;
; 270  : 	//block[1]  |= (((block[0]) & 0xFF) << 56);
; 271  : 	block[3] >>= 8;
; 272  : 	block[3] |= (block[2] & 0xFF) << 24;

  00039	8b cb		 mov	 ecx, ebx
  0003b	44 0f b6 d0	 movzx	 r10d, al
  0003f	c1 e1 18	 shl	 ecx, 24

; 273  : 	block[2] >>= 8;
; 274  : 	block[2] |= (block[1] & 0xFF) << 24;
; 275  : 	
; 276  : 
; 277  : //	block[0] >>= 8;
; 278  : //	block[0]  |= ((unsigned long)(val) << 56);
; 279  : 	block[1] >>= 8;
; 280  : 	block[1] |= (block[0] & 0xFF) << 24;

  00042	8b c6		 mov	 eax, esi
  00044	c1 e0 18	 shl	 eax, 24
  00047	c1 eb 08	 shr	 ebx, 8
  0004a	41 c1 eb 08	 shr	 r11d, 8
  0004e	44 0b d9	 or	 r11d, ecx
  00051	8b cf		 mov	 ecx, edi
  00053	c1 ef 08	 shr	 edi, 8
  00056	0b f8		 or	 edi, eax
  00058	c1 e1 18	 shl	 ecx, 24

; 281  : 	block[0] >>= 8;

  0005b	c1 ee 08	 shr	 esi, 8
  0005e	0b d9		 or	 ebx, ecx

; 282  : 	block[0] |= ((unsigned long int)(val & 0xFF) << 24);

  00060	41 8b c2	 mov	 eax, r10d
  00063	44 89 5d 0c	 mov	 DWORD PTR [rbp+12], r11d
  00067	89 5d 08	 mov	 DWORD PTR [rbp+8], ebx

; 283  : 
; 284  : }

  0006a	48 8b 5c 24 40	 mov	 rbx, QWORD PTR [rsp+64]
  0006f	c1 e0 18	 shl	 eax, 24
  00072	0b c6		 or	 eax, esi
  00074	48 8b 74 24 50	 mov	 rsi, QWORD PTR [rsp+80]
  00079	89 7d 04	 mov	 DWORD PTR [rbp+4], edi
  0007c	89 45 00	 mov	 DWORD PTR [rbp], eax
  0007f	48 8b 6c 24 48	 mov	 rbp, QWORD PTR [rsp+72]
  00084	48 83 c4 30	 add	 rsp, 48			; 00000030H
  00088	5f		 pop	 rdi
  00089	c3		 ret	 0
R	ENDP
PUBLIC	L_inv
;	COMDAT pdata
pdata	SEGMENT
$pdata$L_inv DD	imagerel $LN3
	DD	imagerel $LN3+139
	DD	imagerel $unwind$L_inv
pdata	ENDS
;	COMDAT xdata
xdata	SEGMENT
$unwind$L_inv DD 020601H
	DD	030023206H
; Function compile flags: /Ogspy
xdata	ENDS
;	COMDAT L_inv
_TEXT	SEGMENT
block$ = 48
L_inv	PROC						; COMDAT

; 351  : {

$LN3:
  00000	40 53		 push	 rbx
  00002	48 83 ec 20	 sub	 rsp, 32			; 00000020H
  00006	48 8b d9	 mov	 rbx, rcx

; 352  : 	R_inv(block); R_inv(block); R_inv(block); R_inv(block);

  00009	e8 00 00 00 00	 call	 R_inv
  0000e	48 8b cb	 mov	 rcx, rbx
  00011	e8 00 00 00 00	 call	 R_inv
  00016	48 8b cb	 mov	 rcx, rbx
  00019	e8 00 00 00 00	 call	 R_inv
  0001e	48 8b cb	 mov	 rcx, rbx
  00021	e8 00 00 00 00	 call	 R_inv

; 353  : 	R_inv(block); R_inv(block); R_inv(block); R_inv(block);

  00026	48 8b cb	 mov	 rcx, rbx
  00029	e8 00 00 00 00	 call	 R_inv
  0002e	48 8b cb	 mov	 rcx, rbx
  00031	e8 00 00 00 00	 call	 R_inv
  00036	48 8b cb	 mov	 rcx, rbx
  00039	e8 00 00 00 00	 call	 R_inv
  0003e	48 8b cb	 mov	 rcx, rbx
  00041	e8 00 00 00 00	 call	 R_inv

; 354  : 	R_inv(block); R_inv(block); R_inv(block); R_inv(block);

  00046	48 8b cb	 mov	 rcx, rbx
  00049	e8 00 00 00 00	 call	 R_inv
  0004e	48 8b cb	 mov	 rcx, rbx
  00051	e8 00 00 00 00	 call	 R_inv
  00056	48 8b cb	 mov	 rcx, rbx
  00059	e8 00 00 00 00	 call	 R_inv
  0005e	48 8b cb	 mov	 rcx, rbx
  00061	e8 00 00 00 00	 call	 R_inv

; 355  : 	R_inv(block); R_inv(block); R_inv(block); R_inv(block);

  00066	48 8b cb	 mov	 rcx, rbx
  00069	e8 00 00 00 00	 call	 R_inv
  0006e	48 8b cb	 mov	 rcx, rbx
  00071	e8 00 00 00 00	 call	 R_inv
  00076	48 8b cb	 mov	 rcx, rbx
  00079	e8 00 00 00 00	 call	 R_inv
  0007e	48 8b cb	 mov	 rcx, rbx

; 356  : }

  00081	48 83 c4 20	 add	 rsp, 32			; 00000020H
  00085	5b		 pop	 rbx
  00086	e9 00 00 00 00	 jmp	 R_inv
L_inv	ENDP
_TEXT	ENDS
PUBLIC	L
;	COMDAT pdata
pdata	SEGMENT
$pdata$L DD	imagerel $LN3
	DD	imagerel $LN3+139
	DD	imagerel $unwind$L
pdata	ENDS
;	COMDAT xdata
xdata	SEGMENT
$unwind$L DD	020601H
	DD	030023206H
; Function compile flags: /Ogspy
xdata	ENDS
;	COMDAT L
_TEXT	SEGMENT
block$ = 48
L	PROC						; COMDAT

; 334  : {

$LN3:
  00000	40 53		 push	 rbx
  00002	48 83 ec 20	 sub	 rsp, 32			; 00000020H
  00006	48 8b d9	 mov	 rbx, rcx

; 335  : 	R(block); R(block); R(block); R(block);

  00009	e8 00 00 00 00	 call	 R
  0000e	48 8b cb	 mov	 rcx, rbx
  00011	e8 00 00 00 00	 call	 R
  00016	48 8b cb	 mov	 rcx, rbx
  00019	e8 00 00 00 00	 call	 R
  0001e	48 8b cb	 mov	 rcx, rbx
  00021	e8 00 00 00 00	 call	 R

; 336  : 	R(block); R(block); R(block); R(block);

  00026	48 8b cb	 mov	 rcx, rbx
  00029	e8 00 00 00 00	 call	 R
  0002e	48 8b cb	 mov	 rcx, rbx
  00031	e8 00 00 00 00	 call	 R
  00036	48 8b cb	 mov	 rcx, rbx
  00039	e8 00 00 00 00	 call	 R
  0003e	48 8b cb	 mov	 rcx, rbx
  00041	e8 00 00 00 00	 call	 R

; 337  : 	R(block); R(block); R(block); R(block);

  00046	48 8b cb	 mov	 rcx, rbx
  00049	e8 00 00 00 00	 call	 R
  0004e	48 8b cb	 mov	 rcx, rbx
  00051	e8 00 00 00 00	 call	 R
  00056	48 8b cb	 mov	 rcx, rbx
  00059	e8 00 00 00 00	 call	 R
  0005e	48 8b cb	 mov	 rcx, rbx
  00061	e8 00 00 00 00	 call	 R

; 338  : 	R(block); R(block); R(block); R(block);

  00066	48 8b cb	 mov	 rcx, rbx
  00069	e8 00 00 00 00	 call	 R
  0006e	48 8b cb	 mov	 rcx, rbx
  00071	e8 00 00 00 00	 call	 R
  00076	48 8b cb	 mov	 rcx, rbx
  00079	e8 00 00 00 00	 call	 R
  0007e	48 8b cb	 mov	 rcx, rbx

; 339  : }

  00081	48 83 c4 20	 add	 rsp, 32			; 00000020H
  00085	5b		 pop	 rbx
  00086	e9 00 00 00 00	 jmp	 R
L	ENDP
PUBLIC	grasshopper_decrypt
;	COMDAT pdata
pdata	SEGMENT
$pdata$grasshopper_decrypt DD imagerel $LN19
	DD	imagerel $LN19+758
	DD	imagerel $unwind$grasshopper_decrypt
pdata	ENDS
;	COMDAT xdata
xdata	SEGMENT
$unwind$grasshopper_decrypt DD 060f01H
	DD	07640fH
	DD	06340fH
	DD	0700b320fH
; Function compile flags: /Ogspy
xdata	ENDS
;	COMDAT grasshopper_decrypt
_TEXT	SEGMENT
subkeys$ = 48
ciphertext$ = 56
plaintext$ = 64
grasshopper_decrypt PROC				; COMDAT

; 532  : {

$LN19:
  00000	48 89 5c 24 08	 mov	 QWORD PTR [rsp+8], rbx
  00005	48 89 74 24 10	 mov	 QWORD PTR [rsp+16], rsi
  0000a	57		 push	 rdi
  0000b	48 83 ec 20	 sub	 rsp, 32			; 00000020H

; 533  : 	changeEndian(&ciphertext[0]); changeEndian(&ciphertext[1]); changeEndian(&ciphertext[2]); changeEndian(&ciphertext[3]);

  0000f	44 8b 0a	 mov	 r9d, DWORD PTR [rdx]
  00012	4c 8b da	 mov	 r11, rdx
  00015	48 8b d9	 mov	 rbx, rcx
  00018	be 00 ff 00 00	 mov	 esi, 65280		; 0000ff00H
  0001d	45 8b d1	 mov	 r10d, r9d
  00020	41 8b c1	 mov	 eax, r9d
  00023	23 c6		 and	 eax, esi
  00025	41 c1 e2 10	 shl	 r10d, 16
  00029	41 c1 e9 08	 shr	 r9d, 8
  0002d	44 0b d0	 or	 r10d, eax
  00030	0f b6 42 03	 movzx	 eax, BYTE PTR [rdx+3]
  00034	44 23 ce	 and	 r9d, esi
  00037	41 c1 e2 08	 shl	 r10d, 8
  0003b	49 8b f8	 mov	 rdi, r8
  0003e	45 0b d1	 or	 r10d, r9d
  00041	44 0b d0	 or	 r10d, eax
  00044	44 89 12	 mov	 DWORD PTR [rdx], r10d
  00047	8b 4a 04	 mov	 ecx, DWORD PTR [rdx+4]
  0004a	8b d1		 mov	 edx, ecx
  0004c	8b c1		 mov	 eax, ecx
  0004e	c1 e9 08	 shr	 ecx, 8
  00051	c1 e2 10	 shl	 edx, 16
  00054	23 c6		 and	 eax, esi
  00056	23 ce		 and	 ecx, esi
  00058	0b d0		 or	 edx, eax
  0005a	41 0f b6 43 07	 movzx	 eax, BYTE PTR [r11+7]
  0005f	c1 e2 08	 shl	 edx, 8
  00062	0b d1		 or	 edx, ecx
  00064	0b d0		 or	 edx, eax
  00066	41 89 53 04	 mov	 DWORD PTR [r11+4], edx
  0006a	41 8b 4b 08	 mov	 ecx, DWORD PTR [r11+8]
  0006e	8b d1		 mov	 edx, ecx
  00070	8b c1		 mov	 eax, ecx
  00072	c1 e9 08	 shr	 ecx, 8
  00075	23 c6		 and	 eax, esi
  00077	c1 e2 10	 shl	 edx, 16
  0007a	23 ce		 and	 ecx, esi
  0007c	0b d0		 or	 edx, eax
  0007e	41 0f b6 43 0b	 movzx	 eax, BYTE PTR [r11+11]
  00083	c1 e2 08	 shl	 edx, 8
  00086	0b d1		 or	 edx, ecx
  00088	0b d0		 or	 edx, eax
  0008a	41 89 53 08	 mov	 DWORD PTR [r11+8], edx
  0008e	41 8b 4b 0c	 mov	 ecx, DWORD PTR [r11+12]
  00092	8b d1		 mov	 edx, ecx
  00094	8b c1		 mov	 eax, ecx
  00096	c1 e9 08	 shr	 ecx, 8
  00099	23 c6		 and	 eax, esi
  0009b	c1 e2 10	 shl	 edx, 16
  0009e	23 ce		 and	 ecx, esi
  000a0	0b d0		 or	 edx, eax
  000a2	41 0f b6 43 0f	 movzx	 eax, BYTE PTR [r11+15]
  000a7	c1 e2 08	 shl	 edx, 8
  000aa	0b d1		 or	 edx, ecx

; 534  : 
; 535  : 	/* Round 1 with subkey 10 */
; 536  : 	plaintext[0] = ciphertext[0] ^ subkeys->y900; plaintext[1] = ciphertext[1] ^ subkeys->y901; plaintext[2] = ciphertext[2] ^ subkeys->y910; plaintext[3] = ciphertext[3] ^ subkeys->y911;
; 537  : 	L_inv(plaintext); S_inv(plaintext);

  000ac	49 8b c8	 mov	 rcx, r8
  000af	0b d0		 or	 edx, eax
  000b1	41 89 53 0c	 mov	 DWORD PTR [r11+12], edx
  000b5	8b 83 90 00 00
	00		 mov	 eax, DWORD PTR [rbx+144]
  000bb	41 33 03	 xor	 eax, DWORD PTR [r11]
  000be	41 89 00	 mov	 DWORD PTR [r8], eax
  000c1	8b 83 94 00 00
	00		 mov	 eax, DWORD PTR [rbx+148]
  000c7	41 33 43 04	 xor	 eax, DWORD PTR [r11+4]
  000cb	41 89 40 04	 mov	 DWORD PTR [r8+4], eax
  000cf	8b 83 98 00 00
	00		 mov	 eax, DWORD PTR [rbx+152]
  000d5	41 33 43 08	 xor	 eax, DWORD PTR [r11+8]
  000d9	41 89 40 08	 mov	 DWORD PTR [r8+8], eax
  000dd	8b 83 9c 00 00
	00		 mov	 eax, DWORD PTR [rbx+156]
  000e3	41 33 43 0c	 xor	 eax, DWORD PTR [r11+12]
  000e7	41 89 40 0c	 mov	 DWORD PTR [r8+12], eax
  000eb	e8 00 00 00 00	 call	 L_inv
  000f0	48 8b cf	 mov	 rcx, rdi
  000f3	e8 00 00 00 00	 call	 S_inv

; 538  : 
; 539  : 	/* Round 2 with subkey 9 */
; 540  : 	plaintext[0] ^= subkeys->y800; plaintext[1] ^= subkeys->y801; plaintext[2] ^= subkeys->y810; plaintext[3] ^= subkeys->y811;

  000f8	44 8b 9b 80 00
	00 00		 mov	 r11d, DWORD PTR [rbx+128]

; 541  : 	L_inv(plaintext); S_inv(plaintext);

  000ff	48 8b cf	 mov	 rcx, rdi
  00102	44 31 1f	 xor	 DWORD PTR [rdi], r11d
  00105	8b 83 84 00 00
	00		 mov	 eax, DWORD PTR [rbx+132]
  0010b	31 47 04	 xor	 DWORD PTR [rdi+4], eax
  0010e	8b 83 88 00 00
	00		 mov	 eax, DWORD PTR [rbx+136]
  00114	31 47 08	 xor	 DWORD PTR [rdi+8], eax
  00117	8b 83 8c 00 00
	00		 mov	 eax, DWORD PTR [rbx+140]
  0011d	31 47 0c	 xor	 DWORD PTR [rdi+12], eax
  00120	e8 00 00 00 00	 call	 L_inv
  00125	48 8b cf	 mov	 rcx, rdi
  00128	e8 00 00 00 00	 call	 S_inv

; 542  : 
; 543  : 	/* Round 3 with subkey 8 */
; 544  : 	plaintext[0] ^= subkeys->y700; plaintext[1] ^= subkeys->y701; plaintext[2] ^= subkeys->y710; plaintext[3] ^= subkeys->y711;

  0012d	44 8b 5b 70	 mov	 r11d, DWORD PTR [rbx+112]

; 545  : 	L_inv(plaintext); S_inv(plaintext);

  00131	48 8b cf	 mov	 rcx, rdi
  00134	44 31 1f	 xor	 DWORD PTR [rdi], r11d
  00137	8b 43 74	 mov	 eax, DWORD PTR [rbx+116]
  0013a	31 47 04	 xor	 DWORD PTR [rdi+4], eax
  0013d	8b 43 78	 mov	 eax, DWORD PTR [rbx+120]
  00140	31 47 08	 xor	 DWORD PTR [rdi+8], eax
  00143	8b 43 7c	 mov	 eax, DWORD PTR [rbx+124]
  00146	31 47 0c	 xor	 DWORD PTR [rdi+12], eax
  00149	e8 00 00 00 00	 call	 L_inv
  0014e	48 8b cf	 mov	 rcx, rdi
  00151	e8 00 00 00 00	 call	 S_inv

; 546  : 
; 547  : 	/* Round 4 with subkey 7 */
; 548  : 	plaintext[0] ^= subkeys->y600; plaintext[1] ^= subkeys->y601; plaintext[2] ^= subkeys->y610; plaintext[3] ^= subkeys->y611;

  00156	44 8b 5b 60	 mov	 r11d, DWORD PTR [rbx+96]

; 549  : 	L_inv(plaintext); S_inv(plaintext);

  0015a	48 8b cf	 mov	 rcx, rdi
  0015d	44 31 1f	 xor	 DWORD PTR [rdi], r11d
  00160	8b 43 64	 mov	 eax, DWORD PTR [rbx+100]
  00163	31 47 04	 xor	 DWORD PTR [rdi+4], eax
  00166	8b 43 68	 mov	 eax, DWORD PTR [rbx+104]
  00169	31 47 08	 xor	 DWORD PTR [rdi+8], eax
  0016c	8b 43 6c	 mov	 eax, DWORD PTR [rbx+108]
  0016f	31 47 0c	 xor	 DWORD PTR [rdi+12], eax
  00172	e8 00 00 00 00	 call	 L_inv
  00177	48 8b cf	 mov	 rcx, rdi
  0017a	e8 00 00 00 00	 call	 S_inv

; 550  : 
; 551  : 	/* Round 5 with subkey 6 */
; 552  : 	plaintext[0] ^= subkeys->y500; plaintext[1] ^= subkeys->y501; plaintext[2] ^= subkeys->y510; plaintext[3] ^= subkeys->y511;

  0017f	44 8b 5b 50	 mov	 r11d, DWORD PTR [rbx+80]

; 553  : 	L_inv(plaintext); S_inv(plaintext);

  00183	48 8b cf	 mov	 rcx, rdi
  00186	44 31 1f	 xor	 DWORD PTR [rdi], r11d
  00189	8b 43 54	 mov	 eax, DWORD PTR [rbx+84]
  0018c	31 47 04	 xor	 DWORD PTR [rdi+4], eax
  0018f	8b 43 58	 mov	 eax, DWORD PTR [rbx+88]
  00192	31 47 08	 xor	 DWORD PTR [rdi+8], eax
  00195	8b 43 5c	 mov	 eax, DWORD PTR [rbx+92]
  00198	31 47 0c	 xor	 DWORD PTR [rdi+12], eax
  0019b	e8 00 00 00 00	 call	 L_inv
  001a0	48 8b cf	 mov	 rcx, rdi
  001a3	e8 00 00 00 00	 call	 S_inv

; 554  : 
; 555  : 	/* Round 6 with subkey 5 */
; 556  : 	plaintext[0] ^= subkeys->y400; plaintext[1] ^= subkeys->y401; plaintext[2] ^= subkeys->y410; plaintext[3] ^= subkeys->y411;

  001a8	44 8b 5b 40	 mov	 r11d, DWORD PTR [rbx+64]

; 557  : 	L_inv(plaintext); S_inv(plaintext);

  001ac	48 8b cf	 mov	 rcx, rdi
  001af	44 31 1f	 xor	 DWORD PTR [rdi], r11d
  001b2	8b 43 44	 mov	 eax, DWORD PTR [rbx+68]
  001b5	31 47 04	 xor	 DWORD PTR [rdi+4], eax
  001b8	8b 43 48	 mov	 eax, DWORD PTR [rbx+72]
  001bb	31 47 08	 xor	 DWORD PTR [rdi+8], eax
  001be	8b 43 4c	 mov	 eax, DWORD PTR [rbx+76]
  001c1	31 47 0c	 xor	 DWORD PTR [rdi+12], eax
  001c4	e8 00 00 00 00	 call	 L_inv
  001c9	48 8b cf	 mov	 rcx, rdi
  001cc	e8 00 00 00 00	 call	 S_inv

; 558  : 
; 559  : 	/* Round 7 with subkey 4 */
; 560  : 	plaintext[0] ^= subkeys->y300; plaintext[1] ^= subkeys->y301; plaintext[2] ^= subkeys->y310; plaintext[3] ^= subkeys->y311;

  001d1	44 8b 5b 30	 mov	 r11d, DWORD PTR [rbx+48]

; 561  : 	L_inv(plaintext); S_inv(plaintext);

  001d5	48 8b cf	 mov	 rcx, rdi
  001d8	44 31 1f	 xor	 DWORD PTR [rdi], r11d
  001db	8b 43 34	 mov	 eax, DWORD PTR [rbx+52]
  001de	31 47 04	 xor	 DWORD PTR [rdi+4], eax
  001e1	8b 43 38	 mov	 eax, DWORD PTR [rbx+56]
  001e4	31 47 08	 xor	 DWORD PTR [rdi+8], eax
  001e7	8b 43 3c	 mov	 eax, DWORD PTR [rbx+60]
  001ea	31 47 0c	 xor	 DWORD PTR [rdi+12], eax
  001ed	e8 00 00 00 00	 call	 L_inv
  001f2	48 8b cf	 mov	 rcx, rdi
  001f5	e8 00 00 00 00	 call	 S_inv

; 562  : 
; 563  : 	/* Round 8 with subkey 3 */
; 564  : 	plaintext[0] ^= subkeys->y200; plaintext[1] ^= subkeys->y201; plaintext[2] ^= subkeys->y210; plaintext[3] ^= subkeys->y211;

  001fa	44 8b 5b 20	 mov	 r11d, DWORD PTR [rbx+32]

; 565  : 	L_inv(plaintext); S_inv(plaintext);

  001fe	48 8b cf	 mov	 rcx, rdi
  00201	44 31 1f	 xor	 DWORD PTR [rdi], r11d
  00204	8b 43 24	 mov	 eax, DWORD PTR [rbx+36]
  00207	31 47 04	 xor	 DWORD PTR [rdi+4], eax
  0020a	8b 43 28	 mov	 eax, DWORD PTR [rbx+40]
  0020d	31 47 08	 xor	 DWORD PTR [rdi+8], eax
  00210	8b 43 2c	 mov	 eax, DWORD PTR [rbx+44]
  00213	31 47 0c	 xor	 DWORD PTR [rdi+12], eax
  00216	e8 00 00 00 00	 call	 L_inv
  0021b	48 8b cf	 mov	 rcx, rdi
  0021e	e8 00 00 00 00	 call	 S_inv

; 566  : 
; 567  : 	/* Round 9 with subkey 2 */
; 568  : 	plaintext[0] ^= subkeys->y100; plaintext[1] ^= subkeys->y101; plaintext[2] ^= subkeys->y110; plaintext[3] ^= subkeys->y111;

  00223	44 8b 5b 10	 mov	 r11d, DWORD PTR [rbx+16]
  00227	44 31 1f	 xor	 DWORD PTR [rdi], r11d
  0022a	8b 43 14	 mov	 eax, DWORD PTR [rbx+20]
  0022d	31 47 04	 xor	 DWORD PTR [rdi+4], eax
  00230	8b 43 18	 mov	 eax, DWORD PTR [rbx+24]
  00233	31 47 08	 xor	 DWORD PTR [rdi+8], eax
  00236	8b 43 1c	 mov	 eax, DWORD PTR [rbx+28]

; 569  : 	L_inv(plaintext); S_inv(plaintext);

  00239	48 8b cf	 mov	 rcx, rdi
  0023c	31 47 0c	 xor	 DWORD PTR [rdi+12], eax
  0023f	e8 00 00 00 00	 call	 L_inv
  00244	48 8b cf	 mov	 rcx, rdi
  00247	e8 00 00 00 00	 call	 S_inv

; 570  : 
; 571  : 	/* Round 10 with subkey 1 */
; 572  : 	plaintext[0] ^= subkeys->y000; plaintext[1] ^= subkeys->y001; plaintext[2] ^= subkeys->y010; plaintext[3] ^= subkeys->y011;

  0024c	44 8b 1b	 mov	 r11d, DWORD PTR [rbx]
  0024f	44 31 1f	 xor	 DWORD PTR [rdi], r11d
  00252	8b 43 04	 mov	 eax, DWORD PTR [rbx+4]

; 573  : 	/*L_inv(plaintext); S_inv(plaintext);*/
; 574  : 
; 575  : 	changeEndian(&plaintext[0]); changeEndian(&plaintext[1]); changeEndian(&plaintext[2]); changeEndian(&plaintext[3]);

  00255	8b 0f		 mov	 ecx, DWORD PTR [rdi]
  00257	31 47 04	 xor	 DWORD PTR [rdi+4], eax
  0025a	8b 43 08	 mov	 eax, DWORD PTR [rbx+8]
  0025d	8b d1		 mov	 edx, ecx
  0025f	31 47 08	 xor	 DWORD PTR [rdi+8], eax
  00262	8b 43 0c	 mov	 eax, DWORD PTR [rbx+12]

; 576  : 
; 577  : }

  00265	48 8b 5c 24 30	 mov	 rbx, QWORD PTR [rsp+48]
  0026a	31 47 0c	 xor	 DWORD PTR [rdi+12], eax
  0026d	c1 e2 10	 shl	 edx, 16
  00270	8b c1		 mov	 eax, ecx
  00272	23 c6		 and	 eax, esi
  00274	c1 e9 08	 shr	 ecx, 8
  00277	0b d0		 or	 edx, eax
  00279	0f b6 47 03	 movzx	 eax, BYTE PTR [rdi+3]
  0027d	23 ce		 and	 ecx, esi
  0027f	c1 e2 08	 shl	 edx, 8
  00282	0b d1		 or	 edx, ecx
  00284	0b d0		 or	 edx, eax
  00286	89 17		 mov	 DWORD PTR [rdi], edx
  00288	8b 4f 04	 mov	 ecx, DWORD PTR [rdi+4]
  0028b	8b d1		 mov	 edx, ecx
  0028d	8b c1		 mov	 eax, ecx
  0028f	c1 e9 08	 shr	 ecx, 8
  00292	c1 e2 10	 shl	 edx, 16
  00295	23 c6		 and	 eax, esi
  00297	23 ce		 and	 ecx, esi
  00299	0b d0		 or	 edx, eax
  0029b	0f b6 47 07	 movzx	 eax, BYTE PTR [rdi+7]
  0029f	c1 e2 08	 shl	 edx, 8
  002a2	0b d1		 or	 edx, ecx
  002a4	0b d0		 or	 edx, eax
  002a6	89 57 04	 mov	 DWORD PTR [rdi+4], edx
  002a9	8b 4f 08	 mov	 ecx, DWORD PTR [rdi+8]
  002ac	8b d1		 mov	 edx, ecx
  002ae	8b c1		 mov	 eax, ecx
  002b0	c1 e9 08	 shr	 ecx, 8
  002b3	c1 e2 10	 shl	 edx, 16
  002b6	23 c6		 and	 eax, esi
  002b8	23 ce		 and	 ecx, esi
  002ba	0b d0		 or	 edx, eax
  002bc	0f b6 47 0b	 movzx	 eax, BYTE PTR [rdi+11]
  002c0	c1 e2 08	 shl	 edx, 8
  002c3	0b d1		 or	 edx, ecx
  002c5	0b d0		 or	 edx, eax
  002c7	89 57 08	 mov	 DWORD PTR [rdi+8], edx
  002ca	8b 4f 0c	 mov	 ecx, DWORD PTR [rdi+12]
  002cd	8b d1		 mov	 edx, ecx
  002cf	8b c1		 mov	 eax, ecx
  002d1	c1 e9 08	 shr	 ecx, 8
  002d4	c1 e2 10	 shl	 edx, 16
  002d7	23 c6		 and	 eax, esi
  002d9	23 ce		 and	 ecx, esi
  002db	48 8b 74 24 38	 mov	 rsi, QWORD PTR [rsp+56]
  002e0	0b d0		 or	 edx, eax
  002e2	0f b6 47 0f	 movzx	 eax, BYTE PTR [rdi+15]
  002e6	c1 e2 08	 shl	 edx, 8
  002e9	0b d1		 or	 edx, ecx
  002eb	0b d0		 or	 edx, eax
  002ed	89 57 0c	 mov	 DWORD PTR [rdi+12], edx
  002f0	48 83 c4 20	 add	 rsp, 32			; 00000020H
  002f4	5f		 pop	 rdi
  002f5	c3		 ret	 0
grasshopper_decrypt ENDP
_TEXT	ENDS
PUBLIC	grasshopper_encrypt
;	COMDAT pdata
pdata	SEGMENT
$pdata$grasshopper_encrypt DD imagerel $LN19
	DD	imagerel $LN19+756
	DD	imagerel $unwind$grasshopper_encrypt
pdata	ENDS
;	COMDAT xdata
xdata	SEGMENT
$unwind$grasshopper_encrypt DD 081401H
	DD	086414H
	DD	075414H
	DD	063414H
	DD	070103214H
; Function compile flags: /Ogspy
xdata	ENDS
;	COMDAT grasshopper_encrypt
_TEXT	SEGMENT
subkeys$ = 48
plaintext$ = 56
ciphertext$ = 64
grasshopper_encrypt PROC				; COMDAT

; 481  : {

$LN19:
  00000	48 89 5c 24 08	 mov	 QWORD PTR [rsp+8], rbx
  00005	48 89 6c 24 10	 mov	 QWORD PTR [rsp+16], rbp
  0000a	48 89 74 24 18	 mov	 QWORD PTR [rsp+24], rsi
  0000f	57		 push	 rdi
  00010	48 83 ec 20	 sub	 rsp, 32			; 00000020H

; 482  : 	/* Round 1 with subkey 1 */
; 483  : 
; 484  : 	changeEndian(&plaintext[0]); changeEndian(&plaintext[1]); changeEndian(&plaintext[2]); changeEndian(&plaintext[3]);

  00014	44 8b 0a	 mov	 r9d, DWORD PTR [rdx]
  00017	48 8b f2	 mov	 rsi, rdx
  0001a	48 8b d9	 mov	 rbx, rcx
  0001d	bd 00 ff 00 00	 mov	 ebp, 65280		; 0000ff00H
  00022	45 8b d1	 mov	 r10d, r9d
  00025	41 8b c1	 mov	 eax, r9d
  00028	23 c5		 and	 eax, ebp
  0002a	41 c1 e2 10	 shl	 r10d, 16
  0002e	41 c1 e9 08	 shr	 r9d, 8
  00032	44 0b d0	 or	 r10d, eax
  00035	0f b6 42 03	 movzx	 eax, BYTE PTR [rdx+3]
  00039	44 23 cd	 and	 r9d, ebp
  0003c	41 c1 e2 08	 shl	 r10d, 8
  00040	49 8b f8	 mov	 rdi, r8
  00043	45 0b d1	 or	 r10d, r9d
  00046	44 0b d0	 or	 r10d, eax
  00049	44 89 12	 mov	 DWORD PTR [rdx], r10d
  0004c	8b 4a 04	 mov	 ecx, DWORD PTR [rdx+4]
  0004f	8b d1		 mov	 edx, ecx
  00051	8b c1		 mov	 eax, ecx
  00053	c1 e9 08	 shr	 ecx, 8
  00056	c1 e2 10	 shl	 edx, 16
  00059	23 c5		 and	 eax, ebp
  0005b	23 cd		 and	 ecx, ebp
  0005d	0b d0		 or	 edx, eax
  0005f	0f b6 46 07	 movzx	 eax, BYTE PTR [rsi+7]
  00063	c1 e2 08	 shl	 edx, 8
  00066	0b d1		 or	 edx, ecx
  00068	0b d0		 or	 edx, eax
  0006a	89 56 04	 mov	 DWORD PTR [rsi+4], edx
  0006d	8b 4e 08	 mov	 ecx, DWORD PTR [rsi+8]
  00070	8b d1		 mov	 edx, ecx
  00072	8b c1		 mov	 eax, ecx
  00074	c1 e9 08	 shr	 ecx, 8
  00077	23 c5		 and	 eax, ebp
  00079	c1 e2 10	 shl	 edx, 16
  0007c	23 cd		 and	 ecx, ebp
  0007e	0b d0		 or	 edx, eax
  00080	0f b6 46 0b	 movzx	 eax, BYTE PTR [rsi+11]
  00084	c1 e2 08	 shl	 edx, 8
  00087	0b d1		 or	 edx, ecx
  00089	0b d0		 or	 edx, eax
  0008b	89 56 08	 mov	 DWORD PTR [rsi+8], edx
  0008e	8b 4e 0c	 mov	 ecx, DWORD PTR [rsi+12]
  00091	8b d1		 mov	 edx, ecx
  00093	8b c1		 mov	 eax, ecx
  00095	c1 e9 08	 shr	 ecx, 8
  00098	23 c5		 and	 eax, ebp
  0009a	c1 e2 10	 shl	 edx, 16
  0009d	23 cd		 and	 ecx, ebp
  0009f	0b d0		 or	 edx, eax
  000a1	0f b6 46 0f	 movzx	 eax, BYTE PTR [rsi+15]
  000a5	c1 e2 08	 shl	 edx, 8
  000a8	0b d1		 or	 edx, ecx

; 485  : 
; 486  : 	ciphertext[0] = plaintext[0] ^ subkeys->y000; ciphertext[1] = plaintext[1] ^ subkeys->y001; ciphertext[2] = plaintext[2] ^ subkeys->y010; ciphertext[3] = plaintext[3] ^ subkeys->y011;
; 487  : 	S(ciphertext); L(ciphertext);

  000aa	49 8b c8	 mov	 rcx, r8
  000ad	0b d0		 or	 edx, eax
  000af	89 56 0c	 mov	 DWORD PTR [rsi+12], edx
  000b2	8b 03		 mov	 eax, DWORD PTR [rbx]
  000b4	33 06		 xor	 eax, DWORD PTR [rsi]
  000b6	41 89 00	 mov	 DWORD PTR [r8], eax
  000b9	8b 43 04	 mov	 eax, DWORD PTR [rbx+4]
  000bc	33 46 04	 xor	 eax, DWORD PTR [rsi+4]
  000bf	41 89 40 04	 mov	 DWORD PTR [r8+4], eax
  000c3	8b 43 08	 mov	 eax, DWORD PTR [rbx+8]
  000c6	33 46 08	 xor	 eax, DWORD PTR [rsi+8]
  000c9	41 89 40 08	 mov	 DWORD PTR [r8+8], eax
  000cd	8b 43 0c	 mov	 eax, DWORD PTR [rbx+12]
  000d0	33 46 0c	 xor	 eax, DWORD PTR [rsi+12]
  000d3	41 89 40 0c	 mov	 DWORD PTR [r8+12], eax
  000d7	e8 00 00 00 00	 call	 S
  000dc	48 8b cf	 mov	 rcx, rdi
  000df	e8 00 00 00 00	 call	 L

; 488  : 
; 489  : 	/* Round 2 with subkey 2 */
; 490  : 	ciphertext[0] ^= subkeys->y100; ciphertext[1] ^= subkeys->y101; ciphertext[2] ^= subkeys->y110; ciphertext[3] ^= subkeys->y111;

  000e4	44 8b 5b 10	 mov	 r11d, DWORD PTR [rbx+16]

; 491  : 	S(ciphertext); L(ciphertext);

  000e8	48 8b cf	 mov	 rcx, rdi
  000eb	44 31 1f	 xor	 DWORD PTR [rdi], r11d
  000ee	8b 43 14	 mov	 eax, DWORD PTR [rbx+20]
  000f1	31 47 04	 xor	 DWORD PTR [rdi+4], eax
  000f4	8b 43 18	 mov	 eax, DWORD PTR [rbx+24]
  000f7	31 47 08	 xor	 DWORD PTR [rdi+8], eax
  000fa	8b 43 1c	 mov	 eax, DWORD PTR [rbx+28]
  000fd	31 47 0c	 xor	 DWORD PTR [rdi+12], eax
  00100	e8 00 00 00 00	 call	 S
  00105	48 8b cf	 mov	 rcx, rdi
  00108	e8 00 00 00 00	 call	 L

; 492  : 
; 493  : 	/* Round 3 with subkey 3 */
; 494  : 	ciphertext[0] ^= subkeys->y200; ciphertext[1] ^= subkeys->y201; ciphertext[2] ^= subkeys->y210; ciphertext[3] ^= subkeys->y211;

  0010d	44 8b 5b 20	 mov	 r11d, DWORD PTR [rbx+32]

; 495  : 	S(ciphertext); L(ciphertext);

  00111	48 8b cf	 mov	 rcx, rdi
  00114	44 31 1f	 xor	 DWORD PTR [rdi], r11d
  00117	8b 43 24	 mov	 eax, DWORD PTR [rbx+36]
  0011a	31 47 04	 xor	 DWORD PTR [rdi+4], eax
  0011d	8b 43 28	 mov	 eax, DWORD PTR [rbx+40]
  00120	31 47 08	 xor	 DWORD PTR [rdi+8], eax
  00123	8b 43 2c	 mov	 eax, DWORD PTR [rbx+44]
  00126	31 47 0c	 xor	 DWORD PTR [rdi+12], eax
  00129	e8 00 00 00 00	 call	 S
  0012e	48 8b cf	 mov	 rcx, rdi
  00131	e8 00 00 00 00	 call	 L

; 496  : 	
; 497  : 	/* Round 4 with subkey 4 */
; 498  : 	ciphertext[0] ^= subkeys->y300; ciphertext[1] ^= subkeys->y301; ciphertext[2] ^= subkeys->y310; ciphertext[3] ^= subkeys->y311;

  00136	44 8b 5b 30	 mov	 r11d, DWORD PTR [rbx+48]

; 499  : 	S(ciphertext); L(ciphertext);

  0013a	48 8b cf	 mov	 rcx, rdi
  0013d	44 31 1f	 xor	 DWORD PTR [rdi], r11d
  00140	8b 43 34	 mov	 eax, DWORD PTR [rbx+52]
  00143	31 47 04	 xor	 DWORD PTR [rdi+4], eax
  00146	8b 43 38	 mov	 eax, DWORD PTR [rbx+56]
  00149	31 47 08	 xor	 DWORD PTR [rdi+8], eax
  0014c	8b 43 3c	 mov	 eax, DWORD PTR [rbx+60]
  0014f	31 47 0c	 xor	 DWORD PTR [rdi+12], eax
  00152	e8 00 00 00 00	 call	 S
  00157	48 8b cf	 mov	 rcx, rdi
  0015a	e8 00 00 00 00	 call	 L

; 500  : 	
; 501  : 	/* Round 5 with subkey 5 */
; 502  : 	ciphertext[0] ^= subkeys->y400; ciphertext[1] ^= subkeys->y401; ciphertext[2] ^= subkeys->y410; ciphertext[3] ^= subkeys->y411;

  0015f	44 8b 5b 40	 mov	 r11d, DWORD PTR [rbx+64]

; 503  : 	S(ciphertext); L(ciphertext);

  00163	48 8b cf	 mov	 rcx, rdi
  00166	44 31 1f	 xor	 DWORD PTR [rdi], r11d
  00169	8b 43 44	 mov	 eax, DWORD PTR [rbx+68]
  0016c	31 47 04	 xor	 DWORD PTR [rdi+4], eax
  0016f	8b 43 48	 mov	 eax, DWORD PTR [rbx+72]
  00172	31 47 08	 xor	 DWORD PTR [rdi+8], eax
  00175	8b 43 4c	 mov	 eax, DWORD PTR [rbx+76]
  00178	31 47 0c	 xor	 DWORD PTR [rdi+12], eax
  0017b	e8 00 00 00 00	 call	 S
  00180	48 8b cf	 mov	 rcx, rdi
  00183	e8 00 00 00 00	 call	 L

; 504  : 	
; 505  : 	/* Round 6 with subkey 6 */
; 506  : 	ciphertext[0] ^= subkeys->y500; ciphertext[1] ^= subkeys->y501; ciphertext[2] ^= subkeys->y510; ciphertext[3] ^= subkeys->y511;

  00188	44 8b 5b 50	 mov	 r11d, DWORD PTR [rbx+80]

; 507  : 	S(ciphertext); L(ciphertext);

  0018c	48 8b cf	 mov	 rcx, rdi
  0018f	44 31 1f	 xor	 DWORD PTR [rdi], r11d
  00192	8b 43 54	 mov	 eax, DWORD PTR [rbx+84]
  00195	31 47 04	 xor	 DWORD PTR [rdi+4], eax
  00198	8b 43 58	 mov	 eax, DWORD PTR [rbx+88]
  0019b	31 47 08	 xor	 DWORD PTR [rdi+8], eax
  0019e	8b 43 5c	 mov	 eax, DWORD PTR [rbx+92]
  001a1	31 47 0c	 xor	 DWORD PTR [rdi+12], eax
  001a4	e8 00 00 00 00	 call	 S
  001a9	48 8b cf	 mov	 rcx, rdi
  001ac	e8 00 00 00 00	 call	 L

; 508  : 	
; 509  : 	/* Round 7 with subkey 7 */
; 510  : 	ciphertext[0] ^= subkeys->y600; ciphertext[1] ^= subkeys->y601; ciphertext[2] ^= subkeys->y610; ciphertext[3] ^= subkeys->y611;

  001b1	44 8b 5b 60	 mov	 r11d, DWORD PTR [rbx+96]

; 511  : 	S(ciphertext); L(ciphertext);

  001b5	48 8b cf	 mov	 rcx, rdi
  001b8	44 31 1f	 xor	 DWORD PTR [rdi], r11d
  001bb	8b 43 64	 mov	 eax, DWORD PTR [rbx+100]
  001be	31 47 04	 xor	 DWORD PTR [rdi+4], eax
  001c1	8b 43 68	 mov	 eax, DWORD PTR [rbx+104]
  001c4	31 47 08	 xor	 DWORD PTR [rdi+8], eax
  001c7	8b 43 6c	 mov	 eax, DWORD PTR [rbx+108]
  001ca	31 47 0c	 xor	 DWORD PTR [rdi+12], eax
  001cd	e8 00 00 00 00	 call	 S
  001d2	48 8b cf	 mov	 rcx, rdi
  001d5	e8 00 00 00 00	 call	 L

; 512  : 	
; 513  : 	/* Round 8 with subkey 8 */
; 514  : 	ciphertext[0] ^= subkeys->y700; ciphertext[1] ^= subkeys->y701; ciphertext[2] ^= subkeys->y710; ciphertext[3] ^= subkeys->y711;

  001da	44 8b 5b 70	 mov	 r11d, DWORD PTR [rbx+112]

; 515  : 	S(ciphertext); L(ciphertext);

  001de	48 8b cf	 mov	 rcx, rdi
  001e1	44 31 1f	 xor	 DWORD PTR [rdi], r11d
  001e4	8b 43 74	 mov	 eax, DWORD PTR [rbx+116]
  001e7	31 47 04	 xor	 DWORD PTR [rdi+4], eax
  001ea	8b 43 78	 mov	 eax, DWORD PTR [rbx+120]
  001ed	31 47 08	 xor	 DWORD PTR [rdi+8], eax
  001f0	8b 43 7c	 mov	 eax, DWORD PTR [rbx+124]
  001f3	31 47 0c	 xor	 DWORD PTR [rdi+12], eax
  001f6	e8 00 00 00 00	 call	 S
  001fb	48 8b cf	 mov	 rcx, rdi
  001fe	e8 00 00 00 00	 call	 L

; 516  : 	
; 517  : 	/* Round 9 with subkey 9 */
; 518  : 	ciphertext[0] ^= subkeys->y800; ciphertext[1] ^= subkeys->y801; ciphertext[2] ^= subkeys->y810; ciphertext[3] ^= subkeys->y811;

  00203	44 8b 9b 80 00
	00 00		 mov	 r11d, DWORD PTR [rbx+128]
  0020a	44 31 1f	 xor	 DWORD PTR [rdi], r11d
  0020d	8b 83 84 00 00
	00		 mov	 eax, DWORD PTR [rbx+132]
  00213	31 47 04	 xor	 DWORD PTR [rdi+4], eax
  00216	8b 83 88 00 00
	00		 mov	 eax, DWORD PTR [rbx+136]
  0021c	31 47 08	 xor	 DWORD PTR [rdi+8], eax
  0021f	8b 83 8c 00 00
	00		 mov	 eax, DWORD PTR [rbx+140]

; 519  : 	S(ciphertext); L(ciphertext);

  00225	48 8b cf	 mov	 rcx, rdi
  00228	31 47 0c	 xor	 DWORD PTR [rdi+12], eax
  0022b	e8 00 00 00 00	 call	 S
  00230	48 8b cf	 mov	 rcx, rdi
  00233	e8 00 00 00 00	 call	 L

; 520  : 	
; 521  : 	/* Round 10 with subkey 10 */
; 522  : 	ciphertext[0] ^= subkeys->y900; ciphertext[1] ^= subkeys->y901; ciphertext[2] ^= subkeys->y910; ciphertext[3] ^= subkeys->y911;

  00238	44 8b 9b 90 00
	00 00		 mov	 r11d, DWORD PTR [rbx+144]
  0023f	44 31 1f	 xor	 DWORD PTR [rdi], r11d
  00242	8b 83 94 00 00
	00		 mov	 eax, DWORD PTR [rbx+148]

; 523  : 
; 524  : 	changeEndian(&ciphertext[0]); changeEndian(&ciphertext[1]); changeEndian(&plaintext[2]); changeEndian(&plaintext[3]);

  00248	8b 0f		 mov	 ecx, DWORD PTR [rdi]
  0024a	31 47 04	 xor	 DWORD PTR [rdi+4], eax
  0024d	8b 83 98 00 00
	00		 mov	 eax, DWORD PTR [rbx+152]
  00253	8b d1		 mov	 edx, ecx
  00255	31 47 08	 xor	 DWORD PTR [rdi+8], eax
  00258	8b 83 9c 00 00
	00		 mov	 eax, DWORD PTR [rbx+156]

; 525  : 	
; 526  : }

  0025e	48 8b 5c 24 30	 mov	 rbx, QWORD PTR [rsp+48]
  00263	31 47 0c	 xor	 DWORD PTR [rdi+12], eax
  00266	c1 e2 10	 shl	 edx, 16
  00269	8b c1		 mov	 eax, ecx
  0026b	23 c5		 and	 eax, ebp
  0026d	c1 e9 08	 shr	 ecx, 8
  00270	0b d0		 or	 edx, eax
  00272	0f b6 47 03	 movzx	 eax, BYTE PTR [rdi+3]
  00276	23 cd		 and	 ecx, ebp
  00278	c1 e2 08	 shl	 edx, 8
  0027b	0b d1		 or	 edx, ecx
  0027d	0b d0		 or	 edx, eax
  0027f	89 17		 mov	 DWORD PTR [rdi], edx
  00281	8b 4f 04	 mov	 ecx, DWORD PTR [rdi+4]
  00284	8b d1		 mov	 edx, ecx
  00286	8b c1		 mov	 eax, ecx
  00288	c1 e9 08	 shr	 ecx, 8
  0028b	c1 e2 10	 shl	 edx, 16
  0028e	23 c5		 and	 eax, ebp
  00290	23 cd		 and	 ecx, ebp
  00292	0b d0		 or	 edx, eax
  00294	0f b6 47 07	 movzx	 eax, BYTE PTR [rdi+7]
  00298	c1 e2 08	 shl	 edx, 8
  0029b	0b d1		 or	 edx, ecx
  0029d	0b d0		 or	 edx, eax
  0029f	89 57 04	 mov	 DWORD PTR [rdi+4], edx
  002a2	8b 4e 08	 mov	 ecx, DWORD PTR [rsi+8]
  002a5	8b d1		 mov	 edx, ecx
  002a7	8b c1		 mov	 eax, ecx
  002a9	c1 e9 08	 shr	 ecx, 8
  002ac	c1 e2 10	 shl	 edx, 16
  002af	23 c5		 and	 eax, ebp
  002b1	23 cd		 and	 ecx, ebp
  002b3	0b d0		 or	 edx, eax
  002b5	0f b6 46 0b	 movzx	 eax, BYTE PTR [rsi+11]
  002b9	c1 e2 08	 shl	 edx, 8
  002bc	0b d1		 or	 edx, ecx
  002be	0b d0		 or	 edx, eax
  002c0	89 56 08	 mov	 DWORD PTR [rsi+8], edx
  002c3	8b 4e 0c	 mov	 ecx, DWORD PTR [rsi+12]
  002c6	8b d1		 mov	 edx, ecx
  002c8	8b c1		 mov	 eax, ecx
  002ca	c1 e9 08	 shr	 ecx, 8
  002cd	c1 e2 10	 shl	 edx, 16
  002d0	23 c5		 and	 eax, ebp
  002d2	23 cd		 and	 ecx, ebp
  002d4	48 8b 6c 24 38	 mov	 rbp, QWORD PTR [rsp+56]
  002d9	0b d0		 or	 edx, eax
  002db	0f b6 46 0f	 movzx	 eax, BYTE PTR [rsi+15]
  002df	c1 e2 08	 shl	 edx, 8
  002e2	0b d1		 or	 edx, ecx
  002e4	0b d0		 or	 edx, eax
  002e6	89 56 0c	 mov	 DWORD PTR [rsi+12], edx
  002e9	48 8b 74 24 40	 mov	 rsi, QWORD PTR [rsp+64]
  002ee	48 83 c4 20	 add	 rsp, 32			; 00000020H
  002f2	5f		 pop	 rdi
  002f3	c3		 ret	 0
grasshopper_encrypt ENDP
_TEXT	ENDS
PUBLIC	F
;	COMDAT pdata
pdata	SEGMENT
$pdata$F DD	imagerel $LN3
	DD	imagerel $LN3+151
	DD	imagerel $unwind$F
pdata	ENDS
;	COMDAT xdata
xdata	SEGMENT
$unwind$F DD	040a01H
	DD	08340aH
	DD	07006520aH
; Function compile flags: /Ogspy
xdata	ENDS
;	COMDAT F
_TEXT	SEGMENT
tmpblock$ = 32
k$ = 64
block1$ = 72
block0$ = 80
F	PROC						; COMDAT

; 370  : {

$LN3:
  00000	48 89 5c 24 08	 mov	 QWORD PTR [rsp+8], rbx
  00005	57		 push	 rdi
  00006	48 83 ec 30	 sub	 rsp, 48			; 00000030H

; 371  : 	unsigned long tmpblock[4];
; 372  : 
; 373  : 	/* Bitwise xor of k with block2 */
; 374  : 	tmpblock[0] = (block1[0] ^ k[0]);

  0000a	8b 01		 mov	 eax, DWORD PTR [rcx]
  0000c	49 8b d8	 mov	 rbx, r8
  0000f	48 8b fa	 mov	 rdi, rdx
  00012	33 02		 xor	 eax, DWORD PTR [rdx]
  00014	89 44 24 20	 mov	 DWORD PTR tmpblock$[rsp], eax

; 375  : 	tmpblock[1] = (block1[1] ^ k[1]);

  00018	8b 41 04	 mov	 eax, DWORD PTR [rcx+4]
  0001b	33 42 04	 xor	 eax, DWORD PTR [rdx+4]
  0001e	89 44 24 24	 mov	 DWORD PTR tmpblock$[rsp+4], eax

; 376  : 	tmpblock[2] = (block1[2] ^ k[2]);

  00022	8b 41 08	 mov	 eax, DWORD PTR [rcx+8]
  00025	33 42 08	 xor	 eax, DWORD PTR [rdx+8]
  00028	89 44 24 28	 mov	 DWORD PTR tmpblock$[rsp+8], eax

; 377  : 	tmpblock[3] = (block1[3] ^ k[3]);

  0002c	8b 41 0c	 mov	 eax, DWORD PTR [rcx+12]

; 378  : 
; 379  : 	/* Apply S conversion function  */
; 380  : 	S(tmpblock);

  0002f	48 8d 4c 24 20	 lea	 rcx, QWORD PTR tmpblock$[rsp]
  00034	33 42 0c	 xor	 eax, DWORD PTR [rdx+12]
  00037	89 44 24 2c	 mov	 DWORD PTR tmpblock$[rsp+12], eax
  0003b	e8 00 00 00 00	 call	 S

; 381  : 
; 382  : 	/* Apply L conversion function  */
; 383  : 	L(tmpblock);

  00040	48 8d 4c 24 20	 lea	 rcx, QWORD PTR tmpblock$[rsp]
  00045	e8 00 00 00 00	 call	 L

; 384  : 
; 385  : 	/* Add a0 to the the result     */
; 386  : 	tmpblock[0] ^= block0[0];
; 387  : 	tmpblock[1] ^= block0[1];
; 388  : 	tmpblock[2] ^= block0[2];
; 389  : 	tmpblock[3] ^= block0[3];
; 390  : 
; 391  : 	/* Update the results           */
; 392  : 	block0[0] = block1[0];

  0004a	8b 07		 mov	 eax, DWORD PTR [rdi]
  0004c	44 8b 5c 24 20	 mov	 r11d, DWORD PTR tmpblock$[rsp]
  00051	44 33 1b	 xor	 r11d, DWORD PTR [rbx]
  00054	44 8b 44 24 24	 mov	 r8d, DWORD PTR tmpblock$[rsp+4]
  00059	8b 54 24 28	 mov	 edx, DWORD PTR tmpblock$[rsp+8]
  0005d	44 33 43 04	 xor	 r8d, DWORD PTR [rbx+4]
  00061	33 53 08	 xor	 edx, DWORD PTR [rbx+8]
  00064	8b 4c 24 2c	 mov	 ecx, DWORD PTR tmpblock$[rsp+12]
  00068	33 4b 0c	 xor	 ecx, DWORD PTR [rbx+12]
  0006b	89 03		 mov	 DWORD PTR [rbx], eax

; 393  : 	block0[1] = block1[1];

  0006d	8b 47 04	 mov	 eax, DWORD PTR [rdi+4]
  00070	89 43 04	 mov	 DWORD PTR [rbx+4], eax

; 394  : 	block0[2] = block1[2];

  00073	8b 47 08	 mov	 eax, DWORD PTR [rdi+8]

; 395  : 	block0[3] = block1[3];
; 396  : 
; 397  : 	block1[0] = tmpblock[0];

  00076	44 89 1f	 mov	 DWORD PTR [rdi], r11d
  00079	89 43 08	 mov	 DWORD PTR [rbx+8], eax
  0007c	8b 47 0c	 mov	 eax, DWORD PTR [rdi+12]

; 398  : 	block1[1] = tmpblock[1];

  0007f	44 89 47 04	 mov	 DWORD PTR [rdi+4], r8d
  00083	89 43 0c	 mov	 DWORD PTR [rbx+12], eax

; 399  : 	block1[2] = tmpblock[2];
; 400  : 	block1[3] = tmpblock[3];
; 401  : }

  00086	48 8b 5c 24 40	 mov	 rbx, QWORD PTR [rsp+64]
  0008b	89 57 08	 mov	 DWORD PTR [rdi+8], edx
  0008e	89 4f 0c	 mov	 DWORD PTR [rdi+12], ecx
  00091	48 83 c4 30	 add	 rsp, 48			; 00000030H
  00095	5f		 pop	 rdi
  00096	c3		 ret	 0
F	ENDP
PUBLIC	grasshopper_set_key
;	COMDAT pdata
pdata	SEGMENT
$pdata$grasshopper_set_key DD imagerel $LN24
	DD	imagerel $LN24+1500
	DD	imagerel $unwind$grasshopper_set_key
pdata	ENDS
;	COMDAT xdata
xdata	SEGMENT
$unwind$grasshopper_set_key DD 091701H
	DD	04c6417H
	DD	04b5417H
	DD	04a3417H
	DD	0480117H
	DD	07010H
; Function compile flags: /Ogspy
xdata	ENDS
;	COMDAT grasshopper_set_key
_TEXT	SEGMENT
blocktmp$ = 32
blocktmp2$ = 48
c_values$ = 64
master_key$ = 592
subkeys$ = 600
grasshopper_set_key PROC				; COMDAT

; 413  : {

$LN24:
  00000	48 89 5c 24 08	 mov	 QWORD PTR [rsp+8], rbx
  00005	48 89 6c 24 10	 mov	 QWORD PTR [rsp+16], rbp
  0000a	48 89 74 24 18	 mov	 QWORD PTR [rsp+24], rsi
  0000f	57		 push	 rdi
  00010	48 81 ec 40 02
	00 00		 sub	 rsp, 576		; 00000240H
  00017	48 8b f2	 mov	 rsi, rdx
  0001a	48 8b e9	 mov	 rbp, rcx

; 414  : 
; 415  : 	unsigned long c_values[32][4], blocktmp[4], blocktmp2[4];
; 416  : 	unsigned char i;
; 417  : 
; 418  : 	/* Compute the C_i values       */
; 419  : 	for(i = 0;i < 32;i++)

  0001d	40 32 ff	 xor	 dil, dil
  00020	48 8d 5c 24 44	 lea	 rbx, QWORD PTR c_values$[rsp+4]
$LL3@grasshoppe:

; 420  : 	{
; 421  : 		blocktmp[0] = 0L;

  00025	83 64 24 20 00	 and	 DWORD PTR blocktmp$[rsp], 0

; 422  : 		blocktmp[1] = 0L;

  0002a	83 64 24 24 00	 and	 DWORD PTR blocktmp$[rsp+4], 0

; 423  : 		blocktmp[2] = 0L;

  0002f	83 64 24 28 00	 and	 DWORD PTR blocktmp$[rsp+8], 0

; 424  : 		blocktmp[3] = (unsigned long)(i + 1);

  00034	40 0f b6 c7	 movzx	 eax, dil

; 425  : 		L(blocktmp);

  00038	48 8d 4c 24 20	 lea	 rcx, QWORD PTR blocktmp$[rsp]
  0003d	ff c0		 inc	 eax
  0003f	89 44 24 2c	 mov	 DWORD PTR blocktmp$[rsp+12], eax
  00043	e8 00 00 00 00	 call	 L

; 426  : 		c_values[i][0] = blocktmp[0]; c_values[i][1] = blocktmp[1]; c_values[i][2] = blocktmp[2]; c_values[i][3] = blocktmp[3];

  00048	8b 44 24 24	 mov	 eax, DWORD PTR blocktmp$[rsp+4]
  0004c	44 8b 5c 24 20	 mov	 r11d, DWORD PTR blocktmp$[rsp]
  00051	89 03		 mov	 DWORD PTR [rbx], eax
  00053	8b 44 24 28	 mov	 eax, DWORD PTR blocktmp$[rsp+8]
  00057	89 43 04	 mov	 DWORD PTR [rbx+4], eax
  0005a	8b 44 24 2c	 mov	 eax, DWORD PTR blocktmp$[rsp+12]
  0005e	40 fe c7	 inc	 dil
  00061	44 89 5b fc	 mov	 DWORD PTR [rbx-4], r11d
  00065	89 43 08	 mov	 DWORD PTR [rbx+8], eax
  00068	48 83 c3 10	 add	 rbx, 16
  0006c	40 80 ff 20	 cmp	 dil, 32			; 00000020H
  00070	72 b3		 jb	 SHORT $LL3@grasshoppe

; 427  : 	}
; 428  : 
; 429  : 
; 430  : 	/* Compute subkeys K_1 and K_2  */
; 431  : 	subkeys->y000 = master_key[0]; subkeys->y001 = master_key[1]; subkeys->y010 = master_key[2]; subkeys->y011 = master_key[3];

  00072	8b 55 00	 mov	 edx, DWORD PTR [rbp]

; 432  : 	subkeys->y100 = master_key[4]; subkeys->y101 = master_key[5]; subkeys->y110 = master_key[6]; subkeys->y111 = master_key[7];
; 433  : 
; 434  : 	changeEndian(&subkeys->y000); changeEndian(&subkeys->y010); changeEndian(&subkeys->y001); changeEndian(&subkeys->y011);

  00075	41 b8 00 ff 00
	00		 mov	 r8d, 65280		; 0000ff00H
  0007b	89 16		 mov	 DWORD PTR [rsi], edx
  0007d	8b 45 04	 mov	 eax, DWORD PTR [rbp+4]
  00080	8b ca		 mov	 ecx, edx
  00082	89 46 04	 mov	 DWORD PTR [rsi+4], eax
  00085	8b 45 08	 mov	 eax, DWORD PTR [rbp+8]
  00088	c1 e1 10	 shl	 ecx, 16
  0008b	89 46 08	 mov	 DWORD PTR [rsi+8], eax
  0008e	8b 45 0c	 mov	 eax, DWORD PTR [rbp+12]
  00091	89 46 0c	 mov	 DWORD PTR [rsi+12], eax
  00094	8b 45 10	 mov	 eax, DWORD PTR [rbp+16]
  00097	89 46 10	 mov	 DWORD PTR [rsi+16], eax
  0009a	8b 45 14	 mov	 eax, DWORD PTR [rbp+20]
  0009d	89 46 14	 mov	 DWORD PTR [rsi+20], eax
  000a0	8b 45 18	 mov	 eax, DWORD PTR [rbp+24]
  000a3	89 46 18	 mov	 DWORD PTR [rsi+24], eax
  000a6	8b 45 1c	 mov	 eax, DWORD PTR [rbp+28]
  000a9	89 46 1c	 mov	 DWORD PTR [rsi+28], eax
  000ac	8b c2		 mov	 eax, edx
  000ae	c1 ea 08	 shr	 edx, 8
  000b1	41 23 d0	 and	 edx, r8d
  000b4	41 23 c0	 and	 eax, r8d
  000b7	0b c8		 or	 ecx, eax
  000b9	0f b6 46 03	 movzx	 eax, BYTE PTR [rsi+3]
  000bd	c1 e1 08	 shl	 ecx, 8
  000c0	0b ca		 or	 ecx, edx
  000c2	0b c8		 or	 ecx, eax
  000c4	89 0e		 mov	 DWORD PTR [rsi], ecx
  000c6	8b 4e 08	 mov	 ecx, DWORD PTR [rsi+8]
  000c9	8b d1		 mov	 edx, ecx
  000cb	8b c1		 mov	 eax, ecx
  000cd	c1 e9 08	 shr	 ecx, 8
  000d0	c1 e2 10	 shl	 edx, 16
  000d3	41 23 c0	 and	 eax, r8d
  000d6	41 23 c8	 and	 ecx, r8d
  000d9	0b d0		 or	 edx, eax
  000db	0f b6 46 0b	 movzx	 eax, BYTE PTR [rsi+11]
  000df	c1 e2 08	 shl	 edx, 8
  000e2	0b d1		 or	 edx, ecx
  000e4	0b d0		 or	 edx, eax
  000e6	89 56 08	 mov	 DWORD PTR [rsi+8], edx
  000e9	8b 4e 04	 mov	 ecx, DWORD PTR [rsi+4]
  000ec	8b d1		 mov	 edx, ecx
  000ee	8b c1		 mov	 eax, ecx
  000f0	c1 e9 08	 shr	 ecx, 8
  000f3	c1 e2 10	 shl	 edx, 16
  000f6	41 23 c0	 and	 eax, r8d
  000f9	41 23 c8	 and	 ecx, r8d
  000fc	0b d0		 or	 edx, eax
  000fe	0f b6 46 07	 movzx	 eax, BYTE PTR [rsi+7]
  00102	c1 e2 08	 shl	 edx, 8
  00105	0b d1		 or	 edx, ecx
  00107	0b d0		 or	 edx, eax
  00109	89 56 04	 mov	 DWORD PTR [rsi+4], edx
  0010c	8b 4e 0c	 mov	 ecx, DWORD PTR [rsi+12]
  0010f	8b d1		 mov	 edx, ecx
  00111	8b c1		 mov	 eax, ecx
  00113	c1 e9 08	 shr	 ecx, 8
  00116	c1 e2 10	 shl	 edx, 16
  00119	41 23 c0	 and	 eax, r8d
  0011c	41 23 c8	 and	 ecx, r8d
  0011f	0b d0		 or	 edx, eax
  00121	0f b6 46 0f	 movzx	 eax, BYTE PTR [rsi+15]
  00125	c1 e2 08	 shl	 edx, 8
  00128	0b d1		 or	 edx, ecx
  0012a	0b d0		 or	 edx, eax
  0012c	89 56 0c	 mov	 DWORD PTR [rsi+12], edx

; 435  : 	changeEndian(&subkeys->y100); changeEndian(&subkeys->y101); changeEndian(&subkeys->y110); changeEndian(&subkeys->y111);

  0012f	8b 4e 10	 mov	 ecx, DWORD PTR [rsi+16]
  00132	8b d1		 mov	 edx, ecx
  00134	8b c1		 mov	 eax, ecx
  00136	c1 e9 08	 shr	 ecx, 8
  00139	c1 e2 10	 shl	 edx, 16
  0013c	41 23 c0	 and	 eax, r8d
  0013f	41 23 c8	 and	 ecx, r8d
  00142	0b d0		 or	 edx, eax
  00144	0f b6 46 13	 movzx	 eax, BYTE PTR [rsi+19]
  00148	c1 e2 08	 shl	 edx, 8
  0014b	0b d1		 or	 edx, ecx
  0014d	0b d0		 or	 edx, eax
  0014f	89 56 10	 mov	 DWORD PTR [rsi+16], edx
  00152	8b 4e 14	 mov	 ecx, DWORD PTR [rsi+20]
  00155	8b d1		 mov	 edx, ecx
  00157	8b c1		 mov	 eax, ecx
  00159	c1 e9 08	 shr	 ecx, 8
  0015c	c1 e2 10	 shl	 edx, 16
  0015f	41 23 c0	 and	 eax, r8d
  00162	41 23 c8	 and	 ecx, r8d
  00165	0b d0		 or	 edx, eax
  00167	0f b6 46 17	 movzx	 eax, BYTE PTR [rsi+23]
  0016b	c1 e2 08	 shl	 edx, 8
  0016e	0b d1		 or	 edx, ecx
  00170	0b d0		 or	 edx, eax
  00172	89 56 14	 mov	 DWORD PTR [rsi+20], edx
  00175	8b 4e 18	 mov	 ecx, DWORD PTR [rsi+24]
  00178	8b d1		 mov	 edx, ecx
  0017a	8b c1		 mov	 eax, ecx
  0017c	c1 e9 08	 shr	 ecx, 8
  0017f	41 23 c0	 and	 eax, r8d
  00182	c1 e2 10	 shl	 edx, 16
  00185	41 23 c8	 and	 ecx, r8d
  00188	0b d0		 or	 edx, eax
  0018a	0f b6 46 1b	 movzx	 eax, BYTE PTR [rsi+27]
  0018e	c1 e2 08	 shl	 edx, 8
  00191	0b d1		 or	 edx, ecx
  00193	0b d0		 or	 edx, eax
  00195	89 56 18	 mov	 DWORD PTR [rsi+24], edx
  00198	8b 4e 1c	 mov	 ecx, DWORD PTR [rsi+28]
  0019b	8b d1		 mov	 edx, ecx
  0019d	8b c1		 mov	 eax, ecx
  0019f	c1 e9 08	 shr	 ecx, 8
  001a2	41 23 c0	 and	 eax, r8d
  001a5	c1 e2 10	 shl	 edx, 16
  001a8	41 23 c8	 and	 ecx, r8d
  001ab	0b d0		 or	 edx, eax
  001ad	0f b6 46 1f	 movzx	 eax, BYTE PTR [rsi+31]

; 436  : 
; 437  : 	/* Compute subkeys K_3 and K_4  */
; 438  : 	blocktmp[0] = subkeys->y000; blocktmp[1] = subkeys->y001; blocktmp[2] = subkeys->y010; blocktmp[3] = subkeys->y011;
; 439  : 	blocktmp2[0] = subkeys->y100; blocktmp2[1] = subkeys->y101; blocktmp2[2] = subkeys->y110; blocktmp2[3] = subkeys->y111;
; 440  : 	F(c_values[0], blocktmp, blocktmp2); F(c_values[1], blocktmp, blocktmp2);

  001b1	4c 8d 44 24 30	 lea	 r8, QWORD PTR blocktmp2$[rsp]
  001b6	c1 e2 08	 shl	 edx, 8
  001b9	0b d1		 or	 edx, ecx
  001bb	48 8d 4c 24 40	 lea	 rcx, QWORD PTR c_values$[rsp]
  001c0	0b d0		 or	 edx, eax
  001c2	89 56 1c	 mov	 DWORD PTR [rsi+28], edx
  001c5	8b 06		 mov	 eax, DWORD PTR [rsi]
  001c7	89 54 24 3c	 mov	 DWORD PTR blocktmp2$[rsp+12], edx
  001cb	89 44 24 20	 mov	 DWORD PTR blocktmp$[rsp], eax
  001cf	8b 46 04	 mov	 eax, DWORD PTR [rsi+4]
  001d2	48 8d 54 24 20	 lea	 rdx, QWORD PTR blocktmp$[rsp]
  001d7	89 44 24 24	 mov	 DWORD PTR blocktmp$[rsp+4], eax
  001db	8b 46 08	 mov	 eax, DWORD PTR [rsi+8]
  001de	89 44 24 28	 mov	 DWORD PTR blocktmp$[rsp+8], eax
  001e2	8b 46 0c	 mov	 eax, DWORD PTR [rsi+12]
  001e5	89 44 24 2c	 mov	 DWORD PTR blocktmp$[rsp+12], eax
  001e9	8b 46 10	 mov	 eax, DWORD PTR [rsi+16]
  001ec	89 44 24 30	 mov	 DWORD PTR blocktmp2$[rsp], eax
  001f0	8b 46 14	 mov	 eax, DWORD PTR [rsi+20]
  001f3	89 44 24 34	 mov	 DWORD PTR blocktmp2$[rsp+4], eax
  001f7	8b 46 18	 mov	 eax, DWORD PTR [rsi+24]
  001fa	89 44 24 38	 mov	 DWORD PTR blocktmp2$[rsp+8], eax
  001fe	e8 00 00 00 00	 call	 F
  00203	4c 8d 44 24 30	 lea	 r8, QWORD PTR blocktmp2$[rsp]
  00208	48 8d 54 24 20	 lea	 rdx, QWORD PTR blocktmp$[rsp]
  0020d	48 8d 4c 24 50	 lea	 rcx, QWORD PTR c_values$[rsp+16]
  00212	e8 00 00 00 00	 call	 F

; 441  : 	F(c_values[2], blocktmp, blocktmp2); F(c_values[3], blocktmp, blocktmp2);

  00217	4c 8d 44 24 30	 lea	 r8, QWORD PTR blocktmp2$[rsp]
  0021c	48 8d 54 24 20	 lea	 rdx, QWORD PTR blocktmp$[rsp]
  00221	48 8d 4c 24 60	 lea	 rcx, QWORD PTR c_values$[rsp+32]
  00226	e8 00 00 00 00	 call	 F
  0022b	4c 8d 44 24 30	 lea	 r8, QWORD PTR blocktmp2$[rsp]
  00230	48 8d 54 24 20	 lea	 rdx, QWORD PTR blocktmp$[rsp]
  00235	48 8d 4c 24 70	 lea	 rcx, QWORD PTR c_values$[rsp+48]
  0023a	e8 00 00 00 00	 call	 F

; 442  : 	F(c_values[4], blocktmp, blocktmp2); F(c_values[5], blocktmp, blocktmp2);

  0023f	4c 8d 44 24 30	 lea	 r8, QWORD PTR blocktmp2$[rsp]
  00244	48 8d 54 24 20	 lea	 rdx, QWORD PTR blocktmp$[rsp]
  00249	48 8d 8c 24 80
	00 00 00	 lea	 rcx, QWORD PTR c_values$[rsp+64]
  00251	e8 00 00 00 00	 call	 F
  00256	4c 8d 44 24 30	 lea	 r8, QWORD PTR blocktmp2$[rsp]
  0025b	48 8d 54 24 20	 lea	 rdx, QWORD PTR blocktmp$[rsp]
  00260	48 8d 8c 24 90
	00 00 00	 lea	 rcx, QWORD PTR c_values$[rsp+80]
  00268	e8 00 00 00 00	 call	 F

; 443  : 	F(c_values[6], blocktmp, blocktmp2); F(c_values[7], blocktmp, blocktmp2);

  0026d	4c 8d 44 24 30	 lea	 r8, QWORD PTR blocktmp2$[rsp]
  00272	48 8d 54 24 20	 lea	 rdx, QWORD PTR blocktmp$[rsp]
  00277	48 8d 8c 24 a0
	00 00 00	 lea	 rcx, QWORD PTR c_values$[rsp+96]
  0027f	e8 00 00 00 00	 call	 F
  00284	4c 8d 44 24 30	 lea	 r8, QWORD PTR blocktmp2$[rsp]
  00289	48 8d 54 24 20	 lea	 rdx, QWORD PTR blocktmp$[rsp]
  0028e	48 8d 8c 24 b0
	00 00 00	 lea	 rcx, QWORD PTR c_values$[rsp+112]
  00296	e8 00 00 00 00	 call	 F

; 444  : 
; 445  : 	subkeys->y200 = blocktmp[0]; subkeys->y201 = blocktmp[1]; subkeys->y210 = blocktmp[2]; subkeys->y211 = blocktmp[3];

  0029b	8b 44 24 24	 mov	 eax, DWORD PTR blocktmp$[rsp+4]
  0029f	44 8b 5c 24 20	 mov	 r11d, DWORD PTR blocktmp$[rsp]
  002a4	89 46 24	 mov	 DWORD PTR [rsi+36], eax
  002a7	8b 44 24 28	 mov	 eax, DWORD PTR blocktmp$[rsp+8]

; 446  : 	subkeys->y300 = blocktmp2[0]; subkeys->y301 = blocktmp2[1]; subkeys->y310 = blocktmp2[2]; subkeys->y311 = blocktmp2[3];
; 447  : 
; 448  : 	/* Compute subkeys K_5 and K_6  */
; 449  : 	F(c_values[ 8], blocktmp, blocktmp2); F(c_values[ 9], blocktmp, blocktmp2);

  002ab	4c 8d 44 24 30	 lea	 r8, QWORD PTR blocktmp2$[rsp]
  002b0	89 46 28	 mov	 DWORD PTR [rsi+40], eax
  002b3	8b 44 24 2c	 mov	 eax, DWORD PTR blocktmp$[rsp+12]
  002b7	48 8d 54 24 20	 lea	 rdx, QWORD PTR blocktmp$[rsp]
  002bc	89 46 2c	 mov	 DWORD PTR [rsi+44], eax
  002bf	8b 44 24 30	 mov	 eax, DWORD PTR blocktmp2$[rsp]
  002c3	48 8d 8c 24 c0
	00 00 00	 lea	 rcx, QWORD PTR c_values$[rsp+128]
  002cb	89 46 30	 mov	 DWORD PTR [rsi+48], eax
  002ce	8b 44 24 34	 mov	 eax, DWORD PTR blocktmp2$[rsp+4]
  002d2	44 89 5e 20	 mov	 DWORD PTR [rsi+32], r11d
  002d6	89 46 34	 mov	 DWORD PTR [rsi+52], eax
  002d9	8b 44 24 38	 mov	 eax, DWORD PTR blocktmp2$[rsp+8]
  002dd	89 46 38	 mov	 DWORD PTR [rsi+56], eax
  002e0	8b 44 24 3c	 mov	 eax, DWORD PTR blocktmp2$[rsp+12]
  002e4	89 46 3c	 mov	 DWORD PTR [rsi+60], eax
  002e7	e8 00 00 00 00	 call	 F
  002ec	4c 8d 44 24 30	 lea	 r8, QWORD PTR blocktmp2$[rsp]
  002f1	48 8d 54 24 20	 lea	 rdx, QWORD PTR blocktmp$[rsp]
  002f6	48 8d 8c 24 d0
	00 00 00	 lea	 rcx, QWORD PTR c_values$[rsp+144]
  002fe	e8 00 00 00 00	 call	 F

; 450  : 	F(c_values[10], blocktmp, blocktmp2); F(c_values[11], blocktmp, blocktmp2);

  00303	4c 8d 44 24 30	 lea	 r8, QWORD PTR blocktmp2$[rsp]
  00308	48 8d 54 24 20	 lea	 rdx, QWORD PTR blocktmp$[rsp]
  0030d	48 8d 8c 24 e0
	00 00 00	 lea	 rcx, QWORD PTR c_values$[rsp+160]
  00315	e8 00 00 00 00	 call	 F
  0031a	4c 8d 44 24 30	 lea	 r8, QWORD PTR blocktmp2$[rsp]
  0031f	48 8d 54 24 20	 lea	 rdx, QWORD PTR blocktmp$[rsp]
  00324	48 8d 8c 24 f0
	00 00 00	 lea	 rcx, QWORD PTR c_values$[rsp+176]
  0032c	e8 00 00 00 00	 call	 F

; 451  : 	F(c_values[12], blocktmp, blocktmp2); F(c_values[13], blocktmp, blocktmp2);

  00331	4c 8d 44 24 30	 lea	 r8, QWORD PTR blocktmp2$[rsp]
  00336	48 8d 54 24 20	 lea	 rdx, QWORD PTR blocktmp$[rsp]
  0033b	48 8d 8c 24 00
	01 00 00	 lea	 rcx, QWORD PTR c_values$[rsp+192]
  00343	e8 00 00 00 00	 call	 F
  00348	4c 8d 44 24 30	 lea	 r8, QWORD PTR blocktmp2$[rsp]
  0034d	48 8d 54 24 20	 lea	 rdx, QWORD PTR blocktmp$[rsp]
  00352	48 8d 8c 24 10
	01 00 00	 lea	 rcx, QWORD PTR c_values$[rsp+208]
  0035a	e8 00 00 00 00	 call	 F

; 452  : 	F(c_values[14], blocktmp, blocktmp2); F(c_values[15], blocktmp, blocktmp2);

  0035f	4c 8d 44 24 30	 lea	 r8, QWORD PTR blocktmp2$[rsp]
  00364	48 8d 54 24 20	 lea	 rdx, QWORD PTR blocktmp$[rsp]
  00369	48 8d 8c 24 20
	01 00 00	 lea	 rcx, QWORD PTR c_values$[rsp+224]
  00371	e8 00 00 00 00	 call	 F
  00376	4c 8d 44 24 30	 lea	 r8, QWORD PTR blocktmp2$[rsp]
  0037b	48 8d 54 24 20	 lea	 rdx, QWORD PTR blocktmp$[rsp]
  00380	48 8d 8c 24 30
	01 00 00	 lea	 rcx, QWORD PTR c_values$[rsp+240]
  00388	e8 00 00 00 00	 call	 F

; 453  : 
; 454  : 	subkeys->y400 = blocktmp[0]; subkeys->y401 = blocktmp[1]; subkeys->y410 = blocktmp[2]; subkeys->y411 = blocktmp[3];

  0038d	8b 44 24 24	 mov	 eax, DWORD PTR blocktmp$[rsp+4]
  00391	44 8b 5c 24 20	 mov	 r11d, DWORD PTR blocktmp$[rsp]
  00396	89 46 44	 mov	 DWORD PTR [rsi+68], eax
  00399	8b 44 24 28	 mov	 eax, DWORD PTR blocktmp$[rsp+8]

; 455  : 	subkeys->y500 = blocktmp2[0]; subkeys->y501 = blocktmp2[1]; subkeys->y510 = blocktmp2[2]; subkeys->y511 = blocktmp2[3];
; 456  : 
; 457  : 	/* Compute subkeys K_7 and K_8  */
; 458  : 	F(c_values[16], blocktmp, blocktmp2); F(c_values[17], blocktmp, blocktmp2);

  0039d	4c 8d 44 24 30	 lea	 r8, QWORD PTR blocktmp2$[rsp]
  003a2	89 46 48	 mov	 DWORD PTR [rsi+72], eax
  003a5	8b 44 24 2c	 mov	 eax, DWORD PTR blocktmp$[rsp+12]
  003a9	48 8d 54 24 20	 lea	 rdx, QWORD PTR blocktmp$[rsp]
  003ae	89 46 4c	 mov	 DWORD PTR [rsi+76], eax
  003b1	8b 44 24 30	 mov	 eax, DWORD PTR blocktmp2$[rsp]
  003b5	48 8d 8c 24 40
	01 00 00	 lea	 rcx, QWORD PTR c_values$[rsp+256]
  003bd	89 46 50	 mov	 DWORD PTR [rsi+80], eax
  003c0	8b 44 24 34	 mov	 eax, DWORD PTR blocktmp2$[rsp+4]
  003c4	44 89 5e 40	 mov	 DWORD PTR [rsi+64], r11d
  003c8	89 46 54	 mov	 DWORD PTR [rsi+84], eax
  003cb	8b 44 24 38	 mov	 eax, DWORD PTR blocktmp2$[rsp+8]
  003cf	89 46 58	 mov	 DWORD PTR [rsi+88], eax
  003d2	8b 44 24 3c	 mov	 eax, DWORD PTR blocktmp2$[rsp+12]
  003d6	89 46 5c	 mov	 DWORD PTR [rsi+92], eax
  003d9	e8 00 00 00 00	 call	 F
  003de	4c 8d 44 24 30	 lea	 r8, QWORD PTR blocktmp2$[rsp]
  003e3	48 8d 54 24 20	 lea	 rdx, QWORD PTR blocktmp$[rsp]
  003e8	48 8d 8c 24 50
	01 00 00	 lea	 rcx, QWORD PTR c_values$[rsp+272]
  003f0	e8 00 00 00 00	 call	 F

; 459  : 	F(c_values[18], blocktmp, blocktmp2); F(c_values[19], blocktmp, blocktmp2);

  003f5	4c 8d 44 24 30	 lea	 r8, QWORD PTR blocktmp2$[rsp]
  003fa	48 8d 54 24 20	 lea	 rdx, QWORD PTR blocktmp$[rsp]
  003ff	48 8d 8c 24 60
	01 00 00	 lea	 rcx, QWORD PTR c_values$[rsp+288]
  00407	e8 00 00 00 00	 call	 F
  0040c	4c 8d 44 24 30	 lea	 r8, QWORD PTR blocktmp2$[rsp]
  00411	48 8d 54 24 20	 lea	 rdx, QWORD PTR blocktmp$[rsp]
  00416	48 8d 8c 24 70
	01 00 00	 lea	 rcx, QWORD PTR c_values$[rsp+304]
  0041e	e8 00 00 00 00	 call	 F

; 460  : 	F(c_values[20], blocktmp, blocktmp2); F(c_values[21], blocktmp, blocktmp2);

  00423	4c 8d 44 24 30	 lea	 r8, QWORD PTR blocktmp2$[rsp]
  00428	48 8d 54 24 20	 lea	 rdx, QWORD PTR blocktmp$[rsp]
  0042d	48 8d 8c 24 80
	01 00 00	 lea	 rcx, QWORD PTR c_values$[rsp+320]
  00435	e8 00 00 00 00	 call	 F
  0043a	4c 8d 44 24 30	 lea	 r8, QWORD PTR blocktmp2$[rsp]
  0043f	48 8d 54 24 20	 lea	 rdx, QWORD PTR blocktmp$[rsp]
  00444	48 8d 8c 24 90
	01 00 00	 lea	 rcx, QWORD PTR c_values$[rsp+336]
  0044c	e8 00 00 00 00	 call	 F

; 461  : 	F(c_values[22], blocktmp, blocktmp2); F(c_values[23], blocktmp, blocktmp2);

  00451	4c 8d 44 24 30	 lea	 r8, QWORD PTR blocktmp2$[rsp]
  00456	48 8d 54 24 20	 lea	 rdx, QWORD PTR blocktmp$[rsp]
  0045b	48 8d 8c 24 a0
	01 00 00	 lea	 rcx, QWORD PTR c_values$[rsp+352]
  00463	e8 00 00 00 00	 call	 F
  00468	4c 8d 44 24 30	 lea	 r8, QWORD PTR blocktmp2$[rsp]
  0046d	48 8d 54 24 20	 lea	 rdx, QWORD PTR blocktmp$[rsp]
  00472	48 8d 8c 24 b0
	01 00 00	 lea	 rcx, QWORD PTR c_values$[rsp+368]
  0047a	e8 00 00 00 00	 call	 F

; 462  : 
; 463  : 	subkeys->y600 = blocktmp[0]; subkeys->y601 = blocktmp[1]; subkeys->y610 = blocktmp[2]; subkeys->y611 = blocktmp[3];

  0047f	8b 44 24 24	 mov	 eax, DWORD PTR blocktmp$[rsp+4]
  00483	44 8b 5c 24 20	 mov	 r11d, DWORD PTR blocktmp$[rsp]
  00488	89 46 64	 mov	 DWORD PTR [rsi+100], eax
  0048b	8b 44 24 28	 mov	 eax, DWORD PTR blocktmp$[rsp+8]

; 464  : 	subkeys->y700 = blocktmp2[0]; subkeys->y701 = blocktmp2[1]; subkeys->y710 = blocktmp2[2]; subkeys->y711 = blocktmp2[3];
; 465  : 
; 466  : 	/* Compute subkeys K_9 and K_{10} */
; 467  : 	F(c_values[24], blocktmp, blocktmp2); F(c_values[25], blocktmp, blocktmp2);

  0048f	4c 8d 44 24 30	 lea	 r8, QWORD PTR blocktmp2$[rsp]
  00494	89 46 68	 mov	 DWORD PTR [rsi+104], eax
  00497	8b 44 24 2c	 mov	 eax, DWORD PTR blocktmp$[rsp+12]
  0049b	48 8d 54 24 20	 lea	 rdx, QWORD PTR blocktmp$[rsp]
  004a0	89 46 6c	 mov	 DWORD PTR [rsi+108], eax
  004a3	8b 44 24 30	 mov	 eax, DWORD PTR blocktmp2$[rsp]
  004a7	48 8d 8c 24 c0
	01 00 00	 lea	 rcx, QWORD PTR c_values$[rsp+384]
  004af	89 46 70	 mov	 DWORD PTR [rsi+112], eax
  004b2	8b 44 24 34	 mov	 eax, DWORD PTR blocktmp2$[rsp+4]
  004b6	44 89 5e 60	 mov	 DWORD PTR [rsi+96], r11d
  004ba	89 46 74	 mov	 DWORD PTR [rsi+116], eax
  004bd	8b 44 24 38	 mov	 eax, DWORD PTR blocktmp2$[rsp+8]
  004c1	89 46 78	 mov	 DWORD PTR [rsi+120], eax
  004c4	8b 44 24 3c	 mov	 eax, DWORD PTR blocktmp2$[rsp+12]
  004c8	89 46 7c	 mov	 DWORD PTR [rsi+124], eax
  004cb	e8 00 00 00 00	 call	 F
  004d0	4c 8d 44 24 30	 lea	 r8, QWORD PTR blocktmp2$[rsp]
  004d5	48 8d 54 24 20	 lea	 rdx, QWORD PTR blocktmp$[rsp]
  004da	48 8d 8c 24 d0
	01 00 00	 lea	 rcx, QWORD PTR c_values$[rsp+400]
  004e2	e8 00 00 00 00	 call	 F

; 468  : 	F(c_values[26], blocktmp, blocktmp2); F(c_values[27], blocktmp, blocktmp2);

  004e7	4c 8d 44 24 30	 lea	 r8, QWORD PTR blocktmp2$[rsp]
  004ec	48 8d 54 24 20	 lea	 rdx, QWORD PTR blocktmp$[rsp]
  004f1	48 8d 8c 24 e0
	01 00 00	 lea	 rcx, QWORD PTR c_values$[rsp+416]
  004f9	e8 00 00 00 00	 call	 F
  004fe	4c 8d 44 24 30	 lea	 r8, QWORD PTR blocktmp2$[rsp]
  00503	48 8d 54 24 20	 lea	 rdx, QWORD PTR blocktmp$[rsp]
  00508	48 8d 8c 24 f0
	01 00 00	 lea	 rcx, QWORD PTR c_values$[rsp+432]
  00510	e8 00 00 00 00	 call	 F

; 469  : 	F(c_values[28], blocktmp, blocktmp2); F(c_values[29], blocktmp, blocktmp2);

  00515	4c 8d 44 24 30	 lea	 r8, QWORD PTR blocktmp2$[rsp]
  0051a	48 8d 54 24 20	 lea	 rdx, QWORD PTR blocktmp$[rsp]
  0051f	48 8d 8c 24 00
	02 00 00	 lea	 rcx, QWORD PTR c_values$[rsp+448]
  00527	e8 00 00 00 00	 call	 F
  0052c	4c 8d 44 24 30	 lea	 r8, QWORD PTR blocktmp2$[rsp]
  00531	48 8d 54 24 20	 lea	 rdx, QWORD PTR blocktmp$[rsp]
  00536	48 8d 8c 24 10
	02 00 00	 lea	 rcx, QWORD PTR c_values$[rsp+464]
  0053e	e8 00 00 00 00	 call	 F

; 470  : 	F(c_values[30], blocktmp, blocktmp2); F(c_values[31], blocktmp, blocktmp2);

  00543	4c 8d 44 24 30	 lea	 r8, QWORD PTR blocktmp2$[rsp]
  00548	48 8d 54 24 20	 lea	 rdx, QWORD PTR blocktmp$[rsp]
  0054d	48 8d 8c 24 20
	02 00 00	 lea	 rcx, QWORD PTR c_values$[rsp+480]
  00555	e8 00 00 00 00	 call	 F
  0055a	4c 8d 44 24 30	 lea	 r8, QWORD PTR blocktmp2$[rsp]
  0055f	48 8d 54 24 20	 lea	 rdx, QWORD PTR blocktmp$[rsp]
  00564	48 8d 8c 24 30
	02 00 00	 lea	 rcx, QWORD PTR c_values$[rsp+496]
  0056c	e8 00 00 00 00	 call	 F

; 471  : 
; 472  : 	subkeys->y800 = blocktmp[0]; subkeys->y801 = blocktmp[1]; subkeys->y810 = blocktmp[2]; subkeys->y811 = blocktmp[3];

  00571	8b 44 24 24	 mov	 eax, DWORD PTR blocktmp$[rsp+4]
  00575	44 8b 5c 24 20	 mov	 r11d, DWORD PTR blocktmp$[rsp]
  0057a	89 86 84 00 00
	00		 mov	 DWORD PTR [rsi+132], eax
  00580	8b 44 24 28	 mov	 eax, DWORD PTR blocktmp$[rsp+8]
  00584	44 89 9e 80 00
	00 00		 mov	 DWORD PTR [rsi+128], r11d
  0058b	89 86 88 00 00
	00		 mov	 DWORD PTR [rsi+136], eax
  00591	8b 44 24 2c	 mov	 eax, DWORD PTR blocktmp$[rsp+12]
  00595	89 86 8c 00 00
	00		 mov	 DWORD PTR [rsi+140], eax

; 473  : 	subkeys->y900 = blocktmp2[0]; subkeys->y901 = blocktmp2[1]; subkeys->y910 = blocktmp2[2]; subkeys->y911 = blocktmp2[3];

  0059b	8b 44 24 30	 mov	 eax, DWORD PTR blocktmp2$[rsp]
  0059f	89 86 90 00 00
	00		 mov	 DWORD PTR [rsi+144], eax
  005a5	8b 44 24 34	 mov	 eax, DWORD PTR blocktmp2$[rsp+4]
  005a9	89 86 94 00 00
	00		 mov	 DWORD PTR [rsi+148], eax
  005af	8b 44 24 38	 mov	 eax, DWORD PTR blocktmp2$[rsp+8]

; 474  : 
; 475  : }

  005b3	4c 8d 9c 24 40
	02 00 00	 lea	 r11, QWORD PTR [rsp+576]
  005bb	89 86 98 00 00
	00		 mov	 DWORD PTR [rsi+152], eax
  005c1	8b 44 24 3c	 mov	 eax, DWORD PTR blocktmp2$[rsp+12]
  005c5	49 8b 5b 10	 mov	 rbx, QWORD PTR [r11+16]
  005c9	49 8b 6b 18	 mov	 rbp, QWORD PTR [r11+24]
  005cd	89 86 9c 00 00
	00		 mov	 DWORD PTR [rsi+156], eax
  005d3	49 8b 73 20	 mov	 rsi, QWORD PTR [r11+32]
  005d7	49 8b e3	 mov	 rsp, r11
  005da	5f		 pop	 rdi
  005db	c3		 ret	 0
grasshopper_set_key ENDP
END
