; Listing generated by Microsoft (R) Optimizing Compiler Version 15.00.30729.207 

include listing.inc

INCLUDELIB OLDNAMES

PUBLIC	T
T	DQ	e6f87e5c5b711fd0H
	DQ	258377800924fa16H
	DQ	c849e07e852ea4a8H
	DQ	5b4686a18f06c16aH
	DQ	0b32e9a2d77b416eH
	DQ	abda37a467815c66H
	DQ	f61796a81a686676H
	DQ	f5dc0b706391954bH
	DQ	4862f38db7e64bf1H
	DQ	ff5c629a68bd85c5H
	DQ	cb827da6fcd75795H
	DQ	66d36daf69b9f089H
	DQ	356c9f74483d83b0H
	DQ	7cbcecb1238c99a1H
	DQ	36a702ac31c4708dH
	DQ	9eb6a8d02fbcdfd6H
	DQ	8b19fa51e5b3ae37H
	DQ	9ccfb5408a127d0bH
	DQ	bc0c78b508208f5aH
	DQ	e533e3842288ecedH
	DQ	cec2c7d377c15fd2H
	DQ	ec7817b6505d0f5eH
	DQ	b94cc2c08336871dH
	DQ	8c205db4cb0b04adH
	DQ	763c855b28a0892fH
	DQ	588d1b79f6ff3257H
	DQ	3fecf69e4311933eH
	DQ	0fc0d39f803a18c9H
	DQ	ee010a26f5f3ad83H
	DQ	10efe8f4411979a6H
	DQ	5dcda10c7de93a10H
	DQ	4a1bee1d1248e92cH
	DQ	53bff2db21847339H
	DQ	b4f50ccfa6a23d09H
	DQ	5fb4bc9cd84798cdH
	DQ	e88a2d8b071c56f9H
	DQ	7f7771695a756a9cH
	DQ	c5f02e71a0ba1ebcH
	DQ	a663f9ab4215e672H
	DQ	2eb19e22de5fbb78H
	DQ	0db9ce0f2594ba14H
	DQ	82520e6397664d84H
	DQ	2f031e6a0208ea98H
	DQ	5c7f2144a1be6bf0H
	DQ	7a37cb1cd16362dbH
	DQ	83e08e2b4b311c64H
	DQ	cf70479bab960e32H
	DQ	856ba986b9dee71eH
	DQ	b5478c877af56ce9H
	DQ	b8fe42885f61d6fdH
	DQ	1bdd0156966238c8H
	DQ	622157923ef8a92eH
	DQ	fc97ff42114476f8H
	DQ	9d7d350856452cebH
	DQ	4c90c9b0e0a71256H
	DQ	2308502dfbcb016cH
	DQ	2d7a03faa7a64845H
	DQ	f46e8b38bfc6c4abH
	DQ	bdbef8fdd477debaH
	DQ	3aac4cebc8079b79H
	DQ	f09cb105e8879d0cH
	DQ	27fa6a10ac8a58cbH
	DQ	8960e7c1401d0ceaH
	DQ	1a6f811e4a356928H
	DQ	90c4fb0773d196ffH
	DQ	43501a2f609d0a9fH
	DQ	f7a516e0c63f3796H
	DQ	1ce4a6b3b8da9252H
	DQ	1324752c38e08a9bH
	DQ	a5a864733bec154fH
	DQ	2bf124575549b33fH
	DQ	d766db15440dc5c7H
	DQ	a7d179e39e42b792H
	DQ	dadf151a61997fd3H
	DQ	86a0345ec0271423H
	DQ	38d5517b6da939a4H
	DQ	6518f077104003b4H
	DQ	02791d90a5aea2ddH
	DQ	88d267899c4a5d0aH
	DQ	930f66df0a2865c2H
	DQ	4ee9d4204509b08bH
	DQ	325538916685292aH
	DQ	412907bfc533a842H
	DQ	b27e2b62544dc673H
	DQ	6c5304456295e007H
	DQ	5af406e95351908aH
	DQ	1f2f3b6bc123616fH
	DQ	c37b09dc5255e5c6H
	DQ	3967d133b1fe6844H
	DQ	298839c7f0e711e2H
	DQ	409b87f71964f9a2H
	DQ	e938adc3db4b0719H
	DQ	0c0b4e47f9c3ebf4H
	DQ	5534d576d36b8843H
	DQ	4610a05aeb8b02d8H
	DQ	20c3cdf58232f251H
	DQ	6de1840dbec2b1e7H
	DQ	a0e8de06b0fa1d08H
	DQ	7b854b540d34333bH
	DQ	42e29a67bcca5b7fH
	DQ	d8a6088ac437dd0eH
	DQ	c63bb3a9d943ed81H
	DQ	21714dbd5e65a3b1H
	DQ	6761ede7b5eea169H
	DQ	2431f7c8d573abf6H
	DQ	d51fc685e1a3671aH
	DQ	5e063cd40410c92dH
	DQ	283ab98f2cb04002H
	DQ	8febc06cb2f2f790H
	DQ	17d64f116fa1d33cH
	DQ	e07359f1a99ee4aaH
	DQ	784ed68c74cdc006H
	DQ	6e2a19d5c73b42daH
	DQ	8712b4161c7045c3H
	DQ	371582e4ed93216dH
	DQ	ace390414939f6fcH
	DQ	7ec5f12186223b7cH
	DQ	c0b094042bac16fbH
	DQ	f9d745379a527ebfH
	DQ	737c3f2ea3b68168H
	DQ	33e7b8d9bad278caH
	DQ	a9a32a34c22ffebbH
	DQ	e48163ccfedfbd0dH
	DQ	8e5940246ea5a670H
	DQ	51c6ef4b842ad1e4H
	DQ	22bad065279c508cH
	DQ	d91488c218608ceeH
	DQ	319ea5491f7cda17H
	DQ	d394e128134c9c60H
	DQ	094bf43272d5e3b3H
	DQ	9bf612a5a4aad791H
	DQ	ccbbda43d26ffd0fH
	DQ	34de1f3c946ad250H
	DQ	4f5b5468995ee16bH
	DQ	df9faf6fea8f7794H
	DQ	2648ea5870dd092bH
	DQ	bfc7e56d71d97c67H
	DQ	dde6b2ff4f21d549H
	DQ	3c276b463ae86003H
	DQ	91767b4faf86c71fH
	DQ	68a13e7835d4b9a0H
	DQ	b68c115f030c9fd4H
	DQ	141dd2c916582001H
	DQ	983d8f7ddd5324acH
	DQ	64aa703fcc175254H
	DQ	c2c989948e02b426H
	DQ	3e5e76d69f46c2deH
	DQ	50746f03587d8004H
	DQ	45db3d829272f1e5H
	DQ	60584a029b560bf3H
	DQ	fbae58a73ffcdc62H
	DQ	a15a5e4e6cad4ce8H
	DQ	4ba96e55ce1fb8ccH
	DQ	08f9747aae82b253H
	DQ	c102144cf7fb471bH
	DQ	9f042898f3eb8e36H
	DQ	068b27adf2effb7aH
	DQ	edca97fe8c0a5ebeH
	DQ	778e0513f4f7d8cfH
	DQ	302c2501c32b8bf7H
	DQ	8d92ddfc175c554dH
	DQ	f865c57f46052f5fH
	DQ	eaf3301ba2b2f424H
	DQ	aa68b7ecbbd60d86H
	DQ	998f0f350104754cH
	DQ	0000000000000000H
	DQ	f12e314d34d0ccecH
	DQ	710522be061823b5H
	DQ	af280d9930c005c1H
	DQ	97fd5ce25d693c65H
	DQ	19a41cc633cc9a15H
	DQ	95844172f8c79eb8H
	DQ	dc5432b7937684a9H
	DQ	9436c13a2490cf58H
	DQ	802b13f332c8ef59H
	DQ	c442ae397ced4f5cH
	DQ	fa1cd8efe3ab8d82H
	DQ	f2e5ac954d293fd1H
	DQ	6ad823e8907a1b7dH
	DQ	4d2249f83cf043b6H
	DQ	03cb9dd879f9f33dH
	DQ	de2d2f2736d82674H
	DQ	2a43a41f891ee2dfH
	DQ	6f98999d1b6c133aH
	DQ	d4ad46cd3df436faH
	DQ	bb35df50269825c0H
	DQ	964fdcaa813e6d85H
	DQ	eb41b0537ee5a5c4H
	DQ	0540ba758b160847H
	DQ	a41ae43be7bb44afH
	DQ	e3b8c429d0671797H
	DQ	819993bbee9fbeb9H
	DQ	ae9a8dd1ec975421H
	DQ	f3572cdd917e6e31H
	DQ	6393d7dae2aff8ceH
	DQ	47a2201237dc5338H
	DQ	a32343dec903ee35H
	DQ	79fc56c4a89a91e6H
	DQ	01b28048dc5751e0H
	DQ	1296f564e4b7db7bH
	DQ	75f7188351597a12H
	DQ	db6d9552bdce2e33H
	DQ	1e9dbb231d74308fH
	DQ	520d7293fdd322d9H
	DQ	e20a44610c304677H
	DQ	feeee2d2b4ead425H
	DQ	ca30fdee20800675H
	DQ	61eaca4a47015a13H
	DQ	e74afe1487264e30H
	DQ	2cc883b27bf119a5H
	DQ	1664cf59b3f682dcH
	DQ	a811aa7c1e78af5bH
	DQ	1d5626fb648dc3b2H
	DQ	b73e9117df5bce34H
	DQ	d05f7cf06ab56f5dH
	DQ	fd257f0acd132718H
	DQ	574dc8e676c52a9eH
	DQ	0739a7e52eb8aa9aH
	DQ	5486553e0f3cd9a3H
	DQ	56ff48aeaa927b7eH
	DQ	be756525ad8e2d87H
	DQ	7d0e6cf9ffdbc841H
	DQ	3b1ecca31450ca99H
	DQ	6913be30e983e840H
	DQ	ad511009956ea71cH
	DQ	b1b5b6ba2db4354eH
	DQ	4469bdca4e25a005H
	DQ	15af5281ca0f71e1H
	DQ	744598cb8d0e2bf2H
	DQ	593f9b312aa863b7H
	DQ	efb38a6e29a4fc63H
	DQ	6b6aa3a04c2d4a9dH
	DQ	3d95eb0ee6bf31e3H
	DQ	a291c3961554bfd5H
	DQ	18169c8eef9bcbf5H
	DQ	115d68bc9d4e2846H
	DQ	ba875f18facf7420H
	DQ	d1edfcb8b6e23ebdH
	DQ	b00736f2f1e364aeH
	DQ	84d929ce6589b6feH
	DQ	70b7a2f6da4f7255H
	DQ	0e7253d75c6d4929H
	DQ	04f23a3d574159a7H
	DQ	0a8069ea0b2c108eH
	DQ	49d073c56bb11a11H
	DQ	8aab7a1939e4ffd7H
	DQ	cd095a0b0e38acefH
	DQ	c9fb60365979f548H
	DQ	92bde697d67f3422H
	DQ	c78933e10514bc61H
	DQ	e1c1d9b975c9b54aH
	DQ	d2266160cf1bcd80H
	DQ	9a4492ed78fd8671H
	DQ	b3ccab2a881a9793H
	DQ	72cebf667fe1d088H
	DQ	d6d45b5d985a9427H
	DQ	c811a8058c3f55deH
	DQ	65f5b43196b50619H
	DQ	f74f96b1d6706e43H
	DQ	859d1e8bcb43d336H
	DQ	5aab8a85ccfa3d84H
	DQ	f9c7bf99c295fcfdH
	DQ	a21fd5a1de4b630fH
	DQ	cdb3ef763b8b456dH
	DQ	803f59f87cf7c385H
	DQ	b27c73be5f31913cH
	DQ	98e3ac6633b04821H
	DQ	bf61674c26b8f818H
	DQ	0ffbc995c4c130c8H
	DQ	aaa0862010761a98H
	DQ	6057f342210116aaH
	DQ	f63c760c0654cc35H
	DQ	2ddb45cc667d9042H
	DQ	bcf45a964bd40382H
	DQ	68e8a0c3ef3c6f3dH
	DQ	a7bd92d269ff73bcH
	DQ	290ae20201ed2287H
	DQ	b7de34cde885818fH
	DQ	d901eea7dd61059bH
	DQ	d6fa273219a03553H
	DQ	d56f1ae874cccec9H
	DQ	ea31245c2e83f554H
	DQ	7034555da07be499H
	DQ	ce26d2ac56e7bef7H
	DQ	fd161857a5054e38H
	DQ	6a0e7da4527436d1H
	DQ	5bd86a381cde9ff2H
	DQ	caf7756231770c32H
	DQ	b09aaed9e279c8d0H
	DQ	5def1091c60674dbH
	DQ	111046a2515e5045H
	DQ	23536ce4729802fcH
	DQ	c50cbcf7f5b63cfaH
	DQ	73a16887cd171f03H
	DQ	7d2941afd9f28dbdH
	DQ	3f5e3eb45a4f3b9dH
	DQ	84eefe361b677140H
	DQ	3db8e3d3e7076271H
	DQ	1a3a28f9f20fd248H
	DQ	7ebc7c75b49e7627H
	DQ	74e5f293c7eb565cH
	DQ	18dcf59e4f478ba4H
	DQ	0c6ef44fa9adcb52H
	DQ	c699812d98dac760H
	DQ	788b06dc6e469d0eH
	DQ	fc65f8ea7521ec4eH
	DQ	30a5f7219e8e0b55H
	DQ	2bec3f65bca57b6bH
	DQ	ddd04969baf1b75eH
	DQ	99904cdbe394ea57H
	DQ	14b201d1e6ea40f6H
	DQ	bbb0c08241284addH
	DQ	50f20463bf8f1dffH
	DQ	e8d7f93b93cbacb8H
	DQ	4d8cb68e477c86e8H
	DQ	c1dd1b3992268e3fH
	DQ	7c5aa11209d62fcbH
	DQ	2f3d98abdb35c9aeH
	DQ	671369562bfd5ff5H
	DQ	15c1e16c36cee280H
	DQ	1d7eb2edf8f39b17H
	DQ	da94d37db00dfe01H
	DQ	877bc3ec760b8adaH
	DQ	cb8495dfe153ae44H
	DQ	05a24773b7b410b3H
	DQ	12857b783c32abdfH
	DQ	8eb770d06812513bH
	DQ	536739b9d2e3e665H
	DQ	584d57e271b26468H
	DQ	d789c78fc9849725H
	DQ	a935bbfa7d1ae102H
	DQ	8b1537a3dfa64188H
	DQ	d0cd5d9bc378de7aH
	DQ	4ac82c9a4d80cfb7H
	DQ	42777f1b83bdb620H
	DQ	72d2883a1d33bd75H
	DQ	5e7a2d4bab6a8f41H
	DQ	f4daab6bbb1c95d9H
	DQ	905cffe7fd8d31b6H
	DQ	83aa6422119b381fH
	DQ	c0aefb8442022c49H
	DQ	a0f908c663033ae3H
	DQ	a428af0804938826H
	DQ	ade41c341a8a53c7H
	DQ	ae7121ee77e6a85dH
	DQ	c47f5c4a25929e8cH
	DQ	b538e9aa55cdd863H
	DQ	06377aa9dad8eb29H
	DQ	a18ae87bb3279895H
	DQ	6edfda6a35e48414H
	DQ	6b7d9d19825094a7H
	DQ	d41cfa55a4e86cbfH
	DQ	e5caedc9ea42c59cH
	DQ	a36c351c0e6fc179H
	DQ	5181e4de6fabbf89H
	DQ	fff0c530184d17d4H
	DQ	9d41eb1584045892H
	DQ	1c0d525028d73961H
	DQ	f178ec180ca8856aH
	DQ	9a0571018ef811cdH
	DQ	4091a27c3ef5efccH
	DQ	19af15239f6329d2H
	DQ	347450eff91eb990H
	DQ	e11b4a078dd27759H
	DQ	b9561de5fc601331H
	DQ	912f1f5a2da993c0H
	DQ	1654dcb65ba2191aH
	DQ	3e2dde098a6b99ebH
	DQ	8a66d71e0f82e3feH
	DQ	8c51adb7d55a08d7H
	DQ	4533e50f8941ff7fH
	DQ	02e6dd67bd4859ecH
	DQ	e068aaba5df6d52fH
	DQ	c24826e3ff4a75a5H
	DQ	6c39070d88acddf8H
	DQ	6486548c4691a46fH
	DQ	d1bebd26135c7c0cH
	DQ	b30f93038f15334aH
	DQ	82d9849fc1bf9a69H
	DQ	9c320ba85420fae4H
	DQ	fa528243aff90767H
	DQ	9ed4d6cfe968a308H
	DQ	b825fd582c44b147H
	DQ	9b7691bc5edcb3bbH
	DQ	c7ea619048fe6516H
	DQ	1063a61f817af233H
	DQ	47d538683409a693H
	DQ	63c2ce984c6ded30H
	DQ	2a9fdfd86c81d91dH
	DQ	7b1e3b06032a6694H
	DQ	666089ebfbd9fd83H
	DQ	0a598ee67375207bH
	DQ	07449a140afc495fH
	DQ	2ca8a571b6593234H
	DQ	1f986f8a45bbc2fbH
	DQ	381aa4a050b372c2H
	DQ	5423a3add81faf3aH
	DQ	17273c0b8b86bb6cH
	DQ	fe83258dc869b5a2H
	DQ	287902bfd1c980f1H
	DQ	f5a94bd66b3837afH
	DQ	88800a79b2caba12H
	DQ	55504310083b0d4cH
	DQ	df36940e07b9eeb2H
	DQ	04d1a7ce6790b2c5H
	DQ	612413fff125b4dcH
	DQ	26f12b97c52c124fH
	DQ	86082351a62f28acH
	DQ	ef93632f9937e5e7H
	DQ	3507b052293a1be6H
	DQ	e72c30ae570a9c70H
	DQ	d3586041ae1425e0H
	DQ	de4574b3d79d4cc4H
	DQ	92ba228040c5685aH
	DQ	f00b0ca5dc8c271cH
	DQ	be1287f1f69c5a6eH
	DQ	f39e317fb1e0dc86H
	DQ	495d114020ec342dH
	DQ	699b407e3f18cd4bH
	DQ	dca3a9d46ad51528H
	DQ	0d1d14f279896924H
	DQ	0000000000000000H
	DQ	593eb75fa196c61eH
	DQ	2e4e78160b116bd8H
	DQ	6d4ae7b058887f8eH
	DQ	e65fd013872e3e06H
	DQ	7a6ddbbbd30ec4e2H
	DQ	ac97fc89caaef1b1H
	DQ	09ccb33c1e19dbe1H
	DQ	89f3eac462ee1864H
	DQ	7770cf49aa87adc6H
	DQ	56c57eca6557f6d6H
	DQ	03953dda6d6cfb9aH
	DQ	36928d884456e07cH
	DQ	1eeb8f37959f608dH
	DQ	31d6179c4eaaa923H
	DQ	6fac3ad7e5c02662H
	DQ	43049fa653991456H
	DQ	abd3669dc052b8eeH
	DQ	af02c153a7c20a2bH
	DQ	3ccb036e3723c007H
	DQ	93c9c23d90e1ca2cH
	DQ	c33bc65e2f6ed7d3H
	DQ	4cff56339758249eH
	DQ	b1e94e64325d6aa6H
	DQ	37e16d359472420aH
	DQ	79f8e661be623f78H
	DQ	5214d90402c74413H
	DQ	482ef1fdf0c8965bH
	DQ	13f69bc5ec1609a9H
	DQ	0e88292814e592beH
	DQ	4e198b542a107d72H
	DQ	ccc00fcbebafe71bH
	DQ	1b49c844222b703eH
	DQ	2564164da840e9d5H
	DQ	20c6513e1ff4f966H
	DQ	bac3203f910ce8abH
	DQ	f2edd1c261c47ef0H
	DQ	814cb945acd361f3H
	DQ	95feb8944a392105H
	DQ	5c9cf02c1622d6adH
	DQ	971865f3f77178e9H
	DQ	bd87ba2b9bf0a1f4H
	DQ	444005b259655d09H
	DQ	ed75be48247fbc0bH
	DQ	7596122e17cff42aH
	DQ	b44b091785e97a15H
	DQ	966b854e2755da9fH
	DQ	eee0839249134791H
	DQ	32432a4623c652b9H
	DQ	a8465b47ad3e4374H
	DQ	f8b45f2412b15e8bH
	DQ	2417f6f078644ba3H
	DQ	fb2162fe7fdda511H
	DQ	4bbbcc279da46dc1H
	DQ	0173e0bdd024a276H
	DQ	22208c59a2bca08aH
	DQ	8fc4906db836f34dH
	DQ	e4b90d743a6667eaH
	DQ	7147b5e0705f46efH
	DQ	2782cb2a1508b039H
	DQ	ec065ef5f45b1e7dH
	DQ	21b5b183cfd05b10H
	DQ	dbe733c060295c77H
	DQ	9fa73672394c017eH
	DQ	cf55321186c31c81H
	DQ	d8720e1a0d45a7edH
	DQ	3b8f997a3ddf8958H
	DQ	3afc79c7edfb2b2eH
	DQ	e9a4198643ef0eceH
	DQ	5f09cdf67b4e2d37H
	DQ	4f6a6be9fa34df04H
	DQ	b6add47038a123f9H
	DQ	8d224d0a057eaaa1H
	DQ	c96248b85c1bf7a8H
	DQ	e3fd9760309a2eb5H
	DQ	0b2a6e5ba351820dH
	DQ	eb42c4e1fea75722H
	DQ	948d58299a1d8373H
	DQ	7fcf9cc864bad451H
	DQ	a55b4fb5d4b72a50H
	DQ	08bf5381ce3d7997H
	DQ	46a6d8d5e42d04e5H
	DQ	d22b80fc7e308796H
	DQ	57b69e77b57354a0H
	DQ	3969441d8097d0b4H
	DQ	3330cafbf3e2f0cfH
	DQ	e28e77dde0be8cc3H
	DQ	62b12e259c494f46H
	DQ	a6ce726fb9dbd1caH
	DQ	41e242c1eed14dbaH
	DQ	76032ff47aa30fb0H
	DQ	45b268a93acde4ccH
	DQ	af7f0be884549d08H
	DQ	048354b3c1468263H
	DQ	925435c2c80efed2H
	DQ	ee4e37f27fdffba7H
	DQ	167a33920c60f14dH
	DQ	fb123b52ea03e584H
	DQ	4a0cab53fdbb9007H
	DQ	9deaf6380f788a19H
	DQ	cb48ec558f0cb32aH
	DQ	b59dc4b2d6fef7e0H
	DQ	dcdbca22f4f3ecb6H
	DQ	11df5813549a9c40H
	DQ	e33fdedf568aced3H
	DQ	a0c1c8124322e9c3H
	DQ	07a56b8158fa6d0dH
	DQ	77279579b1e1f3ddH
	DQ	d9b18b74422ac004H
	DQ	b8ec2d9fffabc294H
	DQ	f4acf8a82d75914fH
	DQ	7bbf69b1ef2b6878H
	DQ	c4f62faf487ac7e1H
	DQ	76ce809cc67e5d0cH
	DQ	6711d88f92e4c14cH
	DQ	627b99d9243dedfeH
	DQ	234aa5c3dfb68b51H
	DQ	909b1f15262dbf6dH
	DQ	4f66ea054b62bcb5H
	DQ	1ae2cf5a52aa6ae8H
	DQ	bea053fbd0ce0148H
	DQ	ed6808c0e66314c9H
	DQ	43fe16cd15a82710H
	DQ	cd049231a06970f6H
	DQ	e7bc8a6c97cc4cb0H
	DQ	337ce835fcb3b9c0H
	DQ	65def2587cc780f3H
	DQ	52214ede4132bb50H
	DQ	95f15e4390f493dfH
	DQ	870839625dd2e0f1H
	DQ	41313c1afb8b66afH
	DQ	91720af051b211bcH
	DQ	477d427ed4eea573H
	DQ	2e3b4ceef6e3be25H
	DQ	82627834eb0bcc43H
	DQ	9c03e3dd78e724c8H
	DQ	2877328ad9867df9H
	DQ	14b51945e243b0f2H
	DQ	574b0f88f7eb97e2H
	DQ	88b6fa989aa4943aH
	DQ	19c4f068cb168586H
	DQ	50ee6409af11faefH
	DQ	7df317d5c04eaba4H
	DQ	7a567c5498b4c6a9H
	DQ	b6bbfb804f42188eH
	DQ	3cc22bcf3bc5cd0bH
	DQ	d04336eaaa397713H
	DQ	f02fac1bec33132cH
	DQ	2506dba7f0d3488dH
	DQ	d7e65d6bf2c31a1eH
	DQ	5eb9b2161ff820f5H
	DQ	842e0650c46e0f9fH
	DQ	716beb1d9e843001H
	DQ	a933758cab315ed4H
	DQ	3fe414fda2792265H
	DQ	27c9f1701ef00932H
	DQ	73a4c1ca70a771beH
	DQ	94184ba6e76b3d0eH
	DQ	40d829ff8c14c87eH
	DQ	0fbec3fac77674cbH
	DQ	3616a9634a6a9572H
	DQ	8f139119c25ef937H
	DQ	f545ed4d5aea3f9eH
	DQ	e802499650ba387bH
	DQ	6437e7bd0b582e22H
	DQ	e6559f89e053e261H
	DQ	80ad52e305288dfcH
	DQ	6dc55a23e34b9935H
	DQ	de14e0f51ad0ad09H
	DQ	c6390578a659865eH
	DQ	96d7617109487cb1H
	DQ	e2d6cb3a21156002H
	DQ	01e915e5779faed1H
	DQ	adb0213f6a77dcb7H
	DQ	9880b76eb9a1a6abH
	DQ	5d9f8d248644cf9bH
	DQ	fd5e4536c5662658H
	DQ	f1c6b9fe9bacbdfdH
	DQ	eacd6341be9979c4H
	DQ	efa7221708405576H
	DQ	510771ecd88e543eH
	DQ	c2ba51cb671f043dH
	DQ	0ad482ac71af5879H
	DQ	fe787a045cdac936H
	DQ	b238af338e049aedH
	DQ	bd866cc94972ee26H
	DQ	615da6ebbd810290H
	DQ	3295fdd08b2c1711H
	DQ	f834046073bf0aeaH
	DQ	f3099329758ffc42H
	DQ	1caeb13e7dcfa934H
	DQ	ba2307481188832bH
	DQ	24efce42874ce65cH
	DQ	0e57d61fb0e9da1aH
	DQ	b3d1bad6f99b343cH
	DQ	c0757b1c893c4582H
	DQ	2b510db8403a9297H
	DQ	5c7698c1f1db614aH
	DQ	3e0d0118d5e68cb4H
	DQ	d60f488e855cb4cfH
	DQ	ae961e0df3cb33d9H
	DQ	3a8e55ab14a00ed7H
	DQ	42170328623789c1H
	DQ	838b6dd19c946292H
	DQ	895fef7ded3b3aebH
	DQ	cfcbb8e64e4a3149H
	DQ	064c7e642f65c3dcH
	DQ	3d2b3e2a4c5a63daH
	DQ	5bd3f340a9210c47H
	DQ	b474d157a1615931H
	DQ	ac5934da1de87266H
	DQ	6ee365117af7765bH
	DQ	c86ed36716b05c44H
	DQ	9ba6885c201d49c5H
	DQ	b905387a88346c45H
	DQ	131072c4bab9ddffH
	DQ	bf49461ea751af99H
	DQ	d52977bc1ce05ba1H
	DQ	b0f785e46027db52H
	DQ	546d30ba6e57788cH
	DQ	305ad707650f56aeH
	DQ	c987c682612ff295H
	DQ	a5ab8944f5fbc571H
	DQ	7ed528e759f244caH
	DQ	8ddcbbce2c7db888H
	DQ	aa154abe328db1baH
	DQ	1e619be993ece88bH
	DQ	09f2bd9ee813b717H
	DQ	7401aa4b285d1cb3H
	DQ	21858f143195caeeH
	DQ	48c381841398d1b8H
	DQ	fcb750d3b2f98889H
	DQ	39a86a998d1ce1b9H
	DQ	1f888e0ce473465aH
	DQ	7899568376978716H
	DQ	02cf2ad7ee2341bfH
	DQ	85c713b5b3f1a14eH
	DQ	ff916fe12b4567e7H
	DQ	7c1a0230b7d10575H
	DQ	0c98fcc85eca9ba5H
	DQ	a3e7f720da9e06adH
	DQ	6a6031a2bbb1f438H
	DQ	973e74947ed7d260H
	DQ	2cf4663918c0ff9aH
	DQ	5f50a7f368678e24H
	DQ	34d983b4a449d4cdH
	DQ	68af1b755592b587H
	DQ	7f3c3d022e6dea1bH
	DQ	abfc5f5b45121f6bH
	DQ	0d71e92d29553574H
	DQ	dffdf5106d4f03d8H
	DQ	081ba87b9f8c19c6H
	DQ	db7ea1a3ac0981bbH
	DQ	bbca12ad66172dfaH
	DQ	79704366010829c7H
	DQ	179326777bff5f9cH
	DQ	0000000000000000H
	DQ	eb2476a4c906d715H
	DQ	724dd42f0738df6fH
	DQ	b752ee6538ddb65fH
	DQ	37ffbc863df53ba3H
	DQ	8efa84fcb5c157e6H
	DQ	e9eb5c73272596aaH
	DQ	1b0bdabf2535c439H
	DQ	86e12c872a4d4e20H
	DQ	9969a28bce3e087aH
	DQ	fafb2eb79d9c4b55H
	DQ	056a4156b6d92cb2H
	DQ	5a3ae6a5debea296H
	DQ	22a3b026a8292580H
	DQ	53c85b3b36ad1581H
	DQ	b11e900117b87583H
	DQ	c51f3a4a3fe56930H
	DQ	e019e1edcf3621bdH
	DQ	ec811d2591fcba18H
	DQ	445b7d4c4d524a1dH
	DQ	a8da6069dcaef005H
	DQ	58f5cc72309de329H
	DQ	d4c062596b7ff570H
	DQ	ce22ad0339d59f98H
	DQ	591cd99747024df8H
	DQ	8b90c5aa03187b54H
	DQ	f663d27fc356d0f0H
	DQ	d8589e9135b56ed5H
	DQ	35309651d3d67a1cH
	DQ	12f96721cd26732eH
	DQ	d28c1c3d441a36acH
	DQ	492a946164077f69H
	DQ	2d1d73dc6f5f514bH
	DQ	6f0a70f40d68d88aH
	DQ	60b4b30eca1eac41H
	DQ	d36509d83385987dH
	DQ	0b3d97490630f6a8H
	DQ	9eccc90a96c46577H
	DQ	a20ee2c5ad01a87cH
	DQ	e49ab55e0e70a3deH
	DQ	a4429ca182646ba0H
	DQ	da97b446db962f6aH
	DQ	cced87d4d7f6de27H
	DQ	2ab8185d37a53c46H
	DQ	9f25dcefe15bcba6H
	DQ	c19c6ef9fea3eb53H
	DQ	a764a3931bd884ceH
	DQ	2fd2590b817c10f4H
	DQ	56a21a6d80743933H
	DQ	e573a0bb79ef0d0fH
	DQ	155c0ca095dc1e23H
	DQ	6c2c4fc694d437e4H
	DQ	10364df623053291H
	DQ	dd32dfc7836c4267H
	DQ	03263f3299bcef6eH
	DQ	66f8cd6ae57b6f9dH
	DQ	8c35ae2b5be21659H
	DQ	31b3c2e21290f87fH
	DQ	93bd2027bf915003H
	DQ	69460e90220d1b56H
	DQ	299e276fae19d328H
	DQ	63928c3c53a2432fH
	DQ	7082fef8e91b9ed0H
	DQ	bc6f792c3eed40f7H
	DQ	4c40d537d2de53dbH
	DQ	75e8bfae5fc2b262H
	DQ	4da9c0d2a541fd0aH
	DQ	4e8fffe03cfd1264H
	DQ	2620e495696fa7e3H
	DQ	e1f0f408b8a98f6cH
	DQ	d1aa230fdda6d9c2H
	DQ	c7d0109dd1c6288fH
	DQ	8a79d04f7487d585H
	DQ	4694579ba3710ba2H
	DQ	38417f7cfa834f68H
	DQ	1d47a4db0a5007e5H
	DQ	206c9af1460a643fH
	DQ	a128ddf734bd4712H
	DQ	8144470672b7232dH
	DQ	f2e086cc02105293H
	DQ	182de58dbc892b57H
	DQ	caa1f9b0f8931dfbH
	DQ	6b892447cc2e5ae9H
	DQ	f9dd11850420a43bH
	DQ	4be5beb68a243ed6H
	DQ	5584255f19c8d65dH
	DQ	3b67404e633fa006H
	DQ	a68db6766c472a1fH
	DQ	f78ac79ab4c97e21H
	DQ	c353442e1080aaecH
	DQ	9a4f9db95782e714H
	DQ	05ba7bc82c9b3220H
	DQ	31a54665f8b65e4fH
	DQ	b1b651f77547f4d4H
	DQ	8bfa0d857ba46682H
	DQ	85a96c5aa16a98bbH
	DQ	990faef908eb79c9H
	DQ	a15e37a247f4a62dH
	DQ	76857dcd5d27741eH
	DQ	f8c50b800a1820bcH
	DQ	be65dcb201f7a2b4H
	DQ	666d1b986f9426e7H
	DQ	4cc921bf53c4e648H
	DQ	95410a0f93d9ca42H
	DQ	20cdccaa647ba4efH
	DQ	429a4060890a1871H
	DQ	0c4ea4f69b32b38bH
	DQ	ccda362dde354cd3H
	DQ	96dc23bc7c5b2fa9H
	DQ	c309bb68aa851ab3H
	DQ	d26131a73648e013H
	DQ	021dc52941fc4db2H
	DQ	cd5adab7704be48aH
	DQ	a77965d984ed71e6H
	DQ	32386fd61734bba4H
	DQ	e82d6dd538ab7245H
	DQ	5c2147ea6177b4b1H
	DQ	5da1ab70cf091ce8H
	DQ	ac907fce72b8bdffH
	DQ	57c85dfd972278a8H
	DQ	a4e44c6a6b6f940dH
	DQ	3851995b4f1fdfe4H
	DQ	62578ccaed71bc9eH
	DQ	d9882bb0c01d2c0aH
	DQ	917b9d5d113c503bH
	DQ	a2c31e11a87643c6H
	DQ	e463c923a399c1ceH
	DQ	f71686c57ea876dcH
	DQ	87b4a973e096d509H
	DQ	af0d567d9d3a5814H
	DQ	b40c2a3f59dcc6f4H
	DQ	3602f88495d121ddH
	DQ	d3e1dd3d9836484aH
	DQ	f945e71aa46688e5H
	DQ	7518547eb2a591f5H
	DQ	9366587450c01d89H
	DQ	9ea81018658c065bH
	DQ	4f54080cbc4603a3H
	DQ	2d0384c65137bf3dH
	DQ	dc325078ec861e2aH
	DQ	ea30a8fc79573ff7H
	DQ	214d2030ca050cb6H
	DQ	65f0322b8016c30cH
	DQ	69be96dd1b247087H
	DQ	db95ee9981e161b8H
	DQ	d1fc1814d9ca05f8H
	DQ	820ed2bbcc0de729H
	DQ	63d76050430f14c7H
	DQ	3bccb0e8a09d3a0fH
	DQ	8e40764d573f54a2H
	DQ	39d175c1e16177bdH
	DQ	12f5a37c734f1f4bH
	DQ	ab37c12f1fdfc26dH
	DQ	5648b167395cd0f1H
	DQ	6c04ed1537bf42a7H
	DQ	ed97161d14304065H
	DQ	7d6c67daab72b807H
	DQ	ec17fa87ba4ee83cH
	DQ	dfaf79cb0304fbc1H
	DQ	733f060571bc463eH
	DQ	78d61c1287e98a27H
	DQ	d07cf48e77b4ada1H
	DQ	b9c262536c90dd26H
	DQ	e2449b5860801605H
	DQ	8fc09ad7f941fcfbH
	DQ	fad8cea94be46d0eH
	DQ	a343f28b0608eb9fH
	DQ	9b126bd04917347bH
	DQ	9a92874ae7699c22H
	DQ	1b017c42c4e69ee0H
	DQ	3a4c5c720ee39256H
	DQ	4b6e9f5e3ea399daH
	DQ	6ba353f45ad83d35H
	DQ	e7fee0904c1b2425H
	DQ	22d009832587e95dH
	DQ	842980c00f1430e2H
	DQ	c6b3c0a0861e2893H
	DQ	087433a419d729f2H
	DQ	341f3dadd42d6c6fH
	DQ	ee0a3faefbb2a58eH
	DQ	4aee73c490dd3183H
	DQ	aab72db5b1a16a34H
	DQ	a92a04065e238fdfH
	DQ	7b4b35a1686b6fccH
	DQ	6a23bf6ef4a6956cH
	DQ	191cb96b851ad352H
	DQ	55d598d4d6de351aH
	DQ	c9604de5f2ae7ef3H
	DQ	1ca6c2a3a981e172H
	DQ	de2f9551ad7a5398H
	DQ	3025aaff56c8f616H
	DQ	15521d9d1e2860d9H
	DQ	506fe31cfa45073aH
	DQ	189c55f12b647b0bH
	DQ	0180ec9aae7ea859H
	DQ	7cec8b40050c105eH
	DQ	2350e5198bf94104H
	DQ	ef8ad33455cc0dd7H
	DQ	07a7bee16d677f92H
	DQ	e5e325b90de76997H
	DQ	5a061591a26e637aH
	DQ	b611ef1618208b46H
	DQ	09f4df3eb7a981abH
	DQ	1ebb078ae87dacc0H
	DQ	b791038cb65e231fH
	DQ	0fd38d4574b05660H
	DQ	67edf702c1ea8ebeH
	DQ	ba5f4be0831238cdH
	DQ	e3c477c2cefebe5cH
	DQ	0dce486c354c1bd2H
	DQ	8c5db36416c31910H
	DQ	26ea9ed1a7627324H
	DQ	039d29b3ef82e5ebH
	DQ	9f28fc82cbf2ae02H
	DQ	a8aae89cf05d2786H
	DQ	431aacfa2774b028H
	DQ	cf471f9e31b7a938H
	DQ	581bd0b8e3922ec8H
	DQ	bc78199b400bef06H
	DQ	90fb71c7bf42f862H
	DQ	1f3beb1046030499H
	DQ	683e7a47b55ad8deH
	DQ	988f4263a695d190H
	DQ	d808c72a6e638453H
	DQ	0627527bc319d7cbH
	DQ	ebb04466d72997aeH
	DQ	e67e0c0ae2658c7cH
	DQ	14d2f107b056c880H
	DQ	7122c32c30400b8cH
	DQ	8a7ae11fd5dacedbH
	DQ	a0dedb38e98a0e74H
	DQ	ad109354dcc615a6H
	DQ	0be91a17f655cc19H
	DQ	8ddd5ffeb8bdb149H
	DQ	bfe53028af890aedH
	DQ	d65ba6f5b4ad7a6aH
	DQ	7956f0882997227eH
	DQ	10e8665532b352f9H
	DQ	0e5361dfdacefe39H
	DQ	cec7f3049fc90161H
	DQ	ff62b561677f5f2eH
	DQ	975ccf26d22587f0H
	DQ	51ef0f86543baf63H
	DQ	2f1e41ef10cbf28fH
	DQ	52722635bbb94a88H
	DQ	ae8dbae73344f04dH
	DQ	410769d36688fd9aH
	DQ	b3ab94de34bbb966H
	DQ	801317928df1aa9bH
	DQ	a564a0f0c5113c54H
	DQ	f131d4bebdb1a117H
	DQ	7f71a2f3ea8ef5b5H
	DQ	40878549c8f655c3H
	DQ	7ef14e6944f05decH
	DQ	d44663dcf55137d8H
	DQ	f2acfd0d523344fcH
	DQ	0000000000000000H
	DQ	5fbc6e598ef5515aH
	DQ	16cf342ef1aa8532H
	DQ	b036bd6ddb395c8dH
	DQ	13754fe6dd31b712H
	DQ	bbdfa77a2d6c9094H
	DQ	89e7c8ac3a582b30H
	DQ	3c6b0e09cdfa459dH
	DQ	c4ae0589c7e26521H
	DQ	49735a777f5fd468H
	DQ	cafd64561d2c9b18H
	DQ	da1502032f9fc9e1H
	DQ	8867243694268369H
	DQ	3782141e3baf8984H
	DQ	9cb5d53124704be9H
	DQ	d7db4a6f1ad3d233H
	DQ	a6f989432a93d9bfH
	DQ	9d3539ab8a0ee3b0H
	DQ	53f2caaf15c7e2d1H
	DQ	6e19283c76430f15H
	DQ	3debe2936384edc4H
	DQ	5e3c82c3208bf903H
	DQ	33b8834cb94a13fdH
	DQ	6470deb12e686b55H
	DQ	359fd1377a53c436H
	DQ	61caa57902f35975H
	DQ	043a975282e59a79H
	DQ	fd7f70482683129cH
	DQ	c52ee913699ccd78H
	DQ	28b9ff0e7dac8d1dH
	DQ	5455744e78a09d43H
	DQ	cb7d88ccb3523341H
	DQ	44bd121b4a13cfbaH
	DQ	4d49cd25fdba4e11H
	DQ	3e76cb208c06082fH
	DQ	3ff627ba2278a076H
	DQ	c28957f204fbb2eaH
	DQ	453dfe81e46d67e3H
	DQ	94c1e6953da7621bH
	DQ	2c83685cff491764H
	DQ	f32c1197fc4deca5H
	DQ	2b24d6bd922e68f6H
	DQ	b22b78449ac5113fH
	DQ	48f3b6edd1217c31H
	DQ	2e9ead75beb55ad6H
	DQ	174fd8b45fd42d6bH
	DQ	4ed4e4961238abfaH
	DQ	92e6b4eefebeb5d0H
	DQ	46a0d7320bef8208H
	DQ	47203ba8a5912a51H
	DQ	24f75bf8e69e3e96H
	DQ	f0b1382413cf094eH
	DQ	fee259fbc901f777H
	DQ	276a724b091cdb7dH
	DQ	bdf8f501ee75475fH
	DQ	599b3c224dec8691H
	DQ	6d84018f99c1eafeH
	DQ	7498b8e41cdb39acH
	DQ	e0595e71217c5bb7H
	DQ	2aa43a273c50c0afH
	DQ	f50b43ec3f543b6eH
	DQ	838e3e2162734f70H
	DQ	c09492db4507ff58H
	DQ	72bfea9fdfc2ee67H
	DQ	11688acf9ccdfaa0H
	DQ	1a8190d86a9836b9H
	DQ	7acbd93bc615c795H
	DQ	c7332c3a286080caH
	DQ	863445e94ee87d50H
	DQ	f6966a5fd0d6de85H
	DQ	e9ad814f96d5da1cH
	DQ	70a22fb69e3ea3d5H
	DQ	0a69f68d582b6440H
	DQ	b8428ec9c2ee757fH
	DQ	604a49e3ac8df12cH
	DQ	5b86f90b0c10cb23H
	DQ	e1d9b2eb8f02f3eeH
	DQ	29391394d3d22544H
	DQ	c8e0a17f5cd0d6aaH
	DQ	b58cc6a5f7a26eadH
	DQ	8193fb08238f02c2H
	DQ	d5c68f465b2f9f81H
	DQ	fcff9cd288fdbac5H
	DQ	77059157f359dc47H
	DQ	1d262e3907ff492bH
	DQ	fb582233e59ac557H
	DQ	ddb2bce242f8b673H
	DQ	2577b76248e096cfH
	DQ	6f99c4a6d83da74cH
	DQ	c1147e41eb795701H
	DQ	f48baf76912a9337H
	DQ	3ef29d249b2c0a19H
	DQ	e9e16322b6f8622fH
	DQ	5536994047757f7aH
	DQ	9f4d56d5a47b0b33H
	DQ	822567466aa1174cH
	DQ	b8f5057deb082fb2H
	DQ	cc48c10bf4475f53H
	DQ	373088d4275dec3aH
	DQ	968f4325180aed10H
	DQ	173d232cf7016151H
	DQ	ae4ed09f946fcc13H
	DQ	fd4b4741c4539873H
	DQ	1b5b3f0dd9933765H
	DQ	2ffcb0967b644052H
	DQ	e02376d20a89840cH
	DQ	a3ae3a70329b18d7H
	DQ	419cbd2335de8526H
	DQ	fafebf115b7c3199H
	DQ	0397074f85aa9b0dH
	DQ	c58ad4fb4836b970H
	DQ	bec60be3fc4104a8H
	DQ	1eff36dc4b708772H
	DQ	131fdc33ed8453b6H
	DQ	0844e33e341764d3H
	DQ	0ff11b6eab38cd39H
	DQ	64351f0a7761b85aH
	DQ	3b5694f509cfba0eH
	DQ	30857084b87245d0H
	DQ	47afb3bd2297ae3cH
	DQ	f2ba5c2f6f6b554aH
	DQ	74bdc4761f4f70e1H
	DQ	cfdfc64471edc45eH
	DQ	e610784c1dc0af16H
	DQ	7aca29d63c113f28H
	DQ	2ded411776a859afH
	DQ	ac5f211e99a3d5eeH
	DQ	d484f949a87ef33bH
	DQ	3ce36ca596e013e4H
	DQ	d120f0983a9d432cH
	DQ	6bc40464dc597563H
	DQ	69d5f5e5d1956c9eH
	DQ	9ae95f043698bb24H
	DQ	c9ecc8da66a4ef44H
	DQ	d69508c8a5b2eac6H
	DQ	c40c2235c0503b80H
	DQ	38c193ba8c652103H
	DQ	1ceec75d46bc9e8fH
	DQ	d331011937515ad1H
	DQ	d8e2e56886eca50fH
	DQ	b137108d5779c991H
	DQ	709f3b6905ca4206H
	DQ	4feb50831680caefH
	DQ	ec456af3241bd238H
	DQ	58d673afe181abbeH
	DQ	242f54e7cad9bf8cH
	DQ	0211f1810dcc19fdH
	DQ	90bc4dbb0f43c60aH
	DQ	9518446a9da0761dH
	DQ	a1bfcbf13f57012aH
	DQ	2bde4f8961e172b5H
	DQ	27b853a84f732481H
	DQ	b0b1e643df1f4b61H
	DQ	18cc38425c39ac68H
	DQ	d2b7f7d7bf37d821H
	DQ	3103864a3014c720H
	DQ	14aa246372abfa5cH
	DQ	6e600db54ebac574H
	DQ	394765740403a3f3H
	DQ	09c215f0bc71e623H
	DQ	2a58b947e987f045H
	DQ	7b4cdf18b477bdd8H
	DQ	9709b5eb906c6fe0H
	DQ	73083c268060d90bH
	DQ	fedc400e41f9037eH
	DQ	284948c6e44be9b8H
	DQ	728ecae808065bfbH
	DQ	06330e9e17492b1aH
	DQ	5950856169e7294eH
	DQ	bae4f4fce6c4364fH
	DQ	ca7bcf95e30e7449H
	DQ	7d7fd186a33e96c2H
	DQ	52836110d85ad690H
	DQ	4dfaa1021b4cd312H
	DQ	913abb75872544faH
	DQ	dd46ecb9140f1518H
	DQ	3d659a6b1e869114H
	DQ	c23f2cabd719109aH
	DQ	d713fe062dd46836H
	DQ	d0a60656b2fbc1dcH
	DQ	221c5a79dd909496H
	DQ	efd26dbca1b14935H
	DQ	0e77eda0235e4fc9H
	DQ	cbfd395b6b68f6b9H
	DQ	0de0eaefa6f4d4c4H
	DQ	0422ff1f1a8532e7H
	DQ	f969b85eded6aa94H
	DQ	7f6e2007aef28f3fH
	DQ	3ad0623b81a938feH
	DQ	6624ee8b7aada1a7H
	DQ	b682e8ddc856607bH
	DQ	a78cc56f281e2a30H
	DQ	c79b257a45faa08dH
	DQ	5b4174e0642b30b3H
	DQ	5f638bff7eae0254H
	DQ	4bc9af9c0c05f808H
	DQ	ce59308af98b46aeH
	DQ	8fc58da9cc55c388H
	DQ	803496c7676d0eb1H
	DQ	f33caae1e70dd7baH
	DQ	bb6202326ea2b4bfH
	DQ	d5020f87201871cbH
	DQ	9d5ca754a9b712ceH
	DQ	841669d87de83c56H
	DQ	8a6184785eb6739fH
	DQ	420bba6cb0741e2bH
	DQ	f12d5b60eac1ce47H
	DQ	76ac35f71283691cH
	DQ	2c6bb7d9fecedb5fH
	DQ	fccdb18f4c351a83H
	DQ	1f79c012c3160582H
	DQ	f0abadae62a74cb7H
	DQ	e1a5801c82ef06fcH
	DQ	67a21845f2cb2357H
	DQ	5114665f5df04d9dH
	DQ	bf40fd2d74278658H
	DQ	a0393d3fb73183daH
	DQ	05a409d192e3b017H
	DQ	a9fb28cf0b4065f9H
	DQ	25a9a22942bf3d7cH
	DQ	db75e22703463e02H
	DQ	b326e10c5ab5d06cH
	DQ	e7968e8295a62de6H
	DQ	b973f3b3636ead42H
	DQ	df571d3819c30ce5H
	DQ	ee549b7229d7cbc5H
	DQ	12992afd65e2d146H
	DQ	f8ef4e9056b02864H
	DQ	b7041e134030e28bH
	DQ	c02edd2adad50967H
	DQ	932b4af48ae95d07H
	DQ	6fe6fb7bc6dc4784H
	DQ	239aacb755f61666H
	DQ	401a4bedbdb807d6H
	DQ	485ea8d389af6305H
	DQ	a41bc220adb4b13dH
	DQ	753b32b89729f211H
	DQ	997e584bb3322029H
	DQ	1d683193ceda1c7fH
	DQ	ff5ab6c0c99f818eH
	DQ	16bbd5e27f67e3a1H
	DQ	a59d34ee25d233cdH
	DQ	98f8ae853b54a2d9H
	DQ	6df70afacb105e79H
	DQ	795d2e99b9bba425H
	DQ	8e437b6744334178H
	DQ	0186f6ce886682f0H
	DQ	ebf092a3bb347bd2H
	DQ	bcd7fa62f18d1d55H
	DQ	add9d7d011c5571eH
	DQ	0bd3e471b1bdffdeH
	DQ	aa6c2f808eeafef4H
	DQ	5ee57d31f6c880a4H
	DQ	f50fa47ff044fca0H
	DQ	1addc9c351f5b595H
	DQ	ea76646d3352f922H
	DQ	0000000000000000H
	DQ	85909f16f58ebea6H
	DQ	46294573aaf12cccH
	DQ	0a5512bf39db7d2eH
	DQ	78dbd85731dd26d5H
	DQ	29cfbe086c2d6b48H
	DQ	218b5d36583a0f9bH
	DQ	152cd2adfacd78acH
	DQ	83a39188e2c795bcH
	DQ	c3b9da655f7f926aH
	DQ	9ecba01b2c1d89c3H
	DQ	07b5f8509f2fa9eaH
	DQ	7ee8d6c926940dcfH
	DQ	36b67e1aaf3b6ecaH
	DQ	86079859702425abH
	DQ	fb7849dfd31ab369H
	DQ	4c7c57cc932a51e2H
	DQ	d96413a60e8a27ffH
	DQ	263ea566c715a671H
	DQ	6c71fc344376dc89H
	DQ	4a4f595284637af8H
	DQ	daf314e98b20bcf2H
	DQ	572768c14ab96687H
	DQ	1088db7c682ec8bbH
	DQ	887075f9537a6a62H
	DQ	2e7a4658f302c2a2H
	DQ	619116dbe582084dH
	DQ	a87dde018326e709H
	DQ	dcc01a779c6997e8H
	DQ	edc39c3dac7d50c8H
	DQ	a60a33a1a078a8c0H
	DQ	c1a82be452b38b97H
	DQ	3f746bea134a88e9H
	DQ	a228ccbebafd9a27H
	DQ	abead94e068c7c04H
	DQ	f48952b178227e50H
	DQ	5cf48cb0fb049959H
	DQ	6017e0156de48abdH
	DQ	4438b4f2a73d3531H
	DQ	8c528ae649ff5885H
	DQ	b515ef924dfcfb76H
	DQ	0c661c212e925634H
	DQ	b493195cc59a7986H
	DQ	9cda519a21d1903eH
	DQ	32948105b5be5c2dH
	DQ	194ace8cd45f2e98H
	DQ	438d4ca238129cdbH
	DQ	9b6fa9cabefe39d4H
	DQ	81b26009ef0b8c41H
	DQ	ded1ebf691a58e15H
	DQ	4e6da64d9ee6481fH
	DQ	54b06f8ecf13fd8aH
	DQ	49d85e1d01c9e1f5H
	DQ	afc826511c094ee3H
	DQ	f698a33075ee67adH
	DQ	5ac7822eec4db243H
	DQ	8dd47c28c199da75H
	DQ	89f68337db1ce892H
	DQ	cdce37c57c21dda3H
	DQ	530597de503c5460H
	DQ	6a42f2aa543ff793H
	DQ	5d727a7e73621ba9H
	DQ	e232875307459df1H
	DQ	56a19e0fc2dfe477H
	DQ	c61dd3b4cd9c227dH
	DQ	e5877f03986a341bH
	DQ	949eb2a415c6f4edH
	DQ	6206119460289340H
	DQ	6380e75ae84e11b0H
	DQ	8be772b6d6d0f16fH
	DQ	50929091d596cf6dH
	DQ	e86795ec3e9ee0dfH
	DQ	7cf927482b581432H
	DQ	c86a3e14eec26db4H
	DQ	7119cda78dacc0f6H
	DQ	e40189cd100cb6ebH
	DQ	92adbc3a028fdff7H
	DQ	b2a017c2d2d3529cH
	DQ	200dabf8d05c8d6bH
	DQ	34a78f9ba2f77737H
	DQ	e3b4719d8f231f01H
	DQ	45be423c2f5bb7c1H
	DQ	f71e55fefd88e55dH
	DQ	6853032b59f3ee6eH
	DQ	65b3e9c4ff073aaaH
	DQ	772ac3399ae5ebecH
	DQ	87816e97f842a75bH
	DQ	110e2db2e0484a4bH
	DQ	331277cb3dd8deddH
	DQ	bd510cac79eb9fa5H
	DQ	352179552a91f5c7H
	DQ	8ab0a96846e06a6dH
	DQ	43c7e80b4bf0b33aH
	DQ	08c9b3546b161ee5H
	DQ	39f1c235eba990beH
	DQ	c1bef2376606c7b2H
	DQ	2c209233614569aaH
	DQ	eb01523b6fc3289aH
	DQ	946953ab935aceddH
	DQ	272838f63e13340eH
	DQ	8b0455eca12ba052H
	DQ	77a1b2c4978ff8a2H
	DQ	a55122ca13e54086H
	DQ	2276135862d3f1cdH
	DQ	db8ddfde08b76cfeH
	DQ	5d1e12c89e4a178aH
	DQ	0e56816b03969867H
	DQ	ee5f79953303ed59H
	DQ	afed748bab78d71dH
	DQ	6d929f2df93e53eeH
	DQ	f5d8a8f8ba798c2aH
	DQ	f619b1698e39cf6bH
	DQ	95ddaf2f749104e2H
	DQ	ec2a9c80e0886427H
	DQ	ce5c8fd8825b95eaH
	DQ	c4e0d9993ac60271H
	DQ	4699c3a5173076f9H
	DQ	3d1b151f50a29f42H
	DQ	9ed505ea2bc75946H
	DQ	34665acfdc7f4b98H
	DQ	61b1fb53292342f7H
	DQ	c721c0080e864130H
	DQ	8693cd1696fd7b74H
	DQ	872731927136b14bH
	DQ	d3446c8a63a1721bH
	DQ	669a35e8a6680e4aH
	DQ	cab658f239509a16H
	DQ	a4e5de4ef42e8ab9H
	DQ	37a7435ee83f08d9H
	DQ	134e6239e26c7f96H
	DQ	82791a3c2df67488H
	DQ	3f6ef00a8329163cH
	DQ	8e5a7e42fdeb6591H
	DQ	5caaee4c7981ddb5H
	DQ	19f234785af1e80dH
	DQ	255ddde3ed98bd70H
	DQ	50898a32a99cccacH
	DQ	28ca4519da4e6656H
	DQ	ae59880f4cb31d22H
	DQ	0d9798fa37d6db26H
	DQ	32f968f0b4ffcd1aH
	DQ	a00f09644f258545H
	DQ	fa3ad5175e24de72H
	DQ	f46c547c5db24615H
	DQ	713e80fbff0f7e20H
	DQ	7843cf2b73d2aafaH
	DQ	bd17ea36aedf62b4H
	DQ	fd111bacd16f92cfH
	DQ	4abaa7dbc72d67e0H
	DQ	b3416b5dad49fad3H
	DQ	bca316b24914a88bH
	DQ	15d150068aecf914H
	DQ	e27c1debe31efc40H
	DQ	4fe48c759beda223H
	DQ	7edcfd141b522c78H
	DQ	4e5070f17c26681cH
	DQ	e696cac15815f3bcH
	DQ	35d2a64b3bb481a7H
	DQ	800cff29fe7dfdf6H
	DQ	1ed9fac3d5baa4b0H
	DQ	6c2663a91ef599d1H
	DQ	03c1199134404341H
	DQ	f7ad4ded69f20554H
	DQ	cd9d9649b61bd6abH
	DQ	c8c3bde7eadb1368H
	DQ	d131899fb02afb65H
	DQ	1d18e352e1fae7f1H
	DQ	da39235aef7ca6c1H
	DQ	a1bbf5e0a8ee4f7aH
	DQ	91377805cf9a0b1eH
	DQ	3138716180bf8e5bH
	DQ	d9f83acbdb3ce580H
	DQ	0275e515d38b897eH
	DQ	472d3f21f0fbbcc6H
	DQ	2d946eb7868ea395H
	DQ	ba3c248d21942e09H
	DQ	e7223645bfde3983H
	DQ	ff64feb902e41bb1H
	DQ	c97741630d10d957H
	DQ	c3cb1722b58d4eccH
	DQ	a27aec719cae0c3bH
	DQ	99fecb51a48c15fbH
	DQ	1465ac826d27332bH
	DQ	e1bd047ad75ebf01H
	DQ	79f733af941960c5H
	DQ	672ec96c41a3c475H
	DQ	c27feba6524684f3H
	DQ	64efd0fd75e38734H
	DQ	ed9e60040743ae18H
	DQ	fb8e2993b9ef144dH
	DQ	38453eb10c625a81H
	DQ	6978480742355c12H
	DQ	48cf42ce14a6ee9eH
	DQ	1cac1fd606312dceH
	DQ	7b82d6ba4792e9bbH
	DQ	9d141c7b1f871a07H
	DQ	5616b80dc11c4a2eH
	DQ	b849c198f21fa777H
	DQ	7ca91801c8d9a506H
	DQ	b1348e487ec273adH
	DQ	41b20d1e987b3a44H
	DQ	7460ab55a3cfbbe3H
	DQ	84e628034576f20aH
	DQ	1b87d16d897a6173H
	DQ	0fe27defe45d5258H
	DQ	83cde6b8ca3dbeb7H
	DQ	0c23647ed01d1119H
	DQ	7a362a3ea0592384H
	DQ	b61f40f3f1893f10H
	DQ	75d457d1440471dcH
	DQ	4558da34237035b8H
	DQ	dca6116587fc2043H
	DQ	8d9b67d3c9ab26d0H
	DQ	2b0b5c88ee0e2517H
	DQ	6fe77a382ab5da90H
	DQ	269cc472d9d8fe31H
	DQ	63c41e46faa8cb89H
	DQ	b7abbc771642f52fH
	DQ	7d1de4852f126f39H
	DQ	a8c6ba3024339ba0H
	DQ	600507d7cee888c8H
	DQ	8fee82c61a20afaeH
	DQ	57a2448926d78011H
	DQ	fca5e72836a458f0H
	DQ	072bcebb8f4b4cbdH
	DQ	497bbe4af36d24a1H
	DQ	3cafe99bb769557dH
	DQ	12fa9ebd05a7b5a9H
	DQ	e8c04baa5b836bdbH
	DQ	4273148fac3b7905H
	DQ	908384812851c121H
	DQ	e557d3506c55b0fdH
	DQ	72ff996acb4f3d61H
	DQ	3eda0c8e64e2dc03H
	DQ	f0868356e6b949e9H
	DQ	04ead72abb0b0ffcH
	DQ	17a4b5135967706aH
	DQ	e3c8e16f04d5367fH
	DQ	f84f30028daf570cH
	DQ	1846c8fcbd3a2232H
	DQ	5b8120f7f6ca9108H
	DQ	d46fa231ecea3ea6H
	DQ	334d947453340725H
	DQ	58403966c28ad249H
	DQ	bed6f3a79a9f21f5H
	DQ	68ccb483a5fe962dH
	DQ	d085751b57e1315aH
	DQ	fed0023de52fd18eH
	DQ	4b0e5b5f20e6addfH
	DQ	1a332de96eb1ab4cH
	DQ	a3ce10f57b65c604H
	DQ	108f7ba8d62c3cd7H
	DQ	ab07a3a11073d8e1H
	DQ	6b0dad1291bed56cH
	DQ	f2f366433532c097H
	DQ	2e557726b2cee0d4H
	DQ	0000000000000000H
	DQ	cb02a476de9b5029H
	DQ	e4e32fd48b9e7ac2H
	DQ	734b65ee2c84f75eH
	DQ	6e5386bccd7e10afH
	DQ	01b4fc84e7cbca3fH
	DQ	cfe8735c65905fd5H
	DQ	3613bfda0ff4c2e6H
	DQ	113b872c31e7f6e8H
	DQ	2fe18ba255052aebH
	DQ	e974b72ebc48a1e4H
	DQ	0abc5641b89d979bH
	DQ	b46aa5e62202b66eH
	DQ	44ec26b0c4bbff87H
	DQ	a6903b5b27a503c7H
	DQ	7f680190fc99e647H
	DQ	97a84a3aa71a8d9cH
	DQ	dd12ede16037ea7cH
	DQ	c554251ddd0dc84eH
	DQ	88c54c7d956be313H
	DQ	4d91696048662b5dH
	DQ	b08072cc9909b992H
	DQ	b5de5962c5c97c51H
	DQ	81b803ad19b637c9H
	DQ	b2f597d94a8230ecH
	DQ	0b08aac55f565da4H
	DQ	f1327fd2017283d6H
	DQ	ad98919e78f35e63H
	DQ	6ab9519676751f53H
	DQ	24e921670a53774fH
	DQ	b9fd3d1c15d46d48H
	DQ	92f66194fbda485fH
	DQ	5a35dc7311015b37H
	DQ	ded3f4705477a93dH
	DQ	c00a0eb381cd0d8dH
	DQ	bb88d809c65fe436H
	DQ	16104997beacba55H
	DQ	21b70ac95693b28cH
	DQ	59f4c5e225411876H
	DQ	d5db5eb50b21f499H
	DQ	55d7a19cf55c096fH
	DQ	a97246b4c3f8519fH
	DQ	8552d487a2bd3835H
	DQ	54635d181297c350H
	DQ	23c2efdc85183bf2H
	DQ	9f61f96ecc0c9379H
	DQ	534893a39ddc8fedH
	DQ	5edf0b59aa0a54cbH
	DQ	ac2c6d1a9f38945cH
	DQ	d7aebba0d8aa7de7H
	DQ	2abfa00c09c5ef28H
	DQ	d84cc64f3cf72fbfH
	DQ	2003f64db15878b3H
	DQ	a724c7dfc06ec9f8H
	DQ	069f323f68808682H
	DQ	cc296acd51d01c94H
	DQ	055e2bae5cc0c5c3H
	DQ	6270e2c21d6301b6H
	DQ	3b842720382219c0H
	DQ	d2f0900e846ab824H
	DQ	52fc6f277a1745d2H
	DQ	c6953c8ce94d8b0fH
	DQ	e009f8fe3095753eH
	DQ	655b2c7992284d0bH
	DQ	984a37d54347dfc4H
	DQ	eab5aebf8808e2a5H
	DQ	9a3fd2c090cc56baH
	DQ	9ca0e0fff84cd038H
	DQ	4c2595e4afade162H
	DQ	df6708f4b3bc6302H
	DQ	bf620f237d54ebcaH
	DQ	93429d101c118260H
	DQ	097d4fd08cddd4daH
	DQ	8c2f9b572e60ecefH
	DQ	708a7c7f18c4b41fH
	DQ	3a30dba4dfe9d3ffH
	DQ	4006f19a7fb0f07bH
	DQ	5f6bf7dd4dc19ef4H
	DQ	1f6d064732716e8fH
	DQ	f9fbcc866a649d33H
	DQ	308c8de567744464H
	DQ	8971b0f972a0292cH
	DQ	d61a47243f61b7d8H
	DQ	efeb8511d4c82766H
	DQ	961cb6be40d147a3H
	DQ	aab35f25f7b812deH
	DQ	76154e407044329dH
	DQ	513d76b64e570693H
	DQ	f3479ac7d2f90aa8H
	DQ	9b8b2e4477079c85H
	DQ	297eb99d3d85ac69H
	DQ	7e37e62dfc7d40c3H
	DQ	776f25a4ee939e5bH
	DQ	e045c850dd8fb5adH
	DQ	86ed5ba711ff1952H
	DQ	e91d0bd9cf616b35H
	DQ	37e0ab256e408ffbH
	DQ	9607f6c031025a7aH
	DQ	0b02f5e116d23c9dH
	DQ	f3d8486bfb50650cH
	DQ	621cff27c40875f5H
	DQ	7d40cb71fa5fd34aH
	DQ	6daa6616daa29062H
	DQ	9f5f354923ec84e2H
	DQ	ec847c3dc507c3b3H
	DQ	025a3668043ce205H
	DQ	a8bf9e6c4dac0b19H
	DQ	fa808be2e9bebb94H
	DQ	b5b99c5277c74fa3H
	DQ	78d9bc95f0397bccH
	DQ	e332e50cdbad2624H
	DQ	c74fce129332797eH
	DQ	1729eceb2ea709abH
	DQ	c2d6b9f69954d1f8H
	DQ	5d898cbfbab8551aH
	DQ	859a76fb17dd8adbH
	DQ	1be85886362f7fb5H
	DQ	f6413f8ff136cd8aH
	DQ	d3110fa5bbb7e35cH
	DQ	0a2feed514cc4d11H
	DQ	e83010edcd7f1ab9H
	DQ	a1e75de55f42d581H
	DQ	eede4a55c13b21b6H
	DQ	f2f5535ff94e1480H
	DQ	0cc1b46d1888761eH
	DQ	bce15fdb6529913bH
	DQ	2d25e8975a7181c2H
	DQ	71817f1ce2d7a554H
	DQ	2e52c5cb5c53124bH
	DQ	f9f7a6beef9c281dH
	DQ	9e722e7d21f2f56eH
	DQ	ce170d9b81dca7e6H
	DQ	0e9b82051cb4941bH
	DQ	1e712f623c49d733H
	DQ	21e45cfa42f9f7dcH
	DQ	cb8e7a7f8bba0f60H
	DQ	8e98831a010fb646H
	DQ	474ccf0d8e895b23H
	DQ	a99285584fb27a95H
	DQ	8cc2b57205335443H
	DQ	42d5b8e984eff3a5H
	DQ	012d1b34021e718cH
	DQ	57a6626aae74180bH
	DQ	ff19fc06e3d81312H
	DQ	35ba9d4d6a7c6dfeH
	DQ	c9d44c178f86ed65H
	DQ	506523e6a02e5288H
	DQ	03772d5c06229389H
	DQ	8b01f4fe0b691ec0H
	DQ	f8dabd8aed825991H
	DQ	4c4e3aec985b67beH
	DQ	b10df0827fbf96a9H
	DQ	6a69279ad4f8dae1H
	DQ	e78689dcd3d5ff2eH
	DQ	812e1a2b1fa553d1H
	DQ	fbad90d6eba0ca18H
	DQ	1ac543b234310e39H
	DQ	1604f7df2cb97827H
	DQ	a6241c6951189f02H
	DQ	753513cceaaf7c5eH
	DQ	64f2a59fc84c4efaH
	DQ	247d2b1e489f5f5aH
	DQ	db64d718ab474c48H
	DQ	79f4a7a1f2270a40H
	DQ	1573da832a9bebaeH
	DQ	3497867968621c72H
	DQ	514838d2a2302304H
	DQ	f0af6537fd72f685H
	DQ	1d06023e3a6b44baH
	DQ	678588c3ce6edd73H
	DQ	66a893f7cc70acffH
	DQ	d4d24e29b5eda9dfH
	DQ	3856321470ea6a6cH
	DQ	07c3418c0e5a4a83H
	DQ	2bcbb22f5635bacdH
	DQ	04b46cd00878d90aH
	DQ	06ee5ab80c443b0fH
	DQ	3b211f4876c8f9e5H
	DQ	0958c38912eede98H
	DQ	d14b39cdbf8b0159H
	DQ	397b292072f41be0H
	DQ	87c0409313e168deH
	DQ	ad26e98847caa39fH
	DQ	4e140c849c6785bbH
	DQ	d5ff551db7f3d853H
	DQ	a0ca46d15d5ca40dH
	DQ	cd6020c787fe346fH
	DQ	84b76dcf15c3fb57H
	DQ	defda0fca121e4ceH
	DQ	4b8d7b6096012d3dH
	DQ	9ac642ad298a2c64H
	DQ	0875d8bd10f0af14H
	DQ	b357c6ea7b8374acH
	DQ	4d6321d89a451632H
	DQ	eda96709c719b23fH
	DQ	f76c24bbf328bc06H
	DQ	c662d526912c08f2H
	DQ	3ce25ec47892b366H
	DQ	b978283f6f4f39bdH
	DQ	c08c8f9e9d6833fdH
	DQ	4f3917b09e79f437H
	DQ	593de06fb2c08c10H
	DQ	d6887841b1d14bdaH
	DQ	19b26eee32139db0H
	DQ	b494876675d93e2fH
	DQ	825937771987c058H
	DQ	90e9ac783d466175H
	DQ	f1827e03ff6c8709H
	DQ	945dc0a8353eb87fH
	DQ	4516f9658ab5b926H
	DQ	3f9573987eb020efH
	DQ	b855330b6d514831H
	DQ	2ae6a91b542bcb41H
	DQ	6331e413c6160479H
	DQ	408f8e8180d311a0H
	DQ	eff35161c325503aH
	DQ	d06622f9bd9570d5H
	DQ	8876d9a20d4b8d49H
	DQ	a5533135573a0c8bH
	DQ	e168d364df91c421H
	DQ	f41b09e7f50a2f8fH
	DQ	12b09b0f24c1a12dH
	DQ	da49cc2ca9593dc4H
	DQ	1f5c34563e57a6bfH
	DQ	54d14f36a8568b82H
	DQ	af7cdfe043f6419aH
	DQ	ea6a2685c943f8bcH
	DQ	e5dcbfb4d7e91d2bH
	DQ	b27addde799d0520H
	DQ	6b443caed6e6ab6dH
	DQ	7bae91c9f61be845H
	DQ	3eb868ac7cae5163H
	DQ	11c7b65322e332a4H
	DQ	d23c1491b9a992d0H
	DQ	8fb5982e0311c7caH
	DQ	70ac6428e0c9d4d8H
	DQ	895bc2960f55fcc5H
	DQ	76423e90ec8defd7H
	DQ	6ff0507ede9e7267H
	DQ	3dcf45f07a8cc2eaH
	DQ	4aa06054941f5cb1H
	DQ	5810fb5bb0defd9cH
	DQ	5efea1e3bc9ac693H
	DQ	6edd4b4adc8003ebH
	DQ	741808f8e8b10dd2H
	DQ	145ec1b728859a22H
	DQ	28bc9f7350172944H
	DQ	270a06424ebdccd3H
	DQ	972aedf4331c2bf6H
	DQ	059977e40a66a886H
	DQ	2550302a4a812ed6H
	DQ	dd8a8da0a7037747H
	DQ	c515f87a970e9b7bH
	DQ	3023eaa9601ac578H
	DQ	b7e3aa3a73fbada6H
	DQ	0fb699311eaae597H
	DQ	0000000000000000H
	DQ	310ef19d6204b4f4H
	DQ	229371a644db6455H
	DQ	0decaf591a960792H
	DQ	5ca4978bb8a62496H
	DQ	1c2b190a38753536H
	DQ	41a295b582cd602cH
	DQ	3279dcc16426277dH
	DQ	c1a194aa9f764271H
	DQ	139d803b26dfd0a1H
	DQ	ae51c4d441e83016H
	DQ	d813fa44ad65dfc1H
	DQ	ac0bf2bc45d4d213H
	DQ	23be6a9246c515d9H
	DQ	49d74d08923dcf38H
	DQ	9d05032127d066e7H
	DQ	2f7fdeff5e4d63c7H
	DQ	a47e2a0155247d07H
	DQ	99b16ff12fa8bfedH
	DQ	4661d4398c972aafH
	DQ	dfd0bbc8a33f9542H
	DQ	dca79694a51d06cbH
	DQ	b020ebb67da1e725H
	DQ	ba0f0563696daa34H
	DQ	e4f1a480d5f76ca7H
	DQ	c438e34e9510eaf7H
	DQ	939e81243b64f2fcH
	DQ	8defae46072d25cfH
	DQ	2c08f3a3586ff04eH
	DQ	d7a56375b3cf3a56H
	DQ	20c947ce40e78650H
	DQ	43f8a3dd86f18229H
	DQ	568b795eac6a6987H
	DQ	8003011f1dbb225dH
	DQ	f53612d3f7145e03H
	DQ	189f75da300dec3cH
	DQ	9570db9c3720c9f3H
	DQ	bb221e576b73dbb8H
	DQ	72f65240e4f536ddH
	DQ	443be25188abc8aaH
	DQ	e21ffe38d9b357a8H
	DQ	fd43ca6ee7e4f117H
	DQ	caa3614b89a47eecH
	DQ	fe34e732e1c6629eH
	DQ	83742c431b99b1d4H
	DQ	cf3a16af83c2d66aH
	DQ	aae5a8044990e91cH
	DQ	26271d764ca3bd5fH
	DQ	91c4b74c3f5810f9H
	DQ	7c6dd045f841a2c6H
	DQ	7f1afd19fe63314fH
	DQ	c8f957238d989ce9H
	DQ	a709075d5306ee8eH
	DQ	55fc5402aa48fa0eH
	DQ	48fa563c9023beb4H
	DQ	65dfbeabca523f76H
	DQ	6c877d22d8bce1eeH
	DQ	cc4d3bf385e045e3H
	DQ	bebb69b36115733eH
	DQ	10eaad6720fd4328H
	DQ	b6ceb10e71e5dc2aH
	DQ	bdcc44ef6737e0b7H
	DQ	523f158ea412b08dH
	DQ	989c74c52db6ce61H
	DQ	9beb59992b945de8H
	DQ	8a2cefca09776f4cH
	DQ	a3bd6b8d5b7e3784H
	DQ	eb473db1cb5d8930H
	DQ	c3fba2c29b4aa074H
	DQ	9c28181525ce176bH
	DQ	683311f2d0c438e4H
	DQ	5fd3bad7be84b71fH
	DQ	fc6ed15ae5fa809bH
	DQ	36cdb0116c5efe77H
	DQ	29918447520958c8H
	DQ	a29070b959604608H
	DQ	53120ebaa60cc101H
	DQ	3a0c047c74d68869H
	DQ	691e0ac6d2da4968H
	DQ	73db4974e6eb4751H
	DQ	7a838afdf40599c9H
	DQ	5a4acd33b4e21f99H
	DQ	6046c94fc03497f0H
	DQ	e6ab92e8d1cb8ea2H
	DQ	3354c7f5663856f1H
	DQ	d93ee170af7bae4dH
	DQ	616bd27bc22ae67cH
	DQ	92b39a10397a8370H
	DQ	abc8b3304b8e9890H
	DQ	bf967287630b02b2H
	DQ	5b67d607b6fc6e15H
	DQ	d031c397ce553fe6H
	DQ	16ba5b01b006b525H
	DQ	a89bade6296e70c8H
	DQ	6a1f525d77d3435bH
	DQ	6e103570573dfa0bH
	DQ	660efb2a17fc95abH
	DQ	76327a9e97634bf6H
	DQ	4bad9d6462458bf5H
	DQ	f1830caedbc3f748H
	DQ	c5c8f542669131ffH
	DQ	95044a1cdc48b0cbH
	DQ	892962df3cf8b866H
	DQ	b0b9e208e930c135H
	DQ	a14fb3f0611a767cH
	DQ	8d2605f21c160136H
	DQ	d6b71922fecc549eH
	DQ	37089438a5907d8bH
	DQ	0b5da38e5803d49cH
	DQ	5a5bcc9cea6f3cbcH
	DQ	edae246d3b73ffe5H
	DQ	d2b87e0fde22edceH
	DQ	5e54abb1ca8185ecH
	DQ	1de7f88fe80561b9H
	DQ	ad5e1a870135a08cH
	DQ	2f2adbd665cecc76H
	DQ	5780b5a782f58358H
	DQ	3edc8a2eede47b3fH
	DQ	c9d95c3506bee70fH
	DQ	83be111d6c4e05eeH
	DQ	a603b90959367410H
	DQ	103c81b4809fde5dH
	DQ	2c69b6027d0c774aH
	DQ	399080d7d5c87953H
	DQ	09d41e16487406b4H
	DQ	cdd63b1826505e5fH
	DQ	f99dc2f49b0298e8H
	DQ	9cd0540a943cb67fH
	DQ	bca84b7f891f17c5H
	DQ	723d1db3b78df2a6H
	DQ	78aa6e71e73b4f2eH
	DQ	1433e699a071670dH
	DQ	84f21be454620782H
	DQ	98df3327b4d20f2fH
	DQ	f049dce2d3769e5cH
	DQ	db6c60199656eb7aH
	DQ	648746b2078b4783H
	DQ	32cd23598dcbadcfH
	DQ	1ea4955bf0c7da85H
	DQ	e9a143401b9d46b5H
	DQ	fd92a5d9bbec21b8H
	DQ	c8138c790e0b8e1bH
	DQ	2ee00b9a6d7ba562H
	DQ	f85712b893b7f1fcH
	DQ	eb28fed80bea949dH
	DQ	564a65eb8a40ea4cH
	DQ	6c9988e8474a2823H
	DQ	4535898b121d8f2dH
	DQ	abd8c03231accbf4H
	DQ	ba2e91cab9867cbdH
	DQ	7960be3def8e263aH
	DQ	0c11a977602fd6f0H
	DQ	cb50e1ad16c93527H
	DQ	eae22e94035ffd89H
	DQ	2866d12f5de2ce1aH
	DQ	ff1b1841ab9bf390H
	DQ	9f9339de8cfe0d43H
	DQ	964727c8c48a0bf7H
	DQ	524502c6aaae531cH
	DQ	9b9c5ef3ac10b413H
	DQ	4fa2fa4942ab32a5H
	DQ	3f165a62e551122bH
	DQ	c74148da76e6e3d7H
	DQ	924840e5e464b2a7H
	DQ	d372ae43d69784daH
	DQ	233b72a105e11a86H
	DQ	a48a04914941a638H
	DQ	b4b68525c9de7865H
	DQ	ddeabaaca6cf8002H
	DQ	0a9773c250b6bd88H
	DQ	c284ffbb5ebd3393H
	DQ	8ba0df472c8f6a4eH
	DQ	2aef6cb74d951c32H
	DQ	427983722a318d41H
	DQ	73f7cdffbf389bb2H
	DQ	074c0af9382c026cH
	DQ	8a6a0f0b243a035aH
	DQ	6fdae53c5f88931fH
	DQ	c68b98967e538ac3H
	DQ	44ff59c71aa8e639H
	DQ	e2fce0ce439e9229H
	DQ	a20cde2479d8cd40H
	DQ	19e89fa2c8ebd8e9H
	DQ	f446bbcff398270cH
	DQ	43b3533e2284e455H
	DQ	d82f0dcd8e945046H
	DQ	51066f12b26ce820H
	DQ	e73957af6bc5426dH
	DQ	081ece5a40c16fa0H
	DQ	3b193d4fc5bfab7bH
	DQ	7fe66488df174d42H
	DQ	0e9814ef705804d8H
	DQ	8137ac857c39d7c6H
	DQ	b1733244e185a821H
	DQ	695c3f896f11f867H
	DQ	f6cf0657e3eff524H
	DQ	1aabf276d02963d5H
	DQ	2da3664e75b91e5eH
	DQ	0289bd981077d228H
	DQ	90c1fd7df413608fH
	DQ	3c5537b6fd93a917H
	DQ	aa12107e3919a2e0H
	DQ	0686dab530996b78H
	DQ	daa6b0559ee3826eH
	DQ	c34e2ff756085a87H
	DQ	6d5358a44fff4137H
	DQ	fc587595b35948acH
	DQ	7ca5095cc7d5f67eH
	DQ	fb147f6c8b754ac0H
	DQ	bfeb26ab91ddacf9H
	DQ	6896efc567a49173H
	DQ	ca9a31e11e7c5c33H
	DQ	bbe44186b13315a9H
	DQ	0ddb793b689abfe4H
	DQ	70b4a02ba7fa208eH
	DQ	e47a3a7b7307f951H
	DQ	8cecd5be14a36822H
	DQ	eeed49b923b144d9H
	DQ	17708b4db8b3dc31H
	DQ	6088219f2765fed3H
	DQ	b3fa8fdcf1f27a09H
	DQ	910b2d31fca6099bH
	DQ	0f52c4a378ed6dccH
	DQ	50ccbf5ebad98134H
	DQ	6bd582117f662a4fH
	DQ	94ce9a50d4fdd9dfH
	DQ	2b25bcfb45207526H
	DQ	67c42b661f49fcbfH
	DQ	492420fc723259ddH
	DQ	03436dd418c2bb3cH
	DQ	1f6e4517f872b391H
	DQ	a08563bc69af1f68H
	DQ	d43ea4baeebb86b6H
	DQ	01cad04c08b56914H
	DQ	ac94cacb0980c998H
	DQ	54c3d8739a373864H
	DQ	26fec5c02dbacac2H
	DQ	dea9d778be0d3b3eH
	DQ	040f672d20eeb950H
	DQ	e5b0ea377bb29045H
	DQ	f30ab136cbb42560H
	DQ	62019c0737122cfbH
	DQ	e86b930c13282fa1H
	DQ	cc1ceb542ee5374bH
	DQ	538fd28aa21b3a08H
	DQ	1b61223ad89c0ac1H
	DQ	36c24474ad25149fH
	DQ	7a23d3e9f74c9d06H
	DQ	be21f6e79968c5edH
	DQ	cf5f868036278c77H
	DQ	f705d61beb5a9c30H
	DQ	4d2b47d152dce08dH
	DQ	5f9e7bfdc234ecf8H
	DQ	247778583dcd18eaH
	DQ	867ba67c4415d5aaH
	DQ	4ce1979d5a698999H
	DQ	0000000000000000H
	DQ	ec64f42133c696f1H
	DQ	b57c5569c16b1171H
	DQ	c1c7926f467f88afH
	DQ	654d96fe0f3e2e97H
	DQ	15f936d5a8c40e19H
	DQ	b8a72c52a9f1ae95H
	DQ	a9517daa21db19dcH
	DQ	58d27104fa18ee94H
	DQ	5918a148f2ad8780H
	DQ	5cdd1629daf657c4H
	DQ	8274c15164fb6cfaH
	DQ	d1fb13dbc6e056f2H
	DQ	7d6fd910cf609f6aH
	DQ	b63f38bdd9a9aa4dH
	DQ	3d9fe7faf526c003H
	DQ	74bbc706871499deH
	DQ	df630734b6b8522aH
	DQ	3ad3ed03cd0ac26fH
	DQ	fadeaf2083c023d4H
	DQ	c00d42234ecae1bbH
	DQ	8538cba85cd76e96H
	DQ	c402250e6e2458ebH
	DQ	47bc3413026a5d05H
	DQ	afd7a71f114272a4H
	DQ	978df784cc3f62e3H
	DQ	b96dfc1ea144c781H
	DQ	21b2cf391596c8aeH
	DQ	318e4e8d950916f3H
	DQ	ce9556cc3e92e563H
	DQ	385a509bdd7d1047H
	DQ	358129a0b5e7afa3H
	DQ	e6f387e363702b79H
	DQ	e0755d5653e94001H
	DQ	7be903a5fff9f412H
	DQ	12b53c2c90e80c75H
	DQ	3307f315857ec4dbH
	DQ	8fafb86a0c61d31eH
	DQ	d9e5dd8186213952H
	DQ	77f8aad29fd622e2H
	DQ	25bda814357871feH
	DQ	7571174a8fa1f0caH
	DQ	137fec60985d6561H
	DQ	30449ec19dbc7fe7H
	DQ	a540d4dd41f4cf2cH
	DQ	dc206ae0ae7ae916H
	DQ	5b911cd0e2da55a8H
	DQ	b2305f90f947131dH
	DQ	344bf9ecbd52c6b7H
	DQ	5d17c665d2433ed0H
	DQ	18224feec05eb1fdH
	DQ	9e59e992844b6457H
	DQ	9a568ebfa4a5dd07H
	DQ	a3c60e68716da454H
	DQ	7e2cb4c4d7a22456H
	DQ	87b176304ca0bcbeH
	DQ	413aeea632f3367dH
	DQ	9915e36bbc67663bH
	DQ	40f03eea3a465f69H
	DQ	1c2d28c3e0b008adH
	DQ	4e682a054a1e5bb1H
	DQ	05c5b761285bd044H
	DQ	e1bf8d1a5b5c2915H
	DQ	f2c0617ac3014c74H
	DQ	b7f5e8f1d11cc359H
	DQ	63cb4c4b3fa745efH
	DQ	9d1a84469c89df6bH
	DQ	e33630824b2bfb3dH
	DQ	d5f474f6e60eefa2H
	DQ	f58c6b83fb2d4e18H
	DQ	4676e45f0adf3411H
	DQ	20781f751d23a1baH
	DQ	bd629b3381aa7ed1H
	DQ	ae1d775319f71bb0H
	DQ	fed1c80da32e9a84H
	DQ	5509083f92825170H
	DQ	29ac01635557a70eH
	DQ	a7c9694551831d04H
	DQ	8e65682604d4ba0aH
	DQ	11f651f8882ab749H
	DQ	d77dc96ef6793d8aH
	DQ	ef2799f52b042dcdH
	DQ	48eef0b07a8730c9H
	DQ	22f1a2ed0d547392H
	DQ	6142f1d32fd097c7H
	DQ	4a674d286af0e2e1H
	DQ	80fd7cc9748cbed2H
	DQ	717e7067af4f499aH
	DQ	938290a9ecd1dbb3H
	DQ	88e3b293344dd172H
	DQ	2734158c250fa3d6H
C	DB	0b1H
	DB	08H
	DB	05bH
	DB	0daH
	DB	01eH
	DB	0caH
	DB	0daH
	DB	0e9H
	DB	0ebH
	DB	0cbH
	DB	02fH
	DB	081H
	DB	0c0H
	DB	065H
	DB	07cH
	DB	01fH
	DB	02fH
	DB	06aH
	DB	076H
	DB	043H
	DB	02eH
	DB	045H
	DB	0d0H
	DB	016H
	DB	071H
	DB	04eH
	DB	0b8H
	DB	08dH
	DB	075H
	DB	085H
	DB	0c4H
	DB	0fcH
	DB	04bH
	DB	07cH
	DB	0e0H
	DB	091H
	DB	092H
	DB	067H
	DB	069H
	DB	01H
	DB	0a2H
	DB	042H
	DB	02aH
	DB	08H
	DB	0a4H
	DB	060H
	DB	0d3H
	DB	015H
	DB	05H
	DB	076H
	DB	074H
	DB	036H
	DB	0ccH
	DB	074H
	DB	04dH
	DB	023H
	DB	0ddH
	DB	080H
	DB	065H
	DB	059H
	DB	0f2H
	DB	0a6H
	DB	045H
	DB	07H
	DB	06fH
	DB	0a3H
	DB	0b5H
	DB	08aH
	DB	0a9H
	DB	09dH
	DB	02fH
	DB	01aH
	DB	04fH
	DB	0e3H
	DB	09dH
	DB	046H
	DB	0fH
	DB	070H
	DB	0b5H
	DB	0d7H
	DB	0f3H
	DB	0feH
	DB	0eaH
	DB	072H
	DB	0aH
	DB	023H
	DB	02bH
	DB	098H
	DB	061H
	DB	0d5H
	DB	05eH
	DB	0fH
	DB	016H
	DB	0b5H
	DB	01H
	DB	031H
	DB	09aH
	DB	0b5H
	DB	017H
	DB	06bH
	DB	012H
	DB	0d6H
	DB	099H
	DB	058H
	DB	05cH
	DB	0b5H
	DB	061H
	DB	0c2H
	DB	0dbH
	DB	0aH
	DB	0a7H
	DB	0caH
	DB	055H
	DB	0ddH
	DB	0a2H
	DB	01bH
	DB	0d7H
	DB	0cbH
	DB	0cdH
	DB	056H
	DB	0e6H
	DB	079H
	DB	04H
	DB	070H
	DB	021H
	DB	0b1H
	DB	09bH
	DB	0b7H
	DB	0f5H
	DB	074H
	DB	0dcH
	DB	0acH
	DB	02bH
	DB	0ceH
	DB	02fH
	DB	0c7H
	DB	0aH
	DB	039H
	DB	0fcH
	DB	028H
	DB	06aH
	DB	03dH
	DB	084H
	DB	035H
	DB	06H
	DB	0f1H
	DB	05eH
	DB	05fH
	DB	052H
	DB	09cH
	DB	01fH
	DB	08bH
	DB	0f2H
	DB	0eaH
	DB	075H
	DB	014H
	DB	0b1H
	DB	029H
	DB	07bH
	DB	07bH
	DB	0d3H
	DB	0e2H
	DB	0fH
	DB	0e4H
	DB	090H
	DB	035H
	DB	09eH
	DB	0b1H
	DB	0c1H
	DB	0c9H
	DB	03aH
	DB	037H
	DB	060H
	DB	062H
	DB	0dbH
	DB	09H
	DB	0c2H
	DB	0b6H
	DB	0f4H
	DB	043H
	DB	086H
	DB	07aH
	DB	0dbH
	DB	031H
	DB	099H
	DB	01eH
	DB	096H
	DB	0f5H
	DB	0aH
	DB	0baH
	DB	0aH
	DB	0b2H
	DB	0efH
	DB	01fH
	DB	0dfH
	DB	0b3H
	DB	0e8H
	DB	015H
	DB	066H
	DB	0d2H
	DB	0f9H
	DB	048H
	DB	0e1H
	DB	0a0H
	DB	05dH
	DB	071H
	DB	0e4H
	DB	0ddH
	DB	048H
	DB	08eH
	DB	085H
	DB	07eH
	DB	033H
	DB	05cH
	DB	03cH
	DB	07dH
	DB	09dH
	DB	072H
	DB	01cH
	DB	0adH
	DB	068H
	DB	05eH
	DB	035H
	DB	03fH
	DB	0a9H
	DB	0d7H
	DB	02cH
	DB	082H
	DB	0edH
	DB	03H
	DB	0d6H
	DB	075H
	DB	0d8H
	DB	0b7H
	DB	013H
	DB	033H
	DB	093H
	DB	052H
	DB	03H
	DB	0beH
	DB	034H
	DB	053H
	DB	0eaH
	DB	0a1H
	DB	093H
	DB	0e8H
	DB	037H
	DB	0f1H
	DB	022H
	DB	0cH
	DB	0beH
	DB	0bcH
	DB	084H
	DB	0e3H
	DB	0d1H
	DB	02eH
	DB	04bH
	DB	0eaH
	DB	06bH
	DB	0acH
	DB	0adH
	DB	047H
	DB	047H
	DB	099H
	DB	09aH
	DB	03fH
	DB	041H
	DB	0cH
	DB	06cH
	DB	0a9H
	DB	023H
	DB	063H
	DB	07fH
	DB	015H
	DB	01cH
	DB	01fH
	DB	016H
	DB	086H
	DB	010H
	DB	04aH
	DB	035H
	DB	09eH
	DB	035H
	DB	0d7H
	DB	080H
	DB	0fH
	DB	0ffH
	DB	0bdH
	DB	0bfH
	DB	0cdH
	DB	017H
	DB	047H
	DB	025H
	DB	03aH
	DB	0f5H
	DB	0a3H
	DB	0dfH
	DB	0ffH
	DB	00H
	DB	0b7H
	DB	023H
	DB	027H
	DB	01aH
	DB	016H
	DB	07aH
	DB	056H
	DB	0a2H
	DB	07eH
	DB	0a9H
	DB	0eaH
	DB	063H
	DB	0f5H
	DB	060H
	DB	017H
	DB	058H
	DB	0fdH
	DB	07cH
	DB	06cH
	DB	0feH
	DB	057H
	DB	0aeH
	DB	04fH
	DB	0aeH
	DB	0aeH
	DB	01dH
	DB	03aH
	DB	0d3H
	DB	0d9H
	DB	06fH
	DB	0a4H
	DB	0c3H
	DB	03bH
	DB	07aH
	DB	030H
	DB	039H
	DB	0c0H
	DB	02dH
	DB	066H
	DB	0c4H
	DB	0f9H
	DB	051H
	DB	042H
	DB	0a4H
	DB	06cH
	DB	018H
	DB	07fH
	DB	09aH
	DB	0b4H
	DB	09aH
	DB	0f0H
	DB	08eH
	DB	0c6H
	DB	0cfH
	DB	0faH
	DB	0a6H
	DB	0b7H
	DB	01cH
	DB	09aH
	DB	0b7H
	DB	0b4H
	DB	0aH
	DB	0f2H
	DB	01fH
	DB	066H
	DB	0c2H
	DB	0beH
	DB	0c6H
	DB	0b6H
	DB	0bfH
	DB	071H
	DB	0c5H
	DB	072H
	DB	036H
	DB	090H
	DB	04fH
	DB	035H
	DB	0faH
	DB	068H
	DB	040H
	DB	07aH
	DB	046H
	DB	064H
	DB	07dH
	DB	06eH
	DB	0f4H
	DB	0c7H
	DB	0eH
	DB	016H
	DB	0eeH
	DB	0aaH
	DB	0c5H
	DB	0ecH
	DB	051H
	DB	0acH
	DB	086H
	DB	0feH
	DB	0bfH
	DB	024H
	DB	09H
	DB	054H
	DB	039H
	DB	09eH
	DB	0c6H
	DB	0c7H
	DB	0e6H
	DB	0bfH
	DB	087H
	DB	0c9H
	DB	0d3H
	DB	047H
	DB	03eH
	DB	033H
	DB	019H
	DB	07aH
	DB	093H
	DB	0c9H
	DB	09H
	DB	092H
	DB	0abH
	DB	0c5H
	DB	02dH
	DB	082H
	DB	02cH
	DB	037H
	DB	06H
	DB	047H
	DB	069H
	DB	083H
	DB	028H
	DB	04aH
	DB	05H
	DB	04H
	DB	035H
	DB	017H
	DB	045H
	DB	04cH
	DB	0a2H
	DB	03cH
	DB	04aH
	DB	0f3H
	DB	088H
	DB	086H
	DB	056H
	DB	04dH
	DB	03aH
	DB	014H
	DB	0d4H
	DB	093H
	DB	09bH
	DB	01fH
	DB	05bH
	DB	042H
	DB	04dH
	DB	093H
	DB	0c9H
	DB	0a7H
	DB	03H
	DB	0e7H
	DB	0aaH
	DB	02H
	DB	0cH
	DB	06eH
	DB	041H
	DB	041H
	DB	04eH
	DB	0b7H
	DB	0f8H
	DB	071H
	DB	09cH
	DB	036H
	DB	0deH
	DB	01eH
	DB	089H
	DB	0b4H
	DB	044H
	DB	03bH
	DB	04dH
	DB	0dbH
	DB	0c4H
	DB	09aH
	DB	0f4H
	DB	089H
	DB	02bH
	DB	0cbH
	DB	092H
	DB	09bH
	DB	06H
	DB	090H
	DB	069H
	DB	0d1H
	DB	08dH
	DB	02bH
	DB	0d1H
	DB	0a5H
	DB	0c4H
	DB	02fH
	DB	036H
	DB	0acH
	DB	0c2H
	DB	035H
	DB	059H
	DB	051H
	DB	0a8H
	DB	0d9H
	DB	0a4H
	DB	07fH
	DB	0dH
	DB	0d4H
	DB	0bfH
	DB	02H
	DB	0e7H
	DB	01eH
	DB	037H
	DB	08fH
	DB	05aH
	DB	054H
	DB	016H
	DB	031H
	DB	022H
	DB	09bH
	DB	094H
	DB	04cH
	DB	09aH
	DB	0d8H
	DB	0ecH
	DB	016H
	DB	05fH
	DB	0deH
	DB	03aH
	DB	07dH
	DB	03aH
	DB	01bH
	DB	025H
	DB	089H
	DB	042H
	DB	024H
	DB	03cH
	DB	0d9H
	DB	055H
	DB	0b7H
	DB	0e0H
	DB	0dH
	DB	09H
	DB	084H
	DB	080H
	DB	0aH
	DB	044H
	DB	0bH
	DB	0dbH
	DB	0b2H
	DB	0ceH
	DB	0b1H
	DB	07bH
	DB	02bH
	DB	08aH
	DB	09aH
	DB	0a6H
	DB	07H
	DB	09cH
	DB	054H
	DB	0eH
	DB	038H
	DB	0dcH
	DB	092H
	DB	0cbH
	DB	01fH
	DB	02aH
	DB	060H
	DB	072H
	DB	061H
	DB	044H
	DB	051H
	DB	083H
	DB	023H
	DB	05aH
	DB	0dbH
	DB	0abH
	DB	0beH
	DB	0deH
	DB	0a6H
	DB	080H
	DB	05H
	DB	06fH
	DB	052H
	DB	038H
	DB	02aH
	DB	0e5H
	DB	048H
	DB	0b2H
	DB	0e4H
	DB	0f3H
	DB	0f3H
	DB	089H
	DB	041H
	DB	0e7H
	DB	01cH
	DB	0ffH
	DB	08aH
	DB	078H
	DB	0dbH
	DB	01fH
	DB	0ffH
	DB	0e1H
	DB	08aH
	DB	01bH
	DB	033H
	DB	061H
	DB	03H
	DB	09fH
	DB	0e7H
	DB	067H
	DB	02H
	DB	0afH
	DB	069H
	DB	033H
	DB	04bH
	DB	07aH
	DB	01eH
	DB	06cH
	DB	030H
	DB	03bH
	DB	076H
	DB	052H
	DB	0f4H
	DB	036H
	DB	098H
	DB	0faH
	DB	0d1H
	DB	015H
	DB	03bH
	DB	0b6H
	DB	0c3H
	DB	074H
	DB	0b4H
	DB	0c7H
	DB	0fbH
	DB	098H
	DB	045H
	DB	09cH
	DB	0edH
	DB	07bH
	DB	0cdH
	DB	09eH
	DB	0d0H
	DB	0efH
	DB	0c8H
	DB	089H
	DB	0fbH
	DB	030H
	DB	02H
	DB	0c6H
	DB	0cdH
	DB	063H
	DB	05aH
	DB	0feH
	DB	094H
	DB	0d8H
	DB	0faH
	DB	06bH
	DB	0bbH
	DB	0ebH
	DB	0abH
	DB	07H
	DB	061H
	DB	020H
	DB	01H
	DB	080H
	DB	021H
	DB	014H
	DB	084H
	DB	066H
	DB	079H
	DB	08aH
	DB	01dH
	DB	071H
	DB	0efH
	DB	0eaH
	DB	048H
	DB	0b9H
	DB	0caH
	DB	0efH
	DB	0baH
	DB	0cdH
	DB	01dH
	DB	07dH
	DB	047H
	DB	06eH
	DB	098H
	DB	0deH
	DB	0a2H
	DB	059H
	DB	04aH
	DB	0c0H
	DB	06fH
	DB	0d8H
	DB	05dH
	DB	06bH
	DB	0caH
	DB	0a4H
	DB	0cdH
	DB	081H
	DB	0f3H
	DB	02dH
	DB	01bH
	DB	037H
	DB	08eH
	DB	0e7H
	DB	067H
	DB	0f1H
	DB	016H
	DB	031H
	DB	0baH
	DB	0d2H
	DB	013H
	DB	080H
	DB	0b0H
	DB	04H
	DB	049H
	DB	0b1H
	DB	07aH
	DB	0cdH
	DB	0a4H
	DB	03cH
	DB	032H
	DB	0bcH
	DB	0dfH
	DB	01dH
	DB	077H
	DB	0f8H
	DB	020H
	DB	012H
	DB	0d4H
	DB	030H
	DB	021H
	DB	09fH
	DB	09bH
	DB	05dH
	DB	080H
	DB	0efH
	DB	09dH
	DB	018H
	DB	091H
	DB	0ccH
	DB	086H
	DB	0e7H
	DB	01dH
	DB	0a4H
	DB	0aaH
	DB	088H
	DB	0e1H
	DB	028H
	DB	052H
	DB	0faH
	DB	0f4H
	DB	017H
	DB	0d5H
	DB	0d9H
	DB	0b2H
	DB	01bH
	DB	099H
	DB	048H
	DB	0bcH
	DB	092H
	DB	04aH
	DB	0f1H
	DB	01bH
	DB	0d7H
	DB	020H
; Function compile flags: /Ogspy
; File c:\users\alexis\desktop\sources_gostcrypt_windows_1.3.1_commented\sources_gostcrypt_windows_1.3.1\sources_gostcrypt_windows_1.3.1\crypto\stribog.c
;	COMDAT Xor512
_TEXT	SEGMENT
dest$ = 8
a$ = 16
b$ = 24
Xor512	PROC						; COMDAT

; 766  : 	gst_dword i;
; 767  : 	for (i = 0; i < 64; i++)

  00000	49 2b d0	 sub	 rdx, r8
  00003	41 b9 40 00 00
	00		 mov	 r9d, 64			; 00000040H
  00009	49 2b c8	 sub	 rcx, r8
$LL3@Xor512:

; 768  : 		dest[i] = a[i] ^ b[i];

  0000c	42 8a 04 02	 mov	 al, BYTE PTR [rdx+r8]
  00010	41 32 00	 xor	 al, BYTE PTR [r8]
  00013	42 88 04 01	 mov	 BYTE PTR [rcx+r8], al
  00017	49 ff c0	 inc	 r8
  0001a	49 83 e9 01	 sub	 r9, 1
  0001e	75 ec		 jne	 SHORT $LL3@Xor512

; 769  : }

  00020	f3 c3		 fatret	 0
Xor512	ENDP
; Function compile flags: /Ogspy
_TEXT	ENDS
;	COMDAT copy_blocks
_TEXT	SEGMENT
dest$ = 8
src$ = 16
len$ = 24
copy_blocks PROC					; COMDAT

; 749  : 	gst_dword i;
; 750  : 	for (i = 0; i < len; i++)

  00000	4d 63 c8	 movsxd	 r9, r8d
  00003	45 85 c0	 test	 r8d, r8d
  00006	7e 11		 jle	 SHORT $LN1@copy_block
  00008	48 2b d1	 sub	 rdx, rcx
$LL3@copy_block:

; 751  : 		dest[i] = src[i];

  0000b	8a 04 0a	 mov	 al, BYTE PTR [rdx+rcx]
  0000e	88 01		 mov	 BYTE PTR [rcx], al
  00010	48 ff c1	 inc	 rcx
  00013	49 83 e9 01	 sub	 r9, 1
  00017	75 f2		 jne	 SHORT $LL3@copy_block
$LN1@copy_block:

; 752  : }

  00019	f3 c3		 fatret	 0
copy_blocks ENDP
_TEXT	ENDS
;	COMDAT pdata
pdata	SEGMENT
$pdata$Add512 DD imagerel Add512
	DD	imagerel Add512+80
	DD	imagerel $unwind$Add512
pdata	ENDS
;	COMDAT xdata
xdata	SEGMENT
$unwind$Add512 DD 040a01H
	DD	02740aH
	DD	013405H
; Function compile flags: /Ogspy
xdata	ENDS
;	COMDAT Add512
_TEXT	SEGMENT
dest$ = 8
a$ = 16
b$ = 24
Add512	PROC						; COMDAT

; 725  : {

  00000	48 89 5c 24 08	 mov	 QWORD PTR [rsp+8], rbx
  00005	48 89 7c 24 10	 mov	 QWORD PTR [rsp+16], rdi
  0000a	4c 8b ca	 mov	 r9, rdx
  0000d	4c 8b d1	 mov	 r10, rcx

; 726  : 	byte carry = 0;

  00010	40 32 ff	 xor	 dil, dil

; 727  : 	byte tmp;
; 728  : 	gst_dword i;
; 729  : 	for (i = 63; i >= 0; i--)

  00013	4d 2b c8	 sub	 r9, r8
  00016	bb 3f 00 00 00	 mov	 ebx, 63			; 0000003fH
  0001b	4d 8d 58 3f	 lea	 r11, QWORD PTR [r8+63]
  0001f	4d 2b d0	 sub	 r10, r8
$LL3@Add512:

; 730  : 	{
; 731  : 		tmp = a[i] + b[i] + carry;

  00022	43 0f b6 0c 19	 movzx	 ecx, BYTE PTR [r9+r11]
  00027	41 0f b6 03	 movzx	 eax, BYTE PTR [r11]
  0002b	8d 14 08	 lea	 edx, DWORD PTR [rax+rcx]
  0002e	40 02 d7	 add	 dl, dil

; 732  : 		carry = (byte)((gst_uword)(a[i] + b[i]) >> 8);

  00031	8d 3c 08	 lea	 edi, DWORD PTR [rax+rcx]

; 733  : 		dest[i] = tmp;

  00034	43 88 14 1a	 mov	 BYTE PTR [r10+r11], dl
  00038	66 c1 ef 08	 shr	 di, 8
  0003c	49 ff cb	 dec	 r11
  0003f	48 83 eb 01	 sub	 rbx, 1
  00043	79 dd		 jns	 SHORT $LL3@Add512

; 734  : 	}
; 735  : }

  00045	48 8b 5c 24 08	 mov	 rbx, QWORD PTR [rsp+8]
  0004a	48 8b 7c 24 10	 mov	 rdi, QWORD PTR [rsp+16]
  0004f	c3		 ret	 0
Add512	ENDP
_TEXT	ENDS
EXTRN	memset:PROC
;	COMDAT pdata
pdata	SEGMENT
$pdata$set_blocks DD imagerel set_blocks
	DD	imagerel set_blocks+24
	DD	imagerel $unwind$set_blocks
pdata	ENDS
;	COMDAT xdata
xdata	SEGMENT
$unwind$set_blocks DD 010401H
	DD	04204H
; Function compile flags: /Ogspy
xdata	ENDS
;	COMDAT set_blocks
_TEXT	SEGMENT
ptr$ = 48
val$ = 56
len$ = 64
set_blocks PROC						; COMDAT

; 708  : {

  00000	48 83 ec 28	 sub	 rsp, 40			; 00000028H

; 709  : 	gst_dword i;
; 710  : 	for (i = 0; i < len; i++)

  00004	4d 63 c0	 movsxd	 r8, r8d
  00007	4d 85 c0	 test	 r8, r8
  0000a	7e 07		 jle	 SHORT $LN3@set_blocks
  0000c	33 d2		 xor	 edx, edx
  0000e	e8 00 00 00 00	 call	 memset
$LN3@set_blocks:

; 711  : 		ptr[i] = val;
; 712  : }

  00013	48 83 c4 28	 add	 rsp, 40			; 00000028H
  00017	c3		 ret	 0
set_blocks ENDP
PUBLIC	STRIBOG_init
;	COMDAT pdata
pdata	SEGMENT
$pdata$STRIBOG_init DD imagerel $LN10
	DD	imagerel $LN10+35
	DD	imagerel $unwind$STRIBOG_init
pdata	ENDS
;	COMDAT xdata
xdata	SEGMENT
$unwind$STRIBOG_init DD 020601H
	DD	030023206H
; Function compile flags: /Ogspy
xdata	ENDS
;	COMDAT STRIBOG_init
_TEXT	SEGMENT
ctx$ = 48
STRIBOG_init PROC					; COMDAT

; 974  : {

$LN10:
  00000	40 53		 push	 rbx
  00002	48 83 ec 20	 sub	 rsp, 32			; 00000020H

; 975  : 	set_blocks((byte *)ctx, 0, sizeof(*ctx));

  00006	33 d2		 xor	 edx, edx
  00008	41 b8 81 01 00
	00		 mov	 r8d, 385		; 00000181H
  0000e	48 8b d9	 mov	 rbx, rcx
  00011	e8 00 00 00 00	 call	 memset

; 976  : 	ctx->v512[62] = 0x2; /* v512 = 0x200, or 512 in decimal */

  00016	c6 83 ff 00 00
	00 02		 mov	 BYTE PTR [rbx+255], 2

; 977  : }

  0001d	48 83 c4 20	 add	 rsp, 32			; 00000020H
  00021	5b		 pop	 rbx
  00022	c3		 ret	 0
STRIBOG_init ENDP
_TEXT	ENDS
;	COMDAT pdata
pdata	SEGMENT
$pdata$F DD	imagerel F
	DD	imagerel F+202
	DD	imagerel $unwind$F
pdata	ENDS
;	COMDAT xdata
xdata	SEGMENT
$unwind$F DD	020801H
	DD	03004b208H
; Function compile flags: /Ogspy
xdata	ENDS
;	COMDAT F
_TEXT	SEGMENT
tmp$ = 32
K$ = 112
F	PROC						; COMDAT

; 784  : {

  00000	4c 8b dc	 mov	 r11, rsp
  00003	53		 push	 rbx
  00004	48 83 ec 60	 sub	 rsp, 96			; 00000060H

; 785  : 	unsigned long long tmp[8] = {0, 0, 0, 0, 0, 0, 0, 0};

  00008	33 c0		 xor	 eax, eax
  0000a	4d 8d 53 b8	 lea	 r10, QWORD PTR [r11-72]
  0000e	4c 8b c9	 mov	 r9, rcx
  00011	49 89 43 b8	 mov	 QWORD PTR [r11-72], rax
  00015	49 89 43 c0	 mov	 QWORD PTR [r11-64], rax
  00019	49 89 43 c8	 mov	 QWORD PTR [r11-56], rax
  0001d	49 89 43 d0	 mov	 QWORD PTR [r11-48], rax
  00021	49 89 43 d8	 mov	 QWORD PTR [r11-40], rax
  00025	49 89 43 e0	 mov	 QWORD PTR [r11-32], rax
  00029	49 89 43 e8	 mov	 QWORD PTR [r11-24], rax
  0002d	49 89 43 f0	 mov	 QWORD PTR [r11-16], rax
  00031	4c 8d 41 30	 lea	 r8, QWORD PTR [rcx+48]
  00035	44 8d 58 08	 lea	 r11d, QWORD PTR [rax+8]
  00039	48 8d 1d 00 00
	00 00		 lea	 rbx, OFFSET FLAT:T
$LL3@F:

; 786  : 	int i;
; 787  : 	
; 788  : 	for (i = 0; i < 8; i++)
; 789  : 	{
; 790  : 		tmp[i] ^= T[0][K[i + 56]];
; 791  : 		tmp[i] ^= T[1][K[i + 48]];
; 792  : 		tmp[i] ^= T[2][K[i + 40]];
; 793  : 		tmp[i] ^= T[3][K[i + 32]];
; 794  : 		tmp[i] ^= T[4][K[i + 24]];
; 795  : 		tmp[i] ^= T[5][K[i + 16]];
; 796  : 		tmp[i] ^= T[6][K[i + 8]];
; 797  : 		tmp[i] ^= T[7][K[i + 0]];

  00040	41 0f b6 40 d8	 movzx	 eax, BYTE PTR [r8-40]
  00045	41 0f b6 48 d0	 movzx	 ecx, BYTE PTR [r8-48]
  0004a	48 8b 94 cb 00
	38 00 00	 mov	 rdx, QWORD PTR [rbx+rcx*8+14336]
  00052	48 33 94 c3 00
	30 00 00	 xor	 rdx, QWORD PTR [rbx+rax*8+12288]
  0005a	41 0f b6 40 e0	 movzx	 eax, BYTE PTR [r8-32]
  0005f	48 33 94 c3 00
	28 00 00	 xor	 rdx, QWORD PTR [rbx+rax*8+10240]
  00067	41 0f b6 40 e8	 movzx	 eax, BYTE PTR [r8-24]
  0006c	48 33 94 c3 00
	20 00 00	 xor	 rdx, QWORD PTR [rbx+rax*8+8192]
  00074	41 0f b6 40 f0	 movzx	 eax, BYTE PTR [r8-16]
  00079	48 33 94 c3 00
	18 00 00	 xor	 rdx, QWORD PTR [rbx+rax*8+6144]
  00081	41 0f b6 40 f8	 movzx	 eax, BYTE PTR [r8-8]
  00086	48 33 94 c3 00
	10 00 00	 xor	 rdx, QWORD PTR [rbx+rax*8+4096]
  0008e	41 0f b6 40 08	 movzx	 eax, BYTE PTR [r8+8]
  00093	48 33 14 c3	 xor	 rdx, QWORD PTR [rbx+rax*8]
  00097	41 0f b6 00	 movzx	 eax, BYTE PTR [r8]
  0009b	49 ff c0	 inc	 r8
  0009e	48 33 94 c3 00
	08 00 00	 xor	 rdx, QWORD PTR [rbx+rax*8+2048]
  000a6	49 31 12	 xor	 QWORD PTR [r10], rdx
  000a9	49 83 c2 08	 add	 r10, 8
  000ad	49 83 eb 01	 sub	 r11, 1
  000b1	75 8d		 jne	 SHORT $LL3@F

; 798  : 	}
; 799  : 	copy_blocks(K, (byte *)tmp, 64);

  000b3	45 8d 43 40	 lea	 r8d, QWORD PTR [r11+64]
  000b7	48 8d 54 24 20	 lea	 rdx, QWORD PTR tmp$[rsp]
  000bc	49 8b c9	 mov	 rcx, r9
  000bf	e8 00 00 00 00	 call	 memcpy

; 800  : }

  000c4	48 83 c4 60	 add	 rsp, 96			; 00000060H
  000c8	5b		 pop	 rbx
  000c9	c3		 ret	 0
F	ENDP
;	COMDAT pdata
pdata	SEGMENT
$pdata$E DD	imagerel E
	DD	imagerel E+172
	DD	imagerel $unwind$E
pdata	ENDS
;	COMDAT xdata
xdata	SEGMENT
$unwind$E DD	081401H
	DD	086414H
	DD	075414H
	DD	063414H
	DD	070103214H
; Function compile flags: /Ogspy
xdata	ENDS
;	COMDAT E
_TEXT	SEGMENT
K$ = 48
m$ = 56
T$ = 64
E	PROC						; COMDAT

; 813  : {

  00000	48 89 5c 24 08	 mov	 QWORD PTR [rsp+8], rbx
  00005	48 89 6c 24 10	 mov	 QWORD PTR [rsp+16], rbp
  0000a	48 89 74 24 18	 mov	 QWORD PTR [rsp+24], rsi
  0000f	57		 push	 rdi
  00010	48 83 ec 20	 sub	 rsp, 32			; 00000020H
  00014	49 8b e8	 mov	 rbp, r8

; 814  : 	gst_dword i;
; 815  : 	Xor512(T, K, m);

  00017	4c 8b c1	 mov	 r8, rcx
  0001a	48 8b f1	 mov	 rsi, rcx
  0001d	4c 8b cd	 mov	 r9, rbp
  00020	4c 2b c2	 sub	 r8, rdx
  00023	b9 40 00 00 00	 mov	 ecx, 64			; 00000040H
  00028	4c 2b ca	 sub	 r9, rdx
$LL8@E:
  0002b	41 8a 04 10	 mov	 al, BYTE PTR [r8+rdx]
  0002f	32 02		 xor	 al, BYTE PTR [rdx]
  00031	41 88 04 11	 mov	 BYTE PTR [r9+rdx], al
  00035	48 ff c2	 inc	 rdx
  00038	48 83 e9 01	 sub	 rcx, 1
  0003c	75 ed		 jne	 SHORT $LL8@E
  0003e	48 8b fe	 mov	 rdi, rsi

; 816  : 	for (i = 0; i < 12; i++)

  00041	48 8d 1d 00 00
	00 00		 lea	 rbx, OFFSET FLAT:C
  00048	48 2b fd	 sub	 rdi, rbp
$LL3@E:

; 817  : 	{
; 818  : 		F(T);

  0004b	48 8b cd	 mov	 rcx, rbp
  0004e	e8 00 00 00 00	 call	 F

; 819  : 		Xor512(K, K, (byte *)C[i]);

  00053	45 33 db	 xor	 r11d, r11d
$LL13@E:
  00056	42 8a 04 1b	 mov	 al, BYTE PTR [rbx+r11]
  0005a	41 30 04 33	 xor	 BYTE PTR [r11+rsi], al
  0005e	49 ff c3	 inc	 r11
  00061	49 83 fb 40	 cmp	 r11, 64			; 00000040H
  00065	7c ef		 jl	 SHORT $LL13@E

; 820  : 		F(K);

  00067	48 8b ce	 mov	 rcx, rsi
  0006a	e8 00 00 00 00	 call	 F
  0006f	4c 8b dd	 mov	 r11, rbp
  00072	b9 40 00 00 00	 mov	 ecx, 64			; 00000040H

; 821  : 		Xor512(T, K, T);

$LL18@E:
  00077	42 8a 04 1f	 mov	 al, BYTE PTR [rdi+r11]
  0007b	41 30 03	 xor	 BYTE PTR [r11], al
  0007e	49 ff c3	 inc	 r11
  00081	48 83 e9 01	 sub	 rcx, 1
  00085	75 f0		 jne	 SHORT $LL18@E
  00087	48 8d 05 00 03
	00 00		 lea	 rax, OFFSET FLAT:C+768
  0008e	48 83 c3 40	 add	 rbx, 64			; 00000040H
  00092	48 3b d8	 cmp	 rbx, rax
  00095	7c b4		 jl	 SHORT $LL3@E

; 822  : 	}
; 823  : }

  00097	48 8b 5c 24 30	 mov	 rbx, QWORD PTR [rsp+48]
  0009c	48 8b 6c 24 38	 mov	 rbp, QWORD PTR [rsp+56]
  000a1	48 8b 74 24 40	 mov	 rsi, QWORD PTR [rsp+64]
  000a6	48 83 c4 20	 add	 rsp, 32			; 00000020H
  000aa	5f		 pop	 rdi
  000ab	c3		 ret	 0
E	ENDP
PUBLIC	__$ArrayPad$
PUBLIC	g_N
;	COMDAT pdata
pdata	SEGMENT
$pdata$g_N DD	imagerel $LN52
	DD	imagerel $LN52+319
	DD	imagerel $unwind$g_N
pdata	ENDS
;	COMDAT xdata
xdata	SEGMENT
$unwind$g_N DD	092919H
	DD	01b6417H
	DD	01a5417H
	DD	0183417H
	DD	0160117H
	DD	07010H
	DD	imagerel __GSHandlerCheck
	DD	0a0H
; Function compile flags: /Ogspy
xdata	ENDS
;	COMDAT g_N
_TEXT	SEGMENT
K$ = 32
T$ = 96
__$ArrayPad$ = 160
N$ = 192
h$ = 200
m$ = 208
g_N	PROC						; COMDAT

; 949  : {

$LN52:
  00000	48 89 5c 24 08	 mov	 QWORD PTR [rsp+8], rbx
  00005	48 89 6c 24 18	 mov	 QWORD PTR [rsp+24], rbp
  0000a	48 89 74 24 20	 mov	 QWORD PTR [rsp+32], rsi
  0000f	57		 push	 rdi
  00010	48 81 ec b0 00
	00 00		 sub	 rsp, 176		; 000000b0H
  00017	48 8b 05 00 00
	00 00		 mov	 rax, QWORD PTR __security_cookie
  0001e	48 33 c4	 xor	 rax, rsp
  00021	48 89 84 24 a0
	00 00 00	 mov	 QWORD PTR __$ArrayPad$[rsp], rax
  00029	49 8b e8	 mov	 rbp, r8

; 950  : 	byte K[64];
; 951  : 	byte T[64];
; 952  : 
; 953  : 	Xor512(K, h, N);

  0002c	4c 8d 44 24 20	 lea	 r8, QWORD PTR K$[rsp]
  00031	48 8b f2	 mov	 rsi, rdx
  00034	48 2b d1	 sub	 rdx, rcx
  00037	41 b9 40 00 00
	00		 mov	 r9d, 64			; 00000040H
  0003d	4c 2b c1	 sub	 r8, rcx
$LL5@g_N:
  00040	8a 04 0a	 mov	 al, BYTE PTR [rdx+rcx]
  00043	32 01		 xor	 al, BYTE PTR [rcx]
  00045	41 88 04 08	 mov	 BYTE PTR [r8+rcx], al
  00049	48 ff c1	 inc	 rcx
  0004c	49 83 e9 01	 sub	 r9, 1
  00050	75 ee		 jne	 SHORT $LL5@g_N

; 954  : 
; 955  : #ifndef GST_WINDOWS_BOOT
; 956  : 	F(K);

  00052	48 8d 4c 24 20	 lea	 rcx, QWORD PTR K$[rsp]
  00057	e8 00 00 00 00	 call	 F

; 957  : #else
; 958  : 	S(K);P(K);L(K);
; 959  : #endif
; 960  : 	E(K, m, T);

  0005c	33 db		 xor	 ebx, ebx
  0005e	48 8d 44 24 20	 lea	 rax, QWORD PTR K$[rsp]
  00063	4c 8b c5	 mov	 r8, rbp
  00066	48 8b d3	 mov	 rdx, rbx
  00069	4c 2b c0	 sub	 r8, rax
$LL15@g_N:
  0006c	48 8d 44 14 20	 lea	 rax, QWORD PTR K$[rsp+rdx]
  00071	48 ff c2	 inc	 rdx
  00074	41 8a 0c 00	 mov	 cl, BYTE PTR [r8+rax]
  00078	32 08		 xor	 cl, BYTE PTR [rax]
  0007a	48 83 fa 40	 cmp	 rdx, 64			; 00000040H
  0007e	88 4c 14 5f	 mov	 BYTE PTR T$[rsp+rdx-1], cl
  00082	7c e8		 jl	 SHORT $LL15@g_N
  00084	48 8d 3d 00 00
	00 00		 lea	 rdi, OFFSET FLAT:C
$LL10@g_N:
  0008b	48 8d 4c 24 60	 lea	 rcx, QWORD PTR T$[rsp]
  00090	e8 00 00 00 00	 call	 F
  00095	4c 8b db	 mov	 r11, rbx
$LL20@g_N:
  00098	42 8a 04 1f	 mov	 al, BYTE PTR [rdi+r11]
  0009c	49 ff c3	 inc	 r11
  0009f	42 30 44 1c 1f	 xor	 BYTE PTR K$[rsp+r11-1], al
  000a4	49 83 fb 40	 cmp	 r11, 64			; 00000040H
  000a8	7c ee		 jl	 SHORT $LL20@g_N
  000aa	48 8d 4c 24 20	 lea	 rcx, QWORD PTR K$[rsp]
  000af	e8 00 00 00 00	 call	 F
  000b4	4c 8b db	 mov	 r11, rbx
$LL25@g_N:
  000b7	42 8a 44 1c 20	 mov	 al, BYTE PTR K$[rsp+r11]
  000bc	49 ff c3	 inc	 r11
  000bf	42 30 44 1c 5f	 xor	 BYTE PTR T$[rsp+r11-1], al
  000c4	49 83 fb 40	 cmp	 r11, 64			; 00000040H
  000c8	7c ed		 jl	 SHORT $LL25@g_N
  000ca	48 8d 05 00 03
	00 00		 lea	 rax, OFFSET FLAT:C+768
  000d1	48 83 c7 40	 add	 rdi, 64			; 00000040H
  000d5	48 3b f8	 cmp	 rdi, rax
  000d8	7c b1		 jl	 SHORT $LL10@g_N

; 961  : 	Xor512(T, T, h);

  000da	48 8d 44 24 60	 lea	 rax, QWORD PTR T$[rsp]
  000df	48 8b d3	 mov	 rdx, rbx
  000e2	48 2b f0	 sub	 rsi, rax
$LL30@g_N:
  000e5	48 8d 4c 14 60	 lea	 rcx, QWORD PTR T$[rsp+rdx]
  000ea	48 ff c2	 inc	 rdx
  000ed	8a 04 0e	 mov	 al, BYTE PTR [rsi+rcx]
  000f0	30 01		 xor	 BYTE PTR [rcx], al
  000f2	48 83 fa 40	 cmp	 rdx, 64			; 00000040H
  000f6	7c ed		 jl	 SHORT $LL30@g_N

; 962  : 	Xor512(h, T, m);

  000f8	48 8d 44 24 60	 lea	 rax, QWORD PTR T$[rsp]
  000fd	48 2b e8	 sub	 rbp, rax
$LL35@g_N:
  00100	48 8d 4c 1c 60	 lea	 rcx, QWORD PTR T$[rsp+rbx]
  00105	48 ff c3	 inc	 rbx
  00108	8a 04 29	 mov	 al, BYTE PTR [rcx+rbp]
  0010b	32 01		 xor	 al, BYTE PTR [rcx]
  0010d	48 83 fb 40	 cmp	 rbx, 64			; 00000040H
  00111	88 04 0e	 mov	 BYTE PTR [rsi+rcx], al
  00114	7c ea		 jl	 SHORT $LL35@g_N

; 963  : }

  00116	48 8b 8c 24 a0
	00 00 00	 mov	 rcx, QWORD PTR __$ArrayPad$[rsp]
  0011e	48 33 cc	 xor	 rcx, rsp
  00121	e8 00 00 00 00	 call	 __security_check_cookie
  00126	4c 8d 9c 24 b0
	00 00 00	 lea	 r11, QWORD PTR [rsp+176]
  0012e	49 8b 5b 10	 mov	 rbx, QWORD PTR [r11+16]
  00132	49 8b 6b 20	 mov	 rbp, QWORD PTR [r11+32]
  00136	49 8b 73 28	 mov	 rsi, QWORD PTR [r11+40]
  0013a	49 8b e3	 mov	 rsp, r11
  0013d	5f		 pop	 rdi
  0013e	c3		 ret	 0
g_N	ENDP
PUBLIC	__$ArrayPad$
PUBLIC	STRIBOG_finalize
;	COMDAT pdata
pdata	SEGMENT
$pdata$STRIBOG_finalize DD imagerel $LN25
	DD	imagerel $LN25+316
	DD	imagerel $unwind$STRIBOG_finalize
pdata	ENDS
;	COMDAT xdata
xdata	SEGMENT
$unwind$STRIBOG_finalize DD 081f19H
	DD	0163410H
	DD	0d00cd210H
	DD	07008c00aH
	DD	050066007H
	DD	imagerel __GSHandlerCheck
	DD	060H
; Function compile flags: /Ogspy
xdata	ENDS
;	COMDAT STRIBOG_finalize
_TEXT	SEGMENT
M$ = 32
__$ArrayPad$ = 96
ctx$ = 160
out$ = 168
STRIBOG_finalize PROC					; COMDAT

; 1061 : {

$LN25:
  00000	48 89 5c 24 18	 mov	 QWORD PTR [rsp+24], rbx
  00005	55		 push	 rbp
  00006	56		 push	 rsi
  00007	57		 push	 rdi
  00008	41 54		 push	 r12
  0000a	41 55		 push	 r13
  0000c	48 83 ec 70	 sub	 rsp, 112		; 00000070H
  00010	48 8b 05 00 00
	00 00		 mov	 rax, QWORD PTR __security_cookie
  00017	48 33 c4	 xor	 rax, rsp
  0001a	48 89 44 24 60	 mov	 QWORD PTR __$ArrayPad$[rsp], rax
  0001f	4c 8b e2	 mov	 r12, rdx

; 1062 : 	byte M[64];
; 1063 : 
; 1064 : 	/*Pad the message with repeated 0x00, ending in a 0x01*/
; 1065 : 	set_blocks((byte *)M, 0, 64);

  00022	33 d2		 xor	 edx, edx
  00024	48 8b e9	 mov	 rbp, rcx
  00027	44 8d 42 40	 lea	 r8d, QWORD PTR [rdx+64]
  0002b	48 8d 4c 24 20	 lea	 rcx, QWORD PTR M$[rsp]
  00030	e8 00 00 00 00	 call	 memset

; 1066 : 	if (ctx->left != 64)

  00035	44 8a 85 80 00
	00 00		 mov	 r8b, BYTE PTR [rbp+128]
  0003c	41 80 f8 40	 cmp	 r8b, 64			; 00000040H
  00040	74 0f		 je	 SHORT $LN1@STRIBOG_fi

; 1067 : 		M[63 - ctx->left] = 0x01;

  00042	48 8d 4c 24 5f	 lea	 rcx, QWORD PTR M$[rsp+63]
  00047	41 0f b6 c0	 movzx	 eax, r8b
  0004b	48 2b c8	 sub	 rcx, rax
  0004e	c6 01 01	 mov	 BYTE PTR [rcx], 1
$LN1@STRIBOG_fi:

; 1068 : 	
; 1069 : 	/* Copy ctx->left bytes from ctx->remainder to the back of M */
; 1070 : 	copy_blocks((byte *)M + 64 - ctx->left, ctx->remainder, ctx->left);

  00051	41 0f b6 c8	 movzx	 ecx, r8b
  00055	41 0f b6 c0	 movzx	 eax, r8b
  00059	33 f6		 xor	 esi, esi
  0005b	4c 8d 44 24 60	 lea	 r8, QWORD PTR M$[rsp+64]
  00060	48 8b d6	 mov	 rdx, rsi
  00063	4c 2b c0	 sub	 r8, rax
  00066	48 3b ce	 cmp	 rcx, rsi
  00069	7e 13		 jle	 SHORT $LN9@STRIBOG_fi
$LL11@STRIBOG_fi:
  0006b	8a 84 2a 81 00
	00 00		 mov	 al, BYTE PTR [rdx+rbp+129]
  00072	42 88 04 02	 mov	 BYTE PTR [rdx+r8], al
  00076	48 ff c2	 inc	 rdx
  00079	48 3b d1	 cmp	 rdx, rcx
  0007c	7c ed		 jl	 SHORT $LL11@STRIBOG_fi
$LN9@STRIBOG_fi:

; 1071 : 	
; 1072 : 	/* Hash the last (padded) message block */
; 1073 : 	g_N(ctx->N, ctx->hash, M);

  0007e	4c 8d 44 24 20	 lea	 r8, QWORD PTR M$[rsp]
  00083	48 8d 55 40	 lea	 rdx, QWORD PTR [rbp+64]
  00087	48 8b cd	 mov	 rcx, rbp
  0008a	e8 00 00 00 00	 call	 g_N

; 1074 : 	
; 1075 : 	/* Add ctx->left (max value represented by bitmask 0x3FF) to N
; 1076 : 	   This also overwrites the previous value of 0x200 set to v512*/
; 1077 : 	ctx->v512[63] = (ctx->left*8) & 0xFF;

  0008f	44 0f b6 9d 80
	00 00 00	 movzx	 r11d, BYTE PTR [rbp+128]

; 1078 : 	ctx->v512[62] = ((ctx->left*8) & 0x300)>>8;
; 1079 : 	Add512(ctx->N, ctx->v512, ctx->N);

  00097	48 8d 95 c1 00
	00 00		 lea	 rdx, QWORD PTR [rbp+193]
  0009e	41 8a c3	 mov	 al, r11b
  000a1	41 c1 e3 03	 shl	 r11d, 3
  000a5	4c 8b c5	 mov	 r8, rbp
  000a8	41 c1 fb 08	 sar	 r11d, 8
  000ac	c0 e0 03	 shl	 al, 3
  000af	48 8b cd	 mov	 rcx, rbp
  000b2	41 80 e3 03	 and	 r11b, 3
  000b6	88 85 00 01 00
	00		 mov	 BYTE PTR [rbp+256], al
  000bc	44 88 9d ff 00
	00 00		 mov	 BYTE PTR [rbp+255], r11b
  000c3	e8 00 00 00 00	 call	 Add512

; 1080 : 
; 1081 : 	/* Add the final message to EPSILON */
; 1082 : 	Add512(ctx->EPSILON, M, ctx->EPSILON);

  000c8	4c 8d 85 41 01
	00 00		 lea	 r8, QWORD PTR [rbp+321]
  000cf	48 8d 54 24 20	 lea	 rdx, QWORD PTR M$[rsp]
  000d4	48 8d 8d 41 01
	00 00		 lea	 rcx, QWORD PTR [rbp+321]
  000db	e8 00 00 00 00	 call	 Add512

; 1083 : 	
; 1084 : 	/* Hash the total message length and sum */
; 1085 : 	g_N(ctx->v0, ctx->hash, ctx->N);

  000e0	48 8d 55 40	 lea	 rdx, QWORD PTR [rbp+64]
  000e4	48 8d 8d 01 01
	00 00		 lea	 rcx, QWORD PTR [rbp+257]
  000eb	4c 8b c5	 mov	 r8, rbp
  000ee	e8 00 00 00 00	 call	 g_N

; 1086 : 	g_N(ctx->v0, ctx->hash, ctx->EPSILON);

  000f3	4c 8d 85 41 01
	00 00		 lea	 r8, QWORD PTR [rbp+321]
  000fa	48 8d 55 40	 lea	 rdx, QWORD PTR [rbp+64]
  000fe	48 8d 8d 01 01
	00 00		 lea	 rcx, QWORD PTR [rbp+257]
  00105	e8 00 00 00 00	 call	 g_N

; 1087 : 	
; 1088 : 	copy_blocks(out, ctx->hash, 64);

$LL16@STRIBOG_fi:
  0010a	8a 44 35 40	 mov	 al, BYTE PTR [rbp+rsi+64]
  0010e	42 88 04 26	 mov	 BYTE PTR [rsi+r12], al
  00112	48 ff c6	 inc	 rsi
  00115	48 83 fe 40	 cmp	 rsi, 64			; 00000040H
  00119	7c ef		 jl	 SHORT $LL16@STRIBOG_fi

; 1089 : }

  0011b	48 8b 4c 24 60	 mov	 rcx, QWORD PTR __$ArrayPad$[rsp]
  00120	48 33 cc	 xor	 rcx, rsp
  00123	e8 00 00 00 00	 call	 __security_check_cookie
  00128	48 8b 9c 24 b0
	00 00 00	 mov	 rbx, QWORD PTR [rsp+176]
  00130	48 83 c4 70	 add	 rsp, 112		; 00000070H
  00134	41 5d		 pop	 r13
  00136	41 5c		 pop	 r12
  00138	5f		 pop	 rdi
  00139	5e		 pop	 rsi
  0013a	5d		 pop	 rbp
  0013b	c3		 ret	 0
STRIBOG_finalize ENDP
_TEXT	ENDS
PUBLIC	STRIBOG_add
;	COMDAT pdata
pdata	SEGMENT
$pdata$STRIBOG_add DD imagerel $LN39
	DD	imagerel $LN39+427
	DD	imagerel $unwind$STRIBOG_add
pdata	ENDS
;	COMDAT xdata
xdata	SEGMENT
$unwind$STRIBOG_add DD 0c1c01H
	DD	0c641cH
	DD	0b541cH
	DD	0a341cH
	DD	0f018321cH
	DD	0d014e016H
	DD	07010c012H
; Function compile flags: /Ogspy
xdata	ENDS
;	COMDAT STRIBOG_add
_TEXT	SEGMENT
ctx$ = 80
msg$ = 88
len$ = 96
STRIBOG_add PROC					; COMDAT

; 993  : {

$LN39:
  00000	48 89 5c 24 08	 mov	 QWORD PTR [rsp+8], rbx
  00005	48 89 6c 24 10	 mov	 QWORD PTR [rsp+16], rbp
  0000a	48 89 74 24 18	 mov	 QWORD PTR [rsp+24], rsi
  0000f	57		 push	 rdi
  00010	41 54		 push	 r12
  00012	41 55		 push	 r13
  00014	41 56		 push	 r14
  00016	41 57		 push	 r15
  00018	48 83 ec 20	 sub	 rsp, 32			; 00000020H
  0001c	48 8b f9	 mov	 rdi, rcx
  0001f	41 8b e8	 mov	 ebp, r8d
  00022	48 8b f2	 mov	 rsi, rdx

; 994  : 	/* Current message position and the position we're not supposed to cross */
; 995  : 	byte *msg_ptr = msg;
; 996  : 	byte *msg_lim = (msg_ptr + len) - 64;

  00025	4c 8d 6c 15 c0	 lea	 r13, QWORD PTR [rbp+rdx-64]

; 997  : 
; 998  : 	if (ctx->left)

  0002a	8a 97 80 00 00
	00		 mov	 dl, BYTE PTR [rdi+128]
  00030	45 33 e4	 xor	 r12d, r12d
  00033	41 8b c8	 mov	 ecx, r8d
  00036	41 3a d4	 cmp	 dl, r12b
  00039	0f 84 45 01 00
	00		 je	 $LN6@STRIBOG_ad

; 999  : 	{
; 1000 : 		/*Check if there are enough bytes available to pass a round*/
; 1001 : 		if ((gst_udword)(64 - ctx->left) > len)

  0003f	0f b6 c2	 movzx	 eax, dl
  00042	45 8d 44 24 40	 lea	 r8d, QWORD PTR [r12+64]
  00047	44 2b c0	 sub	 r8d, eax

; 1002 : 		{
; 1003 : 			copy_blocks(ctx->remainder + ctx->left, msg_ptr, (gst_dword)len);

  0004a	0f b6 c2	 movzx	 eax, dl
  0004d	48 8d 94 38 81
	00 00 00	 lea	 rdx, QWORD PTR [rax+rdi+129]
  00055	44 3b c5	 cmp	 r8d, ebp
  00058	76 22		 jbe	 SHORT $LN5@STRIBOG_ad
  0005a	41 3b ec	 cmp	 ebp, r12d
  0005d	7e 11		 jle	 SHORT $LN9@STRIBOG_ad
  0005f	48 2b f2	 sub	 rsi, rdx
$LL11@STRIBOG_ad:
  00062	8a 04 16	 mov	 al, BYTE PTR [rsi+rdx]
  00065	88 02		 mov	 BYTE PTR [rdx], al
  00067	48 ff c2	 inc	 rdx
  0006a	48 83 e9 01	 sub	 rcx, 1
  0006e	75 f2		 jne	 SHORT $LL11@STRIBOG_ad
$LN9@STRIBOG_ad:

; 1004 : 			ctx->left += (byte)len;

  00070	40 00 af 80 00
	00 00		 add	 BYTE PTR [rdi+128], bpl

; 1005 : 			return;

  00077	e9 eb 00 00 00	 jmp	 $LN7@STRIBOG_ad
$LN5@STRIBOG_ad:

; 1006 : 		}
; 1007 : 
; 1008 : 		/* These won't underflow. 64 - ctx->left is the
; 1009 : 		   amount of msg_ptr that was consumed */
; 1010 : 		copy_blocks(ctx->remainder + ctx->left, msg_ptr + len - (64 - ctx->left), 64 - ctx->left);

  0007c	4d 63 c8	 movsxd	 r9, r8d
  0007f	49 2b c9	 sub	 rcx, r9
  00082	48 03 ce	 add	 rcx, rsi
  00085	4d 3b cc	 cmp	 r9, r12
  00088	7e 11		 jle	 SHORT $LN14@STRIBOG_ad
  0008a	48 2b ca	 sub	 rcx, rdx
$LL16@STRIBOG_ad:
  0008d	8a 04 11	 mov	 al, BYTE PTR [rcx+rdx]
  00090	88 02		 mov	 BYTE PTR [rdx], al
  00092	48 ff c2	 inc	 rdx
  00095	49 83 e9 01	 sub	 r9, 1
  00099	75 f2		 jne	 SHORT $LL16@STRIBOG_ad
$LN14@STRIBOG_ad:

; 1011 : 		msg_lim -= (64 - ctx->left);

  0009b	0f b6 8f 80 00
	00 00		 movzx	 ecx, BYTE PTR [rdi+128]
  000a2	b8 40 00 00 00	 mov	 eax, 64			; 00000040H

; 1012 : 		len -= (64 - ctx->left);
; 1013 : 
; 1014 : 		/*Perform a round on the now 512-bit large remainder*/
; 1015 : 		g_N(ctx->N, ctx->hash, ctx->remainder);

  000a7	48 8d 57 40	 lea	 rdx, QWORD PTR [rdi+64]
  000ab	2b c1		 sub	 eax, ecx
  000ad	8d 6c 0d c0	 lea	 ebp, DWORD PTR [rbp+rcx-64]
  000b1	4c 8d 87 81 00
	00 00		 lea	 r8, QWORD PTR [rdi+129]
  000b8	48 98		 cdqe
  000ba	48 8b cf	 mov	 rcx, rdi
  000bd	4c 2b e8	 sub	 r13, rax
  000c0	e8 00 00 00 00	 call	 g_N

; 1016 : 		Add512(ctx->N, ctx->v512, ctx->N);

  000c5	48 8d 97 c1 00
	00 00		 lea	 rdx, QWORD PTR [rdi+193]
  000cc	4c 8b c7	 mov	 r8, rdi
  000cf	48 8b cf	 mov	 rcx, rdi
  000d2	e8 00 00 00 00	 call	 Add512

; 1017 : 		Add512(ctx->EPSILON, ctx->remainder, ctx->EPSILON);

  000d7	4c 8d 87 41 01
	00 00		 lea	 r8, QWORD PTR [rdi+321]
  000de	48 8d 97 81 00
	00 00		 lea	 rdx, QWORD PTR [rdi+129]
  000e5	49 8b c8	 mov	 rcx, r8
  000e8	e8 00 00 00 00	 call	 Add512

; 1018 : 		ctx->left = 0;

  000ed	44 88 a7 80 00
	00 00		 mov	 BYTE PTR [rdi+128], r12b
$LN32@STRIBOG_ad:

; 1034 : 	}
; 1035 : 	/* While there is more than 64 bytes available, do a round */
; 1036 : 	while (msg_ptr < msg_lim)

  000f4	49 3b f5	 cmp	 rsi, r13
  000f7	73 52		 jae	 SHORT $LL26@STRIBOG_ad
  000f9	4c 2b ee	 sub	 r13, rsi
  000fc	49 ff cd	 dec	 r13
  000ff	49 c1 ed 06	 shr	 r13, 6
  00103	49 ff c5	 inc	 r13
$LL2@STRIBOG_ad:

; 1037 : 	{
; 1038 : 		g_N(ctx->N, ctx->hash, LAST_BLOCK(msg_ptr, len));

  00106	48 8d 5c 35 c0	 lea	 rbx, QWORD PTR [rbp+rsi-64]
  0010b	48 8d 57 40	 lea	 rdx, QWORD PTR [rdi+64]
  0010f	48 8b cf	 mov	 rcx, rdi
  00112	4c 8b c3	 mov	 r8, rbx
  00115	e8 00 00 00 00	 call	 g_N

; 1039 : 		Add512(ctx->N, ctx->v512, ctx->N);

  0011a	48 8d 97 c1 00
	00 00		 lea	 rdx, QWORD PTR [rdi+193]
  00121	4c 8b c7	 mov	 r8, rdi
  00124	48 8b cf	 mov	 rcx, rdi
  00127	e8 00 00 00 00	 call	 Add512

; 1040 : 		Add512(ctx->EPSILON, LAST_BLOCK(msg_ptr, len), ctx->EPSILON);

  0012c	4c 8d 87 41 01
	00 00		 lea	 r8, QWORD PTR [rdi+321]
  00133	48 8d 8f 41 01
	00 00		 lea	 rcx, QWORD PTR [rdi+321]
  0013a	48 8b d3	 mov	 rdx, rbx
  0013d	e8 00 00 00 00	 call	 Add512

; 1041 : 		SUBTRACT_BLOCK(msg_lim);
; 1042 : 		SUBTRACT_BLOCK(len);

  00142	83 c5 c0	 add	 ebp, -64		; ffffffc0H
  00145	49 83 ed 01	 sub	 r13, 1
  00149	75 bb		 jne	 SHORT $LL2@STRIBOG_ad

; 1043 : 	}
; 1044 : 	copy_blocks(ctx->remainder, msg_ptr, 64);

$LL26@STRIBOG_ad:
  0014b	41 8a 04 34	 mov	 al, BYTE PTR [r12+rsi]
  0014f	49 ff c4	 inc	 r12
  00152	49 83 fc 40	 cmp	 r12, 64			; 00000040H
  00156	42 88 84 27 80
	00 00 00	 mov	 BYTE PTR [rdi+r12+128], al
  0015e	7c eb		 jl	 SHORT $LL26@STRIBOG_ad

; 1030 : 	{
; 1031 : 		copy_blocks(ctx->remainder, msg_ptr, (gst_dword)len);

$LN19@STRIBOG_ad:

; 1045 : 	ctx->left = (byte)len;

  00160	40 88 af 80 00
	00 00		 mov	 BYTE PTR [rdi+128], bpl
$LN7@STRIBOG_ad:

; 1046 : }

  00167	48 8b 5c 24 50	 mov	 rbx, QWORD PTR [rsp+80]
  0016c	48 8b 6c 24 58	 mov	 rbp, QWORD PTR [rsp+88]
  00171	48 8b 74 24 60	 mov	 rsi, QWORD PTR [rsp+96]
  00176	48 83 c4 20	 add	 rsp, 32			; 00000020H
  0017a	41 5f		 pop	 r15
  0017c	41 5e		 pop	 r14
  0017e	41 5d		 pop	 r13
  00180	41 5c		 pop	 r12
  00182	5f		 pop	 rdi
  00183	c3		 ret	 0
$LN6@STRIBOG_ad:

; 1019 : 	}
; 1020 : 	/* Not enough left to perform a full round */
; 1021 : /**
; 1022 :  *
; 1023 :  *	\fn else if (len < 64)
; 1024 :  *	\brief
; 1025 :  *	\param[in] len <
; 1026 :  *	\return
; 1027 :  *
; 1028 :  */
; 1029 : 	else if (len < 64)

  00184	83 fd 40	 cmp	 ebp, 64			; 00000040H
  00187	0f 83 67 ff ff
	ff		 jae	 $LN32@STRIBOG_ad

; 1030 : 	{
; 1031 : 		copy_blocks(ctx->remainder, msg_ptr, (gst_dword)len);

  0018d	41 3b ec	 cmp	 ebp, r12d
  00190	7e ce		 jle	 SHORT $LN19@STRIBOG_ad
  00192	48 8d 97 81 00
	00 00		 lea	 rdx, QWORD PTR [rdi+129]
$LL21@STRIBOG_ad:
  00199	8a 06		 mov	 al, BYTE PTR [rsi]
  0019b	48 ff c6	 inc	 rsi
  0019e	88 02		 mov	 BYTE PTR [rdx], al
  001a0	48 ff c2	 inc	 rdx
  001a3	48 83 e9 01	 sub	 rcx, 1
  001a7	75 f0		 jne	 SHORT $LL21@STRIBOG_ad

; 1032 : 		ctx->left = (byte)len;
; 1033 : 		return;

  001a9	eb b5		 jmp	 SHORT $LN19@STRIBOG_ad
STRIBOG_add ENDP
END
