; Listing generated by Microsoft (R) Optimizing Compiler Version 19.00.24215.1 

	TITLE	C:\Users\Alexis\Documents\FinalGostCrypt\Sources_GostCrypt_Windows_1.3.1\Common\Dictionary.c
	.686P
	.XMM
	include listing.inc
	.model	flat

INCLUDELIB LIBCMT
INCLUDELIB OLDNAMES

CONST	SEGMENT
?piecewise_construct@std@@3Upiecewise_construct_t@1@B	ORG $+1 ; std::piecewise_construct
CONST	ENDS
PUBLIC	_AddDictionaryEntry
PUBLIC	_GetDictionaryValue
PUBLIC	_GetDictionaryValueByInt
PUBLIC	_AddPoolData
PUBLIC	_ClearDictionaryPool
PUBLIC	?compare@?$char_traits@D@std@@SAHPBD0I@Z	; std::char_traits<char>::compare
PUBLIC	?allocate@?$_Wrap_alloc@V?$allocator@D@std@@@std@@QAEPADI@Z ; std::_Wrap_alloc<std::allocator<char> >::allocate
PUBLIC	?deallocate@?$_Wrap_alloc@V?$allocator@D@std@@@std@@QAEXPADI@Z ; std::_Wrap_alloc<std::allocator<char> >::deallocate
PUBLIC	?_Assign_rv@?$basic_string@DU?$char_traits@D@std@@V?$allocator@D@2@@std@@QAEX$$QAV12@@Z ; std::basic_string<char,std::char_traits<char>,std::allocator<char> >::_Assign_rv
PUBLIC	?assign@?$basic_string@DU?$char_traits@D@std@@V?$allocator@D@2@@std@@QAEAAV12@ABV12@II@Z ; std::basic_string<char,std::char_traits<char>,std::allocator<char> >::assign
PUBLIC	?assign@?$basic_string@DU?$char_traits@D@std@@V?$allocator@D@2@@std@@QAEAAV12@PBDI@Z ; std::basic_string<char,std::char_traits<char>,std::allocator<char> >::assign
PUBLIC	?erase@?$basic_string@DU?$char_traits@D@std@@V?$allocator@D@2@@std@@QAEAAV12@II@Z ; std::basic_string<char,std::char_traits<char>,std::allocator<char> >::erase
PUBLIC	?_Copy@?$basic_string@DU?$char_traits@D@std@@V?$allocator@D@2@@std@@QAEXII@Z ; std::basic_string<char,std::char_traits<char>,std::allocator<char> >::_Copy
PUBLIC	??0?$_Wrap_alloc@V?$allocator@U?$_Tree_node@U?$pair@$$CBV?$basic_string@DU?$char_traits@D@std@@V?$allocator@D@2@@std@@PAX@std@@PAX@std@@@std@@@std@@QAE@XZ ; std::_Wrap_alloc<std::allocator<std::_Tree_node<std::pair<std::basic_string<char,std::char_traits<char>,std::allocator<char> > const ,void *>,void *> > >::_Wrap_alloc<std::allocator<std::_Tree_node<std::pair<std::basic_string<char,std::char_traits<char>,std::allocator<char> > const ,void *>,void *> > >
PUBLIC	?_Buyheadnode@?$_Tree_comp_alloc@V?$_Tmap_traits@V?$basic_string@DU?$char_traits@D@std@@V?$allocator@D@2@@std@@PAXU?$less@V?$basic_string@DU?$char_traits@D@std@@V?$allocator@D@2@@std@@@2@V?$allocator@U?$pair@$$CBV?$basic_string@DU?$char_traits@D@std@@V?$allocator@D@2@@std@@PAX@std@@@2@$0A@@std@@@std@@QAEPAU?$_Tree_node@U?$pair@$$CBV?$basic_string@DU?$char_traits@D@std@@V?$allocator@D@2@@std@@PAX@std@@PAX@2@XZ ; std::_Tree_comp_alloc<std::_Tmap_traits<std::basic_string<char,std::char_traits<char>,std::allocator<char> >,void *,std::less<std::basic_string<char,std::char_traits<char>,std::allocator<char> > >,std::allocator<std::pair<std::basic_string<char,std::char_traits<char>,std::allocator<char> > const ,void *> >,0> >::_Buyheadnode
PUBLIC	?_Buynode0@?$_Tree_comp_alloc@V?$_Tmap_traits@V?$basic_string@DU?$char_traits@D@std@@V?$allocator@D@2@@std@@PAXU?$less@V?$basic_string@DU?$char_traits@D@std@@V?$allocator@D@2@@std@@@2@V?$allocator@U?$pair@$$CBV?$basic_string@DU?$char_traits@D@std@@V?$allocator@D@2@@std@@PAX@std@@@2@$0A@@std@@@std@@QAEPAU?$_Tree_node@U?$pair@$$CBV?$basic_string@DU?$char_traits@D@std@@V?$allocator@D@2@@std@@PAX@std@@PAX@2@XZ ; std::_Tree_comp_alloc<std::_Tmap_traits<std::basic_string<char,std::char_traits<char>,std::allocator<char> >,void *,std::less<std::basic_string<char,std::char_traits<char>,std::allocator<char> > >,std::allocator<std::pair<std::basic_string<char,std::char_traits<char>,std::allocator<char> > const ,void *> >,0> >::_Buynode0
PUBLIC	??R?$less@V?$basic_string@DU?$char_traits@D@std@@V?$allocator@D@2@@std@@@std@@QBE_NABV?$basic_string@DU?$char_traits@D@std@@V?$allocator@D@2@@1@0@Z ; std::less<std::basic_string<char,std::char_traits<char>,std::allocator<char> > >::operator()
PUBLIC	?erase@?$_Tree@V?$_Tmap_traits@V?$basic_string@DU?$char_traits@D@std@@V?$allocator@D@2@@std@@PAXU?$less@V?$basic_string@DU?$char_traits@D@std@@V?$allocator@D@2@@std@@@2@V?$allocator@U?$pair@$$CBV?$basic_string@DU?$char_traits@D@std@@V?$allocator@D@2@@std@@PAX@std@@@2@$0A@@std@@@std@@QAE?AV?$_Tree_iterator@V?$_Tree_val@U?$_Tree_simple_types@U?$pair@$$CBV?$basic_string@DU?$char_traits@D@std@@V?$allocator@D@2@@std@@PAX@std@@@std@@@std@@@2@V?$_Tree_const_iterator@V?$_Tree_val@U?$_Tree_simple_types@U?$pair@$$CBV?$basic_string@DU?$char_traits@D@std@@V?$allocator@D@2@@std@@PAX@std@@@std@@@std@@@2@@Z ; std::_Tree<std::_Tmap_traits<std::basic_string<char,std::char_traits<char>,std::allocator<char> >,void *,std::less<std::basic_string<char,std::char_traits<char>,std::allocator<char> > >,std::allocator<std::pair<std::basic_string<char,std::char_traits<char>,std::allocator<char> > const ,void *> >,0> >::erase
PUBLIC	?erase@?$_Tree@V?$_Tmap_traits@V?$basic_string@DU?$char_traits@D@std@@V?$allocator@D@2@@std@@PAXU?$less@V?$basic_string@DU?$char_traits@D@std@@V?$allocator@D@2@@std@@@2@V?$allocator@U?$pair@$$CBV?$basic_string@DU?$char_traits@D@std@@V?$allocator@D@2@@std@@PAX@std@@@2@$0A@@std@@@std@@QAE?AV?$_Tree_iterator@V?$_Tree_val@U?$_Tree_simple_types@U?$pair@$$CBV?$basic_string@DU?$char_traits@D@std@@V?$allocator@D@2@@std@@PAX@std@@@std@@@std@@@2@V?$_Tree_const_iterator@V?$_Tree_val@U?$_Tree_simple_types@U?$pair@$$CBV?$basic_string@DU?$char_traits@D@std@@V?$allocator@D@2@@std@@PAX@std@@@std@@@std@@@2@0@Z ; std::_Tree<std::_Tmap_traits<std::basic_string<char,std::char_traits<char>,std::allocator<char> >,void *,std::less<std::basic_string<char,std::char_traits<char>,std::allocator<char> > >,std::allocator<std::pair<std::basic_string<char,std::char_traits<char>,std::allocator<char> > const ,void *> >,0> >::erase
PUBLIC	?find@?$_Tree@V?$_Tmap_traits@V?$basic_string@DU?$char_traits@D@std@@V?$allocator@D@2@@std@@PAXU?$less@V?$basic_string@DU?$char_traits@D@std@@V?$allocator@D@2@@std@@@2@V?$allocator@U?$pair@$$CBV?$basic_string@DU?$char_traits@D@std@@V?$allocator@D@2@@std@@PAX@std@@@2@$0A@@std@@@std@@QAE?AV?$_Tree_iterator@V?$_Tree_val@U?$_Tree_simple_types@U?$pair@$$CBV?$basic_string@DU?$char_traits@D@std@@V?$allocator@D@2@@std@@PAX@std@@@std@@@std@@@2@ABV?$basic_string@DU?$char_traits@D@std@@V?$allocator@D@2@@2@@Z ; std::_Tree<std::_Tmap_traits<std::basic_string<char,std::char_traits<char>,std::allocator<char> >,void *,std::less<std::basic_string<char,std::char_traits<char>,std::allocator<char> > >,std::allocator<std::pair<std::basic_string<char,std::char_traits<char>,std::allocator<char> > const ,void *> >,0> >::find
PUBLIC	?_Destroy_if_not_nil@?$_Tree@V?$_Tmap_traits@V?$basic_string@DU?$char_traits@D@std@@V?$allocator@D@2@@std@@PAXU?$less@V?$basic_string@DU?$char_traits@D@std@@V?$allocator@D@2@@std@@@2@V?$allocator@U?$pair@$$CBV?$basic_string@DU?$char_traits@D@std@@V?$allocator@D@2@@std@@PAX@std@@@2@$0A@@std@@@std@@IAEXPAU?$_Tree_node@U?$pair@$$CBV?$basic_string@DU?$char_traits@D@std@@V?$allocator@D@2@@std@@PAX@std@@PAX@2@@Z ; std::_Tree<std::_Tmap_traits<std::basic_string<char,std::char_traits<char>,std::allocator<char> >,void *,std::less<std::basic_string<char,std::char_traits<char>,std::allocator<char> > >,std::allocator<std::pair<std::basic_string<char,std::char_traits<char>,std::allocator<char> > const ,void *> >,0> >::_Destroy_if_not_nil
PUBLIC	?_Erase@?$_Tree@V?$_Tmap_traits@V?$basic_string@DU?$char_traits@D@std@@V?$allocator@D@2@@std@@PAXU?$less@V?$basic_string@DU?$char_traits@D@std@@V?$allocator@D@2@@std@@@2@V?$allocator@U?$pair@$$CBV?$basic_string@DU?$char_traits@D@std@@V?$allocator@D@2@@std@@PAX@std@@@2@$0A@@std@@@std@@IAEXPAU?$_Tree_node@U?$pair@$$CBV?$basic_string@DU?$char_traits@D@std@@V?$allocator@D@2@@std@@PAX@std@@PAX@2@@Z ; std::_Tree<std::_Tmap_traits<std::basic_string<char,std::char_traits<char>,std::allocator<char> >,void *,std::less<std::basic_string<char,std::char_traits<char>,std::allocator<char> > >,std::allocator<std::pair<std::basic_string<char,std::char_traits<char>,std::allocator<char> > const ,void *> >,0> >::_Erase
PUBLIC	?_Lrotate@?$_Tree@V?$_Tmap_traits@V?$basic_string@DU?$char_traits@D@std@@V?$allocator@D@2@@std@@PAXU?$less@V?$basic_string@DU?$char_traits@D@std@@V?$allocator@D@2@@std@@@2@V?$allocator@U?$pair@$$CBV?$basic_string@DU?$char_traits@D@std@@V?$allocator@D@2@@std@@PAX@std@@@2@$0A@@std@@@std@@IAEXPAU?$_Tree_node@U?$pair@$$CBV?$basic_string@DU?$char_traits@D@std@@V?$allocator@D@2@@std@@PAX@std@@PAX@2@@Z ; std::_Tree<std::_Tmap_traits<std::basic_string<char,std::char_traits<char>,std::allocator<char> >,void *,std::less<std::basic_string<char,std::char_traits<char>,std::allocator<char> > >,std::allocator<std::pair<std::basic_string<char,std::char_traits<char>,std::allocator<char> > const ,void *> >,0> >::_Lrotate
PUBLIC	?_Rrotate@?$_Tree@V?$_Tmap_traits@V?$basic_string@DU?$char_traits@D@std@@V?$allocator@D@2@@std@@PAXU?$less@V?$basic_string@DU?$char_traits@D@std@@V?$allocator@D@2@@std@@@2@V?$allocator@U?$pair@$$CBV?$basic_string@DU?$char_traits@D@std@@V?$allocator@D@2@@std@@PAX@std@@@2@$0A@@std@@@std@@IAEXPAU?$_Tree_node@U?$pair@$$CBV?$basic_string@DU?$char_traits@D@std@@V?$allocator@D@2@@std@@PAX@std@@PAX@2@@Z ; std::_Tree<std::_Tmap_traits<std::basic_string<char,std::char_traits<char>,std::allocator<char> >,void *,std::less<std::basic_string<char,std::char_traits<char>,std::allocator<char> > >,std::allocator<std::pair<std::basic_string<char,std::char_traits<char>,std::allocator<char> > const ,void *> >,0> >::_Rrotate
PUBLIC	??0?$_Wrap_alloc@V?$allocator@U?$_Tree_node@U?$pair@$$CBHPAX@std@@PAX@std@@@std@@@std@@QAE@XZ ; std::_Wrap_alloc<std::allocator<std::_Tree_node<std::pair<int const ,void *>,void *> > >::_Wrap_alloc<std::allocator<std::_Tree_node<std::pair<int const ,void *>,void *> > >
PUBLIC	?_Buyheadnode@?$_Tree_comp_alloc@V?$_Tmap_traits@HPAXU?$less@H@std@@V?$allocator@U?$pair@$$CBHPAX@std@@@2@$0A@@std@@@std@@QAEPAU?$_Tree_node@U?$pair@$$CBHPAX@std@@PAX@2@XZ ; std::_Tree_comp_alloc<std::_Tmap_traits<int,void *,std::less<int>,std::allocator<std::pair<int const ,void *> >,0> >::_Buyheadnode
PUBLIC	?_Buynode0@?$_Tree_comp_alloc@V?$_Tmap_traits@HPAXU?$less@H@std@@V?$allocator@U?$pair@$$CBHPAX@std@@@2@$0A@@std@@@std@@QAEPAU?$_Tree_node@U?$pair@$$CBHPAX@std@@PAX@2@XZ ; std::_Tree_comp_alloc<std::_Tmap_traits<int,void *,std::less<int>,std::allocator<std::pair<int const ,void *> >,0> >::_Buynode0
PUBLIC	?erase@?$_Tree@V?$_Tmap_traits@HPAXU?$less@H@std@@V?$allocator@U?$pair@$$CBHPAX@std@@@2@$0A@@std@@@std@@QAE?AV?$_Tree_iterator@V?$_Tree_val@U?$_Tree_simple_types@U?$pair@$$CBHPAX@std@@@std@@@std@@@2@V?$_Tree_const_iterator@V?$_Tree_val@U?$_Tree_simple_types@U?$pair@$$CBHPAX@std@@@std@@@std@@@2@@Z ; std::_Tree<std::_Tmap_traits<int,void *,std::less<int>,std::allocator<std::pair<int const ,void *> >,0> >::erase
PUBLIC	?erase@?$_Tree@V?$_Tmap_traits@HPAXU?$less@H@std@@V?$allocator@U?$pair@$$CBHPAX@std@@@2@$0A@@std@@@std@@QAE?AV?$_Tree_iterator@V?$_Tree_val@U?$_Tree_simple_types@U?$pair@$$CBHPAX@std@@@std@@@std@@@2@V?$_Tree_const_iterator@V?$_Tree_val@U?$_Tree_simple_types@U?$pair@$$CBHPAX@std@@@std@@@std@@@2@0@Z ; std::_Tree<std::_Tmap_traits<int,void *,std::less<int>,std::allocator<std::pair<int const ,void *> >,0> >::erase
PUBLIC	?clear@?$_Tree@V?$_Tmap_traits@HPAXU?$less@H@std@@V?$allocator@U?$pair@$$CBHPAX@std@@@2@$0A@@std@@@std@@QAEXXZ ; std::_Tree<std::_Tmap_traits<int,void *,std::less<int>,std::allocator<std::pair<int const ,void *> >,0> >::clear
PUBLIC	?_Erase@?$_Tree@V?$_Tmap_traits@HPAXU?$less@H@std@@V?$allocator@U?$pair@$$CBHPAX@std@@@2@$0A@@std@@@std@@IAEXPAU?$_Tree_node@U?$pair@$$CBHPAX@std@@PAX@2@@Z ; std::_Tree<std::_Tmap_traits<int,void *,std::less<int>,std::allocator<std::pair<int const ,void *> >,0> >::_Erase
PUBLIC	?_Lrotate@?$_Tree@V?$_Tmap_traits@HPAXU?$less@H@std@@V?$allocator@U?$pair@$$CBHPAX@std@@@2@$0A@@std@@@std@@IAEXPAU?$_Tree_node@U?$pair@$$CBHPAX@std@@PAX@2@@Z ; std::_Tree<std::_Tmap_traits<int,void *,std::less<int>,std::allocator<std::pair<int const ,void *> >,0> >::_Lrotate
PUBLIC	?_Rrotate@?$_Tree@V?$_Tmap_traits@HPAXU?$less@H@std@@V?$allocator@U?$pair@$$CBHPAX@std@@@2@$0A@@std@@@std@@IAEXPAU?$_Tree_node@U?$pair@$$CBHPAX@std@@PAX@2@@Z ; std::_Tree<std::_Tmap_traits<int,void *,std::less<int>,std::allocator<std::pair<int const ,void *> >,0> >::_Rrotate
PUBLIC	??E?$_Tree_unchecked_const_iterator@V?$_Tree_val@U?$_Tree_simple_types@U?$pair@$$CBV?$basic_string@DU?$char_traits@D@std@@V?$allocator@D@2@@std@@PAX@std@@@std@@@std@@U_Iterator_base0@2@@std@@QAEAAV01@XZ ; std::_Tree_unchecked_const_iterator<std::_Tree_val<std::_Tree_simple_types<std::pair<std::basic_string<char,std::char_traits<char>,std::allocator<char> > const ,void *> > >,std::_Iterator_base0>::operator++
PUBLIC	??F?$_Tree_unchecked_const_iterator@V?$_Tree_val@U?$_Tree_simple_types@U?$pair@$$CBV?$basic_string@DU?$char_traits@D@std@@V?$allocator@D@2@@std@@PAX@std@@@std@@@std@@U_Iterator_base0@2@@std@@QAEAAV01@XZ ; std::_Tree_unchecked_const_iterator<std::_Tree_val<std::_Tree_simple_types<std::pair<std::basic_string<char,std::char_traits<char>,std::allocator<char> > const ,void *> > >,std::_Iterator_base0>::operator--
PUBLIC	??E?$_Tree_unchecked_const_iterator@V?$_Tree_val@U?$_Tree_simple_types@U?$pair@$$CBHPAX@std@@@std@@@std@@U_Iterator_base0@2@@std@@QAEAAV01@XZ ; std::_Tree_unchecked_const_iterator<std::_Tree_val<std::_Tree_simple_types<std::pair<int const ,void *> > >,std::_Iterator_base0>::operator++
PUBLIC	??F?$_Tree_unchecked_const_iterator@V?$_Tree_val@U?$_Tree_simple_types@U?$pair@$$CBHPAX@std@@@std@@@std@@U_Iterator_base0@2@@std@@QAEAAV01@XZ ; std::_Tree_unchecked_const_iterator<std::_Tree_val<std::_Tree_simple_types<std::pair<int const ,void *> > >,std::_Iterator_base0>::operator--
PUBLIC	??$_Lbound@V?$basic_string@DU?$char_traits@D@std@@V?$allocator@D@2@@std@@@?$_Tree@V?$_Tmap_traits@V?$basic_string@DU?$char_traits@D@std@@V?$allocator@D@2@@std@@PAXU?$less@V?$basic_string@DU?$char_traits@D@std@@V?$allocator@D@2@@std@@@2@V?$allocator@U?$pair@$$CBV?$basic_string@DU?$char_traits@D@std@@V?$allocator@D@2@@std@@PAX@std@@@2@$0A@@std@@@std@@IBEPAU?$_Tree_node@U?$pair@$$CBV?$basic_string@DU?$char_traits@D@std@@V?$allocator@D@2@@std@@PAX@std@@PAX@1@ABV?$basic_string@DU?$char_traits@D@std@@V?$allocator@D@2@@1@@Z ; std::_Tree<std::_Tmap_traits<std::basic_string<char,std::char_traits<char>,std::allocator<char> >,void *,std::less<std::basic_string<char,std::char_traits<char>,std::allocator<char> > >,std::allocator<std::pair<std::basic_string<char,std::char_traits<char>,std::allocator<char> > const ,void *> >,0> >::_Lbound<std::basic_string<char,std::char_traits<char>,std::allocator<char> > >
PUBLIC	??$destroy@PAU?$_Tree_node@U?$pair@$$CBHPAX@std@@PAX@std@@@?$_Wrap_alloc@V?$allocator@U?$_Tree_node@U?$pair@$$CBHPAX@std@@PAX@std@@@std@@@std@@QAEXPAPAU?$_Tree_node@U?$pair@$$CBHPAX@std@@PAX@1@@Z ; std::_Wrap_alloc<std::allocator<std::_Tree_node<std::pair<int const ,void *>,void *> > >::destroy<std::_Tree_node<std::pair<int const ,void *>,void *> *>
PUBLIC	??$destroy@PAU?$_Tree_node@U?$pair@$$CBV?$basic_string@DU?$char_traits@D@std@@V?$allocator@D@2@@std@@PAX@std@@PAX@std@@@?$_Wrap_alloc@V?$allocator@U?$_Tree_node@U?$pair@$$CBV?$basic_string@DU?$char_traits@D@std@@V?$allocator@D@2@@std@@PAX@std@@PAX@std@@@std@@@std@@QAEXPAPAU?$_Tree_node@U?$pair@$$CBV?$basic_string@DU?$char_traits@D@std@@V?$allocator@D@2@@std@@PAX@std@@PAX@1@@Z ; std::_Wrap_alloc<std::allocator<std::_Tree_node<std::pair<std::basic_string<char,std::char_traits<char>,std::allocator<char> > const ,void *>,void *> > >::destroy<std::_Tree_node<std::pair<std::basic_string<char,std::char_traits<char>,std::allocator<char> > const ,void *>,void *> *>
PUBLIC	??$_Try_emplace@ABH$$V@?$map@HPAXU?$less@H@std@@V?$allocator@U?$pair@$$CBHPAX@std@@@2@@std@@QAE?AU?$pair@V?$_Tree_iterator@V?$_Tree_val@U?$_Tree_simple_types@U?$pair@$$CBHPAX@std@@@std@@@std@@@std@@_N@1@ABH@Z ; std::map<int,void *,std::less<int>,std::allocator<std::pair<int const ,void *> > >::_Try_emplace<int const &>
PUBLIC	??$_Try_emplace@V?$basic_string@DU?$char_traits@D@std@@V?$allocator@D@2@@std@@$$V@?$map@V?$basic_string@DU?$char_traits@D@std@@V?$allocator@D@2@@std@@PAXU?$less@V?$basic_string@DU?$char_traits@D@std@@V?$allocator@D@2@@std@@@2@V?$allocator@U?$pair@$$CBV?$basic_string@DU?$char_traits@D@std@@V?$allocator@D@2@@std@@PAX@std@@@2@@std@@QAE?AU?$pair@V?$_Tree_iterator@V?$_Tree_val@U?$_Tree_simple_types@U?$pair@$$CBV?$basic_string@DU?$char_traits@D@std@@V?$allocator@D@2@@std@@PAX@std@@@std@@@std@@@std@@_N@1@$$QAV?$basic_string@DU?$char_traits@D@std@@V?$allocator@D@2@@1@@Z ; std::map<std::basic_string<char,std::char_traits<char>,std::allocator<char> >,void *,std::less<std::basic_string<char,std::char_traits<char>,std::allocator<char> > >,std::allocator<std::pair<std::basic_string<char,std::char_traits<char>,std::allocator<char> > const ,void *> > >::_Try_emplace<std::basic_string<char,std::char_traits<char>,std::allocator<char> > >
PUBLIC	??$_Buynode@ABUpiecewise_construct_t@std@@V?$tuple@ABH@2@V?$tuple@$$V@2@@?$_Tree_comp_alloc@V?$_Tmap_traits@HPAXU?$less@H@std@@V?$allocator@U?$pair@$$CBHPAX@std@@@2@$0A@@std@@@std@@QAEPAU?$_Tree_node@U?$pair@$$CBHPAX@std@@PAX@1@ABUpiecewise_construct_t@1@$$QAV?$tuple@ABH@1@$$QAV?$tuple@$$V@1@@Z ; std::_Tree_comp_alloc<std::_Tmap_traits<int,void *,std::less<int>,std::allocator<std::pair<int const ,void *> >,0> >::_Buynode<std::piecewise_construct_t const &,std::tuple<int const &>,std::tuple<> >
PUBLIC	??$_Insert_hint@AAU?$pair@$$CBHPAX@std@@PAU?$_Tree_node@U?$pair@$$CBHPAX@std@@PAX@2@@?$_Tree@V?$_Tmap_traits@HPAXU?$less@H@std@@V?$allocator@U?$pair@$$CBHPAX@std@@@2@$0A@@std@@@std@@IAE?AV?$_Tree_iterator@V?$_Tree_val@U?$_Tree_simple_types@U?$pair@$$CBHPAX@std@@@std@@@std@@@1@V?$_Tree_const_iterator@V?$_Tree_val@U?$_Tree_simple_types@U?$pair@$$CBHPAX@std@@@std@@@std@@@1@AAU?$pair@$$CBHPAX@1@PAU?$_Tree_node@U?$pair@$$CBHPAX@std@@PAX@1@@Z ; std::_Tree<std::_Tmap_traits<int,void *,std::less<int>,std::allocator<std::pair<int const ,void *> >,0> >::_Insert_hint<std::pair<int const ,void *> &,std::_Tree_node<std::pair<int const ,void *>,void *> *>
PUBLIC	??$_Buynode@ABUpiecewise_construct_t@std@@V?$tuple@$$QAV?$basic_string@DU?$char_traits@D@std@@V?$allocator@D@2@@std@@@2@V?$tuple@$$V@2@@?$_Tree_comp_alloc@V?$_Tmap_traits@V?$basic_string@DU?$char_traits@D@std@@V?$allocator@D@2@@std@@PAXU?$less@V?$basic_string@DU?$char_traits@D@std@@V?$allocator@D@2@@std@@@2@V?$allocator@U?$pair@$$CBV?$basic_string@DU?$char_traits@D@std@@V?$allocator@D@2@@std@@PAX@std@@@2@$0A@@std@@@std@@QAEPAU?$_Tree_node@U?$pair@$$CBV?$basic_string@DU?$char_traits@D@std@@V?$allocator@D@2@@std@@PAX@std@@PAX@1@ABUpiecewise_construct_t@1@$$QAV?$tuple@$$QAV?$basic_string@DU?$char_traits@D@std@@V?$allocator@D@2@@std@@@1@$$QAV?$tuple@$$V@1@@Z ; std::_Tree_comp_alloc<std::_Tmap_traits<std::basic_string<char,std::char_traits<char>,std::allocator<char> >,void *,std::less<std::basic_string<char,std::char_traits<char>,std::allocator<char> > >,std::allocator<std::pair<std::basic_string<char,std::char_traits<char>,std::allocator<char> > const ,void *> >,0> >::_Buynode<std::piecewise_construct_t const &,std::tuple<std::basic_string<char,std::char_traits<char>,std::allocator<char> > &&>,std::tuple<> >
PUBLIC	??$_Insert_hint@AAU?$pair@$$CBV?$basic_string@DU?$char_traits@D@std@@V?$allocator@D@2@@std@@PAX@std@@PAU?$_Tree_node@U?$pair@$$CBV?$basic_string@DU?$char_traits@D@std@@V?$allocator@D@2@@std@@PAX@std@@PAX@2@@?$_Tree@V?$_Tmap_traits@V?$basic_string@DU?$char_traits@D@std@@V?$allocator@D@2@@std@@PAXU?$less@V?$basic_string@DU?$char_traits@D@std@@V?$allocator@D@2@@std@@@2@V?$allocator@U?$pair@$$CBV?$basic_string@DU?$char_traits@D@std@@V?$allocator@D@2@@std@@PAX@std@@@2@$0A@@std@@@std@@IAE?AV?$_Tree_iterator@V?$_Tree_val@U?$_Tree_simple_types@U?$pair@$$CBV?$basic_string@DU?$char_traits@D@std@@V?$allocator@D@2@@std@@PAX@std@@@std@@@std@@@1@V?$_Tree_const_iterator@V?$_Tree_val@U?$_Tree_simple_types@U?$pair@$$CBV?$basic_string@DU?$char_traits@D@std@@V?$allocator@D@2@@std@@PAX@std@@@std@@@std@@@1@AAU?$pair@$$CBV?$basic_string@DU?$char_traits@D@std@@V?$allocator@D@2@@std@@PAX@1@PAU?$_Tree_node@U?$pair@$$CBV?$basic_string@DU?$char_traits@D@std@@V?$allocator@D@2@@std@@PAX@std@@PAX@1@@Z ; std::_Tree<std::_Tmap_traits<std::basic_string<char,std::char_traits<char>,std::allocator<char> >,void *,std::less<std::basic_string<char,std::char_traits<char>,std::allocator<char> > >,std::allocator<std::pair<std::basic_string<char,std::char_traits<char>,std::allocator<char> > const ,void *> >,0> >::_Insert_hint<std::pair<std::basic_string<char,std::char_traits<char>,std::allocator<char> > const ,void *> &,std::_Tree_node<std::pair<std::basic_string<char,std::char_traits<char>,std::allocator<char> > const ,void *>,void *> *>
PUBLIC	??$_Insert_at@AAU?$pair@$$CBHPAX@std@@PAU?$_Tree_node@U?$pair@$$CBHPAX@std@@PAX@2@@?$_Tree@V?$_Tmap_traits@HPAXU?$less@H@std@@V?$allocator@U?$pair@$$CBHPAX@std@@@2@$0A@@std@@@std@@IAE?AV?$_Tree_iterator@V?$_Tree_val@U?$_Tree_simple_types@U?$pair@$$CBHPAX@std@@@std@@@std@@@1@_NPAU?$_Tree_node@U?$pair@$$CBHPAX@std@@PAX@1@AAU?$pair@$$CBHPAX@1@1@Z ; std::_Tree<std::_Tmap_traits<int,void *,std::less<int>,std::allocator<std::pair<int const ,void *> >,0> >::_Insert_at<std::pair<int const ,void *> &,std::_Tree_node<std::pair<int const ,void *>,void *> *>
PUBLIC	??$_Insert_nohint@AAU?$pair@$$CBHPAX@std@@PAU?$_Tree_node@U?$pair@$$CBHPAX@std@@PAX@2@@?$_Tree@V?$_Tmap_traits@HPAXU?$less@H@std@@V?$allocator@U?$pair@$$CBHPAX@std@@@2@$0A@@std@@@std@@IAE?AU?$pair@V?$_Tree_iterator@V?$_Tree_val@U?$_Tree_simple_types@U?$pair@$$CBHPAX@std@@@std@@@std@@@std@@_N@1@_NAAU?$pair@$$CBHPAX@1@PAU?$_Tree_node@U?$pair@$$CBHPAX@std@@PAX@1@@Z ; std::_Tree<std::_Tmap_traits<int,void *,std::less<int>,std::allocator<std::pair<int const ,void *> >,0> >::_Insert_nohint<std::pair<int const ,void *> &,std::_Tree_node<std::pair<int const ,void *>,void *> *>
PUBLIC	??$_Insert_at@AAU?$pair@$$CBV?$basic_string@DU?$char_traits@D@std@@V?$allocator@D@2@@std@@PAX@std@@PAU?$_Tree_node@U?$pair@$$CBV?$basic_string@DU?$char_traits@D@std@@V?$allocator@D@2@@std@@PAX@std@@PAX@2@@?$_Tree@V?$_Tmap_traits@V?$basic_string@DU?$char_traits@D@std@@V?$allocator@D@2@@std@@PAXU?$less@V?$basic_string@DU?$char_traits@D@std@@V?$allocator@D@2@@std@@@2@V?$allocator@U?$pair@$$CBV?$basic_string@DU?$char_traits@D@std@@V?$allocator@D@2@@std@@PAX@std@@@2@$0A@@std@@@std@@IAE?AV?$_Tree_iterator@V?$_Tree_val@U?$_Tree_simple_types@U?$pair@$$CBV?$basic_string@DU?$char_traits@D@std@@V?$allocator@D@2@@std@@PAX@std@@@std@@@std@@@1@_NPAU?$_Tree_node@U?$pair@$$CBV?$basic_string@DU?$char_traits@D@std@@V?$allocator@D@2@@std@@PAX@std@@PAX@1@AAU?$pair@$$CBV?$basic_string@DU?$char_traits@D@std@@V?$allocator@D@2@@std@@PAX@1@1@Z ; std::_Tree<std::_Tmap_traits<std::basic_string<char,std::char_traits<char>,std::allocator<char> >,void *,std::less<std::basic_string<char,std::char_traits<char>,std::allocator<char> > >,std::allocator<std::pair<std::basic_string<char,std::char_traits<char>,std::allocator<char> > const ,void *> >,0> >::_Insert_at<std::pair<std::basic_string<char,std::char_traits<char>,std::allocator<char> > const ,void *> &,std::_Tree_node<std::pair<std::basic_string<char,std::char_traits<char>,std::allocator<char> > const ,void *>,void *> *>
PUBLIC	??$_Insert_nohint@AAU?$pair@$$CBV?$basic_string@DU?$char_traits@D@std@@V?$allocator@D@2@@std@@PAX@std@@PAU?$_Tree_node@U?$pair@$$CBV?$basic_string@DU?$char_traits@D@std@@V?$allocator@D@2@@std@@PAX@std@@PAX@2@@?$_Tree@V?$_Tmap_traits@V?$basic_string@DU?$char_traits@D@std@@V?$allocator@D@2@@std@@PAXU?$less@V?$basic_string@DU?$char_traits@D@std@@V?$allocator@D@2@@std@@@2@V?$allocator@U?$pair@$$CBV?$basic_string@DU?$char_traits@D@std@@V?$allocator@D@2@@std@@PAX@std@@@2@$0A@@std@@@std@@IAE?AU?$pair@V?$_Tree_iterator@V?$_Tree_val@U?$_Tree_simple_types@U?$pair@$$CBV?$basic_string@DU?$char_traits@D@std@@V?$allocator@D@2@@std@@PAX@std@@@std@@@std@@@std@@_N@1@_NAAU?$pair@$$CBV?$basic_string@DU?$char_traits@D@std@@V?$allocator@D@2@@std@@PAX@1@PAU?$_Tree_node@U?$pair@$$CBV?$basic_string@DU?$char_traits@D@std@@V?$allocator@D@2@@std@@PAX@std@@PAX@1@@Z ; std::_Tree<std::_Tmap_traits<std::basic_string<char,std::char_traits<char>,std::allocator<char> >,void *,std::less<std::basic_string<char,std::char_traits<char>,std::allocator<char> > >,std::allocator<std::pair<std::basic_string<char,std::char_traits<char>,std::allocator<char> > const ,void *> >,0> >::_Insert_nohint<std::pair<std::basic_string<char,std::char_traits<char>,std::allocator<char> > const ,void *> &,std::_Tree_node<std::pair<std::basic_string<char,std::char_traits<char>,std::allocator<char> > const ,void *>,void *> *>
PUBLIC	??_C@_0BA@JFNIOLAK@string?5too?5long?$AA@	; `string'
PUBLIC	??_C@_0BI@CFPLBAOH@invalid?5string?5position?$AA@ ; `string'
PUBLIC	??_C@_0BE@JONHPENG@map?1set?$DMT?$DO?5too?5long?$AA@ ; `string'
EXTRN	??2@YAPAXI@Z:PROC				; operator new
EXTRN	??3@YAXPAX@Z:PROC				; operator delete
EXTRN	??3@YAXPAXI@Z:PROC				; operator delete
EXTRN	_atexit:PROC
EXTRN	___std_terminate:PROC
EXTRN	__invalid_parameter_noinfo_noreturn:PROC
EXTRN	_memmove:PROC
EXTRN	_malloc:PROC
EXTRN	?_Xbad_alloc@std@@YAXXZ:PROC			; std::_Xbad_alloc
EXTRN	?_Xlength_error@std@@YAXPBD@Z:PROC		; std::_Xlength_error
EXTRN	?_Xout_of_range@std@@YAXPBD@Z:PROC		; std::_Xout_of_range
EXTRN	@__security_check_cookie@4:PROC
EXTRN	__CxxThrowException@8:PROC
EXTRN	___CxxFrameHandler3:PROC
EXTRN	_memcpy:PROC
EXTRN	___security_cookie:DWORD
_BSS	SEGMENT
?StringKeyMap@@3V?$map@V?$basic_string@DU?$char_traits@D@std@@V?$allocator@D@2@@std@@PAXU?$less@V?$basic_string@DU?$char_traits@D@std@@V?$allocator@D@2@@std@@@2@V?$allocator@U?$pair@$$CBV?$basic_string@DU?$char_traits@D@std@@V?$allocator@D@2@@std@@PAX@std@@@2@@std@@A DQ 01H DUP (?) ; StringKeyMap
?IntKeyMap@@3V?$map@HPAXU?$less@H@std@@V?$allocator@U?$pair@$$CBHPAX@std@@@2@@std@@A DQ 01H DUP (?) ; IntKeyMap
?DataPool@@3PAXA DD 01H DUP (?)				; DataPool
?DataPoolSize@@3IA DD 01H DUP (?)			; DataPoolSize
_BSS	ENDS
CRT$XCU	SEGMENT
?StringKeyMap$initializer$@@3P6AXXZA DD FLAT:??__EStringKeyMap@@YAXXZ ; StringKeyMap$initializer$
CRT$XCU	ENDS
;	COMDAT ??_C@_0BE@JONHPENG@map?1set?$DMT?$DO?5too?5long?$AA@
CONST	SEGMENT
??_C@_0BE@JONHPENG@map?1set?$DMT?$DO?5too?5long?$AA@ DB 'map/set<T> too l'
	DB	'ong', 00H					; `string'
CONST	ENDS
;	COMDAT ??_C@_0BI@CFPLBAOH@invalid?5string?5position?$AA@
CONST	SEGMENT
??_C@_0BI@CFPLBAOH@invalid?5string?5position?$AA@ DB 'invalid string posi'
	DB	'tion', 00H					; `string'
CONST	ENDS
;	COMDAT ??_C@_0BA@JFNIOLAK@string?5too?5long?$AA@
CONST	SEGMENT
??_C@_0BA@JFNIOLAK@string?5too?5long?$AA@ DB 'string too long', 00H ; `string'
CONST	ENDS
;	COMDAT xdata$x
xdata$x	SEGMENT
__catchsym$??$_Insert_nohint@AAU?$pair@$$CBV?$basic_string@DU?$char_traits@D@std@@V?$allocator@D@2@@std@@PAX@std@@PAU?$_Tree_node@U?$pair@$$CBV?$basic_string@DU?$char_traits@D@std@@V?$allocator@D@2@@std@@PAX@std@@PAX@2@@?$_Tree@V?$_Tmap_traits@V?$basic_string@DU?$char_traits@D@std@@V?$allocator@D@2@@std@@PAXU?$less@V?$basic_string@DU?$char_traits@D@std@@V?$allocator@D@2@@std@@@2@V?$allocator@U?$pair@$$CBV?$basic_string@DU?$char_traits@D@std@@V?$allocator@D@2@@std@@PAX@std@@@2@$0A@@std@@@std@@IAE?AU?$pair@V?$_Tree_iterator@V?$_Tree_val@U?$_Tree_simple_types@U?$pair@$$CBV?$basic_string@DU?$char_traits@D@std@@V?$allocator@D@2@@std@@PAX@std@@@std@@@std@@@std@@_N@1@_NAAU?$pair@$$CBV?$basic_string@DU?$char_traits@D@std@@V?$allocator@D@2@@std@@PAX@1@PAU?$_Tree_node@U?$pair@$$CBV?$basic_string@DU?$char_traits@D@std@@V?$allocator@D@2@@std@@PAX@std@@PAX@1@@Z$66 DD 040H
	DD	00H
	DD	00H
	DD	FLAT:__catch$??$_Insert_nohint@AAU?$pair@$$CBV?$basic_string@DU?$char_traits@D@std@@V?$allocator@D@2@@std@@PAX@std@@PAU?$_Tree_node@U?$pair@$$CBV?$basic_string@DU?$char_traits@D@std@@V?$allocator@D@2@@std@@PAX@std@@PAX@2@@?$_Tree@V?$_Tmap_traits@V?$basic_string@DU?$char_traits@D@std@@V?$allocator@D@2@@std@@PAXU?$less@V?$basic_string@DU?$char_traits@D@std@@V?$allocator@D@2@@std@@@2@V?$allocator@U?$pair@$$CBV?$basic_string@DU?$char_traits@D@std@@V?$allocator@D@2@@std@@PAX@std@@@2@$0A@@std@@@std@@IAE?AU?$pair@V?$_Tree_iterator@V?$_Tree_val@U?$_Tree_simple_types@U?$pair@$$CBV?$basic_string@DU?$char_traits@D@std@@V?$allocator@D@2@@std@@PAX@std@@@std@@@std@@@std@@_N@1@_NAAU?$pair@$$CBV?$basic_string@DU?$char_traits@D@std@@V?$allocator@D@2@@std@@PAX@1@PAU?$_Tree_node@U?$pair@$$CBV?$basic_string@DU?$char_traits@D@std@@V?$allocator@D@2@@std@@PAX@std@@PAX@1@@Z$0
__unwindtable$??$_Insert_nohint@AAU?$pair@$$CBV?$basic_string@DU?$char_traits@D@std@@V?$allocator@D@2@@std@@PAX@std@@PAU?$_Tree_node@U?$pair@$$CBV?$basic_string@DU?$char_traits@D@std@@V?$allocator@D@2@@std@@PAX@std@@PAX@2@@?$_Tree@V?$_Tmap_traits@V?$basic_string@DU?$char_traits@D@std@@V?$allocator@D@2@@std@@PAXU?$less@V?$basic_string@DU?$char_traits@D@std@@V?$allocator@D@2@@std@@@2@V?$allocator@U?$pair@$$CBV?$basic_string@DU?$char_traits@D@std@@V?$allocator@D@2@@std@@PAX@std@@@2@$0A@@std@@@std@@IAE?AU?$pair@V?$_Tree_iterator@V?$_Tree_val@U?$_Tree_simple_types@U?$pair@$$CBV?$basic_string@DU?$char_traits@D@std@@V?$allocator@D@2@@std@@PAX@std@@@std@@@std@@@std@@_N@1@_NAAU?$pair@$$CBV?$basic_string@DU?$char_traits@D@std@@V?$allocator@D@2@@std@@PAX@1@PAU?$_Tree_node@U?$pair@$$CBV?$basic_string@DU?$char_traits@D@std@@V?$allocator@D@2@@std@@PAX@std@@PAX@1@@Z DD 0ffffffffH
	DD	00H
	DD	0ffffffffH
	DD	00H
__tryblocktable$??$_Insert_nohint@AAU?$pair@$$CBV?$basic_string@DU?$char_traits@D@std@@V?$allocator@D@2@@std@@PAX@std@@PAU?$_Tree_node@U?$pair@$$CBV?$basic_string@DU?$char_traits@D@std@@V?$allocator@D@2@@std@@PAX@std@@PAX@2@@?$_Tree@V?$_Tmap_traits@V?$basic_string@DU?$char_traits@D@std@@V?$allocator@D@2@@std@@PAXU?$less@V?$basic_string@DU?$char_traits@D@std@@V?$allocator@D@2@@std@@@2@V?$allocator@U?$pair@$$CBV?$basic_string@DU?$char_traits@D@std@@V?$allocator@D@2@@std@@PAX@std@@@2@$0A@@std@@@std@@IAE?AU?$pair@V?$_Tree_iterator@V?$_Tree_val@U?$_Tree_simple_types@U?$pair@$$CBV?$basic_string@DU?$char_traits@D@std@@V?$allocator@D@2@@std@@PAX@std@@@std@@@std@@@std@@_N@1@_NAAU?$pair@$$CBV?$basic_string@DU?$char_traits@D@std@@V?$allocator@D@2@@std@@PAX@1@PAU?$_Tree_node@U?$pair@$$CBV?$basic_string@DU?$char_traits@D@std@@V?$allocator@D@2@@std@@PAX@std@@PAX@1@@Z DD 00H
	DD	00H
	DD	01H
	DD	01H
	DD	FLAT:__catchsym$??$_Insert_nohint@AAU?$pair@$$CBV?$basic_string@DU?$char_traits@D@std@@V?$allocator@D@2@@std@@PAX@std@@PAU?$_Tree_node@U?$pair@$$CBV?$basic_string@DU?$char_traits@D@std@@V?$allocator@D@2@@std@@PAX@std@@PAX@2@@?$_Tree@V?$_Tmap_traits@V?$basic_string@DU?$char_traits@D@std@@V?$allocator@D@2@@std@@PAXU?$less@V?$basic_string@DU?$char_traits@D@std@@V?$allocator@D@2@@std@@@2@V?$allocator@U?$pair@$$CBV?$basic_string@DU?$char_traits@D@std@@V?$allocator@D@2@@std@@PAX@std@@@2@$0A@@std@@@std@@IAE?AU?$pair@V?$_Tree_iterator@V?$_Tree_val@U?$_Tree_simple_types@U?$pair@$$CBV?$basic_string@DU?$char_traits@D@std@@V?$allocator@D@2@@std@@PAX@std@@@std@@@std@@@std@@_N@1@_NAAU?$pair@$$CBV?$basic_string@DU?$char_traits@D@std@@V?$allocator@D@2@@std@@PAX@1@PAU?$_Tree_node@U?$pair@$$CBV?$basic_string@DU?$char_traits@D@std@@V?$allocator@D@2@@std@@PAX@std@@PAX@1@@Z$66
__ehfuncinfo$??$_Insert_nohint@AAU?$pair@$$CBV?$basic_string@DU?$char_traits@D@std@@V?$allocator@D@2@@std@@PAX@std@@PAU?$_Tree_node@U?$pair@$$CBV?$basic_string@DU?$char_traits@D@std@@V?$allocator@D@2@@std@@PAX@std@@PAX@2@@?$_Tree@V?$_Tmap_traits@V?$basic_string@DU?$char_traits@D@std@@V?$allocator@D@2@@std@@PAXU?$less@V?$basic_string@DU?$char_traits@D@std@@V?$allocator@D@2@@std@@@2@V?$allocator@U?$pair@$$CBV?$basic_string@DU?$char_traits@D@std@@V?$allocator@D@2@@std@@PAX@std@@@2@$0A@@std@@@std@@IAE?AU?$pair@V?$_Tree_iterator@V?$_Tree_val@U?$_Tree_simple_types@U?$pair@$$CBV?$basic_string@DU?$char_traits@D@std@@V?$allocator@D@2@@std@@PAX@std@@@std@@@std@@@std@@_N@1@_NAAU?$pair@$$CBV?$basic_string@DU?$char_traits@D@std@@V?$allocator@D@2@@std@@PAX@1@PAU?$_Tree_node@U?$pair@$$CBV?$basic_string@DU?$char_traits@D@std@@V?$allocator@D@2@@std@@PAX@std@@PAX@1@@Z DD 019930522H
	DD	02H
	DD	FLAT:__unwindtable$??$_Insert_nohint@AAU?$pair@$$CBV?$basic_string@DU?$char_traits@D@std@@V?$allocator@D@2@@std@@PAX@std@@PAU?$_Tree_node@U?$pair@$$CBV?$basic_string@DU?$char_traits@D@std@@V?$allocator@D@2@@std@@PAX@std@@PAX@2@@?$_Tree@V?$_Tmap_traits@V?$basic_string@DU?$char_traits@D@std@@V?$allocator@D@2@@std@@PAXU?$less@V?$basic_string@DU?$char_traits@D@std@@V?$allocator@D@2@@std@@@2@V?$allocator@U?$pair@$$CBV?$basic_string@DU?$char_traits@D@std@@V?$allocator@D@2@@std@@PAX@std@@@2@$0A@@std@@@std@@IAE?AU?$pair@V?$_Tree_iterator@V?$_Tree_val@U?$_Tree_simple_types@U?$pair@$$CBV?$basic_string@DU?$char_traits@D@std@@V?$allocator@D@2@@std@@PAX@std@@@std@@@std@@@std@@_N@1@_NAAU?$pair@$$CBV?$basic_string@DU?$char_traits@D@std@@V?$allocator@D@2@@std@@PAX@1@PAU?$_Tree_node@U?$pair@$$CBV?$basic_string@DU?$char_traits@D@std@@V?$allocator@D@2@@std@@PAX@std@@PAX@1@@Z
	DD	01H
	DD	FLAT:__tryblocktable$??$_Insert_nohint@AAU?$pair@$$CBV?$basic_string@DU?$char_traits@D@std@@V?$allocator@D@2@@std@@PAX@std@@PAU?$_Tree_node@U?$pair@$$CBV?$basic_string@DU?$char_traits@D@std@@V?$allocator@D@2@@std@@PAX@std@@PAX@2@@?$_Tree@V?$_Tmap_traits@V?$basic_string@DU?$char_traits@D@std@@V?$allocator@D@2@@std@@PAXU?$less@V?$basic_string@DU?$char_traits@D@std@@V?$allocator@D@2@@std@@@2@V?$allocator@U?$pair@$$CBV?$basic_string@DU?$char_traits@D@std@@V?$allocator@D@2@@std@@PAX@std@@@2@$0A@@std@@@std@@IAE?AU?$pair@V?$_Tree_iterator@V?$_Tree_val@U?$_Tree_simple_types@U?$pair@$$CBV?$basic_string@DU?$char_traits@D@std@@V?$allocator@D@2@@std@@PAX@std@@@std@@@std@@@std@@_N@1@_NAAU?$pair@$$CBV?$basic_string@DU?$char_traits@D@std@@V?$allocator@D@2@@std@@PAX@1@PAU?$_Tree_node@U?$pair@$$CBV?$basic_string@DU?$char_traits@D@std@@V?$allocator@D@2@@std@@PAX@std@@PAX@1@@Z
	DD	2 DUP(00H)
	DD	00H
	DD	01H
xdata$x	ENDS
;	COMDAT xdata$x
xdata$x	SEGMENT
__catchsym$??$_Insert_nohint@AAU?$pair@$$CBHPAX@std@@PAU?$_Tree_node@U?$pair@$$CBHPAX@std@@PAX@2@@?$_Tree@V?$_Tmap_traits@HPAXU?$less@H@std@@V?$allocator@U?$pair@$$CBHPAX@std@@@2@$0A@@std@@@std@@IAE?AU?$pair@V?$_Tree_iterator@V?$_Tree_val@U?$_Tree_simple_types@U?$pair@$$CBHPAX@std@@@std@@@std@@@std@@_N@1@_NAAU?$pair@$$CBHPAX@1@PAU?$_Tree_node@U?$pair@$$CBHPAX@std@@PAX@1@@Z$56 DD 040H
	DD	00H
	DD	00H
	DD	FLAT:__catch$??$_Insert_nohint@AAU?$pair@$$CBHPAX@std@@PAU?$_Tree_node@U?$pair@$$CBHPAX@std@@PAX@2@@?$_Tree@V?$_Tmap_traits@HPAXU?$less@H@std@@V?$allocator@U?$pair@$$CBHPAX@std@@@2@$0A@@std@@@std@@IAE?AU?$pair@V?$_Tree_iterator@V?$_Tree_val@U?$_Tree_simple_types@U?$pair@$$CBHPAX@std@@@std@@@std@@@std@@_N@1@_NAAU?$pair@$$CBHPAX@1@PAU?$_Tree_node@U?$pair@$$CBHPAX@std@@PAX@1@@Z$0
__unwindtable$??$_Insert_nohint@AAU?$pair@$$CBHPAX@std@@PAU?$_Tree_node@U?$pair@$$CBHPAX@std@@PAX@2@@?$_Tree@V?$_Tmap_traits@HPAXU?$less@H@std@@V?$allocator@U?$pair@$$CBHPAX@std@@@2@$0A@@std@@@std@@IAE?AU?$pair@V?$_Tree_iterator@V?$_Tree_val@U?$_Tree_simple_types@U?$pair@$$CBHPAX@std@@@std@@@std@@@std@@_N@1@_NAAU?$pair@$$CBHPAX@1@PAU?$_Tree_node@U?$pair@$$CBHPAX@std@@PAX@1@@Z DD 0ffffffffH
	DD	00H
	DD	0ffffffffH
	DD	00H
__tryblocktable$??$_Insert_nohint@AAU?$pair@$$CBHPAX@std@@PAU?$_Tree_node@U?$pair@$$CBHPAX@std@@PAX@2@@?$_Tree@V?$_Tmap_traits@HPAXU?$less@H@std@@V?$allocator@U?$pair@$$CBHPAX@std@@@2@$0A@@std@@@std@@IAE?AU?$pair@V?$_Tree_iterator@V?$_Tree_val@U?$_Tree_simple_types@U?$pair@$$CBHPAX@std@@@std@@@std@@@std@@_N@1@_NAAU?$pair@$$CBHPAX@1@PAU?$_Tree_node@U?$pair@$$CBHPAX@std@@PAX@1@@Z DD 00H
	DD	00H
	DD	01H
	DD	01H
	DD	FLAT:__catchsym$??$_Insert_nohint@AAU?$pair@$$CBHPAX@std@@PAU?$_Tree_node@U?$pair@$$CBHPAX@std@@PAX@2@@?$_Tree@V?$_Tmap_traits@HPAXU?$less@H@std@@V?$allocator@U?$pair@$$CBHPAX@std@@@2@$0A@@std@@@std@@IAE?AU?$pair@V?$_Tree_iterator@V?$_Tree_val@U?$_Tree_simple_types@U?$pair@$$CBHPAX@std@@@std@@@std@@@std@@_N@1@_NAAU?$pair@$$CBHPAX@1@PAU?$_Tree_node@U?$pair@$$CBHPAX@std@@PAX@1@@Z$56
__ehfuncinfo$??$_Insert_nohint@AAU?$pair@$$CBHPAX@std@@PAU?$_Tree_node@U?$pair@$$CBHPAX@std@@PAX@2@@?$_Tree@V?$_Tmap_traits@HPAXU?$less@H@std@@V?$allocator@U?$pair@$$CBHPAX@std@@@2@$0A@@std@@@std@@IAE?AU?$pair@V?$_Tree_iterator@V?$_Tree_val@U?$_Tree_simple_types@U?$pair@$$CBHPAX@std@@@std@@@std@@@std@@_N@1@_NAAU?$pair@$$CBHPAX@1@PAU?$_Tree_node@U?$pair@$$CBHPAX@std@@PAX@1@@Z DD 019930522H
	DD	02H
	DD	FLAT:__unwindtable$??$_Insert_nohint@AAU?$pair@$$CBHPAX@std@@PAU?$_Tree_node@U?$pair@$$CBHPAX@std@@PAX@2@@?$_Tree@V?$_Tmap_traits@HPAXU?$less@H@std@@V?$allocator@U?$pair@$$CBHPAX@std@@@2@$0A@@std@@@std@@IAE?AU?$pair@V?$_Tree_iterator@V?$_Tree_val@U?$_Tree_simple_types@U?$pair@$$CBHPAX@std@@@std@@@std@@@std@@_N@1@_NAAU?$pair@$$CBHPAX@1@PAU?$_Tree_node@U?$pair@$$CBHPAX@std@@PAX@1@@Z
	DD	01H
	DD	FLAT:__tryblocktable$??$_Insert_nohint@AAU?$pair@$$CBHPAX@std@@PAU?$_Tree_node@U?$pair@$$CBHPAX@std@@PAX@2@@?$_Tree@V?$_Tmap_traits@HPAXU?$less@H@std@@V?$allocator@U?$pair@$$CBHPAX@std@@@2@$0A@@std@@@std@@IAE?AU?$pair@V?$_Tree_iterator@V?$_Tree_val@U?$_Tree_simple_types@U?$pair@$$CBHPAX@std@@@std@@@std@@@std@@_N@1@_NAAU?$pair@$$CBHPAX@1@PAU?$_Tree_node@U?$pair@$$CBHPAX@std@@PAX@1@@Z
	DD	2 DUP(00H)
	DD	00H
	DD	01H
xdata$x	ENDS
;	COMDAT xdata$x
xdata$x	SEGMENT
__catchsym$??$_Insert_hint@AAU?$pair@$$CBV?$basic_string@DU?$char_traits@D@std@@V?$allocator@D@2@@std@@PAX@std@@PAU?$_Tree_node@U?$pair@$$CBV?$basic_string@DU?$char_traits@D@std@@V?$allocator@D@2@@std@@PAX@std@@PAX@2@@?$_Tree@V?$_Tmap_traits@V?$basic_string@DU?$char_traits@D@std@@V?$allocator@D@2@@std@@PAXU?$less@V?$basic_string@DU?$char_traits@D@std@@V?$allocator@D@2@@std@@@2@V?$allocator@U?$pair@$$CBV?$basic_string@DU?$char_traits@D@std@@V?$allocator@D@2@@std@@PAX@std@@@2@$0A@@std@@@std@@IAE?AV?$_Tree_iterator@V?$_Tree_val@U?$_Tree_simple_types@U?$pair@$$CBV?$basic_string@DU?$char_traits@D@std@@V?$allocator@D@2@@std@@PAX@std@@@std@@@std@@@1@V?$_Tree_const_iterator@V?$_Tree_val@U?$_Tree_simple_types@U?$pair@$$CBV?$basic_string@DU?$char_traits@D@std@@V?$allocator@D@2@@std@@PAX@std@@@std@@@std@@@1@AAU?$pair@$$CBV?$basic_string@DU?$char_traits@D@std@@V?$allocator@D@2@@std@@PAX@1@PAU?$_Tree_node@U?$pair@$$CBV?$basic_string@DU?$char_traits@D@std@@V?$allocator@D@2@@std@@PAX@std@@PAX@1@@Z$113 DD 040H
	DD	00H
	DD	00H
	DD	FLAT:__catch$??$_Insert_hint@AAU?$pair@$$CBV?$basic_string@DU?$char_traits@D@std@@V?$allocator@D@2@@std@@PAX@std@@PAU?$_Tree_node@U?$pair@$$CBV?$basic_string@DU?$char_traits@D@std@@V?$allocator@D@2@@std@@PAX@std@@PAX@2@@?$_Tree@V?$_Tmap_traits@V?$basic_string@DU?$char_traits@D@std@@V?$allocator@D@2@@std@@PAXU?$less@V?$basic_string@DU?$char_traits@D@std@@V?$allocator@D@2@@std@@@2@V?$allocator@U?$pair@$$CBV?$basic_string@DU?$char_traits@D@std@@V?$allocator@D@2@@std@@PAX@std@@@2@$0A@@std@@@std@@IAE?AV?$_Tree_iterator@V?$_Tree_val@U?$_Tree_simple_types@U?$pair@$$CBV?$basic_string@DU?$char_traits@D@std@@V?$allocator@D@2@@std@@PAX@std@@@std@@@std@@@1@V?$_Tree_const_iterator@V?$_Tree_val@U?$_Tree_simple_types@U?$pair@$$CBV?$basic_string@DU?$char_traits@D@std@@V?$allocator@D@2@@std@@PAX@std@@@std@@@std@@@1@AAU?$pair@$$CBV?$basic_string@DU?$char_traits@D@std@@V?$allocator@D@2@@std@@PAX@1@PAU?$_Tree_node@U?$pair@$$CBV?$basic_string@DU?$char_traits@D@std@@V?$allocator@D@2@@std@@PAX@std@@PAX@1@@Z$0
__unwindtable$??$_Insert_hint@AAU?$pair@$$CBV?$basic_string@DU?$char_traits@D@std@@V?$allocator@D@2@@std@@PAX@std@@PAU?$_Tree_node@U?$pair@$$CBV?$basic_string@DU?$char_traits@D@std@@V?$allocator@D@2@@std@@PAX@std@@PAX@2@@?$_Tree@V?$_Tmap_traits@V?$basic_string@DU?$char_traits@D@std@@V?$allocator@D@2@@std@@PAXU?$less@V?$basic_string@DU?$char_traits@D@std@@V?$allocator@D@2@@std@@@2@V?$allocator@U?$pair@$$CBV?$basic_string@DU?$char_traits@D@std@@V?$allocator@D@2@@std@@PAX@std@@@2@$0A@@std@@@std@@IAE?AV?$_Tree_iterator@V?$_Tree_val@U?$_Tree_simple_types@U?$pair@$$CBV?$basic_string@DU?$char_traits@D@std@@V?$allocator@D@2@@std@@PAX@std@@@std@@@std@@@1@V?$_Tree_const_iterator@V?$_Tree_val@U?$_Tree_simple_types@U?$pair@$$CBV?$basic_string@DU?$char_traits@D@std@@V?$allocator@D@2@@std@@PAX@std@@@std@@@std@@@1@AAU?$pair@$$CBV?$basic_string@DU?$char_traits@D@std@@V?$allocator@D@2@@std@@PAX@1@PAU?$_Tree_node@U?$pair@$$CBV?$basic_string@DU?$char_traits@D@std@@V?$allocator@D@2@@std@@PAX@std@@PAX@1@@Z DD 0ffffffffH
	DD	00H
	DD	0ffffffffH
	DD	00H
__tryblocktable$??$_Insert_hint@AAU?$pair@$$CBV?$basic_string@DU?$char_traits@D@std@@V?$allocator@D@2@@std@@PAX@std@@PAU?$_Tree_node@U?$pair@$$CBV?$basic_string@DU?$char_traits@D@std@@V?$allocator@D@2@@std@@PAX@std@@PAX@2@@?$_Tree@V?$_Tmap_traits@V?$basic_string@DU?$char_traits@D@std@@V?$allocator@D@2@@std@@PAXU?$less@V?$basic_string@DU?$char_traits@D@std@@V?$allocator@D@2@@std@@@2@V?$allocator@U?$pair@$$CBV?$basic_string@DU?$char_traits@D@std@@V?$allocator@D@2@@std@@PAX@std@@@2@$0A@@std@@@std@@IAE?AV?$_Tree_iterator@V?$_Tree_val@U?$_Tree_simple_types@U?$pair@$$CBV?$basic_string@DU?$char_traits@D@std@@V?$allocator@D@2@@std@@PAX@std@@@std@@@std@@@1@V?$_Tree_const_iterator@V?$_Tree_val@U?$_Tree_simple_types@U?$pair@$$CBV?$basic_string@DU?$char_traits@D@std@@V?$allocator@D@2@@std@@PAX@std@@@std@@@std@@@1@AAU?$pair@$$CBV?$basic_string@DU?$char_traits@D@std@@V?$allocator@D@2@@std@@PAX@1@PAU?$_Tree_node@U?$pair@$$CBV?$basic_string@DU?$char_traits@D@std@@V?$allocator@D@2@@std@@PAX@std@@PAX@1@@Z DD 00H
	DD	00H
	DD	01H
	DD	01H
	DD	FLAT:__catchsym$??$_Insert_hint@AAU?$pair@$$CBV?$basic_string@DU?$char_traits@D@std@@V?$allocator@D@2@@std@@PAX@std@@PAU?$_Tree_node@U?$pair@$$CBV?$basic_string@DU?$char_traits@D@std@@V?$allocator@D@2@@std@@PAX@std@@PAX@2@@?$_Tree@V?$_Tmap_traits@V?$basic_string@DU?$char_traits@D@std@@V?$allocator@D@2@@std@@PAXU?$less@V?$basic_string@DU?$char_traits@D@std@@V?$allocator@D@2@@std@@@2@V?$allocator@U?$pair@$$CBV?$basic_string@DU?$char_traits@D@std@@V?$allocator@D@2@@std@@PAX@std@@@2@$0A@@std@@@std@@IAE?AV?$_Tree_iterator@V?$_Tree_val@U?$_Tree_simple_types@U?$pair@$$CBV?$basic_string@DU?$char_traits@D@std@@V?$allocator@D@2@@std@@PAX@std@@@std@@@std@@@1@V?$_Tree_const_iterator@V?$_Tree_val@U?$_Tree_simple_types@U?$pair@$$CBV?$basic_string@DU?$char_traits@D@std@@V?$allocator@D@2@@std@@PAX@std@@@std@@@std@@@1@AAU?$pair@$$CBV?$basic_string@DU?$char_traits@D@std@@V?$allocator@D@2@@std@@PAX@1@PAU?$_Tree_node@U?$pair@$$CBV?$basic_string@DU?$char_traits@D@std@@V?$allocator@D@2@@std@@PAX@std@@PAX@1@@Z$113
__ehfuncinfo$??$_Insert_hint@AAU?$pair@$$CBV?$basic_string@DU?$char_traits@D@std@@V?$allocator@D@2@@std@@PAX@std@@PAU?$_Tree_node@U?$pair@$$CBV?$basic_string@DU?$char_traits@D@std@@V?$allocator@D@2@@std@@PAX@std@@PAX@2@@?$_Tree@V?$_Tmap_traits@V?$basic_string@DU?$char_traits@D@std@@V?$allocator@D@2@@std@@PAXU?$less@V?$basic_string@DU?$char_traits@D@std@@V?$allocator@D@2@@std@@@2@V?$allocator@U?$pair@$$CBV?$basic_string@DU?$char_traits@D@std@@V?$allocator@D@2@@std@@PAX@std@@@2@$0A@@std@@@std@@IAE?AV?$_Tree_iterator@V?$_Tree_val@U?$_Tree_simple_types@U?$pair@$$CBV?$basic_string@DU?$char_traits@D@std@@V?$allocator@D@2@@std@@PAX@std@@@std@@@std@@@1@V?$_Tree_const_iterator@V?$_Tree_val@U?$_Tree_simple_types@U?$pair@$$CBV?$basic_string@DU?$char_traits@D@std@@V?$allocator@D@2@@std@@PAX@std@@@std@@@std@@@1@AAU?$pair@$$CBV?$basic_string@DU?$char_traits@D@std@@V?$allocator@D@2@@std@@PAX@1@PAU?$_Tree_node@U?$pair@$$CBV?$basic_string@DU?$char_traits@D@std@@V?$allocator@D@2@@std@@PAX@std@@PAX@1@@Z DD 019930522H
	DD	02H
	DD	FLAT:__unwindtable$??$_Insert_hint@AAU?$pair@$$CBV?$basic_string@DU?$char_traits@D@std@@V?$allocator@D@2@@std@@PAX@std@@PAU?$_Tree_node@U?$pair@$$CBV?$basic_string@DU?$char_traits@D@std@@V?$allocator@D@2@@std@@PAX@std@@PAX@2@@?$_Tree@V?$_Tmap_traits@V?$basic_string@DU?$char_traits@D@std@@V?$allocator@D@2@@std@@PAXU?$less@V?$basic_string@DU?$char_traits@D@std@@V?$allocator@D@2@@std@@@2@V?$allocator@U?$pair@$$CBV?$basic_string@DU?$char_traits@D@std@@V?$allocator@D@2@@std@@PAX@std@@@2@$0A@@std@@@std@@IAE?AV?$_Tree_iterator@V?$_Tree_val@U?$_Tree_simple_types@U?$pair@$$CBV?$basic_string@DU?$char_traits@D@std@@V?$allocator@D@2@@std@@PAX@std@@@std@@@std@@@1@V?$_Tree_const_iterator@V?$_Tree_val@U?$_Tree_simple_types@U?$pair@$$CBV?$basic_string@DU?$char_traits@D@std@@V?$allocator@D@2@@std@@PAX@std@@@std@@@std@@@1@AAU?$pair@$$CBV?$basic_string@DU?$char_traits@D@std@@V?$allocator@D@2@@std@@PAX@1@PAU?$_Tree_node@U?$pair@$$CBV?$basic_string@DU?$char_traits@D@std@@V?$allocator@D@2@@std@@PAX@std@@PAX@1@@Z
	DD	01H
	DD	FLAT:__tryblocktable$??$_Insert_hint@AAU?$pair@$$CBV?$basic_string@DU?$char_traits@D@std@@V?$allocator@D@2@@std@@PAX@std@@PAU?$_Tree_node@U?$pair@$$CBV?$basic_string@DU?$char_traits@D@std@@V?$allocator@D@2@@std@@PAX@std@@PAX@2@@?$_Tree@V?$_Tmap_traits@V?$basic_string@DU?$char_traits@D@std@@V?$allocator@D@2@@std@@PAXU?$less@V?$basic_string@DU?$char_traits@D@std@@V?$allocator@D@2@@std@@@2@V?$allocator@U?$pair@$$CBV?$basic_string@DU?$char_traits@D@std@@V?$allocator@D@2@@std@@PAX@std@@@2@$0A@@std@@@std@@IAE?AV?$_Tree_iterator@V?$_Tree_val@U?$_Tree_simple_types@U?$pair@$$CBV?$basic_string@DU?$char_traits@D@std@@V?$allocator@D@2@@std@@PAX@std@@@std@@@std@@@1@V?$_Tree_const_iterator@V?$_Tree_val@U?$_Tree_simple_types@U?$pair@$$CBV?$basic_string@DU?$char_traits@D@std@@V?$allocator@D@2@@std@@PAX@std@@@std@@@std@@@1@AAU?$pair@$$CBV?$basic_string@DU?$char_traits@D@std@@V?$allocator@D@2@@std@@PAX@1@PAU?$_Tree_node@U?$pair@$$CBV?$basic_string@DU?$char_traits@D@std@@V?$allocator@D@2@@std@@PAX@std@@PAX@1@@Z
	DD	2 DUP(00H)
	DD	00H
	DD	01H
xdata$x	ENDS
;	COMDAT xdata$x
xdata$x	SEGMENT
__catchsym$??$_Insert_hint@AAU?$pair@$$CBHPAX@std@@PAU?$_Tree_node@U?$pair@$$CBHPAX@std@@PAX@2@@?$_Tree@V?$_Tmap_traits@HPAXU?$less@H@std@@V?$allocator@U?$pair@$$CBHPAX@std@@@2@$0A@@std@@@std@@IAE?AV?$_Tree_iterator@V?$_Tree_val@U?$_Tree_simple_types@U?$pair@$$CBHPAX@std@@@std@@@std@@@1@V?$_Tree_const_iterator@V?$_Tree_val@U?$_Tree_simple_types@U?$pair@$$CBHPAX@std@@@std@@@std@@@1@AAU?$pair@$$CBHPAX@1@PAU?$_Tree_node@U?$pair@$$CBHPAX@std@@PAX@1@@Z$120 DD 040H
	DD	00H
	DD	00H
	DD	FLAT:__catch$??$_Insert_hint@AAU?$pair@$$CBHPAX@std@@PAU?$_Tree_node@U?$pair@$$CBHPAX@std@@PAX@2@@?$_Tree@V?$_Tmap_traits@HPAXU?$less@H@std@@V?$allocator@U?$pair@$$CBHPAX@std@@@2@$0A@@std@@@std@@IAE?AV?$_Tree_iterator@V?$_Tree_val@U?$_Tree_simple_types@U?$pair@$$CBHPAX@std@@@std@@@std@@@1@V?$_Tree_const_iterator@V?$_Tree_val@U?$_Tree_simple_types@U?$pair@$$CBHPAX@std@@@std@@@std@@@1@AAU?$pair@$$CBHPAX@1@PAU?$_Tree_node@U?$pair@$$CBHPAX@std@@PAX@1@@Z$0
__unwindtable$??$_Insert_hint@AAU?$pair@$$CBHPAX@std@@PAU?$_Tree_node@U?$pair@$$CBHPAX@std@@PAX@2@@?$_Tree@V?$_Tmap_traits@HPAXU?$less@H@std@@V?$allocator@U?$pair@$$CBHPAX@std@@@2@$0A@@std@@@std@@IAE?AV?$_Tree_iterator@V?$_Tree_val@U?$_Tree_simple_types@U?$pair@$$CBHPAX@std@@@std@@@std@@@1@V?$_Tree_const_iterator@V?$_Tree_val@U?$_Tree_simple_types@U?$pair@$$CBHPAX@std@@@std@@@std@@@1@AAU?$pair@$$CBHPAX@1@PAU?$_Tree_node@U?$pair@$$CBHPAX@std@@PAX@1@@Z DD 0ffffffffH
	DD	00H
	DD	0ffffffffH
	DD	00H
__tryblocktable$??$_Insert_hint@AAU?$pair@$$CBHPAX@std@@PAU?$_Tree_node@U?$pair@$$CBHPAX@std@@PAX@2@@?$_Tree@V?$_Tmap_traits@HPAXU?$less@H@std@@V?$allocator@U?$pair@$$CBHPAX@std@@@2@$0A@@std@@@std@@IAE?AV?$_Tree_iterator@V?$_Tree_val@U?$_Tree_simple_types@U?$pair@$$CBHPAX@std@@@std@@@std@@@1@V?$_Tree_const_iterator@V?$_Tree_val@U?$_Tree_simple_types@U?$pair@$$CBHPAX@std@@@std@@@std@@@1@AAU?$pair@$$CBHPAX@1@PAU?$_Tree_node@U?$pair@$$CBHPAX@std@@PAX@1@@Z DD 00H
	DD	00H
	DD	01H
	DD	01H
	DD	FLAT:__catchsym$??$_Insert_hint@AAU?$pair@$$CBHPAX@std@@PAU?$_Tree_node@U?$pair@$$CBHPAX@std@@PAX@2@@?$_Tree@V?$_Tmap_traits@HPAXU?$less@H@std@@V?$allocator@U?$pair@$$CBHPAX@std@@@2@$0A@@std@@@std@@IAE?AV?$_Tree_iterator@V?$_Tree_val@U?$_Tree_simple_types@U?$pair@$$CBHPAX@std@@@std@@@std@@@1@V?$_Tree_const_iterator@V?$_Tree_val@U?$_Tree_simple_types@U?$pair@$$CBHPAX@std@@@std@@@std@@@1@AAU?$pair@$$CBHPAX@1@PAU?$_Tree_node@U?$pair@$$CBHPAX@std@@PAX@1@@Z$120
__ehfuncinfo$??$_Insert_hint@AAU?$pair@$$CBHPAX@std@@PAU?$_Tree_node@U?$pair@$$CBHPAX@std@@PAX@2@@?$_Tree@V?$_Tmap_traits@HPAXU?$less@H@std@@V?$allocator@U?$pair@$$CBHPAX@std@@@2@$0A@@std@@@std@@IAE?AV?$_Tree_iterator@V?$_Tree_val@U?$_Tree_simple_types@U?$pair@$$CBHPAX@std@@@std@@@std@@@1@V?$_Tree_const_iterator@V?$_Tree_val@U?$_Tree_simple_types@U?$pair@$$CBHPAX@std@@@std@@@std@@@1@AAU?$pair@$$CBHPAX@1@PAU?$_Tree_node@U?$pair@$$CBHPAX@std@@PAX@1@@Z DD 019930522H
	DD	02H
	DD	FLAT:__unwindtable$??$_Insert_hint@AAU?$pair@$$CBHPAX@std@@PAU?$_Tree_node@U?$pair@$$CBHPAX@std@@PAX@2@@?$_Tree@V?$_Tmap_traits@HPAXU?$less@H@std@@V?$allocator@U?$pair@$$CBHPAX@std@@@2@$0A@@std@@@std@@IAE?AV?$_Tree_iterator@V?$_Tree_val@U?$_Tree_simple_types@U?$pair@$$CBHPAX@std@@@std@@@std@@@1@V?$_Tree_const_iterator@V?$_Tree_val@U?$_Tree_simple_types@U?$pair@$$CBHPAX@std@@@std@@@std@@@1@AAU?$pair@$$CBHPAX@1@PAU?$_Tree_node@U?$pair@$$CBHPAX@std@@PAX@1@@Z
	DD	01H
	DD	FLAT:__tryblocktable$??$_Insert_hint@AAU?$pair@$$CBHPAX@std@@PAU?$_Tree_node@U?$pair@$$CBHPAX@std@@PAX@2@@?$_Tree@V?$_Tmap_traits@HPAXU?$less@H@std@@V?$allocator@U?$pair@$$CBHPAX@std@@@2@$0A@@std@@@std@@IAE?AV?$_Tree_iterator@V?$_Tree_val@U?$_Tree_simple_types@U?$pair@$$CBHPAX@std@@@std@@@std@@@1@V?$_Tree_const_iterator@V?$_Tree_val@U?$_Tree_simple_types@U?$pair@$$CBHPAX@std@@@std@@@std@@@1@AAU?$pair@$$CBHPAX@1@PAU?$_Tree_node@U?$pair@$$CBHPAX@std@@PAX@1@@Z
	DD	2 DUP(00H)
	DD	00H
	DD	01H
xdata$x	ENDS
;	COMDAT xdata$x
xdata$x	SEGMENT
__ehfuncinfo$?clear@?$_Tree@V?$_Tmap_traits@HPAXU?$less@H@std@@V?$allocator@U?$pair@$$CBHPAX@std@@@2@$0A@@std@@@std@@QAEXXZ DD 019930522H
	DD	00H
	DD	00H
	DD	2 DUP(00H)
	DD	2 DUP(00H)
	DD	00H
	DD	05H
xdata$x	ENDS
;	COMDAT xdata$x
xdata$x	SEGMENT
__unwindtable$??__FStringKeyMap@@YAXXZ DD 0ffffffffH
	DD	FLAT:__unwindfunclet$??__FStringKeyMap@@YAXXZ$1
__ehfuncinfo$??__FStringKeyMap@@YAXXZ DD 019930522H
	DD	01H
	DD	FLAT:__unwindtable$??__FStringKeyMap@@YAXXZ
	DD	2 DUP(00H)
	DD	2 DUP(00H)
	DD	00H
	DD	01H
xdata$x	ENDS
;	COMDAT xdata$x
xdata$x	SEGMENT
__unwindtable$??1?$map@V?$basic_string@DU?$char_traits@D@std@@V?$allocator@D@2@@std@@PAXU?$less@V?$basic_string@DU?$char_traits@D@std@@V?$allocator@D@2@@std@@@2@V?$allocator@U?$pair@$$CBV?$basic_string@DU?$char_traits@D@std@@V?$allocator@D@2@@std@@PAX@std@@@2@@std@@QAE@XZ DD 0ffffffffH
	DD	FLAT:__unwindfunclet$??1?$map@V?$basic_string@DU?$char_traits@D@std@@V?$allocator@D@2@@std@@PAXU?$less@V?$basic_string@DU?$char_traits@D@std@@V?$allocator@D@2@@std@@@2@V?$allocator@U?$pair@$$CBV?$basic_string@DU?$char_traits@D@std@@V?$allocator@D@2@@std@@PAX@std@@@2@@std@@QAE@XZ$0
__ehfuncinfo$??1?$map@V?$basic_string@DU?$char_traits@D@std@@V?$allocator@D@2@@std@@PAXU?$less@V?$basic_string@DU?$char_traits@D@std@@V?$allocator@D@2@@std@@@2@V?$allocator@U?$pair@$$CBV?$basic_string@DU?$char_traits@D@std@@V?$allocator@D@2@@std@@PAX@std@@@2@@std@@QAE@XZ DD 019930522H
	DD	01H
	DD	FLAT:__unwindtable$??1?$map@V?$basic_string@DU?$char_traits@D@std@@V?$allocator@D@2@@std@@PAXU?$less@V?$basic_string@DU?$char_traits@D@std@@V?$allocator@D@2@@std@@@2@V?$allocator@U?$pair@$$CBV?$basic_string@DU?$char_traits@D@std@@V?$allocator@D@2@@std@@PAX@std@@@2@@std@@QAE@XZ
	DD	2 DUP(00H)
	DD	2 DUP(00H)
	DD	00H
	DD	05H
xdata$x	ENDS
;	COMDAT xdata$x
xdata$x	SEGMENT
__ehfuncinfo$?clear@?$_Tree@V?$_Tmap_traits@V?$basic_string@DU?$char_traits@D@std@@V?$allocator@D@2@@std@@PAXU?$less@V?$basic_string@DU?$char_traits@D@std@@V?$allocator@D@2@@std@@@2@V?$allocator@U?$pair@$$CBV?$basic_string@DU?$char_traits@D@std@@V?$allocator@D@2@@std@@PAX@std@@@2@$0A@@std@@@std@@QAEXXZ DD 019930522H
	DD	00H
	DD	00H
	DD	2 DUP(00H)
	DD	2 DUP(00H)
	DD	00H
	DD	05H
xdata$x	ENDS
;	COMDAT xdata$x
xdata$x	SEGMENT
__unwindtable$?erase@?$_Tree@V?$_Tmap_traits@V?$basic_string@DU?$char_traits@D@std@@V?$allocator@D@2@@std@@PAXU?$less@V?$basic_string@DU?$char_traits@D@std@@V?$allocator@D@2@@std@@@2@V?$allocator@U?$pair@$$CBV?$basic_string@DU?$char_traits@D@std@@V?$allocator@D@2@@std@@PAX@std@@@2@$0A@@std@@@std@@QAE?AV?$_Tree_iterator@V?$_Tree_val@U?$_Tree_simple_types@U?$pair@$$CBV?$basic_string@DU?$char_traits@D@std@@V?$allocator@D@2@@std@@PAX@std@@@std@@@std@@@2@V?$_Tree_const_iterator@V?$_Tree_val@U?$_Tree_simple_types@U?$pair@$$CBV?$basic_string@DU?$char_traits@D@std@@V?$allocator@D@2@@std@@PAX@std@@@std@@@std@@@2@0@Z DD 0ffffffffH
	DD	FLAT:__unwindfunclet$?erase@?$_Tree@V?$_Tmap_traits@V?$basic_string@DU?$char_traits@D@std@@V?$allocator@D@2@@std@@PAXU?$less@V?$basic_string@DU?$char_traits@D@std@@V?$allocator@D@2@@std@@@2@V?$allocator@U?$pair@$$CBV?$basic_string@DU?$char_traits@D@std@@V?$allocator@D@2@@std@@PAX@std@@@2@$0A@@std@@@std@@QAE?AV?$_Tree_iterator@V?$_Tree_val@U?$_Tree_simple_types@U?$pair@$$CBV?$basic_string@DU?$char_traits@D@std@@V?$allocator@D@2@@std@@PAX@std@@@std@@@std@@@2@V?$_Tree_const_iterator@V?$_Tree_val@U?$_Tree_simple_types@U?$pair@$$CBV?$basic_string@DU?$char_traits@D@std@@V?$allocator@D@2@@std@@PAX@std@@@std@@@std@@@2@0@Z$16
__ehfuncinfo$?erase@?$_Tree@V?$_Tmap_traits@V?$basic_string@DU?$char_traits@D@std@@V?$allocator@D@2@@std@@PAXU?$less@V?$basic_string@DU?$char_traits@D@std@@V?$allocator@D@2@@std@@@2@V?$allocator@U?$pair@$$CBV?$basic_string@DU?$char_traits@D@std@@V?$allocator@D@2@@std@@PAX@std@@@2@$0A@@std@@@std@@QAE?AV?$_Tree_iterator@V?$_Tree_val@U?$_Tree_simple_types@U?$pair@$$CBV?$basic_string@DU?$char_traits@D@std@@V?$allocator@D@2@@std@@PAX@std@@@std@@@std@@@2@V?$_Tree_const_iterator@V?$_Tree_val@U?$_Tree_simple_types@U?$pair@$$CBV?$basic_string@DU?$char_traits@D@std@@V?$allocator@D@2@@std@@PAX@std@@@std@@@std@@@2@0@Z DD 019930522H
	DD	01H
	DD	FLAT:__unwindtable$?erase@?$_Tree@V?$_Tmap_traits@V?$basic_string@DU?$char_traits@D@std@@V?$allocator@D@2@@std@@PAXU?$less@V?$basic_string@DU?$char_traits@D@std@@V?$allocator@D@2@@std@@@2@V?$allocator@U?$pair@$$CBV?$basic_string@DU?$char_traits@D@std@@V?$allocator@D@2@@std@@PAX@std@@@2@$0A@@std@@@std@@QAE?AV?$_Tree_iterator@V?$_Tree_val@U?$_Tree_simple_types@U?$pair@$$CBV?$basic_string@DU?$char_traits@D@std@@V?$allocator@D@2@@std@@PAX@std@@@std@@@std@@@2@V?$_Tree_const_iterator@V?$_Tree_val@U?$_Tree_simple_types@U?$pair@$$CBV?$basic_string@DU?$char_traits@D@std@@V?$allocator@D@2@@std@@PAX@std@@@std@@@std@@@2@0@Z
	DD	2 DUP(00H)
	DD	2 DUP(00H)
	DD	00H
	DD	01H
xdata$x	ENDS
;	COMDAT xdata$x
xdata$x	SEGMENT
__ehfuncinfo$??1?$_Tree@V?$_Tmap_traits@V?$basic_string@DU?$char_traits@D@std@@V?$allocator@D@2@@std@@PAXU?$less@V?$basic_string@DU?$char_traits@D@std@@V?$allocator@D@2@@std@@@2@V?$allocator@U?$pair@$$CBV?$basic_string@DU?$char_traits@D@std@@V?$allocator@D@2@@std@@PAX@std@@@2@$0A@@std@@@std@@QAE@XZ DD 019930522H
	DD	00H
	DD	00H
	DD	2 DUP(00H)
	DD	2 DUP(00H)
	DD	00H
	DD	05H
xdata$x	ENDS
;	COMDAT xdata$x
xdata$x	SEGMENT
__catchsym$?_Copy@?$basic_string@DU?$char_traits@D@std@@V?$allocator@D@2@@std@@QAEXII@Z$111 DD 040H
	DD	00H
	DD	00H
	DD	FLAT:__catch$?_Copy@?$basic_string@DU?$char_traits@D@std@@V?$allocator@D@2@@std@@QAEXII@Z$0
__catchsym$?_Copy@?$basic_string@DU?$char_traits@D@std@@V?$allocator@D@2@@std@@QAEXII@Z$110 DD 040H
	DD	00H
	DD	00H
	DD	FLAT:__catch$?_Copy@?$basic_string@DU?$char_traits@D@std@@V?$allocator@D@2@@std@@QAEXII@Z$1
__unwindtable$?_Copy@?$basic_string@DU?$char_traits@D@std@@V?$allocator@D@2@@std@@QAEXII@Z DD 0ffffffffH
	DD	00H
	DD	0ffffffffH
	DD	00H
	DD	01H
	DD	00H
	DD	01H
	DD	00H
__ehfuncinfo$?_Copy@?$basic_string@DU?$char_traits@D@std@@V?$allocator@D@2@@std@@QAEXII@Z DD 019930522H
	DD	04H
	DD	FLAT:__unwindtable$?_Copy@?$basic_string@DU?$char_traits@D@std@@V?$allocator@D@2@@std@@QAEXII@Z
	DD	02H
	DD	FLAT:__tryblocktable$?_Copy@?$basic_string@DU?$char_traits@D@std@@V?$allocator@D@2@@std@@QAEXII@Z
	DD	2 DUP(00H)
	DD	00H
	DD	01H
__tryblocktable$?_Copy@?$basic_string@DU?$char_traits@D@std@@V?$allocator@D@2@@std@@QAEXII@Z DD 02H
	DD	02H
	DD	03H
	DD	01H
	DD	FLAT:__catchsym$?_Copy@?$basic_string@DU?$char_traits@D@std@@V?$allocator@D@2@@std@@QAEXII@Z$110
	DD	00H
	DD	00H
	DD	03H
	DD	01H
	DD	FLAT:__catchsym$?_Copy@?$basic_string@DU?$char_traits@D@std@@V?$allocator@D@2@@std@@QAEXII@Z$111
xdata$x	ENDS
;	COMDAT xdata$x
xdata$x	SEGMENT
__unwindtable$_ClearDictionaryPool DD 0ffffffffH
	DD	FLAT:__unwindfunclet$_ClearDictionaryPool$0
__ehfuncinfo$_ClearDictionaryPool DD 019930522H
	DD	01H
	DD	FLAT:__unwindtable$_ClearDictionaryPool
	DD	2 DUP(00H)
	DD	2 DUP(00H)
	DD	00H
	DD	01H
xdata$x	ENDS
CRT$XCU	SEGMENT
?IntKeyMap$initializer$@@3P6AXXZA DD FLAT:??__EIntKeyMap@@YAXXZ ; IntKeyMap$initializer$
CRT$XCU	ENDS
; Function compile flags: /Ogtp
; File c:\program files (x86)\microsoft visual studio 14.0\vc\include\type_traits
;	COMDAT ??$forward@$$QAV?$basic_string@DU?$char_traits@D@std@@V?$allocator@D@2@@std@@@std@@YA$$QAV?$basic_string@DU?$char_traits@D@std@@V?$allocator@D@2@@0@AAV10@@Z
_TEXT	SEGMENT
__Arg$ = 8						; size = 4
??$forward@$$QAV?$basic_string@DU?$char_traits@D@std@@V?$allocator@D@2@@std@@@std@@YA$$QAV?$basic_string@DU?$char_traits@D@std@@V?$allocator@D@2@@0@AAV10@@Z PROC ; std::forward<std::basic_string<char,std::char_traits<char>,std::allocator<char> > &&>, COMDAT

; 1275 : 	{	// forward an lvalue as either an lvalue or an rvalue

  00000	55		 push	 ebp
  00001	8b ec		 mov	 ebp, esp

; 1276 : 	return (static_cast<_Ty&&>(_Arg));

  00003	8b 45 08	 mov	 eax, DWORD PTR __Arg$[ebp]

; 1277 : 	}

  00006	5d		 pop	 ebp
  00007	c3		 ret	 0
??$forward@$$QAV?$basic_string@DU?$char_traits@D@std@@V?$allocator@D@2@@std@@@std@@YA$$QAV?$basic_string@DU?$char_traits@D@std@@V?$allocator@D@2@@0@AAV10@@Z ENDP ; std::forward<std::basic_string<char,std::char_traits<char>,std::allocator<char> > &&>
_TEXT	ENDS
; Function compile flags: /Ogtp
; File c:\program files (x86)\microsoft visual studio 14.0\vc\include\tuple
;	COMDAT ??$get@$0A@$$QAV?$basic_string@DU?$char_traits@D@std@@V?$allocator@D@2@@std@@@std@@YA$$QAV?$basic_string@DU?$char_traits@D@std@@V?$allocator@D@2@@0@$$QAV?$tuple@$$QAV?$basic_string@DU?$char_traits@D@std@@V?$allocator@D@2@@std@@@0@@Z
_TEXT	SEGMENT
__Tuple$ = 8						; size = 4
??$get@$0A@$$QAV?$basic_string@DU?$char_traits@D@std@@V?$allocator@D@2@@std@@@std@@YA$$QAV?$basic_string@DU?$char_traits@D@std@@V?$allocator@D@2@@0@$$QAV?$tuple@$$QAV?$basic_string@DU?$char_traits@D@std@@V?$allocator@D@2@@std@@@0@@Z PROC ; std::get<0,std::basic_string<char,std::char_traits<char>,std::allocator<char> > &&>, COMDAT

; 903  : 	{	// get rvalue reference to _Index element of tuple

  00000	55		 push	 ebp
  00001	8b ec		 mov	 ebp, esp

; 904  : 	typedef typename tuple_element<_Index, tuple<_Types...> >::_Ttype
; 905  : 		_Ttype;
; 906  : 	typedef typename tuple_element<_Index, tuple<_Types...> >::type&&
; 907  : 		_RRtype;
; 908  : 	return (_STD forward<_RRtype>(((_Ttype&)_Tuple)._Myfirst._Val));

  00003	8b 45 08	 mov	 eax, DWORD PTR __Tuple$[ebp]
  00006	8b 00		 mov	 eax, DWORD PTR [eax]

; 909  : 	}

  00008	5d		 pop	 ebp
  00009	c3		 ret	 0
??$get@$0A@$$QAV?$basic_string@DU?$char_traits@D@std@@V?$allocator@D@2@@std@@@std@@YA$$QAV?$basic_string@DU?$char_traits@D@std@@V?$allocator@D@2@@0@$$QAV?$tuple@$$QAV?$basic_string@DU?$char_traits@D@std@@V?$allocator@D@2@@std@@@0@@Z ENDP ; std::get<0,std::basic_string<char,std::char_traits<char>,std::allocator<char> > &&>
_TEXT	ENDS
; Function compile flags: /Ogtp
; File c:\program files (x86)\microsoft visual studio 14.0\vc\include\type_traits
;	COMDAT ??$move@AAV?$tuple@$$QAV?$basic_string@DU?$char_traits@D@std@@V?$allocator@D@2@@std@@@std@@@std@@YA$$QAV?$tuple@$$QAV?$basic_string@DU?$char_traits@D@std@@V?$allocator@D@2@@std@@@0@AAV10@@Z
_TEXT	SEGMENT
__Arg$ = 8						; size = 4
??$move@AAV?$tuple@$$QAV?$basic_string@DU?$char_traits@D@std@@V?$allocator@D@2@@std@@@std@@@std@@YA$$QAV?$tuple@$$QAV?$basic_string@DU?$char_traits@D@std@@V?$allocator@D@2@@std@@@0@AAV10@@Z PROC ; std::move<std::tuple<std::basic_string<char,std::char_traits<char>,std::allocator<char> > &&> &>, COMDAT

; 1291 : 	{	// forward _Arg as movable

  00000	55		 push	 ebp
  00001	8b ec		 mov	 ebp, esp

; 1292 : 	return (static_cast<typename remove_reference<_Ty>::type&&>(_Arg));

  00003	8b 45 08	 mov	 eax, DWORD PTR __Arg$[ebp]

; 1293 : 	}

  00006	5d		 pop	 ebp
  00007	c3		 ret	 0
??$move@AAV?$tuple@$$QAV?$basic_string@DU?$char_traits@D@std@@V?$allocator@D@2@@std@@@std@@@std@@YA$$QAV?$tuple@$$QAV?$basic_string@DU?$char_traits@D@std@@V?$allocator@D@2@@std@@@0@AAV10@@Z ENDP ; std::move<std::tuple<std::basic_string<char,std::char_traits<char>,std::allocator<char> > &&> &>
_TEXT	ENDS
; Function compile flags: /Ogtp
; File c:\program files (x86)\microsoft visual studio 14.0\vc\include\tuple
;	COMDAT ??$get@$0A@ABH@std@@YAABH$$QAV?$tuple@ABH@0@@Z
_TEXT	SEGMENT
__Tuple$ = 8						; size = 4
??$get@$0A@ABH@std@@YAABH$$QAV?$tuple@ABH@0@@Z PROC	; std::get<0,int const &>, COMDAT

; 903  : 	{	// get rvalue reference to _Index element of tuple

  00000	55		 push	 ebp
  00001	8b ec		 mov	 ebp, esp

; 904  : 	typedef typename tuple_element<_Index, tuple<_Types...> >::_Ttype
; 905  : 		_Ttype;
; 906  : 	typedef typename tuple_element<_Index, tuple<_Types...> >::type&&
; 907  : 		_RRtype;
; 908  : 	return (_STD forward<_RRtype>(((_Ttype&)_Tuple)._Myfirst._Val));

  00003	8b 45 08	 mov	 eax, DWORD PTR __Tuple$[ebp]
  00006	8b 00		 mov	 eax, DWORD PTR [eax]

; 909  : 	}

  00008	5d		 pop	 ebp
  00009	c3		 ret	 0
??$get@$0A@ABH@std@@YAABH$$QAV?$tuple@ABH@0@@Z ENDP	; std::get<0,int const &>
_TEXT	ENDS
; Function compile flags: /Ogtp
; File c:\program files (x86)\microsoft visual studio 14.0\vc\include\type_traits
;	COMDAT ??$move@AAV?$tuple@ABH@std@@@std@@YA$$QAV?$tuple@ABH@0@AAV10@@Z
_TEXT	SEGMENT
__Arg$ = 8						; size = 4
??$move@AAV?$tuple@ABH@std@@@std@@YA$$QAV?$tuple@ABH@0@AAV10@@Z PROC ; std::move<std::tuple<int const &> &>, COMDAT

; 1291 : 	{	// forward _Arg as movable

  00000	55		 push	 ebp
  00001	8b ec		 mov	 ebp, esp

; 1292 : 	return (static_cast<typename remove_reference<_Ty>::type&&>(_Arg));

  00003	8b 45 08	 mov	 eax, DWORD PTR __Arg$[ebp]

; 1293 : 	}

  00006	5d		 pop	 ebp
  00007	c3		 ret	 0
??$move@AAV?$tuple@ABH@std@@@std@@YA$$QAV?$tuple@ABH@0@AAV10@@Z ENDP ; std::move<std::tuple<int const &> &>
_TEXT	ENDS
; Function compile flags: /Ogtp
; File c:\program files (x86)\microsoft visual studio 14.0\vc\include\tuple
;	COMDAT ??$?0V?$tuple@$$QAV?$basic_string@DU?$char_traits@D@std@@V?$allocator@D@2@@std@@@std@@V?$tuple@$$V@1@$0A@$$Z$S@?$pair@$$CBV?$basic_string@DU?$char_traits@D@std@@V?$allocator@D@2@@std@@PAX@std@@QAE@AAV?$tuple@$$QAV?$basic_string@DU?$char_traits@D@std@@V?$allocator@D@2@@std@@@1@AAV?$tuple@$$V@1@U?$integer_sequence@I$0A@@1@U?$integer_sequence@I$S@1@@Z
_TEXT	SEGMENT
_this$ = -4						; size = 4
__Val1$ = 8						; size = 4
__Val2$ = 12						; size = 4
___formal$ = 16						; size = 1
___formal$ = 20						; size = 1
??$?0V?$tuple@$$QAV?$basic_string@DU?$char_traits@D@std@@V?$allocator@D@2@@std@@@std@@V?$tuple@$$V@1@$0A@$$Z$S@?$pair@$$CBV?$basic_string@DU?$char_traits@D@std@@V?$allocator@D@2@@std@@PAX@std@@QAE@AAV?$tuple@$$QAV?$basic_string@DU?$char_traits@D@std@@V?$allocator@D@2@@std@@@1@AAV?$tuple@$$V@1@U?$integer_sequence@I$0A@@1@U?$integer_sequence@I$S@1@@Z PROC ; std::pair<std::basic_string<char,std::char_traits<char>,std::allocator<char> > const ,void *>::pair<std::basic_string<char,std::char_traits<char>,std::allocator<char> > const ,void *><std::tuple<std::basic_string<char,std::char_traits<char>,std::allocator<char> > &&>,std::tuple<>,0>, COMDAT
; _this$ = ecx

; 1180 : 		{	// construct from pair of tuples

  00000	55		 push	 ebp
  00001	8b ec		 mov	 ebp, esp
  00003	51		 push	 ecx

; 1178 : 		: first(_STD get<_Indexes1>(_STD move(_Val1))...),

  00004	8b 45 08	 mov	 eax, DWORD PTR __Val1$[ebp]
  00007	56		 push	 esi

; 1180 : 		{	// construct from pair of tuples

  00008	8b f1		 mov	 esi, ecx
  0000a	89 75 fc	 mov	 DWORD PTR _this$[ebp], esi
  0000d	8b 00		 mov	 eax, DWORD PTR [eax]
  0000f	50		 push	 eax
  00010	c7 46 14 0f 00
	00 00		 mov	 DWORD PTR [esi+20], 15	; 0000000fH
  00017	c7 46 10 00 00
	00 00		 mov	 DWORD PTR [esi+16], 0
  0001e	c6 06 00	 mov	 BYTE PTR [esi], 0
  00021	e8 00 00 00 00	 call	 ?_Assign_rv@?$basic_string@DU?$char_traits@D@std@@V?$allocator@D@2@@std@@QAEX$$QAV12@@Z ; std::basic_string<char,std::char_traits<char>,std::allocator<char> >::_Assign_rv

; 1179 : 			second(_STD get<_Indexes2>(_STD move(_Val2))...)

  00026	c7 46 18 00 00
	00 00		 mov	 DWORD PTR [esi+24], 0

; 1181 : 		(void) _Val1;	// TRANSITION, VSO#181496
; 1182 : 		(void) _Val2;
; 1183 : 		}

  0002d	8b c6		 mov	 eax, esi
  0002f	5e		 pop	 esi
  00030	8b e5		 mov	 esp, ebp
  00032	5d		 pop	 ebp
  00033	c2 10 00	 ret	 16			; 00000010H
??$?0V?$tuple@$$QAV?$basic_string@DU?$char_traits@D@std@@V?$allocator@D@2@@std@@@std@@V?$tuple@$$V@1@$0A@$$Z$S@?$pair@$$CBV?$basic_string@DU?$char_traits@D@std@@V?$allocator@D@2@@std@@PAX@std@@QAE@AAV?$tuple@$$QAV?$basic_string@DU?$char_traits@D@std@@V?$allocator@D@2@@std@@@1@AAV?$tuple@$$V@1@U?$integer_sequence@I$0A@@1@U?$integer_sequence@I$S@1@@Z ENDP ; std::pair<std::basic_string<char,std::char_traits<char>,std::allocator<char> > const ,void *>::pair<std::basic_string<char,std::char_traits<char>,std::allocator<char> > const ,void *><std::tuple<std::basic_string<char,std::char_traits<char>,std::allocator<char> > &&>,std::tuple<>,0>
_TEXT	ENDS
; Function compile flags: /Ogtp
; File c:\program files (x86)\microsoft visual studio 14.0\vc\include\tuple
;	COMDAT ??$?0V?$tuple@ABH@std@@V?$tuple@$$V@1@$0A@$$Z$S@?$pair@$$CBHPAX@std@@QAE@AAV?$tuple@ABH@1@AAV?$tuple@$$V@1@U?$integer_sequence@I$0A@@1@U?$integer_sequence@I$S@1@@Z
_TEXT	SEGMENT
__Val1$ = 8						; size = 4
__Val2$ = 12						; size = 4
___formal$ = 16						; size = 1
___formal$ = 20						; size = 1
??$?0V?$tuple@ABH@std@@V?$tuple@$$V@1@$0A@$$Z$S@?$pair@$$CBHPAX@std@@QAE@AAV?$tuple@ABH@1@AAV?$tuple@$$V@1@U?$integer_sequence@I$0A@@1@U?$integer_sequence@I$S@1@@Z PROC ; std::pair<int const ,void *>::pair<int const ,void *><std::tuple<int const &>,std::tuple<>,0>, COMDAT
; _this$ = ecx

; 1180 : 		{	// construct from pair of tuples

  00000	55		 push	 ebp
  00001	8b ec		 mov	 ebp, esp

; 1178 : 		: first(_STD get<_Indexes1>(_STD move(_Val1))...),

  00003	8b 45 08	 mov	 eax, DWORD PTR __Val1$[ebp]
  00006	8b 00		 mov	 eax, DWORD PTR [eax]
  00008	8b 00		 mov	 eax, DWORD PTR [eax]
  0000a	89 01		 mov	 DWORD PTR [ecx], eax

; 1181 : 		(void) _Val1;	// TRANSITION, VSO#181496
; 1182 : 		(void) _Val2;
; 1183 : 		}

  0000c	8b c1		 mov	 eax, ecx
  0000e	c7 41 04 00 00
	00 00		 mov	 DWORD PTR [ecx+4], 0
  00015	5d		 pop	 ebp
  00016	c2 10 00	 ret	 16			; 00000010H
??$?0V?$tuple@ABH@std@@V?$tuple@$$V@1@$0A@$$Z$S@?$pair@$$CBHPAX@std@@QAE@AAV?$tuple@ABH@1@AAV?$tuple@$$V@1@U?$integer_sequence@I$0A@@1@U?$integer_sequence@I$S@1@@Z ENDP ; std::pair<int const ,void *>::pair<int const ,void *><std::tuple<int const &>,std::tuple<>,0>
_TEXT	ENDS
; Function compile flags: /Ogtp
; File c:\program files (x86)\microsoft visual studio 14.0\vc\include\tuple
;	COMDAT ??$?0$$QAV?$basic_string@DU?$char_traits@D@std@@V?$allocator@D@2@@std@@$$Z$$V@?$pair@$$CBV?$basic_string@DU?$char_traits@D@std@@V?$allocator@D@2@@std@@PAX@std@@QAE@Upiecewise_construct_t@1@V?$tuple@$$QAV?$basic_string@DU?$char_traits@D@std@@V?$allocator@D@2@@std@@@1@V?$tuple@$$V@1@@Z
_TEXT	SEGMENT
_this$ = -4						; size = 4
___formal$ = 8						; size = 1
__Val1$ = 12						; size = 4
__Val2$ = 16						; size = 1
??$?0$$QAV?$basic_string@DU?$char_traits@D@std@@V?$allocator@D@2@@std@@$$Z$$V@?$pair@$$CBV?$basic_string@DU?$char_traits@D@std@@V?$allocator@D@2@@std@@PAX@std@@QAE@Upiecewise_construct_t@1@V?$tuple@$$QAV?$basic_string@DU?$char_traits@D@std@@V?$allocator@D@2@@std@@@1@V?$tuple@$$V@1@@Z PROC ; std::pair<std::basic_string<char,std::char_traits<char>,std::allocator<char> > const ,void *>::pair<std::basic_string<char,std::char_traits<char>,std::allocator<char> > const ,void *><std::basic_string<char,std::char_traits<char>,std::allocator<char> > &&>, COMDAT
; _this$ = ecx

; 1196 : 		{	// construct from pair of tuples

  00000	55		 push	 ebp
  00001	8b ec		 mov	 ebp, esp
  00003	51		 push	 ecx

; 1193 : 		: pair(_Val1, _Val2,

  00004	8b 45 0c	 mov	 eax, DWORD PTR __Val1$[ebp]
  00007	56		 push	 esi

; 1196 : 		{	// construct from pair of tuples

  00008	8b f1		 mov	 esi, ecx
  0000a	50		 push	 eax
  0000b	89 75 fc	 mov	 DWORD PTR _this$[ebp], esi
  0000e	c7 46 14 0f 00
	00 00		 mov	 DWORD PTR [esi+20], 15	; 0000000fH
  00015	c7 46 10 00 00
	00 00		 mov	 DWORD PTR [esi+16], 0
  0001c	c6 06 00	 mov	 BYTE PTR [esi], 0
  0001f	e8 00 00 00 00	 call	 ?_Assign_rv@?$basic_string@DU?$char_traits@D@std@@V?$allocator@D@2@@std@@QAEX$$QAV12@@Z ; std::basic_string<char,std::char_traits<char>,std::allocator<char> >::_Assign_rv
  00024	c7 46 18 00 00
	00 00		 mov	 DWORD PTR [esi+24], 0

; 1197 : 		}

  0002b	8b c6		 mov	 eax, esi
  0002d	5e		 pop	 esi
  0002e	8b e5		 mov	 esp, ebp
  00030	5d		 pop	 ebp
  00031	c2 0c 00	 ret	 12			; 0000000cH
??$?0$$QAV?$basic_string@DU?$char_traits@D@std@@V?$allocator@D@2@@std@@$$Z$$V@?$pair@$$CBV?$basic_string@DU?$char_traits@D@std@@V?$allocator@D@2@@std@@PAX@std@@QAE@Upiecewise_construct_t@1@V?$tuple@$$QAV?$basic_string@DU?$char_traits@D@std@@V?$allocator@D@2@@std@@@1@V?$tuple@$$V@1@@Z ENDP ; std::pair<std::basic_string<char,std::char_traits<char>,std::allocator<char> > const ,void *>::pair<std::basic_string<char,std::char_traits<char>,std::allocator<char> > const ,void *><std::basic_string<char,std::char_traits<char>,std::allocator<char> > &&>
_TEXT	ENDS
; Function compile flags: /Ogtp
; File c:\program files (x86)\microsoft visual studio 14.0\vc\include\tuple
;	COMDAT ??$?0ABH$$Z$$V@?$pair@$$CBHPAX@std@@QAE@Upiecewise_construct_t@1@V?$tuple@ABH@1@V?$tuple@$$V@1@@Z
_TEXT	SEGMENT
___formal$ = 8						; size = 1
__Val1$ = 12						; size = 4
__Val2$ = 16						; size = 1
??$?0ABH$$Z$$V@?$pair@$$CBHPAX@std@@QAE@Upiecewise_construct_t@1@V?$tuple@ABH@1@V?$tuple@$$V@1@@Z PROC ; std::pair<int const ,void *>::pair<int const ,void *><int const &>, COMDAT
; _this$ = ecx

; 1196 : 		{	// construct from pair of tuples

  00000	55		 push	 ebp
  00001	8b ec		 mov	 ebp, esp

; 1193 : 		: pair(_Val1, _Val2,

  00003	8b 45 0c	 mov	 eax, DWORD PTR __Val1$[ebp]
  00006	8b 00		 mov	 eax, DWORD PTR [eax]
  00008	89 01		 mov	 DWORD PTR [ecx], eax

; 1197 : 		}

  0000a	8b c1		 mov	 eax, ecx
  0000c	c7 41 04 00 00
	00 00		 mov	 DWORD PTR [ecx+4], 0
  00013	5d		 pop	 ebp
  00014	c2 0c 00	 ret	 12			; 0000000cH
??$?0ABH$$Z$$V@?$pair@$$CBHPAX@std@@QAE@Upiecewise_construct_t@1@V?$tuple@ABH@1@V?$tuple@$$V@1@@Z ENDP ; std::pair<int const ,void *>::pair<int const ,void *><int const &>
_TEXT	ENDS
; Function compile flags: /Ogtp
; File c:\program files (x86)\microsoft visual studio 14.0\vc\include\xmemory0
;	COMDAT ??$construct@U?$pair@$$CBV?$basic_string@DU?$char_traits@D@std@@V?$allocator@D@2@@std@@PAX@std@@ABUpiecewise_construct_t@2@V?$tuple@$$QAV?$basic_string@DU?$char_traits@D@std@@V?$allocator@D@2@@std@@@2@V?$tuple@$$V@2@@?$allocator@U?$_Tree_node@U?$pair@$$CBV?$basic_string@DU?$char_traits@D@std@@V?$allocator@D@2@@std@@PAX@std@@PAX@std@@@std@@QAEXPAU?$pair@$$CBV?$basic_string@DU?$char_traits@D@std@@V?$allocator@D@2@@std@@PAX@1@ABUpiecewise_construct_t@1@$$QAV?$tuple@$$QAV?$basic_string@DU?$char_traits@D@std@@V?$allocator@D@2@@std@@@1@$$QAV?$tuple@$$V@1@@Z
_TEXT	SEGMENT
__Ptr$ = 8						; size = 4
_<_Args_0>$ = 12					; size = 4
_<_Args_1>$ = 16					; size = 4
_<_Args_2>$ = 20					; size = 4
??$construct@U?$pair@$$CBV?$basic_string@DU?$char_traits@D@std@@V?$allocator@D@2@@std@@PAX@std@@ABUpiecewise_construct_t@2@V?$tuple@$$QAV?$basic_string@DU?$char_traits@D@std@@V?$allocator@D@2@@std@@@2@V?$tuple@$$V@2@@?$allocator@U?$_Tree_node@U?$pair@$$CBV?$basic_string@DU?$char_traits@D@std@@V?$allocator@D@2@@std@@PAX@std@@PAX@std@@@std@@QAEXPAU?$pair@$$CBV?$basic_string@DU?$char_traits@D@std@@V?$allocator@D@2@@std@@PAX@1@ABUpiecewise_construct_t@1@$$QAV?$tuple@$$QAV?$basic_string@DU?$char_traits@D@std@@V?$allocator@D@2@@std@@@1@$$QAV?$tuple@$$V@1@@Z PROC ; std::allocator<std::_Tree_node<std::pair<std::basic_string<char,std::char_traits<char>,std::allocator<char> > const ,void *>,void *> >::construct<std::pair<std::basic_string<char,std::char_traits<char>,std::allocator<char> > const ,void *>,std::piecewise_construct_t const &,std::tuple<std::basic_string<char,std::char_traits<char>,std::allocator<char> > &&>,std::tuple<> >, COMDAT
; _this$ = ecx

; 736  : 		{	// construct _Objty(_Types...) at _Ptr

  00000	55		 push	 ebp
  00001	8b ec		 mov	 ebp, esp
  00003	56		 push	 esi

; 737  : 		::new ((void *)_Ptr) _Objty(_STD forward<_Types>(_Args)...);

  00004	8b 75 08	 mov	 esi, DWORD PTR __Ptr$[ebp]
  00007	85 f6		 test	 esi, esi
  00009	74 25		 je	 SHORT $LN3@construct
  0000b	8b 45 10	 mov	 eax, DWORD PTR _<_Args_1>$[ebp]
  0000e	8b ce		 mov	 ecx, esi
  00010	8b 00		 mov	 eax, DWORD PTR [eax]
  00012	c7 46 14 0f 00
	00 00		 mov	 DWORD PTR [esi+20], 15	; 0000000fH
  00019	c7 46 10 00 00
	00 00		 mov	 DWORD PTR [esi+16], 0
  00020	50		 push	 eax
  00021	c6 06 00	 mov	 BYTE PTR [esi], 0
  00024	e8 00 00 00 00	 call	 ?_Assign_rv@?$basic_string@DU?$char_traits@D@std@@V?$allocator@D@2@@std@@QAEX$$QAV12@@Z ; std::basic_string<char,std::char_traits<char>,std::allocator<char> >::_Assign_rv
  00029	c7 46 18 00 00
	00 00		 mov	 DWORD PTR [esi+24], 0
$LN3@construct:

; 738  : 		}

  00030	5e		 pop	 esi
  00031	5d		 pop	 ebp
  00032	c2 10 00	 ret	 16			; 00000010H
??$construct@U?$pair@$$CBV?$basic_string@DU?$char_traits@D@std@@V?$allocator@D@2@@std@@PAX@std@@ABUpiecewise_construct_t@2@V?$tuple@$$QAV?$basic_string@DU?$char_traits@D@std@@V?$allocator@D@2@@std@@@2@V?$tuple@$$V@2@@?$allocator@U?$_Tree_node@U?$pair@$$CBV?$basic_string@DU?$char_traits@D@std@@V?$allocator@D@2@@std@@PAX@std@@PAX@std@@@std@@QAEXPAU?$pair@$$CBV?$basic_string@DU?$char_traits@D@std@@V?$allocator@D@2@@std@@PAX@1@ABUpiecewise_construct_t@1@$$QAV?$tuple@$$QAV?$basic_string@DU?$char_traits@D@std@@V?$allocator@D@2@@std@@@1@$$QAV?$tuple@$$V@1@@Z ENDP ; std::allocator<std::_Tree_node<std::pair<std::basic_string<char,std::char_traits<char>,std::allocator<char> > const ,void *>,void *> >::construct<std::pair<std::basic_string<char,std::char_traits<char>,std::allocator<char> > const ,void *>,std::piecewise_construct_t const &,std::tuple<std::basic_string<char,std::char_traits<char>,std::allocator<char> > &&>,std::tuple<> >
_TEXT	ENDS
; Function compile flags: /Ogtp
; File c:\program files (x86)\microsoft visual studio 14.0\vc\include\xmemory0
;	COMDAT ??$construct@U?$pair@$$CBHPAX@std@@ABUpiecewise_construct_t@2@V?$tuple@ABH@2@V?$tuple@$$V@2@@?$allocator@U?$_Tree_node@U?$pair@$$CBHPAX@std@@PAX@std@@@std@@QAEXPAU?$pair@$$CBHPAX@1@ABUpiecewise_construct_t@1@$$QAV?$tuple@ABH@1@$$QAV?$tuple@$$V@1@@Z
_TEXT	SEGMENT
__Ptr$ = 8						; size = 4
_<_Args_0>$ = 12					; size = 4
_<_Args_1>$ = 16					; size = 4
_<_Args_2>$ = 20					; size = 4
??$construct@U?$pair@$$CBHPAX@std@@ABUpiecewise_construct_t@2@V?$tuple@ABH@2@V?$tuple@$$V@2@@?$allocator@U?$_Tree_node@U?$pair@$$CBHPAX@std@@PAX@std@@@std@@QAEXPAU?$pair@$$CBHPAX@1@ABUpiecewise_construct_t@1@$$QAV?$tuple@ABH@1@$$QAV?$tuple@$$V@1@@Z PROC ; std::allocator<std::_Tree_node<std::pair<int const ,void *>,void *> >::construct<std::pair<int const ,void *>,std::piecewise_construct_t const &,std::tuple<int const &>,std::tuple<> >, COMDAT
; _this$ = ecx

; 736  : 		{	// construct _Objty(_Types...) at _Ptr

  00000	55		 push	 ebp
  00001	8b ec		 mov	 ebp, esp

; 737  : 		::new ((void *)_Ptr) _Objty(_STD forward<_Types>(_Args)...);

  00003	8b 4d 08	 mov	 ecx, DWORD PTR __Ptr$[ebp]
  00006	85 c9		 test	 ecx, ecx
  00008	74 10		 je	 SHORT $LN3@construct
  0000a	8b 45 10	 mov	 eax, DWORD PTR _<_Args_1>$[ebp]
  0000d	8b 00		 mov	 eax, DWORD PTR [eax]
  0000f	8b 00		 mov	 eax, DWORD PTR [eax]
  00011	89 01		 mov	 DWORD PTR [ecx], eax
  00013	c7 41 04 00 00
	00 00		 mov	 DWORD PTR [ecx+4], 0
$LN3@construct:

; 738  : 		}

  0001a	5d		 pop	 ebp
  0001b	c2 10 00	 ret	 16			; 00000010H
??$construct@U?$pair@$$CBHPAX@std@@ABUpiecewise_construct_t@2@V?$tuple@ABH@2@V?$tuple@$$V@2@@?$allocator@U?$_Tree_node@U?$pair@$$CBHPAX@std@@PAX@std@@@std@@QAEXPAU?$pair@$$CBHPAX@1@ABUpiecewise_construct_t@1@$$QAV?$tuple@ABH@1@$$QAV?$tuple@$$V@1@@Z ENDP ; std::allocator<std::_Tree_node<std::pair<int const ,void *>,void *> >::construct<std::pair<int const ,void *>,std::piecewise_construct_t const &,std::tuple<int const &>,std::tuple<> >
_TEXT	ENDS
; Function compile flags: /Ogtp
; File c:\program files (x86)\microsoft visual studio 14.0\vc\include\xtree
;	COMDAT ??$_Buynode_if_nil@AAU?$pair@$$CBV?$basic_string@DU?$char_traits@D@std@@V?$allocator@D@2@@std@@PAX@std@@@?$_Tree@V?$_Tmap_traits@V?$basic_string@DU?$char_traits@D@std@@V?$allocator@D@2@@std@@PAXU?$less@V?$basic_string@DU?$char_traits@D@std@@V?$allocator@D@2@@std@@@2@V?$allocator@U?$pair@$$CBV?$basic_string@DU?$char_traits@D@std@@V?$allocator@D@2@@std@@PAX@std@@@2@$0A@@std@@@std@@IAEPAU?$_Tree_node@U?$pair@$$CBV?$basic_string@DU?$char_traits@D@std@@V?$allocator@D@2@@std@@PAX@std@@PAX@1@PAU21@AAU?$pair@$$CBV?$basic_string@DU?$char_traits@D@std@@V?$allocator@D@2@@std@@PAX@1@@Z
_TEXT	SEGMENT
__Node$ = 8						; size = 4
___formal$ = 12						; size = 4
??$_Buynode_if_nil@AAU?$pair@$$CBV?$basic_string@DU?$char_traits@D@std@@V?$allocator@D@2@@std@@PAX@std@@@?$_Tree@V?$_Tmap_traits@V?$basic_string@DU?$char_traits@D@std@@V?$allocator@D@2@@std@@PAXU?$less@V?$basic_string@DU?$char_traits@D@std@@V?$allocator@D@2@@std@@@2@V?$allocator@U?$pair@$$CBV?$basic_string@DU?$char_traits@D@std@@V?$allocator@D@2@@std@@PAX@std@@@2@$0A@@std@@@std@@IAEPAU?$_Tree_node@U?$pair@$$CBV?$basic_string@DU?$char_traits@D@std@@V?$allocator@D@2@@std@@PAX@std@@PAX@1@PAU21@AAU?$pair@$$CBV?$basic_string@DU?$char_traits@D@std@@V?$allocator@D@2@@std@@PAX@1@@Z PROC ; std::_Tree<std::_Tmap_traits<std::basic_string<char,std::char_traits<char>,std::allocator<char> >,void *,std::less<std::basic_string<char,std::char_traits<char>,std::allocator<char> > >,std::allocator<std::pair<std::basic_string<char,std::char_traits<char>,std::allocator<char> > const ,void *> >,0> >::_Buynode_if_nil<std::pair<std::basic_string<char,std::char_traits<char>,std::allocator<char> > const ,void *> &>, COMDAT
; _this$ = ecx

; 1629 : 		{	// node exists, just return it

  00000	55		 push	 ebp
  00001	8b ec		 mov	 ebp, esp

; 1630 : 		return (_Node);

  00003	8b 45 08	 mov	 eax, DWORD PTR __Node$[ebp]

; 1631 : 		}

  00006	5d		 pop	 ebp
  00007	c2 08 00	 ret	 8
??$_Buynode_if_nil@AAU?$pair@$$CBV?$basic_string@DU?$char_traits@D@std@@V?$allocator@D@2@@std@@PAX@std@@@?$_Tree@V?$_Tmap_traits@V?$basic_string@DU?$char_traits@D@std@@V?$allocator@D@2@@std@@PAXU?$less@V?$basic_string@DU?$char_traits@D@std@@V?$allocator@D@2@@std@@@2@V?$allocator@U?$pair@$$CBV?$basic_string@DU?$char_traits@D@std@@V?$allocator@D@2@@std@@PAX@std@@@2@$0A@@std@@@std@@IAEPAU?$_Tree_node@U?$pair@$$CBV?$basic_string@DU?$char_traits@D@std@@V?$allocator@D@2@@std@@PAX@std@@PAX@1@PAU21@AAU?$pair@$$CBV?$basic_string@DU?$char_traits@D@std@@V?$allocator@D@2@@std@@PAX@1@@Z ENDP ; std::_Tree<std::_Tmap_traits<std::basic_string<char,std::char_traits<char>,std::allocator<char> >,void *,std::less<std::basic_string<char,std::char_traits<char>,std::allocator<char> > >,std::allocator<std::pair<std::basic_string<char,std::char_traits<char>,std::allocator<char> > const ,void *> >,0> >::_Buynode_if_nil<std::pair<std::basic_string<char,std::char_traits<char>,std::allocator<char> > const ,void *> &>
_TEXT	ENDS
; Function compile flags: /Ogtp
; File c:\program files (x86)\microsoft visual studio 14.0\vc\include\xmemory0
;	COMDAT ??$construct@U?$pair@$$CBV?$basic_string@DU?$char_traits@D@std@@V?$allocator@D@2@@std@@PAX@std@@ABUpiecewise_construct_t@2@V?$tuple@$$QAV?$basic_string@DU?$char_traits@D@std@@V?$allocator@D@2@@std@@@2@V?$tuple@$$V@2@@?$allocator_traits@V?$allocator@U?$_Tree_node@U?$pair@$$CBV?$basic_string@DU?$char_traits@D@std@@V?$allocator@D@2@@std@@PAX@std@@PAX@std@@@std@@@std@@SAXAAV?$allocator@U?$_Tree_node@U?$pair@$$CBV?$basic_string@DU?$char_traits@D@std@@V?$allocator@D@2@@std@@PAX@std@@PAX@std@@@1@PAU?$pair@$$CBV?$basic_string@DU?$char_traits@D@std@@V?$allocator@D@2@@std@@PAX@1@ABUpiecewise_construct_t@1@$$QAV?$tuple@$$QAV?$basic_string@DU?$char_traits@D@std@@V?$allocator@D@2@@std@@@1@$$QAV?$tuple@$$V@1@@Z
_TEXT	SEGMENT
__Al$ = 8						; size = 4
__Ptr$ = 12						; size = 4
_<_Args_0>$ = 16					; size = 4
_<_Args_1>$ = 20					; size = 4
_<_Args_2>$ = 24					; size = 4
??$construct@U?$pair@$$CBV?$basic_string@DU?$char_traits@D@std@@V?$allocator@D@2@@std@@PAX@std@@ABUpiecewise_construct_t@2@V?$tuple@$$QAV?$basic_string@DU?$char_traits@D@std@@V?$allocator@D@2@@std@@@2@V?$tuple@$$V@2@@?$allocator_traits@V?$allocator@U?$_Tree_node@U?$pair@$$CBV?$basic_string@DU?$char_traits@D@std@@V?$allocator@D@2@@std@@PAX@std@@PAX@std@@@std@@@std@@SAXAAV?$allocator@U?$_Tree_node@U?$pair@$$CBV?$basic_string@DU?$char_traits@D@std@@V?$allocator@D@2@@std@@PAX@std@@PAX@std@@@1@PAU?$pair@$$CBV?$basic_string@DU?$char_traits@D@std@@V?$allocator@D@2@@std@@PAX@1@ABUpiecewise_construct_t@1@$$QAV?$tuple@$$QAV?$basic_string@DU?$char_traits@D@std@@V?$allocator@D@2@@std@@@1@$$QAV?$tuple@$$V@1@@Z PROC ; std::allocator_traits<std::allocator<std::_Tree_node<std::pair<std::basic_string<char,std::char_traits<char>,std::allocator<char> > const ,void *>,void *> > >::construct<std::pair<std::basic_string<char,std::char_traits<char>,std::allocator<char> > const ,void *>,std::piecewise_construct_t const &,std::tuple<std::basic_string<char,std::char_traits<char>,std::allocator<char> > &&>,std::tuple<> >, COMDAT

; 856  : 		{	// construct _Objty(_Types...) at _Ptr

  00000	55		 push	 ebp
  00001	8b ec		 mov	 ebp, esp
  00003	56		 push	 esi

; 857  : 		_Al.construct(_Ptr, _STD forward<_Types>(_Args)...);

  00004	8b 75 0c	 mov	 esi, DWORD PTR __Ptr$[ebp]
  00007	85 f6		 test	 esi, esi
  00009	74 25		 je	 SHORT $LN14@construct
  0000b	8b 45 14	 mov	 eax, DWORD PTR _<_Args_1>$[ebp]
  0000e	8b ce		 mov	 ecx, esi
  00010	8b 00		 mov	 eax, DWORD PTR [eax]
  00012	c7 46 14 0f 00
	00 00		 mov	 DWORD PTR [esi+20], 15	; 0000000fH
  00019	c7 46 10 00 00
	00 00		 mov	 DWORD PTR [esi+16], 0
  00020	50		 push	 eax
  00021	c6 06 00	 mov	 BYTE PTR [esi], 0
  00024	e8 00 00 00 00	 call	 ?_Assign_rv@?$basic_string@DU?$char_traits@D@std@@V?$allocator@D@2@@std@@QAEX$$QAV12@@Z ; std::basic_string<char,std::char_traits<char>,std::allocator<char> >::_Assign_rv
  00029	c7 46 18 00 00
	00 00		 mov	 DWORD PTR [esi+24], 0
$LN14@construct:

; 858  : 		}

  00030	5e		 pop	 esi
  00031	5d		 pop	 ebp
  00032	c3		 ret	 0
??$construct@U?$pair@$$CBV?$basic_string@DU?$char_traits@D@std@@V?$allocator@D@2@@std@@PAX@std@@ABUpiecewise_construct_t@2@V?$tuple@$$QAV?$basic_string@DU?$char_traits@D@std@@V?$allocator@D@2@@std@@@2@V?$tuple@$$V@2@@?$allocator_traits@V?$allocator@U?$_Tree_node@U?$pair@$$CBV?$basic_string@DU?$char_traits@D@std@@V?$allocator@D@2@@std@@PAX@std@@PAX@std@@@std@@@std@@SAXAAV?$allocator@U?$_Tree_node@U?$pair@$$CBV?$basic_string@DU?$char_traits@D@std@@V?$allocator@D@2@@std@@PAX@std@@PAX@std@@@1@PAU?$pair@$$CBV?$basic_string@DU?$char_traits@D@std@@V?$allocator@D@2@@std@@PAX@1@ABUpiecewise_construct_t@1@$$QAV?$tuple@$$QAV?$basic_string@DU?$char_traits@D@std@@V?$allocator@D@2@@std@@@1@$$QAV?$tuple@$$V@1@@Z ENDP ; std::allocator_traits<std::allocator<std::_Tree_node<std::pair<std::basic_string<char,std::char_traits<char>,std::allocator<char> > const ,void *>,void *> > >::construct<std::pair<std::basic_string<char,std::char_traits<char>,std::allocator<char> > const ,void *>,std::piecewise_construct_t const &,std::tuple<std::basic_string<char,std::char_traits<char>,std::allocator<char> > &&>,std::tuple<> >
_TEXT	ENDS
; Function compile flags: /Ogtp
; File c:\program files (x86)\microsoft visual studio 14.0\vc\include\xtree
;	COMDAT ??$_Buynode_if_nil@AAU?$pair@$$CBHPAX@std@@@?$_Tree@V?$_Tmap_traits@HPAXU?$less@H@std@@V?$allocator@U?$pair@$$CBHPAX@std@@@2@$0A@@std@@@std@@IAEPAU?$_Tree_node@U?$pair@$$CBHPAX@std@@PAX@1@PAU21@AAU?$pair@$$CBHPAX@1@@Z
_TEXT	SEGMENT
__Node$ = 8						; size = 4
___formal$ = 12						; size = 4
??$_Buynode_if_nil@AAU?$pair@$$CBHPAX@std@@@?$_Tree@V?$_Tmap_traits@HPAXU?$less@H@std@@V?$allocator@U?$pair@$$CBHPAX@std@@@2@$0A@@std@@@std@@IAEPAU?$_Tree_node@U?$pair@$$CBHPAX@std@@PAX@1@PAU21@AAU?$pair@$$CBHPAX@1@@Z PROC ; std::_Tree<std::_Tmap_traits<int,void *,std::less<int>,std::allocator<std::pair<int const ,void *> >,0> >::_Buynode_if_nil<std::pair<int const ,void *> &>, COMDAT
; _this$ = ecx

; 1629 : 		{	// node exists, just return it

  00000	55		 push	 ebp
  00001	8b ec		 mov	 ebp, esp

; 1630 : 		return (_Node);

  00003	8b 45 08	 mov	 eax, DWORD PTR __Node$[ebp]

; 1631 : 		}

  00006	5d		 pop	 ebp
  00007	c2 08 00	 ret	 8
??$_Buynode_if_nil@AAU?$pair@$$CBHPAX@std@@@?$_Tree@V?$_Tmap_traits@HPAXU?$less@H@std@@V?$allocator@U?$pair@$$CBHPAX@std@@@2@$0A@@std@@@std@@IAEPAU?$_Tree_node@U?$pair@$$CBHPAX@std@@PAX@1@PAU21@AAU?$pair@$$CBHPAX@1@@Z ENDP ; std::_Tree<std::_Tmap_traits<int,void *,std::less<int>,std::allocator<std::pair<int const ,void *> >,0> >::_Buynode_if_nil<std::pair<int const ,void *> &>
_TEXT	ENDS
; Function compile flags: /Ogtp
; File c:\program files (x86)\microsoft visual studio 14.0\vc\include\xmemory0
;	COMDAT ??$construct@U?$pair@$$CBHPAX@std@@ABUpiecewise_construct_t@2@V?$tuple@ABH@2@V?$tuple@$$V@2@@?$allocator_traits@V?$allocator@U?$_Tree_node@U?$pair@$$CBHPAX@std@@PAX@std@@@std@@@std@@SAXAAV?$allocator@U?$_Tree_node@U?$pair@$$CBHPAX@std@@PAX@std@@@1@PAU?$pair@$$CBHPAX@1@ABUpiecewise_construct_t@1@$$QAV?$tuple@ABH@1@$$QAV?$tuple@$$V@1@@Z
_TEXT	SEGMENT
__Al$ = 8						; size = 4
__Ptr$ = 12						; size = 4
_<_Args_0>$ = 16					; size = 4
_<_Args_1>$ = 20					; size = 4
_<_Args_2>$ = 24					; size = 4
??$construct@U?$pair@$$CBHPAX@std@@ABUpiecewise_construct_t@2@V?$tuple@ABH@2@V?$tuple@$$V@2@@?$allocator_traits@V?$allocator@U?$_Tree_node@U?$pair@$$CBHPAX@std@@PAX@std@@@std@@@std@@SAXAAV?$allocator@U?$_Tree_node@U?$pair@$$CBHPAX@std@@PAX@std@@@1@PAU?$pair@$$CBHPAX@1@ABUpiecewise_construct_t@1@$$QAV?$tuple@ABH@1@$$QAV?$tuple@$$V@1@@Z PROC ; std::allocator_traits<std::allocator<std::_Tree_node<std::pair<int const ,void *>,void *> > >::construct<std::pair<int const ,void *>,std::piecewise_construct_t const &,std::tuple<int const &>,std::tuple<> >, COMDAT

; 856  : 		{	// construct _Objty(_Types...) at _Ptr

  00000	55		 push	 ebp
  00001	8b ec		 mov	 ebp, esp

; 857  : 		_Al.construct(_Ptr, _STD forward<_Types>(_Args)...);

  00003	8b 4d 0c	 mov	 ecx, DWORD PTR __Ptr$[ebp]
  00006	85 c9		 test	 ecx, ecx
  00008	74 10		 je	 SHORT $LN14@construct
  0000a	8b 45 14	 mov	 eax, DWORD PTR _<_Args_1>$[ebp]
  0000d	8b 00		 mov	 eax, DWORD PTR [eax]
  0000f	8b 00		 mov	 eax, DWORD PTR [eax]
  00011	89 01		 mov	 DWORD PTR [ecx], eax
  00013	c7 41 04 00 00
	00 00		 mov	 DWORD PTR [ecx+4], 0
$LN14@construct:

; 858  : 		}

  0001a	5d		 pop	 ebp
  0001b	c3		 ret	 0
??$construct@U?$pair@$$CBHPAX@std@@ABUpiecewise_construct_t@2@V?$tuple@ABH@2@V?$tuple@$$V@2@@?$allocator_traits@V?$allocator@U?$_Tree_node@U?$pair@$$CBHPAX@std@@PAX@std@@@std@@@std@@SAXAAV?$allocator@U?$_Tree_node@U?$pair@$$CBHPAX@std@@PAX@std@@@1@PAU?$pair@$$CBHPAX@1@ABUpiecewise_construct_t@1@$$QAV?$tuple@ABH@1@$$QAV?$tuple@$$V@1@@Z ENDP ; std::allocator_traits<std::allocator<std::_Tree_node<std::pair<int const ,void *>,void *> > >::construct<std::pair<int const ,void *>,std::piecewise_construct_t const &,std::tuple<int const &>,std::tuple<> >
_TEXT	ENDS
; Function compile flags: /Ogtp
; File c:\program files (x86)\microsoft visual studio 14.0\vc\include\xtree
;	COMDAT ??$_Insert_nohint@AAU?$pair@$$CBV?$basic_string@DU?$char_traits@D@std@@V?$allocator@D@2@@std@@PAX@std@@PAU?$_Tree_node@U?$pair@$$CBV?$basic_string@DU?$char_traits@D@std@@V?$allocator@D@2@@std@@PAX@std@@PAX@2@@?$_Tree@V?$_Tmap_traits@V?$basic_string@DU?$char_traits@D@std@@V?$allocator@D@2@@std@@PAXU?$less@V?$basic_string@DU?$char_traits@D@std@@V?$allocator@D@2@@std@@@2@V?$allocator@U?$pair@$$CBV?$basic_string@DU?$char_traits@D@std@@V?$allocator@D@2@@std@@PAX@std@@@2@$0A@@std@@@std@@IAE?AU?$pair@V?$_Tree_iterator@V?$_Tree_val@U?$_Tree_simple_types@U?$pair@$$CBV?$basic_string@DU?$char_traits@D@std@@V?$allocator@D@2@@std@@PAX@std@@@std@@@std@@@std@@_N@1@_NAAU?$pair@$$CBV?$basic_string@DU?$char_traits@D@std@@V?$allocator@D@2@@std@@PAX@1@PAU?$_Tree_node@U?$pair@$$CBV?$basic_string@DU?$char_traits@D@std@@V?$allocator@D@2@@std@@PAX@std@@PAX@1@@Z
_TEXT	SEGMENT
tv875 = -36						; size = 4
_this$ = -32						; size = 4
__Addleft$2 = -28					; size = 1
__Wherenode$1$ = -24					; size = 4
__Left_size$1$ = -20					; size = 4
__$EHRec$ = -16						; size = 16
___$ReturnUdt$ = 8					; size = 4
$T3 = 12						; size = 4
__Where$4 = 12						; size = 4
__Leftish$ = 12						; size = 1
__Val$ = 16						; size = 4
__Newnode$ = 20						; size = 4
??$_Insert_nohint@AAU?$pair@$$CBV?$basic_string@DU?$char_traits@D@std@@V?$allocator@D@2@@std@@PAX@std@@PAU?$_Tree_node@U?$pair@$$CBV?$basic_string@DU?$char_traits@D@std@@V?$allocator@D@2@@std@@PAX@std@@PAX@2@@?$_Tree@V?$_Tmap_traits@V?$basic_string@DU?$char_traits@D@std@@V?$allocator@D@2@@std@@PAXU?$less@V?$basic_string@DU?$char_traits@D@std@@V?$allocator@D@2@@std@@@2@V?$allocator@U?$pair@$$CBV?$basic_string@DU?$char_traits@D@std@@V?$allocator@D@2@@std@@PAX@std@@@2@$0A@@std@@@std@@IAE?AU?$pair@V?$_Tree_iterator@V?$_Tree_val@U?$_Tree_simple_types@U?$pair@$$CBV?$basic_string@DU?$char_traits@D@std@@V?$allocator@D@2@@std@@PAX@std@@@std@@@std@@@std@@_N@1@_NAAU?$pair@$$CBV?$basic_string@DU?$char_traits@D@std@@V?$allocator@D@2@@std@@PAX@1@PAU?$_Tree_node@U?$pair@$$CBV?$basic_string@DU?$char_traits@D@std@@V?$allocator@D@2@@std@@PAX@std@@PAX@1@@Z PROC ; std::_Tree<std::_Tmap_traits<std::basic_string<char,std::char_traits<char>,std::allocator<char> >,void *,std::less<std::basic_string<char,std::char_traits<char>,std::allocator<char> > >,std::allocator<std::pair<std::basic_string<char,std::char_traits<char>,std::allocator<char> > const ,void *> >,0> >::_Insert_nohint<std::pair<std::basic_string<char,std::char_traits<char>,std::allocator<char> > const ,void *> &,std::_Tree_node<std::pair<std::basic_string<char,std::char_traits<char>,std::allocator<char> > const ,void *>,void *> *>, COMDAT
; _this$ = ecx

; 1771 : 		{	// try to insert node, on left if _Leftish

  00000	55		 push	 ebp
  00001	8b ec		 mov	 ebp, esp
  00003	6a ff		 push	 -1
  00005	68 00 00 00 00	 push	 __ehhandler$??$_Insert_nohint@AAU?$pair@$$CBV?$basic_string@DU?$char_traits@D@std@@V?$allocator@D@2@@std@@PAX@std@@PAU?$_Tree_node@U?$pair@$$CBV?$basic_string@DU?$char_traits@D@std@@V?$allocator@D@2@@std@@PAX@std@@PAX@2@@?$_Tree@V?$_Tmap_traits@V?$basic_string@DU?$char_traits@D@std@@V?$allocator@D@2@@std@@PAXU?$less@V?$basic_string@DU?$char_traits@D@std@@V?$allocator@D@2@@std@@@2@V?$allocator@U?$pair@$$CBV?$basic_string@DU?$char_traits@D@std@@V?$allocator@D@2@@std@@PAX@std@@@2@$0A@@std@@@std@@IAE?AU?$pair@V?$_Tree_iterator@V?$_Tree_val@U?$_Tree_simple_types@U?$pair@$$CBV?$basic_string@DU?$char_traits@D@std@@V?$allocator@D@2@@std@@PAX@std@@@std@@@std@@@std@@_N@1@_NAAU?$pair@$$CBV?$basic_string@DU?$char_traits@D@std@@V?$allocator@D@2@@std@@PAX@1@PAU?$_Tree_node@U?$pair@$$CBV?$basic_string@DU?$char_traits@D@std@@V?$allocator@D@2@@std@@PAX@std@@PAX@1@@Z
  0000a	64 a1 00 00 00
	00		 mov	 eax, DWORD PTR fs:0
  00010	50		 push	 eax
  00011	83 ec 18	 sub	 esp, 24			; 00000018H
  00014	53		 push	 ebx
  00015	56		 push	 esi
  00016	57		 push	 edi
  00017	a1 00 00 00 00	 mov	 eax, DWORD PTR ___security_cookie
  0001c	33 c5		 xor	 eax, ebp
  0001e	50		 push	 eax
  0001f	8d 45 f4	 lea	 eax, DWORD PTR __$EHRec$[ebp+4]
  00022	64 a3 00 00 00
	00		 mov	 DWORD PTR fs:0, eax
  00028	89 65 f0	 mov	 DWORD PTR __$EHRec$[ebp], esp
  0002b	8b d1		 mov	 edx, ecx
  0002d	89 55 e0	 mov	 DWORD PTR _this$[ebp], edx

; 1772 : 		_TRY_BEGIN
; 1773 : 		_Nodeptr _Trynode = _Root();

  00030	8b 3a		 mov	 edi, DWORD PTR [edx]

; 1774 : 		_Nodeptr _Wherenode = this->_Myhead();
; 1775 : 		bool _Addleft = true;	// add to left of head if tree empty

  00032	b0 01		 mov	 al, 1
  00034	8b cf		 mov	 ecx, edi
  00036	c7 45 fc 00 00
	00 00		 mov	 DWORD PTR __$EHRec$[ebp+12], 0
  0003d	89 7d dc	 mov	 DWORD PTR tv875[ebp], edi
  00040	89 4d e8	 mov	 DWORD PTR __Wherenode$1$[ebp], ecx
  00043	8b 5f 04	 mov	 ebx, DWORD PTR [edi+4]
  00046	88 45 e4	 mov	 BYTE PTR __Addleft$2[ebp], al

; 1776 : 
; 1777 : 		while (!this->_Isnil(_Trynode))

  00049	80 7b 0d 00	 cmp	 BYTE PTR [ebx+13], 0
  0004d	0f 85 77 01 00
	00		 jne	 $LN3@Insert_noh
  00053	8b 55 10	 mov	 edx, DWORD PTR __Val$[ebp]
  00056	8b 42 10	 mov	 eax, DWORD PTR [edx+16]
  00059	8b 72 14	 mov	 esi, DWORD PTR [edx+20]
  0005c	89 45 ec	 mov	 DWORD PTR __Left_size$1$[ebp], eax
  0005f	90		 npad	 1
$LL2@Insert_noh:

; 1778 : 			{	// look for leaf to insert before (_Addleft) or after
; 1779 : 			_Wherenode = _Trynode;
; 1780 : 			if (_Leftish)

  00060	80 7d 0c 00	 cmp	 BYTE PTR __Leftish$[ebp], 0

; 1781 : 				_Addleft = !_DEBUG_LT_PRED(this->_Getcomp(),

  00064	8d 4b 10	 lea	 ecx, DWORD PTR [ebx+16]
  00067	89 5d e8	 mov	 DWORD PTR __Wherenode$1$[ebp], ebx
  0006a	0f 84 a2 00 00
	00		 je	 $LN5@Insert_noh
  00070	83 fe 10	 cmp	 esi, 16			; 00000010H
  00073	72 04		 jb	 SHORT $LN103@Insert_noh
  00075	8b 32		 mov	 esi, DWORD PTR [edx]
  00077	eb 02		 jmp	 SHORT $LN104@Insert_noh
$LN103@Insert_noh:
  00079	8b f2		 mov	 esi, edx
$LN104@Insert_noh:
  0007b	83 79 14 10	 cmp	 DWORD PTR [ecx+20], 16	; 00000010H
  0007f	8d 41 10	 lea	 eax, DWORD PTR [ecx+16]
  00082	72 02		 jb	 SHORT $LN127@Insert_noh
  00084	8b 09		 mov	 ecx, DWORD PTR [ecx]
$LN127@Insert_noh:
  00086	8b 38		 mov	 edi, DWORD PTR [eax]
  00088	8b 45 ec	 mov	 eax, DWORD PTR __Left_size$1$[ebp]
  0008b	3b f8		 cmp	 edi, eax
  0008d	8b d0		 mov	 edx, eax
  0008f	0f 42 d7	 cmovb	 edx, edi
  00092	85 d2		 test	 edx, edx
  00094	74 5d		 je	 SHORT $LN131@Insert_noh
  00096	83 ea 04	 sub	 edx, 4
  00099	72 16		 jb	 SHORT $LN364@Insert_noh
  0009b	0f 1f 44 00 00	 npad	 5
$LL365@Insert_noh:
  000a0	8b 01		 mov	 eax, DWORD PTR [ecx]
  000a2	3b 06		 cmp	 eax, DWORD PTR [esi]
  000a4	75 10		 jne	 SHORT $LN363@Insert_noh
  000a6	83 c1 04	 add	 ecx, 4
  000a9	83 c6 04	 add	 esi, 4
  000ac	83 ea 04	 sub	 edx, 4
  000af	73 ef		 jae	 SHORT $LL365@Insert_noh
$LN364@Insert_noh:
  000b1	83 fa fc	 cmp	 edx, -4			; fffffffcH
  000b4	74 34		 je	 SHORT $LN362@Insert_noh
$LN363@Insert_noh:
  000b6	8a 01		 mov	 al, BYTE PTR [ecx]
  000b8	3a 06		 cmp	 al, BYTE PTR [esi]
  000ba	75 27		 jne	 SHORT $LN366@Insert_noh
  000bc	83 fa fd	 cmp	 edx, -3			; fffffffdH
  000bf	74 29		 je	 SHORT $LN362@Insert_noh
  000c1	8a 41 01	 mov	 al, BYTE PTR [ecx+1]
  000c4	3a 46 01	 cmp	 al, BYTE PTR [esi+1]
  000c7	75 1a		 jne	 SHORT $LN366@Insert_noh
  000c9	83 fa fe	 cmp	 edx, -2			; fffffffeH
  000cc	74 1c		 je	 SHORT $LN362@Insert_noh
  000ce	8a 41 02	 mov	 al, BYTE PTR [ecx+2]
  000d1	3a 46 02	 cmp	 al, BYTE PTR [esi+2]
  000d4	75 0d		 jne	 SHORT $LN366@Insert_noh
  000d6	83 fa ff	 cmp	 edx, -1
  000d9	74 0f		 je	 SHORT $LN362@Insert_noh
  000db	8a 41 03	 mov	 al, BYTE PTR [ecx+3]
  000de	3a 46 03	 cmp	 al, BYTE PTR [esi+3]
  000e1	74 07		 je	 SHORT $LN362@Insert_noh
$LN366@Insert_noh:
  000e3	1b c0		 sbb	 eax, eax
  000e5	83 c8 01	 or	 eax, 1
  000e8	eb 02		 jmp	 SHORT $LN367@Insert_noh
$LN362@Insert_noh:
  000ea	33 c0		 xor	 eax, eax
$LN367@Insert_noh:
  000ec	85 c0		 test	 eax, eax
  000ee	75 18		 jne	 SHORT $LN133@Insert_noh
  000f0	8b 45 ec	 mov	 eax, DWORD PTR __Left_size$1$[ebp]
$LN131@Insert_noh:
  000f3	3b c7		 cmp	 eax, edi
  000f5	76 0d		 jbe	 SHORT $LN379@Insert_noh
  000f7	83 c8 ff	 or	 eax, -1
  000fa	c1 e8 1f	 shr	 eax, 31			; 0000001fH
  000fd	34 01		 xor	 al, 1

; 1782 : 					this->_Key(_Trynode),
; 1783 : 					this->_Kfn(_Val));	// favor left end
; 1784 : 			else

  000ff	e9 9f 00 00 00	 jmp	 $LN380@Insert_noh
$LN379@Insert_noh:

; 1781 : 				_Addleft = !_DEBUG_LT_PRED(this->_Getcomp(),

  00104	1b c0		 sbb	 eax, eax
  00106	f7 d8		 neg	 eax
$LN133@Insert_noh:
  00108	c1 e8 1f	 shr	 eax, 31			; 0000001fH
  0010b	34 01		 xor	 al, 1

; 1782 : 					this->_Key(_Trynode),
; 1783 : 					this->_Kfn(_Val));	// favor left end
; 1784 : 			else

  0010d	e9 91 00 00 00	 jmp	 $LN380@Insert_noh
$LN5@Insert_noh:

; 1785 : 				_Addleft = _DEBUG_LT_PRED(this->_Getcomp(),

  00112	83 79 14 10	 cmp	 DWORD PTR [ecx+20], 16	; 00000010H
  00116	8d 41 10	 lea	 eax, DWORD PTR [ecx+16]
  00119	72 02		 jb	 SHORT $LN187@Insert_noh
  0011b	8b 09		 mov	 ecx, DWORD PTR [ecx]
$LN187@Insert_noh:
  0011d	83 fe 10	 cmp	 esi, 16			; 00000010H
  00120	72 04		 jb	 SHORT $LN209@Insert_noh
  00122	8b 32		 mov	 esi, DWORD PTR [edx]
  00124	eb 02		 jmp	 SHORT $LN210@Insert_noh
$LN209@Insert_noh:
  00126	8b f2		 mov	 esi, edx
$LN210@Insert_noh:
  00128	8b 38		 mov	 edi, DWORD PTR [eax]
  0012a	8b d7		 mov	 edx, edi
  0012c	8b 45 ec	 mov	 eax, DWORD PTR __Left_size$1$[ebp]
  0012f	3b c7		 cmp	 eax, edi
  00131	0f 42 d0	 cmovb	 edx, eax
  00134	85 d2		 test	 edx, edx
  00136	74 5b		 je	 SHORT $LN214@Insert_noh
  00138	83 ea 04	 sub	 edx, 4
  0013b	72 14		 jb	 SHORT $LN370@Insert_noh
  0013d	0f 1f 00	 npad	 3
$LL371@Insert_noh:
  00140	8b 06		 mov	 eax, DWORD PTR [esi]
  00142	3b 01		 cmp	 eax, DWORD PTR [ecx]
  00144	75 10		 jne	 SHORT $LN369@Insert_noh
  00146	83 c6 04	 add	 esi, 4
  00149	83 c1 04	 add	 ecx, 4
  0014c	83 ea 04	 sub	 edx, 4
  0014f	73 ef		 jae	 SHORT $LL371@Insert_noh
$LN370@Insert_noh:
  00151	83 fa fc	 cmp	 edx, -4			; fffffffcH
  00154	74 34		 je	 SHORT $LN368@Insert_noh
$LN369@Insert_noh:
  00156	8a 06		 mov	 al, BYTE PTR [esi]
  00158	3a 01		 cmp	 al, BYTE PTR [ecx]
  0015a	75 27		 jne	 SHORT $LN372@Insert_noh
  0015c	83 fa fd	 cmp	 edx, -3			; fffffffdH
  0015f	74 29		 je	 SHORT $LN368@Insert_noh
  00161	8a 46 01	 mov	 al, BYTE PTR [esi+1]
  00164	3a 41 01	 cmp	 al, BYTE PTR [ecx+1]
  00167	75 1a		 jne	 SHORT $LN372@Insert_noh
  00169	83 fa fe	 cmp	 edx, -2			; fffffffeH
  0016c	74 1c		 je	 SHORT $LN368@Insert_noh
  0016e	8a 46 02	 mov	 al, BYTE PTR [esi+2]
  00171	3a 41 02	 cmp	 al, BYTE PTR [ecx+2]
  00174	75 0d		 jne	 SHORT $LN372@Insert_noh
  00176	83 fa ff	 cmp	 edx, -1
  00179	74 0f		 je	 SHORT $LN368@Insert_noh
  0017b	8a 46 03	 mov	 al, BYTE PTR [esi+3]
  0017e	3a 41 03	 cmp	 al, BYTE PTR [ecx+3]
  00181	74 07		 je	 SHORT $LN368@Insert_noh
$LN372@Insert_noh:
  00183	1b c0		 sbb	 eax, eax
  00185	83 c8 01	 or	 eax, 1
  00188	eb 02		 jmp	 SHORT $LN373@Insert_noh
$LN368@Insert_noh:
  0018a	33 c0		 xor	 eax, eax
$LN373@Insert_noh:
  0018c	85 c0		 test	 eax, eax
  0018e	75 10		 jne	 SHORT $LN216@Insert_noh
  00190	8b 45 ec	 mov	 eax, DWORD PTR __Left_size$1$[ebp]
$LN214@Insert_noh:
  00193	3b f8		 cmp	 edi, eax
  00195	76 05		 jbe	 SHORT $LN381@Insert_noh
  00197	83 c8 ff	 or	 eax, -1
  0019a	eb 04		 jmp	 SHORT $LN216@Insert_noh
$LN381@Insert_noh:
  0019c	1b c0		 sbb	 eax, eax
  0019e	f7 d8		 neg	 eax
$LN216@Insert_noh:
  001a0	c1 e8 1f	 shr	 eax, 31			; 0000001fH
$LN380@Insert_noh:
  001a3	88 45 e4	 mov	 BYTE PTR __Addleft$2[ebp], al

; 1786 : 					this->_Kfn(_Val),
; 1787 : 					this->_Key(_Trynode));	// favor right end
; 1788 : 			_Trynode = _Addleft ? this->_Left(_Trynode)

  001a6	84 c0		 test	 al, al
  001a8	74 04		 je	 SHORT $LN16@Insert_noh
  001aa	8b 1b		 mov	 ebx, DWORD PTR [ebx]
  001ac	eb 03		 jmp	 SHORT $LN17@Insert_noh
$LN16@Insert_noh:
  001ae	8b 5b 08	 mov	 ebx, DWORD PTR [ebx+8]
$LN17@Insert_noh:

; 1776 : 
; 1777 : 		while (!this->_Isnil(_Trynode))

  001b1	80 7b 0d 00	 cmp	 BYTE PTR [ebx+13], 0
  001b5	8b 55 10	 mov	 edx, DWORD PTR __Val$[ebp]
  001b8	8b 72 14	 mov	 esi, DWORD PTR [edx+20]
  001bb	0f 84 9f fe ff
	ff		 je	 $LL2@Insert_noh
  001c1	8b 4d e8	 mov	 ecx, DWORD PTR __Wherenode$1$[ebp]
  001c4	8b 55 e0	 mov	 edx, DWORD PTR _this$[ebp]
  001c7	8b 7d dc	 mov	 edi, DWORD PTR tv875[ebp]
$LN3@Insert_noh:

; 1789 : 				: this->_Right(_Trynode);
; 1790 : 			}
; 1791 : 
; 1792 : 		if (this->_Multi)
; 1793 : 			return (_Pairib(_Insert_at(_Addleft, _Wherenode,
; 1794 : 				_STD forward<_Valty>(_Val), _Newnode), true));
; 1795 : 		else
; 1796 : 			{	// insert only if unique
; 1797 : 			iterator _Where = iterator(_Wherenode, &this->_Get_data());

  001ca	8b f1		 mov	 esi, ecx
  001cc	89 75 0c	 mov	 DWORD PTR __Where$4[ebp], esi

; 1798 : 			if (!_Addleft)

  001cf	84 c0		 test	 al, al
  001d1	74 43		 je	 SHORT $LN12@Insert_noh

; 1799 : 				;	// need to test if insert after is okay
; 1800 : 			else if (_Where == begin())

  001d3	3b 0f		 cmp	 ecx, DWORD PTR [edi]
  001d5	75 34		 jne	 SHORT $LN11@Insert_noh

; 1801 : 				return (_Pairib(_Insert_at(true, _Wherenode,

  001d7	ff 75 14	 push	 DWORD PTR __Newnode$[ebp]
  001da	8b 7d 10	 mov	 edi, DWORD PTR __Val$[ebp]
  001dd	57		 push	 edi
  001de	51		 push	 ecx
  001df	6a 01		 push	 1
  001e1	8b ca		 mov	 ecx, edx
$LN383@Insert_noh:
  001e3	8d 45 0c	 lea	 eax, DWORD PTR $T3[ebp]
  001e6	50		 push	 eax
  001e7	e8 00 00 00 00	 call	 ??$_Insert_at@AAU?$pair@$$CBV?$basic_string@DU?$char_traits@D@std@@V?$allocator@D@2@@std@@PAX@std@@PAU?$_Tree_node@U?$pair@$$CBV?$basic_string@DU?$char_traits@D@std@@V?$allocator@D@2@@std@@PAX@std@@PAX@2@@?$_Tree@V?$_Tmap_traits@V?$basic_string@DU?$char_traits@D@std@@V?$allocator@D@2@@std@@PAXU?$less@V?$basic_string@DU?$char_traits@D@std@@V?$allocator@D@2@@std@@@2@V?$allocator@U?$pair@$$CBV?$basic_string@DU?$char_traits@D@std@@V?$allocator@D@2@@std@@PAX@std@@@2@$0A@@std@@@std@@IAE?AV?$_Tree_iterator@V?$_Tree_val@U?$_Tree_simple_types@U?$pair@$$CBV?$basic_string@DU?$char_traits@D@std@@V?$allocator@D@2@@std@@PAX@std@@@std@@@std@@@1@_NPAU?$_Tree_node@U?$pair@$$CBV?$basic_string@DU?$char_traits@D@std@@V?$allocator@D@2@@std@@PAX@std@@PAX@1@AAU?$pair@$$CBV?$basic_string@DU?$char_traits@D@std@@V?$allocator@D@2@@std@@PAX@1@1@Z ; std::_Tree<std::_Tmap_traits<std::basic_string<char,std::char_traits<char>,std::allocator<char> >,void *,std::less<std::basic_string<char,std::char_traits<char>,std::allocator<char> > >,std::allocator<std::pair<std::basic_string<char,std::char_traits<char>,std::allocator<char> > const ,void *> >,0> >::_Insert_at<std::pair<std::basic_string<char,std::char_traits<char>,std::allocator<char> > const ,void *> &,std::_Tree_node<std::pair<std::basic_string<char,std::char_traits<char>,std::allocator<char> > const ,void *>,void *> *>
  001ec	8b 08		 mov	 ecx, DWORD PTR [eax]
  001ee	8b 45 08	 mov	 eax, DWORD PTR ___$ReturnUdt$[ebp]
  001f1	89 08		 mov	 DWORD PTR [eax], ecx
  001f3	c6 40 04 01	 mov	 BYTE PTR [eax+4], 1

; 1820 : 		_CATCH_END
; 1821 : 		}

  001f7	8b 4d f4	 mov	 ecx, DWORD PTR __$EHRec$[ebp+4]
  001fa	64 89 0d 00 00
	00 00		 mov	 DWORD PTR fs:0, ecx
  00201	59		 pop	 ecx
  00202	5f		 pop	 edi
  00203	5e		 pop	 esi
  00204	5b		 pop	 ebx
  00205	8b e5		 mov	 esp, ebp
  00207	5d		 pop	 ebp
  00208	c2 10 00	 ret	 16			; 00000010H
$LN11@Insert_noh:

; 1802 : 					_STD forward<_Valty>(_Val), _Newnode), true));
; 1803 : 			else
; 1804 : 				--_Where;	// need to test if insert before is okay

  0020b	8d 4d 0c	 lea	 ecx, DWORD PTR __Where$4[ebp]
  0020e	e8 00 00 00 00	 call	 ??F?$_Tree_unchecked_const_iterator@V?$_Tree_val@U?$_Tree_simple_types@U?$pair@$$CBV?$basic_string@DU?$char_traits@D@std@@V?$allocator@D@2@@std@@PAX@std@@@std@@@std@@U_Iterator_base0@2@@std@@QAEAAV01@XZ ; std::_Tree_unchecked_const_iterator<std::_Tree_val<std::_Tree_simple_types<std::pair<std::basic_string<char,std::char_traits<char>,std::allocator<char> > const ,void *> > >,std::_Iterator_base0>::operator--
  00213	8b 75 0c	 mov	 esi, DWORD PTR __Where$4[ebp]
$LN12@Insert_noh:

; 1805 : 
; 1806 : 			if (_DEBUG_LT_PRED(this->_Getcomp(),

  00216	8b 7d 10	 mov	 edi, DWORD PTR __Val$[ebp]
  00219	8d 46 10	 lea	 eax, DWORD PTR [esi+16]
  0021c	8b 5d e0	 mov	 ebx, DWORD PTR _this$[ebp]
  0021f	8b cb		 mov	 ecx, ebx
  00221	57		 push	 edi
  00222	50		 push	 eax
  00223	e8 00 00 00 00	 call	 ??R?$less@V?$basic_string@DU?$char_traits@D@std@@V?$allocator@D@2@@std@@@std@@QBE_NABV?$basic_string@DU?$char_traits@D@std@@V?$allocator@D@2@@1@0@Z ; std::less<std::basic_string<char,std::char_traits<char>,std::allocator<char> > >::operator()

; 1807 : 				this->_Key(_Where._Mynode()),
; 1808 : 				this->_Kfn(_Val)))
; 1809 : 				return (_Pairib(_Insert_at(_Addleft, _Wherenode,

  00228	8b cb		 mov	 ecx, ebx
  0022a	ff 75 14	 push	 DWORD PTR __Newnode$[ebp]
  0022d	84 c0		 test	 al, al
  0022f	74 1d		 je	 SHORT $LN13@Insert_noh
  00231	57		 push	 edi
  00232	ff 75 e8	 push	 DWORD PTR __Wherenode$1$[ebp]
  00235	ff 75 e4	 push	 DWORD PTR __Addleft$2[ebp]
  00238	eb a9		 jmp	 SHORT $LN383@Insert_noh
__catch$??$_Insert_nohint@AAU?$pair@$$CBV?$basic_string@DU?$char_traits@D@std@@V?$allocator@D@2@@std@@PAX@std@@PAU?$_Tree_node@U?$pair@$$CBV?$basic_string@DU?$char_traits@D@std@@V?$allocator@D@2@@std@@PAX@std@@PAX@2@@?$_Tree@V?$_Tmap_traits@V?$basic_string@DU?$char_traits@D@std@@V?$allocator@D@2@@std@@PAXU?$less@V?$basic_string@DU?$char_traits@D@std@@V?$allocator@D@2@@std@@@2@V?$allocator@U?$pair@$$CBV?$basic_string@DU?$char_traits@D@std@@V?$allocator@D@2@@std@@PAX@std@@@2@$0A@@std@@@std@@IAE?AU?$pair@V?$_Tree_iterator@V?$_Tree_val@U?$_Tree_simple_types@U?$pair@$$CBV?$basic_string@DU?$char_traits@D@std@@V?$allocator@D@2@@std@@PAX@std@@@std@@@std@@@std@@_N@1@_NAAU?$pair@$$CBV?$basic_string@DU?$char_traits@D@std@@V?$allocator@D@2@@std@@PAX@1@PAU?$_Tree_node@U?$pair@$$CBV?$basic_string@DU?$char_traits@D@std@@V?$allocator@D@2@@std@@PAX@std@@PAX@1@@Z$0:

; 1815 : 				}
; 1816 : 			}
; 1817 : 		_CATCH_ALL
; 1818 : 		_Destroy_if_not_nil(_Newnode);

  0023a	ff 75 14	 push	 DWORD PTR __Newnode$[ebp]
  0023d	8b 4d e0	 mov	 ecx, DWORD PTR _this$[ebp]
  00240	e8 00 00 00 00	 call	 ?_Destroy_if_not_nil@?$_Tree@V?$_Tmap_traits@V?$basic_string@DU?$char_traits@D@std@@V?$allocator@D@2@@std@@PAXU?$less@V?$basic_string@DU?$char_traits@D@std@@V?$allocator@D@2@@std@@@2@V?$allocator@U?$pair@$$CBV?$basic_string@DU?$char_traits@D@std@@V?$allocator@D@2@@std@@PAX@std@@@2@$0A@@std@@@std@@IAEXPAU?$_Tree_node@U?$pair@$$CBV?$basic_string@DU?$char_traits@D@std@@V?$allocator@D@2@@std@@PAX@std@@PAX@2@@Z ; std::_Tree<std::_Tmap_traits<std::basic_string<char,std::char_traits<char>,std::allocator<char> >,void *,std::less<std::basic_string<char,std::char_traits<char>,std::allocator<char> > >,std::allocator<std::pair<std::basic_string<char,std::char_traits<char>,std::allocator<char> > const ,void *> >,0> >::_Destroy_if_not_nil

; 1819 : 		_RERAISE;

  00245	6a 00		 push	 0
  00247	6a 00		 push	 0
  00249	e8 00 00 00 00	 call	 __CxxThrowException@8
$LN384@Insert_noh:
$LN13@Insert_noh:

; 1810 : 					_STD forward<_Valty>(_Val), _Newnode), true));
; 1811 : 			else
; 1812 : 				{	// duplicate, don't insert
; 1813 : 				_Destroy_if_not_nil(_Newnode);

  0024e	e8 00 00 00 00	 call	 ?_Destroy_if_not_nil@?$_Tree@V?$_Tmap_traits@V?$basic_string@DU?$char_traits@D@std@@V?$allocator@D@2@@std@@PAXU?$less@V?$basic_string@DU?$char_traits@D@std@@V?$allocator@D@2@@std@@@2@V?$allocator@U?$pair@$$CBV?$basic_string@DU?$char_traits@D@std@@V?$allocator@D@2@@std@@PAX@std@@@2@$0A@@std@@@std@@IAEXPAU?$_Tree_node@U?$pair@$$CBV?$basic_string@DU?$char_traits@D@std@@V?$allocator@D@2@@std@@PAX@std@@PAX@2@@Z ; std::_Tree<std::_Tmap_traits<std::basic_string<char,std::char_traits<char>,std::allocator<char> >,void *,std::less<std::basic_string<char,std::char_traits<char>,std::allocator<char> > >,std::allocator<std::pair<std::basic_string<char,std::char_traits<char>,std::allocator<char> > const ,void *> >,0> >::_Destroy_if_not_nil

; 1814 : 				return (_Pairib(_Where, false));

  00253	8b 45 08	 mov	 eax, DWORD PTR ___$ReturnUdt$[ebp]
  00256	89 30		 mov	 DWORD PTR [eax], esi
  00258	c6 40 04 00	 mov	 BYTE PTR [eax+4], 0

; 1820 : 		_CATCH_END
; 1821 : 		}

  0025c	8b 4d f4	 mov	 ecx, DWORD PTR __$EHRec$[ebp+4]
  0025f	64 89 0d 00 00
	00 00		 mov	 DWORD PTR fs:0, ecx
  00266	59		 pop	 ecx
  00267	5f		 pop	 edi
  00268	5e		 pop	 esi
  00269	5b		 pop	 ebx
  0026a	8b e5		 mov	 esp, ebp
  0026c	5d		 pop	 ebp
  0026d	c2 10 00	 ret	 16			; 00000010H
$LN378@Insert_noh:
_TEXT	ENDS
;	COMDAT text$x
text$x	SEGMENT
__ehhandler$??$_Insert_nohint@AAU?$pair@$$CBV?$basic_string@DU?$char_traits@D@std@@V?$allocator@D@2@@std@@PAX@std@@PAU?$_Tree_node@U?$pair@$$CBV?$basic_string@DU?$char_traits@D@std@@V?$allocator@D@2@@std@@PAX@std@@PAX@2@@?$_Tree@V?$_Tmap_traits@V?$basic_string@DU?$char_traits@D@std@@V?$allocator@D@2@@std@@PAXU?$less@V?$basic_string@DU?$char_traits@D@std@@V?$allocator@D@2@@std@@@2@V?$allocator@U?$pair@$$CBV?$basic_string@DU?$char_traits@D@std@@V?$allocator@D@2@@std@@PAX@std@@@2@$0A@@std@@@std@@IAE?AU?$pair@V?$_Tree_iterator@V?$_Tree_val@U?$_Tree_simple_types@U?$pair@$$CBV?$basic_string@DU?$char_traits@D@std@@V?$allocator@D@2@@std@@PAX@std@@@std@@@std@@@std@@_N@1@_NAAU?$pair@$$CBV?$basic_string@DU?$char_traits@D@std@@V?$allocator@D@2@@std@@PAX@1@PAU?$_Tree_node@U?$pair@$$CBV?$basic_string@DU?$char_traits@D@std@@V?$allocator@D@2@@std@@PAX@std@@PAX@1@@Z:
  00000	8b 54 24 08	 mov	 edx, DWORD PTR [esp+8]
  00004	8d 42 0c	 lea	 eax, DWORD PTR [edx+12]
  00007	8b 4a d8	 mov	 ecx, DWORD PTR [edx-40]
  0000a	33 c8		 xor	 ecx, eax
  0000c	e8 00 00 00 00	 call	 @__security_check_cookie@4
  00011	b8 00 00 00 00	 mov	 eax, OFFSET __ehfuncinfo$??$_Insert_nohint@AAU?$pair@$$CBV?$basic_string@DU?$char_traits@D@std@@V?$allocator@D@2@@std@@PAX@std@@PAU?$_Tree_node@U?$pair@$$CBV?$basic_string@DU?$char_traits@D@std@@V?$allocator@D@2@@std@@PAX@std@@PAX@2@@?$_Tree@V?$_Tmap_traits@V?$basic_string@DU?$char_traits@D@std@@V?$allocator@D@2@@std@@PAXU?$less@V?$basic_string@DU?$char_traits@D@std@@V?$allocator@D@2@@std@@@2@V?$allocator@U?$pair@$$CBV?$basic_string@DU?$char_traits@D@std@@V?$allocator@D@2@@std@@PAX@std@@@2@$0A@@std@@@std@@IAE?AU?$pair@V?$_Tree_iterator@V?$_Tree_val@U?$_Tree_simple_types@U?$pair@$$CBV?$basic_string@DU?$char_traits@D@std@@V?$allocator@D@2@@std@@PAX@std@@@std@@@std@@@std@@_N@1@_NAAU?$pair@$$CBV?$basic_string@DU?$char_traits@D@std@@V?$allocator@D@2@@std@@PAX@1@PAU?$_Tree_node@U?$pair@$$CBV?$basic_string@DU?$char_traits@D@std@@V?$allocator@D@2@@std@@PAX@std@@PAX@1@@Z
  00016	e9 00 00 00 00	 jmp	 ___CxxFrameHandler3
text$x	ENDS
??$_Insert_nohint@AAU?$pair@$$CBV?$basic_string@DU?$char_traits@D@std@@V?$allocator@D@2@@std@@PAX@std@@PAU?$_Tree_node@U?$pair@$$CBV?$basic_string@DU?$char_traits@D@std@@V?$allocator@D@2@@std@@PAX@std@@PAX@2@@?$_Tree@V?$_Tmap_traits@V?$basic_string@DU?$char_traits@D@std@@V?$allocator@D@2@@std@@PAXU?$less@V?$basic_string@DU?$char_traits@D@std@@V?$allocator@D@2@@std@@@2@V?$allocator@U?$pair@$$CBV?$basic_string@DU?$char_traits@D@std@@V?$allocator@D@2@@std@@PAX@std@@@2@$0A@@std@@@std@@IAE?AU?$pair@V?$_Tree_iterator@V?$_Tree_val@U?$_Tree_simple_types@U?$pair@$$CBV?$basic_string@DU?$char_traits@D@std@@V?$allocator@D@2@@std@@PAX@std@@@std@@@std@@@std@@_N@1@_NAAU?$pair@$$CBV?$basic_string@DU?$char_traits@D@std@@V?$allocator@D@2@@std@@PAX@1@PAU?$_Tree_node@U?$pair@$$CBV?$basic_string@DU?$char_traits@D@std@@V?$allocator@D@2@@std@@PAX@std@@PAX@1@@Z ENDP ; std::_Tree<std::_Tmap_traits<std::basic_string<char,std::char_traits<char>,std::allocator<char> >,void *,std::less<std::basic_string<char,std::char_traits<char>,std::allocator<char> > >,std::allocator<std::pair<std::basic_string<char,std::char_traits<char>,std::allocator<char> > const ,void *> >,0> >::_Insert_nohint<std::pair<std::basic_string<char,std::char_traits<char>,std::allocator<char> > const ,void *> &,std::_Tree_node<std::pair<std::basic_string<char,std::char_traits<char>,std::allocator<char> > const ,void *>,void *> *>
; Function compile flags: /Ogtp
; File c:\program files (x86)\microsoft visual studio 14.0\vc\include\xtree
;	COMDAT ??$_Insert_at@AAU?$pair@$$CBV?$basic_string@DU?$char_traits@D@std@@V?$allocator@D@2@@std@@PAX@std@@PAU?$_Tree_node@U?$pair@$$CBV?$basic_string@DU?$char_traits@D@std@@V?$allocator@D@2@@std@@PAX@std@@PAX@2@@?$_Tree@V?$_Tmap_traits@V?$basic_string@DU?$char_traits@D@std@@V?$allocator@D@2@@std@@PAXU?$less@V?$basic_string@DU?$char_traits@D@std@@V?$allocator@D@2@@std@@@2@V?$allocator@U?$pair@$$CBV?$basic_string@DU?$char_traits@D@std@@V?$allocator@D@2@@std@@PAX@std@@@2@$0A@@std@@@std@@IAE?AV?$_Tree_iterator@V?$_Tree_val@U?$_Tree_simple_types@U?$pair@$$CBV?$basic_string@DU?$char_traits@D@std@@V?$allocator@D@2@@std@@PAX@std@@@std@@@std@@@1@_NPAU?$_Tree_node@U?$pair@$$CBV?$basic_string@DU?$char_traits@D@std@@V?$allocator@D@2@@std@@PAX@std@@PAX@1@AAU?$pair@$$CBV?$basic_string@DU?$char_traits@D@std@@V?$allocator@D@2@@std@@PAX@1@1@Z
_TEXT	SEGMENT
___$ReturnUdt$ = 8					; size = 4
__Addleft$ = 12						; size = 1
__Wherenode$ = 16					; size = 4
__Val$ = 20						; size = 4
__Node$ = 24						; size = 4
??$_Insert_at@AAU?$pair@$$CBV?$basic_string@DU?$char_traits@D@std@@V?$allocator@D@2@@std@@PAX@std@@PAU?$_Tree_node@U?$pair@$$CBV?$basic_string@DU?$char_traits@D@std@@V?$allocator@D@2@@std@@PAX@std@@PAX@2@@?$_Tree@V?$_Tmap_traits@V?$basic_string@DU?$char_traits@D@std@@V?$allocator@D@2@@std@@PAXU?$less@V?$basic_string@DU?$char_traits@D@std@@V?$allocator@D@2@@std@@@2@V?$allocator@U?$pair@$$CBV?$basic_string@DU?$char_traits@D@std@@V?$allocator@D@2@@std@@PAX@std@@@2@$0A@@std@@@std@@IAE?AV?$_Tree_iterator@V?$_Tree_val@U?$_Tree_simple_types@U?$pair@$$CBV?$basic_string@DU?$char_traits@D@std@@V?$allocator@D@2@@std@@PAX@std@@@std@@@std@@@1@_NPAU?$_Tree_node@U?$pair@$$CBV?$basic_string@DU?$char_traits@D@std@@V?$allocator@D@2@@std@@PAX@std@@PAX@1@AAU?$pair@$$CBV?$basic_string@DU?$char_traits@D@std@@V?$allocator@D@2@@std@@PAX@1@1@Z PROC ; std::_Tree<std::_Tmap_traits<std::basic_string<char,std::char_traits<char>,std::allocator<char> >,void *,std::less<std::basic_string<char,std::char_traits<char>,std::allocator<char> > >,std::allocator<std::pair<std::basic_string<char,std::char_traits<char>,std::allocator<char> > const ,void *> >,0> >::_Insert_at<std::pair<std::basic_string<char,std::char_traits<char>,std::allocator<char> > const ,void *> &,std::_Tree_node<std::pair<std::basic_string<char,std::char_traits<char>,std::allocator<char> > const ,void *>,void *> *>, COMDAT
; _this$ = ecx

; 1827 : 		{	// add node with value next to _Wherenode, to left if _Addleft

  00000	55		 push	 ebp
  00001	8b ec		 mov	 ebp, esp
  00003	53		 push	 ebx
  00004	56		 push	 esi
  00005	57		 push	 edi
  00006	8b f9		 mov	 edi, ecx

; 1828 : 		if (max_size() - 1 <= this->_Mysize())

  00008	8b 47 04	 mov	 eax, DWORD PTR [edi+4]
  0000b	3d 5c 74 d1 05	 cmp	 eax, 97612892		; 05d1745cH
  00010	72 36		 jb	 SHORT $LN5@Insert_at

; 1829 : 			{	// tree would get too big, fail
; 1830 : 			_Destroy_if_not_nil(_Node);

  00012	8b 7d 18	 mov	 edi, DWORD PTR __Node$[ebp]
  00015	8b 47 24	 mov	 eax, DWORD PTR [edi+36]
  00018	8d 77 10	 lea	 esi, DWORD PTR [edi+16]
  0001b	83 f8 10	 cmp	 eax, 16			; 00000010H
  0001e	72 0b		 jb	 SHORT $LN91@Insert_at
  00020	40		 inc	 eax
  00021	8b ce		 mov	 ecx, esi
  00023	50		 push	 eax
  00024	ff 36		 push	 DWORD PTR [esi]
  00026	e8 00 00 00 00	 call	 ?deallocate@?$_Wrap_alloc@V?$allocator@D@std@@@std@@QAEXPADI@Z ; std::_Wrap_alloc<std::allocator<char> >::deallocate
$LN91@Insert_at:
  0002b	c7 46 14 0f 00
	00 00		 mov	 DWORD PTR [esi+20], 15	; 0000000fH
  00032	83 7e 14 10	 cmp	 DWORD PTR [esi+20], 16	; 00000010H
  00036	c7 46 10 00 00
	00 00		 mov	 DWORD PTR [esi+16], 0
  0003d	0f 82 75 01 00
	00		 jb	 $LN179@Insert_at
  00043	e9 6e 01 00 00	 jmp	 $LN841@Insert_at
$LN5@Insert_at:

; 1832 : 			}
; 1833 : 		_Nodeptr _Newnode = _Buynode_if_nil(_Node,
; 1834 : 			_STD forward<_Valty>(_Val));
; 1835 : 
; 1836 : 		++this->_Mysize();
; 1837 : 		_Newnode->_Parent = _Wherenode;

  00048	8b 5d 18	 mov	 ebx, DWORD PTR __Node$[ebp]
  0004b	40		 inc	 eax
  0004c	89 47 04	 mov	 DWORD PTR [edi+4], eax
  0004f	8b 45 10	 mov	 eax, DWORD PTR __Wherenode$[ebp]
  00052	89 43 04	 mov	 DWORD PTR [ebx+4], eax

; 1838 : 
; 1839 : 		if (_Wherenode == this->_Myhead())

  00055	8b 0f		 mov	 ecx, DWORD PTR [edi]
  00057	3b c1		 cmp	 eax, ecx
  00059	75 0e		 jne	 SHORT $LN6@Insert_at

; 1840 : 			{	// first node in tree, just set head values
; 1841 : 			_Root() = _Newnode;

  0005b	89 59 04	 mov	 DWORD PTR [ecx+4], ebx

; 1842 : 			_Lmost() = _Newnode;

  0005e	8b 07		 mov	 eax, DWORD PTR [edi]
  00060	89 18		 mov	 DWORD PTR [eax], ebx

; 1843 : 			_Rmost() = _Newnode;

  00062	8b 07		 mov	 eax, DWORD PTR [edi]
  00064	89 58 08	 mov	 DWORD PTR [eax+8], ebx
  00067	eb 1f		 jmp	 SHORT $LN11@Insert_at
$LN6@Insert_at:

; 1844 : 			}
; 1845 : 		else if (_Addleft)

  00069	80 7d 0c 00	 cmp	 BYTE PTR __Addleft$[ebp], 0
  0006d	74 0c		 je	 SHORT $LN8@Insert_at

; 1846 : 			{	// add to left of _Wherenode
; 1847 : 			this->_Left(_Wherenode) = _Newnode;

  0006f	89 18		 mov	 DWORD PTR [eax], ebx

; 1848 : 			if (_Wherenode == _Lmost())

  00071	8b 0f		 mov	 ecx, DWORD PTR [edi]
  00073	3b 01		 cmp	 eax, DWORD PTR [ecx]
  00075	75 11		 jne	 SHORT $LN11@Insert_at

; 1849 : 				_Lmost() = _Newnode;

  00077	89 19		 mov	 DWORD PTR [ecx], ebx

; 1850 : 			}
; 1851 : 		else

  00079	eb 0d		 jmp	 SHORT $LN11@Insert_at
$LN8@Insert_at:

; 1852 : 			{	// add to right of _Wherenode
; 1853 : 			this->_Right(_Wherenode) = _Newnode;

  0007b	89 58 08	 mov	 DWORD PTR [eax+8], ebx

; 1854 : 			if (_Wherenode == _Rmost())

  0007e	8b 0f		 mov	 ecx, DWORD PTR [edi]
  00080	3b 41 08	 cmp	 eax, DWORD PTR [ecx+8]
  00083	75 03		 jne	 SHORT $LN11@Insert_at

; 1855 : 				_Rmost() = _Newnode;

  00085	89 59 08	 mov	 DWORD PTR [ecx+8], ebx
$LN11@Insert_at:

; 1856 : 			}
; 1857 : 
; 1858 : 		for (_Nodeptr _Pnode = _Newnode;
; 1859 : 			this->_Color(this->_Parent(_Pnode)) == this->_Red; )

  00088	8b 43 04	 mov	 eax, DWORD PTR [ebx+4]
  0008b	8b f3		 mov	 esi, ebx
  0008d	80 78 0c 00	 cmp	 BYTE PTR [eax+12], 0
  00091	0f 85 0a 01 00
	00		 jne	 $LN3@Insert_at
$LL2@Insert_at:

; 1860 : 			if (this->_Parent(_Pnode)
; 1861 : 				== this->_Left(this->_Parent(this->_Parent(_Pnode))))

  00097	8b 46 04	 mov	 eax, DWORD PTR [esi+4]
  0009a	8b 50 04	 mov	 edx, DWORD PTR [eax+4]
  0009d	8b 0a		 mov	 ecx, DWORD PTR [edx]
  0009f	3b c1		 cmp	 eax, ecx
  000a1	75 74		 jne	 SHORT $LN12@Insert_at

; 1862 : 				{	// fixup red-red in left subtree
; 1863 : 				_Wherenode =

  000a3	8b 4a 08	 mov	 ecx, DWORD PTR [edx+8]

; 1864 : 					this->_Right(this->_Parent(this->_Parent(_Pnode)));
; 1865 : 				if (this->_Color(_Wherenode) == this->_Red)

  000a6	80 79 0c 00	 cmp	 BYTE PTR [ecx+12], 0
  000aa	74 71		 je	 SHORT $LN840@Insert_at

; 1866 : 					{	// parent has two red children, blacken both
; 1867 : 					this->_Color(this->_Parent(_Pnode)) = this->_Black;
; 1868 : 					this->_Color(_Wherenode) = this->_Black;
; 1869 : 					this->_Color(this->_Parent(this->_Parent(_Pnode)))
; 1870 : 						= this->_Red;
; 1871 : 					_Pnode = this->_Parent(this->_Parent(_Pnode));
; 1872 : 					}
; 1873 : 				else
; 1874 : 					{	// parent has red and black children
; 1875 : 					if (_Pnode == this->_Right(this->_Parent(_Pnode)))

  000ac	3b 70 08	 cmp	 esi, DWORD PTR [eax+8]
  000af	75 0a		 jne	 SHORT $LN16@Insert_at

; 1876 : 						{	// rotate right child to left
; 1877 : 						_Pnode = this->_Parent(_Pnode);

  000b1	8b f0		 mov	 esi, eax

; 1878 : 						_Lrotate(_Pnode);

  000b3	8b cf		 mov	 ecx, edi
  000b5	56		 push	 esi
  000b6	e8 00 00 00 00	 call	 ?_Lrotate@?$_Tree@V?$_Tmap_traits@V?$basic_string@DU?$char_traits@D@std@@V?$allocator@D@2@@std@@PAXU?$less@V?$basic_string@DU?$char_traits@D@std@@V?$allocator@D@2@@std@@@2@V?$allocator@U?$pair@$$CBV?$basic_string@DU?$char_traits@D@std@@V?$allocator@D@2@@std@@PAX@std@@@2@$0A@@std@@@std@@IAEXPAU?$_Tree_node@U?$pair@$$CBV?$basic_string@DU?$char_traits@D@std@@V?$allocator@D@2@@std@@PAX@std@@PAX@2@@Z ; std::_Tree<std::_Tmap_traits<std::basic_string<char,std::char_traits<char>,std::allocator<char> >,void *,std::less<std::basic_string<char,std::char_traits<char>,std::allocator<char> > >,std::allocator<std::pair<std::basic_string<char,std::char_traits<char>,std::allocator<char> > const ,void *> >,0> >::_Lrotate
$LN16@Insert_at:

; 1879 : 						}
; 1880 : 					this->_Color(this->_Parent(_Pnode)) =

  000bb	8b 46 04	 mov	 eax, DWORD PTR [esi+4]
  000be	c6 40 0c 01	 mov	 BYTE PTR [eax+12], 1

; 1881 : 						this->_Black;	// propagate red up
; 1882 : 					this->_Color(this->_Parent(this->_Parent(_Pnode))) =

  000c2	8b 46 04	 mov	 eax, DWORD PTR [esi+4]
  000c5	8b 40 04	 mov	 eax, DWORD PTR [eax+4]
  000c8	c6 40 0c 00	 mov	 BYTE PTR [eax+12], 0

; 1883 : 						this->_Red;
; 1884 : 					_Rrotate(this->_Parent(this->_Parent(_Pnode)));

  000cc	8b 46 04	 mov	 eax, DWORD PTR [esi+4]
  000cf	8b 48 04	 mov	 ecx, DWORD PTR [eax+4]
  000d2	8b 11		 mov	 edx, DWORD PTR [ecx]
  000d4	8b 42 08	 mov	 eax, DWORD PTR [edx+8]
  000d7	89 01		 mov	 DWORD PTR [ecx], eax
  000d9	8b 42 08	 mov	 eax, DWORD PTR [edx+8]
  000dc	80 78 0d 00	 cmp	 BYTE PTR [eax+13], 0
  000e0	75 03		 jne	 SHORT $LN487@Insert_at
  000e2	89 48 04	 mov	 DWORD PTR [eax+4], ecx
$LN487@Insert_at:
  000e5	8b 41 04	 mov	 eax, DWORD PTR [ecx+4]
  000e8	89 42 04	 mov	 DWORD PTR [edx+4], eax
  000eb	8b 07		 mov	 eax, DWORD PTR [edi]
  000ed	3b 48 04	 cmp	 ecx, DWORD PTR [eax+4]
  000f0	75 0b		 jne	 SHORT $LN488@Insert_at
  000f2	89 50 04	 mov	 DWORD PTR [eax+4], edx
  000f5	89 4a 08	 mov	 DWORD PTR [edx+8], ecx

; 1885 : 					}
; 1886 : 				}
; 1887 : 			else

  000f8	e9 94 00 00 00	 jmp	 $LN839@Insert_at

; 1883 : 						this->_Red;
; 1884 : 					_Rrotate(this->_Parent(this->_Parent(_Pnode)));

$LN488@Insert_at:
  000fd	8b 41 04	 mov	 eax, DWORD PTR [ecx+4]
  00100	3b 48 08	 cmp	 ecx, DWORD PTR [eax+8]
  00103	75 0b		 jne	 SHORT $LN490@Insert_at
  00105	89 50 08	 mov	 DWORD PTR [eax+8], edx
  00108	89 4a 08	 mov	 DWORD PTR [edx+8], ecx

; 1885 : 					}
; 1886 : 				}
; 1887 : 			else

  0010b	e9 81 00 00 00	 jmp	 $LN839@Insert_at

; 1883 : 						this->_Red;
; 1884 : 					_Rrotate(this->_Parent(this->_Parent(_Pnode)));

$LN490@Insert_at:
  00110	89 10		 mov	 DWORD PTR [eax], edx
  00112	89 4a 08	 mov	 DWORD PTR [edx+8], ecx

; 1885 : 					}
; 1886 : 				}
; 1887 : 			else

  00115	eb 7a		 jmp	 SHORT $LN839@Insert_at
$LN12@Insert_at:

; 1888 : 				{	// fixup red-red in right subtree
; 1889 : 				_Wherenode =
; 1890 : 					this->_Left(this->_Parent(this->_Parent(_Pnode)));
; 1891 : 				if (this->_Color(_Wherenode) == this->_Red)

  00117	80 79 0c 00	 cmp	 BYTE PTR [ecx+12], 0
  0011b	75 1a		 jne	 SHORT $LN17@Insert_at
$LN840@Insert_at:

; 1892 : 					{	// parent has two red children, blacken both
; 1893 : 					this->_Color(this->_Parent(_Pnode)) = this->_Black;

  0011d	c6 40 0c 01	 mov	 BYTE PTR [eax+12], 1

; 1894 : 					this->_Color(_Wherenode) = this->_Black;

  00121	c6 41 0c 01	 mov	 BYTE PTR [ecx+12], 1

; 1895 : 					this->_Color(this->_Parent(this->_Parent(_Pnode))) =

  00125	8b 46 04	 mov	 eax, DWORD PTR [esi+4]
  00128	8b 40 04	 mov	 eax, DWORD PTR [eax+4]
  0012b	c6 40 0c 00	 mov	 BYTE PTR [eax+12], 0

; 1896 : 						this->_Red;
; 1897 : 					_Pnode = this->_Parent(this->_Parent(_Pnode));

  0012f	8b 46 04	 mov	 eax, DWORD PTR [esi+4]
  00132	8b 70 04	 mov	 esi, DWORD PTR [eax+4]

; 1898 : 					}
; 1899 : 				else

  00135	eb 5d		 jmp	 SHORT $LN18@Insert_at
$LN17@Insert_at:

; 1900 : 					{	// parent has red and black children
; 1901 : 					if (_Pnode == this->_Left(this->_Parent(_Pnode)))

  00137	3b 30		 cmp	 esi, DWORD PTR [eax]
  00139	75 0a		 jne	 SHORT $LN19@Insert_at

; 1902 : 						{	// rotate left child to right
; 1903 : 						_Pnode = this->_Parent(_Pnode);

  0013b	8b f0		 mov	 esi, eax

; 1904 : 						_Rrotate(_Pnode);

  0013d	8b cf		 mov	 ecx, edi
  0013f	56		 push	 esi
  00140	e8 00 00 00 00	 call	 ?_Rrotate@?$_Tree@V?$_Tmap_traits@V?$basic_string@DU?$char_traits@D@std@@V?$allocator@D@2@@std@@PAXU?$less@V?$basic_string@DU?$char_traits@D@std@@V?$allocator@D@2@@std@@@2@V?$allocator@U?$pair@$$CBV?$basic_string@DU?$char_traits@D@std@@V?$allocator@D@2@@std@@PAX@std@@@2@$0A@@std@@@std@@IAEXPAU?$_Tree_node@U?$pair@$$CBV?$basic_string@DU?$char_traits@D@std@@V?$allocator@D@2@@std@@PAX@std@@PAX@2@@Z ; std::_Tree<std::_Tmap_traits<std::basic_string<char,std::char_traits<char>,std::allocator<char> >,void *,std::less<std::basic_string<char,std::char_traits<char>,std::allocator<char> > >,std::allocator<std::pair<std::basic_string<char,std::char_traits<char>,std::allocator<char> > const ,void *> >,0> >::_Rrotate
$LN19@Insert_at:

; 1905 : 						}
; 1906 : 					this->_Color(this->_Parent(_Pnode)) =

  00145	8b 46 04	 mov	 eax, DWORD PTR [esi+4]
  00148	c6 40 0c 01	 mov	 BYTE PTR [eax+12], 1

; 1907 : 						this->_Black;	// propagate red up
; 1908 : 					this->_Color(this->_Parent(this->_Parent(_Pnode))) =

  0014c	8b 46 04	 mov	 eax, DWORD PTR [esi+4]
  0014f	8b 40 04	 mov	 eax, DWORD PTR [eax+4]
  00152	c6 40 0c 00	 mov	 BYTE PTR [eax+12], 0

; 1909 : 						this->_Red;
; 1910 : 					_Lrotate(this->_Parent(this->_Parent(_Pnode)));

  00156	8b 46 04	 mov	 eax, DWORD PTR [esi+4]
  00159	8b 48 04	 mov	 ecx, DWORD PTR [eax+4]
  0015c	8b 51 08	 mov	 edx, DWORD PTR [ecx+8]
  0015f	8b 02		 mov	 eax, DWORD PTR [edx]
  00161	89 41 08	 mov	 DWORD PTR [ecx+8], eax
  00164	8b 02		 mov	 eax, DWORD PTR [edx]
  00166	80 78 0d 00	 cmp	 BYTE PTR [eax+13], 0
  0016a	75 03		 jne	 SHORT $LN686@Insert_at
  0016c	89 48 04	 mov	 DWORD PTR [eax+4], ecx
$LN686@Insert_at:
  0016f	8b 41 04	 mov	 eax, DWORD PTR [ecx+4]
  00172	89 42 04	 mov	 DWORD PTR [edx+4], eax
  00175	8b 07		 mov	 eax, DWORD PTR [edi]
  00177	3b 48 04	 cmp	 ecx, DWORD PTR [eax+4]
  0017a	75 05		 jne	 SHORT $LN687@Insert_at
  0017c	89 50 04	 mov	 DWORD PTR [eax+4], edx
  0017f	eb 0e		 jmp	 SHORT $LN690@Insert_at
$LN687@Insert_at:
  00181	8b 41 04	 mov	 eax, DWORD PTR [ecx+4]
  00184	3b 08		 cmp	 ecx, DWORD PTR [eax]
  00186	75 04		 jne	 SHORT $LN689@Insert_at
  00188	89 10		 mov	 DWORD PTR [eax], edx
  0018a	eb 03		 jmp	 SHORT $LN690@Insert_at
$LN689@Insert_at:
  0018c	89 50 08	 mov	 DWORD PTR [eax+8], edx
$LN690@Insert_at:
  0018f	89 0a		 mov	 DWORD PTR [edx], ecx
$LN839@Insert_at:
  00191	89 51 04	 mov	 DWORD PTR [ecx+4], edx
$LN18@Insert_at:

; 1856 : 			}
; 1857 : 
; 1858 : 		for (_Nodeptr _Pnode = _Newnode;
; 1859 : 			this->_Color(this->_Parent(_Pnode)) == this->_Red; )

  00194	8b 46 04	 mov	 eax, DWORD PTR [esi+4]
  00197	80 78 0c 00	 cmp	 BYTE PTR [eax+12], 0
  0019b	0f 84 f6 fe ff
	ff		 je	 $LL2@Insert_at
$LN3@Insert_at:

; 1911 : 					}
; 1912 : 				}
; 1913 : 
; 1914 : 		this->_Color(_Root()) = this->_Black;	// root is always black

  001a1	8b 07		 mov	 eax, DWORD PTR [edi]
  001a3	5f		 pop	 edi
  001a4	5e		 pop	 esi
  001a5	8b 40 04	 mov	 eax, DWORD PTR [eax+4]
  001a8	c6 40 0c 01	 mov	 BYTE PTR [eax+12], 1

; 1915 : 		return (iterator(_Newnode, &this->_Get_data()));

  001ac	8b 45 08	 mov	 eax, DWORD PTR ___$ReturnUdt$[ebp]
  001af	89 18		 mov	 DWORD PTR [eax], ebx
  001b1	5b		 pop	 ebx

; 1916 : 		}

  001b2	5d		 pop	 ebp
  001b3	c2 14 00	 ret	 20			; 00000014H
$LN841@Insert_at:

; 1829 : 			{	// tree would get too big, fail
; 1830 : 			_Destroy_if_not_nil(_Node);

  001b6	8b 36		 mov	 esi, DWORD PTR [esi]
$LN179@Insert_at:
  001b8	57		 push	 edi
  001b9	c6 06 00	 mov	 BYTE PTR [esi], 0
  001bc	e8 00 00 00 00	 call	 ??3@YAXPAX@Z		; operator delete
  001c1	83 c4 04	 add	 esp, 4

; 1831 : 			_Xlength_error("map/set<T> too long");

  001c4	68 00 00 00 00	 push	 OFFSET ??_C@_0BE@JONHPENG@map?1set?$DMT?$DO?5too?5long?$AA@
  001c9	e8 00 00 00 00	 call	 ?_Xlength_error@std@@YAXPBD@Z ; std::_Xlength_error
$LN843@Insert_at:
$LN838@Insert_at:
  001ce	cc		 int	 3
??$_Insert_at@AAU?$pair@$$CBV?$basic_string@DU?$char_traits@D@std@@V?$allocator@D@2@@std@@PAX@std@@PAU?$_Tree_node@U?$pair@$$CBV?$basic_string@DU?$char_traits@D@std@@V?$allocator@D@2@@std@@PAX@std@@PAX@2@@?$_Tree@V?$_Tmap_traits@V?$basic_string@DU?$char_traits@D@std@@V?$allocator@D@2@@std@@PAXU?$less@V?$basic_string@DU?$char_traits@D@std@@V?$allocator@D@2@@std@@@2@V?$allocator@U?$pair@$$CBV?$basic_string@DU?$char_traits@D@std@@V?$allocator@D@2@@std@@PAX@std@@@2@$0A@@std@@@std@@IAE?AV?$_Tree_iterator@V?$_Tree_val@U?$_Tree_simple_types@U?$pair@$$CBV?$basic_string@DU?$char_traits@D@std@@V?$allocator@D@2@@std@@PAX@std@@@std@@@std@@@1@_NPAU?$_Tree_node@U?$pair@$$CBV?$basic_string@DU?$char_traits@D@std@@V?$allocator@D@2@@std@@PAX@std@@PAX@1@AAU?$pair@$$CBV?$basic_string@DU?$char_traits@D@std@@V?$allocator@D@2@@std@@PAX@1@1@Z ENDP ; std::_Tree<std::_Tmap_traits<std::basic_string<char,std::char_traits<char>,std::allocator<char> >,void *,std::less<std::basic_string<char,std::char_traits<char>,std::allocator<char> > >,std::allocator<std::pair<std::basic_string<char,std::char_traits<char>,std::allocator<char> > const ,void *> >,0> >::_Insert_at<std::pair<std::basic_string<char,std::char_traits<char>,std::allocator<char> > const ,void *> &,std::_Tree_node<std::pair<std::basic_string<char,std::char_traits<char>,std::allocator<char> > const ,void *>,void *> *>
_TEXT	ENDS
; Function compile flags: /Ogtp
; File c:\program files (x86)\microsoft visual studio 14.0\vc\include\type_traits
;	COMDAT ??$forward@AAU?$pair@$$CBV?$basic_string@DU?$char_traits@D@std@@V?$allocator@D@2@@std@@PAX@std@@@std@@YAAAU?$pair@$$CBV?$basic_string@DU?$char_traits@D@std@@V?$allocator@D@2@@std@@PAX@0@AAU10@@Z
_TEXT	SEGMENT
__Arg$ = 8						; size = 4
??$forward@AAU?$pair@$$CBV?$basic_string@DU?$char_traits@D@std@@V?$allocator@D@2@@std@@PAX@std@@@std@@YAAAU?$pair@$$CBV?$basic_string@DU?$char_traits@D@std@@V?$allocator@D@2@@std@@PAX@0@AAU10@@Z PROC ; std::forward<std::pair<std::basic_string<char,std::char_traits<char>,std::allocator<char> > const ,void *> &>, COMDAT

; 1275 : 	{	// forward an lvalue as either an lvalue or an rvalue

  00000	55		 push	 ebp
  00001	8b ec		 mov	 ebp, esp

; 1276 : 	return (static_cast<_Ty&&>(_Arg));

  00003	8b 45 08	 mov	 eax, DWORD PTR __Arg$[ebp]

; 1277 : 	}

  00006	5d		 pop	 ebp
  00007	c3		 ret	 0
??$forward@AAU?$pair@$$CBV?$basic_string@DU?$char_traits@D@std@@V?$allocator@D@2@@std@@PAX@std@@@std@@YAAAU?$pair@$$CBV?$basic_string@DU?$char_traits@D@std@@V?$allocator@D@2@@std@@PAX@0@AAU10@@Z ENDP ; std::forward<std::pair<std::basic_string<char,std::char_traits<char>,std::allocator<char> > const ,void *> &>
_TEXT	ENDS
; Function compile flags: /Ogtp
; File c:\program files (x86)\microsoft visual studio 14.0\vc\include\xmemory0
;	COMDAT ??$construct@U?$pair@$$CBV?$basic_string@DU?$char_traits@D@std@@V?$allocator@D@2@@std@@PAX@std@@ABUpiecewise_construct_t@2@V?$tuple@$$QAV?$basic_string@DU?$char_traits@D@std@@V?$allocator@D@2@@std@@@2@V?$tuple@$$V@2@@?$_Wrap_alloc@V?$allocator@U?$_Tree_node@U?$pair@$$CBV?$basic_string@DU?$char_traits@D@std@@V?$allocator@D@2@@std@@PAX@std@@PAX@std@@@std@@@std@@QAEXPAU?$pair@$$CBV?$basic_string@DU?$char_traits@D@std@@V?$allocator@D@2@@std@@PAX@1@ABUpiecewise_construct_t@1@$$QAV?$tuple@$$QAV?$basic_string@DU?$char_traits@D@std@@V?$allocator@D@2@@std@@@1@$$QAV?$tuple@$$V@1@@Z
_TEXT	SEGMENT
__Ptr$ = 8						; size = 4
_<_Args_0>$ = 12					; size = 4
_<_Args_1>$ = 16					; size = 4
_<_Args_2>$ = 20					; size = 4
??$construct@U?$pair@$$CBV?$basic_string@DU?$char_traits@D@std@@V?$allocator@D@2@@std@@PAX@std@@ABUpiecewise_construct_t@2@V?$tuple@$$QAV?$basic_string@DU?$char_traits@D@std@@V?$allocator@D@2@@std@@@2@V?$tuple@$$V@2@@?$_Wrap_alloc@V?$allocator@U?$_Tree_node@U?$pair@$$CBV?$basic_string@DU?$char_traits@D@std@@V?$allocator@D@2@@std@@PAX@std@@PAX@std@@@std@@@std@@QAEXPAU?$pair@$$CBV?$basic_string@DU?$char_traits@D@std@@V?$allocator@D@2@@std@@PAX@1@ABUpiecewise_construct_t@1@$$QAV?$tuple@$$QAV?$basic_string@DU?$char_traits@D@std@@V?$allocator@D@2@@std@@@1@$$QAV?$tuple@$$V@1@@Z PROC ; std::_Wrap_alloc<std::allocator<std::_Tree_node<std::pair<std::basic_string<char,std::char_traits<char>,std::allocator<char> > const ,void *>,void *> > >::construct<std::pair<std::basic_string<char,std::char_traits<char>,std::allocator<char> > const ,void *>,std::piecewise_construct_t const &,std::tuple<std::basic_string<char,std::char_traits<char>,std::allocator<char> > &&>,std::tuple<> >, COMDAT
; _this$ = ecx

; 994  : 		{	// construct _Ty(_Types...) at _Ptr

  00000	55		 push	 ebp
  00001	8b ec		 mov	 ebp, esp
  00003	56		 push	 esi

; 995  : 		_Mytraits::construct(*this, _Ptr,

  00004	8b 75 08	 mov	 esi, DWORD PTR __Ptr$[ebp]
  00007	85 f6		 test	 esi, esi
  00009	74 25		 je	 SHORT $LN25@construct
  0000b	8b 45 10	 mov	 eax, DWORD PTR _<_Args_1>$[ebp]
  0000e	8b ce		 mov	 ecx, esi
  00010	8b 00		 mov	 eax, DWORD PTR [eax]
  00012	c7 46 14 0f 00
	00 00		 mov	 DWORD PTR [esi+20], 15	; 0000000fH
  00019	c7 46 10 00 00
	00 00		 mov	 DWORD PTR [esi+16], 0
  00020	50		 push	 eax
  00021	c6 06 00	 mov	 BYTE PTR [esi], 0
  00024	e8 00 00 00 00	 call	 ?_Assign_rv@?$basic_string@DU?$char_traits@D@std@@V?$allocator@D@2@@std@@QAEX$$QAV12@@Z ; std::basic_string<char,std::char_traits<char>,std::allocator<char> >::_Assign_rv
  00029	c7 46 18 00 00
	00 00		 mov	 DWORD PTR [esi+24], 0
$LN25@construct:

; 996  : 			_STD forward<_Types>(_Args)...);
; 997  : 		}

  00030	5e		 pop	 esi
  00031	5d		 pop	 ebp
  00032	c2 10 00	 ret	 16			; 00000010H
??$construct@U?$pair@$$CBV?$basic_string@DU?$char_traits@D@std@@V?$allocator@D@2@@std@@PAX@std@@ABUpiecewise_construct_t@2@V?$tuple@$$QAV?$basic_string@DU?$char_traits@D@std@@V?$allocator@D@2@@std@@@2@V?$tuple@$$V@2@@?$_Wrap_alloc@V?$allocator@U?$_Tree_node@U?$pair@$$CBV?$basic_string@DU?$char_traits@D@std@@V?$allocator@D@2@@std@@PAX@std@@PAX@std@@@std@@@std@@QAEXPAU?$pair@$$CBV?$basic_string@DU?$char_traits@D@std@@V?$allocator@D@2@@std@@PAX@1@ABUpiecewise_construct_t@1@$$QAV?$tuple@$$QAV?$basic_string@DU?$char_traits@D@std@@V?$allocator@D@2@@std@@@1@$$QAV?$tuple@$$V@1@@Z ENDP ; std::_Wrap_alloc<std::allocator<std::_Tree_node<std::pair<std::basic_string<char,std::char_traits<char>,std::allocator<char> > const ,void *>,void *> > >::construct<std::pair<std::basic_string<char,std::char_traits<char>,std::allocator<char> > const ,void *>,std::piecewise_construct_t const &,std::tuple<std::basic_string<char,std::char_traits<char>,std::allocator<char> > &&>,std::tuple<> >
_TEXT	ENDS
; Function compile flags: /Ogtp
; File c:\program files (x86)\microsoft visual studio 14.0\vc\include\tuple
;	COMDAT ??$?0V?$basic_string@DU?$char_traits@D@std@@V?$allocator@D@2@@std@@@?$_Tuple_val@$$QAV?$basic_string@DU?$char_traits@D@std@@V?$allocator@D@2@@std@@@std@@QAE@$$QAV?$basic_string@DU?$char_traits@D@std@@V?$allocator@D@2@@1@@Z
_TEXT	SEGMENT
__Arg$ = 8						; size = 4
??$?0V?$basic_string@DU?$char_traits@D@std@@V?$allocator@D@2@@std@@@?$_Tuple_val@$$QAV?$basic_string@DU?$char_traits@D@std@@V?$allocator@D@2@@std@@@std@@QAE@$$QAV?$basic_string@DU?$char_traits@D@std@@V?$allocator@D@2@@1@@Z PROC ; std::_Tuple_val<std::basic_string<char,std::char_traits<char>,std::allocator<char> > &&>::_Tuple_val<std::basic_string<char,std::char_traits<char>,std::allocator<char> > &&><std::basic_string<char,std::char_traits<char>,std::allocator<char> > >, COMDAT
; _this$ = ecx

; 164  : 		{	// construct with argument

  00000	55		 push	 ebp
  00001	8b ec		 mov	 ebp, esp

; 163  : 		: _Val(_STD forward<_Other>(_Arg))

  00003	8b 45 08	 mov	 eax, DWORD PTR __Arg$[ebp]
  00006	89 01		 mov	 DWORD PTR [ecx], eax

; 165  : 		}

  00008	8b c1		 mov	 eax, ecx
  0000a	5d		 pop	 ebp
  0000b	c2 04 00	 ret	 4
??$?0V?$basic_string@DU?$char_traits@D@std@@V?$allocator@D@2@@std@@@?$_Tuple_val@$$QAV?$basic_string@DU?$char_traits@D@std@@V?$allocator@D@2@@std@@@std@@QAE@$$QAV?$basic_string@DU?$char_traits@D@std@@V?$allocator@D@2@@1@@Z ENDP ; std::_Tuple_val<std::basic_string<char,std::char_traits<char>,std::allocator<char> > &&>::_Tuple_val<std::basic_string<char,std::char_traits<char>,std::allocator<char> > &&><std::basic_string<char,std::char_traits<char>,std::allocator<char> > >
_TEXT	ENDS
; Function compile flags: /Ogtp
; File c:\program files (x86)\microsoft visual studio 14.0\vc\include\xtree
;	COMDAT ??$_Insert_nohint@AAU?$pair@$$CBHPAX@std@@PAU?$_Tree_node@U?$pair@$$CBHPAX@std@@PAX@2@@?$_Tree@V?$_Tmap_traits@HPAXU?$less@H@std@@V?$allocator@U?$pair@$$CBHPAX@std@@@2@$0A@@std@@@std@@IAE?AU?$pair@V?$_Tree_iterator@V?$_Tree_val@U?$_Tree_simple_types@U?$pair@$$CBHPAX@std@@@std@@@std@@@std@@_N@1@_NAAU?$pair@$$CBHPAX@1@PAU?$_Tree_node@U?$pair@$$CBHPAX@std@@PAX@1@@Z
_TEXT	SEGMENT
tv702 = -28						; size = 4
_this$1$ = -24						; size = 4
__Addleft$2 = -20					; size = 1
__$EHRec$ = -16						; size = 16
___$ReturnUdt$ = 8					; size = 4
$T3 = 12						; size = 4
__Where$4 = 12						; size = 4
__Leftish$ = 12						; size = 1
__Val$ = 16						; size = 4
__Newnode$ = 20						; size = 4
??$_Insert_nohint@AAU?$pair@$$CBHPAX@std@@PAU?$_Tree_node@U?$pair@$$CBHPAX@std@@PAX@2@@?$_Tree@V?$_Tmap_traits@HPAXU?$less@H@std@@V?$allocator@U?$pair@$$CBHPAX@std@@@2@$0A@@std@@@std@@IAE?AU?$pair@V?$_Tree_iterator@V?$_Tree_val@U?$_Tree_simple_types@U?$pair@$$CBHPAX@std@@@std@@@std@@@std@@_N@1@_NAAU?$pair@$$CBHPAX@1@PAU?$_Tree_node@U?$pair@$$CBHPAX@std@@PAX@1@@Z PROC ; std::_Tree<std::_Tmap_traits<int,void *,std::less<int>,std::allocator<std::pair<int const ,void *> >,0> >::_Insert_nohint<std::pair<int const ,void *> &,std::_Tree_node<std::pair<int const ,void *>,void *> *>, COMDAT
; _this$ = ecx

; 1771 : 		{	// try to insert node, on left if _Leftish

  00000	55		 push	 ebp
  00001	8b ec		 mov	 ebp, esp
  00003	6a ff		 push	 -1
  00005	68 00 00 00 00	 push	 __ehhandler$??$_Insert_nohint@AAU?$pair@$$CBHPAX@std@@PAU?$_Tree_node@U?$pair@$$CBHPAX@std@@PAX@2@@?$_Tree@V?$_Tmap_traits@HPAXU?$less@H@std@@V?$allocator@U?$pair@$$CBHPAX@std@@@2@$0A@@std@@@std@@IAE?AU?$pair@V?$_Tree_iterator@V?$_Tree_val@U?$_Tree_simple_types@U?$pair@$$CBHPAX@std@@@std@@@std@@@std@@_N@1@_NAAU?$pair@$$CBHPAX@1@PAU?$_Tree_node@U?$pair@$$CBHPAX@std@@PAX@1@@Z
  0000a	64 a1 00 00 00
	00		 mov	 eax, DWORD PTR fs:0
  00010	50		 push	 eax
  00011	83 ec 10	 sub	 esp, 16			; 00000010H
  00014	53		 push	 ebx
  00015	56		 push	 esi
  00016	57		 push	 edi
  00017	a1 00 00 00 00	 mov	 eax, DWORD PTR ___security_cookie
  0001c	33 c5		 xor	 eax, ebp
  0001e	50		 push	 eax
  0001f	8d 45 f4	 lea	 eax, DWORD PTR __$EHRec$[ebp+4]
  00022	64 a3 00 00 00
	00		 mov	 DWORD PTR fs:0, eax
  00028	89 65 f0	 mov	 DWORD PTR __$EHRec$[ebp], esp
  0002b	8b c1		 mov	 eax, ecx
  0002d	89 45 e8	 mov	 DWORD PTR _this$1$[ebp], eax

; 1772 : 		_TRY_BEGIN
; 1773 : 		_Nodeptr _Trynode = _Root();

  00030	8b 08		 mov	 ecx, DWORD PTR [eax]

; 1774 : 		_Nodeptr _Wherenode = this->_Myhead();
; 1775 : 		bool _Addleft = true;	// add to left of head if tree empty

  00032	b2 01		 mov	 dl, 1
  00034	8b 5d 10	 mov	 ebx, DWORD PTR __Val$[ebp]
  00037	8b f9		 mov	 edi, ecx
  00039	c7 45 fc 00 00
	00 00		 mov	 DWORD PTR __$EHRec$[ebp+12], 0
  00040	89 4d e4	 mov	 DWORD PTR tv702[ebp], ecx
  00043	8b 41 04	 mov	 eax, DWORD PTR [ecx+4]
  00046	88 55 ec	 mov	 BYTE PTR __Addleft$2[ebp], dl

; 1776 : 
; 1777 : 		while (!this->_Isnil(_Trynode))

  00049	80 78 0d 00	 cmp	 BYTE PTR [eax+13], 0
  0004d	75 30		 jne	 SHORT $LN3@Insert_noh
  0004f	8b 0b		 mov	 ecx, DWORD PTR [ebx]
  00051	8a 75 0c	 mov	 dh, BYTE PTR __Leftish$[ebp]
$LL2@Insert_noh:

; 1778 : 			{	// look for leaf to insert before (_Addleft) or after
; 1779 : 			_Wherenode = _Trynode;

  00054	8b f8		 mov	 edi, eax

; 1780 : 			if (_Leftish)

  00056	84 f6		 test	 dh, dh
  00058	74 08		 je	 SHORT $LN5@Insert_noh

; 1781 : 				_Addleft = !_DEBUG_LT_PRED(this->_Getcomp(),

  0005a	39 48 10	 cmp	 DWORD PTR [eax+16], ecx
  0005d	0f 9d c2	 setge	 dl

; 1782 : 					this->_Key(_Trynode),
; 1783 : 					this->_Kfn(_Val));	// favor left end
; 1784 : 			else

  00060	eb 06		 jmp	 SHORT $LN330@Insert_noh
$LN5@Insert_noh:

; 1785 : 				_Addleft = _DEBUG_LT_PRED(this->_Getcomp(),

  00062	3b 48 10	 cmp	 ecx, DWORD PTR [eax+16]
  00065	0f 9c c2	 setl	 dl
$LN330@Insert_noh:
  00068	88 55 ec	 mov	 BYTE PTR __Addleft$2[ebp], dl

; 1786 : 					this->_Kfn(_Val),
; 1787 : 					this->_Key(_Trynode));	// favor right end
; 1788 : 			_Trynode = _Addleft ? this->_Left(_Trynode)

  0006b	84 d2		 test	 dl, dl
  0006d	74 04		 je	 SHORT $LN16@Insert_noh
  0006f	8b 00		 mov	 eax, DWORD PTR [eax]
  00071	eb 03		 jmp	 SHORT $LN17@Insert_noh
$LN16@Insert_noh:
  00073	8b 40 08	 mov	 eax, DWORD PTR [eax+8]
$LN17@Insert_noh:

; 1776 : 
; 1777 : 		while (!this->_Isnil(_Trynode))

  00076	80 78 0d 00	 cmp	 BYTE PTR [eax+13], 0
  0007a	74 d8		 je	 SHORT $LL2@Insert_noh
  0007c	8b 4d e4	 mov	 ecx, DWORD PTR tv702[ebp]
$LN3@Insert_noh:

; 1789 : 				: this->_Right(_Trynode);
; 1790 : 			}
; 1791 : 
; 1792 : 		if (this->_Multi)
; 1793 : 			return (_Pairib(_Insert_at(_Addleft, _Wherenode,
; 1794 : 				_STD forward<_Valty>(_Val), _Newnode), true));
; 1795 : 		else
; 1796 : 			{	// insert only if unique
; 1797 : 			iterator _Where = iterator(_Wherenode, &this->_Get_data());

  0007f	8b f7		 mov	 esi, edi
  00081	89 75 0c	 mov	 DWORD PTR __Where$4[ebp], esi

; 1798 : 			if (!_Addleft)

  00084	84 d2		 test	 dl, dl
  00086	74 41		 je	 SHORT $LN12@Insert_noh

; 1799 : 				;	// need to test if insert after is okay
; 1800 : 			else if (_Where == begin())

  00088	3b 39		 cmp	 edi, DWORD PTR [ecx]
  0008a	75 32		 jne	 SHORT $LN11@Insert_noh

; 1801 : 				return (_Pairib(_Insert_at(true, _Wherenode,

  0008c	ff 75 14	 push	 DWORD PTR __Newnode$[ebp]
  0008f	53		 push	 ebx
  00090	57		 push	 edi
  00091	6a 01		 push	 1
$LN331@Insert_noh:
  00093	8b 4d e8	 mov	 ecx, DWORD PTR _this$1$[ebp]
  00096	8d 45 0c	 lea	 eax, DWORD PTR $T3[ebp]
  00099	50		 push	 eax
  0009a	e8 00 00 00 00	 call	 ??$_Insert_at@AAU?$pair@$$CBHPAX@std@@PAU?$_Tree_node@U?$pair@$$CBHPAX@std@@PAX@2@@?$_Tree@V?$_Tmap_traits@HPAXU?$less@H@std@@V?$allocator@U?$pair@$$CBHPAX@std@@@2@$0A@@std@@@std@@IAE?AV?$_Tree_iterator@V?$_Tree_val@U?$_Tree_simple_types@U?$pair@$$CBHPAX@std@@@std@@@std@@@1@_NPAU?$_Tree_node@U?$pair@$$CBHPAX@std@@PAX@1@AAU?$pair@$$CBHPAX@1@1@Z ; std::_Tree<std::_Tmap_traits<int,void *,std::less<int>,std::allocator<std::pair<int const ,void *> >,0> >::_Insert_at<std::pair<int const ,void *> &,std::_Tree_node<std::pair<int const ,void *>,void *> *>
  0009f	8b 08		 mov	 ecx, DWORD PTR [eax]
  000a1	8b 45 08	 mov	 eax, DWORD PTR ___$ReturnUdt$[ebp]
  000a4	89 08		 mov	 DWORD PTR [eax], ecx
  000a6	c6 40 04 01	 mov	 BYTE PTR [eax+4], 1

; 1820 : 		_CATCH_END
; 1821 : 		}

  000aa	8b 4d f4	 mov	 ecx, DWORD PTR __$EHRec$[ebp+4]
  000ad	64 89 0d 00 00
	00 00		 mov	 DWORD PTR fs:0, ecx
  000b4	59		 pop	 ecx
  000b5	5f		 pop	 edi
  000b6	5e		 pop	 esi
  000b7	5b		 pop	 ebx
  000b8	8b e5		 mov	 esp, ebp
  000ba	5d		 pop	 ebp
  000bb	c2 10 00	 ret	 16			; 00000010H
$LN11@Insert_noh:

; 1802 : 					_STD forward<_Valty>(_Val), _Newnode), true));
; 1803 : 			else
; 1804 : 				--_Where;	// need to test if insert before is okay

  000be	8d 4d 0c	 lea	 ecx, DWORD PTR __Where$4[ebp]
  000c1	e8 00 00 00 00	 call	 ??F?$_Tree_unchecked_const_iterator@V?$_Tree_val@U?$_Tree_simple_types@U?$pair@$$CBHPAX@std@@@std@@@std@@U_Iterator_base0@2@@std@@QAEAAV01@XZ ; std::_Tree_unchecked_const_iterator<std::_Tree_val<std::_Tree_simple_types<std::pair<int const ,void *> > >,std::_Iterator_base0>::operator--
  000c6	8b 75 0c	 mov	 esi, DWORD PTR __Where$4[ebp]
$LN12@Insert_noh:

; 1805 : 
; 1806 : 			if (_DEBUG_LT_PRED(this->_Getcomp(),

  000c9	8b 46 10	 mov	 eax, DWORD PTR [esi+16]

; 1807 : 				this->_Key(_Where._Mynode()),
; 1808 : 				this->_Kfn(_Val)))
; 1809 : 				return (_Pairib(_Insert_at(_Addleft, _Wherenode,

  000cc	ff 75 14	 push	 DWORD PTR __Newnode$[ebp]
  000cf	3b 03		 cmp	 eax, DWORD PTR [ebx]
  000d1	7d 1b		 jge	 SHORT $LN13@Insert_noh
  000d3	53		 push	 ebx
  000d4	57		 push	 edi
  000d5	ff 75 ec	 push	 DWORD PTR __Addleft$2[ebp]
  000d8	eb b9		 jmp	 SHORT $LN331@Insert_noh
__catch$??$_Insert_nohint@AAU?$pair@$$CBHPAX@std@@PAU?$_Tree_node@U?$pair@$$CBHPAX@std@@PAX@2@@?$_Tree@V?$_Tmap_traits@HPAXU?$less@H@std@@V?$allocator@U?$pair@$$CBHPAX@std@@@2@$0A@@std@@@std@@IAE?AU?$pair@V?$_Tree_iterator@V?$_Tree_val@U?$_Tree_simple_types@U?$pair@$$CBHPAX@std@@@std@@@std@@@std@@_N@1@_NAAU?$pair@$$CBHPAX@1@PAU?$_Tree_node@U?$pair@$$CBHPAX@std@@PAX@1@@Z$0:

; 1815 : 				}
; 1816 : 			}
; 1817 : 		_CATCH_ALL
; 1818 : 		_Destroy_if_not_nil(_Newnode);

  000da	ff 75 14	 push	 DWORD PTR __Newnode$[ebp]
  000dd	e8 00 00 00 00	 call	 ??3@YAXPAX@Z		; operator delete
  000e2	83 c4 04	 add	 esp, 4

; 1819 : 		_RERAISE;

  000e5	6a 00		 push	 0
  000e7	6a 00		 push	 0
  000e9	e8 00 00 00 00	 call	 __CxxThrowException@8
$LN332@Insert_noh:
$LN13@Insert_noh:

; 1810 : 					_STD forward<_Valty>(_Val), _Newnode), true));
; 1811 : 			else
; 1812 : 				{	// duplicate, don't insert
; 1813 : 				_Destroy_if_not_nil(_Newnode);

  000ee	e8 00 00 00 00	 call	 ??3@YAXPAX@Z		; operator delete

; 1814 : 				return (_Pairib(_Where, false));

  000f3	8b 45 08	 mov	 eax, DWORD PTR ___$ReturnUdt$[ebp]
  000f6	83 c4 04	 add	 esp, 4
  000f9	89 30		 mov	 DWORD PTR [eax], esi
  000fb	c6 40 04 00	 mov	 BYTE PTR [eax+4], 0

; 1820 : 		_CATCH_END
; 1821 : 		}

  000ff	8b 4d f4	 mov	 ecx, DWORD PTR __$EHRec$[ebp+4]
  00102	64 89 0d 00 00
	00 00		 mov	 DWORD PTR fs:0, ecx
  00109	59		 pop	 ecx
  0010a	5f		 pop	 edi
  0010b	5e		 pop	 esi
  0010c	5b		 pop	 ebx
  0010d	8b e5		 mov	 esp, ebp
  0010f	5d		 pop	 ebp
  00110	c2 10 00	 ret	 16			; 00000010H
$LN329@Insert_noh:
_TEXT	ENDS
;	COMDAT text$x
text$x	SEGMENT
__ehhandler$??$_Insert_nohint@AAU?$pair@$$CBHPAX@std@@PAU?$_Tree_node@U?$pair@$$CBHPAX@std@@PAX@2@@?$_Tree@V?$_Tmap_traits@HPAXU?$less@H@std@@V?$allocator@U?$pair@$$CBHPAX@std@@@2@$0A@@std@@@std@@IAE?AU?$pair@V?$_Tree_iterator@V?$_Tree_val@U?$_Tree_simple_types@U?$pair@$$CBHPAX@std@@@std@@@std@@@std@@_N@1@_NAAU?$pair@$$CBHPAX@1@PAU?$_Tree_node@U?$pair@$$CBHPAX@std@@PAX@1@@Z:
  00000	8b 54 24 08	 mov	 edx, DWORD PTR [esp+8]
  00004	8d 42 0c	 lea	 eax, DWORD PTR [edx+12]
  00007	8b 4a e0	 mov	 ecx, DWORD PTR [edx-32]
  0000a	33 c8		 xor	 ecx, eax
  0000c	e8 00 00 00 00	 call	 @__security_check_cookie@4
  00011	b8 00 00 00 00	 mov	 eax, OFFSET __ehfuncinfo$??$_Insert_nohint@AAU?$pair@$$CBHPAX@std@@PAU?$_Tree_node@U?$pair@$$CBHPAX@std@@PAX@2@@?$_Tree@V?$_Tmap_traits@HPAXU?$less@H@std@@V?$allocator@U?$pair@$$CBHPAX@std@@@2@$0A@@std@@@std@@IAE?AU?$pair@V?$_Tree_iterator@V?$_Tree_val@U?$_Tree_simple_types@U?$pair@$$CBHPAX@std@@@std@@@std@@@std@@_N@1@_NAAU?$pair@$$CBHPAX@1@PAU?$_Tree_node@U?$pair@$$CBHPAX@std@@PAX@1@@Z
  00016	e9 00 00 00 00	 jmp	 ___CxxFrameHandler3
text$x	ENDS
??$_Insert_nohint@AAU?$pair@$$CBHPAX@std@@PAU?$_Tree_node@U?$pair@$$CBHPAX@std@@PAX@2@@?$_Tree@V?$_Tmap_traits@HPAXU?$less@H@std@@V?$allocator@U?$pair@$$CBHPAX@std@@@2@$0A@@std@@@std@@IAE?AU?$pair@V?$_Tree_iterator@V?$_Tree_val@U?$_Tree_simple_types@U?$pair@$$CBHPAX@std@@@std@@@std@@@std@@_N@1@_NAAU?$pair@$$CBHPAX@1@PAU?$_Tree_node@U?$pair@$$CBHPAX@std@@PAX@1@@Z ENDP ; std::_Tree<std::_Tmap_traits<int,void *,std::less<int>,std::allocator<std::pair<int const ,void *> >,0> >::_Insert_nohint<std::pair<int const ,void *> &,std::_Tree_node<std::pair<int const ,void *>,void *> *>
; Function compile flags: /Ogtp
; File c:\program files (x86)\microsoft visual studio 14.0\vc\include\xtree
;	COMDAT ??$_Insert_at@AAU?$pair@$$CBHPAX@std@@PAU?$_Tree_node@U?$pair@$$CBHPAX@std@@PAX@2@@?$_Tree@V?$_Tmap_traits@HPAXU?$less@H@std@@V?$allocator@U?$pair@$$CBHPAX@std@@@2@$0A@@std@@@std@@IAE?AV?$_Tree_iterator@V?$_Tree_val@U?$_Tree_simple_types@U?$pair@$$CBHPAX@std@@@std@@@std@@@1@_NPAU?$_Tree_node@U?$pair@$$CBHPAX@std@@PAX@1@AAU?$pair@$$CBHPAX@1@1@Z
_TEXT	SEGMENT
___$ReturnUdt$ = 8					; size = 4
__Addleft$ = 12						; size = 1
__Wherenode$ = 16					; size = 4
__Val$ = 20						; size = 4
__Node$ = 24						; size = 4
??$_Insert_at@AAU?$pair@$$CBHPAX@std@@PAU?$_Tree_node@U?$pair@$$CBHPAX@std@@PAX@2@@?$_Tree@V?$_Tmap_traits@HPAXU?$less@H@std@@V?$allocator@U?$pair@$$CBHPAX@std@@@2@$0A@@std@@@std@@IAE?AV?$_Tree_iterator@V?$_Tree_val@U?$_Tree_simple_types@U?$pair@$$CBHPAX@std@@@std@@@std@@@1@_NPAU?$_Tree_node@U?$pair@$$CBHPAX@std@@PAX@1@AAU?$pair@$$CBHPAX@1@1@Z PROC ; std::_Tree<std::_Tmap_traits<int,void *,std::less<int>,std::allocator<std::pair<int const ,void *> >,0> >::_Insert_at<std::pair<int const ,void *> &,std::_Tree_node<std::pair<int const ,void *>,void *> *>, COMDAT
; _this$ = ecx

; 1827 : 		{	// add node with value next to _Wherenode, to left if _Addleft

  00000	55		 push	 ebp
  00001	8b ec		 mov	 ebp, esp
  00003	53		 push	 ebx
  00004	56		 push	 esi
  00005	57		 push	 edi
  00006	8b f9		 mov	 edi, ecx

; 1828 : 		if (max_size() - 1 <= this->_Mysize())

  00008	8b 47 04	 mov	 eax, DWORD PTR [edi+4]
  0000b	3d a9 aa aa 0a	 cmp	 eax, 178956969		; 0aaaaaa9H
  00010	0f 83 6e 01 00
	00		 jae	 $LN727@Insert_at

; 1832 : 			}
; 1833 : 		_Nodeptr _Newnode = _Buynode_if_nil(_Node,
; 1834 : 			_STD forward<_Valty>(_Val));
; 1835 : 
; 1836 : 		++this->_Mysize();
; 1837 : 		_Newnode->_Parent = _Wherenode;

  00016	8b 5d 18	 mov	 ebx, DWORD PTR __Node$[ebp]
  00019	40		 inc	 eax
  0001a	89 47 04	 mov	 DWORD PTR [edi+4], eax
  0001d	8b 45 10	 mov	 eax, DWORD PTR __Wherenode$[ebp]
  00020	89 43 04	 mov	 DWORD PTR [ebx+4], eax

; 1838 : 
; 1839 : 		if (_Wherenode == this->_Myhead())

  00023	8b 0f		 mov	 ecx, DWORD PTR [edi]
  00025	3b c1		 cmp	 eax, ecx
  00027	75 0e		 jne	 SHORT $LN6@Insert_at

; 1840 : 			{	// first node in tree, just set head values
; 1841 : 			_Root() = _Newnode;

  00029	89 59 04	 mov	 DWORD PTR [ecx+4], ebx

; 1842 : 			_Lmost() = _Newnode;

  0002c	8b 07		 mov	 eax, DWORD PTR [edi]
  0002e	89 18		 mov	 DWORD PTR [eax], ebx

; 1843 : 			_Rmost() = _Newnode;

  00030	8b 07		 mov	 eax, DWORD PTR [edi]
  00032	89 58 08	 mov	 DWORD PTR [eax+8], ebx
  00035	eb 1f		 jmp	 SHORT $LN11@Insert_at
$LN6@Insert_at:

; 1844 : 			}
; 1845 : 		else if (_Addleft)

  00037	80 7d 0c 00	 cmp	 BYTE PTR __Addleft$[ebp], 0
  0003b	74 0c		 je	 SHORT $LN8@Insert_at

; 1846 : 			{	// add to left of _Wherenode
; 1847 : 			this->_Left(_Wherenode) = _Newnode;

  0003d	89 18		 mov	 DWORD PTR [eax], ebx

; 1848 : 			if (_Wherenode == _Lmost())

  0003f	8b 0f		 mov	 ecx, DWORD PTR [edi]
  00041	3b 01		 cmp	 eax, DWORD PTR [ecx]
  00043	75 11		 jne	 SHORT $LN11@Insert_at

; 1849 : 				_Lmost() = _Newnode;

  00045	89 19		 mov	 DWORD PTR [ecx], ebx

; 1850 : 			}
; 1851 : 		else

  00047	eb 0d		 jmp	 SHORT $LN11@Insert_at
$LN8@Insert_at:

; 1852 : 			{	// add to right of _Wherenode
; 1853 : 			this->_Right(_Wherenode) = _Newnode;

  00049	89 58 08	 mov	 DWORD PTR [eax+8], ebx

; 1854 : 			if (_Wherenode == _Rmost())

  0004c	8b 0f		 mov	 ecx, DWORD PTR [edi]
  0004e	3b 41 08	 cmp	 eax, DWORD PTR [ecx+8]
  00051	75 03		 jne	 SHORT $LN11@Insert_at

; 1855 : 				_Rmost() = _Newnode;

  00053	89 59 08	 mov	 DWORD PTR [ecx+8], ebx
$LN11@Insert_at:

; 1856 : 			}
; 1857 : 
; 1858 : 		for (_Nodeptr _Pnode = _Newnode;
; 1859 : 			this->_Color(this->_Parent(_Pnode)) == this->_Red; )

  00056	8b 43 04	 mov	 eax, DWORD PTR [ebx+4]
  00059	8b f3		 mov	 esi, ebx
  0005b	80 78 0c 00	 cmp	 BYTE PTR [eax+12], 0
  0005f	0f 85 0a 01 00
	00		 jne	 $LN3@Insert_at
$LL2@Insert_at:

; 1860 : 			if (this->_Parent(_Pnode)
; 1861 : 				== this->_Left(this->_Parent(this->_Parent(_Pnode))))

  00065	8b 46 04	 mov	 eax, DWORD PTR [esi+4]
  00068	8b 50 04	 mov	 edx, DWORD PTR [eax+4]
  0006b	8b 0a		 mov	 ecx, DWORD PTR [edx]
  0006d	3b c1		 cmp	 eax, ecx
  0006f	75 74		 jne	 SHORT $LN12@Insert_at

; 1862 : 				{	// fixup red-red in left subtree
; 1863 : 				_Wherenode =

  00071	8b 4a 08	 mov	 ecx, DWORD PTR [edx+8]

; 1864 : 					this->_Right(this->_Parent(this->_Parent(_Pnode)));
; 1865 : 				if (this->_Color(_Wherenode) == this->_Red)

  00074	80 79 0c 00	 cmp	 BYTE PTR [ecx+12], 0
  00078	74 71		 je	 SHORT $LN726@Insert_at

; 1866 : 					{	// parent has two red children, blacken both
; 1867 : 					this->_Color(this->_Parent(_Pnode)) = this->_Black;
; 1868 : 					this->_Color(_Wherenode) = this->_Black;
; 1869 : 					this->_Color(this->_Parent(this->_Parent(_Pnode)))
; 1870 : 						= this->_Red;
; 1871 : 					_Pnode = this->_Parent(this->_Parent(_Pnode));
; 1872 : 					}
; 1873 : 				else
; 1874 : 					{	// parent has red and black children
; 1875 : 					if (_Pnode == this->_Right(this->_Parent(_Pnode)))

  0007a	3b 70 08	 cmp	 esi, DWORD PTR [eax+8]
  0007d	75 0a		 jne	 SHORT $LN16@Insert_at

; 1876 : 						{	// rotate right child to left
; 1877 : 						_Pnode = this->_Parent(_Pnode);

  0007f	8b f0		 mov	 esi, eax

; 1878 : 						_Lrotate(_Pnode);

  00081	8b cf		 mov	 ecx, edi
  00083	56		 push	 esi
  00084	e8 00 00 00 00	 call	 ?_Lrotate@?$_Tree@V?$_Tmap_traits@HPAXU?$less@H@std@@V?$allocator@U?$pair@$$CBHPAX@std@@@2@$0A@@std@@@std@@IAEXPAU?$_Tree_node@U?$pair@$$CBHPAX@std@@PAX@2@@Z ; std::_Tree<std::_Tmap_traits<int,void *,std::less<int>,std::allocator<std::pair<int const ,void *> >,0> >::_Lrotate
$LN16@Insert_at:

; 1879 : 						}
; 1880 : 					this->_Color(this->_Parent(_Pnode)) =

  00089	8b 46 04	 mov	 eax, DWORD PTR [esi+4]
  0008c	c6 40 0c 01	 mov	 BYTE PTR [eax+12], 1

; 1881 : 						this->_Black;	// propagate red up
; 1882 : 					this->_Color(this->_Parent(this->_Parent(_Pnode))) =

  00090	8b 46 04	 mov	 eax, DWORD PTR [esi+4]
  00093	8b 40 04	 mov	 eax, DWORD PTR [eax+4]
  00096	c6 40 0c 00	 mov	 BYTE PTR [eax+12], 0

; 1883 : 						this->_Red;
; 1884 : 					_Rrotate(this->_Parent(this->_Parent(_Pnode)));

  0009a	8b 46 04	 mov	 eax, DWORD PTR [esi+4]
  0009d	8b 48 04	 mov	 ecx, DWORD PTR [eax+4]
  000a0	8b 11		 mov	 edx, DWORD PTR [ecx]
  000a2	8b 42 08	 mov	 eax, DWORD PTR [edx+8]
  000a5	89 01		 mov	 DWORD PTR [ecx], eax
  000a7	8b 42 08	 mov	 eax, DWORD PTR [edx+8]
  000aa	80 78 0d 00	 cmp	 BYTE PTR [eax+13], 0
  000ae	75 03		 jne	 SHORT $LN373@Insert_at
  000b0	89 48 04	 mov	 DWORD PTR [eax+4], ecx
$LN373@Insert_at:
  000b3	8b 41 04	 mov	 eax, DWORD PTR [ecx+4]
  000b6	89 42 04	 mov	 DWORD PTR [edx+4], eax
  000b9	8b 07		 mov	 eax, DWORD PTR [edi]
  000bb	3b 48 04	 cmp	 ecx, DWORD PTR [eax+4]
  000be	75 0b		 jne	 SHORT $LN374@Insert_at
  000c0	89 50 04	 mov	 DWORD PTR [eax+4], edx
  000c3	89 4a 08	 mov	 DWORD PTR [edx+8], ecx

; 1885 : 					}
; 1886 : 				}
; 1887 : 			else

  000c6	e9 94 00 00 00	 jmp	 $LN725@Insert_at

; 1883 : 						this->_Red;
; 1884 : 					_Rrotate(this->_Parent(this->_Parent(_Pnode)));

$LN374@Insert_at:
  000cb	8b 41 04	 mov	 eax, DWORD PTR [ecx+4]
  000ce	3b 48 08	 cmp	 ecx, DWORD PTR [eax+8]
  000d1	75 0b		 jne	 SHORT $LN376@Insert_at
  000d3	89 50 08	 mov	 DWORD PTR [eax+8], edx
  000d6	89 4a 08	 mov	 DWORD PTR [edx+8], ecx

; 1885 : 					}
; 1886 : 				}
; 1887 : 			else

  000d9	e9 81 00 00 00	 jmp	 $LN725@Insert_at

; 1883 : 						this->_Red;
; 1884 : 					_Rrotate(this->_Parent(this->_Parent(_Pnode)));

$LN376@Insert_at:
  000de	89 10		 mov	 DWORD PTR [eax], edx
  000e0	89 4a 08	 mov	 DWORD PTR [edx+8], ecx

; 1885 : 					}
; 1886 : 				}
; 1887 : 			else

  000e3	eb 7a		 jmp	 SHORT $LN725@Insert_at
$LN12@Insert_at:

; 1888 : 				{	// fixup red-red in right subtree
; 1889 : 				_Wherenode =
; 1890 : 					this->_Left(this->_Parent(this->_Parent(_Pnode)));
; 1891 : 				if (this->_Color(_Wherenode) == this->_Red)

  000e5	80 79 0c 00	 cmp	 BYTE PTR [ecx+12], 0
  000e9	75 1a		 jne	 SHORT $LN17@Insert_at
$LN726@Insert_at:

; 1892 : 					{	// parent has two red children, blacken both
; 1893 : 					this->_Color(this->_Parent(_Pnode)) = this->_Black;

  000eb	c6 40 0c 01	 mov	 BYTE PTR [eax+12], 1

; 1894 : 					this->_Color(_Wherenode) = this->_Black;

  000ef	c6 41 0c 01	 mov	 BYTE PTR [ecx+12], 1

; 1895 : 					this->_Color(this->_Parent(this->_Parent(_Pnode))) =

  000f3	8b 46 04	 mov	 eax, DWORD PTR [esi+4]
  000f6	8b 40 04	 mov	 eax, DWORD PTR [eax+4]
  000f9	c6 40 0c 00	 mov	 BYTE PTR [eax+12], 0

; 1896 : 						this->_Red;
; 1897 : 					_Pnode = this->_Parent(this->_Parent(_Pnode));

  000fd	8b 46 04	 mov	 eax, DWORD PTR [esi+4]
  00100	8b 70 04	 mov	 esi, DWORD PTR [eax+4]

; 1898 : 					}
; 1899 : 				else

  00103	eb 5d		 jmp	 SHORT $LN18@Insert_at
$LN17@Insert_at:

; 1900 : 					{	// parent has red and black children
; 1901 : 					if (_Pnode == this->_Left(this->_Parent(_Pnode)))

  00105	3b 30		 cmp	 esi, DWORD PTR [eax]
  00107	75 0a		 jne	 SHORT $LN19@Insert_at

; 1902 : 						{	// rotate left child to right
; 1903 : 						_Pnode = this->_Parent(_Pnode);

  00109	8b f0		 mov	 esi, eax

; 1904 : 						_Rrotate(_Pnode);

  0010b	8b cf		 mov	 ecx, edi
  0010d	56		 push	 esi
  0010e	e8 00 00 00 00	 call	 ?_Rrotate@?$_Tree@V?$_Tmap_traits@HPAXU?$less@H@std@@V?$allocator@U?$pair@$$CBHPAX@std@@@2@$0A@@std@@@std@@IAEXPAU?$_Tree_node@U?$pair@$$CBHPAX@std@@PAX@2@@Z ; std::_Tree<std::_Tmap_traits<int,void *,std::less<int>,std::allocator<std::pair<int const ,void *> >,0> >::_Rrotate
$LN19@Insert_at:

; 1905 : 						}
; 1906 : 					this->_Color(this->_Parent(_Pnode)) =

  00113	8b 46 04	 mov	 eax, DWORD PTR [esi+4]
  00116	c6 40 0c 01	 mov	 BYTE PTR [eax+12], 1

; 1907 : 						this->_Black;	// propagate red up
; 1908 : 					this->_Color(this->_Parent(this->_Parent(_Pnode))) =

  0011a	8b 46 04	 mov	 eax, DWORD PTR [esi+4]
  0011d	8b 40 04	 mov	 eax, DWORD PTR [eax+4]
  00120	c6 40 0c 00	 mov	 BYTE PTR [eax+12], 0

; 1909 : 						this->_Red;
; 1910 : 					_Lrotate(this->_Parent(this->_Parent(_Pnode)));

  00124	8b 46 04	 mov	 eax, DWORD PTR [esi+4]
  00127	8b 48 04	 mov	 ecx, DWORD PTR [eax+4]
  0012a	8b 51 08	 mov	 edx, DWORD PTR [ecx+8]
  0012d	8b 02		 mov	 eax, DWORD PTR [edx]
  0012f	89 41 08	 mov	 DWORD PTR [ecx+8], eax
  00132	8b 02		 mov	 eax, DWORD PTR [edx]
  00134	80 78 0d 00	 cmp	 BYTE PTR [eax+13], 0
  00138	75 03		 jne	 SHORT $LN572@Insert_at
  0013a	89 48 04	 mov	 DWORD PTR [eax+4], ecx
$LN572@Insert_at:
  0013d	8b 41 04	 mov	 eax, DWORD PTR [ecx+4]
  00140	89 42 04	 mov	 DWORD PTR [edx+4], eax
  00143	8b 07		 mov	 eax, DWORD PTR [edi]
  00145	3b 48 04	 cmp	 ecx, DWORD PTR [eax+4]
  00148	75 05		 jne	 SHORT $LN573@Insert_at
  0014a	89 50 04	 mov	 DWORD PTR [eax+4], edx
  0014d	eb 0e		 jmp	 SHORT $LN576@Insert_at
$LN573@Insert_at:
  0014f	8b 41 04	 mov	 eax, DWORD PTR [ecx+4]
  00152	3b 08		 cmp	 ecx, DWORD PTR [eax]
  00154	75 04		 jne	 SHORT $LN575@Insert_at
  00156	89 10		 mov	 DWORD PTR [eax], edx
  00158	eb 03		 jmp	 SHORT $LN576@Insert_at
$LN575@Insert_at:
  0015a	89 50 08	 mov	 DWORD PTR [eax+8], edx
$LN576@Insert_at:
  0015d	89 0a		 mov	 DWORD PTR [edx], ecx
$LN725@Insert_at:
  0015f	89 51 04	 mov	 DWORD PTR [ecx+4], edx
$LN18@Insert_at:

; 1856 : 			}
; 1857 : 
; 1858 : 		for (_Nodeptr _Pnode = _Newnode;
; 1859 : 			this->_Color(this->_Parent(_Pnode)) == this->_Red; )

  00162	8b 46 04	 mov	 eax, DWORD PTR [esi+4]
  00165	80 78 0c 00	 cmp	 BYTE PTR [eax+12], 0
  00169	0f 84 f6 fe ff
	ff		 je	 $LL2@Insert_at
$LN3@Insert_at:

; 1911 : 					}
; 1912 : 				}
; 1913 : 
; 1914 : 		this->_Color(_Root()) = this->_Black;	// root is always black

  0016f	8b 07		 mov	 eax, DWORD PTR [edi]
  00171	5f		 pop	 edi
  00172	5e		 pop	 esi
  00173	8b 40 04	 mov	 eax, DWORD PTR [eax+4]
  00176	c6 40 0c 01	 mov	 BYTE PTR [eax+12], 1

; 1915 : 		return (iterator(_Newnode, &this->_Get_data()));

  0017a	8b 45 08	 mov	 eax, DWORD PTR ___$ReturnUdt$[ebp]
  0017d	89 18		 mov	 DWORD PTR [eax], ebx
  0017f	5b		 pop	 ebx

; 1916 : 		}

  00180	5d		 pop	 ebp
  00181	c2 14 00	 ret	 20			; 00000014H
$LN727@Insert_at:

; 1829 : 			{	// tree would get too big, fail
; 1830 : 			_Destroy_if_not_nil(_Node);

  00184	ff 75 18	 push	 DWORD PTR __Node$[ebp]
  00187	e8 00 00 00 00	 call	 ??3@YAXPAX@Z		; operator delete
  0018c	83 c4 04	 add	 esp, 4

; 1831 : 			_Xlength_error("map/set<T> too long");

  0018f	68 00 00 00 00	 push	 OFFSET ??_C@_0BE@JONHPENG@map?1set?$DMT?$DO?5too?5long?$AA@
  00194	e8 00 00 00 00	 call	 ?_Xlength_error@std@@YAXPBD@Z ; std::_Xlength_error
$LN729@Insert_at:
$LN724@Insert_at:
  00199	cc		 int	 3
??$_Insert_at@AAU?$pair@$$CBHPAX@std@@PAU?$_Tree_node@U?$pair@$$CBHPAX@std@@PAX@2@@?$_Tree@V?$_Tmap_traits@HPAXU?$less@H@std@@V?$allocator@U?$pair@$$CBHPAX@std@@@2@$0A@@std@@@std@@IAE?AV?$_Tree_iterator@V?$_Tree_val@U?$_Tree_simple_types@U?$pair@$$CBHPAX@std@@@std@@@std@@@1@_NPAU?$_Tree_node@U?$pair@$$CBHPAX@std@@PAX@1@AAU?$pair@$$CBHPAX@1@1@Z ENDP ; std::_Tree<std::_Tmap_traits<int,void *,std::less<int>,std::allocator<std::pair<int const ,void *> >,0> >::_Insert_at<std::pair<int const ,void *> &,std::_Tree_node<std::pair<int const ,void *>,void *> *>
_TEXT	ENDS
; Function compile flags: /Ogtp
; File c:\program files (x86)\microsoft visual studio 14.0\vc\include\type_traits
;	COMDAT ??$forward@AAU?$pair@$$CBHPAX@std@@@std@@YAAAU?$pair@$$CBHPAX@0@AAU10@@Z
_TEXT	SEGMENT
__Arg$ = 8						; size = 4
??$forward@AAU?$pair@$$CBHPAX@std@@@std@@YAAAU?$pair@$$CBHPAX@0@AAU10@@Z PROC ; std::forward<std::pair<int const ,void *> &>, COMDAT

; 1275 : 	{	// forward an lvalue as either an lvalue or an rvalue

  00000	55		 push	 ebp
  00001	8b ec		 mov	 ebp, esp

; 1276 : 	return (static_cast<_Ty&&>(_Arg));

  00003	8b 45 08	 mov	 eax, DWORD PTR __Arg$[ebp]

; 1277 : 	}

  00006	5d		 pop	 ebp
  00007	c3		 ret	 0
??$forward@AAU?$pair@$$CBHPAX@std@@@std@@YAAAU?$pair@$$CBHPAX@0@AAU10@@Z ENDP ; std::forward<std::pair<int const ,void *> &>
_TEXT	ENDS
; Function compile flags: /Ogtp
; File c:\program files (x86)\microsoft visual studio 14.0\vc\include\xmemory0
;	COMDAT ??$construct@U?$pair@$$CBHPAX@std@@ABUpiecewise_construct_t@2@V?$tuple@ABH@2@V?$tuple@$$V@2@@?$_Wrap_alloc@V?$allocator@U?$_Tree_node@U?$pair@$$CBHPAX@std@@PAX@std@@@std@@@std@@QAEXPAU?$pair@$$CBHPAX@1@ABUpiecewise_construct_t@1@$$QAV?$tuple@ABH@1@$$QAV?$tuple@$$V@1@@Z
_TEXT	SEGMENT
__Ptr$ = 8						; size = 4
_<_Args_0>$ = 12					; size = 4
_<_Args_1>$ = 16					; size = 4
_<_Args_2>$ = 20					; size = 4
??$construct@U?$pair@$$CBHPAX@std@@ABUpiecewise_construct_t@2@V?$tuple@ABH@2@V?$tuple@$$V@2@@?$_Wrap_alloc@V?$allocator@U?$_Tree_node@U?$pair@$$CBHPAX@std@@PAX@std@@@std@@@std@@QAEXPAU?$pair@$$CBHPAX@1@ABUpiecewise_construct_t@1@$$QAV?$tuple@ABH@1@$$QAV?$tuple@$$V@1@@Z PROC ; std::_Wrap_alloc<std::allocator<std::_Tree_node<std::pair<int const ,void *>,void *> > >::construct<std::pair<int const ,void *>,std::piecewise_construct_t const &,std::tuple<int const &>,std::tuple<> >, COMDAT
; _this$ = ecx

; 994  : 		{	// construct _Ty(_Types...) at _Ptr

  00000	55		 push	 ebp
  00001	8b ec		 mov	 ebp, esp

; 995  : 		_Mytraits::construct(*this, _Ptr,

  00003	8b 4d 08	 mov	 ecx, DWORD PTR __Ptr$[ebp]
  00006	85 c9		 test	 ecx, ecx
  00008	74 10		 je	 SHORT $LN25@construct
  0000a	8b 45 10	 mov	 eax, DWORD PTR _<_Args_1>$[ebp]
  0000d	8b 00		 mov	 eax, DWORD PTR [eax]
  0000f	8b 00		 mov	 eax, DWORD PTR [eax]
  00011	89 01		 mov	 DWORD PTR [ecx], eax
  00013	c7 41 04 00 00
	00 00		 mov	 DWORD PTR [ecx+4], 0
$LN25@construct:

; 996  : 			_STD forward<_Types>(_Args)...);
; 997  : 		}

  0001a	5d		 pop	 ebp
  0001b	c2 10 00	 ret	 16			; 00000010H
??$construct@U?$pair@$$CBHPAX@std@@ABUpiecewise_construct_t@2@V?$tuple@ABH@2@V?$tuple@$$V@2@@?$_Wrap_alloc@V?$allocator@U?$_Tree_node@U?$pair@$$CBHPAX@std@@PAX@std@@@std@@@std@@QAEXPAU?$pair@$$CBHPAX@1@ABUpiecewise_construct_t@1@$$QAV?$tuple@ABH@1@$$QAV?$tuple@$$V@1@@Z ENDP ; std::_Wrap_alloc<std::allocator<std::_Tree_node<std::pair<int const ,void *>,void *> > >::construct<std::pair<int const ,void *>,std::piecewise_construct_t const &,std::tuple<int const &>,std::tuple<> >
_TEXT	ENDS
; Function compile flags: /Ogtp
; File c:\program files (x86)\microsoft visual studio 14.0\vc\include\tuple
;	COMDAT ??$?0ABH@?$_Tuple_val@ABH@std@@QAE@ABH@Z
_TEXT	SEGMENT
__Arg$ = 8						; size = 4
??$?0ABH@?$_Tuple_val@ABH@std@@QAE@ABH@Z PROC		; std::_Tuple_val<int const &>::_Tuple_val<int const &><int const &>, COMDAT
; _this$ = ecx

; 164  : 		{	// construct with argument

  00000	55		 push	 ebp
  00001	8b ec		 mov	 ebp, esp

; 163  : 		: _Val(_STD forward<_Other>(_Arg))

  00003	8b 45 08	 mov	 eax, DWORD PTR __Arg$[ebp]
  00006	89 01		 mov	 DWORD PTR [ecx], eax

; 165  : 		}

  00008	8b c1		 mov	 eax, ecx
  0000a	5d		 pop	 ebp
  0000b	c2 04 00	 ret	 4
??$?0ABH@?$_Tuple_val@ABH@std@@QAE@ABH@Z ENDP		; std::_Tuple_val<int const &>::_Tuple_val<int const &><int const &>
_TEXT	ENDS
; Function compile flags: /Ogtp
; File c:\program files (x86)\microsoft visual studio 14.0\vc\include\tuple
;	COMDAT ??$?0U_Exact_args_t@std@@$0A@@?$tuple@$$V@std@@QAE@U_Exact_args_t@1@@Z
_TEXT	SEGMENT
___formal$ = 8						; size = 1
??$?0U_Exact_args_t@std@@$0A@@?$tuple@$$V@std@@QAE@U_Exact_args_t@1@@Z PROC ; std::tuple<>::tuple<><std::_Exact_args_t,0>, COMDAT
; _this$ = ecx

; 256  : 		}

  00000	8b c1		 mov	 eax, ecx
  00002	c2 04 00	 ret	 4
??$?0U_Exact_args_t@std@@$0A@@?$tuple@$$V@std@@QAE@U_Exact_args_t@1@@Z ENDP ; std::tuple<>::tuple<><std::_Exact_args_t,0>
_TEXT	ENDS
; Function compile flags: /Ogtp
; File c:\program files (x86)\microsoft visual studio 14.0\vc\include\type_traits
;	COMDAT ??$forward@AAV?$_Tree_iterator@V?$_Tree_val@U?$_Tree_simple_types@U?$pair@$$CBV?$basic_string@DU?$char_traits@D@std@@V?$allocator@D@2@@std@@PAX@std@@@std@@@std@@@std@@@std@@YAAAV?$_Tree_iterator@V?$_Tree_val@U?$_Tree_simple_types@U?$pair@$$CBV?$basic_string@DU?$char_traits@D@std@@V?$allocator@D@2@@std@@PAX@std@@@std@@@std@@@0@AAV10@@Z
_TEXT	SEGMENT
__Arg$ = 8						; size = 4
??$forward@AAV?$_Tree_iterator@V?$_Tree_val@U?$_Tree_simple_types@U?$pair@$$CBV?$basic_string@DU?$char_traits@D@std@@V?$allocator@D@2@@std@@PAX@std@@@std@@@std@@@std@@@std@@YAAAV?$_Tree_iterator@V?$_Tree_val@U?$_Tree_simple_types@U?$pair@$$CBV?$basic_string@DU?$char_traits@D@std@@V?$allocator@D@2@@std@@PAX@std@@@std@@@std@@@0@AAV10@@Z PROC ; std::forward<std::_Tree_iterator<std::_Tree_val<std::_Tree_simple_types<std::pair<std::basic_string<char,std::char_traits<char>,std::allocator<char> > const ,void *> > > > &>, COMDAT

; 1275 : 	{	// forward an lvalue as either an lvalue or an rvalue

  00000	55		 push	 ebp
  00001	8b ec		 mov	 ebp, esp

; 1276 : 	return (static_cast<_Ty&&>(_Arg));

  00003	8b 45 08	 mov	 eax, DWORD PTR __Arg$[ebp]

; 1277 : 	}

  00006	5d		 pop	 ebp
  00007	c3		 ret	 0
??$forward@AAV?$_Tree_iterator@V?$_Tree_val@U?$_Tree_simple_types@U?$pair@$$CBV?$basic_string@DU?$char_traits@D@std@@V?$allocator@D@2@@std@@PAX@std@@@std@@@std@@@std@@@std@@YAAAV?$_Tree_iterator@V?$_Tree_val@U?$_Tree_simple_types@U?$pair@$$CBV?$basic_string@DU?$char_traits@D@std@@V?$allocator@D@2@@std@@PAX@std@@@std@@@std@@@0@AAV10@@Z ENDP ; std::forward<std::_Tree_iterator<std::_Tree_val<std::_Tree_simple_types<std::pair<std::basic_string<char,std::char_traits<char>,std::allocator<char> > const ,void *> > > > &>
_TEXT	ENDS
; Function compile flags: /Ogtp
; File c:\program files (x86)\microsoft visual studio 14.0\vc\include\type_traits
;	COMDAT ??$forward@V?$_Tree_iterator@V?$_Tree_val@U?$_Tree_simple_types@U?$pair@$$CBV?$basic_string@DU?$char_traits@D@std@@V?$allocator@D@2@@std@@PAX@std@@@std@@@std@@@std@@@std@@YA$$QAV?$_Tree_iterator@V?$_Tree_val@U?$_Tree_simple_types@U?$pair@$$CBV?$basic_string@DU?$char_traits@D@std@@V?$allocator@D@2@@std@@PAX@std@@@std@@@std@@@0@AAV10@@Z
_TEXT	SEGMENT
__Arg$ = 8						; size = 4
??$forward@V?$_Tree_iterator@V?$_Tree_val@U?$_Tree_simple_types@U?$pair@$$CBV?$basic_string@DU?$char_traits@D@std@@V?$allocator@D@2@@std@@PAX@std@@@std@@@std@@@std@@@std@@YA$$QAV?$_Tree_iterator@V?$_Tree_val@U?$_Tree_simple_types@U?$pair@$$CBV?$basic_string@DU?$char_traits@D@std@@V?$allocator@D@2@@std@@PAX@std@@@std@@@std@@@0@AAV10@@Z PROC ; std::forward<std::_Tree_iterator<std::_Tree_val<std::_Tree_simple_types<std::pair<std::basic_string<char,std::char_traits<char>,std::allocator<char> > const ,void *> > > > >, COMDAT

; 1275 : 	{	// forward an lvalue as either an lvalue or an rvalue

  00000	55		 push	 ebp
  00001	8b ec		 mov	 ebp, esp

; 1276 : 	return (static_cast<_Ty&&>(_Arg));

  00003	8b 45 08	 mov	 eax, DWORD PTR __Arg$[ebp]

; 1277 : 	}

  00006	5d		 pop	 ebp
  00007	c3		 ret	 0
??$forward@V?$_Tree_iterator@V?$_Tree_val@U?$_Tree_simple_types@U?$pair@$$CBV?$basic_string@DU?$char_traits@D@std@@V?$allocator@D@2@@std@@PAX@std@@@std@@@std@@@std@@@std@@YA$$QAV?$_Tree_iterator@V?$_Tree_val@U?$_Tree_simple_types@U?$pair@$$CBV?$basic_string@DU?$char_traits@D@std@@V?$allocator@D@2@@std@@PAX@std@@@std@@@std@@@0@AAV10@@Z ENDP ; std::forward<std::_Tree_iterator<std::_Tree_val<std::_Tree_simple_types<std::pair<std::basic_string<char,std::char_traits<char>,std::allocator<char> > const ,void *> > > > >
_TEXT	ENDS
; Function compile flags: /Ogtp
; File c:\program files (x86)\microsoft visual studio 14.0\vc\include\xtree
;	COMDAT ??$_Insert_hint@AAU?$pair@$$CBV?$basic_string@DU?$char_traits@D@std@@V?$allocator@D@2@@std@@PAX@std@@PAU?$_Tree_node@U?$pair@$$CBV?$basic_string@DU?$char_traits@D@std@@V?$allocator@D@2@@std@@PAX@std@@PAX@2@@?$_Tree@V?$_Tmap_traits@V?$basic_string@DU?$char_traits@D@std@@V?$allocator@D@2@@std@@PAXU?$less@V?$basic_string@DU?$char_traits@D@std@@V?$allocator@D@2@@std@@@2@V?$allocator@U?$pair@$$CBV?$basic_string@DU?$char_traits@D@std@@V?$allocator@D@2@@std@@PAX@std@@@2@$0A@@std@@@std@@IAE?AV?$_Tree_iterator@V?$_Tree_val@U?$_Tree_simple_types@U?$pair@$$CBV?$basic_string@DU?$char_traits@D@std@@V?$allocator@D@2@@std@@PAX@std@@@std@@@std@@@1@V?$_Tree_const_iterator@V?$_Tree_val@U?$_Tree_simple_types@U?$pair@$$CBV?$basic_string@DU?$char_traits@D@std@@V?$allocator@D@2@@std@@PAX@std@@@std@@@std@@@1@AAU?$pair@$$CBV?$basic_string@DU?$char_traits@D@std@@V?$allocator@D@2@@std@@PAX@1@PAU?$_Tree_node@U?$pair@$$CBV?$basic_string@DU?$char_traits@D@std@@V?$allocator@D@2@@std@@PAX@std@@PAX@1@@Z
_TEXT	SEGMENT
$T2 = -28						; size = 8
__Next$ = -24						; size = 4
_this$ = -20						; size = 4
__$EHRec$ = -16						; size = 16
___$ReturnUdt$ = 8					; size = 4
__Where$ = 12						; size = 4
__Val$ = 16						; size = 4
__Newnode$ = 20						; size = 4
??$_Insert_hint@AAU?$pair@$$CBV?$basic_string@DU?$char_traits@D@std@@V?$allocator@D@2@@std@@PAX@std@@PAU?$_Tree_node@U?$pair@$$CBV?$basic_string@DU?$char_traits@D@std@@V?$allocator@D@2@@std@@PAX@std@@PAX@2@@?$_Tree@V?$_Tmap_traits@V?$basic_string@DU?$char_traits@D@std@@V?$allocator@D@2@@std@@PAXU?$less@V?$basic_string@DU?$char_traits@D@std@@V?$allocator@D@2@@std@@@2@V?$allocator@U?$pair@$$CBV?$basic_string@DU?$char_traits@D@std@@V?$allocator@D@2@@std@@PAX@std@@@2@$0A@@std@@@std@@IAE?AV?$_Tree_iterator@V?$_Tree_val@U?$_Tree_simple_types@U?$pair@$$CBV?$basic_string@DU?$char_traits@D@std@@V?$allocator@D@2@@std@@PAX@std@@@std@@@std@@@1@V?$_Tree_const_iterator@V?$_Tree_val@U?$_Tree_simple_types@U?$pair@$$CBV?$basic_string@DU?$char_traits@D@std@@V?$allocator@D@2@@std@@PAX@std@@@std@@@std@@@1@AAU?$pair@$$CBV?$basic_string@DU?$char_traits@D@std@@V?$allocator@D@2@@std@@PAX@1@PAU?$_Tree_node@U?$pair@$$CBV?$basic_string@DU?$char_traits@D@std@@V?$allocator@D@2@@std@@PAX@std@@PAX@1@@Z PROC ; std::_Tree<std::_Tmap_traits<std::basic_string<char,std::char_traits<char>,std::allocator<char> >,void *,std::less<std::basic_string<char,std::char_traits<char>,std::allocator<char> > >,std::allocator<std::pair<std::basic_string<char,std::char_traits<char>,std::allocator<char> > const ,void *> >,0> >::_Insert_hint<std::pair<std::basic_string<char,std::char_traits<char>,std::allocator<char> > const ,void *> &,std::_Tree_node<std::pair<std::basic_string<char,std::char_traits<char>,std::allocator<char> > const ,void *>,void *> *>, COMDAT
; _this$ = ecx

; 1655 : 		{	// try to insert node using _Where as a hint

  00000	55		 push	 ebp
  00001	8b ec		 mov	 ebp, esp
  00003	6a ff		 push	 -1
  00005	68 00 00 00 00	 push	 __ehhandler$??$_Insert_hint@AAU?$pair@$$CBV?$basic_string@DU?$char_traits@D@std@@V?$allocator@D@2@@std@@PAX@std@@PAU?$_Tree_node@U?$pair@$$CBV?$basic_string@DU?$char_traits@D@std@@V?$allocator@D@2@@std@@PAX@std@@PAX@2@@?$_Tree@V?$_Tmap_traits@V?$basic_string@DU?$char_traits@D@std@@V?$allocator@D@2@@std@@PAXU?$less@V?$basic_string@DU?$char_traits@D@std@@V?$allocator@D@2@@std@@@2@V?$allocator@U?$pair@$$CBV?$basic_string@DU?$char_traits@D@std@@V?$allocator@D@2@@std@@PAX@std@@@2@$0A@@std@@@std@@IAE?AV?$_Tree_iterator@V?$_Tree_val@U?$_Tree_simple_types@U?$pair@$$CBV?$basic_string@DU?$char_traits@D@std@@V?$allocator@D@2@@std@@PAX@std@@@std@@@std@@@1@V?$_Tree_const_iterator@V?$_Tree_val@U?$_Tree_simple_types@U?$pair@$$CBV?$basic_string@DU?$char_traits@D@std@@V?$allocator@D@2@@std@@PAX@std@@@std@@@std@@@1@AAU?$pair@$$CBV?$basic_string@DU?$char_traits@D@std@@V?$allocator@D@2@@std@@PAX@1@PAU?$_Tree_node@U?$pair@$$CBV?$basic_string@DU?$char_traits@D@std@@V?$allocator@D@2@@std@@PAX@std@@PAX@1@@Z
  0000a	64 a1 00 00 00
	00		 mov	 eax, DWORD PTR fs:0
  00010	50		 push	 eax
  00011	83 ec 10	 sub	 esp, 16			; 00000010H
  00014	53		 push	 ebx
  00015	56		 push	 esi
  00016	57		 push	 edi
  00017	a1 00 00 00 00	 mov	 eax, DWORD PTR ___security_cookie
  0001c	33 c5		 xor	 eax, ebp
  0001e	50		 push	 eax
  0001f	8d 45 f4	 lea	 eax, DWORD PTR __$EHRec$[ebp+4]
  00022	64 a3 00 00 00
	00		 mov	 DWORD PTR fs:0, eax
  00028	89 65 f0	 mov	 DWORD PTR __$EHRec$[ebp], esp
  0002b	8b d9		 mov	 ebx, ecx
  0002d	89 5d ec	 mov	 DWORD PTR _this$[ebp], ebx

; 1656 : 		const_iterator _Next;
; 1657 : 		bool _Leftish = false;	// assume nearest point is end of sequence
; 1658 : 
; 1659 : 		_TRY_BEGIN
; 1660 : 
; 1661 :  #if _ITERATOR_DEBUG_LEVEL == 2
; 1662 : 		if (_Where._Getcont() != &this->_Get_data())
; 1663 : 			_DEBUG_ERROR("map/set insert iterator outside range");
; 1664 :  #endif /* _ITERATOR_DEBUG_LEVEL == 2 */
; 1665 : 
; 1666 : 		if (size() == 0)

  00030	83 7b 04 00	 cmp	 DWORD PTR [ebx+4], 0
  00034	c7 45 fc 00 00
	00 00		 mov	 DWORD PTR __$EHRec$[ebp+12], 0
  0003b	75 29		 jne	 SHORT $LN3@Insert_hin

; 1667 : 			return (_Insert_at(true, this->_Myhead(),

  0003d	ff 75 14	 push	 DWORD PTR __Newnode$[ebp]
  00040	8b 75 08	 mov	 esi, DWORD PTR ___$ReturnUdt$[ebp]
  00043	ff 75 10	 push	 DWORD PTR __Val$[ebp]
  00046	ff 33		 push	 DWORD PTR [ebx]
  00048	6a 01		 push	 1
  0004a	56		 push	 esi
  0004b	e8 00 00 00 00	 call	 ??$_Insert_at@AAU?$pair@$$CBV?$basic_string@DU?$char_traits@D@std@@V?$allocator@D@2@@std@@PAX@std@@PAU?$_Tree_node@U?$pair@$$CBV?$basic_string@DU?$char_traits@D@std@@V?$allocator@D@2@@std@@PAX@std@@PAX@2@@?$_Tree@V?$_Tmap_traits@V?$basic_string@DU?$char_traits@D@std@@V?$allocator@D@2@@std@@PAXU?$less@V?$basic_string@DU?$char_traits@D@std@@V?$allocator@D@2@@std@@@2@V?$allocator@U?$pair@$$CBV?$basic_string@DU?$char_traits@D@std@@V?$allocator@D@2@@std@@PAX@std@@@2@$0A@@std@@@std@@IAE?AV?$_Tree_iterator@V?$_Tree_val@U?$_Tree_simple_types@U?$pair@$$CBV?$basic_string@DU?$char_traits@D@std@@V?$allocator@D@2@@std@@PAX@std@@@std@@@std@@@1@_NPAU?$_Tree_node@U?$pair@$$CBV?$basic_string@DU?$char_traits@D@std@@V?$allocator@D@2@@std@@PAX@std@@PAX@1@AAU?$pair@$$CBV?$basic_string@DU?$char_traits@D@std@@V?$allocator@D@2@@std@@PAX@1@1@Z ; std::_Tree<std::_Tmap_traits<std::basic_string<char,std::char_traits<char>,std::allocator<char> >,void *,std::less<std::basic_string<char,std::char_traits<char>,std::allocator<char> > >,std::allocator<std::pair<std::basic_string<char,std::char_traits<char>,std::allocator<char> > const ,void *> >,0> >::_Insert_at<std::pair<std::basic_string<char,std::char_traits<char>,std::allocator<char> > const ,void *> &,std::_Tree_node<std::pair<std::basic_string<char,std::char_traits<char>,std::allocator<char> > const ,void *>,void *> *>
  00050	8b c6		 mov	 eax, esi

; 1764 : 			_STD forward<_Valty>(_Val), _Newnode).first);
; 1765 : 		}

  00052	8b 4d f4	 mov	 ecx, DWORD PTR __$EHRec$[ebp+4]
  00055	64 89 0d 00 00
	00 00		 mov	 DWORD PTR fs:0, ecx
  0005c	59		 pop	 ecx
  0005d	5f		 pop	 edi
  0005e	5e		 pop	 esi
  0005f	5b		 pop	 ebx
  00060	8b e5		 mov	 esp, ebp
  00062	5d		 pop	 ebp
  00063	c2 10 00	 ret	 16			; 00000010H
$LN3@Insert_hin:

; 1668 : 				_STD forward<_Valty>(_Val), _Newnode));	// empty tree
; 1669 : 		else if (this->_Multi)
; 1670 : 			{	// insert even if duplicate
; 1671 : 			if (_Where == begin())
; 1672 : 				{	// insert at beginning if before first element
; 1673 : 				if (!_DEBUG_LT_PRED(this->_Getcomp(),
; 1674 : 					this->_Key(_Where._Mynode()), this->_Kfn(_Val)))
; 1675 : 					return (_Insert_at(true, _Where._Mynode(),
; 1676 : 						_STD forward<_Valty>(_Val), _Newnode));
; 1677 : 				_Leftish = true;	// nearest point is beginning of sequence
; 1678 : 				}
; 1679 : 			else if (_Where == end())
; 1680 : 				{	// insert at end if after last element
; 1681 : 				if (!_DEBUG_LT_PRED(this->_Getcomp(),
; 1682 : 					this->_Kfn(_Val), this->_Key(_Rmost())))
; 1683 : 					return (_Insert_at(false, _Rmost(),
; 1684 : 						_STD forward<_Valty>(_Val), _Newnode));
; 1685 : 				}
; 1686 : 			else if (!_DEBUG_LT_PRED(this->_Getcomp(),
; 1687 : 				this->_Key(_Where._Mynode()), this->_Kfn(_Val))
; 1688 : 				&& !_DEBUG_LT_PRED(this->_Getcomp(),
; 1689 : 					this->_Kfn(_Val),
; 1690 : 					this->_Key((--(_Next = _Where))._Mynode())))
; 1691 : 				{	// insert before _Where
; 1692 : 				if (this->_Isnil(this->_Right(_Next._Mynode())))
; 1693 : 					return (_Insert_at(false, _Next._Mynode(),
; 1694 : 						_STD forward<_Valty>(_Val), _Newnode));
; 1695 : 				else
; 1696 : 					return (_Insert_at(true, _Where._Mynode(),
; 1697 : 						_STD forward<_Valty>(_Val), _Newnode));
; 1698 : 				}
; 1699 : 			else if (!_DEBUG_LT_PRED(this->_Getcomp(),
; 1700 : 				this->_Kfn(_Val), this->_Key(_Where._Mynode()))
; 1701 : 				&& (++(_Next = _Where) == end()
; 1702 : 					|| !_DEBUG_LT_PRED(this->_Getcomp(),
; 1703 : 						this->_Key(_Next._Mynode()), this->_Kfn(_Val))))
; 1704 : 				{	// insert after _Where
; 1705 : 				if (this->_Isnil(this->_Right(_Where._Mynode())))
; 1706 : 					return (_Insert_at(false, _Where._Mynode(),
; 1707 : 						_STD forward<_Valty>(_Val), _Newnode));
; 1708 : 				else
; 1709 : 					return (_Insert_at(true, _Next._Mynode(),
; 1710 : 						_STD forward<_Valty>(_Val), _Newnode));
; 1711 : 				}
; 1712 : 			else
; 1713 : 				_Leftish = true;	// nearest point is beginning of sequence
; 1714 : 			}
; 1715 : 		else
; 1716 : 			{	// insert only if unique
; 1717 : 			if (_Where == begin())

  00066	8b 3b		 mov	 edi, DWORD PTR [ebx]
  00068	8b 75 0c	 mov	 esi, DWORD PTR __Where$[ebp]
  0006b	3b 37		 cmp	 esi, DWORD PTR [edi]
  0006d	75 3d		 jne	 SHORT $LN22@Insert_hin

; 1718 : 				{	// insert at beginning if before first element
; 1719 : 				if (_DEBUG_LT_PRED(this->_Getcomp(),

  0006f	8b 7d 10	 mov	 edi, DWORD PTR __Val$[ebp]
  00072	8d 46 10	 lea	 eax, DWORD PTR [esi+16]
  00075	50		 push	 eax
  00076	57		 push	 edi
  00077	e8 00 00 00 00	 call	 ??R?$less@V?$basic_string@DU?$char_traits@D@std@@V?$allocator@D@2@@std@@@std@@QBE_NABV?$basic_string@DU?$char_traits@D@std@@V?$allocator@D@2@@1@0@Z ; std::less<std::basic_string<char,std::char_traits<char>,std::allocator<char> > >::operator()
  0007c	84 c0		 test	 al, al
  0007e	0f 84 9e 01 00
	00		 je	 $LN35@Insert_hin

; 1720 : 					this->_Kfn(_Val), this->_Key(_Where._Mynode())))
; 1721 : 					return (_Insert_at(true, _Where._Mynode(),

  00084	ff 75 14	 push	 DWORD PTR __Newnode$[ebp]
  00087	8b cb		 mov	 ecx, ebx
  00089	57		 push	 edi
  0008a	56		 push	 esi
  0008b	8b 75 08	 mov	 esi, DWORD PTR ___$ReturnUdt$[ebp]
  0008e	6a 01		 push	 1
  00090	56		 push	 esi
  00091	e8 00 00 00 00	 call	 ??$_Insert_at@AAU?$pair@$$CBV?$basic_string@DU?$char_traits@D@std@@V?$allocator@D@2@@std@@PAX@std@@PAU?$_Tree_node@U?$pair@$$CBV?$basic_string@DU?$char_traits@D@std@@V?$allocator@D@2@@std@@PAX@std@@PAX@2@@?$_Tree@V?$_Tmap_traits@V?$basic_string@DU?$char_traits@D@std@@V?$allocator@D@2@@std@@PAXU?$less@V?$basic_string@DU?$char_traits@D@std@@V?$allocator@D@2@@std@@@2@V?$allocator@U?$pair@$$CBV?$basic_string@DU?$char_traits@D@std@@V?$allocator@D@2@@std@@PAX@std@@@2@$0A@@std@@@std@@IAE?AV?$_Tree_iterator@V?$_Tree_val@U?$_Tree_simple_types@U?$pair@$$CBV?$basic_string@DU?$char_traits@D@std@@V?$allocator@D@2@@std@@PAX@std@@@std@@@std@@@1@_NPAU?$_Tree_node@U?$pair@$$CBV?$basic_string@DU?$char_traits@D@std@@V?$allocator@D@2@@std@@PAX@std@@PAX@1@AAU?$pair@$$CBV?$basic_string@DU?$char_traits@D@std@@V?$allocator@D@2@@std@@PAX@1@1@Z ; std::_Tree<std::_Tmap_traits<std::basic_string<char,std::char_traits<char>,std::allocator<char> >,void *,std::less<std::basic_string<char,std::char_traits<char>,std::allocator<char> > >,std::allocator<std::pair<std::basic_string<char,std::char_traits<char>,std::allocator<char> > const ,void *> >,0> >::_Insert_at<std::pair<std::basic_string<char,std::char_traits<char>,std::allocator<char> > const ,void *> &,std::_Tree_node<std::pair<std::basic_string<char,std::char_traits<char>,std::allocator<char> > const ,void *>,void *> *>
  00096	8b c6		 mov	 eax, esi

; 1764 : 			_STD forward<_Valty>(_Val), _Newnode).first);
; 1765 : 		}

  00098	8b 4d f4	 mov	 ecx, DWORD PTR __$EHRec$[ebp+4]
  0009b	64 89 0d 00 00
	00 00		 mov	 DWORD PTR fs:0, ecx
  000a2	59		 pop	 ecx
  000a3	5f		 pop	 edi
  000a4	5e		 pop	 esi
  000a5	5b		 pop	 ebx
  000a6	8b e5		 mov	 esp, ebp
  000a8	5d		 pop	 ebp
  000a9	c2 10 00	 ret	 16			; 00000010H
$LN22@Insert_hin:

; 1722 : 						_STD forward<_Valty>(_Val), _Newnode));
; 1723 : 				}
; 1724 : 			else if (_Where == end())

  000ac	3b f7		 cmp	 esi, edi
  000ae	75 40		 jne	 SHORT $LN25@Insert_hin

; 1725 : 				{	// insert at end if after last element
; 1726 : 				if (_DEBUG_LT_PRED(this->_Getcomp(),

  000b0	8b 7f 08	 mov	 edi, DWORD PTR [edi+8]
  000b3	8b 75 10	 mov	 esi, DWORD PTR __Val$[ebp]
  000b6	56		 push	 esi
  000b7	8d 47 10	 lea	 eax, DWORD PTR [edi+16]
  000ba	50		 push	 eax
  000bb	e8 00 00 00 00	 call	 ??R?$less@V?$basic_string@DU?$char_traits@D@std@@V?$allocator@D@2@@std@@@std@@QBE_NABV?$basic_string@DU?$char_traits@D@std@@V?$allocator@D@2@@1@0@Z ; std::less<std::basic_string<char,std::char_traits<char>,std::allocator<char> > >::operator()
  000c0	84 c0		 test	 al, al
  000c2	0f 84 5a 01 00
	00		 je	 $LN35@Insert_hin

; 1727 : 					this->_Key(_Rmost()), this->_Kfn(_Val)))
; 1728 : 					return (_Insert_at(false, _Rmost(),

  000c8	ff 75 14	 push	 DWORD PTR __Newnode$[ebp]
  000cb	8b cb		 mov	 ecx, ebx
  000cd	56		 push	 esi
  000ce	8b 75 08	 mov	 esi, DWORD PTR ___$ReturnUdt$[ebp]
  000d1	57		 push	 edi
  000d2	6a 00		 push	 0
  000d4	56		 push	 esi
  000d5	e8 00 00 00 00	 call	 ??$_Insert_at@AAU?$pair@$$CBV?$basic_string@DU?$char_traits@D@std@@V?$allocator@D@2@@std@@PAX@std@@PAU?$_Tree_node@U?$pair@$$CBV?$basic_string@DU?$char_traits@D@std@@V?$allocator@D@2@@std@@PAX@std@@PAX@2@@?$_Tree@V?$_Tmap_traits@V?$basic_string@DU?$char_traits@D@std@@V?$allocator@D@2@@std@@PAXU?$less@V?$basic_string@DU?$char_traits@D@std@@V?$allocator@D@2@@std@@@2@V?$allocator@U?$pair@$$CBV?$basic_string@DU?$char_traits@D@std@@V?$allocator@D@2@@std@@PAX@std@@@2@$0A@@std@@@std@@IAE?AV?$_Tree_iterator@V?$_Tree_val@U?$_Tree_simple_types@U?$pair@$$CBV?$basic_string@DU?$char_traits@D@std@@V?$allocator@D@2@@std@@PAX@std@@@std@@@std@@@1@_NPAU?$_Tree_node@U?$pair@$$CBV?$basic_string@DU?$char_traits@D@std@@V?$allocator@D@2@@std@@PAX@std@@PAX@1@AAU?$pair@$$CBV?$basic_string@DU?$char_traits@D@std@@V?$allocator@D@2@@std@@PAX@1@1@Z ; std::_Tree<std::_Tmap_traits<std::basic_string<char,std::char_traits<char>,std::allocator<char> >,void *,std::less<std::basic_string<char,std::char_traits<char>,std::allocator<char> > >,std::allocator<std::pair<std::basic_string<char,std::char_traits<char>,std::allocator<char> > const ,void *> >,0> >::_Insert_at<std::pair<std::basic_string<char,std::char_traits<char>,std::allocator<char> > const ,void *> &,std::_Tree_node<std::pair<std::basic_string<char,std::char_traits<char>,std::allocator<char> > const ,void *>,void *> *>
  000da	8b c6		 mov	 eax, esi

; 1764 : 			_STD forward<_Valty>(_Val), _Newnode).first);
; 1765 : 		}

  000dc	8b 4d f4	 mov	 ecx, DWORD PTR __$EHRec$[ebp+4]
  000df	64 89 0d 00 00
	00 00		 mov	 DWORD PTR fs:0, ecx
  000e6	59		 pop	 ecx
  000e7	5f		 pop	 edi
  000e8	5e		 pop	 esi
  000e9	5b		 pop	 ebx
  000ea	8b e5		 mov	 esp, ebp
  000ec	5d		 pop	 ebp
  000ed	c2 10 00	 ret	 16			; 00000010H
$LN25@Insert_hin:

; 1729 : 						_STD forward<_Valty>(_Val), _Newnode));
; 1730 : 				}
; 1731 : 			else if (_DEBUG_LT_PRED(this->_Getcomp(),
; 1732 : 				this->_Kfn(_Val), this->_Key(_Where._Mynode()))
; 1733 : 				&& _DEBUG_LT_PRED(this->_Getcomp(),

  000f0	8d 46 10	 lea	 eax, DWORD PTR [esi+16]
  000f3	50		 push	 eax
  000f4	ff 75 10	 push	 DWORD PTR __Val$[ebp]
  000f7	e8 00 00 00 00	 call	 ??R?$less@V?$basic_string@DU?$char_traits@D@std@@V?$allocator@D@2@@std@@@std@@QBE_NABV?$basic_string@DU?$char_traits@D@std@@V?$allocator@D@2@@1@0@Z ; std::less<std::basic_string<char,std::char_traits<char>,std::allocator<char> > >::operator()
  000fc	84 c0		 test	 al, al
  000fe	74 7a		 je	 SHORT $LN28@Insert_hin
  00100	8d 4d e8	 lea	 ecx, DWORD PTR __Next$[ebp]
  00103	89 75 e8	 mov	 DWORD PTR __Next$[ebp], esi
  00106	e8 00 00 00 00	 call	 ??F?$_Tree_unchecked_const_iterator@V?$_Tree_val@U?$_Tree_simple_types@U?$pair@$$CBV?$basic_string@DU?$char_traits@D@std@@V?$allocator@D@2@@std@@PAX@std@@@std@@@std@@U_Iterator_base0@2@@std@@QAEAAV01@XZ ; std::_Tree_unchecked_const_iterator<std::_Tree_val<std::_Tree_simple_types<std::pair<std::basic_string<char,std::char_traits<char>,std::allocator<char> > const ,void *> > >,std::_Iterator_base0>::operator--
  0010b	8b 5d e8	 mov	 ebx, DWORD PTR __Next$[ebp]
  0010e	ff 75 10	 push	 DWORD PTR __Val$[ebp]
  00111	8b 4d ec	 mov	 ecx, DWORD PTR _this$[ebp]
  00114	8d 43 10	 lea	 eax, DWORD PTR [ebx+16]
  00117	50		 push	 eax
  00118	e8 00 00 00 00	 call	 ??R?$less@V?$basic_string@DU?$char_traits@D@std@@V?$allocator@D@2@@std@@@std@@QBE_NABV?$basic_string@DU?$char_traits@D@std@@V?$allocator@D@2@@1@0@Z ; std::less<std::basic_string<char,std::char_traits<char>,std::allocator<char> > >::operator()
  0011d	84 c0		 test	 al, al
  0011f	74 56		 je	 SHORT $LN732@Insert_hin

; 1734 : 					this->_Key((--(_Next = _Where))._Mynode()),
; 1735 : 					this->_Kfn(_Val)))
; 1736 : 				{	// insert before _Where
; 1737 : 				if (this->_Isnil(this->_Right(_Next._Mynode())))

  00121	8b 43 08	 mov	 eax, DWORD PTR [ebx+8]

; 1738 : 					return (_Insert_at(false, _Next._Mynode(),

  00124	ff 75 14	 push	 DWORD PTR __Newnode$[ebp]
  00127	8b 4d ec	 mov	 ecx, DWORD PTR _this$[ebp]
  0012a	ff 75 10	 push	 DWORD PTR __Val$[ebp]
  0012d	80 78 0d 00	 cmp	 BYTE PTR [eax+13], 0
  00131	74 22		 je	 SHORT $LN30@Insert_hin
  00133	8b 75 08	 mov	 esi, DWORD PTR ___$ReturnUdt$[ebp]
  00136	53		 push	 ebx
  00137	6a 00		 push	 0
  00139	56		 push	 esi
  0013a	e8 00 00 00 00	 call	 ??$_Insert_at@AAU?$pair@$$CBV?$basic_string@DU?$char_traits@D@std@@V?$allocator@D@2@@std@@PAX@std@@PAU?$_Tree_node@U?$pair@$$CBV?$basic_string@DU?$char_traits@D@std@@V?$allocator@D@2@@std@@PAX@std@@PAX@2@@?$_Tree@V?$_Tmap_traits@V?$basic_string@DU?$char_traits@D@std@@V?$allocator@D@2@@std@@PAXU?$less@V?$basic_string@DU?$char_traits@D@std@@V?$allocator@D@2@@std@@@2@V?$allocator@U?$pair@$$CBV?$basic_string@DU?$char_traits@D@std@@V?$allocator@D@2@@std@@PAX@std@@@2@$0A@@std@@@std@@IAE?AV?$_Tree_iterator@V?$_Tree_val@U?$_Tree_simple_types@U?$pair@$$CBV?$basic_string@DU?$char_traits@D@std@@V?$allocator@D@2@@std@@PAX@std@@@std@@@std@@@1@_NPAU?$_Tree_node@U?$pair@$$CBV?$basic_string@DU?$char_traits@D@std@@V?$allocator@D@2@@std@@PAX@std@@PAX@1@AAU?$pair@$$CBV?$basic_string@DU?$char_traits@D@std@@V?$allocator@D@2@@std@@PAX@1@1@Z ; std::_Tree<std::_Tmap_traits<std::basic_string<char,std::char_traits<char>,std::allocator<char> >,void *,std::less<std::basic_string<char,std::char_traits<char>,std::allocator<char> > >,std::allocator<std::pair<std::basic_string<char,std::char_traits<char>,std::allocator<char> > const ,void *> >,0> >::_Insert_at<std::pair<std::basic_string<char,std::char_traits<char>,std::allocator<char> > const ,void *> &,std::_Tree_node<std::pair<std::basic_string<char,std::char_traits<char>,std::allocator<char> > const ,void *>,void *> *>
  0013f	8b c6		 mov	 eax, esi

; 1764 : 			_STD forward<_Valty>(_Val), _Newnode).first);
; 1765 : 		}

  00141	8b 4d f4	 mov	 ecx, DWORD PTR __$EHRec$[ebp+4]
  00144	64 89 0d 00 00
	00 00		 mov	 DWORD PTR fs:0, ecx
  0014b	59		 pop	 ecx
  0014c	5f		 pop	 edi
  0014d	5e		 pop	 esi
  0014e	5b		 pop	 ebx
  0014f	8b e5		 mov	 esp, ebp
  00151	5d		 pop	 ebp
  00152	c2 10 00	 ret	 16			; 00000010H
$LN30@Insert_hin:

; 1739 : 						_STD forward<_Valty>(_Val), _Newnode));
; 1740 : 				else
; 1741 : 					return (_Insert_at(true, _Where._Mynode(),

  00155	56		 push	 esi
  00156	8b 75 08	 mov	 esi, DWORD PTR ___$ReturnUdt$[ebp]
  00159	6a 01		 push	 1
  0015b	56		 push	 esi
  0015c	e8 00 00 00 00	 call	 ??$_Insert_at@AAU?$pair@$$CBV?$basic_string@DU?$char_traits@D@std@@V?$allocator@D@2@@std@@PAX@std@@PAU?$_Tree_node@U?$pair@$$CBV?$basic_string@DU?$char_traits@D@std@@V?$allocator@D@2@@std@@PAX@std@@PAX@2@@?$_Tree@V?$_Tmap_traits@V?$basic_string@DU?$char_traits@D@std@@V?$allocator@D@2@@std@@PAXU?$less@V?$basic_string@DU?$char_traits@D@std@@V?$allocator@D@2@@std@@@2@V?$allocator@U?$pair@$$CBV?$basic_string@DU?$char_traits@D@std@@V?$allocator@D@2@@std@@PAX@std@@@2@$0A@@std@@@std@@IAE?AV?$_Tree_iterator@V?$_Tree_val@U?$_Tree_simple_types@U?$pair@$$CBV?$basic_string@DU?$char_traits@D@std@@V?$allocator@D@2@@std@@PAX@std@@@std@@@std@@@1@_NPAU?$_Tree_node@U?$pair@$$CBV?$basic_string@DU?$char_traits@D@std@@V?$allocator@D@2@@std@@PAX@std@@PAX@1@AAU?$pair@$$CBV?$basic_string@DU?$char_traits@D@std@@V?$allocator@D@2@@std@@PAX@1@1@Z ; std::_Tree<std::_Tmap_traits<std::basic_string<char,std::char_traits<char>,std::allocator<char> >,void *,std::less<std::basic_string<char,std::char_traits<char>,std::allocator<char> > >,std::allocator<std::pair<std::basic_string<char,std::char_traits<char>,std::allocator<char> > const ,void *> >,0> >::_Insert_at<std::pair<std::basic_string<char,std::char_traits<char>,std::allocator<char> > const ,void *> &,std::_Tree_node<std::pair<std::basic_string<char,std::char_traits<char>,std::allocator<char> > const ,void *>,void *> *>
  00161	8b c6		 mov	 eax, esi

; 1764 : 			_STD forward<_Valty>(_Val), _Newnode).first);
; 1765 : 		}

  00163	8b 4d f4	 mov	 ecx, DWORD PTR __$EHRec$[ebp+4]
  00166	64 89 0d 00 00
	00 00		 mov	 DWORD PTR fs:0, ecx
  0016d	59		 pop	 ecx
  0016e	5f		 pop	 edi
  0016f	5e		 pop	 esi
  00170	5b		 pop	 ebx
  00171	8b e5		 mov	 esp, ebp
  00173	5d		 pop	 ebp
  00174	c2 10 00	 ret	 16			; 00000010H
$LN732@Insert_hin:
  00177	8b 5d ec	 mov	 ebx, DWORD PTR _this$[ebp]
$LN28@Insert_hin:

; 1742 : 						_STD forward<_Valty>(_Val), _Newnode));
; 1743 : 				}
; 1744 : 			else if (_DEBUG_LT_PRED(this->_Getcomp(),
; 1745 : 				this->_Key(_Where._Mynode()), this->_Kfn(_Val))
; 1746 : 				&& (++(_Next = _Where) == end()

  0017a	ff 75 10	 push	 DWORD PTR __Val$[ebp]
  0017d	8d 46 10	 lea	 eax, DWORD PTR [esi+16]
  00180	8b cb		 mov	 ecx, ebx
  00182	50		 push	 eax
  00183	e8 00 00 00 00	 call	 ??R?$less@V?$basic_string@DU?$char_traits@D@std@@V?$allocator@D@2@@std@@@std@@QBE_NABV?$basic_string@DU?$char_traits@D@std@@V?$allocator@D@2@@1@0@Z ; std::less<std::basic_string<char,std::char_traits<char>,std::allocator<char> > >::operator()
  00188	84 c0		 test	 al, al
  0018a	0f 84 92 00 00
	00		 je	 $LN35@Insert_hin
  00190	8d 4d e8	 lea	 ecx, DWORD PTR __Next$[ebp]
  00193	89 75 e8	 mov	 DWORD PTR __Next$[ebp], esi
  00196	e8 00 00 00 00	 call	 ??E?$_Tree_unchecked_const_iterator@V?$_Tree_val@U?$_Tree_simple_types@U?$pair@$$CBV?$basic_string@DU?$char_traits@D@std@@V?$allocator@D@2@@std@@PAX@std@@@std@@@std@@U_Iterator_base0@2@@std@@QAEAAV01@XZ ; std::_Tree_unchecked_const_iterator<std::_Tree_val<std::_Tree_simple_types<std::pair<std::basic_string<char,std::char_traits<char>,std::allocator<char> > const ,void *> > >,std::_Iterator_base0>::operator++
  0019b	8b 5d e8	 mov	 ebx, DWORD PTR __Next$[ebp]
  0019e	3b df		 cmp	 ebx, edi
  001a0	8b 7d ec	 mov	 edi, DWORD PTR _this$[ebp]
  001a3	74 12		 je	 SHORT $LN33@Insert_hin
  001a5	8d 43 10	 lea	 eax, DWORD PTR [ebx+16]
  001a8	8b cf		 mov	 ecx, edi
  001aa	50		 push	 eax
  001ab	ff 75 10	 push	 DWORD PTR __Val$[ebp]
  001ae	e8 00 00 00 00	 call	 ??R?$less@V?$basic_string@DU?$char_traits@D@std@@V?$allocator@D@2@@std@@@std@@QBE_NABV?$basic_string@DU?$char_traits@D@std@@V?$allocator@D@2@@1@0@Z ; std::less<std::basic_string<char,std::char_traits<char>,std::allocator<char> > >::operator()
  001b3	84 c0		 test	 al, al
  001b5	74 69		 je	 SHORT $LN731@Insert_hin
$LN33@Insert_hin:

; 1747 : 					|| _DEBUG_LT_PRED(this->_Getcomp(),
; 1748 : 						this->_Kfn(_Val), this->_Key(_Next._Mynode()))))
; 1749 : 				{	// insert after _Where
; 1750 : 				if (this->_Isnil(this->_Right(_Where._Mynode())))

  001b7	8b 46 08	 mov	 eax, DWORD PTR [esi+8]

; 1751 : 					return (_Insert_at(false, _Where._Mynode(),

  001ba	8b cf		 mov	 ecx, edi
  001bc	ff 75 14	 push	 DWORD PTR __Newnode$[ebp]
  001bf	ff 75 10	 push	 DWORD PTR __Val$[ebp]
  001c2	80 78 0d 00	 cmp	 BYTE PTR [eax+13], 0
  001c6	74 22		 je	 SHORT $LN34@Insert_hin
  001c8	56		 push	 esi
  001c9	8b 75 08	 mov	 esi, DWORD PTR ___$ReturnUdt$[ebp]
  001cc	6a 00		 push	 0
  001ce	56		 push	 esi
  001cf	e8 00 00 00 00	 call	 ??$_Insert_at@AAU?$pair@$$CBV?$basic_string@DU?$char_traits@D@std@@V?$allocator@D@2@@std@@PAX@std@@PAU?$_Tree_node@U?$pair@$$CBV?$basic_string@DU?$char_traits@D@std@@V?$allocator@D@2@@std@@PAX@std@@PAX@2@@?$_Tree@V?$_Tmap_traits@V?$basic_string@DU?$char_traits@D@std@@V?$allocator@D@2@@std@@PAXU?$less@V?$basic_string@DU?$char_traits@D@std@@V?$allocator@D@2@@std@@@2@V?$allocator@U?$pair@$$CBV?$basic_string@DU?$char_traits@D@std@@V?$allocator@D@2@@std@@PAX@std@@@2@$0A@@std@@@std@@IAE?AV?$_Tree_iterator@V?$_Tree_val@U?$_Tree_simple_types@U?$pair@$$CBV?$basic_string@DU?$char_traits@D@std@@V?$allocator@D@2@@std@@PAX@std@@@std@@@std@@@1@_NPAU?$_Tree_node@U?$pair@$$CBV?$basic_string@DU?$char_traits@D@std@@V?$allocator@D@2@@std@@PAX@std@@PAX@1@AAU?$pair@$$CBV?$basic_string@DU?$char_traits@D@std@@V?$allocator@D@2@@std@@PAX@1@1@Z ; std::_Tree<std::_Tmap_traits<std::basic_string<char,std::char_traits<char>,std::allocator<char> >,void *,std::less<std::basic_string<char,std::char_traits<char>,std::allocator<char> > >,std::allocator<std::pair<std::basic_string<char,std::char_traits<char>,std::allocator<char> > const ,void *> >,0> >::_Insert_at<std::pair<std::basic_string<char,std::char_traits<char>,std::allocator<char> > const ,void *> &,std::_Tree_node<std::pair<std::basic_string<char,std::char_traits<char>,std::allocator<char> > const ,void *>,void *> *>
  001d4	8b c6		 mov	 eax, esi

; 1764 : 			_STD forward<_Valty>(_Val), _Newnode).first);
; 1765 : 		}

  001d6	8b 4d f4	 mov	 ecx, DWORD PTR __$EHRec$[ebp+4]
  001d9	64 89 0d 00 00
	00 00		 mov	 DWORD PTR fs:0, ecx
  001e0	59		 pop	 ecx
  001e1	5f		 pop	 edi
  001e2	5e		 pop	 esi
  001e3	5b		 pop	 ebx
  001e4	8b e5		 mov	 esp, ebp
  001e6	5d		 pop	 ebp
  001e7	c2 10 00	 ret	 16			; 00000010H
$LN34@Insert_hin:

; 1752 : 						_STD forward<_Valty>(_Val), _Newnode));
; 1753 : 				else
; 1754 : 					return (_Insert_at(true, _Next._Mynode(),

  001ea	8b 75 08	 mov	 esi, DWORD PTR ___$ReturnUdt$[ebp]
  001ed	53		 push	 ebx
  001ee	6a 01		 push	 1
  001f0	56		 push	 esi
  001f1	e8 00 00 00 00	 call	 ??$_Insert_at@AAU?$pair@$$CBV?$basic_string@DU?$char_traits@D@std@@V?$allocator@D@2@@std@@PAX@std@@PAU?$_Tree_node@U?$pair@$$CBV?$basic_string@DU?$char_traits@D@std@@V?$allocator@D@2@@std@@PAX@std@@PAX@2@@?$_Tree@V?$_Tmap_traits@V?$basic_string@DU?$char_traits@D@std@@V?$allocator@D@2@@std@@PAXU?$less@V?$basic_string@DU?$char_traits@D@std@@V?$allocator@D@2@@std@@@2@V?$allocator@U?$pair@$$CBV?$basic_string@DU?$char_traits@D@std@@V?$allocator@D@2@@std@@PAX@std@@@2@$0A@@std@@@std@@IAE?AV?$_Tree_iterator@V?$_Tree_val@U?$_Tree_simple_types@U?$pair@$$CBV?$basic_string@DU?$char_traits@D@std@@V?$allocator@D@2@@std@@PAX@std@@@std@@@std@@@1@_NPAU?$_Tree_node@U?$pair@$$CBV?$basic_string@DU?$char_traits@D@std@@V?$allocator@D@2@@std@@PAX@std@@PAX@1@AAU?$pair@$$CBV?$basic_string@DU?$char_traits@D@std@@V?$allocator@D@2@@std@@PAX@1@1@Z ; std::_Tree<std::_Tmap_traits<std::basic_string<char,std::char_traits<char>,std::allocator<char> >,void *,std::less<std::basic_string<char,std::char_traits<char>,std::allocator<char> > >,std::allocator<std::pair<std::basic_string<char,std::char_traits<char>,std::allocator<char> > const ,void *> >,0> >::_Insert_at<std::pair<std::basic_string<char,std::char_traits<char>,std::allocator<char> > const ,void *> &,std::_Tree_node<std::pair<std::basic_string<char,std::char_traits<char>,std::allocator<char> > const ,void *>,void *> *>
  001f6	8b c6		 mov	 eax, esi

; 1764 : 			_STD forward<_Valty>(_Val), _Newnode).first);
; 1765 : 		}

  001f8	8b 4d f4	 mov	 ecx, DWORD PTR __$EHRec$[ebp+4]
  001fb	64 89 0d 00 00
	00 00		 mov	 DWORD PTR fs:0, ecx
  00202	59		 pop	 ecx
  00203	5f		 pop	 edi
  00204	5e		 pop	 esi
  00205	5b		 pop	 ebx
  00206	8b e5		 mov	 esp, ebp
  00208	5d		 pop	 ebp
  00209	c2 10 00	 ret	 16			; 00000010H
__catch$??$_Insert_hint@AAU?$pair@$$CBV?$basic_string@DU?$char_traits@D@std@@V?$allocator@D@2@@std@@PAX@std@@PAU?$_Tree_node@U?$pair@$$CBV?$basic_string@DU?$char_traits@D@std@@V?$allocator@D@2@@std@@PAX@std@@PAX@2@@?$_Tree@V?$_Tmap_traits@V?$basic_string@DU?$char_traits@D@std@@V?$allocator@D@2@@std@@PAXU?$less@V?$basic_string@DU?$char_traits@D@std@@V?$allocator@D@2@@std@@@2@V?$allocator@U?$pair@$$CBV?$basic_string@DU?$char_traits@D@std@@V?$allocator@D@2@@std@@PAX@std@@@2@$0A@@std@@@std@@IAE?AV?$_Tree_iterator@V?$_Tree_val@U?$_Tree_simple_types@U?$pair@$$CBV?$basic_string@DU?$char_traits@D@std@@V?$allocator@D@2@@std@@PAX@std@@@std@@@std@@@1@V?$_Tree_const_iterator@V?$_Tree_val@U?$_Tree_simple_types@U?$pair@$$CBV?$basic_string@DU?$char_traits@D@std@@V?$allocator@D@2@@std@@PAX@std@@@std@@@std@@@1@AAU?$pair@$$CBV?$basic_string@DU?$char_traits@D@std@@V?$allocator@D@2@@std@@PAX@1@PAU?$_Tree_node@U?$pair@$$CBV?$basic_string@DU?$char_traits@D@std@@V?$allocator@D@2@@std@@PAX@std@@PAX@1@@Z$0:

; 1755 : 						_STD forward<_Valty>(_Val), _Newnode));
; 1756 : 				}
; 1757 : 			}
; 1758 : 		_CATCH_ALL
; 1759 : 		_Destroy_if_not_nil(_Newnode);

  0020c	ff 75 14	 push	 DWORD PTR __Newnode$[ebp]
  0020f	8b 4d ec	 mov	 ecx, DWORD PTR _this$[ebp]
  00212	e8 00 00 00 00	 call	 ?_Destroy_if_not_nil@?$_Tree@V?$_Tmap_traits@V?$basic_string@DU?$char_traits@D@std@@V?$allocator@D@2@@std@@PAXU?$less@V?$basic_string@DU?$char_traits@D@std@@V?$allocator@D@2@@std@@@2@V?$allocator@U?$pair@$$CBV?$basic_string@DU?$char_traits@D@std@@V?$allocator@D@2@@std@@PAX@std@@@2@$0A@@std@@@std@@IAEXPAU?$_Tree_node@U?$pair@$$CBV?$basic_string@DU?$char_traits@D@std@@V?$allocator@D@2@@std@@PAX@std@@PAX@2@@Z ; std::_Tree<std::_Tmap_traits<std::basic_string<char,std::char_traits<char>,std::allocator<char> >,void *,std::less<std::basic_string<char,std::char_traits<char>,std::allocator<char> > >,std::allocator<std::pair<std::basic_string<char,std::char_traits<char>,std::allocator<char> > const ,void *> >,0> >::_Destroy_if_not_nil

; 1760 : 		_RERAISE;

  00217	6a 00		 push	 0
  00219	6a 00		 push	 0
  0021b	e8 00 00 00 00	 call	 __CxxThrowException@8
$LN735@Insert_hin:
$LN731@Insert_hin:
  00220	8b df		 mov	 ebx, edi
$LN35@Insert_hin:

; 1761 : 		_CATCH_END
; 1762 : 
; 1763 : 		return (_Insert_nohint(_Leftish,

  00222	ff 75 14	 push	 DWORD PTR __Newnode$[ebp]
  00225	8d 45 e4	 lea	 eax, DWORD PTR $T2[ebp]
  00228	c7 45 fc ff ff
	ff ff		 mov	 DWORD PTR __$EHRec$[ebp+12], -1
  0022f	ff 75 10	 push	 DWORD PTR __Val$[ebp]
  00232	8b cb		 mov	 ecx, ebx
  00234	6a 00		 push	 0
  00236	50		 push	 eax
  00237	e8 00 00 00 00	 call	 ??$_Insert_nohint@AAU?$pair@$$CBV?$basic_string@DU?$char_traits@D@std@@V?$allocator@D@2@@std@@PAX@std@@PAU?$_Tree_node@U?$pair@$$CBV?$basic_string@DU?$char_traits@D@std@@V?$allocator@D@2@@std@@PAX@std@@PAX@2@@?$_Tree@V?$_Tmap_traits@V?$basic_string@DU?$char_traits@D@std@@V?$allocator@D@2@@std@@PAXU?$less@V?$basic_string@DU?$char_traits@D@std@@V?$allocator@D@2@@std@@@2@V?$allocator@U?$pair@$$CBV?$basic_string@DU?$char_traits@D@std@@V?$allocator@D@2@@std@@PAX@std@@@2@$0A@@std@@@std@@IAE?AU?$pair@V?$_Tree_iterator@V?$_Tree_val@U?$_Tree_simple_types@U?$pair@$$CBV?$basic_string@DU?$char_traits@D@std@@V?$allocator@D@2@@std@@PAX@std@@@std@@@std@@@std@@_N@1@_NAAU?$pair@$$CBV?$basic_string@DU?$char_traits@D@std@@V?$allocator@D@2@@std@@PAX@1@PAU?$_Tree_node@U?$pair@$$CBV?$basic_string@DU?$char_traits@D@std@@V?$allocator@D@2@@std@@PAX@std@@PAX@1@@Z ; std::_Tree<std::_Tmap_traits<std::basic_string<char,std::char_traits<char>,std::allocator<char> >,void *,std::less<std::basic_string<char,std::char_traits<char>,std::allocator<char> > >,std::allocator<std::pair<std::basic_string<char,std::char_traits<char>,std::allocator<char> > const ,void *> >,0> >::_Insert_nohint<std::pair<std::basic_string<char,std::char_traits<char>,std::allocator<char> > const ,void *> &,std::_Tree_node<std::pair<std::basic_string<char,std::char_traits<char>,std::allocator<char> > const ,void *>,void *> *>
  0023c	8b 08		 mov	 ecx, DWORD PTR [eax]
  0023e	8b 45 08	 mov	 eax, DWORD PTR ___$ReturnUdt$[ebp]
  00241	89 08		 mov	 DWORD PTR [eax], ecx

; 1764 : 			_STD forward<_Valty>(_Val), _Newnode).first);
; 1765 : 		}

  00243	8b 4d f4	 mov	 ecx, DWORD PTR __$EHRec$[ebp+4]
  00246	64 89 0d 00 00
	00 00		 mov	 DWORD PTR fs:0, ecx
  0024d	59		 pop	 ecx
  0024e	5f		 pop	 edi
  0024f	5e		 pop	 esi
  00250	5b		 pop	 ebx
  00251	8b e5		 mov	 esp, ebp
  00253	5d		 pop	 ebp
  00254	c2 10 00	 ret	 16			; 00000010H
$LN734@Insert_hin:
_TEXT	ENDS
;	COMDAT text$x
text$x	SEGMENT
__ehhandler$??$_Insert_hint@AAU?$pair@$$CBV?$basic_string@DU?$char_traits@D@std@@V?$allocator@D@2@@std@@PAX@std@@PAU?$_Tree_node@U?$pair@$$CBV?$basic_string@DU?$char_traits@D@std@@V?$allocator@D@2@@std@@PAX@std@@PAX@2@@?$_Tree@V?$_Tmap_traits@V?$basic_string@DU?$char_traits@D@std@@V?$allocator@D@2@@std@@PAXU?$less@V?$basic_string@DU?$char_traits@D@std@@V?$allocator@D@2@@std@@@2@V?$allocator@U?$pair@$$CBV?$basic_string@DU?$char_traits@D@std@@V?$allocator@D@2@@std@@PAX@std@@@2@$0A@@std@@@std@@IAE?AV?$_Tree_iterator@V?$_Tree_val@U?$_Tree_simple_types@U?$pair@$$CBV?$basic_string@DU?$char_traits@D@std@@V?$allocator@D@2@@std@@PAX@std@@@std@@@std@@@1@V?$_Tree_const_iterator@V?$_Tree_val@U?$_Tree_simple_types@U?$pair@$$CBV?$basic_string@DU?$char_traits@D@std@@V?$allocator@D@2@@std@@PAX@std@@@std@@@std@@@1@AAU?$pair@$$CBV?$basic_string@DU?$char_traits@D@std@@V?$allocator@D@2@@std@@PAX@1@PAU?$_Tree_node@U?$pair@$$CBV?$basic_string@DU?$char_traits@D@std@@V?$allocator@D@2@@std@@PAX@std@@PAX@1@@Z:
  00000	8b 54 24 08	 mov	 edx, DWORD PTR [esp+8]
  00004	8d 42 0c	 lea	 eax, DWORD PTR [edx+12]
  00007	8b 4a e0	 mov	 ecx, DWORD PTR [edx-32]
  0000a	33 c8		 xor	 ecx, eax
  0000c	e8 00 00 00 00	 call	 @__security_check_cookie@4
  00011	b8 00 00 00 00	 mov	 eax, OFFSET __ehfuncinfo$??$_Insert_hint@AAU?$pair@$$CBV?$basic_string@DU?$char_traits@D@std@@V?$allocator@D@2@@std@@PAX@std@@PAU?$_Tree_node@U?$pair@$$CBV?$basic_string@DU?$char_traits@D@std@@V?$allocator@D@2@@std@@PAX@std@@PAX@2@@?$_Tree@V?$_Tmap_traits@V?$basic_string@DU?$char_traits@D@std@@V?$allocator@D@2@@std@@PAXU?$less@V?$basic_string@DU?$char_traits@D@std@@V?$allocator@D@2@@std@@@2@V?$allocator@U?$pair@$$CBV?$basic_string@DU?$char_traits@D@std@@V?$allocator@D@2@@std@@PAX@std@@@2@$0A@@std@@@std@@IAE?AV?$_Tree_iterator@V?$_Tree_val@U?$_Tree_simple_types@U?$pair@$$CBV?$basic_string@DU?$char_traits@D@std@@V?$allocator@D@2@@std@@PAX@std@@@std@@@std@@@1@V?$_Tree_const_iterator@V?$_Tree_val@U?$_Tree_simple_types@U?$pair@$$CBV?$basic_string@DU?$char_traits@D@std@@V?$allocator@D@2@@std@@PAX@std@@@std@@@std@@@1@AAU?$pair@$$CBV?$basic_string@DU?$char_traits@D@std@@V?$allocator@D@2@@std@@PAX@1@PAU?$_Tree_node@U?$pair@$$CBV?$basic_string@DU?$char_traits@D@std@@V?$allocator@D@2@@std@@PAX@std@@PAX@1@@Z
  00016	e9 00 00 00 00	 jmp	 ___CxxFrameHandler3
text$x	ENDS
??$_Insert_hint@AAU?$pair@$$CBV?$basic_string@DU?$char_traits@D@std@@V?$allocator@D@2@@std@@PAX@std@@PAU?$_Tree_node@U?$pair@$$CBV?$basic_string@DU?$char_traits@D@std@@V?$allocator@D@2@@std@@PAX@std@@PAX@2@@?$_Tree@V?$_Tmap_traits@V?$basic_string@DU?$char_traits@D@std@@V?$allocator@D@2@@std@@PAXU?$less@V?$basic_string@DU?$char_traits@D@std@@V?$allocator@D@2@@std@@@2@V?$allocator@U?$pair@$$CBV?$basic_string@DU?$char_traits@D@std@@V?$allocator@D@2@@std@@PAX@std@@@2@$0A@@std@@@std@@IAE?AV?$_Tree_iterator@V?$_Tree_val@U?$_Tree_simple_types@U?$pair@$$CBV?$basic_string@DU?$char_traits@D@std@@V?$allocator@D@2@@std@@PAX@std@@@std@@@std@@@1@V?$_Tree_const_iterator@V?$_Tree_val@U?$_Tree_simple_types@U?$pair@$$CBV?$basic_string@DU?$char_traits@D@std@@V?$allocator@D@2@@std@@PAX@std@@@std@@@std@@@1@AAU?$pair@$$CBV?$basic_string@DU?$char_traits@D@std@@V?$allocator@D@2@@std@@PAX@1@PAU?$_Tree_node@U?$pair@$$CBV?$basic_string@DU?$char_traits@D@std@@V?$allocator@D@2@@std@@PAX@std@@PAX@1@@Z ENDP ; std::_Tree<std::_Tmap_traits<std::basic_string<char,std::char_traits<char>,std::allocator<char> >,void *,std::less<std::basic_string<char,std::char_traits<char>,std::allocator<char> > >,std::allocator<std::pair<std::basic_string<char,std::char_traits<char>,std::allocator<char> > const ,void *> >,0> >::_Insert_hint<std::pair<std::basic_string<char,std::char_traits<char>,std::allocator<char> > const ,void *> &,std::_Tree_node<std::pair<std::basic_string<char,std::char_traits<char>,std::allocator<char> > const ,void *>,void *> *>
; Function compile flags: /Ogtp
; File c:\program files (x86)\microsoft visual studio 14.0\vc\include\xtree
;	COMDAT ??$_Buynode@ABUpiecewise_construct_t@std@@V?$tuple@$$QAV?$basic_string@DU?$char_traits@D@std@@V?$allocator@D@2@@std@@@2@V?$tuple@$$V@2@@?$_Tree_comp_alloc@V?$_Tmap_traits@V?$basic_string@DU?$char_traits@D@std@@V?$allocator@D@2@@std@@PAXU?$less@V?$basic_string@DU?$char_traits@D@std@@V?$allocator@D@2@@std@@@2@V?$allocator@U?$pair@$$CBV?$basic_string@DU?$char_traits@D@std@@V?$allocator@D@2@@std@@PAX@std@@@2@$0A@@std@@@std@@QAEPAU?$_Tree_node@U?$pair@$$CBV?$basic_string@DU?$char_traits@D@std@@V?$allocator@D@2@@std@@PAX@std@@PAX@1@ABUpiecewise_construct_t@1@$$QAV?$tuple@$$QAV?$basic_string@DU?$char_traits@D@std@@V?$allocator@D@2@@std@@@1@$$QAV?$tuple@$$V@1@@Z
_TEXT	SEGMENT
_<_Val_0>$ = 8						; size = 4
_<_Val_1>$ = 12						; size = 4
_<_Val_2>$ = 16						; size = 4
??$_Buynode@ABUpiecewise_construct_t@std@@V?$tuple@$$QAV?$basic_string@DU?$char_traits@D@std@@V?$allocator@D@2@@std@@@2@V?$tuple@$$V@2@@?$_Tree_comp_alloc@V?$_Tmap_traits@V?$basic_string@DU?$char_traits@D@std@@V?$allocator@D@2@@std@@PAXU?$less@V?$basic_string@DU?$char_traits@D@std@@V?$allocator@D@2@@std@@@2@V?$allocator@U?$pair@$$CBV?$basic_string@DU?$char_traits@D@std@@V?$allocator@D@2@@std@@PAX@std@@@2@$0A@@std@@@std@@QAEPAU?$_Tree_node@U?$pair@$$CBV?$basic_string@DU?$char_traits@D@std@@V?$allocator@D@2@@std@@PAX@std@@PAX@1@ABUpiecewise_construct_t@1@$$QAV?$tuple@$$QAV?$basic_string@DU?$char_traits@D@std@@V?$allocator@D@2@@std@@@1@$$QAV?$tuple@$$V@1@@Z PROC ; std::_Tree_comp_alloc<std::_Tmap_traits<std::basic_string<char,std::char_traits<char>,std::allocator<char> >,void *,std::less<std::basic_string<char,std::char_traits<char>,std::allocator<char> > >,std::allocator<std::pair<std::basic_string<char,std::char_traits<char>,std::allocator<char> > const ,void *> >,0> >::_Buynode<std::piecewise_construct_t const &,std::tuple<std::basic_string<char,std::char_traits<char>,std::allocator<char> > &&>,std::tuple<> >, COMDAT
; _this$ = ecx

; 880  : 		{	// allocate a node with defaults and set links and value

  00000	55		 push	 ebp
  00001	8b ec		 mov	 ebp, esp
  00003	56		 push	 esi
  00004	57		 push	 edi

; 881  : 		_Nodeptr _Pnode = _Buynode0();

  00005	e8 00 00 00 00	 call	 ?_Buynode0@?$_Tree_comp_alloc@V?$_Tmap_traits@V?$basic_string@DU?$char_traits@D@std@@V?$allocator@D@2@@std@@PAXU?$less@V?$basic_string@DU?$char_traits@D@std@@V?$allocator@D@2@@std@@@2@V?$allocator@U?$pair@$$CBV?$basic_string@DU?$char_traits@D@std@@V?$allocator@D@2@@std@@PAX@std@@@2@$0A@@std@@@std@@QAEPAU?$_Tree_node@U?$pair@$$CBV?$basic_string@DU?$char_traits@D@std@@V?$allocator@D@2@@std@@PAX@std@@PAX@2@XZ ; std::_Tree_comp_alloc<std::_Tmap_traits<std::basic_string<char,std::char_traits<char>,std::allocator<char> >,void *,std::less<std::basic_string<char,std::char_traits<char>,std::allocator<char> > >,std::allocator<std::pair<std::basic_string<char,std::char_traits<char>,std::allocator<char> > const ,void *> >,0> >::_Buynode0
  0000a	8b f0		 mov	 esi, eax

; 882  : 
; 883  : 		this->_Color(_Pnode) = _Red;
; 884  : 		this->_Isnil(_Pnode) = false;
; 885  : 
; 886  : 		_TRY_BEGIN
; 887  : 		this->_Getal().construct(

  0000c	8d 7e 10	 lea	 edi, DWORD PTR [esi+16]
  0000f	66 c7 46 0c 00
	00		 mov	 WORD PTR [esi+12], 0
  00015	85 ff		 test	 edi, edi
  00017	74 27		 je	 SHORT $LN65@Buynode
  00019	8b 4d 0c	 mov	 ecx, DWORD PTR _<_Val_1>$[ebp]
  0001c	8b 09		 mov	 ecx, DWORD PTR [ecx]
  0001e	51		 push	 ecx
  0001f	c7 47 14 0f 00
	00 00		 mov	 DWORD PTR [edi+20], 15	; 0000000fH
  00026	8b cf		 mov	 ecx, edi
  00028	c7 47 10 00 00
	00 00		 mov	 DWORD PTR [edi+16], 0
  0002f	c6 07 00	 mov	 BYTE PTR [edi], 0
  00032	e8 00 00 00 00	 call	 ?_Assign_rv@?$basic_string@DU?$char_traits@D@std@@V?$allocator@D@2@@std@@QAEX$$QAV12@@Z ; std::basic_string<char,std::char_traits<char>,std::allocator<char> >::_Assign_rv
  00037	c7 47 18 00 00
	00 00		 mov	 DWORD PTR [edi+24], 0

; 888  : 			_STD addressof(_Myval(_Pnode)),
; 889  : 				_STD forward<_Valty>(_Val)...);
; 890  : 		_CATCH_ALL
; 891  : 		_Freenode0(_Pnode);
; 892  : 		_RERAISE;
; 893  : 		_CATCH_END
; 894  : 
; 895  : 		return (_Pnode);

  0003e	8b c6		 mov	 eax, esi
$LN65@Buynode:

; 896  : 		}

  00040	5f		 pop	 edi
  00041	5e		 pop	 esi
  00042	5d		 pop	 ebp
  00043	c2 0c 00	 ret	 12			; 0000000cH
??$_Buynode@ABUpiecewise_construct_t@std@@V?$tuple@$$QAV?$basic_string@DU?$char_traits@D@std@@V?$allocator@D@2@@std@@@2@V?$tuple@$$V@2@@?$_Tree_comp_alloc@V?$_Tmap_traits@V?$basic_string@DU?$char_traits@D@std@@V?$allocator@D@2@@std@@PAXU?$less@V?$basic_string@DU?$char_traits@D@std@@V?$allocator@D@2@@std@@@2@V?$allocator@U?$pair@$$CBV?$basic_string@DU?$char_traits@D@std@@V?$allocator@D@2@@std@@PAX@std@@@2@$0A@@std@@@std@@QAEPAU?$_Tree_node@U?$pair@$$CBV?$basic_string@DU?$char_traits@D@std@@V?$allocator@D@2@@std@@PAX@std@@PAX@1@ABUpiecewise_construct_t@1@$$QAV?$tuple@$$QAV?$basic_string@DU?$char_traits@D@std@@V?$allocator@D@2@@std@@@1@$$QAV?$tuple@$$V@1@@Z ENDP ; std::_Tree_comp_alloc<std::_Tmap_traits<std::basic_string<char,std::char_traits<char>,std::allocator<char> >,void *,std::less<std::basic_string<char,std::char_traits<char>,std::allocator<char> > >,std::allocator<std::pair<std::basic_string<char,std::char_traits<char>,std::allocator<char> > const ,void *> >,0> >::_Buynode<std::piecewise_construct_t const &,std::tuple<std::basic_string<char,std::char_traits<char>,std::allocator<char> > &&>,std::tuple<> >
_TEXT	ENDS
; Function compile flags: /Ogtp
; File c:\program files (x86)\microsoft visual studio 14.0\vc\include\type_traits
;	COMDAT ??$forward@V?$tuple@$$QAV?$basic_string@DU?$char_traits@D@std@@V?$allocator@D@2@@std@@@std@@@std@@YA$$QAV?$tuple@$$QAV?$basic_string@DU?$char_traits@D@std@@V?$allocator@D@2@@std@@@0@AAV10@@Z
_TEXT	SEGMENT
__Arg$ = 8						; size = 4
??$forward@V?$tuple@$$QAV?$basic_string@DU?$char_traits@D@std@@V?$allocator@D@2@@std@@@std@@@std@@YA$$QAV?$tuple@$$QAV?$basic_string@DU?$char_traits@D@std@@V?$allocator@D@2@@std@@@0@AAV10@@Z PROC ; std::forward<std::tuple<std::basic_string<char,std::char_traits<char>,std::allocator<char> > &&> >, COMDAT

; 1275 : 	{	// forward an lvalue as either an lvalue or an rvalue

  00000	55		 push	 ebp
  00001	8b ec		 mov	 ebp, esp

; 1276 : 	return (static_cast<_Ty&&>(_Arg));

  00003	8b 45 08	 mov	 eax, DWORD PTR __Arg$[ebp]

; 1277 : 	}

  00006	5d		 pop	 ebp
  00007	c3		 ret	 0
??$forward@V?$tuple@$$QAV?$basic_string@DU?$char_traits@D@std@@V?$allocator@D@2@@std@@@std@@@std@@YA$$QAV?$tuple@$$QAV?$basic_string@DU?$char_traits@D@std@@V?$allocator@D@2@@std@@@0@AAV10@@Z ENDP ; std::forward<std::tuple<std::basic_string<char,std::char_traits<char>,std::allocator<char> > &&> >
_TEXT	ENDS
; Function compile flags: /Ogtp
; File c:\program files (x86)\microsoft visual studio 14.0\vc\include\tuple
;	COMDAT ??$?0V?$basic_string@DU?$char_traits@D@std@@V?$allocator@D@2@@std@@$$V$0A@@?$tuple@$$QAV?$basic_string@DU?$char_traits@D@std@@V?$allocator@D@2@@std@@@std@@QAE@$$QAV?$basic_string@DU?$char_traits@D@std@@V?$allocator@D@2@@1@@Z
_TEXT	SEGMENT
__This_arg$ = 8						; size = 4
??$?0V?$basic_string@DU?$char_traits@D@std@@V?$allocator@D@2@@std@@$$V$0A@@?$tuple@$$QAV?$basic_string@DU?$char_traits@D@std@@V?$allocator@D@2@@std@@@std@@QAE@$$QAV?$basic_string@DU?$char_traits@D@std@@V?$allocator@D@2@@1@@Z PROC ; std::tuple<std::basic_string<char,std::char_traits<char>,std::allocator<char> > &&>::tuple<std::basic_string<char,std::char_traits<char>,std::allocator<char> > &&><std::basic_string<char,std::char_traits<char>,std::allocator<char> >,0>, COMDAT
; _this$ = ecx

; 469  : 		{	// construct from one or more moved elements

  00000	55		 push	 ebp
  00001	8b ec		 mov	 ebp, esp

; 468  : 			_Myfirst(_STD forward<_This2>(_This_arg))

  00003	8b 45 08	 mov	 eax, DWORD PTR __This_arg$[ebp]
  00006	89 01		 mov	 DWORD PTR [ecx], eax

; 470  : 		}

  00008	8b c1		 mov	 eax, ecx
  0000a	5d		 pop	 ebp
  0000b	c2 04 00	 ret	 4
??$?0V?$basic_string@DU?$char_traits@D@std@@V?$allocator@D@2@@std@@$$V$0A@@?$tuple@$$QAV?$basic_string@DU?$char_traits@D@std@@V?$allocator@D@2@@std@@@std@@QAE@$$QAV?$basic_string@DU?$char_traits@D@std@@V?$allocator@D@2@@1@@Z ENDP ; std::tuple<std::basic_string<char,std::char_traits<char>,std::allocator<char> > &&>::tuple<std::basic_string<char,std::char_traits<char>,std::allocator<char> > &&><std::basic_string<char,std::char_traits<char>,std::allocator<char> >,0>
_TEXT	ENDS
; Function compile flags: /Ogtp
; File c:\program files (x86)\microsoft visual studio 14.0\vc\include\type_traits
;	COMDAT ??$forward@AAV?$_Tree_iterator@V?$_Tree_val@U?$_Tree_simple_types@U?$pair@$$CBHPAX@std@@@std@@@std@@@std@@@std@@YAAAV?$_Tree_iterator@V?$_Tree_val@U?$_Tree_simple_types@U?$pair@$$CBHPAX@std@@@std@@@std@@@0@AAV10@@Z
_TEXT	SEGMENT
__Arg$ = 8						; size = 4
??$forward@AAV?$_Tree_iterator@V?$_Tree_val@U?$_Tree_simple_types@U?$pair@$$CBHPAX@std@@@std@@@std@@@std@@@std@@YAAAV?$_Tree_iterator@V?$_Tree_val@U?$_Tree_simple_types@U?$pair@$$CBHPAX@std@@@std@@@std@@@0@AAV10@@Z PROC ; std::forward<std::_Tree_iterator<std::_Tree_val<std::_Tree_simple_types<std::pair<int const ,void *> > > > &>, COMDAT

; 1275 : 	{	// forward an lvalue as either an lvalue or an rvalue

  00000	55		 push	 ebp
  00001	8b ec		 mov	 ebp, esp

; 1276 : 	return (static_cast<_Ty&&>(_Arg));

  00003	8b 45 08	 mov	 eax, DWORD PTR __Arg$[ebp]

; 1277 : 	}

  00006	5d		 pop	 ebp
  00007	c3		 ret	 0
??$forward@AAV?$_Tree_iterator@V?$_Tree_val@U?$_Tree_simple_types@U?$pair@$$CBHPAX@std@@@std@@@std@@@std@@@std@@YAAAV?$_Tree_iterator@V?$_Tree_val@U?$_Tree_simple_types@U?$pair@$$CBHPAX@std@@@std@@@std@@@0@AAV10@@Z ENDP ; std::forward<std::_Tree_iterator<std::_Tree_val<std::_Tree_simple_types<std::pair<int const ,void *> > > > &>
_TEXT	ENDS
; Function compile flags: /Ogtp
; File c:\program files (x86)\microsoft visual studio 14.0\vc\include\type_traits
;	COMDAT ??$forward@_N@std@@YA$$QA_NAA_N@Z
_TEXT	SEGMENT
__Arg$ = 8						; size = 4
??$forward@_N@std@@YA$$QA_NAA_N@Z PROC			; std::forward<bool>, COMDAT

; 1275 : 	{	// forward an lvalue as either an lvalue or an rvalue

  00000	55		 push	 ebp
  00001	8b ec		 mov	 ebp, esp

; 1276 : 	return (static_cast<_Ty&&>(_Arg));

  00003	8b 45 08	 mov	 eax, DWORD PTR __Arg$[ebp]

; 1277 : 	}

  00006	5d		 pop	 ebp
  00007	c3		 ret	 0
??$forward@_N@std@@YA$$QA_NAA_N@Z ENDP			; std::forward<bool>
_TEXT	ENDS
; Function compile flags: /Ogtp
; File c:\program files (x86)\microsoft visual studio 14.0\vc\include\type_traits
;	COMDAT ??$forward@V?$_Tree_iterator@V?$_Tree_val@U?$_Tree_simple_types@U?$pair@$$CBHPAX@std@@@std@@@std@@@std@@@std@@YA$$QAV?$_Tree_iterator@V?$_Tree_val@U?$_Tree_simple_types@U?$pair@$$CBHPAX@std@@@std@@@std@@@0@AAV10@@Z
_TEXT	SEGMENT
__Arg$ = 8						; size = 4
??$forward@V?$_Tree_iterator@V?$_Tree_val@U?$_Tree_simple_types@U?$pair@$$CBHPAX@std@@@std@@@std@@@std@@@std@@YA$$QAV?$_Tree_iterator@V?$_Tree_val@U?$_Tree_simple_types@U?$pair@$$CBHPAX@std@@@std@@@std@@@0@AAV10@@Z PROC ; std::forward<std::_Tree_iterator<std::_Tree_val<std::_Tree_simple_types<std::pair<int const ,void *> > > > >, COMDAT

; 1275 : 	{	// forward an lvalue as either an lvalue or an rvalue

  00000	55		 push	 ebp
  00001	8b ec		 mov	 ebp, esp

; 1276 : 	return (static_cast<_Ty&&>(_Arg));

  00003	8b 45 08	 mov	 eax, DWORD PTR __Arg$[ebp]

; 1277 : 	}

  00006	5d		 pop	 ebp
  00007	c3		 ret	 0
??$forward@V?$_Tree_iterator@V?$_Tree_val@U?$_Tree_simple_types@U?$pair@$$CBHPAX@std@@@std@@@std@@@std@@@std@@YA$$QAV?$_Tree_iterator@V?$_Tree_val@U?$_Tree_simple_types@U?$pair@$$CBHPAX@std@@@std@@@std@@@0@AAV10@@Z ENDP ; std::forward<std::_Tree_iterator<std::_Tree_val<std::_Tree_simple_types<std::pair<int const ,void *> > > > >
_TEXT	ENDS
; Function compile flags: /Ogtp
; File c:\program files (x86)\microsoft visual studio 14.0\vc\include\xtree
;	COMDAT ??$_Insert_hint@AAU?$pair@$$CBHPAX@std@@PAU?$_Tree_node@U?$pair@$$CBHPAX@std@@PAX@2@@?$_Tree@V?$_Tmap_traits@HPAXU?$less@H@std@@V?$allocator@U?$pair@$$CBHPAX@std@@@2@$0A@@std@@@std@@IAE?AV?$_Tree_iterator@V?$_Tree_val@U?$_Tree_simple_types@U?$pair@$$CBHPAX@std@@@std@@@std@@@1@V?$_Tree_const_iterator@V?$_Tree_val@U?$_Tree_simple_types@U?$pair@$$CBHPAX@std@@@std@@@std@@@1@AAU?$pair@$$CBHPAX@1@PAU?$_Tree_node@U?$pair@$$CBHPAX@std@@PAX@1@@Z
_TEXT	SEGMENT
$T2 = -28						; size = 8
_this$1$ = -20						; size = 4
__$EHRec$ = -16						; size = 16
___$ReturnUdt$ = 8					; size = 4
__Where$ = 12						; size = 4
__Next$ = 16						; size = 4
__Val$ = 16						; size = 4
__Newnode$ = 20						; size = 4
??$_Insert_hint@AAU?$pair@$$CBHPAX@std@@PAU?$_Tree_node@U?$pair@$$CBHPAX@std@@PAX@2@@?$_Tree@V?$_Tmap_traits@HPAXU?$less@H@std@@V?$allocator@U?$pair@$$CBHPAX@std@@@2@$0A@@std@@@std@@IAE?AV?$_Tree_iterator@V?$_Tree_val@U?$_Tree_simple_types@U?$pair@$$CBHPAX@std@@@std@@@std@@@1@V?$_Tree_const_iterator@V?$_Tree_val@U?$_Tree_simple_types@U?$pair@$$CBHPAX@std@@@std@@@std@@@1@AAU?$pair@$$CBHPAX@1@PAU?$_Tree_node@U?$pair@$$CBHPAX@std@@PAX@1@@Z PROC ; std::_Tree<std::_Tmap_traits<int,void *,std::less<int>,std::allocator<std::pair<int const ,void *> >,0> >::_Insert_hint<std::pair<int const ,void *> &,std::_Tree_node<std::pair<int const ,void *>,void *> *>, COMDAT
; _this$ = ecx

; 1655 : 		{	// try to insert node using _Where as a hint

  00000	55		 push	 ebp
  00001	8b ec		 mov	 ebp, esp
  00003	6a ff		 push	 -1
  00005	68 00 00 00 00	 push	 __ehhandler$??$_Insert_hint@AAU?$pair@$$CBHPAX@std@@PAU?$_Tree_node@U?$pair@$$CBHPAX@std@@PAX@2@@?$_Tree@V?$_Tmap_traits@HPAXU?$less@H@std@@V?$allocator@U?$pair@$$CBHPAX@std@@@2@$0A@@std@@@std@@IAE?AV?$_Tree_iterator@V?$_Tree_val@U?$_Tree_simple_types@U?$pair@$$CBHPAX@std@@@std@@@std@@@1@V?$_Tree_const_iterator@V?$_Tree_val@U?$_Tree_simple_types@U?$pair@$$CBHPAX@std@@@std@@@std@@@1@AAU?$pair@$$CBHPAX@1@PAU?$_Tree_node@U?$pair@$$CBHPAX@std@@PAX@1@@Z
  0000a	64 a1 00 00 00
	00		 mov	 eax, DWORD PTR fs:0
  00010	50		 push	 eax
  00011	83 ec 10	 sub	 esp, 16			; 00000010H
  00014	53		 push	 ebx
  00015	56		 push	 esi
  00016	57		 push	 edi
  00017	a1 00 00 00 00	 mov	 eax, DWORD PTR ___security_cookie
  0001c	33 c5		 xor	 eax, ebp
  0001e	50		 push	 eax
  0001f	8d 45 f4	 lea	 eax, DWORD PTR __$EHRec$[ebp+4]
  00022	64 a3 00 00 00
	00		 mov	 DWORD PTR fs:0, eax
  00028	89 65 f0	 mov	 DWORD PTR __$EHRec$[ebp], esp
  0002b	89 4d ec	 mov	 DWORD PTR _this$1$[ebp], ecx

; 1656 : 		const_iterator _Next;
; 1657 : 		bool _Leftish = false;	// assume nearest point is end of sequence
; 1658 : 
; 1659 : 		_TRY_BEGIN
; 1660 : 
; 1661 :  #if _ITERATOR_DEBUG_LEVEL == 2
; 1662 : 		if (_Where._Getcont() != &this->_Get_data())
; 1663 : 			_DEBUG_ERROR("map/set insert iterator outside range");
; 1664 :  #endif /* _ITERATOR_DEBUG_LEVEL == 2 */
; 1665 : 
; 1666 : 		if (size() == 0)

  0002e	83 79 04 00	 cmp	 DWORD PTR [ecx+4], 0
  00032	c7 45 fc 00 00
	00 00		 mov	 DWORD PTR __$EHRec$[ebp+12], 0
  00039	75 29		 jne	 SHORT $LN3@Insert_hin

; 1667 : 			return (_Insert_at(true, this->_Myhead(),

  0003b	ff 75 14	 push	 DWORD PTR __Newnode$[ebp]
  0003e	8b 75 08	 mov	 esi, DWORD PTR ___$ReturnUdt$[ebp]
  00041	ff 75 10	 push	 DWORD PTR __Val$[ebp]
  00044	ff 31		 push	 DWORD PTR [ecx]
  00046	6a 01		 push	 1
  00048	56		 push	 esi
  00049	e8 00 00 00 00	 call	 ??$_Insert_at@AAU?$pair@$$CBHPAX@std@@PAU?$_Tree_node@U?$pair@$$CBHPAX@std@@PAX@2@@?$_Tree@V?$_Tmap_traits@HPAXU?$less@H@std@@V?$allocator@U?$pair@$$CBHPAX@std@@@2@$0A@@std@@@std@@IAE?AV?$_Tree_iterator@V?$_Tree_val@U?$_Tree_simple_types@U?$pair@$$CBHPAX@std@@@std@@@std@@@1@_NPAU?$_Tree_node@U?$pair@$$CBHPAX@std@@PAX@1@AAU?$pair@$$CBHPAX@1@1@Z ; std::_Tree<std::_Tmap_traits<int,void *,std::less<int>,std::allocator<std::pair<int const ,void *> >,0> >::_Insert_at<std::pair<int const ,void *> &,std::_Tree_node<std::pair<int const ,void *>,void *> *>
  0004e	8b c6		 mov	 eax, esi

; 1764 : 			_STD forward<_Valty>(_Val), _Newnode).first);
; 1765 : 		}

  00050	8b 4d f4	 mov	 ecx, DWORD PTR __$EHRec$[ebp+4]
  00053	64 89 0d 00 00
	00 00		 mov	 DWORD PTR fs:0, ecx
  0005a	59		 pop	 ecx
  0005b	5f		 pop	 edi
  0005c	5e		 pop	 esi
  0005d	5b		 pop	 ebx
  0005e	8b e5		 mov	 esp, ebp
  00060	5d		 pop	 ebp
  00061	c2 10 00	 ret	 16			; 00000010H
$LN3@Insert_hin:

; 1668 : 				_STD forward<_Valty>(_Val), _Newnode));	// empty tree
; 1669 : 		else if (this->_Multi)
; 1670 : 			{	// insert even if duplicate
; 1671 : 			if (_Where == begin())
; 1672 : 				{	// insert at beginning if before first element
; 1673 : 				if (!_DEBUG_LT_PRED(this->_Getcomp(),
; 1674 : 					this->_Key(_Where._Mynode()), this->_Kfn(_Val)))
; 1675 : 					return (_Insert_at(true, _Where._Mynode(),
; 1676 : 						_STD forward<_Valty>(_Val), _Newnode));
; 1677 : 				_Leftish = true;	// nearest point is beginning of sequence
; 1678 : 				}
; 1679 : 			else if (_Where == end())
; 1680 : 				{	// insert at end if after last element
; 1681 : 				if (!_DEBUG_LT_PRED(this->_Getcomp(),
; 1682 : 					this->_Kfn(_Val), this->_Key(_Rmost())))
; 1683 : 					return (_Insert_at(false, _Rmost(),
; 1684 : 						_STD forward<_Valty>(_Val), _Newnode));
; 1685 : 				}
; 1686 : 			else if (!_DEBUG_LT_PRED(this->_Getcomp(),
; 1687 : 				this->_Key(_Where._Mynode()), this->_Kfn(_Val))
; 1688 : 				&& !_DEBUG_LT_PRED(this->_Getcomp(),
; 1689 : 					this->_Kfn(_Val),
; 1690 : 					this->_Key((--(_Next = _Where))._Mynode())))
; 1691 : 				{	// insert before _Where
; 1692 : 				if (this->_Isnil(this->_Right(_Next._Mynode())))
; 1693 : 					return (_Insert_at(false, _Next._Mynode(),
; 1694 : 						_STD forward<_Valty>(_Val), _Newnode));
; 1695 : 				else
; 1696 : 					return (_Insert_at(true, _Where._Mynode(),
; 1697 : 						_STD forward<_Valty>(_Val), _Newnode));
; 1698 : 				}
; 1699 : 			else if (!_DEBUG_LT_PRED(this->_Getcomp(),
; 1700 : 				this->_Kfn(_Val), this->_Key(_Where._Mynode()))
; 1701 : 				&& (++(_Next = _Where) == end()
; 1702 : 					|| !_DEBUG_LT_PRED(this->_Getcomp(),
; 1703 : 						this->_Key(_Next._Mynode()), this->_Kfn(_Val))))
; 1704 : 				{	// insert after _Where
; 1705 : 				if (this->_Isnil(this->_Right(_Where._Mynode())))
; 1706 : 					return (_Insert_at(false, _Where._Mynode(),
; 1707 : 						_STD forward<_Valty>(_Val), _Newnode));
; 1708 : 				else
; 1709 : 					return (_Insert_at(true, _Next._Mynode(),
; 1710 : 						_STD forward<_Valty>(_Val), _Newnode));
; 1711 : 				}
; 1712 : 			else
; 1713 : 				_Leftish = true;	// nearest point is beginning of sequence
; 1714 : 			}
; 1715 : 		else
; 1716 : 			{	// insert only if unique
; 1717 : 			if (_Where == begin())

  00064	8b 39		 mov	 edi, DWORD PTR [ecx]
  00066	8b 75 0c	 mov	 esi, DWORD PTR __Where$[ebp]

; 1718 : 				{	// insert at beginning if before first element
; 1719 : 				if (_DEBUG_LT_PRED(this->_Getcomp(),

  00069	8b 5d 10	 mov	 ebx, DWORD PTR __Val$[ebp]
  0006c	3b 37		 cmp	 esi, DWORD PTR [edi]
  0006e	75 31		 jne	 SHORT $LN22@Insert_hin
  00070	8b 03		 mov	 eax, DWORD PTR [ebx]
  00072	3b 46 10	 cmp	 eax, DWORD PTR [esi+16]
  00075	0f 8d 40 01 00
	00		 jge	 $LN35@Insert_hin

; 1720 : 					this->_Kfn(_Val), this->_Key(_Where._Mynode())))
; 1721 : 					return (_Insert_at(true, _Where._Mynode(),

  0007b	ff 75 14	 push	 DWORD PTR __Newnode$[ebp]
  0007e	53		 push	 ebx
$LN30@Insert_hin:
  0007f	56		 push	 esi
  00080	8b 75 08	 mov	 esi, DWORD PTR ___$ReturnUdt$[ebp]
  00083	6a 01		 push	 1
  00085	56		 push	 esi
  00086	e8 00 00 00 00	 call	 ??$_Insert_at@AAU?$pair@$$CBHPAX@std@@PAU?$_Tree_node@U?$pair@$$CBHPAX@std@@PAX@2@@?$_Tree@V?$_Tmap_traits@HPAXU?$less@H@std@@V?$allocator@U?$pair@$$CBHPAX@std@@@2@$0A@@std@@@std@@IAE?AV?$_Tree_iterator@V?$_Tree_val@U?$_Tree_simple_types@U?$pair@$$CBHPAX@std@@@std@@@std@@@1@_NPAU?$_Tree_node@U?$pair@$$CBHPAX@std@@PAX@1@AAU?$pair@$$CBHPAX@1@1@Z ; std::_Tree<std::_Tmap_traits<int,void *,std::less<int>,std::allocator<std::pair<int const ,void *> >,0> >::_Insert_at<std::pair<int const ,void *> &,std::_Tree_node<std::pair<int const ,void *>,void *> *>
  0008b	8b c6		 mov	 eax, esi

; 1764 : 			_STD forward<_Valty>(_Val), _Newnode).first);
; 1765 : 		}

  0008d	8b 4d f4	 mov	 ecx, DWORD PTR __$EHRec$[ebp+4]
  00090	64 89 0d 00 00
	00 00		 mov	 DWORD PTR fs:0, ecx
  00097	59		 pop	 ecx
  00098	5f		 pop	 edi
  00099	5e		 pop	 esi
  0009a	5b		 pop	 ebx
  0009b	8b e5		 mov	 esp, ebp
  0009d	5d		 pop	 ebp
  0009e	c2 10 00	 ret	 16			; 00000010H
$LN22@Insert_hin:

; 1722 : 						_STD forward<_Valty>(_Val), _Newnode));
; 1723 : 				}
; 1724 : 			else if (_Where == end())

  000a1	3b f7		 cmp	 esi, edi
  000a3	75 34		 jne	 SHORT $LN25@Insert_hin

; 1725 : 				{	// insert at end if after last element
; 1726 : 				if (_DEBUG_LT_PRED(this->_Getcomp(),

  000a5	8b 57 08	 mov	 edx, DWORD PTR [edi+8]
  000a8	8b 42 10	 mov	 eax, DWORD PTR [edx+16]
  000ab	3b 03		 cmp	 eax, DWORD PTR [ebx]
  000ad	0f 8d 08 01 00
	00		 jge	 $LN35@Insert_hin

; 1727 : 					this->_Key(_Rmost()), this->_Kfn(_Val)))
; 1728 : 					return (_Insert_at(false, _Rmost(),

  000b3	ff 75 14	 push	 DWORD PTR __Newnode$[ebp]
  000b6	8b 75 08	 mov	 esi, DWORD PTR ___$ReturnUdt$[ebp]
  000b9	53		 push	 ebx
  000ba	52		 push	 edx
  000bb	6a 00		 push	 0
  000bd	56		 push	 esi
  000be	e8 00 00 00 00	 call	 ??$_Insert_at@AAU?$pair@$$CBHPAX@std@@PAU?$_Tree_node@U?$pair@$$CBHPAX@std@@PAX@2@@?$_Tree@V?$_Tmap_traits@HPAXU?$less@H@std@@V?$allocator@U?$pair@$$CBHPAX@std@@@2@$0A@@std@@@std@@IAE?AV?$_Tree_iterator@V?$_Tree_val@U?$_Tree_simple_types@U?$pair@$$CBHPAX@std@@@std@@@std@@@1@_NPAU?$_Tree_node@U?$pair@$$CBHPAX@std@@PAX@1@AAU?$pair@$$CBHPAX@1@1@Z ; std::_Tree<std::_Tmap_traits<int,void *,std::less<int>,std::allocator<std::pair<int const ,void *> >,0> >::_Insert_at<std::pair<int const ,void *> &,std::_Tree_node<std::pair<int const ,void *>,void *> *>
  000c3	8b c6		 mov	 eax, esi

; 1764 : 			_STD forward<_Valty>(_Val), _Newnode).first);
; 1765 : 		}

  000c5	8b 4d f4	 mov	 ecx, DWORD PTR __$EHRec$[ebp+4]
  000c8	64 89 0d 00 00
	00 00		 mov	 DWORD PTR fs:0, ecx
  000cf	59		 pop	 ecx
  000d0	5f		 pop	 edi
  000d1	5e		 pop	 esi
  000d2	5b		 pop	 ebx
  000d3	8b e5		 mov	 esp, ebp
  000d5	5d		 pop	 ebp
  000d6	c2 10 00	 ret	 16			; 00000010H
$LN25@Insert_hin:

; 1729 : 						_STD forward<_Valty>(_Val), _Newnode));
; 1730 : 				}
; 1731 : 			else if (_DEBUG_LT_PRED(this->_Getcomp(),
; 1732 : 				this->_Kfn(_Val), this->_Key(_Where._Mynode()))
; 1733 : 				&& _DEBUG_LT_PRED(this->_Getcomp(),

  000d9	8b 03		 mov	 eax, DWORD PTR [ebx]
  000db	8b 4e 10	 mov	 ecx, DWORD PTR [esi+16]
  000de	3b c8		 cmp	 ecx, eax
  000e0	7e 52		 jle	 SHORT $LN800@Insert_hin
  000e2	8d 4d 10	 lea	 ecx, DWORD PTR __Next$[ebp]
  000e5	89 75 10	 mov	 DWORD PTR __Next$[ebp], esi
  000e8	e8 00 00 00 00	 call	 ??F?$_Tree_unchecked_const_iterator@V?$_Tree_val@U?$_Tree_simple_types@U?$pair@$$CBHPAX@std@@@std@@@std@@U_Iterator_base0@2@@std@@QAEAAV01@XZ ; std::_Tree_unchecked_const_iterator<std::_Tree_val<std::_Tree_simple_types<std::pair<int const ,void *> > >,std::_Iterator_base0>::operator--
  000ed	8b 45 10	 mov	 eax, DWORD PTR __Next$[ebp]
  000f0	8b 0b		 mov	 ecx, DWORD PTR [ebx]
  000f2	39 48 10	 cmp	 DWORD PTR [eax+16], ecx
  000f5	7d 36		 jge	 SHORT $LN797@Insert_hin

; 1734 : 					this->_Key((--(_Next = _Where))._Mynode()),
; 1735 : 					this->_Kfn(_Val)))
; 1736 : 				{	// insert before _Where
; 1737 : 				if (this->_Isnil(this->_Right(_Next._Mynode())))

  000f7	8b 48 08	 mov	 ecx, DWORD PTR [eax+8]

; 1738 : 					return (_Insert_at(false, _Next._Mynode(),

  000fa	ff 75 14	 push	 DWORD PTR __Newnode$[ebp]
  000fd	53		 push	 ebx
  000fe	80 79 0d 00	 cmp	 BYTE PTR [ecx+13], 0
  00102	8b 4d ec	 mov	 ecx, DWORD PTR _this$1$[ebp]
  00105	0f 84 74 ff ff
	ff		 je	 $LN30@Insert_hin
  0010b	8b 75 08	 mov	 esi, DWORD PTR ___$ReturnUdt$[ebp]
  0010e	50		 push	 eax
  0010f	6a 00		 push	 0
  00111	56		 push	 esi
  00112	e8 00 00 00 00	 call	 ??$_Insert_at@AAU?$pair@$$CBHPAX@std@@PAU?$_Tree_node@U?$pair@$$CBHPAX@std@@PAX@2@@?$_Tree@V?$_Tmap_traits@HPAXU?$less@H@std@@V?$allocator@U?$pair@$$CBHPAX@std@@@2@$0A@@std@@@std@@IAE?AV?$_Tree_iterator@V?$_Tree_val@U?$_Tree_simple_types@U?$pair@$$CBHPAX@std@@@std@@@std@@@1@_NPAU?$_Tree_node@U?$pair@$$CBHPAX@std@@PAX@1@AAU?$pair@$$CBHPAX@1@1@Z ; std::_Tree<std::_Tmap_traits<int,void *,std::less<int>,std::allocator<std::pair<int const ,void *> >,0> >::_Insert_at<std::pair<int const ,void *> &,std::_Tree_node<std::pair<int const ,void *>,void *> *>
  00117	8b c6		 mov	 eax, esi

; 1764 : 			_STD forward<_Valty>(_Val), _Newnode).first);
; 1765 : 		}

  00119	8b 4d f4	 mov	 ecx, DWORD PTR __$EHRec$[ebp+4]
  0011c	64 89 0d 00 00
	00 00		 mov	 DWORD PTR fs:0, ecx
  00123	59		 pop	 ecx
  00124	5f		 pop	 edi
  00125	5e		 pop	 esi
  00126	5b		 pop	 ebx
  00127	8b e5		 mov	 esp, ebp
  00129	5d		 pop	 ebp
  0012a	c2 10 00	 ret	 16			; 00000010H
$LN797@Insert_hin:
  0012d	8b c1		 mov	 eax, ecx
  0012f	8b 4e 10	 mov	 ecx, DWORD PTR [esi+16]

; 1739 : 						_STD forward<_Valty>(_Val), _Newnode));
; 1740 : 				else
; 1741 : 					return (_Insert_at(true, _Where._Mynode(),
; 1742 : 						_STD forward<_Valty>(_Val), _Newnode));
; 1743 : 				}
; 1744 : 			else if (_DEBUG_LT_PRED(this->_Getcomp(),
; 1745 : 				this->_Key(_Where._Mynode()), this->_Kfn(_Val))
; 1746 : 				&& (++(_Next = _Where) == end()

  00132	3b c8		 cmp	 ecx, eax
$LN800@Insert_hin:
  00134	0f 8d 81 00 00
	00		 jge	 $LN35@Insert_hin
  0013a	8d 4d 10	 lea	 ecx, DWORD PTR __Next$[ebp]
  0013d	89 75 10	 mov	 DWORD PTR __Next$[ebp], esi
  00140	e8 00 00 00 00	 call	 ??E?$_Tree_unchecked_const_iterator@V?$_Tree_val@U?$_Tree_simple_types@U?$pair@$$CBHPAX@std@@@std@@@std@@U_Iterator_base0@2@@std@@QAEAAV01@XZ ; std::_Tree_unchecked_const_iterator<std::_Tree_val<std::_Tree_simple_types<std::pair<int const ,void *> > >,std::_Iterator_base0>::operator++
  00145	8b 45 10	 mov	 eax, DWORD PTR __Next$[ebp]
  00148	3b c7		 cmp	 eax, edi
  0014a	74 07		 je	 SHORT $LN33@Insert_hin
  0014c	8b 0b		 mov	 ecx, DWORD PTR [ebx]
  0014e	3b 48 10	 cmp	 ecx, DWORD PTR [eax+16]
  00151	7d 68		 jge	 SHORT $LN35@Insert_hin
$LN33@Insert_hin:

; 1747 : 					|| _DEBUG_LT_PRED(this->_Getcomp(),
; 1748 : 						this->_Kfn(_Val), this->_Key(_Next._Mynode()))))
; 1749 : 				{	// insert after _Where
; 1750 : 				if (this->_Isnil(this->_Right(_Where._Mynode())))

  00153	8b 4e 08	 mov	 ecx, DWORD PTR [esi+8]

; 1751 : 					return (_Insert_at(false, _Where._Mynode(),

  00156	ff 75 14	 push	 DWORD PTR __Newnode$[ebp]
  00159	53		 push	 ebx
  0015a	80 79 0d 00	 cmp	 BYTE PTR [ecx+13], 0
  0015e	8b 4d ec	 mov	 ecx, DWORD PTR _this$1$[ebp]
  00161	74 22		 je	 SHORT $LN34@Insert_hin
  00163	56		 push	 esi
  00164	8b 75 08	 mov	 esi, DWORD PTR ___$ReturnUdt$[ebp]
  00167	6a 00		 push	 0
  00169	56		 push	 esi
  0016a	e8 00 00 00 00	 call	 ??$_Insert_at@AAU?$pair@$$CBHPAX@std@@PAU?$_Tree_node@U?$pair@$$CBHPAX@std@@PAX@2@@?$_Tree@V?$_Tmap_traits@HPAXU?$less@H@std@@V?$allocator@U?$pair@$$CBHPAX@std@@@2@$0A@@std@@@std@@IAE?AV?$_Tree_iterator@V?$_Tree_val@U?$_Tree_simple_types@U?$pair@$$CBHPAX@std@@@std@@@std@@@1@_NPAU?$_Tree_node@U?$pair@$$CBHPAX@std@@PAX@1@AAU?$pair@$$CBHPAX@1@1@Z ; std::_Tree<std::_Tmap_traits<int,void *,std::less<int>,std::allocator<std::pair<int const ,void *> >,0> >::_Insert_at<std::pair<int const ,void *> &,std::_Tree_node<std::pair<int const ,void *>,void *> *>
  0016f	8b c6		 mov	 eax, esi

; 1764 : 			_STD forward<_Valty>(_Val), _Newnode).first);
; 1765 : 		}

  00171	8b 4d f4	 mov	 ecx, DWORD PTR __$EHRec$[ebp+4]
  00174	64 89 0d 00 00
	00 00		 mov	 DWORD PTR fs:0, ecx
  0017b	59		 pop	 ecx
  0017c	5f		 pop	 edi
  0017d	5e		 pop	 esi
  0017e	5b		 pop	 ebx
  0017f	8b e5		 mov	 esp, ebp
  00181	5d		 pop	 ebp
  00182	c2 10 00	 ret	 16			; 00000010H
$LN34@Insert_hin:

; 1752 : 						_STD forward<_Valty>(_Val), _Newnode));
; 1753 : 				else
; 1754 : 					return (_Insert_at(true, _Next._Mynode(),

  00185	8b 75 08	 mov	 esi, DWORD PTR ___$ReturnUdt$[ebp]
  00188	50		 push	 eax
  00189	6a 01		 push	 1
  0018b	56		 push	 esi
  0018c	e8 00 00 00 00	 call	 ??$_Insert_at@AAU?$pair@$$CBHPAX@std@@PAU?$_Tree_node@U?$pair@$$CBHPAX@std@@PAX@2@@?$_Tree@V?$_Tmap_traits@HPAXU?$less@H@std@@V?$allocator@U?$pair@$$CBHPAX@std@@@2@$0A@@std@@@std@@IAE?AV?$_Tree_iterator@V?$_Tree_val@U?$_Tree_simple_types@U?$pair@$$CBHPAX@std@@@std@@@std@@@1@_NPAU?$_Tree_node@U?$pair@$$CBHPAX@std@@PAX@1@AAU?$pair@$$CBHPAX@1@1@Z ; std::_Tree<std::_Tmap_traits<int,void *,std::less<int>,std::allocator<std::pair<int const ,void *> >,0> >::_Insert_at<std::pair<int const ,void *> &,std::_Tree_node<std::pair<int const ,void *>,void *> *>
  00191	8b c6		 mov	 eax, esi

; 1764 : 			_STD forward<_Valty>(_Val), _Newnode).first);
; 1765 : 		}

  00193	8b 4d f4	 mov	 ecx, DWORD PTR __$EHRec$[ebp+4]
  00196	64 89 0d 00 00
	00 00		 mov	 DWORD PTR fs:0, ecx
  0019d	59		 pop	 ecx
  0019e	5f		 pop	 edi
  0019f	5e		 pop	 esi
  001a0	5b		 pop	 ebx
  001a1	8b e5		 mov	 esp, ebp
  001a3	5d		 pop	 ebp
  001a4	c2 10 00	 ret	 16			; 00000010H
__catch$??$_Insert_hint@AAU?$pair@$$CBHPAX@std@@PAU?$_Tree_node@U?$pair@$$CBHPAX@std@@PAX@2@@?$_Tree@V?$_Tmap_traits@HPAXU?$less@H@std@@V?$allocator@U?$pair@$$CBHPAX@std@@@2@$0A@@std@@@std@@IAE?AV?$_Tree_iterator@V?$_Tree_val@U?$_Tree_simple_types@U?$pair@$$CBHPAX@std@@@std@@@std@@@1@V?$_Tree_const_iterator@V?$_Tree_val@U?$_Tree_simple_types@U?$pair@$$CBHPAX@std@@@std@@@std@@@1@AAU?$pair@$$CBHPAX@1@PAU?$_Tree_node@U?$pair@$$CBHPAX@std@@PAX@1@@Z$0:

; 1755 : 						_STD forward<_Valty>(_Val), _Newnode));
; 1756 : 				}
; 1757 : 			}
; 1758 : 		_CATCH_ALL
; 1759 : 		_Destroy_if_not_nil(_Newnode);

  001a7	ff 75 14	 push	 DWORD PTR __Newnode$[ebp]
  001aa	e8 00 00 00 00	 call	 ??3@YAXPAX@Z		; operator delete
  001af	83 c4 04	 add	 esp, 4

; 1760 : 		_RERAISE;

  001b2	6a 00		 push	 0
  001b4	6a 00		 push	 0
  001b6	e8 00 00 00 00	 call	 __CxxThrowException@8
$LN801@Insert_hin:
$LN35@Insert_hin:

; 1761 : 		_CATCH_END
; 1762 : 
; 1763 : 		return (_Insert_nohint(_Leftish,

  001bb	ff 75 14	 push	 DWORD PTR __Newnode$[ebp]
  001be	8b 4d ec	 mov	 ecx, DWORD PTR _this$1$[ebp]
  001c1	8d 45 e4	 lea	 eax, DWORD PTR $T2[ebp]
  001c4	53		 push	 ebx
  001c5	6a 00		 push	 0
  001c7	50		 push	 eax
  001c8	c7 45 fc ff ff
	ff ff		 mov	 DWORD PTR __$EHRec$[ebp+12], -1
  001cf	e8 00 00 00 00	 call	 ??$_Insert_nohint@AAU?$pair@$$CBHPAX@std@@PAU?$_Tree_node@U?$pair@$$CBHPAX@std@@PAX@2@@?$_Tree@V?$_Tmap_traits@HPAXU?$less@H@std@@V?$allocator@U?$pair@$$CBHPAX@std@@@2@$0A@@std@@@std@@IAE?AU?$pair@V?$_Tree_iterator@V?$_Tree_val@U?$_Tree_simple_types@U?$pair@$$CBHPAX@std@@@std@@@std@@@std@@_N@1@_NAAU?$pair@$$CBHPAX@1@PAU?$_Tree_node@U?$pair@$$CBHPAX@std@@PAX@1@@Z ; std::_Tree<std::_Tmap_traits<int,void *,std::less<int>,std::allocator<std::pair<int const ,void *> >,0> >::_Insert_nohint<std::pair<int const ,void *> &,std::_Tree_node<std::pair<int const ,void *>,void *> *>
  001d4	8b 08		 mov	 ecx, DWORD PTR [eax]
  001d6	8b 45 08	 mov	 eax, DWORD PTR ___$ReturnUdt$[ebp]
  001d9	89 08		 mov	 DWORD PTR [eax], ecx

; 1764 : 			_STD forward<_Valty>(_Val), _Newnode).first);
; 1765 : 		}

  001db	8b 4d f4	 mov	 ecx, DWORD PTR __$EHRec$[ebp+4]
  001de	64 89 0d 00 00
	00 00		 mov	 DWORD PTR fs:0, ecx
  001e5	59		 pop	 ecx
  001e6	5f		 pop	 edi
  001e7	5e		 pop	 esi
  001e8	5b		 pop	 ebx
  001e9	8b e5		 mov	 esp, ebp
  001eb	5d		 pop	 ebp
  001ec	c2 10 00	 ret	 16			; 00000010H
$LN799@Insert_hin:
_TEXT	ENDS
;	COMDAT text$x
text$x	SEGMENT
__ehhandler$??$_Insert_hint@AAU?$pair@$$CBHPAX@std@@PAU?$_Tree_node@U?$pair@$$CBHPAX@std@@PAX@2@@?$_Tree@V?$_Tmap_traits@HPAXU?$less@H@std@@V?$allocator@U?$pair@$$CBHPAX@std@@@2@$0A@@std@@@std@@IAE?AV?$_Tree_iterator@V?$_Tree_val@U?$_Tree_simple_types@U?$pair@$$CBHPAX@std@@@std@@@std@@@1@V?$_Tree_const_iterator@V?$_Tree_val@U?$_Tree_simple_types@U?$pair@$$CBHPAX@std@@@std@@@std@@@1@AAU?$pair@$$CBHPAX@1@PAU?$_Tree_node@U?$pair@$$CBHPAX@std@@PAX@1@@Z:
  00000	8b 54 24 08	 mov	 edx, DWORD PTR [esp+8]
  00004	8d 42 0c	 lea	 eax, DWORD PTR [edx+12]
  00007	8b 4a e0	 mov	 ecx, DWORD PTR [edx-32]
  0000a	33 c8		 xor	 ecx, eax
  0000c	e8 00 00 00 00	 call	 @__security_check_cookie@4
  00011	b8 00 00 00 00	 mov	 eax, OFFSET __ehfuncinfo$??$_Insert_hint@AAU?$pair@$$CBHPAX@std@@PAU?$_Tree_node@U?$pair@$$CBHPAX@std@@PAX@2@@?$_Tree@V?$_Tmap_traits@HPAXU?$less@H@std@@V?$allocator@U?$pair@$$CBHPAX@std@@@2@$0A@@std@@@std@@IAE?AV?$_Tree_iterator@V?$_Tree_val@U?$_Tree_simple_types@U?$pair@$$CBHPAX@std@@@std@@@std@@@1@V?$_Tree_const_iterator@V?$_Tree_val@U?$_Tree_simple_types@U?$pair@$$CBHPAX@std@@@std@@@std@@@1@AAU?$pair@$$CBHPAX@1@PAU?$_Tree_node@U?$pair@$$CBHPAX@std@@PAX@1@@Z
  00016	e9 00 00 00 00	 jmp	 ___CxxFrameHandler3
text$x	ENDS
??$_Insert_hint@AAU?$pair@$$CBHPAX@std@@PAU?$_Tree_node@U?$pair@$$CBHPAX@std@@PAX@2@@?$_Tree@V?$_Tmap_traits@HPAXU?$less@H@std@@V?$allocator@U?$pair@$$CBHPAX@std@@@2@$0A@@std@@@std@@IAE?AV?$_Tree_iterator@V?$_Tree_val@U?$_Tree_simple_types@U?$pair@$$CBHPAX@std@@@std@@@std@@@1@V?$_Tree_const_iterator@V?$_Tree_val@U?$_Tree_simple_types@U?$pair@$$CBHPAX@std@@@std@@@std@@@1@AAU?$pair@$$CBHPAX@1@PAU?$_Tree_node@U?$pair@$$CBHPAX@std@@PAX@1@@Z ENDP ; std::_Tree<std::_Tmap_traits<int,void *,std::less<int>,std::allocator<std::pair<int const ,void *> >,0> >::_Insert_hint<std::pair<int const ,void *> &,std::_Tree_node<std::pair<int const ,void *>,void *> *>
; Function compile flags: /Ogtp
; File c:\program files (x86)\microsoft visual studio 14.0\vc\include\xtree
;	COMDAT ??$_Buynode@ABUpiecewise_construct_t@std@@V?$tuple@ABH@2@V?$tuple@$$V@2@@?$_Tree_comp_alloc@V?$_Tmap_traits@HPAXU?$less@H@std@@V?$allocator@U?$pair@$$CBHPAX@std@@@2@$0A@@std@@@std@@QAEPAU?$_Tree_node@U?$pair@$$CBHPAX@std@@PAX@1@ABUpiecewise_construct_t@1@$$QAV?$tuple@ABH@1@$$QAV?$tuple@$$V@1@@Z
_TEXT	SEGMENT
_<_Val_0>$ = 8						; size = 4
_<_Val_1>$ = 12						; size = 4
_<_Val_2>$ = 16						; size = 4
??$_Buynode@ABUpiecewise_construct_t@std@@V?$tuple@ABH@2@V?$tuple@$$V@2@@?$_Tree_comp_alloc@V?$_Tmap_traits@HPAXU?$less@H@std@@V?$allocator@U?$pair@$$CBHPAX@std@@@2@$0A@@std@@@std@@QAEPAU?$_Tree_node@U?$pair@$$CBHPAX@std@@PAX@1@ABUpiecewise_construct_t@1@$$QAV?$tuple@ABH@1@$$QAV?$tuple@$$V@1@@Z PROC ; std::_Tree_comp_alloc<std::_Tmap_traits<int,void *,std::less<int>,std::allocator<std::pair<int const ,void *> >,0> >::_Buynode<std::piecewise_construct_t const &,std::tuple<int const &>,std::tuple<> >, COMDAT
; _this$ = ecx

; 880  : 		{	// allocate a node with defaults and set links and value

  00000	55		 push	 ebp
  00001	8b ec		 mov	 ebp, esp

; 881  : 		_Nodeptr _Pnode = _Buynode0();

  00003	e8 00 00 00 00	 call	 ?_Buynode0@?$_Tree_comp_alloc@V?$_Tmap_traits@HPAXU?$less@H@std@@V?$allocator@U?$pair@$$CBHPAX@std@@@2@$0A@@std@@@std@@QAEPAU?$_Tree_node@U?$pair@$$CBHPAX@std@@PAX@2@XZ ; std::_Tree_comp_alloc<std::_Tmap_traits<int,void *,std::less<int>,std::allocator<std::pair<int const ,void *> >,0> >::_Buynode0

; 882  : 
; 883  : 		this->_Color(_Pnode) = _Red;
; 884  : 		this->_Isnil(_Pnode) = false;
; 885  : 
; 886  : 		_TRY_BEGIN
; 887  : 		this->_Getal().construct(

  00008	8d 50 10	 lea	 edx, DWORD PTR [eax+16]
  0000b	66 c7 40 0c 00
	00		 mov	 WORD PTR [eax+12], 0
  00011	85 d2		 test	 edx, edx
  00013	74 10		 je	 SHORT $LN65@Buynode
  00015	8b 4d 0c	 mov	 ecx, DWORD PTR _<_Val_1>$[ebp]
  00018	8b 09		 mov	 ecx, DWORD PTR [ecx]
  0001a	8b 09		 mov	 ecx, DWORD PTR [ecx]
  0001c	89 0a		 mov	 DWORD PTR [edx], ecx
  0001e	c7 42 04 00 00
	00 00		 mov	 DWORD PTR [edx+4], 0
$LN65@Buynode:

; 888  : 			_STD addressof(_Myval(_Pnode)),
; 889  : 				_STD forward<_Valty>(_Val)...);
; 890  : 		_CATCH_ALL
; 891  : 		_Freenode0(_Pnode);
; 892  : 		_RERAISE;
; 893  : 		_CATCH_END
; 894  : 
; 895  : 		return (_Pnode);
; 896  : 		}

  00025	5d		 pop	 ebp
  00026	c2 0c 00	 ret	 12			; 0000000cH
??$_Buynode@ABUpiecewise_construct_t@std@@V?$tuple@ABH@2@V?$tuple@$$V@2@@?$_Tree_comp_alloc@V?$_Tmap_traits@HPAXU?$less@H@std@@V?$allocator@U?$pair@$$CBHPAX@std@@@2@$0A@@std@@@std@@QAEPAU?$_Tree_node@U?$pair@$$CBHPAX@std@@PAX@1@ABUpiecewise_construct_t@1@$$QAV?$tuple@ABH@1@$$QAV?$tuple@$$V@1@@Z ENDP ; std::_Tree_comp_alloc<std::_Tmap_traits<int,void *,std::less<int>,std::allocator<std::pair<int const ,void *> >,0> >::_Buynode<std::piecewise_construct_t const &,std::tuple<int const &>,std::tuple<> >
_TEXT	ENDS
; Function compile flags: /Ogtp
; File c:\program files (x86)\microsoft visual studio 14.0\vc\include\type_traits
;	COMDAT ??$forward@V?$tuple@$$V@std@@@std@@YA$$QAV?$tuple@$$V@0@AAV10@@Z
_TEXT	SEGMENT
__Arg$ = 8						; size = 4
??$forward@V?$tuple@$$V@std@@@std@@YA$$QAV?$tuple@$$V@0@AAV10@@Z PROC ; std::forward<std::tuple<> >, COMDAT

; 1275 : 	{	// forward an lvalue as either an lvalue or an rvalue

  00000	55		 push	 ebp
  00001	8b ec		 mov	 ebp, esp

; 1276 : 	return (static_cast<_Ty&&>(_Arg));

  00003	8b 45 08	 mov	 eax, DWORD PTR __Arg$[ebp]

; 1277 : 	}

  00006	5d		 pop	 ebp
  00007	c3		 ret	 0
??$forward@V?$tuple@$$V@std@@@std@@YA$$QAV?$tuple@$$V@0@AAV10@@Z ENDP ; std::forward<std::tuple<> >
_TEXT	ENDS
; Function compile flags: /Ogtp
; File c:\program files (x86)\microsoft visual studio 14.0\vc\include\type_traits
;	COMDAT ??$forward@V?$tuple@ABH@std@@@std@@YA$$QAV?$tuple@ABH@0@AAV10@@Z
_TEXT	SEGMENT
__Arg$ = 8						; size = 4
??$forward@V?$tuple@ABH@std@@@std@@YA$$QAV?$tuple@ABH@0@AAV10@@Z PROC ; std::forward<std::tuple<int const &> >, COMDAT

; 1275 : 	{	// forward an lvalue as either an lvalue or an rvalue

  00000	55		 push	 ebp
  00001	8b ec		 mov	 ebp, esp

; 1276 : 	return (static_cast<_Ty&&>(_Arg));

  00003	8b 45 08	 mov	 eax, DWORD PTR __Arg$[ebp]

; 1277 : 	}

  00006	5d		 pop	 ebp
  00007	c3		 ret	 0
??$forward@V?$tuple@ABH@std@@@std@@YA$$QAV?$tuple@ABH@0@AAV10@@Z ENDP ; std::forward<std::tuple<int const &> >
_TEXT	ENDS
; Function compile flags: /Ogtp
; File c:\program files (x86)\microsoft visual studio 14.0\vc\include\type_traits
;	COMDAT ??$forward@ABUpiecewise_construct_t@std@@@std@@YAABUpiecewise_construct_t@0@ABU10@@Z
_TEXT	SEGMENT
__Arg$ = 8						; size = 4
??$forward@ABUpiecewise_construct_t@std@@@std@@YAABUpiecewise_construct_t@0@ABU10@@Z PROC ; std::forward<std::piecewise_construct_t const &>, COMDAT

; 1275 : 	{	// forward an lvalue as either an lvalue or an rvalue

  00000	55		 push	 ebp
  00001	8b ec		 mov	 ebp, esp

; 1276 : 	return (static_cast<_Ty&&>(_Arg));

  00003	8b 45 08	 mov	 eax, DWORD PTR __Arg$[ebp]

; 1277 : 	}

  00006	5d		 pop	 ebp
  00007	c3		 ret	 0
??$forward@ABUpiecewise_construct_t@std@@@std@@YAABUpiecewise_construct_t@0@ABU10@@Z ENDP ; std::forward<std::piecewise_construct_t const &>
_TEXT	ENDS
; Function compile flags: /Ogtp
; File c:\program files (x86)\microsoft visual studio 14.0\vc\include\tuple
;	COMDAT ??$?0ABH$0A@@?$tuple@ABH@std@@QAE@ABH@Z
_TEXT	SEGMENT
__This_arg$ = 8						; size = 4
??$?0ABH$0A@@?$tuple@ABH@std@@QAE@ABH@Z PROC		; std::tuple<int const &>::tuple<int const &><int const &,0>, COMDAT
; _this$ = ecx

; 428  : 		{	// construct from one or more copied elements

  00000	55		 push	 ebp
  00001	8b ec		 mov	 ebp, esp

; 427  : 		: _Mybase(_Exact_args_t{}, _Rest_arg...), _Myfirst(_This_arg)

  00003	8b 45 08	 mov	 eax, DWORD PTR __This_arg$[ebp]
  00006	89 01		 mov	 DWORD PTR [ecx], eax

; 429  : 		}

  00008	8b c1		 mov	 eax, ecx
  0000a	5d		 pop	 ebp
  0000b	c2 04 00	 ret	 4
??$?0ABH$0A@@?$tuple@ABH@std@@QAE@ABH@Z ENDP		; std::tuple<int const &>::tuple<int const &><int const &,0>
_TEXT	ENDS
; Function compile flags: /Ogtp
; File c:\program files (x86)\microsoft visual studio 14.0\vc\include\xmemory0
;	COMDAT ??$construct@PAU?$_Tree_node@U?$pair@$$CBV?$basic_string@DU?$char_traits@D@std@@V?$allocator@D@2@@std@@PAX@std@@PAX@std@@AAPAU12@@?$allocator@U?$_Tree_node@U?$pair@$$CBV?$basic_string@DU?$char_traits@D@std@@V?$allocator@D@2@@std@@PAX@std@@PAX@std@@@std@@QAEXPAPAU?$_Tree_node@U?$pair@$$CBV?$basic_string@DU?$char_traits@D@std@@V?$allocator@D@2@@std@@PAX@std@@PAX@1@AAPAU21@@Z
_TEXT	SEGMENT
__Ptr$ = 8						; size = 4
_<_Args_0>$ = 12					; size = 4
??$construct@PAU?$_Tree_node@U?$pair@$$CBV?$basic_string@DU?$char_traits@D@std@@V?$allocator@D@2@@std@@PAX@std@@PAX@std@@AAPAU12@@?$allocator@U?$_Tree_node@U?$pair@$$CBV?$basic_string@DU?$char_traits@D@std@@V?$allocator@D@2@@std@@PAX@std@@PAX@std@@@std@@QAEXPAPAU?$_Tree_node@U?$pair@$$CBV?$basic_string@DU?$char_traits@D@std@@V?$allocator@D@2@@std@@PAX@std@@PAX@1@AAPAU21@@Z PROC ; std::allocator<std::_Tree_node<std::pair<std::basic_string<char,std::char_traits<char>,std::allocator<char> > const ,void *>,void *> >::construct<std::_Tree_node<std::pair<std::basic_string<char,std::char_traits<char>,std::allocator<char> > const ,void *>,void *> *,std::_Tree_node<std::pair<std::basic_string<char,std::char_traits<char>,std::allocator<char> > const ,void *>,void *> * &>, COMDAT
; _this$ = ecx

; 736  : 		{	// construct _Objty(_Types...) at _Ptr

  00000	55		 push	 ebp
  00001	8b ec		 mov	 ebp, esp

; 737  : 		::new ((void *)_Ptr) _Objty(_STD forward<_Types>(_Args)...);

  00003	8b 4d 08	 mov	 ecx, DWORD PTR __Ptr$[ebp]
  00006	85 c9		 test	 ecx, ecx
  00008	74 07		 je	 SHORT $LN3@construct
  0000a	8b 45 0c	 mov	 eax, DWORD PTR _<_Args_0>$[ebp]
  0000d	8b 00		 mov	 eax, DWORD PTR [eax]
  0000f	89 01		 mov	 DWORD PTR [ecx], eax
$LN3@construct:

; 738  : 		}

  00011	5d		 pop	 ebp
  00012	c2 08 00	 ret	 8
