; Listing generated by Microsoft (R) Optimizing Compiler Version 19.00.24215.1 

	TITLE	C:\Users\Alexis\Documents\FinalGostCrypt\Sources_GostCrypt_Windows_1.3.1\Mount\Favorites.cpp
	.686P
	.XMM
	include listing.inc
	.model	flat

INCLUDELIB LIBCMT
INCLUDELIB OLDNAMES

PUBLIC	?FavoriteVolumesMenu@GostCrypt@@3PAUHMENU__@@A	; GostCrypt::FavoriteVolumesMenu
_BSS	SEGMENT
?FavoriteVolumesMenu@GostCrypt@@3PAUHMENU__@@A DD 01H DUP (?) ; GostCrypt::FavoriteVolumesMenu
_BSS	ENDS
PUBLIC	___local_stdio_printf_options
PUBLIC	_fwprintf
PUBLIC	??$__vcrt_va_start_verify_argument_type@QB_W@@YAXXZ ; __vcrt_va_start_verify_argument_type<wchar_t const * const>
PUBLIC	??3@YAXPAX0@Z					; operator delete
PUBLIC	?compare@?$char_traits@D@std@@SAHPBD0I@Z	; std::char_traits<char>::compare
PUBLIC	?allocate@?$_Wrap_alloc@V?$allocator@D@std@@@std@@QAEPADI@Z ; std::_Wrap_alloc<std::allocator<char> >::allocate
PUBLIC	?deallocate@?$_Wrap_alloc@V?$allocator@D@std@@@std@@QAEXPADI@Z ; std::_Wrap_alloc<std::allocator<char> >::deallocate
PUBLIC	?_Myptr@?$_String_alloc@U?$_String_base_types@DV?$allocator@D@std@@@std@@@std@@QBEPBDXZ ; std::_String_alloc<std::_String_base_types<char,std::allocator<char> > >::_Myptr
PUBLIC	??0?$basic_string@DU?$char_traits@D@std@@V?$allocator@D@2@@std@@QAE@PBD@Z ; std::basic_string<char,std::char_traits<char>,std::allocator<char> >::basic_string<char,std::char_traits<char>,std::allocator<char> >
PUBLIC	??4?$basic_string@DU?$char_traits@D@std@@V?$allocator@D@2@@std@@QAEAAV01@$$QAV01@@Z ; std::basic_string<char,std::char_traits<char>,std::allocator<char> >::operator=
PUBLIC	?_Assign_rv@?$basic_string@DU?$char_traits@D@std@@V?$allocator@D@2@@std@@QAEX$$QAV12@@Z ; std::basic_string<char,std::char_traits<char>,std::allocator<char> >::_Assign_rv
PUBLIC	??1?$basic_string@DU?$char_traits@D@std@@V?$allocator@D@2@@std@@QAE@XZ ; std::basic_string<char,std::char_traits<char>,std::allocator<char> >::~basic_string<char,std::char_traits<char>,std::allocator<char> >
PUBLIC	??4?$basic_string@DU?$char_traits@D@std@@V?$allocator@D@2@@std@@QAEAAV01@PBD@Z ; std::basic_string<char,std::char_traits<char>,std::allocator<char> >::operator=
PUBLIC	?assign@?$basic_string@DU?$char_traits@D@std@@V?$allocator@D@2@@std@@QAEAAV12@ABV12@II@Z ; std::basic_string<char,std::char_traits<char>,std::allocator<char> >::assign
PUBLIC	?assign@?$basic_string@DU?$char_traits@D@std@@V?$allocator@D@2@@std@@QAEAAV12@PBDI@Z ; std::basic_string<char,std::char_traits<char>,std::allocator<char> >::assign
PUBLIC	?erase@?$basic_string@DU?$char_traits@D@std@@V?$allocator@D@2@@std@@QAEAAV12@II@Z ; std::basic_string<char,std::char_traits<char>,std::allocator<char> >::erase
PUBLIC	?find@?$basic_string@DU?$char_traits@D@std@@V?$allocator@D@2@@std@@QBEIPBDII@Z ; std::basic_string<char,std::char_traits<char>,std::allocator<char> >::find
PUBLIC	?find@?$basic_string@DU?$char_traits@D@std@@V?$allocator@D@2@@std@@QBEIPBDI@Z ; std::basic_string<char,std::char_traits<char>,std::allocator<char> >::find
PUBLIC	?rfind@?$basic_string@DU?$char_traits@D@std@@V?$allocator@D@2@@std@@QBEIPBDII@Z ; std::basic_string<char,std::char_traits<char>,std::allocator<char> >::rfind
PUBLIC	?substr@?$basic_string@DU?$char_traits@D@std@@V?$allocator@D@2@@std@@QBE?AV12@II@Z ; std::basic_string<char,std::char_traits<char>,std::allocator<char> >::substr
PUBLIC	?_Copy@?$basic_string@DU?$char_traits@D@std@@V?$allocator@D@2@@std@@QAEXII@Z ; std::basic_string<char,std::char_traits<char>,std::allocator<char> >::_Copy
PUBLIC	?allocate@?$allocator@_W@std@@QAEPA_WI@Z	; std::allocator<wchar_t>::allocate
PUBLIC	?deallocate@?$_Wrap_alloc@V?$allocator@_W@std@@@std@@QAEXPA_WI@Z ; std::_Wrap_alloc<std::allocator<wchar_t> >::deallocate
PUBLIC	??0?$basic_string@_WU?$char_traits@_W@std@@V?$allocator@_W@2@@std@@QAE@PB_W@Z ; std::basic_string<wchar_t,std::char_traits<wchar_t>,std::allocator<wchar_t> >::basic_string<wchar_t,std::char_traits<wchar_t>,std::allocator<wchar_t> >
PUBLIC	?_Assign_rv@?$basic_string@_WU?$char_traits@_W@std@@V?$allocator@_W@2@@std@@QAEX$$QAV12@@Z ; std::basic_string<wchar_t,std::char_traits<wchar_t>,std::allocator<wchar_t> >::_Assign_rv
PUBLIC	??1?$basic_string@_WU?$char_traits@_W@std@@V?$allocator@_W@2@@std@@QAE@XZ ; std::basic_string<wchar_t,std::char_traits<wchar_t>,std::allocator<wchar_t> >::~basic_string<wchar_t,std::char_traits<wchar_t>,std::allocator<wchar_t> >
PUBLIC	?append@?$basic_string@_WU?$char_traits@_W@std@@V?$allocator@_W@2@@std@@QAEAAV12@ABV12@II@Z ; std::basic_string<wchar_t,std::char_traits<wchar_t>,std::allocator<wchar_t> >::append
PUBLIC	?append@?$basic_string@_WU?$char_traits@_W@std@@V?$allocator@_W@2@@std@@QAEAAV12@PB_WI@Z ; std::basic_string<wchar_t,std::char_traits<wchar_t>,std::allocator<wchar_t> >::append
PUBLIC	?assign@?$basic_string@_WU?$char_traits@_W@std@@V?$allocator@_W@2@@std@@QAEAAV12@ABV12@II@Z ; std::basic_string<wchar_t,std::char_traits<wchar_t>,std::allocator<wchar_t> >::assign
PUBLIC	?assign@?$basic_string@_WU?$char_traits@_W@std@@V?$allocator@_W@2@@std@@QAEAAV12@PB_WI@Z ; std::basic_string<wchar_t,std::char_traits<wchar_t>,std::allocator<wchar_t> >::assign
PUBLIC	?insert@?$basic_string@_WU?$char_traits@_W@std@@V?$allocator@_W@2@@std@@QAEAAV12@IABV12@II@Z ; std::basic_string<wchar_t,std::char_traits<wchar_t>,std::allocator<wchar_t> >::insert
PUBLIC	?insert@?$basic_string@_WU?$char_traits@_W@std@@V?$allocator@_W@2@@std@@QAEAAV12@IPB_WI@Z ; std::basic_string<wchar_t,std::char_traits<wchar_t>,std::allocator<wchar_t> >::insert
PUBLIC	?erase@?$basic_string@_WU?$char_traits@_W@std@@V?$allocator@_W@2@@std@@QAEAAV12@II@Z ; std::basic_string<wchar_t,std::char_traits<wchar_t>,std::allocator<wchar_t> >::erase
PUBLIC	?substr@?$basic_string@_WU?$char_traits@_W@std@@V?$allocator@_W@2@@std@@QBE?AV12@II@Z ; std::basic_string<wchar_t,std::char_traits<wchar_t>,std::allocator<wchar_t> >::substr
PUBLIC	?_Copy@?$basic_string@_WU?$char_traits@_W@std@@V?$allocator@_W@2@@std@@QAEXII@Z ; std::basic_string<wchar_t,std::char_traits<wchar_t>,std::allocator<wchar_t> >::_Copy
PUBLIC	?_Grow@?$basic_string@_WU?$char_traits@_W@std@@V?$allocator@_W@2@@std@@QAE_NI_N@Z ; std::basic_string<wchar_t,std::char_traits<wchar_t>,std::allocator<wchar_t> >::_Grow
PUBLIC	?_Tidy@?$basic_string@_WU?$char_traits@_W@std@@V?$allocator@_W@2@@std@@QAEX_NI@Z ; std::basic_string<wchar_t,std::char_traits<wchar_t>,std::allocator<wchar_t> >::_Tidy
PUBLIC	??1Container@ForEach@GostCrypt@@UAE@XZ		; GostCrypt::ForEach::Container::~Container
PUBLIC	??_GContainer@ForEach@GostCrypt@@UAEPAXI@Z	; GostCrypt::ForEach::Container::`scalar deleting destructor'
PUBLIC	??0Exception@GostCrypt@@QAE@ABU01@@Z		; GostCrypt::Exception::Exception
PUBLIC	?Show@ErrorException@GostCrypt@@UBEXPAUHWND__@@@Z ; GostCrypt::ErrorException::Show
PUBLIC	??1ErrorException@GostCrypt@@QAE@XZ		; GostCrypt::ErrorException::~ErrorException
PUBLIC	??0ErrorException@GostCrypt@@QAE@ABU01@@Z	; GostCrypt::ErrorException::ErrorException
PUBLIC	??1FavoriteVolume@GostCrypt@@QAE@XZ		; GostCrypt::FavoriteVolume::~FavoriteVolume
PUBLIC	??0FavoriteVolume@GostCrypt@@QAE@ABU01@@Z	; GostCrypt::FavoriteVolume::FavoriteVolume
PUBLIC	??0FavoriteVolume@GostCrypt@@QAE@$$QAU01@@Z	; GostCrypt::FavoriteVolume::FavoriteVolume
PUBLIC	??4FavoriteVolume@GostCrypt@@QAEAAU01@ABU01@@Z	; GostCrypt::FavoriteVolume::operator=
PUBLIC	??4FavoriteVolume@GostCrypt@@QAEAAU01@$$QAU01@@Z ; GostCrypt::FavoriteVolume::operator=
PUBLIC	??1FavoriteVolumesDlgProcArguments@GostCrypt@@QAE@XZ ; GostCrypt::FavoriteVolumesDlgProcArguments::~FavoriteVolumesDlgProcArguments
PUBLIC	?AddMountedVolumeToFavorites@GostCrypt@@YAHPAUHWND__@@H_N@Z ; GostCrypt::AddMountedVolumeToFavorites
PUBLIC	?GetFavoriteVolumeLabel@GostCrypt@@YA?AV?$basic_string@_WU?$char_traits@_W@std@@V?$allocator@_W@2@@std@@ABV?$basic_string@DU?$char_traits@D@std@@V?$allocator@D@2@@3@@Z ; GostCrypt::GetFavoriteVolumeLabel
PUBLIC	?LoadFavoriteVolumes@GostCrypt@@YAXXZ		; GostCrypt::LoadFavoriteVolumes
PUBLIC	?LoadFavoriteVolumes@GostCrypt@@YAXAAV?$vector@UFavoriteVolume@GostCrypt@@V?$allocator@UFavoriteVolume@GostCrypt@@@std@@@std@@_N1@Z ; GostCrypt::LoadFavoriteVolumes
PUBLIC	?OrganizeFavoriteVolumes@GostCrypt@@YAHPAUHWND__@@_NABUFavoriteVolume@1@@Z ; GostCrypt::OrganizeFavoriteVolumes
PUBLIC	?UpdateDeviceHostedFavoriteVolumes@GostCrypt@@YAXXZ ; GostCrypt::UpdateDeviceHostedFavoriteVolumes
PUBLIC	?allocate@?$allocator@UFavoriteVolume@GostCrypt@@@std@@QAEPAUFavoriteVolume@GostCrypt@@I@Z ; std::allocator<GostCrypt::FavoriteVolume>::allocate
PUBLIC	??0?$_Wrap_alloc@V?$allocator@UFavoriteVolume@GostCrypt@@@std@@@std@@QAE@XZ ; std::_Wrap_alloc<std::allocator<GostCrypt::FavoriteVolume> >::_Wrap_alloc<std::allocator<GostCrypt::FavoriteVolume> >
PUBLIC	?deallocate@?$_Wrap_alloc@V?$allocator@UFavoriteVolume@GostCrypt@@@std@@@std@@QAEXPAUFavoriteVolume@GostCrypt@@I@Z ; std::_Wrap_alloc<std::allocator<GostCrypt::FavoriteVolume> >::deallocate
PUBLIC	??0?$vector@UFavoriteVolume@GostCrypt@@V?$allocator@UFavoriteVolume@GostCrypt@@@std@@@std@@QAE@ABV01@@Z ; std::vector<GostCrypt::FavoriteVolume,std::allocator<GostCrypt::FavoriteVolume> >::vector<GostCrypt::FavoriteVolume,std::allocator<GostCrypt::FavoriteVolume> >
PUBLIC	??4?$vector@UFavoriteVolume@GostCrypt@@V?$allocator@UFavoriteVolume@GostCrypt@@@std@@@std@@QAEAAV01@ABV01@@Z ; std::vector<GostCrypt::FavoriteVolume,std::allocator<GostCrypt::FavoriteVolume> >::operator=
PUBLIC	?push_back@?$vector@UFavoriteVolume@GostCrypt@@V?$allocator@UFavoriteVolume@GostCrypt@@@std@@@std@@QAEXABUFavoriteVolume@GostCrypt@@@Z ; std::vector<GostCrypt::FavoriteVolume,std::allocator<GostCrypt::FavoriteVolume> >::push_back
PUBLIC	?erase@?$vector@UFavoriteVolume@GostCrypt@@V?$allocator@UFavoriteVolume@GostCrypt@@@std@@@std@@QAE?AV?$_Vector_iterator@V?$_Vector_val@U?$_Simple_types@UFavoriteVolume@GostCrypt@@@std@@@std@@@2@V?$_Vector_const_iterator@V?$_Vector_val@U?$_Simple_types@UFavoriteVolume@GostCrypt@@@std@@@std@@@2@@Z ; std::vector<GostCrypt::FavoriteVolume,std::allocator<GostCrypt::FavoriteVolume> >::erase
PUBLIC	?clear@?$vector@UFavoriteVolume@GostCrypt@@V?$allocator@UFavoriteVolume@GostCrypt@@@std@@@std@@QAEXXZ ; std::vector<GostCrypt::FavoriteVolume,std::allocator<GostCrypt::FavoriteVolume> >::clear
PUBLIC	?_Buy@?$vector@UFavoriteVolume@GostCrypt@@V?$allocator@UFavoriteVolume@GostCrypt@@@std@@@std@@IAE_NI@Z ; std::vector<GostCrypt::FavoriteVolume,std::allocator<GostCrypt::FavoriteVolume> >::_Buy
PUBLIC	?_Destroy@?$vector@UFavoriteVolume@GostCrypt@@V?$allocator@UFavoriteVolume@GostCrypt@@@std@@@std@@IAEXPAUFavoriteVolume@GostCrypt@@0@Z ; std::vector<GostCrypt::FavoriteVolume,std::allocator<GostCrypt::FavoriteVolume> >::_Destroy
PUBLIC	?_Reallocate@?$vector@UFavoriteVolume@GostCrypt@@V?$allocator@UFavoriteVolume@GostCrypt@@@std@@@std@@IAEXI@Z ; std::vector<GostCrypt::FavoriteVolume,std::allocator<GostCrypt::FavoriteVolume> >::_Reallocate
PUBLIC	?_Reserve@?$vector@UFavoriteVolume@GostCrypt@@V?$allocator@UFavoriteVolume@GostCrypt@@@std@@@std@@IAEXI@Z ; std::vector<GostCrypt::FavoriteVolume,std::allocator<GostCrypt::FavoriteVolume> >::_Reserve
PUBLIC	?_Tidy@?$vector@UFavoriteVolume@GostCrypt@@V?$allocator@UFavoriteVolume@GostCrypt@@@std@@@std@@IAEXXZ ; std::vector<GostCrypt::FavoriteVolume,std::allocator<GostCrypt::FavoriteVolume> >::_Tidy
PUBLIC	??0?$_Wrap_alloc@V?$allocator@U?$_List_node@UFavoriteVolume@GostCrypt@@PAX@std@@@std@@@std@@QAE@XZ ; std::_Wrap_alloc<std::allocator<std::_List_node<GostCrypt::FavoriteVolume,void *> > >::_Wrap_alloc<std::allocator<std::_List_node<GostCrypt::FavoriteVolume,void *> > >
PUBLIC	?_Buynode0@?$_List_alloc@U?$_List_base_types@UFavoriteVolume@GostCrypt@@V?$allocator@UFavoriteVolume@GostCrypt@@@std@@@std@@@std@@QAEPAU?$_List_node@UFavoriteVolume@GostCrypt@@PAX@2@PAU32@0@Z ; std::_List_alloc<std::_List_base_types<GostCrypt::FavoriteVolume,std::allocator<GostCrypt::FavoriteVolume> > >::_Buynode0
PUBLIC	??1?$_List_buy@UFavoriteVolume@GostCrypt@@V?$allocator@UFavoriteVolume@GostCrypt@@@std@@@std@@QAE@XZ ; std::_List_buy<GostCrypt::FavoriteVolume,std::allocator<GostCrypt::FavoriteVolume> >::~_List_buy<GostCrypt::FavoriteVolume,std::allocator<GostCrypt::FavoriteVolume> >
PUBLIC	??0?$list@UFavoriteVolume@GostCrypt@@V?$allocator@UFavoriteVolume@GostCrypt@@@std@@@std@@QAE@ABV01@@Z ; std::list<GostCrypt::FavoriteVolume,std::allocator<GostCrypt::FavoriteVolume> >::list<GostCrypt::FavoriteVolume,std::allocator<GostCrypt::FavoriteVolume> >
PUBLIC	?_Unchecked_erase@?$list@UFavoriteVolume@GostCrypt@@V?$allocator@UFavoriteVolume@GostCrypt@@@std@@@std@@QAEXV?$_List_unchecked_const_iterator@V?$_List_val@U?$_List_simple_types@UFavoriteVolume@GostCrypt@@@std@@@std@@U_Iterator_base0@2@@2@@Z ; std::list<GostCrypt::FavoriteVolume,std::allocator<GostCrypt::FavoriteVolume> >::_Unchecked_erase
PUBLIC	?clear@?$list@UFavoriteVolume@GostCrypt@@V?$allocator@UFavoriteVolume@GostCrypt@@@std@@@std@@QAEXXZ ; std::list<GostCrypt::FavoriteVolume,std::allocator<GostCrypt::FavoriteVolume> >::clear
PUBLIC	??$?8DU?$char_traits@D@std@@V?$allocator@D@1@@std@@YA_NABV?$basic_string@DU?$char_traits@D@std@@V?$allocator@D@2@@0@PBD@Z ; std::operator==<char,std::char_traits<char>,std::allocator<char> >
PUBLIC	??$GetContainerForward@V?$vector@UFavoriteVolume@GostCrypt@@V?$allocator@UFavoriteVolume@GostCrypt@@@std@@@std@@@ForEach@GostCrypt@@SA?AU?$ContainerForward@V?$vector@UFavoriteVolume@GostCrypt@@V?$allocator@UFavoriteVolume@GostCrypt@@@std@@@std@@@01@ABV?$vector@UFavoriteVolume@GostCrypt@@V?$allocator@UFavoriteVolume@GostCrypt@@@std@@@std@@@Z ; GostCrypt::ForEach::GetContainerForward<std::vector<GostCrypt::FavoriteVolume,std::allocator<GostCrypt::FavoriteVolume> > >
PUBLIC	?IsNotEnd@?$ContainerForward@V?$vector@UFavoriteVolume@GostCrypt@@V?$allocator@UFavoriteVolume@GostCrypt@@@std@@@std@@@ForEach@GostCrypt@@UBE_NXZ ; GostCrypt::ForEach::ContainerForward<std::vector<GostCrypt::FavoriteVolume,std::allocator<GostCrypt::FavoriteVolume> > >::IsNotEnd
PUBLIC	?Next@?$ContainerForward@V?$vector@UFavoriteVolume@GostCrypt@@V?$allocator@UFavoriteVolume@GostCrypt@@@std@@@std@@@ForEach@GostCrypt@@UBEXXZ ; GostCrypt::ForEach::ContainerForward<std::vector<GostCrypt::FavoriteVolume,std::allocator<GostCrypt::FavoriteVolume> > >::Next
PUBLIC	??1?$ContainerForward@V?$vector@UFavoriteVolume@GostCrypt@@V?$allocator@UFavoriteVolume@GostCrypt@@@std@@@std@@@ForEach@GostCrypt@@UAE@XZ ; GostCrypt::ForEach::ContainerForward<std::vector<GostCrypt::FavoriteVolume,std::allocator<GostCrypt::FavoriteVolume> > >::~ContainerForward<std::vector<GostCrypt::FavoriteVolume,std::allocator<GostCrypt::FavoriteVolume> > >
PUBLIC	??_G?$ContainerForward@V?$vector@UFavoriteVolume@GostCrypt@@V?$allocator@UFavoriteVolume@GostCrypt@@@std@@@std@@@ForEach@GostCrypt@@UAEPAXI@Z ; GostCrypt::ForEach::ContainerForward<std::vector<GostCrypt::FavoriteVolume,std::allocator<GostCrypt::FavoriteVolume> > >::`scalar deleting destructor'
PUBLIC	??$swap@UFavoriteVolume@GostCrypt@@X@std@@YAXAAUFavoriteVolume@GostCrypt@@0@Z ; std::swap<GostCrypt::FavoriteVolume,void>
PUBLIC	??$?H_WU?$char_traits@_W@std@@V?$allocator@_W@1@@std@@YA?AV?$basic_string@_WU?$char_traits@_W@std@@V?$allocator@_W@2@@0@$$QAV10@PB_W@Z ; std::operator+<wchar_t,std::char_traits<wchar_t>,std::allocator<wchar_t> >
PUBLIC	??$?H_WU?$char_traits@_W@std@@V?$allocator@_W@1@@std@@YA?AV?$basic_string@_WU?$char_traits@_W@std@@V?$allocator@_W@2@@0@ABV10@PB_W@Z ; std::operator+<wchar_t,std::char_traits<wchar_t>,std::allocator<wchar_t> >
PUBLIC	??$?H_WU?$char_traits@_W@std@@V?$allocator@_W@1@@std@@YA?AV?$basic_string@_WU?$char_traits@_W@std@@V?$allocator@_W@2@@0@$$QAV10@0@Z ; std::operator+<wchar_t,std::char_traits<wchar_t>,std::allocator<wchar_t> >
PUBLIC	??$?H_WU?$char_traits@_W@std@@V?$allocator@_W@1@@std@@YA?AV?$basic_string@_WU?$char_traits@_W@std@@V?$allocator@_W@2@@0@$$QAV10@ABV10@@Z ; std::operator+<wchar_t,std::char_traits<wchar_t>,std::allocator<wchar_t> >
PUBLIC	??$?8DU?$char_traits@D@std@@V?$allocator@D@1@@std@@YA_NABV?$basic_string@DU?$char_traits@D@std@@V?$allocator@D@2@@0@0@Z ; std::operator==<char,std::char_traits<char>,std::allocator<char> >
PUBLIC	??$GetContainerForward@V?$list@UFavoriteVolume@GostCrypt@@V?$allocator@UFavoriteVolume@GostCrypt@@@std@@@std@@@ForEach@GostCrypt@@SA?AU?$ContainerForward@V?$list@UFavoriteVolume@GostCrypt@@V?$allocator@UFavoriteVolume@GostCrypt@@@std@@@std@@@01@ABV?$list@UFavoriteVolume@GostCrypt@@V?$allocator@UFavoriteVolume@GostCrypt@@@std@@@std@@@Z ; GostCrypt::ForEach::GetContainerForward<std::list<GostCrypt::FavoriteVolume,std::allocator<GostCrypt::FavoriteVolume> > >
PUBLIC	?IsNotEnd@?$ContainerForward@V?$list@UFavoriteVolume@GostCrypt@@V?$allocator@UFavoriteVolume@GostCrypt@@@std@@@std@@@ForEach@GostCrypt@@UBE_NXZ ; GostCrypt::ForEach::ContainerForward<std::list<GostCrypt::FavoriteVolume,std::allocator<GostCrypt::FavoriteVolume> > >::IsNotEnd
PUBLIC	?Next@?$ContainerForward@V?$list@UFavoriteVolume@GostCrypt@@V?$allocator@UFavoriteVolume@GostCrypt@@@std@@@std@@@ForEach@GostCrypt@@UBEXXZ ; GostCrypt::ForEach::ContainerForward<std::list<GostCrypt::FavoriteVolume,std::allocator<GostCrypt::FavoriteVolume> > >::Next
PUBLIC	??1?$ContainerForward@V?$list@UFavoriteVolume@GostCrypt@@V?$allocator@UFavoriteVolume@GostCrypt@@@std@@@std@@@ForEach@GostCrypt@@UAE@XZ ; GostCrypt::ForEach::ContainerForward<std::list<GostCrypt::FavoriteVolume,std::allocator<GostCrypt::FavoriteVolume> > >::~ContainerForward<std::list<GostCrypt::FavoriteVolume,std::allocator<GostCrypt::FavoriteVolume> > >
PUBLIC	??_G?$ContainerForward@V?$list@UFavoriteVolume@GostCrypt@@V?$allocator@UFavoriteVolume@GostCrypt@@@std@@@std@@@ForEach@GostCrypt@@UAEPAXI@Z ; GostCrypt::ForEach::ContainerForward<std::list<GostCrypt::FavoriteVolume,std::allocator<GostCrypt::FavoriteVolume> > >::`scalar deleting destructor'
PUBLIC	??$?H_WU?$char_traits@_W@std@@V?$allocator@_W@1@@std@@YA?AV?$basic_string@_WU?$char_traits@_W@std@@V?$allocator@_W@2@@0@PB_W$$QAV10@@Z ; std::operator+<wchar_t,std::char_traits<wchar_t>,std::allocator<wchar_t> >
PUBLIC	??$?H_WU?$char_traits@_W@std@@V?$allocator@_W@1@@std@@YA?AV?$basic_string@_WU?$char_traits@_W@std@@V?$allocator@_W@2@@0@PB_WABV10@@Z ; std::operator+<wchar_t,std::char_traits<wchar_t>,std::allocator<wchar_t> >
PUBLIC	??$_Ucopy@PAUFavoriteVolume@GostCrypt@@@?$vector@UFavoriteVolume@GostCrypt@@V?$allocator@UFavoriteVolume@GostCrypt@@@std@@@std@@IAEPAUFavoriteVolume@GostCrypt@@PAU23@00@Z ; std::vector<GostCrypt::FavoriteVolume,std::allocator<GostCrypt::FavoriteVolume> >::_Ucopy<GostCrypt::FavoriteVolume *>
PUBLIC	??$destroy@PAU?$_List_node@UFavoriteVolume@GostCrypt@@PAX@std@@@?$_Wrap_alloc@V?$allocator@U?$_List_node@UFavoriteVolume@GostCrypt@@PAX@std@@@std@@@std@@QAEXPAPAU?$_List_node@UFavoriteVolume@GostCrypt@@PAX@1@@Z ; std::_Wrap_alloc<std::allocator<std::_List_node<GostCrypt::FavoriteVolume,void *> > >::destroy<std::_List_node<GostCrypt::FavoriteVolume,void *> *>
PUBLIC	??$_Destroy_range@V?$allocator@UFavoriteVolume@GostCrypt@@@std@@PAUFavoriteVolume@GostCrypt@@@std@@YAXPAUFavoriteVolume@GostCrypt@@0AAU?$_Wrap_alloc@V?$allocator@UFavoriteVolume@GostCrypt@@@std@@@0@@Z ; std::_Destroy_range<std::allocator<GostCrypt::FavoriteVolume>,GostCrypt::FavoriteVolume *>
PUBLIC	??$_Buynode@ABUFavoriteVolume@GostCrypt@@@?$_List_buy@UFavoriteVolume@GostCrypt@@V?$allocator@UFavoriteVolume@GostCrypt@@@std@@@std@@QAEPAU?$_List_node@UFavoriteVolume@GostCrypt@@PAX@1@PAU21@0ABUFavoriteVolume@GostCrypt@@@Z ; std::_List_buy<GostCrypt::FavoriteVolume,std::allocator<GostCrypt::FavoriteVolume> >::_Buynode<GostCrypt::FavoriteVolume const &>
PUBLIC	??$_Move_unchecked1@PAUFavoriteVolume@GostCrypt@@PAU12@@std@@YAPAUFavoriteVolume@GostCrypt@@PAU12@00U_General_ptr_iterator_tag@0@@Z ; std::_Move_unchecked1<GostCrypt::FavoriteVolume *,GostCrypt::FavoriteVolume *>
PUBLIC	??$_Copy_unchecked1@PAUFavoriteVolume@GostCrypt@@PAU12@@std@@YAPAUFavoriteVolume@GostCrypt@@PAU12@00U_General_ptr_iterator_tag@0@@Z ; std::_Copy_unchecked1<GostCrypt::FavoriteVolume *,GostCrypt::FavoriteVolume *>
PUBLIC	??$_Insert_range@V?$_List_const_iterator@V?$_List_val@U?$_List_simple_types@UFavoriteVolume@GostCrypt@@@std@@@std@@@std@@@?$list@UFavoriteVolume@GostCrypt@@V?$allocator@UFavoriteVolume@GostCrypt@@@std@@@std@@QAEXV?$_List_unchecked_const_iterator@V?$_List_val@U?$_List_simple_types@UFavoriteVolume@GostCrypt@@@std@@@std@@U_Iterator_base0@2@@1@V?$_List_const_iterator@V?$_List_val@U?$_List_simple_types@UFavoriteVolume@GostCrypt@@@std@@@std@@@1@1Uforward_iterator_tag@1@@Z ; std::list<GostCrypt::FavoriteVolume,std::allocator<GostCrypt::FavoriteVolume> >::_Insert_range<std::_List_const_iterator<std::_List_val<std::_List_simple_types<GostCrypt::FavoriteVolume> > > >
PUBLIC	??$_Uninitialized_copy_al_unchecked1@PAUFavoriteVolume@GostCrypt@@PAU12@V?$allocator@UFavoriteVolume@GostCrypt@@@std@@@std@@YAPAUFavoriteVolume@GostCrypt@@PAU12@00AAU?$_Wrap_alloc@V?$allocator@UFavoriteVolume@GostCrypt@@@std@@@0@U_General_ptr_iterator_tag@0@U_Any_tag@0@@Z ; std::_Uninitialized_copy_al_unchecked1<GostCrypt::FavoriteVolume *,GostCrypt::FavoriteVolume *,std::allocator<GostCrypt::FavoriteVolume> >
PUBLIC	??$_Uninitialized_move_al_unchecked1@PAUFavoriteVolume@GostCrypt@@PAU12@V?$allocator@UFavoriteVolume@GostCrypt@@@std@@@std@@YAPAUFavoriteVolume@GostCrypt@@PAU12@00AAU?$_Wrap_alloc@V?$allocator@UFavoriteVolume@GostCrypt@@@std@@@0@U_General_ptr_iterator_tag@0@U_Any_tag@0@@Z ; std::_Uninitialized_move_al_unchecked1<GostCrypt::FavoriteVolume *,GostCrypt::FavoriteVolume *,std::allocator<GostCrypt::FavoriteVolume> >
PUBLIC	??$_Uninitialized_copy_al_unchecked1@PBUFavoriteVolume@GostCrypt@@PAU12@V?$allocator@UFavoriteVolume@GostCrypt@@@std@@@std@@YAPAUFavoriteVolume@GostCrypt@@PBU12@0PAU12@AAU?$_Wrap_alloc@V?$allocator@UFavoriteVolume@GostCrypt@@@std@@@0@U_General_ptr_iterator_tag@0@U_Any_tag@0@@Z ; std::_Uninitialized_copy_al_unchecked1<GostCrypt::FavoriteVolume const *,GostCrypt::FavoriteVolume *,std::allocator<GostCrypt::FavoriteVolume> >
PUBLIC	?_OptionsStorage@?1??__local_stdio_printf_options@@9@4_KA ; `__local_stdio_printf_options'::`2'::_OptionsStorage
PUBLIC	??_C@_00CNPNBAHC@?$AA@				; `string'
PUBLIC	??_C@_06FHFOAHML@system?$AA@			; `string'
PUBLIC	??_7Container@ForEach@GostCrypt@@6B@		; GostCrypt::ForEach::Container::`vftable'
PUBLIC	??_7Exception@GostCrypt@@6B@			; GostCrypt::Exception::`vftable'
PUBLIC	??_7ErrorException@GostCrypt@@6B@		; GostCrypt::ErrorException::`vftable'
PUBLIC	?FavoriteVolumes@GostCrypt@@3V?$vector@UFavoriteVolume@GostCrypt@@V?$allocator@UFavoriteVolume@GostCrypt@@@std@@@std@@A ; GostCrypt::FavoriteVolumes
PUBLIC	?FavoritesOnArrivalMountRequired@GostCrypt@@3V?$list@UFavoriteVolume@GostCrypt@@V?$allocator@UFavoriteVolume@GostCrypt@@@std@@@std@@A ; GostCrypt::FavoritesOnArrivalMountRequired
PUBLIC	?FavoritesMountedOnArrivalStillConnected@GostCrypt@@3V?$list@UFavoriteVolume@GostCrypt@@V?$allocator@UFavoriteVolume@GostCrypt@@@std@@@std@@A ; GostCrypt::FavoritesMountedOnArrivalStillConnected
PUBLIC	?SystemFavoriteVolumes@GostCrypt@@3V?$vector@UFavoriteVolume@GostCrypt@@V?$allocator@UFavoriteVolume@GostCrypt@@@std@@@std@@A ; GostCrypt::SystemFavoriteVolumes
PUBLIC	??_C@_03OPPAHFLA@X?3?2?$AA@			; `string'
PUBLIC	??_C@_04FFEPHCCK@?2?$DP?$DP?2?$AA@		; `string'
PUBLIC	??_C@_0M@CJEJOKNC@?2?2?$DP?2Volume?$HL?$AA@	; `string'
PUBLIC	??_C@_0M@OJHKIMBP@?2Partition0?$AA@		; `string'
PUBLIC	??_C@_0CE@GJAIEOAP@FAVORITE_ADD_PARTITION_TYPE_WARN@ ; `string'
PUBLIC	??_C@_0BP@BOKIMCAM@FAVORITE_ADD_DRIVE_DEV_WARNING?$AA@ ; `string'
PUBLIC	??_7?$ContainerForward@V?$vector@UFavoriteVolume@GostCrypt@@V?$allocator@UFavoriteVolume@GostCrypt@@@std@@@std@@@ForEach@GostCrypt@@6B@ ; GostCrypt::ForEach::ContainerForward<std::vector<GostCrypt::FavoriteVolume,std::allocator<GostCrypt::FavoriteVolume> > >::`vftable'
PUBLIC	??_C@_0BL@JDDKFBO@SYSTEM_FAVORITES_DLG_TITLE?$AA@ ; `string'
PUBLIC	??_C@_0BF@HCOFEODH@IDD_FAVORITE_VOLUMES?$AA@	; `string'
PUBLIC	__TI2?AUErrorException@GostCrypt@@
PUBLIC	__CTA2?AUErrorException@GostCrypt@@
PUBLIC	??_R0?AUErrorException@GostCrypt@@@8		; GostCrypt::ErrorException `RTTI Type Descriptor'
PUBLIC	__CT??_R0?AUErrorException@GostCrypt@@@8??0ErrorException@GostCrypt@@QAE@ABU01@@Z32
PUBLIC	??_R0?AUException@GostCrypt@@@8			; GostCrypt::Exception `RTTI Type Descriptor'
PUBLIC	__CT??_R0?AUException@GostCrypt@@@8??0Exception@GostCrypt@@QAE@ABU01@@Z4
PUBLIC	??_C@_0BK@ELJEKFFN@SYS_FAVORITES_REQUIRE_PBA?$AA@ ; `string'
PUBLIC	??_C@_0BP@EKHONFKP@MOUNT_SYSTEM_FAVORITES_ON_BOOT?$AA@ ; `string'
PUBLIC	??_C@_0CG@OLJJJKLA@DISABLE_NONADMIN_SYS_FAVORITES_A@ ; `string'
PUBLIC	??_C@_05JLAEHEHI@DRIVE?$AA@			; `string'
PUBLIC	??_C@_05EILEDKCG@LABEL?$AA@			; `string'
PUBLIC	??_C@_06EIAEKLLO@VOLUME?$AA@			; `string'
PUBLIC	??_C@_0BI@CHIEPLIO@SYS_FAVORITES_HELP_LINK?$AA@	; `string'
PUBLIC	??_C@_0CL@LJFCINAI@FAVORITE_ARRIVAL_MOUNT_BACKGROUN@ ; `string'
PUBLIC	??_C@_0CF@JLONOHPL@BOOT_PASSWORD_CACHE_KEYBOARD_WAR@ ; `string'
PUBLIC	??_C@_15IABLJNFO@?$AA?6?$AA?6?$AA?$AA@		; `string'
PUBLIC	??_C@_0BP@EBHLJFH@SYS_FAVORITES_KEYBOARD_WARNING?$AA@ ; `string'
PUBLIC	??_C@_0BO@EPEDCGFA@SYS_FAVORITES_ADMIN_ONLY_INFO?$AA@ ; `string'
PUBLIC	??_C@_0BI@BHGNKFED@SETTING_REQUIRES_REBOOT?$AA@	; `string'
PUBLIC	??_C@_0CB@FJMJOJID@SYS_FAVORITES_ADMIN_ONLY_WARNING@ ; `string'
PUBLIC	??_C@_0N@NFCNMOKI@sysfavorites?$AA@		; `string'
PUBLIC	??_C@_09OAMOHPIB@favorites?$AA@			; `string'
PUBLIC	??_C@_13DIBMAFH@?$AA?$CJ?$AA?$AA@		; `string'
PUBLIC	??_C@_0BK@OGKIEBOP@FAVORITE_DISCONNECTED_DEV?$AA@ ; `string'
PUBLIC	??_C@_13LLDNKHDC@?$AA?$CI?$AA?$AA@		; `string'
PUBLIC	??_C@_11LOCGONAA@?$AA?$AA@			; `string'
PUBLIC	??_C@_13HOIJIPNN@?$AA?5?$AA?$AA@		; `string'
PUBLIC	??_C@_13KDLDGPGJ@?$AA?7?$AA?$AA@		; `string'
PUBLIC	??_C@_0CG@KHDBJKEN@GostCrypt?5System?5Favorite?5Volume@ ; `string'
PUBLIC	??_C@_0BF@EGBOIEGJ@Favorite?5Volumes?4xml?$AA@	; `string'
PUBLIC	??_R0?AUSystemException@GostCrypt@@@8		; GostCrypt::SystemException `RTTI Type Descriptor'
PUBLIC	??_C@_06EMCPHFGM@volume?$AA@			; `string'
PUBLIC	??_C@_0L@BHNCAFPG@mountpoint?$AA@		; `string'
PUBLIC	??_C@_05IDCCNNGI@label?$AA@			; `string'
PUBLIC	??_C@_08JOKHDEJH@readonly?$AA@			; `string'
PUBLIC	??_C@_09HPGMKNKO@removable?$AA@			; `string'
PUBLIC	??_C@_0O@KADIAEN@noHotKeyMount?$AA@		; `string'
PUBLIC	??_C@_0BD@FMMJHNKO@openExplorerWindow?$AA@	; `string'
PUBLIC	??_C@_0P@BNAHGHLI@mountOnArrival?$AA@		; `string'
PUBLIC	??_C@_0N@GAADCGJD@mountOnLogOn?$AA@		; `string'
PUBLIC	??_C@_02EKJJMPLG@?$HN?2?$AA@			; `string'
PUBLIC	??_7?$ContainerForward@V?$list@UFavoriteVolume@GostCrypt@@V?$allocator@UFavoriteVolume@GostCrypt@@@std@@@std@@@ForEach@GostCrypt@@6B@ ; GostCrypt::ForEach::ContainerForward<std::list<GostCrypt::FavoriteVolume,std::allocator<GostCrypt::FavoriteVolume> > >::`vftable'
PUBLIC	??_C@_0M@OEIOICOO@w?0ccs?$DNUTF?98?$AA@		; `string'
PUBLIC	??_C@_1BM@LHCEIKFH@?$AA?6?$AA?7?$AA?$DM?$AAf?$AAa?$AAv?$AAo?$AAr?$AAi?$AAt?$AAe?$AAs?$AA?$DO?$AA?$AA@ ; `string'
PUBLIC	??_C@_02HDBGODGB@?2?2?$AA@			; `string'
PUBLIC	??_C@_07HBPFMAGN@Volume?$HL?$AA@		; `string'
PUBLIC	??_C@_0CB@FDMOEEOH@SYSTEM_FAVORITE_NETWORK_PATH_ERR@ ; `string'
PUBLIC	??_C@_13NEIAEHFG@?$AA?$CC?$AA?$AA@		; `string'
PUBLIC	??_C@_1DA@FKMFKHK@?$AA?6?$AA?7?$AA?7?$AA?$DM?$AAv?$AAo?$AAl?$AAu?$AAm?$AAe?$AA?5?$AAm?$AAo?$AAu?$AAn?$AAt?$AAp?$AAo?$AAi?$AAn?$AAt?$AA?$DN?$AA?$CC?$AA?$AA@ ; `string'
PUBLIC	??_C@_1BC@IMCPEDAD@?$AA?5?$AAl?$AAa?$AAb?$AAe?$AAl?$AA?$DN?$AA?$CC?$AA?$AA@ ; `string'
PUBLIC	??_C@_1BM@ENOBLAGP@?$AA?5?$AAr?$AAe?$AAa?$AAd?$AAo?$AAn?$AAl?$AAy?$AA?$DN?$AA?$CC?$AA1?$AA?$CC?$AA?$AA@ ; `string'
PUBLIC	??_C@_1BO@KPDNDBGI@?$AA?5?$AAr?$AAe?$AAm?$AAo?$AAv?$AAa?$AAb?$AAl?$AAe?$AA?$DN?$AA?$CC?$AA1?$AA?$CC?$AA?$AA@ ; `string'
PUBLIC	??_C@_1BI@DCLBMOGE@?$AA?5?$AAs?$AAy?$AAs?$AAt?$AAe?$AAm?$AA?$DN?$AA?$CC?$AA1?$AA?$CC?$AA?$AA@ ; `string'
PUBLIC	??_C@_1CI@PFJKIIJG@?$AA?5?$AAm?$AAo?$AAu?$AAn?$AAt?$AAO?$AAn?$AAA?$AAr?$AAr?$AAi?$AAv?$AAa?$AAl?$AA?$DN?$AA?$CC?$AA1?$AA?$CC?$AA?$AA@ ; `string'
PUBLIC	??_C@_1CE@JKNJFOGE@?$AA?5?$AAm?$AAo?$AAu?$AAn?$AAt?$AAO?$AAn?$AAL?$AAo?$AAg?$AAO?$AAn?$AA?$DN?$AA?$CC?$AA1?$AA?$CC?$AA?$AA@ ; `string'
PUBLIC	??_C@_1CG@JPOBGFJC@?$AA?5?$AAn?$AAo?$AAH?$AAo?$AAt?$AAK?$AAe?$AAy?$AAM?$AAo?$AAu?$AAn?$AAt?$AA?$DN?$AA?$CC?$AA1?$AA?$CC?$AA?$AA@ ; `string'
PUBLIC	??_C@_1DA@CGPNJOBH@?$AA?5?$AAo?$AAp?$AAe?$AAn?$AAE?$AAx?$AAp?$AAl?$AAo?$AAr?$AAe?$AAr?$AAW?$AAi?$AAn?$AAd?$AAo?$AAw?$AA?$DN?$AA?$CC?$AA1?$AA?$CC?$AA?$AA@ ; `string'
PUBLIC	??_C@_1BE@BKLKJEIJ@?$AA?$DM?$AA?1?$AAv?$AAo?$AAl?$AAu?$AAm?$AAe?$AA?$DO?$AA?$AA@ ; `string'
PUBLIC	??_C@_13MOEPKPHB@?$AA?$DO?$AA?$AA@		; `string'
PUBLIC	??_C@_17EEOGHOKP@?$AA?$CF?$AAw?$AAs?$AA?$AA@	; `string'
PUBLIC	??_C@_1BO@LKECBBKI@?$AA?6?$AA?7?$AA?$DM?$AA?1?$AAf?$AAa?$AAv?$AAo?$AAr?$AAi?$AAt?$AAe?$AAs?$AA?$DO?$AA?$AA@ ; `string'
PUBLIC	??_R0?AUUserAbort@GostCrypt@@@8			; GostCrypt::UserAbort `RTTI Type Descriptor'
PUBLIC	??_C@_0BL@JLAFANLF@SYS_FAVORITE_VOLUMES_SAVED?$AA@ ; `string'
PUBLIC	??_C@_0CC@GPNGJACE@FAVORITE_LABEL_PARTITION_TYPE_ER@ ; `string'
PUBLIC	??_C@_0BP@JDCKOJKF@FAVORITE_LABEL_DEVICE_PATH_ERR?$AA@ ; `string'
PUBLIC	??_C@_0CK@BMBODKOP@FAVORITE_ARRIVAL_MOUNT_PARTITION@ ; `string'
PUBLIC	??_C@_0CH@DKBAOJFF@FAVORITE_ARRIVAL_MOUNT_DEVICE_PA@ ; `string'
PUBLIC	??_C@_0CI@HPPIJBMN@FAVORITE_ARRIVAL_MOUNT_NETWORK_P@ ; `string'
PUBLIC	??_C@_0BD@OLBABOEK@vector?$DMT?$DO?5too?5long?$AA@ ; `string'
PUBLIC	??_C@_0BI@CFPLBAOH@invalid?5string?5position?$AA@ ; `string'
PUBLIC	??_C@_0BA@JFNIOLAK@string?5too?5long?$AA@	; `string'
PUBLIC	??_C@_0BB@MOGOBHAF@list?$DMT?$DO?5too?5long?$AA@ ; `string'
PUBLIC	??_R4Container@ForEach@GostCrypt@@6B@		; GostCrypt::ForEach::Container::`RTTI Complete Object Locator'
PUBLIC	??_R0?AUContainer@ForEach@GostCrypt@@@8		; GostCrypt::ForEach::Container `RTTI Type Descriptor'
PUBLIC	??_R3Container@ForEach@GostCrypt@@8		; GostCrypt::ForEach::Container::`RTTI Class Hierarchy Descriptor'
PUBLIC	??_R2Container@ForEach@GostCrypt@@8		; GostCrypt::ForEach::Container::`RTTI Base Class Array'
PUBLIC	??_R1A@?0A@EA@Container@ForEach@GostCrypt@@8	; GostCrypt::ForEach::Container::`RTTI Base Class Descriptor at (0,-1,0,64)'
PUBLIC	??_R4Exception@GostCrypt@@6B@			; GostCrypt::Exception::`RTTI Complete Object Locator'
PUBLIC	??_R3Exception@GostCrypt@@8			; GostCrypt::Exception::`RTTI Class Hierarchy Descriptor'
PUBLIC	??_R2Exception@GostCrypt@@8			; GostCrypt::Exception::`RTTI Base Class Array'
PUBLIC	??_R1A@?0A@EA@Exception@GostCrypt@@8		; GostCrypt::Exception::`RTTI Base Class Descriptor at (0,-1,0,64)'
PUBLIC	??_R4ErrorException@GostCrypt@@6B@		; GostCrypt::ErrorException::`RTTI Complete Object Locator'
PUBLIC	??_R3ErrorException@GostCrypt@@8		; GostCrypt::ErrorException::`RTTI Class Hierarchy Descriptor'
PUBLIC	??_R2ErrorException@GostCrypt@@8		; GostCrypt::ErrorException::`RTTI Base Class Array'
PUBLIC	??_R1A@?0A@EA@ErrorException@GostCrypt@@8	; GostCrypt::ErrorException::`RTTI Base Class Descriptor at (0,-1,0,64)'
PUBLIC	??_R4?$ContainerForward@V?$vector@UFavoriteVolume@GostCrypt@@V?$allocator@UFavoriteVolume@GostCrypt@@@std@@@std@@@ForEach@GostCrypt@@6B@ ; GostCrypt::ForEach::ContainerForward<std::vector<GostCrypt::FavoriteVolume,std::allocator<GostCrypt::FavoriteVolume> > >::`RTTI Complete Object Locator'
PUBLIC	??_R0?AU?$ContainerForward@V?$vector@UFavoriteVolume@GostCrypt@@V?$allocator@UFavoriteVolume@GostCrypt@@@std@@@std@@@ForEach@GostCrypt@@@8 ; GostCrypt::ForEach::ContainerForward<std::vector<GostCrypt::FavoriteVolume,std::allocator<GostCrypt::FavoriteVolume> > > `RTTI Type Descriptor'
PUBLIC	??_R3?$ContainerForward@V?$vector@UFavoriteVolume@GostCrypt@@V?$allocator@UFavoriteVolume@GostCrypt@@@std@@@std@@@ForEach@GostCrypt@@8 ; GostCrypt::ForEach::ContainerForward<std::vector<GostCrypt::FavoriteVolume,std::allocator<GostCrypt::FavoriteVolume> > >::`RTTI Class Hierarchy Descriptor'
PUBLIC	??_R2?$ContainerForward@V?$vector@UFavoriteVolume@GostCrypt@@V?$allocator@UFavoriteVolume@GostCrypt@@@std@@@std@@@ForEach@GostCrypt@@8 ; GostCrypt::ForEach::ContainerForward<std::vector<GostCrypt::FavoriteVolume,std::allocator<GostCrypt::FavoriteVolume> > >::`RTTI Base Class Array'
PUBLIC	??_R1A@?0A@EA@?$ContainerForward@V?$vector@UFavoriteVolume@GostCrypt@@V?$allocator@UFavoriteVolume@GostCrypt@@@std@@@std@@@ForEach@GostCrypt@@8 ; GostCrypt::ForEach::ContainerForward<std::vector<GostCrypt::FavoriteVolume,std::allocator<GostCrypt::FavoriteVolume> > >::`RTTI Base Class Descriptor at (0,-1,0,64)'
PUBLIC	??_R4?$ContainerForward@V?$list@UFavoriteVolume@GostCrypt@@V?$allocator@UFavoriteVolume@GostCrypt@@@std@@@std@@@ForEach@GostCrypt@@6B@ ; GostCrypt::ForEach::ContainerForward<std::list<GostCrypt::FavoriteVolume,std::allocator<GostCrypt::FavoriteVolume> > >::`RTTI Complete Object Locator'
PUBLIC	??_R0?AU?$ContainerForward@V?$list@UFavoriteVolume@GostCrypt@@V?$allocator@UFavoriteVolume@GostCrypt@@@std@@@std@@@ForEach@GostCrypt@@@8 ; GostCrypt::ForEach::ContainerForward<std::list<GostCrypt::FavoriteVolume,std::allocator<GostCrypt::FavoriteVolume> > > `RTTI Type Descriptor'
PUBLIC	??_R3?$ContainerForward@V?$list@UFavoriteVolume@GostCrypt@@V?$allocator@UFavoriteVolume@GostCrypt@@@std@@@std@@@ForEach@GostCrypt@@8 ; GostCrypt::ForEach::ContainerForward<std::list<GostCrypt::FavoriteVolume,std::allocator<GostCrypt::FavoriteVolume> > >::`RTTI Class Hierarchy Descriptor'
PUBLIC	??_R2?$ContainerForward@V?$list@UFavoriteVolume@GostCrypt@@V?$allocator@UFavoriteVolume@GostCrypt@@@std@@@std@@@ForEach@GostCrypt@@8 ; GostCrypt::ForEach::ContainerForward<std::list<GostCrypt::FavoriteVolume,std::allocator<GostCrypt::FavoriteVolume> > >::`RTTI Base Class Array'
PUBLIC	??_R1A@?0A@EA@?$ContainerForward@V?$list@UFavoriteVolume@GostCrypt@@V?$allocator@UFavoriteVolume@GostCrypt@@@std@@@std@@@ForEach@GostCrypt@@8 ; GostCrypt::ForEach::ContainerForward<std::list<GostCrypt::FavoriteVolume,std::allocator<GostCrypt::FavoriteVolume> > >::`RTTI Base Class Descriptor at (0,-1,0,64)'
EXTRN	__purecall:PROC
EXTRN	??2@YAPAXI@Z:PROC				; operator new
EXTRN	??3@YAXPAX@Z:PROC				; operator delete
EXTRN	??3@YAXPAXI@Z:PROC				; operator delete
EXTRN	_atexit:PROC
EXTRN	__Init_thread_header:PROC
EXTRN	__Init_thread_footer:PROC
EXTRN	___std_terminate:PROC
EXTRN	__invalid_parameter_noinfo_noreturn:PROC
EXTRN	_memchr:PROC
EXTRN	_memmove:PROC
EXTRN	__imp__DeleteFileA@4:PROC
EXTRN	__imp__FindVolumeClose@4:PROC
EXTRN	__imp__DeviceIoControl@32:PROC
EXTRN	__imp__QueryDosDeviceA@12:PROC
EXTRN	__imp__FindFirstVolumeA@8:PROC
EXTRN	__imp__FindNextVolumeA@12:PROC
EXTRN	__imp__SendMessageA@16:PROC
EXTRN	__imp__SendMessageW@16:PROC
EXTRN	__imp__ShowWindow@8:PROC
EXTRN	__imp__SetWindowPos@28:PROC
EXTRN	__imp__DialogBoxParamW@20:PROC
EXTRN	__imp__EndDialog@8:PROC
EXTRN	__imp__GetDlgItem@8:PROC
EXTRN	__imp__SetDlgItemTextW@12:PROC
EXTRN	__imp__GetDlgItemTextW@16:PROC
EXTRN	__imp__CheckDlgButton@12:PROC
EXTRN	__imp__IsDlgButtonChecked@8:PROC
EXTRN	__imp__EnableWindow@8:PROC
EXTRN	__imp__AppendMenuA@16:PROC
EXTRN	__imp__AppendMenuW@16:PROC
EXTRN	__imp__DeleteMenu@12:PROC
EXTRN	__imp__InvalidateRect@12:PROC
EXTRN	__imp__SetWindowTextW@8:PROC
EXTRN	__imp__GetClientRect@8:PROC
EXTRN	_free:PROC
EXTRN	_fputws:PROC
EXTRN	___stdio_common_vfwprintf:PROC
EXTRN	_fclose:PROC
EXTRN	_fopen:PROC
EXTRN	_remove:PROC
EXTRN	?_Xbad_alloc@std@@YAXXZ:PROC			; std::_Xbad_alloc
EXTRN	?_Xlength_error@std@@YAXPBD@Z:PROC		; std::_Xlength_error
EXTRN	?_Xout_of_range@std@@YAXPBD@Z:PROC		; std::_Xout_of_range
EXTRN	??_EContainer@ForEach@GostCrypt@@UAEPAXI@Z:PROC	; GostCrypt::ForEach::Container::`vector deleting destructor'
EXTRN	_handleWin32Error:PROC
EXTRN	_ReadDriverConfigurationFlags:PROC
EXTRN	_CheckFileStreamWriteErrors:PROC
EXTRN	_LocalizeDialog:PROC
EXTRN	_IsMountedVolume:PROC
EXTRN	_IsAdmin:PROC
EXTRN	_ResolveSymbolicLink:PROC
EXTRN	_IsNonInstallMode:PROC
EXTRN	_SetCheckBox:PROC
EXTRN	_ManageStartupSeq:PROC
EXTRN	_ListItemAdd:PROC
EXTRN	_ListSubItemSet:PROC
EXTRN	_ListSubItemSetW:PROC
EXTRN	_LoadFile:PROC
EXTRN	_GetConfigPath:PROC
EXTRN	_Info:PROC
EXTRN	_Warning:PROC
EXTRN	_WarningDirect:PROC
EXTRN	_Error:PROC
EXTRN	_ErrorDirect:PROC
EXTRN	_IsServerOS:PROC
EXTRN	_Applink:PROC
EXTRN	_IsVolumeDeviceHosted:PROC
EXTRN	_CompensateXDPI:PROC
EXTRN	_CompensateYDPI:PROC
EXTRN	_ToHyperlink:PROC
EXTRN	?SingleStringToWide@@YA?AV?$basic_string@_WU?$char_traits@_W@std@@V?$allocator@_W@2@@std@@ABV?$basic_string@DU?$char_traits@D@std@@V?$allocator@D@2@@2@@Z:PROC ; SingleStringToWide
EXTRN	?Utf8StringToWide@@YA?AV?$basic_string@_WU?$char_traits@_W@std@@V?$allocator@_W@2@@std@@ABV?$basic_string@DU?$char_traits@D@std@@V?$allocator@D@2@@2@@Z:PROC ; Utf8StringToWide
EXTRN	?WideToSingleString@@YA?AV?$basic_string@DU?$char_traits@D@std@@V?$allocator@D@2@@std@@ABV?$basic_string@_WU?$char_traits@_W@std@@V?$allocator@_W@2@@2@@Z:PROC ; WideToSingleString
EXTRN	?GetServiceConfigPath@@YA?AV?$basic_string@DU?$char_traits@D@std@@V?$allocator@D@2@@std@@PBD@Z:PROC ; GetServiceConfigPath
EXTRN	?VolumeGuidPathToDevicePath@@YA?AV?$basic_string@DU?$char_traits@D@std@@V?$allocator@D@2@@std@@V12@@Z:PROC ; VolumeGuidPathToDevicePath
EXTRN	??0BootEncryption@GostCrypt@@QAE@PAUHWND__@@@Z:PROC ; GostCrypt::BootEncryption::BootEncryption
EXTRN	??1BootEncryption@GostCrypt@@QAE@XZ:PROC	; GostCrypt::BootEncryption::~BootEncryption
EXTRN	?CopyFileAdmin@BootEncryption@GostCrypt@@QAEXABV?$basic_string@DU?$char_traits@D@std@@V?$allocator@D@2@@std@@0@Z:PROC ; GostCrypt::BootEncryption::CopyFileAdmin
EXTRN	?DeleteFileAdmin@BootEncryption@GostCrypt@@QAEXABV?$basic_string@DU?$char_traits@D@std@@V?$allocator@D@2@@std@@@Z:PROC ; GostCrypt::BootEncryption::DeleteFileAdmin
EXTRN	?GetStatus@BootEncryption@GostCrypt@@QAE?AUBootEncryptionStatus@@XZ:PROC ; GostCrypt::BootEncryption::GetStatus
EXTRN	?RegisterSystemFavoritesService@BootEncryption@GostCrypt@@QAEXH@Z:PROC ; GostCrypt::BootEncryption::RegisterSystemFavoritesService
EXTRN	_GetString:PROC
EXTRN	_SaveSettings:PROC
EXTRN	_LoadDriveLetters:PROC
EXTRN	?SetDriverConfigurationFlag@@YAXIH@Z:PROC	; SetDriverConfigurationFlag
EXTRN	_XmlFindElement:PROC
EXTRN	_XmlGetAttributeText:PROC
EXTRN	_XmlGetNodeText:PROC
EXTRN	_XmlWriteHeaderW:PROC
EXTRN	_XmlWriteFooterW:PROC
EXTRN	_XmlQuoteText:PROC
EXTRN	??_E?$ContainerForward@V?$vector@UFavoriteVolume@GostCrypt@@V?$allocator@UFavoriteVolume@GostCrypt@@@std@@@std@@@ForEach@GostCrypt@@UAEPAXI@Z:PROC ; GostCrypt::ForEach::ContainerForward<std::vector<GostCrypt::FavoriteVolume,std::allocator<GostCrypt::FavoriteVolume> > >::`vector deleting destructor'
EXTRN	??_E?$ContainerForward@V?$list@UFavoriteVolume@GostCrypt@@V?$allocator@UFavoriteVolume@GostCrypt@@@std@@@std@@@ForEach@GostCrypt@@UAEPAXI@Z:PROC ; GostCrypt::ForEach::ContainerForward<std::list<GostCrypt::FavoriteVolume,std::allocator<GostCrypt::FavoriteVolume> > >::`vector deleting destructor'
EXTRN	@__security_check_cookie@4:PROC
EXTRN	__CxxThrowException@8:PROC
EXTRN	___CxxFrameHandler3:PROC
EXTRN	_memcpy:PROC
EXTRN	_memset:PROC
EXTRN	__Init_thread_epoch:DWORD
EXTRN	??_7type_info@@6B@:QWORD			; type_info::`vftable'
EXTRN	_MainDlg:DWORD
EXTRN	_bMountFavoritesOnLogon:DWORD
EXTRN	_hDriver:DWORD
EXTRN	_hInst:DWORD
EXTRN	_bEnableBkgTask:DWORD
EXTRN	_bCloseBkgTaskWhenNoVolumes:DWORD
EXTRN	_bExplore:DWORD
EXTRN	___security_cookie:DWORD
EXTRN	__tls_array:DWORD
EXTRN	__tls_index:DWORD
;	COMDAT ?_OptionsStorage@?1??__local_stdio_printf_options@@9@4_KA
_BSS	SEGMENT
?_OptionsStorage@?1??__local_stdio_printf_options@@9@4_KA DQ 01H DUP (?) ; `__local_stdio_printf_options'::`2'::_OptionsStorage
_BSS	ENDS
_BSS	SEGMENT
?FavoriteVolumes@GostCrypt@@3V?$vector@UFavoriteVolume@GostCrypt@@V?$allocator@UFavoriteVolume@GostCrypt@@@std@@@std@@A DB 0cH DUP (?) ; GostCrypt::FavoriteVolumes
?FavoritesOnArrivalMountRequired@GostCrypt@@3V?$list@UFavoriteVolume@GostCrypt@@V?$allocator@UFavoriteVolume@GostCrypt@@@std@@@std@@A DQ 01H DUP (?) ; GostCrypt::FavoritesOnArrivalMountRequired
?FavoritesMountedOnArrivalStillConnected@GostCrypt@@3V?$list@UFavoriteVolume@GostCrypt@@V?$allocator@UFavoriteVolume@GostCrypt@@@std@@@std@@A DQ 01H DUP (?) ; GostCrypt::FavoritesMountedOnArrivalStillConnected
?SystemFavoriteVolumes@GostCrypt@@3V?$vector@UFavoriteVolume@GostCrypt@@V?$allocator@UFavoriteVolume@GostCrypt@@@std@@@std@@A DB 0cH DUP (?) ; GostCrypt::SystemFavoriteVolumes
_BSS	ENDS
;	COMDAT ?SystemFavoritesMode@?1??FavoriteVolumesDlgProc@GostCrypt@@YGHPAUHWND__@@IIJ@Z@4_NA
_BSS	SEGMENT
?SystemFavoritesMode@?1??FavoriteVolumesDlgProc@GostCrypt@@YGHPAUHWND__@@IIJ@Z@4_NA DB 01H DUP (?) ; `GostCrypt::FavoriteVolumesDlgProc'::`2'::SystemFavoritesMode
_BSS	ENDS
;	COMDAT ?Favorites@?1??FavoriteVolumesDlgProc@GostCrypt@@YGHPAUHWND__@@IIJ@Z@4V?$vector@UFavoriteVolume@GostCrypt@@V?$allocator@UFavoriteVolume@GostCrypt@@@std@@@std@@A
_BSS	SEGMENT
?Favorites@?1??FavoriteVolumesDlgProc@GostCrypt@@YGHPAUHWND__@@IIJ@Z@4V?$vector@UFavoriteVolume@GostCrypt@@V?$allocator@UFavoriteVolume@GostCrypt@@@std@@@std@@A DB 0cH DUP (?) ; `GostCrypt::FavoriteVolumesDlgProc'::`2'::Favorites
_BSS	ENDS
;	COMDAT ?$TSS0@?1??FavoriteVolumesDlgProc@GostCrypt@@YGHPAUHWND__@@IIJ@Z@4HA
_BSS	SEGMENT
?$TSS0@?1??FavoriteVolumesDlgProc@GostCrypt@@YGHPAUHWND__@@IIJ@Z@4HA DD 01H DUP (?) ; TSS0<`template-parameter-2',GostCrypt::voriteVolumesDlgProc,GHPAUHWND__,unsigned int,unsigned int,long>
_BSS	ENDS
;	COMDAT ?SelectedItem@?1??FavoriteVolumesDlgProc@GostCrypt@@YGHPAUHWND__@@IIJ@Z@4HA
_BSS	SEGMENT
?SelectedItem@?1??FavoriteVolumesDlgProc@GostCrypt@@YGHPAUHWND__@@IIJ@Z@4HA DD 01H DUP (?) ; `GostCrypt::FavoriteVolumesDlgProc'::`2'::SelectedItem
_BSS	ENDS
;	COMDAT ?FavoriteListControl@?1??FavoriteVolumesDlgProc@GostCrypt@@YGHPAUHWND__@@IIJ@Z@4PAU3@A
_BSS	SEGMENT
?FavoriteListControl@?1??FavoriteVolumesDlgProc@GostCrypt@@YGHPAUHWND__@@IIJ@Z@4PAU3@A DD 01H DUP (?) ; `GostCrypt::FavoriteVolumesDlgProc'::`2'::FavoriteListControl
_BSS	ENDS
;	COMDAT ?reentry@?FJ@??FavoriteVolumesDlgProc@GostCrypt@@YGHPAUHWND__@@IIJ@Z@4_NA
_BSS	SEGMENT
?reentry@?FJ@??FavoriteVolumesDlgProc@GostCrypt@@YGHPAUHWND__@@IIJ@Z@4_NA DB 01H DUP (?) ; `GostCrypt::FavoriteVolumesDlgProc'::`89'::reentry
_BSS	ENDS
CRT$XCU	SEGMENT
?FavoriteVolumes$initializer$@GostCrypt@@3P6AXXZA DD FLAT:??__EFavoriteVolumes@GostCrypt@@YAXXZ ; GostCrypt::FavoriteVolumes$initializer$
CRT$XCU	ENDS
;	COMDAT ??_R1A@?0A@EA@?$ContainerForward@V?$list@UFavoriteVolume@GostCrypt@@V?$allocator@UFavoriteVolume@GostCrypt@@@std@@@std@@@ForEach@GostCrypt@@8
rdata$r	SEGMENT
??_R1A@?0A@EA@?$ContainerForward@V?$list@UFavoriteVolume@GostCrypt@@V?$allocator@UFavoriteVolume@GostCrypt@@@std@@@std@@@ForEach@GostCrypt@@8 DD FLAT:??_R0?AU?$ContainerForward@V?$list@UFavoriteVolume@GostCrypt@@V?$allocator@UFavoriteVolume@GostCrypt@@@std@@@std@@@ForEach@GostCrypt@@@8 ; GostCrypt::ForEach::ContainerForward<std::list<GostCrypt::FavoriteVolume,std::allocator<GostCrypt::FavoriteVolume> > >::`RTTI Base Class Descriptor at (0,-1,0,64)'
	DD	01H
	DD	00H
	DD	0ffffffffH
	DD	00H
	DD	040H
	DD	FLAT:??_R3?$ContainerForward@V?$list@UFavoriteVolume@GostCrypt@@V?$allocator@UFavoriteVolume@GostCrypt@@@std@@@std@@@ForEach@GostCrypt@@8
rdata$r	ENDS
;	COMDAT ??_R2?$ContainerForward@V?$list@UFavoriteVolume@GostCrypt@@V?$allocator@UFavoriteVolume@GostCrypt@@@std@@@std@@@ForEach@GostCrypt@@8
rdata$r	SEGMENT
??_R2?$ContainerForward@V?$list@UFavoriteVolume@GostCrypt@@V?$allocator@UFavoriteVolume@GostCrypt@@@std@@@std@@@ForEach@GostCrypt@@8 DD FLAT:??_R1A@?0A@EA@?$ContainerForward@V?$list@UFavoriteVolume@GostCrypt@@V?$allocator@UFavoriteVolume@GostCrypt@@@std@@@std@@@ForEach@GostCrypt@@8 ; GostCrypt::ForEach::ContainerForward<std::list<GostCrypt::FavoriteVolume,std::allocator<GostCrypt::FavoriteVolume> > >::`RTTI Base Class Array'
	DD	FLAT:??_R1A@?0A@EA@Container@ForEach@GostCrypt@@8
rdata$r	ENDS
;	COMDAT ??_R3?$ContainerForward@V?$list@UFavoriteVolume@GostCrypt@@V?$allocator@UFavoriteVolume@GostCrypt@@@std@@@std@@@ForEach@GostCrypt@@8
rdata$r	SEGMENT
??_R3?$ContainerForward@V?$list@UFavoriteVolume@GostCrypt@@V?$allocator@UFavoriteVolume@GostCrypt@@@std@@@std@@@ForEach@GostCrypt@@8 DD 00H ; GostCrypt::ForEach::ContainerForward<std::list<GostCrypt::FavoriteVolume,std::allocator<GostCrypt::FavoriteVolume> > >::`RTTI Class Hierarchy Descriptor'
	DD	00H
	DD	02H
	DD	FLAT:??_R2?$ContainerForward@V?$list@UFavoriteVolume@GostCrypt@@V?$allocator@UFavoriteVolume@GostCrypt@@@std@@@std@@@ForEach@GostCrypt@@8
rdata$r	ENDS
;	COMDAT ??_R0?AU?$ContainerForward@V?$list@UFavoriteVolume@GostCrypt@@V?$allocator@UFavoriteVolume@GostCrypt@@@std@@@std@@@ForEach@GostCrypt@@@8
data$r	SEGMENT
??_R0?AU?$ContainerForward@V?$list@UFavoriteVolume@GostCrypt@@V?$allocator@UFavoriteVolume@GostCrypt@@@std@@@std@@@ForEach@GostCrypt@@@8 DD FLAT:??_7type_info@@6B@ ; GostCrypt::ForEach::ContainerForward<std::list<GostCrypt::FavoriteVolume,std::allocator<GostCrypt::FavoriteVolume> > > `RTTI Type Descriptor'
	DD	00H
	DB	'.?AU?$ContainerForward@V?$list@UFavoriteVolume@GostCrypt'
	DB	'@@V?$allocator@UFavoriteVolume@GostCrypt@@@std@@@std@@@ForEac'
	DB	'h@GostCrypt@@', 00H
data$r	ENDS
;	COMDAT ??_R4?$ContainerForward@V?$list@UFavoriteVolume@GostCrypt@@V?$allocator@UFavoriteVolume@GostCrypt@@@std@@@std@@@ForEach@GostCrypt@@6B@
rdata$r	SEGMENT
??_R4?$ContainerForward@V?$list@UFavoriteVolume@GostCrypt@@V?$allocator@UFavoriteVolume@GostCrypt@@@std@@@std@@@ForEach@GostCrypt@@6B@ DD 00H ; GostCrypt::ForEach::ContainerForward<std::list<GostCrypt::FavoriteVolume,std::allocator<GostCrypt::FavoriteVolume> > >::`RTTI Complete Object Locator'
	DD	00H
	DD	00H
	DD	FLAT:??_R0?AU?$ContainerForward@V?$list@UFavoriteVolume@GostCrypt@@V?$allocator@UFavoriteVolume@GostCrypt@@@std@@@std@@@ForEach@GostCrypt@@@8
	DD	FLAT:??_R3?$ContainerForward@V?$list@UFavoriteVolume@GostCrypt@@V?$allocator@UFavoriteVolume@GostCrypt@@@std@@@std@@@ForEach@GostCrypt@@8
rdata$r	ENDS
;	COMDAT ??_R1A@?0A@EA@?$ContainerForward@V?$vector@UFavoriteVolume@GostCrypt@@V?$allocator@UFavoriteVolume@GostCrypt@@@std@@@std@@@ForEach@GostCrypt@@8
rdata$r	SEGMENT
??_R1A@?0A@EA@?$ContainerForward@V?$vector@UFavoriteVolume@GostCrypt@@V?$allocator@UFavoriteVolume@GostCrypt@@@std@@@std@@@ForEach@GostCrypt@@8 DD FLAT:??_R0?AU?$ContainerForward@V?$vector@UFavoriteVolume@GostCrypt@@V?$allocator@UFavoriteVolume@GostCrypt@@@std@@@std@@@ForEach@GostCrypt@@@8 ; GostCrypt::ForEach::ContainerForward<std::vector<GostCrypt::FavoriteVolume,std::allocator<GostCrypt::FavoriteVolume> > >::`RTTI Base Class Descriptor at (0,-1,0,64)'
	DD	01H
	DD	00H
	DD	0ffffffffH
	DD	00H
	DD	040H
	DD	FLAT:??_R3?$ContainerForward@V?$vector@UFavoriteVolume@GostCrypt@@V?$allocator@UFavoriteVolume@GostCrypt@@@std@@@std@@@ForEach@GostCrypt@@8
rdata$r	ENDS
;	COMDAT ??_R2?$ContainerForward@V?$vector@UFavoriteVolume@GostCrypt@@V?$allocator@UFavoriteVolume@GostCrypt@@@std@@@std@@@ForEach@GostCrypt@@8
rdata$r	SEGMENT
??_R2?$ContainerForward@V?$vector@UFavoriteVolume@GostCrypt@@V?$allocator@UFavoriteVolume@GostCrypt@@@std@@@std@@@ForEach@GostCrypt@@8 DD FLAT:??_R1A@?0A@EA@?$ContainerForward@V?$vector@UFavoriteVolume@GostCrypt@@V?$allocator@UFavoriteVolume@GostCrypt@@@std@@@std@@@ForEach@GostCrypt@@8 ; GostCrypt::ForEach::ContainerForward<std::vector<GostCrypt::FavoriteVolume,std::allocator<GostCrypt::FavoriteVolume> > >::`RTTI Base Class Array'
	DD	FLAT:??_R1A@?0A@EA@Container@ForEach@GostCrypt@@8
rdata$r	ENDS
;	COMDAT ??_R3?$ContainerForward@V?$vector@UFavoriteVolume@GostCrypt@@V?$allocator@UFavoriteVolume@GostCrypt@@@std@@@std@@@ForEach@GostCrypt@@8
rdata$r	SEGMENT
??_R3?$ContainerForward@V?$vector@UFavoriteVolume@GostCrypt@@V?$allocator@UFavoriteVolume@GostCrypt@@@std@@@std@@@ForEach@GostCrypt@@8 DD 00H ; GostCrypt::ForEach::ContainerForward<std::vector<GostCrypt::FavoriteVolume,std::allocator<GostCrypt::FavoriteVolume> > >::`RTTI Class Hierarchy Descriptor'
	DD	00H
	DD	02H
	DD	FLAT:??_R2?$ContainerForward@V?$vector@UFavoriteVolume@GostCrypt@@V?$allocator@UFavoriteVolume@GostCrypt@@@std@@@std@@@ForEach@GostCrypt@@8
rdata$r	ENDS
;	COMDAT ??_R0?AU?$ContainerForward@V?$vector@UFavoriteVolume@GostCrypt@@V?$allocator@UFavoriteVolume@GostCrypt@@@std@@@std@@@ForEach@GostCrypt@@@8
data$r	SEGMENT
??_R0?AU?$ContainerForward@V?$vector@UFavoriteVolume@GostCrypt@@V?$allocator@UFavoriteVolume@GostCrypt@@@std@@@std@@@ForEach@GostCrypt@@@8 DD FLAT:??_7type_info@@6B@ ; GostCrypt::ForEach::ContainerForward<std::vector<GostCrypt::FavoriteVolume,std::allocator<GostCrypt::FavoriteVolume> > > `RTTI Type Descriptor'
	DD	00H
	DB	'.?AU?$ContainerForward@V?$vector@UFavoriteVolume@GostCry'
	DB	'pt@@V?$allocator@UFavoriteVolume@GostCrypt@@@std@@@std@@@ForE'
	DB	'ach@GostCrypt@@', 00H
data$r	ENDS
;	COMDAT ??_R4?$ContainerForward@V?$vector@UFavoriteVolume@GostCrypt@@V?$allocator@UFavoriteVolume@GostCrypt@@@std@@@std@@@ForEach@GostCrypt@@6B@
rdata$r	SEGMENT
??_R4?$ContainerForward@V?$vector@UFavoriteVolume@GostCrypt@@V?$allocator@UFavoriteVolume@GostCrypt@@@std@@@std@@@ForEach@GostCrypt@@6B@ DD 00H ; GostCrypt::ForEach::ContainerForward<std::vector<GostCrypt::FavoriteVolume,std::allocator<GostCrypt::FavoriteVolume> > >::`RTTI Complete Object Locator'
	DD	00H
	DD	00H
	DD	FLAT:??_R0?AU?$ContainerForward@V?$vector@UFavoriteVolume@GostCrypt@@V?$allocator@UFavoriteVolume@GostCrypt@@@std@@@std@@@ForEach@GostCrypt@@@8
	DD	FLAT:??_R3?$ContainerForward@V?$vector@UFavoriteVolume@GostCrypt@@V?$allocator@UFavoriteVolume@GostCrypt@@@std@@@std@@@ForEach@GostCrypt@@8
rdata$r	ENDS
;	COMDAT ??_R1A@?0A@EA@ErrorException@GostCrypt@@8
rdata$r	SEGMENT
??_R1A@?0A@EA@ErrorException@GostCrypt@@8 DD FLAT:??_R0?AUErrorException@GostCrypt@@@8 ; GostCrypt::ErrorException::`RTTI Base Class Descriptor at (0,-1,0,64)'
	DD	01H
	DD	00H
	DD	0ffffffffH
	DD	00H
	DD	040H
	DD	FLAT:??_R3ErrorException@GostCrypt@@8
rdata$r	ENDS
;	COMDAT ??_R2ErrorException@GostCrypt@@8
rdata$r	SEGMENT
??_R2ErrorException@GostCrypt@@8 DD FLAT:??_R1A@?0A@EA@ErrorException@GostCrypt@@8 ; GostCrypt::ErrorException::`RTTI Base Class Array'
	DD	FLAT:??_R1A@?0A@EA@Exception@GostCrypt@@8
rdata$r	ENDS
;	COMDAT ??_R3ErrorException@GostCrypt@@8
rdata$r	SEGMENT
??_R3ErrorException@GostCrypt@@8 DD 00H			; GostCrypt::ErrorException::`RTTI Class Hierarchy Descriptor'
	DD	00H
	DD	02H
	DD	FLAT:??_R2ErrorException@GostCrypt@@8
rdata$r	ENDS
;	COMDAT ??_R4ErrorException@GostCrypt@@6B@
rdata$r	SEGMENT
??_R4ErrorException@GostCrypt@@6B@ DD 00H		; GostCrypt::ErrorException::`RTTI Complete Object Locator'
	DD	00H
	DD	00H
	DD	FLAT:??_R0?AUErrorException@GostCrypt@@@8
	DD	FLAT:??_R3ErrorException@GostCrypt@@8
rdata$r	ENDS
;	COMDAT ??_R1A@?0A@EA@Exception@GostCrypt@@8
rdata$r	SEGMENT
??_R1A@?0A@EA@Exception@GostCrypt@@8 DD FLAT:??_R0?AUException@GostCrypt@@@8 ; GostCrypt::Exception::`RTTI Base Class Descriptor at (0,-1,0,64)'
	DD	00H
	DD	00H
	DD	0ffffffffH
	DD	00H
	DD	040H
	DD	FLAT:??_R3Exception@GostCrypt@@8
rdata$r	ENDS
;	COMDAT ??_R2Exception@GostCrypt@@8
rdata$r	SEGMENT
??_R2Exception@GostCrypt@@8 DD FLAT:??_R1A@?0A@EA@Exception@GostCrypt@@8 ; GostCrypt::Exception::`RTTI Base Class Array'
rdata$r	ENDS
;	COMDAT ??_R3Exception@GostCrypt@@8
rdata$r	SEGMENT
??_R3Exception@GostCrypt@@8 DD 00H			; GostCrypt::Exception::`RTTI Class Hierarchy Descriptor'
	DD	00H
	DD	01H
	DD	FLAT:??_R2Exception@GostCrypt@@8
rdata$r	ENDS
;	COMDAT ??_R4Exception@GostCrypt@@6B@
rdata$r	SEGMENT
??_R4Exception@GostCrypt@@6B@ DD 00H			; GostCrypt::Exception::`RTTI Complete Object Locator'
	DD	00H
	DD	00H
	DD	FLAT:??_R0?AUException@GostCrypt@@@8
	DD	FLAT:??_R3Exception@GostCrypt@@8
rdata$r	ENDS
;	COMDAT ??_R1A@?0A@EA@Container@ForEach@GostCrypt@@8
rdata$r	SEGMENT
??_R1A@?0A@EA@Container@ForEach@GostCrypt@@8 DD FLAT:??_R0?AUContainer@ForEach@GostCrypt@@@8 ; GostCrypt::ForEach::Container::`RTTI Base Class Descriptor at (0,-1,0,64)'
	DD	00H
	DD	00H
	DD	0ffffffffH
	DD	00H
	DD	040H
	DD	FLAT:??_R3Container@ForEach@GostCrypt@@8
rdata$r	ENDS
;	COMDAT ??_R2Container@ForEach@GostCrypt@@8
rdata$r	SEGMENT
??_R2Container@ForEach@GostCrypt@@8 DD FLAT:??_R1A@?0A@EA@Container@ForEach@GostCrypt@@8 ; GostCrypt::ForEach::Container::`RTTI Base Class Array'
rdata$r	ENDS
;	COMDAT ??_R3Container@ForEach@GostCrypt@@8
rdata$r	SEGMENT
??_R3Container@ForEach@GostCrypt@@8 DD 00H		; GostCrypt::ForEach::Container::`RTTI Class Hierarchy Descriptor'
	DD	00H
	DD	01H
	DD	FLAT:??_R2Container@ForEach@GostCrypt@@8
rdata$r	ENDS
;	COMDAT ??_R0?AUContainer@ForEach@GostCrypt@@@8
data$r	SEGMENT
??_R0?AUContainer@ForEach@GostCrypt@@@8 DD FLAT:??_7type_info@@6B@ ; GostCrypt::ForEach::Container `RTTI Type Descriptor'
	DD	00H
	DB	'.?AUContainer@ForEach@GostCrypt@@', 00H
data$r	ENDS
;	COMDAT ??_R4Container@ForEach@GostCrypt@@6B@
rdata$r	SEGMENT
??_R4Container@ForEach@GostCrypt@@6B@ DD 00H		; GostCrypt::ForEach::Container::`RTTI Complete Object Locator'
	DD	00H
	DD	00H
	DD	FLAT:??_R0?AUContainer@ForEach@GostCrypt@@@8
	DD	FLAT:??_R3Container@ForEach@GostCrypt@@8
rdata$r	ENDS
;	COMDAT ??_C@_0BB@MOGOBHAF@list?$DMT?$DO?5too?5long?$AA@
CONST	SEGMENT
??_C@_0BB@MOGOBHAF@list?$DMT?$DO?5too?5long?$AA@ DB 'list<T> too long', 00H ; `string'
CONST	ENDS
;	COMDAT ??_C@_0BA@JFNIOLAK@string?5too?5long?$AA@
CONST	SEGMENT
??_C@_0BA@JFNIOLAK@string?5too?5long?$AA@ DB 'string too long', 00H ; `string'
CONST	ENDS
;	COMDAT ??_C@_0BI@CFPLBAOH@invalid?5string?5position?$AA@
CONST	SEGMENT
??_C@_0BI@CFPLBAOH@invalid?5string?5position?$AA@ DB 'invalid string posi'
	DB	'tion', 00H					; `string'
CONST	ENDS
;	COMDAT ??_C@_0BD@OLBABOEK@vector?$DMT?$DO?5too?5long?$AA@
CONST	SEGMENT
??_C@_0BD@OLBABOEK@vector?$DMT?$DO?5too?5long?$AA@ DB 'vector<T> too long'
	DB	00H						; `string'
CONST	ENDS
;	COMDAT ??_C@_0CI@HPPIJBMN@FAVORITE_ARRIVAL_MOUNT_NETWORK_P@
CONST	SEGMENT
??_C@_0CI@HPPIJBMN@FAVORITE_ARRIVAL_MOUNT_NETWORK_P@ DB 'FAVORITE_ARRIVAL'
	DB	'_MOUNT_NETWORK_PATH_ERR', 00H		; `string'
CONST	ENDS
;	COMDAT ??_C@_0CH@DKBAOJFF@FAVORITE_ARRIVAL_MOUNT_DEVICE_PA@
CONST	SEGMENT
??_C@_0CH@DKBAOJFF@FAVORITE_ARRIVAL_MOUNT_DEVICE_PA@ DB 'FAVORITE_ARRIVAL'
	DB	'_MOUNT_DEVICE_PATH_ERR', 00H		; `string'
CONST	ENDS
;	COMDAT ??_C@_0CK@BMBODKOP@FAVORITE_ARRIVAL_MOUNT_PARTITION@
CONST	SEGMENT
??_C@_0CK@BMBODKOP@FAVORITE_ARRIVAL_MOUNT_PARTITION@ DB 'FAVORITE_ARRIVAL'
	DB	'_MOUNT_PARTITION_TYPE_ERR', 00H		; `string'
CONST	ENDS
;	COMDAT ??_C@_0BP@JDCKOJKF@FAVORITE_LABEL_DEVICE_PATH_ERR?$AA@
CONST	SEGMENT
??_C@_0BP@JDCKOJKF@FAVORITE_LABEL_DEVICE_PATH_ERR?$AA@ DB 'FAVORITE_LABEL'
	DB	'_DEVICE_PATH_ERR', 00H			; `string'
CONST	ENDS
;	COMDAT ??_C@_0CC@GPNGJACE@FAVORITE_LABEL_PARTITION_TYPE_ER@
CONST	SEGMENT
??_C@_0CC@GPNGJACE@FAVORITE_LABEL_PARTITION_TYPE_ER@ DB 'FAVORITE_LABEL_P'
	DB	'ARTITION_TYPE_ERR', 00H			; `string'
CONST	ENDS
;	COMDAT ??_C@_0BL@JLAFANLF@SYS_FAVORITE_VOLUMES_SAVED?$AA@
CONST	SEGMENT
??_C@_0BL@JLAFANLF@SYS_FAVORITE_VOLUMES_SAVED?$AA@ DB 'SYS_FAVORITE_VOLUM'
	DB	'ES_SAVED', 00H				; `string'
CONST	ENDS
;	COMDAT ??_R0?AUUserAbort@GostCrypt@@@8
data$r	SEGMENT
??_R0?AUUserAbort@GostCrypt@@@8 DD FLAT:??_7type_info@@6B@ ; GostCrypt::UserAbort `RTTI Type Descriptor'
	DD	00H
	DB	'.?AUUserAbort@GostCrypt@@', 00H
data$r	ENDS
;	COMDAT ??_C@_1BO@LKECBBKI@?$AA?6?$AA?7?$AA?$DM?$AA?1?$AAf?$AAa?$AAv?$AAo?$AAr?$AAi?$AAt?$AAe?$AAs?$AA?$DO?$AA?$AA@
CONST	SEGMENT
??_C@_1BO@LKECBBKI@?$AA?6?$AA?7?$AA?$DM?$AA?1?$AAf?$AAa?$AAv?$AAo?$AAr?$AAi?$AAt?$AAe?$AAs?$AA?$DO?$AA?$AA@ DB 0aH
	DB	00H, 09H, 00H, '<', 00H, '/', 00H, 'f', 00H, 'a', 00H, 'v', 00H
	DB	'o', 00H, 'r', 00H, 'i', 00H, 't', 00H, 'e', 00H, 's', 00H, '>'
	DB	00H, 00H, 00H				; `string'
CONST	ENDS
;	COMDAT ??_C@_17EEOGHOKP@?$AA?$CF?$AAw?$AAs?$AA?$AA@
CONST	SEGMENT
??_C@_17EEOGHOKP@?$AA?$CF?$AAw?$AAs?$AA?$AA@ DB '%', 00H, 'w', 00H, 's', 00H
	DB	00H, 00H					; `string'
CONST	ENDS
;	COMDAT ??_C@_13MOEPKPHB@?$AA?$DO?$AA?$AA@
CONST	SEGMENT
??_C@_13MOEPKPHB@?$AA?$DO?$AA?$AA@ DB '>', 00H, 00H, 00H ; `string'
CONST	ENDS
;	COMDAT ??_C@_1BE@BKLKJEIJ@?$AA?$DM?$AA?1?$AAv?$AAo?$AAl?$AAu?$AAm?$AAe?$AA?$DO?$AA?$AA@
CONST	SEGMENT
??_C@_1BE@BKLKJEIJ@?$AA?$DM?$AA?1?$AAv?$AAo?$AAl?$AAu?$AAm?$AAe?$AA?$DO?$AA?$AA@ DB '<'
	DB	00H, '/', 00H, 'v', 00H, 'o', 00H, 'l', 00H, 'u', 00H, 'm', 00H
	DB	'e', 00H, '>', 00H, 00H, 00H			; `string'
CONST	ENDS
;	COMDAT ??_C@_1DA@CGPNJOBH@?$AA?5?$AAo?$AAp?$AAe?$AAn?$AAE?$AAx?$AAp?$AAl?$AAo?$AAr?$AAe?$AAr?$AAW?$AAi?$AAn?$AAd?$AAo?$AAw?$AA?$DN?$AA?$CC?$AA1?$AA?$CC?$AA?$AA@
CONST	SEGMENT
??_C@_1DA@CGPNJOBH@?$AA?5?$AAo?$AAp?$AAe?$AAn?$AAE?$AAx?$AAp?$AAl?$AAo?$AAr?$AAe?$AAr?$AAW?$AAi?$AAn?$AAd?$AAo?$AAw?$AA?$DN?$AA?$CC?$AA1?$AA?$CC?$AA?$AA@ DB ' '
	DB	00H, 'o', 00H, 'p', 00H, 'e', 00H, 'n', 00H, 'E', 00H, 'x', 00H
	DB	'p', 00H, 'l', 00H, 'o', 00H, 'r', 00H, 'e', 00H, 'r', 00H, 'W'
	DB	00H, 'i', 00H, 'n', 00H, 'd', 00H, 'o', 00H, 'w', 00H, '=', 00H
	DB	'"', 00H, '1', 00H, '"', 00H, 00H, 00H	; `string'
CONST	ENDS
;	COMDAT ??_C@_1CG@JPOBGFJC@?$AA?5?$AAn?$AAo?$AAH?$AAo?$AAt?$AAK?$AAe?$AAy?$AAM?$AAo?$AAu?$AAn?$AAt?$AA?$DN?$AA?$CC?$AA1?$AA?$CC?$AA?$AA@
CONST	SEGMENT
??_C@_1CG@JPOBGFJC@?$AA?5?$AAn?$AAo?$AAH?$AAo?$AAt?$AAK?$AAe?$AAy?$AAM?$AAo?$AAu?$AAn?$AAt?$AA?$DN?$AA?$CC?$AA1?$AA?$CC?$AA?$AA@ DB ' '
	DB	00H, 'n', 00H, 'o', 00H, 'H', 00H, 'o', 00H, 't', 00H, 'K', 00H
	DB	'e', 00H, 'y', 00H, 'M', 00H, 'o', 00H, 'u', 00H, 'n', 00H, 't'
	DB	00H, '=', 00H, '"', 00H, '1', 00H, '"', 00H, 00H, 00H ; `string'
CONST	ENDS
;	COMDAT ??_C@_1CE@JKNJFOGE@?$AA?5?$AAm?$AAo?$AAu?$AAn?$AAt?$AAO?$AAn?$AAL?$AAo?$AAg?$AAO?$AAn?$AA?$DN?$AA?$CC?$AA1?$AA?$CC?$AA?$AA@
CONST	SEGMENT
??_C@_1CE@JKNJFOGE@?$AA?5?$AAm?$AAo?$AAu?$AAn?$AAt?$AAO?$AAn?$AAL?$AAo?$AAg?$AAO?$AAn?$AA?$DN?$AA?$CC?$AA1?$AA?$CC?$AA?$AA@ DB ' '
	DB	00H, 'm', 00H, 'o', 00H, 'u', 00H, 'n', 00H, 't', 00H, 'O', 00H
	DB	'n', 00H, 'L', 00H, 'o', 00H, 'g', 00H, 'O', 00H, 'n', 00H, '='
	DB	00H, '"', 00H, '1', 00H, '"', 00H, 00H, 00H	; `string'
CONST	ENDS
;	COMDAT ??_C@_1CI@PFJKIIJG@?$AA?5?$AAm?$AAo?$AAu?$AAn?$AAt?$AAO?$AAn?$AAA?$AAr?$AAr?$AAi?$AAv?$AAa?$AAl?$AA?$DN?$AA?$CC?$AA1?$AA?$CC?$AA?$AA@
CONST	SEGMENT
??_C@_1CI@PFJKIIJG@?$AA?5?$AAm?$AAo?$AAu?$AAn?$AAt?$AAO?$AAn?$AAA?$AAr?$AAr?$AAi?$AAv?$AAa?$AAl?$AA?$DN?$AA?$CC?$AA1?$AA?$CC?$AA?$AA@ DB ' '
	DB	00H, 'm', 00H, 'o', 00H, 'u', 00H, 'n', 00H, 't', 00H, 'O', 00H
	DB	'n', 00H, 'A', 00H, 'r', 00H, 'r', 00H, 'i', 00H, 'v', 00H, 'a'
	DB	00H, 'l', 00H, '=', 00H, '"', 00H, '1', 00H, '"', 00H, 00H, 00H ; `string'
CONST	ENDS
;	COMDAT ??_C@_1BI@DCLBMOGE@?$AA?5?$AAs?$AAy?$AAs?$AAt?$AAe?$AAm?$AA?$DN?$AA?$CC?$AA1?$AA?$CC?$AA?$AA@
CONST	SEGMENT
??_C@_1BI@DCLBMOGE@?$AA?5?$AAs?$AAy?$AAs?$AAt?$AAe?$AAm?$AA?$DN?$AA?$CC?$AA1?$AA?$CC?$AA?$AA@ DB ' '
	DB	00H, 's', 00H, 'y', 00H, 's', 00H, 't', 00H, 'e', 00H, 'm', 00H
	DB	'=', 00H, '"', 00H, '1', 00H, '"', 00H, 00H, 00H ; `string'
CONST	ENDS
;	COMDAT ??_C@_1BO@KPDNDBGI@?$AA?5?$AAr?$AAe?$AAm?$AAo?$AAv?$AAa?$AAb?$AAl?$AAe?$AA?$DN?$AA?$CC?$AA1?$AA?$CC?$AA?$AA@
CONST	SEGMENT
??_C@_1BO@KPDNDBGI@?$AA?5?$AAr?$AAe?$AAm?$AAo?$AAv?$AAa?$AAb?$AAl?$AAe?$AA?$DN?$AA?$CC?$AA1?$AA?$CC?$AA?$AA@ DB ' '
	DB	00H, 'r', 00H, 'e', 00H, 'm', 00H, 'o', 00H, 'v', 00H, 'a', 00H
	DB	'b', 00H, 'l', 00H, 'e', 00H, '=', 00H, '"', 00H, '1', 00H, '"'
	DB	00H, 00H, 00H				; `string'
CONST	ENDS
;	COMDAT ??_C@_1BM@ENOBLAGP@?$AA?5?$AAr?$AAe?$AAa?$AAd?$AAo?$AAn?$AAl?$AAy?$AA?$DN?$AA?$CC?$AA1?$AA?$CC?$AA?$AA@
CONST	SEGMENT
??_C@_1BM@ENOBLAGP@?$AA?5?$AAr?$AAe?$AAa?$AAd?$AAo?$AAn?$AAl?$AAy?$AA?$DN?$AA?$CC?$AA1?$AA?$CC?$AA?$AA@ DB ' '
	DB	00H, 'r', 00H, 'e', 00H, 'a', 00H, 'd', 00H, 'o', 00H, 'n', 00H
	DB	'l', 00H, 'y', 00H, '=', 00H, '"', 00H, '1', 00H, '"', 00H, 00H
	DB	00H						; `string'
CONST	ENDS
;	COMDAT ??_C@_1BC@IMCPEDAD@?$AA?5?$AAl?$AAa?$AAb?$AAe?$AAl?$AA?$DN?$AA?$CC?$AA?$AA@
CONST	SEGMENT
??_C@_1BC@IMCPEDAD@?$AA?5?$AAl?$AAa?$AAb?$AAe?$AAl?$AA?$DN?$AA?$CC?$AA?$AA@ DB ' '
	DB	00H, 'l', 00H, 'a', 00H, 'b', 00H, 'e', 00H, 'l', 00H, '=', 00H
	DB	'"', 00H, 00H, 00H				; `string'
CONST	ENDS
;	COMDAT ??_C@_1DA@FKMFKHK@?$AA?6?$AA?7?$AA?7?$AA?$DM?$AAv?$AAo?$AAl?$AAu?$AAm?$AAe?$AA?5?$AAm?$AAo?$AAu?$AAn?$AAt?$AAp?$AAo?$AAi?$AAn?$AAt?$AA?$DN?$AA?$CC?$AA?$AA@
CONST	SEGMENT
??_C@_1DA@FKMFKHK@?$AA?6?$AA?7?$AA?7?$AA?$DM?$AAv?$AAo?$AAl?$AAu?$AAm?$AAe?$AA?5?$AAm?$AAo?$AAu?$AAn?$AAt?$AAp?$AAo?$AAi?$AAn?$AAt?$AA?$DN?$AA?$CC?$AA?$AA@ DB 0aH
	DB	00H, 09H, 00H, 09H, 00H, '<', 00H, 'v', 00H, 'o', 00H, 'l', 00H
	DB	'u', 00H, 'm', 00H, 'e', 00H, ' ', 00H, 'm', 00H, 'o', 00H, 'u'
	DB	00H, 'n', 00H, 't', 00H, 'p', 00H, 'o', 00H, 'i', 00H, 'n', 00H
	DB	't', 00H, '=', 00H, '"', 00H, 00H, 00H	; `string'
CONST	ENDS
;	COMDAT ??_C@_13NEIAEHFG@?$AA?$CC?$AA?$AA@
CONST	SEGMENT
??_C@_13NEIAEHFG@?$AA?$CC?$AA?$AA@ DB '"', 00H, 00H, 00H ; `string'
CONST	ENDS
;	COMDAT ??_C@_0CB@FDMOEEOH@SYSTEM_FAVORITE_NETWORK_PATH_ERR@
CONST	SEGMENT
??_C@_0CB@FDMOEEOH@SYSTEM_FAVORITE_NETWORK_PATH_ERR@ DB 'SYSTEM_FAVORITE_'
	DB	'NETWORK_PATH_ERR', 00H			; `string'
CONST	ENDS
;	COMDAT ??_C@_07HBPFMAGN@Volume?$HL?$AA@
CONST	SEGMENT
??_C@_07HBPFMAGN@Volume?$HL?$AA@ DB 'Volume{', 00H	; `string'
CONST	ENDS
;	COMDAT ??_C@_02HDBGODGB@?2?2?$AA@
CONST	SEGMENT
??_C@_02HDBGODGB@?2?2?$AA@ DB '\\', 00H			; `string'
CONST	ENDS
;	COMDAT ??_C@_1BM@LHCEIKFH@?$AA?6?$AA?7?$AA?$DM?$AAf?$AAa?$AAv?$AAo?$AAr?$AAi?$AAt?$AAe?$AAs?$AA?$DO?$AA?$AA@
CONST	SEGMENT
??_C@_1BM@LHCEIKFH@?$AA?6?$AA?7?$AA?$DM?$AAf?$AAa?$AAv?$AAo?$AAr?$AAi?$AAt?$AAe?$AAs?$AA?$DO?$AA?$AA@ DB 0aH
	DB	00H, 09H, 00H, '<', 00H, 'f', 00H, 'a', 00H, 'v', 00H, 'o', 00H
	DB	'r', 00H, 'i', 00H, 't', 00H, 'e', 00H, 's', 00H, '>', 00H, 00H
	DB	00H						; `string'
CONST	ENDS
;	COMDAT ??_C@_0M@OEIOICOO@w?0ccs?$DNUTF?98?$AA@
CONST	SEGMENT
??_C@_0M@OEIOICOO@w?0ccs?$DNUTF?98?$AA@ DB 'w,ccs=UTF-8', 00H ; `string'
CONST	ENDS
;	COMDAT ??_7?$ContainerForward@V?$list@UFavoriteVolume@GostCrypt@@V?$allocator@UFavoriteVolume@GostCrypt@@@std@@@std@@@ForEach@GostCrypt@@6B@
CONST	SEGMENT
??_7?$ContainerForward@V?$list@UFavoriteVolume@GostCrypt@@V?$allocator@UFavoriteVolume@GostCrypt@@@std@@@std@@@ForEach@GostCrypt@@6B@ DD FLAT:??_R4?$ContainerForward@V?$list@UFavoriteVolume@GostCrypt@@V?$allocator@UFavoriteVolume@GostCrypt@@@std@@@std@@@ForEach@GostCrypt@@6B@ ; GostCrypt::ForEach::ContainerForward<std::list<GostCrypt::FavoriteVolume,std::allocator<GostCrypt::FavoriteVolume> > >::`vftable'
	DD	FLAT:??_E?$ContainerForward@V?$list@UFavoriteVolume@GostCrypt@@V?$allocator@UFavoriteVolume@GostCrypt@@@std@@@std@@@ForEach@GostCrypt@@UAEPAXI@Z
	DD	FLAT:?IsNotEnd@?$ContainerForward@V?$list@UFavoriteVolume@GostCrypt@@V?$allocator@UFavoriteVolume@GostCrypt@@@std@@@std@@@ForEach@GostCrypt@@UBE_NXZ
	DD	FLAT:?Next@?$ContainerForward@V?$list@UFavoriteVolume@GostCrypt@@V?$allocator@UFavoriteVolume@GostCrypt@@@std@@@std@@@ForEach@GostCrypt@@UBEXXZ
CONST	ENDS
;	COMDAT ??_C@_02EKJJMPLG@?$HN?2?$AA@
CONST	SEGMENT
??_C@_02EKJJMPLG@?$HN?2?$AA@ DB '}\', 00H		; `string'
CONST	ENDS
;	COMDAT ??_C@_0N@GAADCGJD@mountOnLogOn?$AA@
CONST	SEGMENT
??_C@_0N@GAADCGJD@mountOnLogOn?$AA@ DB 'mountOnLogOn', 00H ; `string'
CONST	ENDS
;	COMDAT ??_C@_0P@BNAHGHLI@mountOnArrival?$AA@
CONST	SEGMENT
??_C@_0P@BNAHGHLI@mountOnArrival?$AA@ DB 'mountOnArrival', 00H ; `string'
CONST	ENDS
;	COMDAT ??_C@_0BD@FMMJHNKO@openExplorerWindow?$AA@
CONST	SEGMENT
??_C@_0BD@FMMJHNKO@openExplorerWindow?$AA@ DB 'openExplorerWindow', 00H ; `string'
CONST	ENDS
;	COMDAT ??_C@_0O@KADIAEN@noHotKeyMount?$AA@
CONST	SEGMENT
??_C@_0O@KADIAEN@noHotKeyMount?$AA@ DB 'noHotKeyMount', 00H ; `string'
CONST	ENDS
;	COMDAT ??_C@_09HPGMKNKO@removable?$AA@
CONST	SEGMENT
??_C@_09HPGMKNKO@removable?$AA@ DB 'removable', 00H	; `string'
CONST	ENDS
;	COMDAT ??_C@_08JOKHDEJH@readonly?$AA@
CONST	SEGMENT
??_C@_08JOKHDEJH@readonly?$AA@ DB 'readonly', 00H	; `string'
CONST	ENDS
;	COMDAT ??_C@_05IDCCNNGI@label?$AA@
CONST	SEGMENT
??_C@_05IDCCNNGI@label?$AA@ DB 'label', 00H		; `string'
CONST	ENDS
;	COMDAT ??_C@_0L@BHNCAFPG@mountpoint?$AA@
CONST	SEGMENT
??_C@_0L@BHNCAFPG@mountpoint?$AA@ DB 'mountpoint', 00H	; `string'
CONST	ENDS
;	COMDAT ??_C@_06EMCPHFGM@volume?$AA@
CONST	SEGMENT
??_C@_06EMCPHFGM@volume?$AA@ DB 'volume', 00H		; `string'
CONST	ENDS
;	COMDAT ??_R0?AUSystemException@GostCrypt@@@8
data$r	SEGMENT
??_R0?AUSystemException@GostCrypt@@@8 DD FLAT:??_7type_info@@6B@ ; GostCrypt::SystemException `RTTI Type Descriptor'
	DD	00H
	DB	'.?AUSystemException@GostCrypt@@', 00H
data$r	ENDS
;	COMDAT ??_C@_0BF@EGBOIEGJ@Favorite?5Volumes?4xml?$AA@
CONST	SEGMENT
??_C@_0BF@EGBOIEGJ@Favorite?5Volumes?4xml?$AA@ DB 'Favorite Volumes.xml', 00H ; `string'
CONST	ENDS
;	COMDAT ??_C@_0CG@KHDBJKEN@GostCrypt?5System?5Favorite?5Volume@
CONST	SEGMENT
??_C@_0CG@KHDBJKEN@GostCrypt?5System?5Favorite?5Volume@ DB 'GostCrypt Sys'
	DB	'tem Favorite Volumes.xml', 00H		; `string'
CONST	ENDS
;	COMDAT ??_C@_13KDLDGPGJ@?$AA?7?$AA?$AA@
CONST	SEGMENT
??_C@_13KDLDGPGJ@?$AA?7?$AA?$AA@ DB 09H, 00H, 00H, 00H	; `string'
CONST	ENDS
;	COMDAT ??_C@_13HOIJIPNN@?$AA?5?$AA?$AA@
CONST	SEGMENT
??_C@_13HOIJIPNN@?$AA?5?$AA?$AA@ DB ' ', 00H, 00H, 00H	; `string'
CONST	ENDS
;	COMDAT ??_C@_11LOCGONAA@?$AA?$AA@
CONST	SEGMENT
??_C@_11LOCGONAA@?$AA?$AA@ DB 00H, 00H			; `string'
CONST	ENDS
;	COMDAT ??_C@_13LLDNKHDC@?$AA?$CI?$AA?$AA@
CONST	SEGMENT
??_C@_13LLDNKHDC@?$AA?$CI?$AA?$AA@ DB '(', 00H, 00H, 00H ; `string'
CONST	ENDS
;	COMDAT ??_C@_0BK@OGKIEBOP@FAVORITE_DISCONNECTED_DEV?$AA@
CONST	SEGMENT
??_C@_0BK@OGKIEBOP@FAVORITE_DISCONNECTED_DEV?$AA@ DB 'FAVORITE_DISCONNECT'
	DB	'ED_DEV', 00H				; `string'
CONST	ENDS
;	COMDAT ??_C@_13DIBMAFH@?$AA?$CJ?$AA?$AA@
CONST	SEGMENT
??_C@_13DIBMAFH@?$AA?$CJ?$AA?$AA@ DB ')', 00H, 00H, 00H	; `string'
CONST	ENDS
;	COMDAT ??_C@_09OAMOHPIB@favorites?$AA@
CONST	SEGMENT
??_C@_09OAMOHPIB@favorites?$AA@ DB 'favorites', 00H	; `string'
CONST	ENDS
;	COMDAT ??_C@_0N@NFCNMOKI@sysfavorites?$AA@
CONST	SEGMENT
??_C@_0N@NFCNMOKI@sysfavorites?$AA@ DB 'sysfavorites', 00H ; `string'
CONST	ENDS
;	COMDAT ??_C@_0CB@FJMJOJID@SYS_FAVORITES_ADMIN_ONLY_WARNING@
CONST	SEGMENT
??_C@_0CB@FJMJOJID@SYS_FAVORITES_ADMIN_ONLY_WARNING@ DB 'SYS_FAVORITES_AD'
	DB	'MIN_ONLY_WARNING', 00H			; `string'
CONST	ENDS
;	COMDAT ??_C@_0BI@BHGNKFED@SETTING_REQUIRES_REBOOT?$AA@
CONST	SEGMENT
??_C@_0BI@BHGNKFED@SETTING_REQUIRES_REBOOT?$AA@ DB 'SETTING_REQUIRES_REBO'
	DB	'OT', 00H					; `string'
CONST	ENDS
;	COMDAT ??_C@_0BO@EPEDCGFA@SYS_FAVORITES_ADMIN_ONLY_INFO?$AA@
CONST	SEGMENT
??_C@_0BO@EPEDCGFA@SYS_FAVORITES_ADMIN_ONLY_INFO?$AA@ DB 'SYS_FAVORITES_A'
	DB	'DMIN_ONLY_INFO', 00H			; `string'
CONST	ENDS
;	COMDAT ??_C@_0BP@EBHLJFH@SYS_FAVORITES_KEYBOARD_WARNING?$AA@
CONST	SEGMENT
??_C@_0BP@EBHLJFH@SYS_FAVORITES_KEYBOARD_WARNING?$AA@ DB 'SYS_FAVORITES_K'
	DB	'EYBOARD_WARNING', 00H			; `string'
CONST	ENDS
;	COMDAT ??_C@_15IABLJNFO@?$AA?6?$AA?6?$AA?$AA@
CONST	SEGMENT
??_C@_15IABLJNFO@?$AA?6?$AA?6?$AA?$AA@ DB 0aH, 00H, 0aH, 00H, 00H, 00H ; `string'
CONST	ENDS
;	COMDAT ??_C@_0CF@JLONOHPL@BOOT_PASSWORD_CACHE_KEYBOARD_WAR@
CONST	SEGMENT
??_C@_0CF@JLONOHPL@BOOT_PASSWORD_CACHE_KEYBOARD_WAR@ DB 'BOOT_PASSWORD_CA'
	DB	'CHE_KEYBOARD_WARNING', 00H			; `string'
CONST	ENDS
;	COMDAT ??_C@_0CL@LJFCINAI@FAVORITE_ARRIVAL_MOUNT_BACKGROUN@
CONST	SEGMENT
??_C@_0CL@LJFCINAI@FAVORITE_ARRIVAL_MOUNT_BACKGROUN@ DB 'FAVORITE_ARRIVAL'
	DB	'_MOUNT_BACKGROUND_TASK_ERR', 00H		; `string'
CONST	ENDS
;	COMDAT ??_C@_0BI@CHIEPLIO@SYS_FAVORITES_HELP_LINK?$AA@
CONST	SEGMENT
??_C@_0BI@CHIEPLIO@SYS_FAVORITES_HELP_LINK?$AA@ DB 'SYS_FAVORITES_HELP_LI'
	DB	'NK', 00H					; `string'
CONST	ENDS
;	COMDAT ??_C@_06EIAEKLLO@VOLUME?$AA@
CONST	SEGMENT
??_C@_06EIAEKLLO@VOLUME?$AA@ DB 'VOLUME', 00H		; `string'
CONST	ENDS
;	COMDAT ??_C@_05EILEDKCG@LABEL?$AA@
CONST	SEGMENT
??_C@_05EILEDKCG@LABEL?$AA@ DB 'LABEL', 00H		; `string'
CONST	ENDS
;	COMDAT ??_C@_05JLAEHEHI@DRIVE?$AA@
CONST	SEGMENT
??_C@_05JLAEHEHI@DRIVE?$AA@ DB 'DRIVE', 00H		; `string'
CONST	ENDS
;	COMDAT ??_C@_0CG@OLJJJKLA@DISABLE_NONADMIN_SYS_FAVORITES_A@
CONST	SEGMENT
??_C@_0CG@OLJJJKLA@DISABLE_NONADMIN_SYS_FAVORITES_A@ DB 'DISABLE_NONADMIN'
	DB	'_SYS_FAVORITES_ACCESS', 00H			; `string'
CONST	ENDS
;	COMDAT ??_C@_0BP@EKHONFKP@MOUNT_SYSTEM_FAVORITES_ON_BOOT?$AA@
CONST	SEGMENT
??_C@_0BP@EKHONFKP@MOUNT_SYSTEM_FAVORITES_ON_BOOT?$AA@ DB 'MOUNT_SYSTEM_F'
	DB	'AVORITES_ON_BOOT', 00H			; `string'
CONST	ENDS
;	COMDAT ??_C@_0BK@ELJEKFFN@SYS_FAVORITES_REQUIRE_PBA?$AA@
CONST	SEGMENT
??_C@_0BK@ELJEKFFN@SYS_FAVORITES_REQUIRE_PBA?$AA@ DB 'SYS_FAVORITES_REQUI'
	DB	'RE_PBA', 00H				; `string'
CONST	ENDS
;	COMDAT __CT??_R0?AUException@GostCrypt@@@8??0Exception@GostCrypt@@QAE@ABU01@@Z4
xdata$x	SEGMENT
__CT??_R0?AUException@GostCrypt@@@8??0Exception@GostCrypt@@QAE@ABU01@@Z4 DD 00H
	DD	FLAT:??_R0?AUException@GostCrypt@@@8
	DD	00H
	DD	0ffffffffH
	ORG $+4
	DD	04H
	DD	FLAT:??0Exception@GostCrypt@@QAE@ABU01@@Z
xdata$x	ENDS
;	COMDAT ??_R0?AUException@GostCrypt@@@8
data$r	SEGMENT
??_R0?AUException@GostCrypt@@@8 DD FLAT:??_7type_info@@6B@ ; GostCrypt::Exception `RTTI Type Descriptor'
	DD	00H
	DB	'.?AUException@GostCrypt@@', 00H
data$r	ENDS
;	COMDAT __CT??_R0?AUErrorException@GostCrypt@@@8??0ErrorException@GostCrypt@@QAE@ABU01@@Z32
xdata$x	SEGMENT
__CT??_R0?AUErrorException@GostCrypt@@@8??0ErrorException@GostCrypt@@QAE@ABU01@@Z32 DD 00H
	DD	FLAT:??_R0?AUErrorException@GostCrypt@@@8
	DD	00H
	DD	0ffffffffH
	ORG $+4
	DD	020H
	DD	FLAT:??0ErrorException@GostCrypt@@QAE@ABU01@@Z
xdata$x	ENDS
;	COMDAT ??_R0?AUErrorException@GostCrypt@@@8
data$r	SEGMENT
??_R0?AUErrorException@GostCrypt@@@8 DD FLAT:??_7type_info@@6B@ ; GostCrypt::ErrorException `RTTI Type Descriptor'
	DD	00H
	DB	'.?AUErrorException@GostCrypt@@', 00H
data$r	ENDS
;	COMDAT __CTA2?AUErrorException@GostCrypt@@
xdata$x	SEGMENT
__CTA2?AUErrorException@GostCrypt@@ DD 02H
	DD	FLAT:__CT??_R0?AUErrorException@GostCrypt@@@8??0ErrorException@GostCrypt@@QAE@ABU01@@Z32
	DD	FLAT:__CT??_R0?AUException@GostCrypt@@@8??0Exception@GostCrypt@@QAE@ABU01@@Z4
xdata$x	ENDS
;	COMDAT __TI2?AUErrorException@GostCrypt@@
xdata$x	SEGMENT
__TI2?AUErrorException@GostCrypt@@ DD 00H
	DD	FLAT:??1ErrorException@GostCrypt@@QAE@XZ
	DD	00H
	DD	FLAT:__CTA2?AUErrorException@GostCrypt@@
xdata$x	ENDS
;	COMDAT ??_C@_0BF@HCOFEODH@IDD_FAVORITE_VOLUMES?$AA@
CONST	SEGMENT
??_C@_0BF@HCOFEODH@IDD_FAVORITE_VOLUMES?$AA@ DB 'IDD_FAVORITE_VOLUMES', 00H ; `string'
CONST	ENDS
;	COMDAT ??_C@_0BL@JDDKFBO@SYSTEM_FAVORITES_DLG_TITLE?$AA@
CONST	SEGMENT
??_C@_0BL@JDDKFBO@SYSTEM_FAVORITES_DLG_TITLE?$AA@ DB 'SYSTEM_FAVORITES_DL'
	DB	'G_TITLE', 00H				; `string'
CONST	ENDS
;	COMDAT ??_7?$ContainerForward@V?$vector@UFavoriteVolume@GostCrypt@@V?$allocator@UFavoriteVolume@GostCrypt@@@std@@@std@@@ForEach@GostCrypt@@6B@
CONST	SEGMENT
??_7?$ContainerForward@V?$vector@UFavoriteVolume@GostCrypt@@V?$allocator@UFavoriteVolume@GostCrypt@@@std@@@std@@@ForEach@GostCrypt@@6B@ DD FLAT:??_R4?$ContainerForward@V?$vector@UFavoriteVolume@GostCrypt@@V?$allocator@UFavoriteVolume@GostCrypt@@@std@@@std@@@ForEach@GostCrypt@@6B@ ; GostCrypt::ForEach::ContainerForward<std::vector<GostCrypt::FavoriteVolume,std::allocator<GostCrypt::FavoriteVolume> > >::`vftable'
	DD	FLAT:??_E?$ContainerForward@V?$vector@UFavoriteVolume@GostCrypt@@V?$allocator@UFavoriteVolume@GostCrypt@@@std@@@std@@@ForEach@GostCrypt@@UAEPAXI@Z
	DD	FLAT:?IsNotEnd@?$ContainerForward@V?$vector@UFavoriteVolume@GostCrypt@@V?$allocator@UFavoriteVolume@GostCrypt@@@std@@@std@@@ForEach@GostCrypt@@UBE_NXZ
	DD	FLAT:?Next@?$ContainerForward@V?$vector@UFavoriteVolume@GostCrypt@@V?$allocator@UFavoriteVolume@GostCrypt@@@std@@@std@@@ForEach@GostCrypt@@UBEXXZ
CONST	ENDS
;	COMDAT ??_C@_0BP@BOKIMCAM@FAVORITE_ADD_DRIVE_DEV_WARNING?$AA@
CONST	SEGMENT
??_C@_0BP@BOKIMCAM@FAVORITE_ADD_DRIVE_DEV_WARNING?$AA@ DB 'FAVORITE_ADD_D'
	DB	'RIVE_DEV_WARNING', 00H			; `string'
CONST	ENDS
;	COMDAT ??_C@_0CE@GJAIEOAP@FAVORITE_ADD_PARTITION_TYPE_WARN@
CONST	SEGMENT
??_C@_0CE@GJAIEOAP@FAVORITE_ADD_PARTITION_TYPE_WARN@ DB 'FAVORITE_ADD_PAR'
	DB	'TITION_TYPE_WARNING', 00H			; `string'
CONST	ENDS
;	COMDAT ??_C@_0M@OJHKIMBP@?2Partition0?$AA@
CONST	SEGMENT
??_C@_0M@OJHKIMBP@?2Partition0?$AA@ DB '\Partition0', 00H ; `string'
CONST	ENDS
;	COMDAT ??_C@_0M@CJEJOKNC@?2?2?$DP?2Volume?$HL?$AA@
CONST	SEGMENT
??_C@_0M@CJEJOKNC@?2?2?$DP?2Volume?$HL?$AA@ DB '\\?\Volume{', 00H ; `string'
CONST	ENDS
;	COMDAT ??_C@_04FFEPHCCK@?2?$DP?$DP?2?$AA@
CONST	SEGMENT
??_C@_04FFEPHCCK@?2?$DP?$DP?2?$AA@ DB '\??\', 00H	; `string'
CONST	ENDS
;	COMDAT ??_C@_03OPPAHFLA@X?3?2?$AA@
CONST	SEGMENT
??_C@_03OPPAHFLA@X?3?2?$AA@ DB 'X:\', 00H		; `string'
CONST	ENDS
;	COMDAT ??_7ErrorException@GostCrypt@@6B@
CONST	SEGMENT
??_7ErrorException@GostCrypt@@6B@ DD FLAT:??_R4ErrorException@GostCrypt@@6B@ ; GostCrypt::ErrorException::`vftable'
	DD	FLAT:?Show@ErrorException@GostCrypt@@UBEXPAUHWND__@@@Z
CONST	ENDS
;	COMDAT ??_7Exception@GostCrypt@@6B@
CONST	SEGMENT
??_7Exception@GostCrypt@@6B@ DD FLAT:??_R4Exception@GostCrypt@@6B@ ; GostCrypt::Exception::`vftable'
	DD	FLAT:__purecall
CONST	ENDS
;	COMDAT ??_7Container@ForEach@GostCrypt@@6B@
CONST	SEGMENT
??_7Container@ForEach@GostCrypt@@6B@ DD FLAT:??_R4Container@ForEach@GostCrypt@@6B@ ; GostCrypt::ForEach::Container::`vftable'
	DD	FLAT:??_EContainer@ForEach@GostCrypt@@UAEPAXI@Z
	DD	FLAT:__purecall
	DD	FLAT:__purecall
CONST	ENDS
;	COMDAT ??_C@_06FHFOAHML@system?$AA@
CONST	SEGMENT
??_C@_06FHFOAHML@system?$AA@ DB 'system', 00H		; `string'
CONST	ENDS
;	COMDAT ??_C@_00CNPNBAHC@?$AA@
CONST	SEGMENT
??_C@_00CNPNBAHC@?$AA@ DB 00H				; `string'
CONST	ENDS
;	COMDAT xdata$x
xdata$x	SEGMENT
__catchsym$??$_Uninitialized_copy_al_unchecked1@PBUFavoriteVolume@GostCrypt@@PAU12@V?$allocator@UFavoriteVolume@GostCrypt@@@std@@@std@@YAPAUFavoriteVolume@GostCrypt@@PBU12@0PAU12@AAU?$_Wrap_alloc@V?$allocator@UFavoriteVolume@GostCrypt@@@std@@@0@U_General_ptr_iterator_tag@0@U_Any_tag@0@@Z$6 DD 040H
	DD	00H
	DD	00H
	DD	FLAT:__catch$??$_Uninitialized_copy_al_unchecked1@PBUFavoriteVolume@GostCrypt@@PAU12@V?$allocator@UFavoriteVolume@GostCrypt@@@std@@@std@@YAPAUFavoriteVolume@GostCrypt@@PBU12@0PAU12@AAU?$_Wrap_alloc@V?$allocator@UFavoriteVolume@GostCrypt@@@std@@@0@U_General_ptr_iterator_tag@0@U_Any_tag@0@@Z$0
__tryblocktable$??$_Uninitialized_copy_al_unchecked1@PBUFavoriteVolume@GostCrypt@@PAU12@V?$allocator@UFavoriteVolume@GostCrypt@@@std@@@std@@YAPAUFavoriteVolume@GostCrypt@@PBU12@0PAU12@AAU?$_Wrap_alloc@V?$allocator@UFavoriteVolume@GostCrypt@@@std@@@0@U_General_ptr_iterator_tag@0@U_Any_tag@0@@Z DD 00H
	DD	01H
	DD	02H
	DD	01H
	DD	FLAT:__catchsym$??$_Uninitialized_copy_al_unchecked1@PBUFavoriteVolume@GostCrypt@@PAU12@V?$allocator@UFavoriteVolume@GostCrypt@@@std@@@std@@YAPAUFavoriteVolume@GostCrypt@@PBU12@0PAU12@AAU?$_Wrap_alloc@V?$allocator@UFavoriteVolume@GostCrypt@@@std@@@0@U_General_ptr_iterator_tag@0@U_Any_tag@0@@Z$6
__unwindtable$??$_Uninitialized_copy_al_unchecked1@PBUFavoriteVolume@GostCrypt@@PAU12@V?$allocator@UFavoriteVolume@GostCrypt@@@std@@@std@@YAPAUFavoriteVolume@GostCrypt@@PBU12@0PAU12@AAU?$_Wrap_alloc@V?$allocator@UFavoriteVolume@GostCrypt@@@std@@@0@U_General_ptr_iterator_tag@0@U_Any_tag@0@@Z DD 0ffffffffH
	DD	00H
	DD	00H
	DD	FLAT:__unwindfunclet$??$_Uninitialized_copy_al_unchecked1@PBUFavoriteVolume@GostCrypt@@PAU12@V?$allocator@UFavoriteVolume@GostCrypt@@@std@@@std@@YAPAUFavoriteVolume@GostCrypt@@PBU12@0PAU12@AAU?$_Wrap_alloc@V?$allocator@UFavoriteVolume@GostCrypt@@@std@@@0@U_General_ptr_iterator_tag@0@U_Any_tag@0@@Z$4
	DD	0ffffffffH
	DD	00H
__ehfuncinfo$??$_Uninitialized_copy_al_unchecked1@PBUFavoriteVolume@GostCrypt@@PAU12@V?$allocator@UFavoriteVolume@GostCrypt@@@std@@@std@@YAPAUFavoriteVolume@GostCrypt@@PBU12@0PAU12@AAU?$_Wrap_alloc@V?$allocator@UFavoriteVolume@GostCrypt@@@std@@@0@U_General_ptr_iterator_tag@0@U_Any_tag@0@@Z DD 019930522H
	DD	03H
	DD	FLAT:__unwindtable$??$_Uninitialized_copy_al_unchecked1@PBUFavoriteVolume@GostCrypt@@PAU12@V?$allocator@UFavoriteVolume@GostCrypt@@@std@@@std@@YAPAUFavoriteVolume@GostCrypt@@PBU12@0PAU12@AAU?$_Wrap_alloc@V?$allocator@UFavoriteVolume@GostCrypt@@@std@@@0@U_General_ptr_iterator_tag@0@U_Any_tag@0@@Z
	DD	01H
	DD	FLAT:__tryblocktable$??$_Uninitialized_copy_al_unchecked1@PBUFavoriteVolume@GostCrypt@@PAU12@V?$allocator@UFavoriteVolume@GostCrypt@@@std@@@std@@YAPAUFavoriteVolume@GostCrypt@@PBU12@0PAU12@AAU?$_Wrap_alloc@V?$allocator@UFavoriteVolume@GostCrypt@@@std@@@0@U_General_ptr_iterator_tag@0@U_Any_tag@0@@Z
	DD	2 DUP(00H)
	DD	00H
	DD	01H
xdata$x	ENDS
;	COMDAT xdata$x
xdata$x	SEGMENT
__unwindtable$??$construct@UFavoriteVolume@GostCrypt@@ABU12@@?$allocator@U?$_List_node@UFavoriteVolume@GostCrypt@@PAX@std@@@std@@QAEXPAUFavoriteVolume@GostCrypt@@ABU23@@Z DD 0ffffffffH
	DD	FLAT:__unwindfunclet$??$construct@UFavoriteVolume@GostCrypt@@ABU12@@?$allocator@U?$_List_node@UFavoriteVolume@GostCrypt@@PAX@std@@@std@@QAEXPAUFavoriteVolume@GostCrypt@@ABU23@@Z$0
__ehfuncinfo$??$construct@UFavoriteVolume@GostCrypt@@ABU12@@?$allocator@U?$_List_node@UFavoriteVolume@GostCrypt@@PAX@std@@@std@@QAEXPAUFavoriteVolume@GostCrypt@@ABU23@@Z DD 019930522H
	DD	01H
	DD	FLAT:__unwindtable$??$construct@UFavoriteVolume@GostCrypt@@ABU12@@?$allocator@U?$_List_node@UFavoriteVolume@GostCrypt@@PAX@std@@@std@@QAEXPAUFavoriteVolume@GostCrypt@@ABU23@@Z
	DD	2 DUP(00H)
	DD	2 DUP(00H)
	DD	00H
	DD	01H
xdata$x	ENDS
;	COMDAT xdata$x
xdata$x	SEGMENT
__catchsym$??$_Uninitialized_copy_al_unchecked1@PAUFavoriteVolume@GostCrypt@@PAU12@V?$allocator@UFavoriteVolume@GostCrypt@@@std@@@std@@YAPAUFavoriteVolume@GostCrypt@@PAU12@00AAU?$_Wrap_alloc@V?$allocator@UFavoriteVolume@GostCrypt@@@std@@@0@U_General_ptr_iterator_tag@0@U_Any_tag@0@@Z$6 DD 040H
	DD	00H
	DD	00H
	DD	FLAT:__catch$??$_Uninitialized_copy_al_unchecked1@PAUFavoriteVolume@GostCrypt@@PAU12@V?$allocator@UFavoriteVolume@GostCrypt@@@std@@@std@@YAPAUFavoriteVolume@GostCrypt@@PAU12@00AAU?$_Wrap_alloc@V?$allocator@UFavoriteVolume@GostCrypt@@@std@@@0@U_General_ptr_iterator_tag@0@U_Any_tag@0@@Z$0
__tryblocktable$??$_Uninitialized_copy_al_unchecked1@PAUFavoriteVolume@GostCrypt@@PAU12@V?$allocator@UFavoriteVolume@GostCrypt@@@std@@@std@@YAPAUFavoriteVolume@GostCrypt@@PAU12@00AAU?$_Wrap_alloc@V?$allocator@UFavoriteVolume@GostCrypt@@@std@@@0@U_General_ptr_iterator_tag@0@U_Any_tag@0@@Z DD 00H
	DD	01H
	DD	02H
	DD	01H
	DD	FLAT:__catchsym$??$_Uninitialized_copy_al_unchecked1@PAUFavoriteVolume@GostCrypt@@PAU12@V?$allocator@UFavoriteVolume@GostCrypt@@@std@@@std@@YAPAUFavoriteVolume@GostCrypt@@PAU12@00AAU?$_Wrap_alloc@V?$allocator@UFavoriteVolume@GostCrypt@@@std@@@0@U_General_ptr_iterator_tag@0@U_Any_tag@0@@Z$6
__unwindtable$??$_Uninitialized_copy_al_unchecked1@PAUFavoriteVolume@GostCrypt@@PAU12@V?$allocator@UFavoriteVolume@GostCrypt@@@std@@@std@@YAPAUFavoriteVolume@GostCrypt@@PAU12@00AAU?$_Wrap_alloc@V?$allocator@UFavoriteVolume@GostCrypt@@@std@@@0@U_General_ptr_iterator_tag@0@U_Any_tag@0@@Z DD 0ffffffffH
	DD	00H
	DD	00H
	DD	FLAT:__unwindfunclet$??$_Uninitialized_copy_al_unchecked1@PAUFavoriteVolume@GostCrypt@@PAU12@V?$allocator@UFavoriteVolume@GostCrypt@@@std@@@std@@YAPAUFavoriteVolume@GostCrypt@@PAU12@00AAU?$_Wrap_alloc@V?$allocator@UFavoriteVolume@GostCrypt@@@std@@@0@U_General_ptr_iterator_tag@0@U_Any_tag@0@@Z$4
	DD	0ffffffffH
	DD	00H
__ehfuncinfo$??$_Uninitialized_copy_al_unchecked1@PAUFavoriteVolume@GostCrypt@@PAU12@V?$allocator@UFavoriteVolume@GostCrypt@@@std@@@std@@YAPAUFavoriteVolume@GostCrypt@@PAU12@00AAU?$_Wrap_alloc@V?$allocator@UFavoriteVolume@GostCrypt@@@std@@@0@U_General_ptr_iterator_tag@0@U_Any_tag@0@@Z DD 019930522H
	DD	03H
	DD	FLAT:__unwindtable$??$_Uninitialized_copy_al_unchecked1@PAUFavoriteVolume@GostCrypt@@PAU12@V?$allocator@UFavoriteVolume@GostCrypt@@@std@@@std@@YAPAUFavoriteVolume@GostCrypt@@PAU12@00AAU?$_Wrap_alloc@V?$allocator@UFavoriteVolume@GostCrypt@@@std@@@0@U_General_ptr_iterator_tag@0@U_Any_tag@0@@Z
	DD	01H
	DD	FLAT:__tryblocktable$??$_Uninitialized_copy_al_unchecked1@PAUFavoriteVolume@GostCrypt@@PAU12@V?$allocator@UFavoriteVolume@GostCrypt@@@std@@@std@@YAPAUFavoriteVolume@GostCrypt@@PAU12@00AAU?$_Wrap_alloc@V?$allocator@UFavoriteVolume@GostCrypt@@@std@@@0@U_General_ptr_iterator_tag@0@U_Any_tag@0@@Z
	DD	2 DUP(00H)
	DD	00H
	DD	01H
xdata$x	ENDS
;	COMDAT xdata$x
xdata$x	SEGMENT
__unwindtable$??$construct@UFavoriteVolume@GostCrypt@@ABU12@@?$allocator_traits@V?$allocator@U?$_List_node@UFavoriteVolume@GostCrypt@@PAX@std@@@std@@@std@@SAXAAV?$allocator@U?$_List_node@UFavoriteVolume@GostCrypt@@PAX@std@@@1@PAUFavoriteVolume@GostCrypt@@ABU34@@Z DD 0ffffffffH
	DD	FLAT:__unwindfunclet$??$construct@UFavoriteVolume@GostCrypt@@ABU12@@?$allocator_traits@V?$allocator@U?$_List_node@UFavoriteVolume@GostCrypt@@PAX@std@@@std@@@std@@SAXAAV?$allocator@U?$_List_node@UFavoriteVolume@GostCrypt@@PAX@std@@@1@PAUFavoriteVolume@GostCrypt@@ABU34@@Z$1
__ehfuncinfo$??$construct@UFavoriteVolume@GostCrypt@@ABU12@@?$allocator_traits@V?$allocator@U?$_List_node@UFavoriteVolume@GostCrypt@@PAX@std@@@std@@@std@@SAXAAV?$allocator@U?$_List_node@UFavoriteVolume@GostCrypt@@PAX@std@@@1@PAUFavoriteVolume@GostCrypt@@ABU34@@Z DD 019930522H
	DD	01H
	DD	FLAT:__unwindtable$??$construct@UFavoriteVolume@GostCrypt@@ABU12@@?$allocator_traits@V?$allocator@U?$_List_node@UFavoriteVolume@GostCrypt@@PAX@std@@@std@@@std@@SAXAAV?$allocator@U?$_List_node@UFavoriteVolume@GostCrypt@@PAX@std@@@1@PAUFavoriteVolume@GostCrypt@@ABU34@@Z
	DD	2 DUP(00H)
	DD	2 DUP(00H)
	DD	00H
	DD	01H
xdata$x	ENDS
;	COMDAT xdata$x
xdata$x	SEGMENT
__catchsym$??$_Insert_range@V?$_List_const_iterator@V?$_List_val@U?$_List_simple_types@UFavoriteVolume@GostCrypt@@@std@@@std@@@std@@@?$list@UFavoriteVolume@GostCrypt@@V?$allocator@UFavoriteVolume@GostCrypt@@@std@@@std@@QAEXV?$_List_unchecked_const_iterator@V?$_List_val@U?$_List_simple_types@UFavoriteVolume@GostCrypt@@@std@@@std@@U_Iterator_base0@2@@1@V?$_List_const_iterator@V?$_List_val@U?$_List_simple_types@UFavoriteVolume@GostCrypt@@@std@@@std@@@1@1Uforward_iterator_tag@1@@Z$15 DD 040H
	DD	00H
	DD	00H
	DD	FLAT:__catch$??$_Insert_range@V?$_List_const_iterator@V?$_List_val@U?$_List_simple_types@UFavoriteVolume@GostCrypt@@@std@@@std@@@std@@@?$list@UFavoriteVolume@GostCrypt@@V?$allocator@UFavoriteVolume@GostCrypt@@@std@@@std@@QAEXV?$_List_unchecked_const_iterator@V?$_List_val@U?$_List_simple_types@UFavoriteVolume@GostCrypt@@@std@@@std@@U_Iterator_base0@2@@1@V?$_List_const_iterator@V?$_List_val@U?$_List_simple_types@UFavoriteVolume@GostCrypt@@@std@@@std@@@1@1Uforward_iterator_tag@1@@Z$0
__unwindtable$??$_Insert_range@V?$_List_const_iterator@V?$_List_val@U?$_List_simple_types@UFavoriteVolume@GostCrypt@@@std@@@std@@@std@@@?$list@UFavoriteVolume@GostCrypt@@V?$allocator@UFavoriteVolume@GostCrypt@@@std@@@std@@QAEXV?$_List_unchecked_const_iterator@V?$_List_val@U?$_List_simple_types@UFavoriteVolume@GostCrypt@@@std@@@std@@U_Iterator_base0@2@@1@V?$_List_const_iterator@V?$_List_val@U?$_List_simple_types@UFavoriteVolume@GostCrypt@@@std@@@std@@@1@1Uforward_iterator_tag@1@@Z DD 0ffffffffH
	DD	00H
	DD	0ffffffffH
	DD	00H
__tryblocktable$??$_Insert_range@V?$_List_const_iterator@V?$_List_val@U?$_List_simple_types@UFavoriteVolume@GostCrypt@@@std@@@std@@@std@@@?$list@UFavoriteVolume@GostCrypt@@V?$allocator@UFavoriteVolume@GostCrypt@@@std@@@std@@QAEXV?$_List_unchecked_const_iterator@V?$_List_val@U?$_List_simple_types@UFavoriteVolume@GostCrypt@@@std@@@std@@U_Iterator_base0@2@@1@V?$_List_const_iterator@V?$_List_val@U?$_List_simple_types@UFavoriteVolume@GostCrypt@@@std@@@std@@@1@1Uforward_iterator_tag@1@@Z DD 00H
	DD	00H
	DD	01H
	DD	01H
	DD	FLAT:__catchsym$??$_Insert_range@V?$_List_const_iterator@V?$_List_val@U?$_List_simple_types@UFavoriteVolume@GostCrypt@@@std@@@std@@@std@@@?$list@UFavoriteVolume@GostCrypt@@V?$allocator@UFavoriteVolume@GostCrypt@@@std@@@std@@QAEXV?$_List_unchecked_const_iterator@V?$_List_val@U?$_List_simple_types@UFavoriteVolume@GostCrypt@@@std@@@std@@U_Iterator_base0@2@@1@V?$_List_const_iterator@V?$_List_val@U?$_List_simple_types@UFavoriteVolume@GostCrypt@@@std@@@std@@@1@1Uforward_iterator_tag@1@@Z$15
__ehfuncinfo$??$_Insert_range@V?$_List_const_iterator@V?$_List_val@U?$_List_simple_types@UFavoriteVolume@GostCrypt@@@std@@@std@@@std@@@?$list@UFavoriteVolume@GostCrypt@@V?$allocator@UFavoriteVolume@GostCrypt@@@std@@@std@@QAEXV?$_List_unchecked_const_iterator@V?$_List_val@U?$_List_simple_types@UFavoriteVolume@GostCrypt@@@std@@@std@@U_Iterator_base0@2@@1@V?$_List_const_iterator@V?$_List_val@U?$_List_simple_types@UFavoriteVolume@GostCrypt@@@std@@@std@@@1@1Uforward_iterator_tag@1@@Z DD 019930522H
	DD	02H
	DD	FLAT:__unwindtable$??$_Insert_range@V?$_List_const_iterator@V?$_List_val@U?$_List_simple_types@UFavoriteVolume@GostCrypt@@@std@@@std@@@std@@@?$list@UFavoriteVolume@GostCrypt@@V?$allocator@UFavoriteVolume@GostCrypt@@@std@@@std@@QAEXV?$_List_unchecked_const_iterator@V?$_List_val@U?$_List_simple_types@UFavoriteVolume@GostCrypt@@@std@@@std@@U_Iterator_base0@2@@1@V?$_List_const_iterator@V?$_List_val@U?$_List_simple_types@UFavoriteVolume@GostCrypt@@@std@@@std@@@1@1Uforward_iterator_tag@1@@Z
	DD	01H
	DD	FLAT:__tryblocktable$??$_Insert_range@V?$_List_const_iterator@V?$_List_val@U?$_List_simple_types@UFavoriteVolume@GostCrypt@@@std@@@std@@@std@@@?$list@UFavoriteVolume@GostCrypt@@V?$allocator@UFavoriteVolume@GostCrypt@@@std@@@std@@QAEXV?$_List_unchecked_const_iterator@V?$_List_val@U?$_List_simple_types@UFavoriteVolume@GostCrypt@@@std@@@std@@U_Iterator_base0@2@@1@V?$_List_const_iterator@V?$_List_val@U?$_List_simple_types@UFavoriteVolume@GostCrypt@@@std@@@std@@@1@1Uforward_iterator_tag@1@@Z
	DD	2 DUP(00H)
	DD	00H
	DD	01H
xdata$x	ENDS
;	COMDAT xdata$x
xdata$x	SEGMENT
__unwindtable$??$construct@UFavoriteVolume@GostCrypt@@ABU12@@?$allocator@UFavoriteVolume@GostCrypt@@@std@@QAEXPAUFavoriteVolume@GostCrypt@@ABU23@@Z DD 0ffffffffH
	DD	FLAT:__unwindfunclet$??$construct@UFavoriteVolume@GostCrypt@@ABU12@@?$allocator@UFavoriteVolume@GostCrypt@@@std@@QAEXPAUFavoriteVolume@GostCrypt@@ABU23@@Z$0
__ehfuncinfo$??$construct@UFavoriteVolume@GostCrypt@@ABU12@@?$allocator@UFavoriteVolume@GostCrypt@@@std@@QAEXPAUFavoriteVolume@GostCrypt@@ABU23@@Z DD 019930522H
	DD	01H
	DD	FLAT:__unwindtable$??$construct@UFavoriteVolume@GostCrypt@@ABU12@@?$allocator@UFavoriteVolume@GostCrypt@@@std@@QAEXPAUFavoriteVolume@GostCrypt@@ABU23@@Z
	DD	2 DUP(00H)
	DD	2 DUP(00H)
	DD	00H
	DD	01H
xdata$x	ENDS
;	COMDAT xdata$x
xdata$x	SEGMENT
__unwindtable$??$construct@UFavoriteVolume@GostCrypt@@AAU12@@?$allocator@UFavoriteVolume@GostCrypt@@@std@@QAEXPAUFavoriteVolume@GostCrypt@@AAU23@@Z DD 0ffffffffH
	DD	FLAT:__unwindfunclet$??$construct@UFavoriteVolume@GostCrypt@@AAU12@@?$allocator@UFavoriteVolume@GostCrypt@@@std@@QAEXPAUFavoriteVolume@GostCrypt@@AAU23@@Z$0
__ehfuncinfo$??$construct@UFavoriteVolume@GostCrypt@@AAU12@@?$allocator@UFavoriteVolume@GostCrypt@@@std@@QAEXPAUFavoriteVolume@GostCrypt@@AAU23@@Z DD 019930522H
	DD	01H
	DD	FLAT:__unwindtable$??$construct@UFavoriteVolume@GostCrypt@@AAU12@@?$allocator@UFavoriteVolume@GostCrypt@@@std@@QAEXPAUFavoriteVolume@GostCrypt@@AAU23@@Z
	DD	2 DUP(00H)
	DD	2 DUP(00H)
	DD	00H
	DD	01H
xdata$x	ENDS
;	COMDAT xdata$x
xdata$x	SEGMENT
__unwindtable$??$construct@UFavoriteVolume@GostCrypt@@ABU12@@?$_Wrap_alloc@V?$allocator@U?$_List_node@UFavoriteVolume@GostCrypt@@PAX@std@@@std@@@std@@QAEXPAUFavoriteVolume@GostCrypt@@ABU23@@Z DD 0ffffffffH
	DD	FLAT:__unwindfunclet$??$construct@UFavoriteVolume@GostCrypt@@ABU12@@?$_Wrap_alloc@V?$allocator@U?$_List_node@UFavoriteVolume@GostCrypt@@PAX@std@@@std@@@std@@QAEXPAUFavoriteVolume@GostCrypt@@ABU23@@Z$2
__ehfuncinfo$??$construct@UFavoriteVolume@GostCrypt@@ABU12@@?$_Wrap_alloc@V?$allocator@U?$_List_node@UFavoriteVolume@GostCrypt@@PAX@std@@@std@@@std@@QAEXPAUFavoriteVolume@GostCrypt@@ABU23@@Z DD 019930522H
	DD	01H
	DD	FLAT:__unwindtable$??$construct@UFavoriteVolume@GostCrypt@@ABU12@@?$_Wrap_alloc@V?$allocator@U?$_List_node@UFavoriteVolume@GostCrypt@@PAX@std@@@std@@@std@@QAEXPAUFavoriteVolume@GostCrypt@@ABU23@@Z
	DD	2 DUP(00H)
	DD	2 DUP(00H)
	DD	00H
	DD	01H
xdata$x	ENDS
;	COMDAT xdata$x
xdata$x	SEGMENT
__unwindtable$??$construct@UFavoriteVolume@GostCrypt@@ABU12@@?$allocator_traits@V?$allocator@UFavoriteVolume@GostCrypt@@@std@@@std@@SAXAAV?$allocator@UFavoriteVolume@GostCrypt@@@1@PAUFavoriteVolume@GostCrypt@@ABU34@@Z DD 0ffffffffH
	DD	FLAT:__unwindfunclet$??$construct@UFavoriteVolume@GostCrypt@@ABU12@@?$allocator_traits@V?$allocator@UFavoriteVolume@GostCrypt@@@std@@@std@@SAXAAV?$allocator@UFavoriteVolume@GostCrypt@@@1@PAUFavoriteVolume@GostCrypt@@ABU34@@Z$1
__ehfuncinfo$??$construct@UFavoriteVolume@GostCrypt@@ABU12@@?$allocator_traits@V?$allocator@UFavoriteVolume@GostCrypt@@@std@@@std@@SAXAAV?$allocator@UFavoriteVolume@GostCrypt@@@1@PAUFavoriteVolume@GostCrypt@@ABU34@@Z DD 019930522H
	DD	01H
	DD	FLAT:__unwindtable$??$construct@UFavoriteVolume@GostCrypt@@ABU12@@?$allocator_traits@V?$allocator@UFavoriteVolume@GostCrypt@@@std@@@std@@SAXAAV?$allocator@UFavoriteVolume@GostCrypt@@@1@PAUFavoriteVolume@GostCrypt@@ABU34@@Z
	DD	2 DUP(00H)
	DD	2 DUP(00H)
	DD	00H
	DD	01H
xdata$x	ENDS
;	COMDAT xdata$x
xdata$x	SEGMENT
__unwindtable$??$construct@UFavoriteVolume@GostCrypt@@AAU12@@?$allocator_traits@V?$allocator@UFavoriteVolume@GostCrypt@@@std@@@std@@SAXAAV?$allocator@UFavoriteVolume@GostCrypt@@@1@PAUFavoriteVolume@GostCrypt@@AAU34@@Z DD 0ffffffffH
	DD	FLAT:__unwindfunclet$??$construct@UFavoriteVolume@GostCrypt@@AAU12@@?$allocator_traits@V?$allocator@UFavoriteVolume@GostCrypt@@@std@@@std@@SAXAAV?$allocator@UFavoriteVolume@GostCrypt@@@1@PAUFavoriteVolume@GostCrypt@@AAU34@@Z$1
__ehfuncinfo$??$construct@UFavoriteVolume@GostCrypt@@AAU12@@?$allocator_traits@V?$allocator@UFavoriteVolume@GostCrypt@@@std@@@std@@SAXAAV?$allocator@UFavoriteVolume@GostCrypt@@@1@PAUFavoriteVolume@GostCrypt@@AAU34@@Z DD 019930522H
	DD	01H
	DD	FLAT:__unwindtable$??$construct@UFavoriteVolume@GostCrypt@@AAU12@@?$allocator_traits@V?$allocator@UFavoriteVolume@GostCrypt@@@std@@@std@@SAXAAV?$allocator@UFavoriteVolume@GostCrypt@@@1@PAUFavoriteVolume@GostCrypt@@AAU34@@Z
	DD	2 DUP(00H)
	DD	2 DUP(00H)
	DD	00H
	DD	01H
xdata$x	ENDS
;	COMDAT xdata$x
xdata$x	SEGMENT
__unwindtable$??$_Move_unchecked1@PAUFavoriteVolume@GostCrypt@@PAU12@@std@@YAPAUFavoriteVolume@GostCrypt@@PAU12@00U_General_ptr_iterator_tag@0@@Z DD 0ffffffffH
	DD	FLAT:__unwindfunclet$??$_Move_unchecked1@PAUFavoriteVolume@GostCrypt@@PAU12@@std@@YAPAUFavoriteVolume@GostCrypt@@PAU12@00U_General_ptr_iterator_tag@0@@Z$2
	DD	0ffffffffH
	DD	FLAT:__unwindfunclet$??$_Move_unchecked1@PAUFavoriteVolume@GostCrypt@@PAU12@@std@@YAPAUFavoriteVolume@GostCrypt@@PAU12@00U_General_ptr_iterator_tag@0@@Z$135
	DD	0ffffffffH
	DD	FLAT:__unwindfunclet$??$_Move_unchecked1@PAUFavoriteVolume@GostCrypt@@PAU12@@std@@YAPAUFavoriteVolume@GostCrypt@@PAU12@00U_General_ptr_iterator_tag@0@@Z$268
	DD	0ffffffffH
	DD	FLAT:__unwindfunclet$??$_Move_unchecked1@PAUFavoriteVolume@GostCrypt@@PAU12@@std@@YAPAUFavoriteVolume@GostCrypt@@PAU12@00U_General_ptr_iterator_tag@0@@Z$401
__ehfuncinfo$??$_Move_unchecked1@PAUFavoriteVolume@GostCrypt@@PAU12@@std@@YAPAUFavoriteVolume@GostCrypt@@PAU12@00U_General_ptr_iterator_tag@0@@Z DD 019930522H
	DD	04H
	DD	FLAT:__unwindtable$??$_Move_unchecked1@PAUFavoriteVolume@GostCrypt@@PAU12@@std@@YAPAUFavoriteVolume@GostCrypt@@PAU12@00U_General_ptr_iterator_tag@0@@Z
	DD	2 DUP(00H)
	DD	2 DUP(00H)
	DD	00H
	DD	01H
xdata$x	ENDS
;	COMDAT xdata$x
xdata$x	SEGMENT
__catchsym$??$_Buynode@ABUFavoriteVolume@GostCrypt@@@?$_List_buy@UFavoriteVolume@GostCrypt@@V?$allocator@UFavoriteVolume@GostCrypt@@@std@@@std@@QAEPAU?$_List_node@UFavoriteVolume@GostCrypt@@PAX@1@PAU21@0ABUFavoriteVolume@GostCrypt@@@Z$12 DD 040H
	DD	00H
	DD	00H
	DD	FLAT:__catch$??$_Buynode@ABUFavoriteVolume@GostCrypt@@@?$_List_buy@UFavoriteVolume@GostCrypt@@V?$allocator@UFavoriteVolume@GostCrypt@@@std@@@std@@QAEPAU?$_List_node@UFavoriteVolume@GostCrypt@@PAX@1@PAU21@0ABUFavoriteVolume@GostCrypt@@@Z$0
__tryblocktable$??$_Buynode@ABUFavoriteVolume@GostCrypt@@@?$_List_buy@UFavoriteVolume@GostCrypt@@V?$allocator@UFavoriteVolume@GostCrypt@@@std@@@std@@QAEPAU?$_List_node@UFavoriteVolume@GostCrypt@@PAX@1@PAU21@0ABUFavoriteVolume@GostCrypt@@@Z DD 00H
	DD	01H
	DD	02H
	DD	01H
	DD	FLAT:__catchsym$??$_Buynode@ABUFavoriteVolume@GostCrypt@@@?$_List_buy@UFavoriteVolume@GostCrypt@@V?$allocator@UFavoriteVolume@GostCrypt@@@std@@@std@@QAEPAU?$_List_node@UFavoriteVolume@GostCrypt@@PAX@1@PAU21@0ABUFavoriteVolume@GostCrypt@@@Z$12
__unwindtable$??$_Buynode@ABUFavoriteVolume@GostCrypt@@@?$_List_buy@UFavoriteVolume@GostCrypt@@V?$allocator@UFavoriteVolume@GostCrypt@@@std@@@std@@QAEPAU?$_List_node@UFavoriteVolume@GostCrypt@@PAX@1@PAU21@0ABUFavoriteVolume@GostCrypt@@@Z DD 0ffffffffH
	DD	00H
	DD	00H
	DD	FLAT:__unwindfunclet$??$_Buynode@ABUFavoriteVolume@GostCrypt@@@?$_List_buy@UFavoriteVolume@GostCrypt@@V?$allocator@UFavoriteVolume@GostCrypt@@@std@@@std@@QAEPAU?$_List_node@UFavoriteVolume@GostCrypt@@PAX@1@PAU21@0ABUFavoriteVolume@GostCrypt@@@Z$8
	DD	0ffffffffH
	DD	00H
__ehfuncinfo$??$_Buynode@ABUFavoriteVolume@GostCrypt@@@?$_List_buy@UFavoriteVolume@GostCrypt@@V?$allocator@UFavoriteVolume@GostCrypt@@@std@@@std@@QAEPAU?$_List_node@UFavoriteVolume@GostCrypt@@PAX@1@PAU21@0ABUFavoriteVolume@GostCrypt@@@Z DD 019930522H
	DD	03H
	DD	FLAT:__unwindtable$??$_Buynode@ABUFavoriteVolume@GostCrypt@@@?$_List_buy@UFavoriteVolume@GostCrypt@@V?$allocator@UFavoriteVolume@GostCrypt@@@std@@@std@@QAEPAU?$_List_node@UFavoriteVolume@GostCrypt@@PAX@1@PAU21@0ABUFavoriteVolume@GostCrypt@@@Z
	DD	01H
	DD	FLAT:__tryblocktable$??$_Buynode@ABUFavoriteVolume@GostCrypt@@@?$_List_buy@UFavoriteVolume@GostCrypt@@V?$allocator@UFavoriteVolume@GostCrypt@@@std@@@std@@QAEPAU?$_List_node@UFavoriteVolume@GostCrypt@@PAX@1@PAU21@0ABUFavoriteVolume@GostCrypt@@@Z
	DD	2 DUP(00H)
	DD	00H
	DD	01H
xdata$x	ENDS
;	COMDAT xdata$x
xdata$x	SEGMENT
__unwindtable$??$construct@UFavoriteVolume@GostCrypt@@ABU12@@?$_Wrap_alloc@V?$allocator@UFavoriteVolume@GostCrypt@@@std@@@std@@QAEXPAUFavoriteVolume@GostCrypt@@ABU23@@Z DD 0ffffffffH
	DD	FLAT:__unwindfunclet$??$construct@UFavoriteVolume@GostCrypt@@ABU12@@?$_Wrap_alloc@V?$allocator@UFavoriteVolume@GostCrypt@@@std@@@std@@QAEXPAUFavoriteVolume@GostCrypt@@ABU23@@Z$2
__ehfuncinfo$??$construct@UFavoriteVolume@GostCrypt@@ABU12@@?$_Wrap_alloc@V?$allocator@UFavoriteVolume@GostCrypt@@@std@@@std@@QAEXPAUFavoriteVolume@GostCrypt@@ABU23@@Z DD 019930522H
	DD	01H
	DD	FLAT:__unwindtable$??$construct@UFavoriteVolume@GostCrypt@@ABU12@@?$_Wrap_alloc@V?$allocator@UFavoriteVolume@GostCrypt@@@std@@@std@@QAEXPAUFavoriteVolume@GostCrypt@@ABU23@@Z
	DD	2 DUP(00H)
	DD	2 DUP(00H)
	DD	00H
	DD	01H
xdata$x	ENDS
;	COMDAT xdata$x
xdata$x	SEGMENT
__unwindtable$??$construct@UFavoriteVolume@GostCrypt@@AAU12@@?$_Wrap_alloc@V?$allocator@UFavoriteVolume@GostCrypt@@@std@@@std@@QAEXPAUFavoriteVolume@GostCrypt@@AAU23@@Z DD 0ffffffffH
	DD	FLAT:__unwindfunclet$??$construct@UFavoriteVolume@GostCrypt@@AAU12@@?$_Wrap_alloc@V?$allocator@UFavoriteVolume@GostCrypt@@@std@@@std@@QAEXPAUFavoriteVolume@GostCrypt@@AAU23@@Z$2
__ehfuncinfo$??$construct@UFavoriteVolume@GostCrypt@@AAU12@@?$_Wrap_alloc@V?$allocator@UFavoriteVolume@GostCrypt@@@std@@@std@@QAEXPAUFavoriteVolume@GostCrypt@@AAU23@@Z DD 019930522H
	DD	01H
	DD	FLAT:__unwindtable$??$construct@UFavoriteVolume@GostCrypt@@AAU12@@?$_Wrap_alloc@V?$allocator@UFavoriteVolume@GostCrypt@@@std@@@std@@QAEXPAUFavoriteVolume@GostCrypt@@AAU23@@Z
	DD	2 DUP(00H)
	DD	2 DUP(00H)
	DD	00H
	DD	01H
xdata$x	ENDS
;	COMDAT xdata$x
xdata$x	SEGMENT
__unwindtable$??$?H_WU?$char_traits@_W@std@@V?$allocator@_W@1@@std@@YA?AV?$basic_string@_WU?$char_traits@_W@std@@V?$allocator@_W@2@@0@PB_WABV10@@Z DD 0ffffffffH
	DD	FLAT:__unwindfunclet$??$?H_WU?$char_traits@_W@std@@V?$allocator@_W@1@@std@@YA?AV?$basic_string@_WU?$char_traits@_W@std@@V?$allocator@_W@2@@0@PB_WABV10@@Z$0
__ehfuncinfo$??$?H_WU?$char_traits@_W@std@@V?$allocator@_W@1@@std@@YA?AV?$basic_string@_WU?$char_traits@_W@std@@V?$allocator@_W@2@@0@PB_WABV10@@Z DD 019930522H
	DD	01H
	DD	FLAT:__unwindtable$??$?H_WU?$char_traits@_W@std@@V?$allocator@_W@1@@std@@YA?AV?$basic_string@_WU?$char_traits@_W@std@@V?$allocator@_W@2@@0@PB_WABV10@@Z
	DD	2 DUP(00H)
	DD	2 DUP(00H)
	DD	00H
	DD	01H
xdata$x	ENDS
;	COMDAT xdata$x
xdata$x	SEGMENT
__unwindtable$??0?$ContainerForward@V?$list@UFavoriteVolume@GostCrypt@@V?$allocator@UFavoriteVolume@GostCrypt@@@std@@@std@@@ForEach@GostCrypt@@QAE@ABV?$list@UFavoriteVolume@GostCrypt@@V?$allocator@UFavoriteVolume@GostCrypt@@@std@@@std@@@Z DD 0ffffffffH
	DD	FLAT:__unwindfunclet$??0?$ContainerForward@V?$list@UFavoriteVolume@GostCrypt@@V?$allocator@UFavoriteVolume@GostCrypt@@@std@@@std@@@ForEach@GostCrypt@@QAE@ABV?$list@UFavoriteVolume@GostCrypt@@V?$allocator@UFavoriteVolume@GostCrypt@@@std@@@std@@@Z$0
__ehfuncinfo$??0?$ContainerForward@V?$list@UFavoriteVolume@GostCrypt@@V?$allocator@UFavoriteVolume@GostCrypt@@@std@@@std@@@ForEach@GostCrypt@@QAE@ABV?$list@UFavoriteVolume@GostCrypt@@V?$allocator@UFavoriteVolume@GostCrypt@@@std@@@std@@@Z DD 019930522H
	DD	01H
	DD	FLAT:__unwindtable$??0?$ContainerForward@V?$list@UFavoriteVolume@GostCrypt@@V?$allocator@UFavoriteVolume@GostCrypt@@@std@@@std@@@ForEach@GostCrypt@@QAE@ABV?$list@UFavoriteVolume@GostCrypt@@V?$allocator@UFavoriteVolume@GostCrypt@@@std@@@std@@@Z
	DD	2 DUP(00H)
	DD	2 DUP(00H)
	DD	00H
	DD	01H
xdata$x	ENDS
;	COMDAT xdata$x
xdata$x	SEGMENT
__unwindtable$??$GetContainerForward@V?$list@UFavoriteVolume@GostCrypt@@V?$allocator@UFavoriteVolume@GostCrypt@@@std@@@std@@@ForEach@GostCrypt@@SA?AU?$ContainerForward@V?$list@UFavoriteVolume@GostCrypt@@V?$allocator@UFavoriteVolume@GostCrypt@@@std@@@std@@@01@ABV?$list@UFavoriteVolume@GostCrypt@@V?$allocator@UFavoriteVolume@GostCrypt@@@std@@@std@@@Z DD 0ffffffffH
	DD	FLAT:__unwindfunclet$??$GetContainerForward@V?$list@UFavoriteVolume@GostCrypt@@V?$allocator@UFavoriteVolume@GostCrypt@@@std@@@std@@@ForEach@GostCrypt@@SA?AU?$ContainerForward@V?$list@UFavoriteVolume@GostCrypt@@V?$allocator@UFavoriteVolume@GostCrypt@@@std@@@std@@@01@ABV?$list@UFavoriteVolume@GostCrypt@@V?$allocator@UFavoriteVolume@GostCrypt@@@std@@@std@@@Z$1
__ehfuncinfo$??$GetContainerForward@V?$list@UFavoriteVolume@GostCrypt@@V?$allocator@UFavoriteVolume@GostCrypt@@@std@@@std@@@ForEach@GostCrypt@@SA?AU?$ContainerForward@V?$list@UFavoriteVolume@GostCrypt@@V?$allocator@UFavoriteVolume@GostCrypt@@@std@@@std@@@01@ABV?$list@UFavoriteVolume@GostCrypt@@V?$allocator@UFavoriteVolume@GostCrypt@@@std@@@std@@@Z DD 019930522H
	DD	01H
	DD	FLAT:__unwindtable$??$GetContainerForward@V?$list@UFavoriteVolume@GostCrypt@@V?$allocator@UFavoriteVolume@GostCrypt@@@std@@@std@@@ForEach@GostCrypt@@SA?AU?$ContainerForward@V?$list@UFavoriteVolume@GostCrypt@@V?$allocator@UFavoriteVolume@GostCrypt@@@std@@@std@@@01@ABV?$list@UFavoriteVolume@GostCrypt@@V?$allocator@UFavoriteVolume@GostCrypt@@@std@@@std@@@Z
	DD	2 DUP(00H)
	DD	2 DUP(00H)
	DD	00H
	DD	01H
xdata$x	ENDS
;	COMDAT xdata$x
xdata$x	SEGMENT
__unwindtable$??$?H_WU?$char_traits@_W@std@@V?$allocator@_W@1@@std@@YA?AV?$basic_string@_WU?$char_traits@_W@std@@V?$allocator@_W@2@@0@ABV10@PB_W@Z DD 0ffffffffH
	DD	FLAT:__unwindfunclet$??$?H_WU?$char_traits@_W@std@@V?$allocator@_W@1@@std@@YA?AV?$basic_string@_WU?$char_traits@_W@std@@V?$allocator@_W@2@@0@ABV10@PB_W@Z$0
__ehfuncinfo$??$?H_WU?$char_traits@_W@std@@V?$allocator@_W@1@@std@@YA?AV?$basic_string@_WU?$char_traits@_W@std@@V?$allocator@_W@2@@0@ABV10@PB_W@Z DD 019930522H
	DD	01H
	DD	FLAT:__unwindtable$??$?H_WU?$char_traits@_W@std@@V?$allocator@_W@1@@std@@YA?AV?$basic_string@_WU?$char_traits@_W@std@@V?$allocator@_W@2@@0@ABV10@PB_W@Z
	DD	2 DUP(00H)
	DD	2 DUP(00H)
	DD	00H
	DD	01H
xdata$x	ENDS
;	COMDAT xdata$x
xdata$x	SEGMENT
__unwindtable$??0?$ContainerForward@V?$vector@UFavoriteVolume@GostCrypt@@V?$allocator@UFavoriteVolume@GostCrypt@@@std@@@std@@@ForEach@GostCrypt@@QAE@ABV?$vector@UFavoriteVolume@GostCrypt@@V?$allocator@UFavoriteVolume@GostCrypt@@@std@@@std@@@Z DD 0ffffffffH
	DD	FLAT:__unwindfunclet$??0?$ContainerForward@V?$vector@UFavoriteVolume@GostCrypt@@V?$allocator@UFavoriteVolume@GostCrypt@@@std@@@std@@@ForEach@GostCrypt@@QAE@ABV?$vector@UFavoriteVolume@GostCrypt@@V?$allocator@UFavoriteVolume@GostCrypt@@@std@@@std@@@Z$0
__ehfuncinfo$??0?$ContainerForward@V?$vector@UFavoriteVolume@GostCrypt@@V?$allocator@UFavoriteVolume@GostCrypt@@@std@@@std@@@ForEach@GostCrypt@@QAE@ABV?$vector@UFavoriteVolume@GostCrypt@@V?$allocator@UFavoriteVolume@GostCrypt@@@std@@@std@@@Z DD 019930522H
	DD	01H
	DD	FLAT:__unwindtable$??0?$ContainerForward@V?$vector@UFavoriteVolume@GostCrypt@@V?$allocator@UFavoriteVolume@GostCrypt@@@std@@@std@@@ForEach@GostCrypt@@QAE@ABV?$vector@UFavoriteVolume@GostCrypt@@V?$allocator@UFavoriteVolume@GostCrypt@@@std@@@std@@@Z
	DD	2 DUP(00H)
	DD	2 DUP(00H)
	DD	00H
	DD	01H
xdata$x	ENDS
;	COMDAT xdata$x
xdata$x	SEGMENT
__unwindtable$??$GetContainerForward@V?$vector@UFavoriteVolume@GostCrypt@@V?$allocator@UFavoriteVolume@GostCrypt@@@std@@@std@@@ForEach@GostCrypt@@SA?AU?$ContainerForward@V?$vector@UFavoriteVolume@GostCrypt@@V?$allocator@UFavoriteVolume@GostCrypt@@@std@@@std@@@01@ABV?$vector@UFavoriteVolume@GostCrypt@@V?$allocator@UFavoriteVolume@GostCrypt@@@std@@@std@@@Z DD 0ffffffffH
	DD	FLAT:__unwindfunclet$??$GetContainerForward@V?$vector@UFavoriteVolume@GostCrypt@@V?$allocator@UFavoriteVolume@GostCrypt@@@std@@@std@@@ForEach@GostCrypt@@SA?AU?$ContainerForward@V?$vector@UFavoriteVolume@GostCrypt@@V?$allocator@UFavoriteVolume@GostCrypt@@@std@@@std@@@01@ABV?$vector@UFavoriteVolume@GostCrypt@@V?$allocator@UFavoriteVolume@GostCrypt@@@std@@@std@@@Z$1
__ehfuncinfo$??$GetContainerForward@V?$vector@UFavoriteVolume@GostCrypt@@V?$allocator@UFavoriteVolume@GostCrypt@@@std@@@std@@@ForEach@GostCrypt@@SA?AU?$ContainerForward@V?$vector@UFavoriteVolume@GostCrypt@@V?$allocator@UFavoriteVolume@GostCrypt@@@std@@@std@@@01@ABV?$vector@UFavoriteVolume@GostCrypt@@V?$allocator@UFavoriteVolume@GostCrypt@@@std@@@std@@@Z DD 019930522H
	DD	01H
	DD	FLAT:__unwindtable$??$GetContainerForward@V?$vector@UFavoriteVolume@GostCrypt@@V?$allocator@UFavoriteVolume@GostCrypt@@@std@@@std@@@ForEach@GostCrypt@@SA?AU?$ContainerForward@V?$vector@UFavoriteVolume@GostCrypt@@V?$allocator@UFavoriteVolume@GostCrypt@@@std@@@std@@@01@ABV?$vector@UFavoriteVolume@GostCrypt@@V?$allocator@UFavoriteVolume@GostCrypt@@@std@@@std@@@Z
	DD	2 DUP(00H)
	DD	2 DUP(00H)
	DD	00H
	DD	01H
xdata$x	ENDS
;	COMDAT xdata$x
xdata$x	SEGMENT
__catchsym$??0?$list@UFavoriteVolume@GostCrypt@@V?$allocator@UFavoriteVolume@GostCrypt@@@std@@@std@@QAE@ABV01@@Z$46 DD 040H
	DD	00H
	DD	00H
	DD	FLAT:__catch$??0?$list@UFavoriteVolume@GostCrypt@@V?$allocator@UFavoriteVolume@GostCrypt@@@std@@@std@@QAE@ABV01@@Z$0
__tryblocktable$??0?$list@UFavoriteVolume@GostCrypt@@V?$allocator@UFavoriteVolume@GostCrypt@@@std@@@std@@QAE@ABV01@@Z DD 01H
	DD	01H
	DD	02H
	DD	01H
	DD	FLAT:__catchsym$??0?$list@UFavoriteVolume@GostCrypt@@V?$allocator@UFavoriteVolume@GostCrypt@@@std@@@std@@QAE@ABV01@@Z$46
__unwindtable$??0?$list@UFavoriteVolume@GostCrypt@@V?$allocator@UFavoriteVolume@GostCrypt@@@std@@@std@@QAE@ABV01@@Z DD 0ffffffffH
	DD	FLAT:__unwindfunclet$??0?$list@UFavoriteVolume@GostCrypt@@V?$allocator@UFavoriteVolume@GostCrypt@@@std@@@std@@QAE@ABV01@@Z$2
	DD	00H
	DD	00H
	DD	00H
	DD	00H
__ehfuncinfo$??0?$list@UFavoriteVolume@GostCrypt@@V?$allocator@UFavoriteVolume@GostCrypt@@@std@@@std@@QAE@ABV01@@Z DD 019930522H
	DD	03H
	DD	FLAT:__unwindtable$??0?$list@UFavoriteVolume@GostCrypt@@V?$allocator@UFavoriteVolume@GostCrypt@@@std@@@std@@QAE@ABV01@@Z
	DD	01H
	DD	FLAT:__tryblocktable$??0?$list@UFavoriteVolume@GostCrypt@@V?$allocator@UFavoriteVolume@GostCrypt@@@std@@@std@@QAE@ABV01@@Z
	DD	2 DUP(00H)
	DD	00H
	DD	01H
xdata$x	ENDS
;	COMDAT xdata$x
xdata$x	SEGMENT
__catchsym$?_Reallocate@?$vector@UFavoriteVolume@GostCrypt@@V?$allocator@UFavoriteVolume@GostCrypt@@@std@@@std@@IAEXI@Z$54 DD 040H
	DD	00H
	DD	00H
	DD	FLAT:__catch$?_Reallocate@?$vector@UFavoriteVolume@GostCrypt@@V?$allocator@UFavoriteVolume@GostCrypt@@@std@@@std@@IAEXI@Z$0
__unwindtable$?_Reallocate@?$vector@UFavoriteVolume@GostCrypt@@V?$allocator@UFavoriteVolume@GostCrypt@@@std@@@std@@IAEXI@Z DD 0ffffffffH
	DD	00H
	DD	0ffffffffH
	DD	00H
__tryblocktable$?_Reallocate@?$vector@UFavoriteVolume@GostCrypt@@V?$allocator@UFavoriteVolume@GostCrypt@@@std@@@std@@IAEXI@Z DD 00H
	DD	00H
	DD	01H
	DD	01H
	DD	FLAT:__catchsym$?_Reallocate@?$vector@UFavoriteVolume@GostCrypt@@V?$allocator@UFavoriteVolume@GostCrypt@@@std@@@std@@IAEXI@Z$54
__ehfuncinfo$?_Reallocate@?$vector@UFavoriteVolume@GostCrypt@@V?$allocator@UFavoriteVolume@GostCrypt@@@std@@@std@@IAEXI@Z DD 019930522H
	DD	02H
	DD	FLAT:__unwindtable$?_Reallocate@?$vector@UFavoriteVolume@GostCrypt@@V?$allocator@UFavoriteVolume@GostCrypt@@@std@@@std@@IAEXI@Z
	DD	01H
	DD	FLAT:__tryblocktable$?_Reallocate@?$vector@UFavoriteVolume@GostCrypt@@V?$allocator@UFavoriteVolume@GostCrypt@@@std@@@std@@IAEXI@Z
	DD	2 DUP(00H)
	DD	00H
	DD	01H
xdata$x	ENDS
;	COMDAT xdata$x
xdata$x	SEGMENT
__unwindtable$?push_back@?$vector@UFavoriteVolume@GostCrypt@@V?$allocator@UFavoriteVolume@GostCrypt@@@std@@@std@@QAEXABUFavoriteVolume@GostCrypt@@@Z DD 0ffffffffH
	DD	FLAT:__unwindfunclet$?push_back@?$vector@UFavoriteVolume@GostCrypt@@V?$allocator@UFavoriteVolume@GostCrypt@@@std@@@std@@QAEXABUFavoriteVolume@GostCrypt@@@Z$33
	DD	0ffffffffH
	DD	FLAT:__unwindfunclet$?push_back@?$vector@UFavoriteVolume@GostCrypt@@V?$allocator@UFavoriteVolume@GostCrypt@@@std@@@std@@QAEXABUFavoriteVolume@GostCrypt@@@Z$57
__ehfuncinfo$?push_back@?$vector@UFavoriteVolume@GostCrypt@@V?$allocator@UFavoriteVolume@GostCrypt@@@std@@@std@@QAEXABUFavoriteVolume@GostCrypt@@@Z DD 019930522H
	DD	02H
	DD	FLAT:__unwindtable$?push_back@?$vector@UFavoriteVolume@GostCrypt@@V?$allocator@UFavoriteVolume@GostCrypt@@@std@@@std@@QAEXABUFavoriteVolume@GostCrypt@@@Z
	DD	2 DUP(00H)
	DD	2 DUP(00H)
	DD	00H
	DD	01H
xdata$x	ENDS
;	COMDAT xdata$x
xdata$x	SEGMENT
__catchsym$??4?$vector@UFavoriteVolume@GostCrypt@@V?$allocator@UFavoriteVolume@GostCrypt@@@std@@@std@@QAEAAV01@ABV01@@Z$141 DD 040H
	DD	00H
	DD	00H
	DD	FLAT:__catch$??4?$vector@UFavoriteVolume@GostCrypt@@V?$allocator@UFavoriteVolume@GostCrypt@@@std@@@std@@QAEAAV01@ABV01@@Z$0
__unwindtable$??4?$vector@UFavoriteVolume@GostCrypt@@V?$allocator@UFavoriteVolume@GostCrypt@@@std@@@std@@QAEAAV01@ABV01@@Z DD 0ffffffffH
	DD	00H
	DD	0ffffffffH
	DD	00H
__tryblocktable$??4?$vector@UFavoriteVolume@GostCrypt@@V?$allocator@UFavoriteVolume@GostCrypt@@@std@@@std@@QAEAAV01@ABV01@@Z DD 00H
	DD	00H
	DD	01H
	DD	01H
	DD	FLAT:__catchsym$??4?$vector@UFavoriteVolume@GostCrypt@@V?$allocator@UFavoriteVolume@GostCrypt@@@std@@@std@@QAEAAV01@ABV01@@Z$141
__ehfuncinfo$??4?$vector@UFavoriteVolume@GostCrypt@@V?$allocator@UFavoriteVolume@GostCrypt@@@std@@@std@@QAEAAV01@ABV01@@Z DD 019930522H
	DD	02H
	DD	FLAT:__unwindtable$??4?$vector@UFavoriteVolume@GostCrypt@@V?$allocator@UFavoriteVolume@GostCrypt@@@std@@@std@@QAEAAV01@ABV01@@Z
	DD	01H
	DD	FLAT:__tryblocktable$??4?$vector@UFavoriteVolume@GostCrypt@@V?$allocator@UFavoriteVolume@GostCrypt@@@std@@@std@@QAEAAV01@ABV01@@Z
	DD	2 DUP(00H)
	DD	00H
	DD	01H
xdata$x	ENDS
;	COMDAT xdata$x
xdata$x	SEGMENT
__catchsym$??0?$vector@UFavoriteVolume@GostCrypt@@V?$allocator@UFavoriteVolume@GostCrypt@@@std@@@std@@QAE@ABV01@@Z$67 DD 040H
	DD	00H
	DD	00H
	DD	FLAT:__catch$??0?$vector@UFavoriteVolume@GostCrypt@@V?$allocator@UFavoriteVolume@GostCrypt@@@std@@@std@@QAE@ABV01@@Z$0
__unwindtable$??0?$vector@UFavoriteVolume@GostCrypt@@V?$allocator@UFavoriteVolume@GostCrypt@@@std@@@std@@QAE@ABV01@@Z DD 0ffffffffH
	DD	00H
	DD	0ffffffffH
	DD	00H
__tryblocktable$??0?$vector@UFavoriteVolume@GostCrypt@@V?$allocator@UFavoriteVolume@GostCrypt@@@std@@@std@@QAE@ABV01@@Z DD 00H
	DD	00H
	DD	01H
	DD	01H
	DD	FLAT:__catchsym$??0?$vector@UFavoriteVolume@GostCrypt@@V?$allocator@UFavoriteVolume@GostCrypt@@@std@@@std@@QAE@ABV01@@Z$67
__ehfuncinfo$??0?$vector@UFavoriteVolume@GostCrypt@@V?$allocator@UFavoriteVolume@GostCrypt@@@std@@@std@@QAE@ABV01@@Z DD 019930522H
	DD	02H
	DD	FLAT:__unwindtable$??0?$vector@UFavoriteVolume@GostCrypt@@V?$allocator@UFavoriteVolume@GostCrypt@@@std@@@std@@QAE@ABV01@@Z
	DD	01H
	DD	FLAT:__tryblocktable$??0?$vector@UFavoriteVolume@GostCrypt@@V?$allocator@UFavoriteVolume@GostCrypt@@@std@@@std@@QAE@ABV01@@Z
	DD	2 DUP(00H)
	DD	00H
	DD	01H
xdata$x	ENDS
;	COMDAT xdata$x
xdata$x	SEGMENT
__catchsym$?UpdateDeviceHostedFavoriteVolumes@GostCrypt@@YAXXZ$2 DD 08H
	DD	FLAT:??_R0?AUException@GostCrypt@@@8
	DD	0ffffffecH
	DD	FLAT:__catch$?UpdateDeviceHostedFavoriteVolumes@GostCrypt@@YAXXZ$0
__unwindtable$?UpdateDeviceHostedFavoriteVolumes@GostCrypt@@YAXXZ DD 0ffffffffH
	DD	00H
	DD	0ffffffffH
	DD	00H
__tryblocktable$?UpdateDeviceHostedFavoriteVolumes@GostCrypt@@YAXXZ DD 00H
	DD	00H
	DD	01H
	DD	01H
	DD	FLAT:__catchsym$?UpdateDeviceHostedFavoriteVolumes@GostCrypt@@YAXXZ$2
__ehfuncinfo$?UpdateDeviceHostedFavoriteVolumes@GostCrypt@@YAXXZ DD 019930522H
	DD	02H
	DD	FLAT:__unwindtable$?UpdateDeviceHostedFavoriteVolumes@GostCrypt@@YAXXZ
	DD	01H
	DD	FLAT:__tryblocktable$?UpdateDeviceHostedFavoriteVolumes@GostCrypt@@YAXXZ
	DD	2 DUP(00H)
	DD	00H
	DD	01H
xdata$x	ENDS
;	COMDAT xdata$x
xdata$x	SEGMENT
__ehfuncinfo$?SetFavoriteVolume@GostCrypt@@YAXPAUHWND__@@AAUFavoriteVolume@1@_N@Z DD 019930522H
	DD	06H
	DD	FLAT:__unwindtable$?SetFavoriteVolume@GostCrypt@@YAXPAUHWND__@@AAUFavoriteVolume@1@_N@Z
	DD	2 DUP(00H)
	DD	2 DUP(00H)
	DD	00H
	DD	01H
__unwindtable$?SetFavoriteVolume@GostCrypt@@YAXPAUHWND__@@AAUFavoriteVolume@1@_N@Z DD 0ffffffffH
	DD	FLAT:__unwindfunclet$?SetFavoriteVolume@GostCrypt@@YAXPAUHWND__@@AAUFavoriteVolume@1@_N@Z$0
	DD	00H
	DD	FLAT:__unwindfunclet$?SetFavoriteVolume@GostCrypt@@YAXPAUHWND__@@AAUFavoriteVolume@1@_N@Z$1
	DD	01H
	DD	FLAT:__unwindfunclet$?SetFavoriteVolume@GostCrypt@@YAXPAUHWND__@@AAUFavoriteVolume@1@_N@Z$2
	DD	0ffffffffH
	DD	FLAT:__unwindfunclet$?SetFavoriteVolume@GostCrypt@@YAXPAUHWND__@@AAUFavoriteVolume@1@_N@Z$4
	DD	03H
	DD	FLAT:__unwindfunclet$?SetFavoriteVolume@GostCrypt@@YAXPAUHWND__@@AAUFavoriteVolume@1@_N@Z$5
	DD	04H
	DD	FLAT:__unwindfunclet$?SetFavoriteVolume@GostCrypt@@YAXPAUHWND__@@AAUFavoriteVolume@1@_N@Z$6
xdata$x	ENDS
;	COMDAT xdata$x
xdata$x	SEGMENT
__catchsym$?SaveFavoriteVolumes@GostCrypt@@YA_NABV?$vector@UFavoriteVolume@GostCrypt@@V?$allocator@UFavoriteVolume@GostCrypt@@@std@@@std@@_N@Z$412 DD 040H
	DD	00H
	DD	00H
	DD	FLAT:__catch$?SaveFavoriteVolumes@GostCrypt@@YA_NABV?$vector@UFavoriteVolume@GostCrypt@@V?$allocator@UFavoriteVolume@GostCrypt@@@std@@@std@@_N@Z$5
__catchsym$?SaveFavoriteVolumes@GostCrypt@@YA_NABV?$vector@UFavoriteVolume@GostCrypt@@V?$allocator@UFavoriteVolume@GostCrypt@@@std@@@std@@_N@Z$411 DD 08H
	DD	FLAT:??_R0?AUException@GostCrypt@@@8
	DD	0fffff148H
	DD	FLAT:__catch$?SaveFavoriteVolumes@GostCrypt@@YA_NABV?$vector@UFavoriteVolume@GostCrypt@@V?$allocator@UFavoriteVolume@GostCrypt@@@std@@@std@@_N@Z$3
__catchsym$?SaveFavoriteVolumes@GostCrypt@@YA_NABV?$vector@UFavoriteVolume@GostCrypt@@V?$allocator@UFavoriteVolume@GostCrypt@@@std@@@std@@_N@Z$410 DD 08H
	DD	FLAT:??_R0?AUUserAbort@GostCrypt@@@8
	DD	00H
	DD	FLAT:__catch$?SaveFavoriteVolumes@GostCrypt@@YA_NABV?$vector@UFavoriteVolume@GostCrypt@@V?$allocator@UFavoriteVolume@GostCrypt@@@std@@@std@@_N@Z$0
	DD	040H
	DD	00H
	DD	00H
	DD	FLAT:__catch$?SaveFavoriteVolumes@GostCrypt@@YA_NABV?$vector@UFavoriteVolume@GostCrypt@@V?$allocator@UFavoriteVolume@GostCrypt@@@std@@@std@@_N@Z$1
__ehfuncinfo$?SaveFavoriteVolumes@GostCrypt@@YA_NABV?$vector@UFavoriteVolume@GostCrypt@@V?$allocator@UFavoriteVolume@GostCrypt@@@std@@@std@@_N@Z DD 019930522H
	DD	01bH
	DD	FLAT:__unwindtable$?SaveFavoriteVolumes@GostCrypt@@YA_NABV?$vector@UFavoriteVolume@GostCrypt@@V?$allocator@UFavoriteVolume@GostCrypt@@@std@@@std@@_N@Z
	DD	03H
	DD	FLAT:__tryblocktable$?SaveFavoriteVolumes@GostCrypt@@YA_NABV?$vector@UFavoriteVolume@GostCrypt@@V?$allocator@UFavoriteVolume@GostCrypt@@@std@@@std@@_N@Z
	DD	2 DUP(00H)
	DD	00H
	DD	01H
__tryblocktable$?SaveFavoriteVolumes@GostCrypt@@YA_NABV?$vector@UFavoriteVolume@GostCrypt@@V?$allocator@UFavoriteVolume@GostCrypt@@@std@@@std@@_N@Z DD 0eH
	DD	010H
	DD	011H
	DD	02H
	DD	FLAT:__catchsym$?SaveFavoriteVolumes@GostCrypt@@YA_NABV?$vector@UFavoriteVolume@GostCrypt@@V?$allocator@UFavoriteVolume@GostCrypt@@@std@@@std@@_N@Z$410
	DD	012H
	DD	015H
	DD	016H
	DD	01H
	DD	FLAT:__catchsym$?SaveFavoriteVolumes@GostCrypt@@YA_NABV?$vector@UFavoriteVolume@GostCrypt@@V?$allocator@UFavoriteVolume@GostCrypt@@@std@@@std@@_N@Z$411
	DD	017H
	DD	019H
	DD	01aH
	DD	01H
	DD	FLAT:__catchsym$?SaveFavoriteVolumes@GostCrypt@@YA_NABV?$vector@UFavoriteVolume@GostCrypt@@V?$allocator@UFavoriteVolume@GostCrypt@@@std@@@std@@_N@Z$412
__unwindtable$?SaveFavoriteVolumes@GostCrypt@@YA_NABV?$vector@UFavoriteVolume@GostCrypt@@V?$allocator@UFavoriteVolume@GostCrypt@@@std@@@std@@_N@Z DD 0ffffffffH
	DD	FLAT:__unwindfunclet$?SaveFavoriteVolumes@GostCrypt@@YA_NABV?$vector@UFavoriteVolume@GostCrypt@@V?$allocator@UFavoriteVolume@GostCrypt@@@std@@@std@@_N@Z$7
	DD	00H
	DD	FLAT:__unwindfunclet$?SaveFavoriteVolumes@GostCrypt@@YA_NABV?$vector@UFavoriteVolume@GostCrypt@@V?$allocator@UFavoriteVolume@GostCrypt@@@std@@@std@@_N@Z$8
	DD	01H
	DD	FLAT:__unwindfunclet$?SaveFavoriteVolumes@GostCrypt@@YA_NABV?$vector@UFavoriteVolume@GostCrypt@@V?$allocator@UFavoriteVolume@GostCrypt@@@std@@@std@@_N@Z$9
	DD	02H
	DD	FLAT:__unwindfunclet$?SaveFavoriteVolumes@GostCrypt@@YA_NABV?$vector@UFavoriteVolume@GostCrypt@@V?$allocator@UFavoriteVolume@GostCrypt@@@std@@@std@@_N@Z$10
	DD	01H
	DD	FLAT:__unwindfunclet$?SaveFavoriteVolumes@GostCrypt@@YA_NABV?$vector@UFavoriteVolume@GostCrypt@@V?$allocator@UFavoriteVolume@GostCrypt@@@std@@@std@@_N@Z$10
	DD	00H
	DD	FLAT:__unwindfunclet$?SaveFavoriteVolumes@GostCrypt@@YA_NABV?$vector@UFavoriteVolume@GostCrypt@@V?$allocator@UFavoriteVolume@GostCrypt@@@std@@@std@@_N@Z$10
	DD	05H
	DD	FLAT:__unwindfunclet$?SaveFavoriteVolumes@GostCrypt@@YA_NABV?$vector@UFavoriteVolume@GostCrypt@@V?$allocator@UFavoriteVolume@GostCrypt@@@std@@@std@@_N@Z$11
	DD	06H
	DD	FLAT:__unwindfunclet$?SaveFavoriteVolumes@GostCrypt@@YA_NABV?$vector@UFavoriteVolume@GostCrypt@@V?$allocator@UFavoriteVolume@GostCrypt@@@std@@@std@@_N@Z$12
	DD	05H
	DD	FLAT:__unwindfunclet$?SaveFavoriteVolumes@GostCrypt@@YA_NABV?$vector@UFavoriteVolume@GostCrypt@@V?$allocator@UFavoriteVolume@GostCrypt@@@std@@@std@@_N@Z$13
	DD	08H
	DD	FLAT:__unwindfunclet$?SaveFavoriteVolumes@GostCrypt@@YA_NABV?$vector@UFavoriteVolume@GostCrypt@@V?$allocator@UFavoriteVolume@GostCrypt@@@std@@@std@@_N@Z$14
	DD	09H
	DD	FLAT:__unwindfunclet$?SaveFavoriteVolumes@GostCrypt@@YA_NABV?$vector@UFavoriteVolume@GostCrypt@@V?$allocator@UFavoriteVolume@GostCrypt@@@std@@@std@@_N@Z$15
	DD	0aH
	DD	FLAT:__unwindfunclet$?SaveFavoriteVolumes@GostCrypt@@YA_NABV?$vector@UFavoriteVolume@GostCrypt@@V?$allocator@UFavoriteVolume@GostCrypt@@@std@@@std@@_N@Z$16
	DD	0ffffffffH
	DD	FLAT:__unwindfunclet$?SaveFavoriteVolumes@GostCrypt@@YA_NABV?$vector@UFavoriteVolume@GostCrypt@@V?$allocator@UFavoriteVolume@GostCrypt@@@std@@@std@@_N@Z$17
	DD	0cH
	DD	FLAT:__unwindfunclet$?SaveFavoriteVolumes@GostCrypt@@YA_NABV?$vector@UFavoriteVolume@GostCrypt@@V?$allocator@UFavoriteVolume@GostCrypt@@@std@@@std@@_N@Z$18
	DD	0dH
	DD	00H
	DD	0eH
	DD	FLAT:__unwindfunclet$?SaveFavoriteVolumes@GostCrypt@@YA_NABV?$vector@UFavoriteVolume@GostCrypt@@V?$allocator@UFavoriteVolume@GostCrypt@@@std@@@std@@_N@Z$19
	DD	0fH
	DD	FLAT:__unwindfunclet$?SaveFavoriteVolumes@GostCrypt@@YA_NABV?$vector@UFavoriteVolume@GostCrypt@@V?$allocator@UFavoriteVolume@GostCrypt@@@std@@@std@@_N@Z$20
	DD	0dH
	DD	00H
	DD	0dH
	DD	00H
	DD	012H
	DD	FLAT:__unwindfunclet$?SaveFavoriteVolumes@GostCrypt@@YA_NABV?$vector@UFavoriteVolume@GostCrypt@@V?$allocator@UFavoriteVolume@GostCrypt@@@std@@@std@@_N@Z$21
	DD	013H
	DD	FLAT:__unwindfunclet$?SaveFavoriteVolumes@GostCrypt@@YA_NABV?$vector@UFavoriteVolume@GostCrypt@@V?$allocator@UFavoriteVolume@GostCrypt@@@std@@@std@@_N@Z$22
	DD	014H
	DD	FLAT:__unwindfunclet$?SaveFavoriteVolumes@GostCrypt@@YA_NABV?$vector@UFavoriteVolume@GostCrypt@@V?$allocator@UFavoriteVolume@GostCrypt@@@std@@@std@@_N@Z$23
	DD	0dH
	DD	00H
	DD	0cH
	DD	00H
	DD	017H
	DD	FLAT:__unwindfunclet$?SaveFavoriteVolumes@GostCrypt@@YA_NABV?$vector@UFavoriteVolume@GostCrypt@@V?$allocator@UFavoriteVolume@GostCrypt@@@std@@@std@@_N@Z$24
	DD	018H
	DD	FLAT:__unwindfunclet$?SaveFavoriteVolumes@GostCrypt@@YA_NABV?$vector@UFavoriteVolume@GostCrypt@@V?$allocator@UFavoriteVolume@GostCrypt@@@std@@@std@@_N@Z$25
	DD	0cH
	DD	00H
xdata$x	ENDS
;	COMDAT xdata$x
xdata$x	SEGMENT
__unwindtable$?OrganizeFavoriteVolumes@GostCrypt@@YAHPAUHWND__@@_NABUFavoriteVolume@1@@Z DD 0ffffffffH
	DD	FLAT:__unwindfunclet$?OrganizeFavoriteVolumes@GostCrypt@@YAHPAUHWND__@@_NABUFavoriteVolume@1@@Z$0
__ehfuncinfo$?OrganizeFavoriteVolumes@GostCrypt@@YAHPAUHWND__@@_NABUFavoriteVolume@1@@Z DD 019930522H
	DD	01H
	DD	FLAT:__unwindtable$?OrganizeFavoriteVolumes@GostCrypt@@YAHPAUHWND__@@_NABUFavoriteVolume@1@@Z
	DD	2 DUP(00H)
	DD	2 DUP(00H)
	DD	00H
	DD	01H
xdata$x	ENDS
;	COMDAT xdata$x
xdata$x	SEGMENT
__unwindtable$?OnFavoriteVolumesUpdated@GostCrypt@@YAXXZ DD 0ffffffffH
	DD	FLAT:__unwindfunclet$?OnFavoriteVolumesUpdated@GostCrypt@@YAXXZ$0
	DD	00H
	DD	FLAT:__unwindfunclet$?OnFavoriteVolumesUpdated@GostCrypt@@YAXXZ$1
	DD	01H
	DD	FLAT:__unwindfunclet$?OnFavoriteVolumesUpdated@GostCrypt@@YAXXZ$2
__ehfuncinfo$?OnFavoriteVolumesUpdated@GostCrypt@@YAXXZ DD 019930522H
	DD	03H
	DD	FLAT:__unwindtable$?OnFavoriteVolumesUpdated@GostCrypt@@YAXXZ
	DD	2 DUP(00H)
	DD	2 DUP(00H)
	DD	00H
	DD	01H
xdata$x	ENDS
;	COMDAT xdata$x
xdata$x	SEGMENT
__catchsym$?LoadFavoriteVolumes@GostCrypt@@YAXAAV?$vector@UFavoriteVolume@GostCrypt@@V?$allocator@UFavoriteVolume@GostCrypt@@@std@@@std@@_N1@Z$697 DD 08H
	DD	FLAT:??_R0?AUSystemException@GostCrypt@@@8
	DD	0fffff700H
	DD	FLAT:__catch$?LoadFavoriteVolumes@GostCrypt@@YAXAAV?$vector@UFavoriteVolume@GostCrypt@@V?$allocator@UFavoriteVolume@GostCrypt@@@std@@@std@@_N1@Z$0
__tryblocktable$?LoadFavoriteVolumes@GostCrypt@@YAXAAV?$vector@UFavoriteVolume@GostCrypt@@V?$allocator@UFavoriteVolume@GostCrypt@@@std@@@std@@_N1@Z DD 03H
	DD	07H
	DD	08H
	DD	01H
	DD	FLAT:__catchsym$?LoadFavoriteVolumes@GostCrypt@@YAXAAV?$vector@UFavoriteVolume@GostCrypt@@V?$allocator@UFavoriteVolume@GostCrypt@@@std@@@std@@_N1@Z$697
__ehfuncinfo$?LoadFavoriteVolumes@GostCrypt@@YAXAAV?$vector@UFavoriteVolume@GostCrypt@@V?$allocator@UFavoriteVolume@GostCrypt@@@std@@@std@@_N1@Z DD 019930522H
	DD	010H
	DD	FLAT:__unwindtable$?LoadFavoriteVolumes@GostCrypt@@YAXAAV?$vector@UFavoriteVolume@GostCrypt@@V?$allocator@UFavoriteVolume@GostCrypt@@@std@@@std@@_N1@Z
	DD	01H
	DD	FLAT:__tryblocktable$?LoadFavoriteVolumes@GostCrypt@@YAXAAV?$vector@UFavoriteVolume@GostCrypt@@V?$allocator@UFavoriteVolume@GostCrypt@@@std@@@std@@_N1@Z
	DD	2 DUP(00H)
	DD	00H
	DD	01H
__unwindtable$?LoadFavoriteVolumes@GostCrypt@@YAXAAV?$vector@UFavoriteVolume@GostCrypt@@V?$allocator@UFavoriteVolume@GostCrypt@@@std@@@std@@_N1@Z DD 0ffffffffH
	DD	FLAT:__unwindfunclet$?LoadFavoriteVolumes@GostCrypt@@YAXAAV?$vector@UFavoriteVolume@GostCrypt@@V?$allocator@UFavoriteVolume@GostCrypt@@@std@@@std@@_N1@Z$2
	DD	00H
	DD	FLAT:__unwindfunclet$?LoadFavoriteVolumes@GostCrypt@@YAXAAV?$vector@UFavoriteVolume@GostCrypt@@V?$allocator@UFavoriteVolume@GostCrypt@@@std@@@std@@_N1@Z$4
	DD	0ffffffffH
	DD	FLAT:__unwindfunclet$?LoadFavoriteVolumes@GostCrypt@@YAXAAV?$vector@UFavoriteVolume@GostCrypt@@V?$allocator@UFavoriteVolume@GostCrypt@@@std@@@std@@_N1@Z$4
	DD	02H
	DD	00H
	DD	03H
	DD	FLAT:__unwindfunclet$?LoadFavoriteVolumes@GostCrypt@@YAXAAV?$vector@UFavoriteVolume@GostCrypt@@V?$allocator@UFavoriteVolume@GostCrypt@@@std@@@std@@_N1@Z$5
	DD	04H
	DD	FLAT:__unwindfunclet$?LoadFavoriteVolumes@GostCrypt@@YAXAAV?$vector@UFavoriteVolume@GostCrypt@@V?$allocator@UFavoriteVolume@GostCrypt@@@std@@@std@@_N1@Z$6
	DD	05H
	DD	FLAT:__unwindfunclet$?LoadFavoriteVolumes@GostCrypt@@YAXAAV?$vector@UFavoriteVolume@GostCrypt@@V?$allocator@UFavoriteVolume@GostCrypt@@@std@@@std@@_N1@Z$7
	DD	06H
	DD	FLAT:__unwindfunclet$?LoadFavoriteVolumes@GostCrypt@@YAXAAV?$vector@UFavoriteVolume@GostCrypt@@V?$allocator@UFavoriteVolume@GostCrypt@@@std@@@std@@_N1@Z$8
	DD	02H
	DD	00H
	DD	02H
	DD	FLAT:__unwindfunclet$?LoadFavoriteVolumes@GostCrypt@@YAXAAV?$vector@UFavoriteVolume@GostCrypt@@V?$allocator@UFavoriteVolume@GostCrypt@@@std@@@std@@_N1@Z$9
	DD	09H
	DD	FLAT:__unwindfunclet$?LoadFavoriteVolumes@GostCrypt@@YAXAAV?$vector@UFavoriteVolume@GostCrypt@@V?$allocator@UFavoriteVolume@GostCrypt@@@std@@@std@@_N1@Z$10
	DD	0aH
	DD	FLAT:__unwindfunclet$?LoadFavoriteVolumes@GostCrypt@@YAXAAV?$vector@UFavoriteVolume@GostCrypt@@V?$allocator@UFavoriteVolume@GostCrypt@@@std@@@std@@_N1@Z$11
	DD	0bH
	DD	FLAT:__unwindfunclet$?LoadFavoriteVolumes@GostCrypt@@YAXAAV?$vector@UFavoriteVolume@GostCrypt@@V?$allocator@UFavoriteVolume@GostCrypt@@@std@@@std@@_N1@Z$381
	DD	09H
	DD	FLAT:__unwindfunclet$?LoadFavoriteVolumes@GostCrypt@@YAXAAV?$vector@UFavoriteVolume@GostCrypt@@V?$allocator@UFavoriteVolume@GostCrypt@@@std@@@std@@_N1@Z$13
	DD	0dH
	DD	FLAT:__unwindfunclet$?LoadFavoriteVolumes@GostCrypt@@YAXAAV?$vector@UFavoriteVolume@GostCrypt@@V?$allocator@UFavoriteVolume@GostCrypt@@@std@@@std@@_N1@Z$530
	DD	09H
	DD	FLAT:__unwindfunclet$?LoadFavoriteVolumes@GostCrypt@@YAXAAV?$vector@UFavoriteVolume@GostCrypt@@V?$allocator@UFavoriteVolume@GostCrypt@@@std@@@std@@_N1@Z$16
xdata$x	ENDS
;	COMDAT xdata$x
xdata$x	SEGMENT
__catchsym$?LoadFavoriteVolumes@GostCrypt@@YAXXZ$2 DD 040H
	DD	00H
	DD	00H
	DD	FLAT:__catch$?LoadFavoriteVolumes@GostCrypt@@YAXXZ$0
__unwindtable$?LoadFavoriteVolumes@GostCrypt@@YAXXZ DD 0ffffffffH
	DD	00H
	DD	0ffffffffH
	DD	00H
__tryblocktable$?LoadFavoriteVolumes@GostCrypt@@YAXXZ DD 00H
	DD	00H
	DD	01H
	DD	01H
	DD	FLAT:__catchsym$?LoadFavoriteVolumes@GostCrypt@@YAXXZ$2
__ehfuncinfo$?LoadFavoriteVolumes@GostCrypt@@YAXXZ DD 019930522H
	DD	02H
	DD	FLAT:__unwindtable$?LoadFavoriteVolumes@GostCrypt@@YAXXZ
	DD	01H
	DD	FLAT:__tryblocktable$?LoadFavoriteVolumes@GostCrypt@@YAXXZ
	DD	2 DUP(00H)
	DD	00H
	DD	01H
xdata$x	ENDS
;	COMDAT xdata$x
xdata$x	SEGMENT
__unwindtable$?GetFavoriteVolumeLabel@GostCrypt@@YA?AV?$basic_string@_WU?$char_traits@_W@std@@V?$allocator@_W@2@@std@@ABV?$basic_string@DU?$char_traits@D@std@@V?$allocator@D@2@@3@@Z DD 0ffffffffH
	DD	FLAT:__unwindfunclet$?GetFavoriteVolumeLabel@GostCrypt@@YA?AV?$basic_string@_WU?$char_traits@_W@std@@V?$allocator@_W@2@@std@@ABV?$basic_string@DU?$char_traits@D@std@@V?$allocator@D@2@@3@@Z$0
	DD	0ffffffffH
	DD	FLAT:__unwindfunclet$?GetFavoriteVolumeLabel@GostCrypt@@YA?AV?$basic_string@_WU?$char_traits@_W@std@@V?$allocator@_W@2@@std@@ABV?$basic_string@DU?$char_traits@D@std@@V?$allocator@D@2@@3@@Z$2
__ehfuncinfo$?GetFavoriteVolumeLabel@GostCrypt@@YA?AV?$basic_string@_WU?$char_traits@_W@std@@V?$allocator@_W@2@@std@@ABV?$basic_string@DU?$char_traits@D@std@@V?$allocator@D@2@@3@@Z DD 019930522H
	DD	02H
	DD	FLAT:__unwindtable$?GetFavoriteVolumeLabel@GostCrypt@@YA?AV?$basic_string@_WU?$char_traits@_W@std@@V?$allocator@_W@2@@std@@ABV?$basic_string@DU?$char_traits@D@std@@V?$allocator@D@2@@3@@Z
	DD	2 DUP(00H)
	DD	2 DUP(00H)
	DD	00H
	DD	01H
xdata$x	ENDS
;	COMDAT xdata$x
xdata$x	SEGMENT
__unwindtable$?FillListControlSubItems@GostCrypt@@YAXPAUHWND__@@HABUFavoriteVolume@1@@Z DD 0ffffffffH
	DD	FLAT:__unwindfunclet$?FillListControlSubItems@GostCrypt@@YAXPAUHWND__@@HABUFavoriteVolume@1@@Z$0
	DD	00H
	DD	FLAT:__unwindfunclet$?FillListControlSubItems@GostCrypt@@YAXPAUHWND__@@HABUFavoriteVolume@1@@Z$1
__ehfuncinfo$?FillListControlSubItems@GostCrypt@@YAXPAUHWND__@@HABUFavoriteVolume@1@@Z DD 019930522H
	DD	02H
	DD	FLAT:__unwindtable$?FillListControlSubItems@GostCrypt@@YAXPAUHWND__@@HABUFavoriteVolume@1@@Z
	DD	2 DUP(00H)
	DD	2 DUP(00H)
	DD	00H
	DD	01H
xdata$x	ENDS
;	COMDAT xdata$x
xdata$x	SEGMENT
__unwindtable$?FillListControl@GostCrypt@@YAXPAUHWND__@@AAV?$vector@UFavoriteVolume@GostCrypt@@V?$allocator@UFavoriteVolume@GostCrypt@@@std@@@std@@@Z DD 0ffffffffH
	DD	FLAT:__unwindfunclet$?FillListControl@GostCrypt@@YAXPAUHWND__@@AAV?$vector@UFavoriteVolume@GostCrypt@@V?$allocator@UFavoriteVolume@GostCrypt@@@std@@@std@@@Z$0
	DD	00H
	DD	FLAT:__unwindfunclet$?FillListControl@GostCrypt@@YAXPAUHWND__@@AAV?$vector@UFavoriteVolume@GostCrypt@@V?$allocator@UFavoriteVolume@GostCrypt@@@std@@@std@@@Z$1
__ehfuncinfo$?FillListControl@GostCrypt@@YAXPAUHWND__@@AAV?$vector@UFavoriteVolume@GostCrypt@@V?$allocator@UFavoriteVolume@GostCrypt@@@std@@@std@@@Z DD 019930522H
	DD	02H
	DD	FLAT:__unwindtable$?FillListControl@GostCrypt@@YAXPAUHWND__@@AAV?$vector@UFavoriteVolume@GostCrypt@@V?$allocator@UFavoriteVolume@GostCrypt@@@std@@@std@@@Z
	DD	2 DUP(00H)
	DD	2 DUP(00H)
	DD	00H
	DD	01H
xdata$x	ENDS
;	COMDAT xdata$x
xdata$x	SEGMENT
__ehfuncinfo$?FillFavoriteVolumesMenu@GostCrypt@@YAXXZ DD 019930522H
	DD	0bH
	DD	FLAT:__unwindtable$?FillFavoriteVolumesMenu@GostCrypt@@YAXXZ
	DD	2 DUP(00H)
	DD	2 DUP(00H)
	DD	00H
	DD	01H
__unwindtable$?FillFavoriteVolumesMenu@GostCrypt@@YAXXZ DD 0ffffffffH
	DD	FLAT:__unwindfunclet$?FillFavoriteVolumesMenu@GostCrypt@@YAXXZ$0
	DD	00H
	DD	FLAT:__unwindfunclet$?FillFavoriteVolumesMenu@GostCrypt@@YAXXZ$1
	DD	01H
	DD	FLAT:__unwindfunclet$?FillFavoriteVolumesMenu@GostCrypt@@YAXXZ$2
	DD	02H
	DD	FLAT:__unwindfunclet$?FillFavoriteVolumesMenu@GostCrypt@@YAXXZ$3
	DD	03H
	DD	FLAT:__unwindfunclet$?FillFavoriteVolumesMenu@GostCrypt@@YAXXZ$4
	DD	04H
	DD	FLAT:__unwindfunclet$?FillFavoriteVolumesMenu@GostCrypt@@YAXXZ$75
	DD	01H
	DD	FLAT:__unwindfunclet$?FillFavoriteVolumesMenu@GostCrypt@@YAXXZ$6
	DD	06H
	DD	FLAT:__unwindfunclet$?FillFavoriteVolumesMenu@GostCrypt@@YAXXZ$320
	DD	01H
	DD	FLAT:__unwindfunclet$?FillFavoriteVolumesMenu@GostCrypt@@YAXXZ$8
	DD	08H
	DD	FLAT:__unwindfunclet$?FillFavoriteVolumesMenu@GostCrypt@@YAXXZ$9
	DD	09H
	DD	FLAT:__unwindfunclet$?FillFavoriteVolumesMenu@GostCrypt@@YAXXZ$10
xdata$x	ENDS
;	COMDAT xdata$x
xdata$x	SEGMENT
__catchsym$?FavoriteVolumesDlgProc@GostCrypt@@YGHPAUHWND__@@IIJ@Z$442 DD 08H
	DD	FLAT:??_R0?AUException@GostCrypt@@@8
	DD	0fffff8dcH
	DD	FLAT:__catch$?FavoriteVolumesDlgProc@GostCrypt@@YGHPAUHWND__@@IIJ@Z$2
__catchsym$?FavoriteVolumesDlgProc@GostCrypt@@YGHPAUHWND__@@IIJ@Z$441 DD 08H
	DD	FLAT:??_R0?AUException@GostCrypt@@@8
	DD	0fffff8e0H
	DD	FLAT:__catch$?FavoriteVolumesDlgProc@GostCrypt@@YGHPAUHWND__@@IIJ@Z$0
__ehfuncinfo$?FavoriteVolumesDlgProc@GostCrypt@@YGHPAUHWND__@@IIJ@Z DD 019930522H
	DD	0cH
	DD	FLAT:__unwindtable$?FavoriteVolumesDlgProc@GostCrypt@@YGHPAUHWND__@@IIJ@Z
	DD	02H
	DD	FLAT:__tryblocktable$?FavoriteVolumesDlgProc@GostCrypt@@YGHPAUHWND__@@IIJ@Z
	DD	2 DUP(00H)
	DD	00H
	DD	01H
__tryblocktable$?FavoriteVolumesDlgProc@GostCrypt@@YGHPAUHWND__@@IIJ@Z DD 00H
	DD	01H
	DD	02H
	DD	01H
	DD	FLAT:__catchsym$?FavoriteVolumesDlgProc@GostCrypt@@YGHPAUHWND__@@IIJ@Z$441
	DD	04H
	DD	04H
	DD	05H
	DD	01H
	DD	FLAT:__catchsym$?FavoriteVolumesDlgProc@GostCrypt@@YGHPAUHWND__@@IIJ@Z$442
__unwindtable$?FavoriteVolumesDlgProc@GostCrypt@@YGHPAUHWND__@@IIJ@Z DD 0ffffffffH
	DD	00H
	DD	00H
	DD	FLAT:__unwindfunclet$?FavoriteVolumesDlgProc@GostCrypt@@YGHPAUHWND__@@IIJ@Z$4
	DD	0ffffffffH
	DD	00H
	DD	0ffffffffH
	DD	FLAT:__unwindfunclet$?FavoriteVolumesDlgProc@GostCrypt@@YGHPAUHWND__@@IIJ@Z$6
	DD	03H
	DD	00H
	DD	03H
	DD	00H
	DD	0ffffffffH
	DD	FLAT:__unwindfunclet$?FavoriteVolumesDlgProc@GostCrypt@@YGHPAUHWND__@@IIJ@Z$7
	DD	0ffffffffH
	DD	FLAT:__unwindfunclet$?FavoriteVolumesDlgProc@GostCrypt@@YGHPAUHWND__@@IIJ@Z$8
	DD	0ffffffffH
	DD	FLAT:__unwindfunclet$?FavoriteVolumesDlgProc@GostCrypt@@YGHPAUHWND__@@IIJ@Z$11
	DD	08H
	DD	FLAT:__unwindfunclet$?FavoriteVolumesDlgProc@GostCrypt@@YGHPAUHWND__@@IIJ@Z$12
	DD	0ffffffffH
	DD	FLAT:__unwindfunclet$?FavoriteVolumesDlgProc@GostCrypt@@YGHPAUHWND__@@IIJ@Z$14
	DD	0aH
	DD	FLAT:__unwindfunclet$?FavoriteVolumesDlgProc@GostCrypt@@YGHPAUHWND__@@IIJ@Z$15
xdata$x	ENDS
;	COMDAT xdata$x
xdata$x	SEGMENT
__ehfuncinfo$?AddMountedVolumeToFavorites@GostCrypt@@YAHPAUHWND__@@H_N@Z DD 019930522H
	DD	07H
	DD	FLAT:__unwindtable$?AddMountedVolumeToFavorites@GostCrypt@@YAHPAUHWND__@@H_N@Z
	DD	2 DUP(00H)
	DD	2 DUP(00H)
	DD	00H
	DD	01H
__unwindtable$?AddMountedVolumeToFavorites@GostCrypt@@YAHPAUHWND__@@H_N@Z DD 0ffffffffH
	DD	FLAT:__unwindfunclet$?AddMountedVolumeToFavorites@GostCrypt@@YAHPAUHWND__@@H_N@Z$0
	DD	00H
	DD	FLAT:__unwindfunclet$?AddMountedVolumeToFavorites@GostCrypt@@YAHPAUHWND__@@H_N@Z$1
	DD	01H
	DD	FLAT:__unwindfunclet$?AddMountedVolumeToFavorites@GostCrypt@@YAHPAUHWND__@@H_N@Z$146
	DD	00H
	DD	FLAT:__unwindfunclet$?AddMountedVolumeToFavorites@GostCrypt@@YAHPAUHWND__@@H_N@Z$268
	DD	00H
	DD	FLAT:__unwindfunclet$?AddMountedVolumeToFavorites@GostCrypt@@YAHPAUHWND__@@H_N@Z$4
	DD	04H
	DD	FLAT:__unwindfunclet$?AddMountedVolumeToFavorites@GostCrypt@@YAHPAUHWND__@@H_N@Z$6
	DD	04H
	DD	FLAT:__unwindfunclet$?AddMountedVolumeToFavorites@GostCrypt@@YAHPAUHWND__@@H_N@Z$8
xdata$x	ENDS
;	COMDAT xdata$x
xdata$x	SEGMENT
__unwindtable$??4FavoriteVolume@GostCrypt@@QAEAAU01@$$QAU01@@Z DD 0ffffffffH
	DD	FLAT:__unwindfunclet$??4FavoriteVolume@GostCrypt@@QAEAAU01@$$QAU01@@Z$0
	DD	0ffffffffH
	DD	FLAT:__unwindfunclet$??4FavoriteVolume@GostCrypt@@QAEAAU01@$$QAU01@@Z$68
	DD	0ffffffffH
	DD	FLAT:__unwindfunclet$??4FavoriteVolume@GostCrypt@@QAEAAU01@$$QAU01@@Z$136
	DD	0ffffffffH
	DD	FLAT:__unwindfunclet$??4FavoriteVolume@GostCrypt@@QAEAAU01@$$QAU01@@Z$204
__ehfuncinfo$??4FavoriteVolume@GostCrypt@@QAEAAU01@$$QAU01@@Z DD 019930522H
	DD	04H
	DD	FLAT:__unwindtable$??4FavoriteVolume@GostCrypt@@QAEAAU01@$$QAU01@@Z
	DD	2 DUP(00H)
	DD	2 DUP(00H)
	DD	00H
	DD	05H
xdata$x	ENDS
;	COMDAT xdata$x
xdata$x	SEGMENT
__unwindtable$??0FavoriteVolume@GostCrypt@@QAE@ABU01@@Z DD 0ffffffffH
	DD	FLAT:__unwindfunclet$??0FavoriteVolume@GostCrypt@@QAE@ABU01@@Z$0
	DD	00H
	DD	FLAT:__unwindfunclet$??0FavoriteVolume@GostCrypt@@QAE@ABU01@@Z$1
	DD	01H
	DD	FLAT:__unwindfunclet$??0FavoriteVolume@GostCrypt@@QAE@ABU01@@Z$2
__ehfuncinfo$??0FavoriteVolume@GostCrypt@@QAE@ABU01@@Z DD 019930522H
	DD	03H
	DD	FLAT:__unwindtable$??0FavoriteVolume@GostCrypt@@QAE@ABU01@@Z
	DD	2 DUP(00H)
	DD	2 DUP(00H)
	DD	00H
	DD	01H
xdata$x	ENDS
;	COMDAT xdata$x
xdata$x	SEGMENT
__catchsym$?_Copy@?$basic_string@_WU?$char_traits@_W@std@@V?$allocator@_W@2@@std@@QAEXII@Z$111 DD 040H
	DD	00H
	DD	00H
	DD	FLAT:__catch$?_Copy@?$basic_string@_WU?$char_traits@_W@std@@V?$allocator@_W@2@@std@@QAEXII@Z$0
__catchsym$?_Copy@?$basic_string@_WU?$char_traits@_W@std@@V?$allocator@_W@2@@std@@QAEXII@Z$110 DD 040H
	DD	00H
	DD	00H
	DD	FLAT:__catch$?_Copy@?$basic_string@_WU?$char_traits@_W@std@@V?$allocator@_W@2@@std@@QAEXII@Z$1
__unwindtable$?_Copy@?$basic_string@_WU?$char_traits@_W@std@@V?$allocator@_W@2@@std@@QAEXII@Z DD 0ffffffffH
	DD	00H
	DD	0ffffffffH
	DD	00H
	DD	01H
	DD	00H
	DD	01H
	DD	00H
__ehfuncinfo$?_Copy@?$basic_string@_WU?$char_traits@_W@std@@V?$allocator@_W@2@@std@@QAEXII@Z DD 019930522H
	DD	04H
	DD	FLAT:__unwindtable$?_Copy@?$basic_string@_WU?$char_traits@_W@std@@V?$allocator@_W@2@@std@@QAEXII@Z
	DD	02H
	DD	FLAT:__tryblocktable$?_Copy@?$basic_string@_WU?$char_traits@_W@std@@V?$allocator@_W@2@@std@@QAEXII@Z
	DD	2 DUP(00H)
	DD	00H
	DD	01H
__tryblocktable$?_Copy@?$basic_string@_WU?$char_traits@_W@std@@V?$allocator@_W@2@@std@@QAEXII@Z DD 02H
	DD	02H
	DD	03H
	DD	01H
	DD	FLAT:__catchsym$?_Copy@?$basic_string@_WU?$char_traits@_W@std@@V?$allocator@_W@2@@std@@QAEXII@Z$110
	DD	00H
	DD	00H
	DD	03H
	DD	01H
	DD	FLAT:__catchsym$?_Copy@?$basic_string@_WU?$char_traits@_W@std@@V?$allocator@_W@2@@std@@QAEXII@Z$111
xdata$x	ENDS
;	COMDAT xdata$x
xdata$x	SEGMENT
__ehfuncinfo$??4?$basic_string@_WU?$char_traits@_W@std@@V?$allocator@_W@2@@std@@QAEAAV01@$$QAV01@@Z DD 019930522H
	DD	00H
	DD	00H
	DD	2 DUP(00H)
	DD	2 DUP(00H)
	DD	00H
	DD	05H
xdata$x	ENDS
;	COMDAT xdata$x
xdata$x	SEGMENT
__catchsym$?_Copy@?$basic_string@DU?$char_traits@D@std@@V?$allocator@D@2@@std@@QAEXII@Z$111 DD 040H
	DD	00H
	DD	00H
	DD	FLAT:__catch$?_Copy@?$basic_string@DU?$char_traits@D@std@@V?$allocator@D@2@@std@@QAEXII@Z$0
__catchsym$?_Copy@?$basic_string@DU?$char_traits@D@std@@V?$allocator@D@2@@std@@QAEXII@Z$110 DD 040H
	DD	00H
	DD	00H
	DD	FLAT:__catch$?_Copy@?$basic_string@DU?$char_traits@D@std@@V?$allocator@D@2@@std@@QAEXII@Z$1
__unwindtable$?_Copy@?$basic_string@DU?$char_traits@D@std@@V?$allocator@D@2@@std@@QAEXII@Z DD 0ffffffffH
	DD	00H
	DD	0ffffffffH
	DD	00H
	DD	01H
	DD	00H
	DD	01H
	DD	00H
__ehfuncinfo$?_Copy@?$basic_string@DU?$char_traits@D@std@@V?$allocator@D@2@@std@@QAEXII@Z DD 019930522H
	DD	04H
	DD	FLAT:__unwindtable$?_Copy@?$basic_string@DU?$char_traits@D@std@@V?$allocator@D@2@@std@@QAEXII@Z
	DD	02H
	DD	FLAT:__tryblocktable$?_Copy@?$basic_string@DU?$char_traits@D@std@@V?$allocator@D@2@@std@@QAEXII@Z
	DD	2 DUP(00H)
	DD	00H
	DD	01H
__tryblocktable$?_Copy@?$basic_string@DU?$char_traits@D@std@@V?$allocator@D@2@@std@@QAEXII@Z DD 02H
	DD	02H
	DD	03H
	DD	01H
	DD	FLAT:__catchsym$?_Copy@?$basic_string@DU?$char_traits@D@std@@V?$allocator@D@2@@std@@QAEXII@Z$110
	DD	00H
	DD	00H
	DD	03H
	DD	01H
	DD	FLAT:__catchsym$?_Copy@?$basic_string@DU?$char_traits@D@std@@V?$allocator@D@2@@std@@QAEXII@Z$111
xdata$x	ENDS
;	COMDAT xdata$x
xdata$x	SEGMENT
__ehfuncinfo$??4?$basic_string@DU?$char_traits@D@std@@V?$allocator@D@2@@std@@QAEAAV01@$$QAV01@@Z DD 019930522H
	DD	00H
	DD	00H
	DD	2 DUP(00H)
	DD	2 DUP(00H)
	DD	00H
	DD	05H
xdata$x	ENDS
CRT$XCU	SEGMENT
?SystemFavoriteVolumes$initializer$@GostCrypt@@3P6AXXZA DD FLAT:??__ESystemFavoriteVolumes@GostCrypt@@YAXXZ ; GostCrypt::SystemFavoriteVolumes$initializer$
CRT$XCU	ENDS
CRT$XCU	SEGMENT
?FavoritesOnArrivalMountRequired$initializer$@GostCrypt@@3P6AXXZA DD FLAT:??__EFavoritesOnArrivalMountRequired@GostCrypt@@YAXXZ ; GostCrypt::FavoritesOnArrivalMountRequired$initializer$
CRT$XCU	ENDS
CRT$XCU	SEGMENT
?FavoritesMountedOnArrivalStillConnected$initializer$@GostCrypt@@3P6AXXZA DD FLAT:??__EFavoritesMountedOnArrivalStillConnected@GostCrypt@@YAXXZ ; GostCrypt::FavoritesMountedOnArrivalStillConnected$initializer$
CRT$XCU	ENDS
; Function compile flags: /Ogtp
; File c:\program files (x86)\microsoft visual studio 14.0\vc\include\xmemory0
;	COMDAT ??$construct@UFavoriteVolume@GostCrypt@@U12@@?$allocator@UFavoriteVolume@GostCrypt@@@std@@QAEXPAUFavoriteVolume@GostCrypt@@$$QAU23@@Z
_TEXT	SEGMENT
__Ptr$ = 8						; size = 4
_<_Args_0>$ = 12					; size = 4
??$construct@UFavoriteVolume@GostCrypt@@U12@@?$allocator@UFavoriteVolume@GostCrypt@@@std@@QAEXPAUFavoriteVolume@GostCrypt@@$$QAU23@@Z PROC ; std::allocator<GostCrypt::FavoriteVolume>::construct<GostCrypt::FavoriteVolume,GostCrypt::FavoriteVolume>, COMDAT
; _this$ = ecx

; 736  : 		{	// construct _Objty(_Types...) at _Ptr

  00000	55		 push	 ebp
  00001	8b ec		 mov	 ebp, esp

; 737  : 		::new ((void *)_Ptr) _Objty(_STD forward<_Types>(_Args)...);

  00003	8b 4d 08	 mov	 ecx, DWORD PTR __Ptr$[ebp]
  00006	85 c9		 test	 ecx, ecx
  00008	74 08		 je	 SHORT $LN3@construct
  0000a	ff 75 0c	 push	 DWORD PTR _<_Args_0>$[ebp]
  0000d	e8 00 00 00 00	 call	 ??0FavoriteVolume@GostCrypt@@QAE@$$QAU01@@Z
$LN3@construct:

; 738  : 		}

  00012	5d		 pop	 ebp
  00013	c2 08 00	 ret	 8
??$construct@UFavoriteVolume@GostCrypt@@U12@@?$allocator@UFavoriteVolume@GostCrypt@@@std@@QAEXPAUFavoriteVolume@GostCrypt@@$$QAU23@@Z ENDP ; std::allocator<GostCrypt::FavoriteVolume>::construct<GostCrypt::FavoriteVolume,GostCrypt::FavoriteVolume>
_TEXT	ENDS
; Function compile flags: /Ogtp
; File c:\program files (x86)\microsoft visual studio 14.0\vc\include\xmemory0
;	COMDAT ??$construct@UFavoriteVolume@GostCrypt@@U12@@?$allocator_traits@V?$allocator@UFavoriteVolume@GostCrypt@@@std@@@std@@SAXAAV?$allocator@UFavoriteVolume@GostCrypt@@@1@PAUFavoriteVolume@GostCrypt@@$$QAU34@@Z
_TEXT	SEGMENT
__Al$ = 8						; size = 4
__Ptr$ = 12						; size = 4
_<_Args_0>$ = 16					; size = 4
??$construct@UFavoriteVolume@GostCrypt@@U12@@?$allocator_traits@V?$allocator@UFavoriteVolume@GostCrypt@@@std@@@std@@SAXAAV?$allocator@UFavoriteVolume@GostCrypt@@@1@PAUFavoriteVolume@GostCrypt@@$$QAU34@@Z PROC ; std::allocator_traits<std::allocator<GostCrypt::FavoriteVolume> >::construct<GostCrypt::FavoriteVolume,GostCrypt::FavoriteVolume>, COMDAT

; 856  : 		{	// construct _Objty(_Types...) at _Ptr

  00000	55		 push	 ebp
  00001	8b ec		 mov	 ebp, esp

; 857  : 		_Al.construct(_Ptr, _STD forward<_Types>(_Args)...);

  00003	8b 4d 0c	 mov	 ecx, DWORD PTR __Ptr$[ebp]
  00006	85 c9		 test	 ecx, ecx
  00008	74 08		 je	 SHORT $LN8@construct
  0000a	ff 75 10	 push	 DWORD PTR _<_Args_0>$[ebp]
  0000d	e8 00 00 00 00	 call	 ??0FavoriteVolume@GostCrypt@@QAE@$$QAU01@@Z
$LN8@construct:

; 858  : 		}

  00012	5d		 pop	 ebp
  00013	c3		 ret	 0
??$construct@UFavoriteVolume@GostCrypt@@U12@@?$allocator_traits@V?$allocator@UFavoriteVolume@GostCrypt@@@std@@@std@@SAXAAV?$allocator@UFavoriteVolume@GostCrypt@@@1@PAUFavoriteVolume@GostCrypt@@$$QAU34@@Z ENDP ; std::allocator_traits<std::allocator<GostCrypt::FavoriteVolume> >::construct<GostCrypt::FavoriteVolume,GostCrypt::FavoriteVolume>
_TEXT	ENDS
; Function compile flags: /Ogtp
; File c:\program files (x86)\microsoft visual studio 14.0\vc\include\type_traits
;	COMDAT ??$forward@UFavoriteVolume@GostCrypt@@@std@@YA$$QAUFavoriteVolume@GostCrypt@@AAU12@@Z
_TEXT	SEGMENT
__Arg$ = 8						; size = 4
??$forward@UFavoriteVolume@GostCrypt@@@std@@YA$$QAUFavoriteVolume@GostCrypt@@AAU12@@Z PROC ; std::forward<GostCrypt::FavoriteVolume>, COMDAT

; 1275 : 	{	// forward an lvalue as either an lvalue or an rvalue

  00000	55		 push	 ebp
  00001	8b ec		 mov	 ebp, esp

; 1276 : 	return (static_cast<_Ty&&>(_Arg));

  00003	8b 45 08	 mov	 eax, DWORD PTR __Arg$[ebp]

; 1277 : 	}

  00006	5d		 pop	 ebp
  00007	c3		 ret	 0
??$forward@UFavoriteVolume@GostCrypt@@@std@@YA$$QAUFavoriteVolume@GostCrypt@@AAU12@@Z ENDP ; std::forward<GostCrypt::FavoriteVolume>
_TEXT	ENDS
; Function compile flags: /Ogtp
; File c:\program files (x86)\microsoft visual studio 14.0\vc\include\type_traits
;	COMDAT ??$move@AAU?$_Wrap_alloc@V?$allocator@U?$_List_node@UFavoriteVolume@GostCrypt@@PAX@std@@@std@@@std@@@std@@YA$$QAU?$_Wrap_alloc@V?$allocator@U?$_List_node@UFavoriteVolume@GostCrypt@@PAX@std@@@std@@@0@AAU10@@Z
_TEXT	SEGMENT
__Arg$ = 8						; size = 4
??$move@AAU?$_Wrap_alloc@V?$allocator@U?$_List_node@UFavoriteVolume@GostCrypt@@PAX@std@@@std@@@std@@@std@@YA$$QAU?$_Wrap_alloc@V?$allocator@U?$_List_node@UFavoriteVolume@GostCrypt@@PAX@std@@@std@@@0@AAU10@@Z PROC ; std::move<std::_Wrap_alloc<std::allocator<std::_List_node<GostCrypt::FavoriteVolume,void *> > > &>, COMDAT

; 1291 : 	{	// forward _Arg as movable

  00000	55		 push	 ebp
  00001	8b ec		 mov	 ebp, esp

; 1292 : 	return (static_cast<typename remove_reference<_Ty>::type&&>(_Arg));

  00003	8b 45 08	 mov	 eax, DWORD PTR __Arg$[ebp]

; 1293 : 	}

  00006	5d		 pop	 ebp
  00007	c3		 ret	 0
??$move@AAU?$_Wrap_alloc@V?$allocator@U?$_List_node@UFavoriteVolume@GostCrypt@@PAX@std@@@std@@@std@@@std@@YA$$QAU?$_Wrap_alloc@V?$allocator@U?$_List_node@UFavoriteVolume@GostCrypt@@PAX@std@@@std@@@0@AAU10@@Z ENDP ; std::move<std::_Wrap_alloc<std::allocator<std::_List_node<GostCrypt::FavoriteVolume,void *> > > &>
_TEXT	ENDS
; Function compile flags: /Ogtp
; File c:\program files (x86)\microsoft visual studio 14.0\vc\include\xmemory
;	COMDAT ??$_Uninitialized_copy_al_unchecked1@PBUFavoriteVolume@GostCrypt@@PAU12@V?$allocator@UFavoriteVolume@GostCrypt@@@std@@@std@@YAPAUFavoriteVolume@GostCrypt@@PBU12@0PAU12@AAU?$_Wrap_alloc@V?$allocator@UFavoriteVolume@GostCrypt@@@std@@@0@U_General_ptr_iterator_tag@0@U_Any_tag@0@@Z
_TEXT	SEGMENT
__Next$ = -20						; size = 4
__$EHRec$ = -16						; size = 16
__First$ = 8						; size = 4
$T2 = 12						; size = 4
__Last$ = 12						; size = 4
__Dest$ = 16						; size = 4
__Al$ = 20						; size = 4
___formal$ = 24						; size = 1
___formal$ = 28						; size = 1
??$_Uninitialized_copy_al_unchecked1@PBUFavoriteVolume@GostCrypt@@PAU12@V?$allocator@UFavoriteVolume@GostCrypt@@@std@@@std@@YAPAUFavoriteVolume@GostCrypt@@PBU12@0PAU12@AAU?$_Wrap_alloc@V?$allocator@UFavoriteVolume@GostCrypt@@@std@@@0@U_General_ptr_iterator_tag@0@U_Any_tag@0@@Z PROC ; std::_Uninitialized_copy_al_unchecked1<GostCrypt::FavoriteVolume const *,GostCrypt::FavoriteVolume *,std::allocator<GostCrypt::FavoriteVolume> >, COMDAT

; 220  : 	{	// copy [_First, _Last) to raw _Dest, using _Al, no special optimization

  00000	55		 push	 ebp
  00001	8b ec		 mov	 ebp, esp
  00003	6a ff		 push	 -1
  00005	68 00 00 00 00	 push	 __ehhandler$??$_Uninitialized_copy_al_unchecked1@PBUFavoriteVolume@GostCrypt@@PAU12@V?$allocator@UFavoriteVolume@GostCrypt@@@std@@@std@@YAPAUFavoriteVolume@GostCrypt@@PBU12@0PAU12@AAU?$_Wrap_alloc@V?$allocator@UFavoriteVolume@GostCrypt@@@std@@@0@U_General_ptr_iterator_tag@0@U_Any_tag@0@@Z
  0000a	64 a1 00 00 00
	00		 mov	 eax, DWORD PTR fs:0
  00010	50		 push	 eax
  00011	83 ec 08	 sub	 esp, 8
  00014	53		 push	 ebx
  00015	56		 push	 esi
  00016	57		 push	 edi
  00017	a1 00 00 00 00	 mov	 eax, DWORD PTR ___security_cookie
  0001c	33 c5		 xor	 eax, ebp
  0001e	50		 push	 eax
  0001f	8d 45 f4	 lea	 eax, DWORD PTR __$EHRec$[ebp+4]
  00022	64 a3 00 00 00
	00		 mov	 DWORD PTR fs:0, eax
  00028	89 65 f0	 mov	 DWORD PTR __$EHRec$[ebp], esp

; 221  : 	_FwdIt _Next = _Dest;

  0002b	8b 75 10	 mov	 esi, DWORD PTR __Dest$[ebp]

; 222  : 
; 223  : 	_TRY_BEGIN

  0002e	8b 5d 0c	 mov	 ebx, DWORD PTR __Last$[ebp]
  00031	8b 7d 08	 mov	 edi, DWORD PTR __First$[ebp]
  00034	89 75 ec	 mov	 DWORD PTR __Next$[ebp], esi
  00037	c7 45 fc 00 00
	00 00		 mov	 DWORD PTR __$EHRec$[ebp+12], 0
  0003e	66 90		 npad	 2
$LL4@Uninitiali:

; 224  : 	for (; _First != _Last; ++_Dest, (void)++_First)

  00040	3b fb		 cmp	 edi, ebx
  00042	74 3c		 je	 SHORT $LN3@Uninitiali

; 225  : 		_Al.construct(_Unfancy(_Dest), *_First);

  00044	89 75 0c	 mov	 DWORD PTR $T2[ebp], esi
  00047	c6 45 fc 01	 mov	 BYTE PTR __$EHRec$[ebp+12], 1
  0004b	85 f6		 test	 esi, esi
  0004d	74 08		 je	 SHORT $LN25@Uninitiali
  0004f	57		 push	 edi
  00050	8b ce		 mov	 ecx, esi
  00052	e8 00 00 00 00	 call	 ??0FavoriteVolume@GostCrypt@@QAE@ABU01@@Z
$LN25@Uninitiali:
  00057	83 c6 68	 add	 esi, 104		; 00000068H
  0005a	c6 45 fc 00	 mov	 BYTE PTR __$EHRec$[ebp+12], 0
  0005e	89 75 10	 mov	 DWORD PTR __Dest$[ebp], esi
  00061	83 c7 68	 add	 edi, 104		; 00000068H
  00064	eb da		 jmp	 SHORT $LL4@Uninitiali
__catch$??$_Uninitialized_copy_al_unchecked1@PBUFavoriteVolume@GostCrypt@@PAU12@V?$allocator@UFavoriteVolume@GostCrypt@@@std@@@std@@YAPAUFavoriteVolume@GostCrypt@@PBU12@0PAU12@AAU?$_Wrap_alloc@V?$allocator@UFavoriteVolume@GostCrypt@@@std@@@0@U_General_ptr_iterator_tag@0@U_Any_tag@0@@Z$0:

; 226  : 	_CATCH_ALL
; 227  : 	_Destroy_range(_Next, _Dest, _Al);

  00066	ff 75 14	 push	 DWORD PTR __Al$[ebp]
  00069	ff 75 10	 push	 DWORD PTR __Dest$[ebp]
  0006c	ff 75 ec	 push	 DWORD PTR __Next$[ebp]
  0006f	e8 00 00 00 00	 call	 ??$_Destroy_range@V?$allocator@UFavoriteVolume@GostCrypt@@@std@@PAUFavoriteVolume@GostCrypt@@@std@@YAXPAUFavoriteVolume@GostCrypt@@0AAU?$_Wrap_alloc@V?$allocator@UFavoriteVolume@GostCrypt@@@std@@@0@@Z ; std::_Destroy_range<std::allocator<GostCrypt::FavoriteVolume>,GostCrypt::FavoriteVolume *>
  00074	83 c4 0c	 add	 esp, 12			; 0000000cH

; 228  : 	_RERAISE;

  00077	6a 00		 push	 0
  00079	6a 00		 push	 0
  0007b	e8 00 00 00 00	 call	 __CxxThrowException@8
$LN38@Uninitiali:
$LN3@Uninitiali:

; 229  : 	_CATCH_END
; 230  : 
; 231  : 	return (_Dest);

  00080	8b c6		 mov	 eax, esi

; 232  : 	}

  00082	8b 4d f4	 mov	 ecx, DWORD PTR __$EHRec$[ebp+4]
  00085	64 89 0d 00 00
	00 00		 mov	 DWORD PTR fs:0, ecx
  0008c	59		 pop	 ecx
  0008d	5f		 pop	 edi
  0008e	5e		 pop	 esi
  0008f	5b		 pop	 ebx
  00090	8b e5		 mov	 esp, ebp
  00092	5d		 pop	 ebp
  00093	c3		 ret	 0
$LN37@Uninitiali:
_TEXT	ENDS
;	COMDAT text$x
text$x	SEGMENT
__unwindfunclet$??$_Uninitialized_copy_al_unchecked1@PBUFavoriteVolume@GostCrypt@@PAU12@V?$allocator@UFavoriteVolume@GostCrypt@@@std@@@std@@YAPAUFavoriteVolume@GostCrypt@@PBU12@0PAU12@AAU?$_Wrap_alloc@V?$allocator@UFavoriteVolume@GostCrypt@@@std@@@0@U_General_ptr_iterator_tag@0@U_Any_tag@0@@Z$4:
  00000	8b 45 10	 mov	 eax, DWORD PTR __Dest$[ebp]
  00003	50		 push	 eax
  00004	8b 45 0c	 mov	 eax, DWORD PTR $T2[ebp]
  00007	50		 push	 eax
  00008	e8 00 00 00 00	 call	 ??3@YAXPAX0@Z		; operator delete
  0000d	83 c4 08	 add	 esp, 8
  00010	c3		 ret	 0
__ehhandler$??$_Uninitialized_copy_al_unchecked1@PBUFavoriteVolume@GostCrypt@@PAU12@V?$allocator@UFavoriteVolume@GostCrypt@@@std@@@std@@YAPAUFavoriteVolume@GostCrypt@@PBU12@0PAU12@AAU?$_Wrap_alloc@V?$allocator@UFavoriteVolume@GostCrypt@@@std@@@0@U_General_ptr_iterator_tag@0@U_Any_tag@0@@Z:
  00011	8b 54 24 08	 mov	 edx, DWORD PTR [esp+8]
  00015	8d 42 0c	 lea	 eax, DWORD PTR [edx+12]
  00018	8b 4a e8	 mov	 ecx, DWORD PTR [edx-24]
  0001b	33 c8		 xor	 ecx, eax
  0001d	e8 00 00 00 00	 call	 @__security_check_cookie@4
  00022	b8 00 00 00 00	 mov	 eax, OFFSET __ehfuncinfo$??$_Uninitialized_copy_al_unchecked1@PBUFavoriteVolume@GostCrypt@@PAU12@V?$allocator@UFavoriteVolume@GostCrypt@@@std@@@std@@YAPAUFavoriteVolume@GostCrypt@@PBU12@0PAU12@AAU?$_Wrap_alloc@V?$allocator@UFavoriteVolume@GostCrypt@@@std@@@0@U_General_ptr_iterator_tag@0@U_Any_tag@0@@Z
  00027	e9 00 00 00 00	 jmp	 ___CxxFrameHandler3
text$x	ENDS
??$_Uninitialized_copy_al_unchecked1@PBUFavoriteVolume@GostCrypt@@PAU12@V?$allocator@UFavoriteVolume@GostCrypt@@@std@@@std@@YAPAUFavoriteVolume@GostCrypt@@PBU12@0PAU12@AAU?$_Wrap_alloc@V?$allocator@UFavoriteVolume@GostCrypt@@@std@@@0@U_General_ptr_iterator_tag@0@U_Any_tag@0@@Z ENDP ; std::_Uninitialized_copy_al_unchecked1<GostCrypt::FavoriteVolume const *,GostCrypt::FavoriteVolume *,std::allocator<GostCrypt::FavoriteVolume> >
; Function compile flags: /Ogtp
; File c:\program files (x86)\microsoft visual studio 14.0\vc\include\xutility
;	COMDAT ??$_Ptr_copy_cat@$$CBUFavoriteVolume@GostCrypt@@U12@@std@@YA?AU_General_ptr_iterator_tag@0@ABQBUFavoriteVolume@GostCrypt@@ABQAU23@@Z
_TEXT	SEGMENT
___formal$ = 8						; size = 4
___formal$ = 12						; size = 4
??$_Ptr_copy_cat@$$CBUFavoriteVolume@GostCrypt@@U12@@std@@YA?AU_General_ptr_iterator_tag@0@ABQBUFavoriteVolume@GostCrypt@@ABQAU23@@Z PROC ; std::_Ptr_copy_cat<GostCrypt::FavoriteVolume const ,GostCrypt::FavoriteVolume>, COMDAT

; 793  : 	return {};

  00000	32 c0		 xor	 al, al

; 794  : 	}

  00002	c3		 ret	 0
??$_Ptr_copy_cat@$$CBUFavoriteVolume@GostCrypt@@U12@@std@@YA?AU_General_ptr_iterator_tag@0@ABQBUFavoriteVolume@GostCrypt@@ABQAU23@@Z ENDP ; std::_Ptr_copy_cat<GostCrypt::FavoriteVolume const ,GostCrypt::FavoriteVolume>
_TEXT	ENDS
; Function compile flags: /Ogtp
; File c:\program files (x86)\microsoft visual studio 14.0\vc\include\xmemory0
;	COMDAT ??$construct@UFavoriteVolume@GostCrypt@@U12@@?$_Wrap_alloc@V?$allocator@UFavoriteVolume@GostCrypt@@@std@@@std@@QAEXPAUFavoriteVolume@GostCrypt@@$$QAU23@@Z
_TEXT	SEGMENT
__Ptr$ = 8						; size = 4
_<_Args_0>$ = 12					; size = 4
??$construct@UFavoriteVolume@GostCrypt@@U12@@?$_Wrap_alloc@V?$allocator@UFavoriteVolume@GostCrypt@@@std@@@std@@QAEXPAUFavoriteVolume@GostCrypt@@$$QAU23@@Z PROC ; std::_Wrap_alloc<std::allocator<GostCrypt::FavoriteVolume> >::construct<GostCrypt::FavoriteVolume,GostCrypt::FavoriteVolume>, COMDAT
; _this$ = ecx

; 994  : 		{	// construct _Ty(_Types...) at _Ptr

  00000	55		 push	 ebp
  00001	8b ec		 mov	 ebp, esp

; 995  : 		_Mytraits::construct(*this, _Ptr,

  00003	8b 4d 08	 mov	 ecx, DWORD PTR __Ptr$[ebp]
  00006	85 c9		 test	 ecx, ecx
  00008	74 08		 je	 SHORT $LN13@construct
  0000a	ff 75 0c	 push	 DWORD PTR _<_Args_0>$[ebp]
  0000d	e8 00 00 00 00	 call	 ??0FavoriteVolume@GostCrypt@@QAE@$$QAU01@@Z
$LN13@construct:

; 996  : 			_STD forward<_Types>(_Args)...);
; 997  : 		}

  00012	5d		 pop	 ebp
  00013	c2 08 00	 ret	 8
??$construct@UFavoriteVolume@GostCrypt@@U12@@?$_Wrap_alloc@V?$allocator@UFavoriteVolume@GostCrypt@@@std@@@std@@QAEXPAUFavoriteVolume@GostCrypt@@$$QAU23@@Z ENDP ; std::_Wrap_alloc<std::allocator<GostCrypt::FavoriteVolume> >::construct<GostCrypt::FavoriteVolume,GostCrypt::FavoriteVolume>
_TEXT	ENDS
; Function compile flags: /Ogtp
; File c:\program files (x86)\microsoft visual studio 14.0\vc\include\xmemory0
;	COMDAT ??$destroy@UFavoriteVolume@GostCrypt@@@?$allocator@UFavoriteVolume@GostCrypt@@@std@@QAEXPAUFavoriteVolume@GostCrypt@@@Z
_TEXT	SEGMENT
__Ptr$ = 8						; size = 4
??$destroy@UFavoriteVolume@GostCrypt@@@?$allocator@UFavoriteVolume@GostCrypt@@@std@@QAEXPAUFavoriteVolume@GostCrypt@@@Z PROC ; std::allocator<GostCrypt::FavoriteVolume>::destroy<GostCrypt::FavoriteVolume>, COMDAT
; _this$ = ecx

; 743  : 		{	// destroy object at _Ptr

  00000	55		 push	 ebp
  00001	8b ec		 mov	 ebp, esp

; 744  : 		_Ptr->~_Uty();

  00003	8b 4d 08	 mov	 ecx, DWORD PTR __Ptr$[ebp]
  00006	e8 00 00 00 00	 call	 ??1FavoriteVolume@GostCrypt@@QAE@XZ

; 745  : 		}

  0000b	5d		 pop	 ebp
  0000c	c2 04 00	 ret	 4
??$destroy@UFavoriteVolume@GostCrypt@@@?$allocator@UFavoriteVolume@GostCrypt@@@std@@QAEXPAUFavoriteVolume@GostCrypt@@@Z ENDP ; std::allocator<GostCrypt::FavoriteVolume>::destroy<GostCrypt::FavoriteVolume>
_TEXT	ENDS
; Function compile flags: /Ogtp
; File c:\program files (x86)\microsoft visual studio 14.0\vc\include\xmemory0
;	COMDAT ??$construct@UFavoriteVolume@GostCrypt@@ABU12@@?$allocator@U?$_List_node@UFavoriteVolume@GostCrypt@@PAX@std@@@std@@QAEXPAUFavoriteVolume@GostCrypt@@ABU23@@Z
_TEXT	SEGMENT
$T2 = -16						; size = 4
__$EHRec$ = -12						; size = 12
__Ptr$ = 8						; size = 4
_<_Args_0>$ = 12					; size = 4
??$construct@UFavoriteVolume@GostCrypt@@ABU12@@?$allocator@U?$_List_node@UFavoriteVolume@GostCrypt@@PAX@std@@@std@@QAEXPAUFavoriteVolume@GostCrypt@@ABU23@@Z PROC ; std::allocator<std::_List_node<GostCrypt::FavoriteVolume,void *> >::construct<GostCrypt::FavoriteVolume,GostCrypt::FavoriteVolume const &>, COMDAT
; _this$ = ecx

; 736  : 		{	// construct _Objty(_Types...) at _Ptr

  00000	55		 push	 ebp
  00001	8b ec		 mov	 ebp, esp
  00003	6a ff		 push	 -1
  00005	68 00 00 00 00	 push	 __ehhandler$??$construct@UFavoriteVolume@GostCrypt@@ABU12@@?$allocator@U?$_List_node@UFavoriteVolume@GostCrypt@@PAX@std@@@std@@QAEXPAUFavoriteVolume@GostCrypt@@ABU23@@Z
  0000a	64 a1 00 00 00
	00		 mov	 eax, DWORD PTR fs:0
  00010	50		 push	 eax
  00011	51		 push	 ecx
  00012	a1 00 00 00 00	 mov	 eax, DWORD PTR ___security_cookie
  00017	33 c5		 xor	 eax, ebp
  00019	50		 push	 eax
  0001a	8d 45 f4	 lea	 eax, DWORD PTR __$EHRec$[ebp]
  0001d	64 a3 00 00 00
	00		 mov	 DWORD PTR fs:0, eax

; 737  : 		::new ((void *)_Ptr) _Objty(_STD forward<_Types>(_Args)...);

  00023	8b 4d 08	 mov	 ecx, DWORD PTR __Ptr$[ebp]
  00026	89 4d f0	 mov	 DWORD PTR $T2[ebp], ecx
  00029	c7 45 fc 00 00
	00 00		 mov	 DWORD PTR __$EHRec$[ebp+8], 0
  00030	85 c9		 test	 ecx, ecx
  00032	74 08		 je	 SHORT $LN3@construct
  00034	ff 75 0c	 push	 DWORD PTR _<_Args_0>$[ebp]
  00037	e8 00 00 00 00	 call	 ??0FavoriteVolume@GostCrypt@@QAE@ABU01@@Z
$LN3@construct:

; 738  : 		}

  0003c	8b 4d f4	 mov	 ecx, DWORD PTR __$EHRec$[ebp]
  0003f	64 89 0d 00 00
	00 00		 mov	 DWORD PTR fs:0, ecx
  00046	59		 pop	 ecx
  00047	8b e5		 mov	 esp, ebp
  00049	5d		 pop	 ebp
  0004a	c2 08 00	 ret	 8
_TEXT	ENDS
;	COMDAT text$x
text$x	SEGMENT
__unwindfunclet$??$construct@UFavoriteVolume@GostCrypt@@ABU12@@?$allocator@U?$_List_node@UFavoriteVolume@GostCrypt@@PAX@std@@@std@@QAEXPAUFavoriteVolume@GostCrypt@@ABU23@@Z$0:
  00000	8b 45 08	 mov	 eax, DWORD PTR __Ptr$[ebp]
  00003	50		 push	 eax
  00004	8b 45 f0	 mov	 eax, DWORD PTR $T2[ebp]
  00007	50		 push	 eax
  00008	e8 00 00 00 00	 call	 ??3@YAXPAX0@Z		; operator delete
  0000d	83 c4 08	 add	 esp, 8
  00010	c3		 ret	 0
__ehhandler$??$construct@UFavoriteVolume@GostCrypt@@ABU12@@?$allocator@U?$_List_node@UFavoriteVolume@GostCrypt@@PAX@std@@@std@@QAEXPAUFavoriteVolume@GostCrypt@@ABU23@@Z:
  00011	8b 54 24 08	 mov	 edx, DWORD PTR [esp+8]
  00015	8d 42 0c	 lea	 eax, DWORD PTR [edx+12]
  00018	8b 4a f8	 mov	 ecx, DWORD PTR [edx-8]
  0001b	33 c8		 xor	 ecx, eax
  0001d	e8 00 00 00 00	 call	 @__security_check_cookie@4
  00022	b8 00 00 00 00	 mov	 eax, OFFSET __ehfuncinfo$??$construct@UFavoriteVolume@GostCrypt@@ABU12@@?$allocator@U?$_List_node@UFavoriteVolume@GostCrypt@@PAX@std@@@std@@QAEXPAUFavoriteVolume@GostCrypt@@ABU23@@Z
  00027	e9 00 00 00 00	 jmp	 ___CxxFrameHandler3
text$x	ENDS
??$construct@UFavoriteVolume@GostCrypt@@ABU12@@?$allocator@U?$_List_node@UFavoriteVolume@GostCrypt@@PAX@std@@@std@@QAEXPAUFavoriteVolume@GostCrypt@@ABU23@@Z ENDP ; std::allocator<std::_List_node<GostCrypt::FavoriteVolume,void *> >::construct<GostCrypt::FavoriteVolume,GostCrypt::FavoriteVolume const &>
; Function compile flags: /Ogtp
; File c:\program files (x86)\microsoft visual studio 14.0\vc\include\type_traits
;	COMDAT ??$move@AAU?$_Wrap_alloc@V?$allocator@UFavoriteVolume@GostCrypt@@@std@@@std@@@std@@YA$$QAU?$_Wrap_alloc@V?$allocator@UFavoriteVolume@GostCrypt@@@std@@@0@AAU10@@Z
_TEXT	SEGMENT
__Arg$ = 8						; size = 4
??$move@AAU?$_Wrap_alloc@V?$allocator@UFavoriteVolume@GostCrypt@@@std@@@std@@@std@@YA$$QAU?$_Wrap_alloc@V?$allocator@UFavoriteVolume@GostCrypt@@@std@@@0@AAU10@@Z PROC ; std::move<std::_Wrap_alloc<std::allocator<GostCrypt::FavoriteVolume> > &>, COMDAT

; 1291 : 	{	// forward _Arg as movable

  00000	55		 push	 ebp
  00001	8b ec		 mov	 ebp, esp

; 1292 : 	return (static_cast<typename remove_reference<_Ty>::type&&>(_Arg));

  00003	8b 45 08	 mov	 eax, DWORD PTR __Arg$[ebp]

; 1293 : 	}

  00006	5d		 pop	 ebp
  00007	c3		 ret	 0
??$move@AAU?$_Wrap_alloc@V?$allocator@UFavoriteVolume@GostCrypt@@@std@@@std@@@std@@YA$$QAU?$_Wrap_alloc@V?$allocator@UFavoriteVolume@GostCrypt@@@std@@@0@AAU10@@Z ENDP ; std::move<std::_Wrap_alloc<std::allocator<GostCrypt::FavoriteVolume> > &>
_TEXT	ENDS
; Function compile flags: /Ogtp
; File c:\program files (x86)\microsoft visual studio 14.0\vc\include\xmemory
;	COMDAT ??$_Uninitialized_copy_al_unchecked@PBUFavoriteVolume@GostCrypt@@PAU12@V?$allocator@UFavoriteVolume@GostCrypt@@@std@@@std@@YAPAUFavoriteVolume@GostCrypt@@PBU12@0PAU12@AAU?$_Wrap_alloc@V?$allocator@UFavoriteVolume@GostCrypt@@@std@@@0@@Z
_TEXT	SEGMENT
$T1 = -4						; size = 1
__First$ = 8						; size = 4
__Last$ = 12						; size = 4
__Dest$ = 16						; size = 4
__Al$ = 20						; size = 4
??$_Uninitialized_copy_al_unchecked@PBUFavoriteVolume@GostCrypt@@PAU12@V?$allocator@UFavoriteVolume@GostCrypt@@@std@@@std@@YAPAUFavoriteVolume@GostCrypt@@PBU12@0PAU12@AAU?$_Wrap_alloc@V?$allocator@UFavoriteVolume@GostCrypt@@@std@@@0@@Z PROC ; std::_Uninitialized_copy_al_unchecked<GostCrypt::FavoriteVolume const *,GostCrypt::FavoriteVolume *,std::allocator<GostCrypt::FavoriteVolume> >, COMDAT

; 248  : 	{	// copy [_First, _Last) to raw _Dest, using _Al, choose optimization

  00000	55		 push	 ebp
  00001	8b ec		 mov	 ebp, esp
  00003	83 ec 08	 sub	 esp, 8

; 249  : 	return (_Uninitialized_copy_al_unchecked1(_First, _Last, _Dest, _Al,

  00006	51		 push	 ecx
  00007	c6 45 fc 00	 mov	 BYTE PTR $T1[ebp], 0
  0000b	ff 75 fc	 push	 DWORD PTR $T1[ebp]
  0000e	ff 75 14	 push	 DWORD PTR __Al$[ebp]
  00011	ff 75 10	 push	 DWORD PTR __Dest$[ebp]
  00014	ff 75 0c	 push	 DWORD PTR __Last$[ebp]
  00017	ff 75 08	 push	 DWORD PTR __First$[ebp]
  0001a	e8 00 00 00 00	 call	 ??$_Uninitialized_copy_al_unchecked1@PBUFavoriteVolume@GostCrypt@@PAU12@V?$allocator@UFavoriteVolume@GostCrypt@@@std@@@std@@YAPAUFavoriteVolume@GostCrypt@@PBU12@0PAU12@AAU?$_Wrap_alloc@V?$allocator@UFavoriteVolume@GostCrypt@@@std@@@0@U_General_ptr_iterator_tag@0@U_Any_tag@0@@Z ; std::_Uninitialized_copy_al_unchecked1<GostCrypt::FavoriteVolume const *,GostCrypt::FavoriteVolume *,std::allocator<GostCrypt::FavoriteVolume> >
  0001f	83 c4 18	 add	 esp, 24			; 00000018H

; 250  : 		_Ptr_copy_cat(_First, _Dest),
; 251  : 		_Uses_default_construct_t<_Alloc, decltype(_Unfancy(_Dest)), decltype(*_First)>()));
; 252  : 	}

  00022	8b e5		 mov	 esp, ebp
  00024	5d		 pop	 ebp
  00025	c3		 ret	 0
??$_Uninitialized_copy_al_unchecked@PBUFavoriteVolume@GostCrypt@@PAU12@V?$allocator@UFavoriteVolume@GostCrypt@@@std@@@std@@YAPAUFavoriteVolume@GostCrypt@@PBU12@0PAU12@AAU?$_Wrap_alloc@V?$allocator@UFavoriteVolume@GostCrypt@@@std@@@0@@Z ENDP ; std::_Uninitialized_copy_al_unchecked<GostCrypt::FavoriteVolume const *,GostCrypt::FavoriteVolume *,std::allocator<GostCrypt::FavoriteVolume> >
_TEXT	ENDS
; Function compile flags: /Ogtp
; File c:\program files (x86)\microsoft visual studio 14.0\vc\include\vector
;	COMDAT ??$_Unchecked@V?$_Vector_val@U?$_Simple_types@UFavoriteVolume@GostCrypt@@@std@@@std@@@std@@YAPBUFavoriteVolume@GostCrypt@@V?$_Vector_const_iterator@V?$_Vector_val@U?$_Simple_types@UFavoriteVolume@GostCrypt@@@std@@@std@@@0@@Z
_TEXT	SEGMENT
__Iter$ = 8						; size = 4
??$_Unchecked@V?$_Vector_val@U?$_Simple_types@UFavoriteVolume@GostCrypt@@@std@@@std@@@std@@YAPBUFavoriteVolume@GostCrypt@@V?$_Vector_const_iterator@V?$_Vector_val@U?$_Simple_types@UFavoriteVolume@GostCrypt@@@std@@@std@@@0@@Z PROC ; std::_Unchecked<std::_Vector_val<std::_Simple_types<GostCrypt::FavoriteVolume> > >, COMDAT

; 271  : 	{	// convert to unchecked

  00000	55		 push	 ebp
  00001	8b ec		 mov	 ebp, esp

; 272  : 	return (_Iter._Unchecked());

  00003	8b 45 08	 mov	 eax, DWORD PTR __Iter$[ebp]

; 273  : 	}

  00006	5d		 pop	 ebp
  00007	c3		 ret	 0
??$_Unchecked@V?$_Vector_val@U?$_Simple_types@UFavoriteVolume@GostCrypt@@@std@@@std@@@std@@YAPBUFavoriteVolume@GostCrypt@@V?$_Vector_const_iterator@V?$_Vector_val@U?$_Simple_types@UFavoriteVolume@GostCrypt@@@std@@@std@@@0@@Z ENDP ; std::_Unchecked<std::_Vector_val<std::_Simple_types<GostCrypt::FavoriteVolume> > >
_TEXT	ENDS
; Function compile flags: /Ogtp
; File c:\program files (x86)\microsoft visual studio 14.0\vc\include\xutility
;	COMDAT ??$?0U?$_Wrap_alloc@V?$allocator@U?$_List_node@UFavoriteVolume@GostCrypt@@PAX@std@@@std@@@std@@$$V@?$_Compressed_pair@U?$_Wrap_alloc@V?$allocator@U?$_List_node@UFavoriteVolume@GostCrypt@@PAX@std@@@std@@@std@@V?$_List_val@U?$_List_simple_types@UFavoriteVolume@GostCrypt@@@std@@@2@$00@std@@QAE@U_One_then_variadic_args_t@1@$$QAU?$_Wrap_alloc@V?$allocator@U?$_List_node@UFavoriteVolume@GostCrypt@@PAX@std@@@std@@@1@@Z
_TEXT	SEGMENT
___formal$ = 8						; size = 1
__Val1$ = 12						; size = 4
??$?0U?$_Wrap_alloc@V?$allocator@U?$_List_node@UFavoriteVolume@GostCrypt@@PAX@std@@@std@@@std@@$$V@?$_Compressed_pair@U?$_Wrap_alloc@V?$allocator@U?$_List_node@UFavoriteVolume@GostCrypt@@PAX@std@@@std@@@std@@V?$_List_val@U?$_List_simple_types@UFavoriteVolume@GostCrypt@@@std@@@2@$00@std@@QAE@U_One_then_variadic_args_t@1@$$QAU?$_Wrap_alloc@V?$allocator@U?$_List_node@UFavoriteVolume@GostCrypt@@PAX@std@@@std@@@1@@Z PROC ; std::_Compressed_pair<std::_Wrap_alloc<std::allocator<std::_List_node<GostCrypt::FavoriteVolume,void *> > >,std::_List_val<std::_List_simple_types<GostCrypt::FavoriteVolume> >,1>::_Compressed_pair<std::_Wrap_alloc<std::allocator<std::_List_node<GostCrypt::FavoriteVolume,void *> > >,std::_List_val<std::_List_simple_types<GostCrypt::FavoriteVolume> >,1><std::_Wrap_alloc<std::allocator<std::_List_node<GostCrypt::FavoriteVolume,void *> > > >, COMDAT
; _this$ = ecx

; 288  : 			_Myval2(_STD forward<_Other2>(_Val2)...)

  00000	c7 01 00 00 00
	00		 mov	 DWORD PTR [ecx], 0

; 290  : 		}

  00006	8b c1		 mov	 eax, ecx
  00008	c7 41 04 00 00
	00 00		 mov	 DWORD PTR [ecx+4], 0
  0000f	c2 08 00	 ret	 8
??$?0U?$_Wrap_alloc@V?$allocator@U?$_List_node@UFavoriteVolume@GostCrypt@@PAX@std@@@std@@@std@@$$V@?$_Compressed_pair@U?$_Wrap_alloc@V?$allocator@U?$_List_node@UFavoriteVolume@GostCrypt@@PAX@std@@@std@@@std@@V?$_List_val@U?$_List_simple_types@UFavoriteVolume@GostCrypt@@@std@@@2@$00@std@@QAE@U_One_then_variadic_args_t@1@$$QAU?$_Wrap_alloc@V?$allocator@U?$_List_node@UFavoriteVolume@GostCrypt@@PAX@std@@@std@@@1@@Z ENDP ; std::_Compressed_pair<std::_Wrap_alloc<std::allocator<std::_List_node<GostCrypt::FavoriteVolume,void *> > >,std::_List_val<std::_List_simple_types<GostCrypt::FavoriteVolume> >,1>::_Compressed_pair<std::_Wrap_alloc<std::allocator<std::_List_node<GostCrypt::FavoriteVolume,void *> > >,std::_List_val<std::_List_simple_types<GostCrypt::FavoriteVolume> >,1><std::_Wrap_alloc<std::allocator<std::_List_node<GostCrypt::FavoriteVolume,void *> > > >
_TEXT	ENDS
; Function compile flags: /Ogtp
; File c:\program files (x86)\microsoft visual studio 14.0\vc\include\xmemory
;	COMDAT ??$_Uninitialized_move_al_unchecked1@PAUFavoriteVolume@GostCrypt@@PAU12@V?$allocator@UFavoriteVolume@GostCrypt@@@std@@@std@@YAPAUFavoriteVolume@GostCrypt@@PAU12@00AAU?$_Wrap_alloc@V?$allocator@UFavoriteVolume@GostCrypt@@@std@@@0@U_General_ptr_iterator_tag@0@U_Any_tag@0@@Z
_TEXT	SEGMENT
__First$ = 8						; size = 4
__Last$ = 12						; size = 4
__Dest$ = 16						; size = 4
__Al$ = 20						; size = 4
___formal$ = 24						; size = 1
___formal$ = 28						; size = 1
??$_Uninitialized_move_al_unchecked1@PAUFavoriteVolume@GostCrypt@@PAU12@V?$allocator@UFavoriteVolume@GostCrypt@@@std@@@std@@YAPAUFavoriteVolume@GostCrypt@@PAU12@00AAU?$_Wrap_alloc@V?$allocator@UFavoriteVolume@GostCrypt@@@std@@@0@U_General_ptr_iterator_tag@0@U_Any_tag@0@@Z PROC ; std::_Uninitialized_move_al_unchecked1<GostCrypt::FavoriteVolume *,GostCrypt::FavoriteVolume *,std::allocator<GostCrypt::FavoriteVolume> >, COMDAT

; 273  : 	{	// move [_First, _Last) to raw _Dest, using _Al, no special optimization

  00000	55		 push	 ebp
  00001	8b ec		 mov	 ebp, esp
  00003	53		 push	 ebx

; 274  : 	_FwdIt _Next = _Dest;
; 275  : 
; 276  : 	_TRY_BEGIN
; 277  : 	for (; _First != _Last; ++_Dest, (void)++_First)

  00004	8b 5d 0c	 mov	 ebx, DWORD PTR __Last$[ebp]
  00007	56		 push	 esi
  00008	8b 75 08	 mov	 esi, DWORD PTR __First$[ebp]
  0000b	3b f3		 cmp	 esi, ebx
  0000d	74 21		 je	 SHORT $LN39@Uninitiali
  0000f	57		 push	 edi
  00010	8b 7d 10	 mov	 edi, DWORD PTR __Dest$[ebp]
$LL4@Uninitiali:

; 278  : 		_Al.construct(_Unfancy(_Dest), _STD move(*_First));

  00013	85 ff		 test	 edi, edi
  00015	74 08		 je	 SHORT $LN2@Uninitiali
  00017	56		 push	 esi
  00018	8b cf		 mov	 ecx, edi
  0001a	e8 00 00 00 00	 call	 ??0FavoriteVolume@GostCrypt@@QAE@$$QAU01@@Z
$LN2@Uninitiali:

; 274  : 	_FwdIt _Next = _Dest;
; 275  : 
; 276  : 	_TRY_BEGIN
; 277  : 	for (; _First != _Last; ++_Dest, (void)++_First)

  0001f	83 c6 68	 add	 esi, 104		; 00000068H
  00022	83 c7 68	 add	 edi, 104		; 00000068H
  00025	3b f3		 cmp	 esi, ebx
  00027	75 ea		 jne	 SHORT $LL4@Uninitiali

; 279  : 	_CATCH_ALL
; 280  : 	_Destroy_range(_Next, _Dest, _Al);
; 281  : 	_RERAISE;
; 282  : 	_CATCH_END
; 283  : 
; 284  : 	return (_Dest);

  00029	8b c7		 mov	 eax, edi
  0002b	5f		 pop	 edi
  0002c	5e		 pop	 esi
  0002d	5b		 pop	 ebx

; 285  : 	}

  0002e	5d		 pop	 ebp
  0002f	c3		 ret	 0
$LN39@Uninitiali:

; 279  : 	_CATCH_ALL
; 280  : 	_Destroy_range(_Next, _Dest, _Al);
; 281  : 	_RERAISE;
; 282  : 	_CATCH_END
; 283  : 
; 284  : 	return (_Dest);

  00030	8b 45 10	 mov	 eax, DWORD PTR __Dest$[ebp]
  00033	5e		 pop	 esi
  00034	5b		 pop	 ebx

; 285  : 	}

  00035	5d		 pop	 ebp
  00036	c3		 ret	 0
??$_Uninitialized_move_al_unchecked1@PAUFavoriteVolume@GostCrypt@@PAU12@V?$allocator@UFavoriteVolume@GostCrypt@@@std@@@std@@YAPAUFavoriteVolume@GostCrypt@@PAU12@00AAU?$_Wrap_alloc@V?$allocator@UFavoriteVolume@GostCrypt@@@std@@@0@U_General_ptr_iterator_tag@0@U_Any_tag@0@@Z ENDP ; std::_Uninitialized_move_al_unchecked1<GostCrypt::FavoriteVolume *,GostCrypt::FavoriteVolume *,std::allocator<GostCrypt::FavoriteVolume> >
_TEXT	ENDS
; Function compile flags: /Ogtp
; File c:\program files (x86)\microsoft visual studio 14.0\vc\include\xmemory0
;	COMDAT ??$destroy@UFavoriteVolume@GostCrypt@@@?$allocator_traits@V?$allocator@UFavoriteVolume@GostCrypt@@@std@@@std@@SAXAAV?$allocator@UFavoriteVolume@GostCrypt@@@1@PAUFavoriteVolume@GostCrypt@@@Z
_TEXT	SEGMENT
__Al$ = 8						; size = 4
__Ptr$ = 12						; size = 4
??$destroy@UFavoriteVolume@GostCrypt@@@?$allocator_traits@V?$allocator@UFavoriteVolume@GostCrypt@@@std@@@std@@SAXAAV?$allocator@UFavoriteVolume@GostCrypt@@@1@PAUFavoriteVolume@GostCrypt@@@Z PROC ; std::allocator_traits<std::allocator<GostCrypt::FavoriteVolume> >::destroy<GostCrypt::FavoriteVolume>, COMDAT

; 863  : 		{	// destroy object at _Ptr

  00000	55		 push	 ebp
  00001	8b ec		 mov	 ebp, esp

; 864  : 		_Al.destroy(_Ptr);

  00003	8b 4d 0c	 mov	 ecx, DWORD PTR __Ptr$[ebp]

; 865  : 		}

  00006	5d		 pop	 ebp

; 864  : 		_Al.destroy(_Ptr);

  00007	e9 00 00 00 00	 jmp	 ??1FavoriteVolume@GostCrypt@@QAE@XZ
??$destroy@UFavoriteVolume@GostCrypt@@@?$allocator_traits@V?$allocator@UFavoriteVolume@GostCrypt@@@std@@@std@@SAXAAV?$allocator@UFavoriteVolume@GostCrypt@@@1@PAUFavoriteVolume@GostCrypt@@@Z ENDP ; std::allocator_traits<std::allocator<GostCrypt::FavoriteVolume> >::destroy<GostCrypt::FavoriteVolume>
_TEXT	ENDS
; Function compile flags: /Ogtp
; File c:\program files (x86)\microsoft visual studio 14.0\vc\include\xutility
;	COMDAT ??$?0U?$integral_constant@_N$00@std@@@_Any_tag@std@@QAE@$$QAU?$integral_constant@_N$00@1@@Z
_TEXT	SEGMENT
___formal$ = 8						; size = 4
??$?0U?$integral_constant@_N$00@std@@@_Any_tag@std@@QAE@$$QAU?$integral_constant@_N$00@1@@Z PROC ; std::_Any_tag::_Any_tag<std::integral_constant<bool,1> >, COMDAT
; _this$ = ecx

; 554  : 		constexpr _Any_tag(_Ty&&) _NOEXCEPT {}

  00000	8b c1		 mov	 eax, ecx
  00002	c2 04 00	 ret	 4
??$?0U?$integral_constant@_N$00@std@@@_Any_tag@std@@QAE@$$QAU?$integral_constant@_N$00@1@@Z ENDP ; std::_Any_tag::_Any_tag<std::integral_constant<bool,1> >
_TEXT	ENDS
; Function compile flags: /Ogtp
; File c:\program files (x86)\microsoft visual studio 14.0\vc\include\xmemory
;	COMDAT ??$_Uninitialized_copy_al_unchecked1@PAUFavoriteVolume@GostCrypt@@PAU12@V?$allocator@UFavoriteVolume@GostCrypt@@@std@@@std@@YAPAUFavoriteVolume@GostCrypt@@PAU12@00AAU?$_Wrap_alloc@V?$allocator@UFavoriteVolume@GostCrypt@@@std@@@0@U_General_ptr_iterator_tag@0@U_Any_tag@0@@Z
_TEXT	SEGMENT
__Next$ = -20						; size = 4
__$EHRec$ = -16						; size = 16
__First$ = 8						; size = 4
$T2 = 12						; size = 4
__Last$ = 12						; size = 4
__Dest$ = 16						; size = 4
__Al$ = 20						; size = 4
___formal$ = 24						; size = 1
___formal$ = 28						; size = 1
??$_Uninitialized_copy_al_unchecked1@PAUFavoriteVolume@GostCrypt@@PAU12@V?$allocator@UFavoriteVolume@GostCrypt@@@std@@@std@@YAPAUFavoriteVolume@GostCrypt@@PAU12@00AAU?$_Wrap_alloc@V?$allocator@UFavoriteVolume@GostCrypt@@@std@@@0@U_General_ptr_iterator_tag@0@U_Any_tag@0@@Z PROC ; std::_Uninitialized_copy_al_unchecked1<GostCrypt::FavoriteVolume *,GostCrypt::FavoriteVolume *,std::allocator<GostCrypt::FavoriteVolume> >, COMDAT

; 220  : 	{	// copy [_First, _Last) to raw _Dest, using _Al, no special optimization

  00000	55		 push	 ebp
  00001	8b ec		 mov	 ebp, esp
  00003	6a ff		 push	 -1
  00005	68 00 00 00 00	 push	 __ehhandler$??$_Uninitialized_copy_al_unchecked1@PAUFavoriteVolume@GostCrypt@@PAU12@V?$allocator@UFavoriteVolume@GostCrypt@@@std@@@std@@YAPAUFavoriteVolume@GostCrypt@@PAU12@00AAU?$_Wrap_alloc@V?$allocator@UFavoriteVolume@GostCrypt@@@std@@@0@U_General_ptr_iterator_tag@0@U_Any_tag@0@@Z
  0000a	64 a1 00 00 00
	00		 mov	 eax, DWORD PTR fs:0
  00010	50		 push	 eax
  00011	83 ec 08	 sub	 esp, 8
  00014	53		 push	 ebx
  00015	56		 push	 esi
  00016	57		 push	 edi
  00017	a1 00 00 00 00	 mov	 eax, DWORD PTR ___security_cookie
  0001c	33 c5		 xor	 eax, ebp
  0001e	50		 push	 eax
  0001f	8d 45 f4	 lea	 eax, DWORD PTR __$EHRec$[ebp+4]
  00022	64 a3 00 00 00
	00		 mov	 DWORD PTR fs:0, eax
  00028	89 65 f0	 mov	 DWORD PTR __$EHRec$[ebp], esp

; 221  : 	_FwdIt _Next = _Dest;

  0002b	8b 75 10	 mov	 esi, DWORD PTR __Dest$[ebp]

; 222  : 
; 223  : 	_TRY_BEGIN

  0002e	8b 5d 0c	 mov	 ebx, DWORD PTR __Last$[ebp]
  00031	8b 7d 08	 mov	 edi, DWORD PTR __First$[ebp]
  00034	89 75 ec	 mov	 DWORD PTR __Next$[ebp], esi
  00037	c7 45 fc 00 00
	00 00		 mov	 DWORD PTR __$EHRec$[ebp+12], 0
  0003e	66 90		 npad	 2
$LL4@Uninitiali:

; 224  : 	for (; _First != _Last; ++_Dest, (void)++_First)

  00040	3b fb		 cmp	 edi, ebx
  00042	74 3c		 je	 SHORT $LN3@Uninitiali

; 225  : 		_Al.construct(_Unfancy(_Dest), *_First);

  00044	89 75 0c	 mov	 DWORD PTR $T2[ebp], esi
  00047	c6 45 fc 01	 mov	 BYTE PTR __$EHRec$[ebp+12], 1
  0004b	85 f6		 test	 esi, esi
  0004d	74 08		 je	 SHORT $LN25@Uninitiali
  0004f	57		 push	 edi
  00050	8b ce		 mov	 ecx, esi
  00052	e8 00 00 00 00	 call	 ??0FavoriteVolume@GostCrypt@@QAE@ABU01@@Z
$LN25@Uninitiali:
  00057	83 c6 68	 add	 esi, 104		; 00000068H
  0005a	c6 45 fc 00	 mov	 BYTE PTR __$EHRec$[ebp+12], 0
  0005e	89 75 10	 mov	 DWORD PTR __Dest$[ebp], esi
  00061	83 c7 68	 add	 edi, 104		; 00000068H
  00064	eb da		 jmp	 SHORT $LL4@Uninitiali
__catch$??$_Uninitialized_copy_al_unchecked1@PAUFavoriteVolume@GostCrypt@@PAU12@V?$allocator@UFavoriteVolume@GostCrypt@@@std@@@std@@YAPAUFavoriteVolume@GostCrypt@@PAU12@00AAU?$_Wrap_alloc@V?$allocator@UFavoriteVolume@GostCrypt@@@std@@@0@U_General_ptr_iterator_tag@0@U_Any_tag@0@@Z$0:

; 226  : 	_CATCH_ALL
; 227  : 	_Destroy_range(_Next, _Dest, _Al);

  00066	ff 75 14	 push	 DWORD PTR __Al$[ebp]
  00069	ff 75 10	 push	 DWORD PTR __Dest$[ebp]
  0006c	ff 75 ec	 push	 DWORD PTR __Next$[ebp]
  0006f	e8 00 00 00 00	 call	 ??$_Destroy_range@V?$allocator@UFavoriteVolume@GostCrypt@@@std@@PAUFavoriteVolume@GostCrypt@@@std@@YAXPAUFavoriteVolume@GostCrypt@@0AAU?$_Wrap_alloc@V?$allocator@UFavoriteVolume@GostCrypt@@@std@@@0@@Z ; std::_Destroy_range<std::allocator<GostCrypt::FavoriteVolume>,GostCrypt::FavoriteVolume *>
  00074	83 c4 0c	 add	 esp, 12			; 0000000cH

; 228  : 	_RERAISE;

  00077	6a 00		 push	 0
  00079	6a 00		 push	 0
  0007b	e8 00 00 00 00	 call	 __CxxThrowException@8
$LN38@Uninitiali:
$LN3@Uninitiali:

; 229  : 	_CATCH_END
; 230  : 
; 231  : 	return (_Dest);

  00080	8b c6		 mov	 eax, esi

; 232  : 	}

  00082	8b 4d f4	 mov	 ecx, DWORD PTR __$EHRec$[ebp+4]
  00085	64 89 0d 00 00
	00 00		 mov	 DWORD PTR fs:0, ecx
  0008c	59		 pop	 ecx
  0008d	5f		 pop	 edi
  0008e	5e		 pop	 esi
  0008f	5b		 pop	 ebx
  00090	8b e5		 mov	 esp, ebp
  00092	5d		 pop	 ebp
  00093	c3		 ret	 0
$LN37@Uninitiali:
_TEXT	ENDS
;	COMDAT text$x
text$x	SEGMENT
__unwindfunclet$??$_Uninitialized_copy_al_unchecked1@PAUFavoriteVolume@GostCrypt@@PAU12@V?$allocator@UFavoriteVolume@GostCrypt@@@std@@@std@@YAPAUFavoriteVolume@GostCrypt@@PAU12@00AAU?$_Wrap_alloc@V?$allocator@UFavoriteVolume@GostCrypt@@@std@@@0@U_General_ptr_iterator_tag@0@U_Any_tag@0@@Z$4:
  00000	8b 45 10	 mov	 eax, DWORD PTR __Dest$[ebp]
  00003	50		 push	 eax
  00004	8b 45 0c	 mov	 eax, DWORD PTR $T2[ebp]
  00007	50		 push	 eax
  00008	e8 00 00 00 00	 call	 ??3@YAXPAX0@Z		; operator delete
  0000d	83 c4 08	 add	 esp, 8
  00010	c3		 ret	 0
__ehhandler$??$_Uninitialized_copy_al_unchecked1@PAUFavoriteVolume@GostCrypt@@PAU12@V?$allocator@UFavoriteVolume@GostCrypt@@@std@@@std@@YAPAUFavoriteVolume@GostCrypt@@PAU12@00AAU?$_Wrap_alloc@V?$allocator@UFavoriteVolume@GostCrypt@@@std@@@0@U_General_ptr_iterator_tag@0@U_Any_tag@0@@Z:
  00011	8b 54 24 08	 mov	 edx, DWORD PTR [esp+8]
  00015	8d 42 0c	 lea	 eax, DWORD PTR [edx+12]
  00018	8b 4a e8	 mov	 ecx, DWORD PTR [edx-24]
  0001b	33 c8		 xor	 ecx, eax
  0001d	e8 00 00 00 00	 call	 @__security_check_cookie@4
  00022	b8 00 00 00 00	 mov	 eax, OFFSET __ehfuncinfo$??$_Uninitialized_copy_al_unchecked1@PAUFavoriteVolume@GostCrypt@@PAU12@V?$allocator@UFavoriteVolume@GostCrypt@@@std@@@std@@YAPAUFavoriteVolume@GostCrypt@@PAU12@00AAU?$_Wrap_alloc@V?$allocator@UFavoriteVolume@GostCrypt@@@std@@@0@U_General_ptr_iterator_tag@0@U_Any_tag@0@@Z
  00027	e9 00 00 00 00	 jmp	 ___CxxFrameHandler3
text$x	ENDS
??$_Uninitialized_copy_al_unchecked1@PAUFavoriteVolume@GostCrypt@@PAU12@V?$allocator@UFavoriteVolume@GostCrypt@@@std@@@std@@YAPAUFavoriteVolume@GostCrypt@@PAU12@00AAU?$_Wrap_alloc@V?$allocator@UFavoriteVolume@GostCrypt@@@std@@@0@U_General_ptr_iterator_tag@0@U_Any_tag@0@@Z ENDP ; std::_Uninitialized_copy_al_unchecked1<GostCrypt::FavoriteVolume *,GostCrypt::FavoriteVolume *,std::allocator<GostCrypt::FavoriteVolume> >
; Function compile flags: /Ogtp
; File c:\program files (x86)\microsoft visual studio 14.0\vc\include\xmemory0
;	COMDAT ??$construct@UFavoriteVolume@GostCrypt@@ABU12@@?$allocator_traits@V?$allocator@U?$_List_node@UFavoriteVolume@GostCrypt@@PAX@std@@@std@@@std@@SAXAAV?$allocator@U?$_List_node@UFavoriteVolume@GostCrypt@@PAX@std@@@1@PAUFavoriteVolume@GostCrypt@@ABU34@@Z
_TEXT	SEGMENT
$T2 = -16						; size = 4
__$EHRec$ = -12						; size = 12
__Al$ = 8						; size = 4
__Ptr$ = 12						; size = 4
_<_Args_0>$ = 16					; size = 4
??$construct@UFavoriteVolume@GostCrypt@@ABU12@@?$allocator_traits@V?$allocator@U?$_List_node@UFavoriteVolume@GostCrypt@@PAX@std@@@std@@@std@@SAXAAV?$allocator@U?$_List_node@UFavoriteVolume@GostCrypt@@PAX@std@@@1@PAUFavoriteVolume@GostCrypt@@ABU34@@Z PROC ; std::allocator_traits<std::allocator<std::_List_node<GostCrypt::FavoriteVolume,void *> > >::construct<GostCrypt::FavoriteVolume,GostCrypt::FavoriteVolume const &>, COMDAT

; 856  : 		{	// construct _Objty(_Types...) at _Ptr

  00000	55		 push	 ebp
  00001	8b ec		 mov	 ebp, esp
  00003	6a ff		 push	 -1
  00005	68 00 00 00 00	 push	 __ehhandler$??$construct@UFavoriteVolume@GostCrypt@@ABU12@@?$allocator_traits@V?$allocator@U?$_List_node@UFavoriteVolume@GostCrypt@@PAX@std@@@std@@@std@@SAXAAV?$allocator@U?$_List_node@UFavoriteVolume@GostCrypt@@PAX@std@@@1@PAUFavoriteVolume@GostCrypt@@ABU34@@Z
  0000a	64 a1 00 00 00
	00		 mov	 eax, DWORD PTR fs:0
  00010	50		 push	 eax
  00011	51		 push	 ecx
  00012	a1 00 00 00 00	 mov	 eax, DWORD PTR ___security_cookie
  00017	33 c5		 xor	 eax, ebp
  00019	50		 push	 eax
  0001a	8d 45 f4	 lea	 eax, DWORD PTR __$EHRec$[ebp]
  0001d	64 a3 00 00 00
	00		 mov	 DWORD PTR fs:0, eax

; 857  : 		_Al.construct(_Ptr, _STD forward<_Types>(_Args)...);

  00023	8b 4d 0c	 mov	 ecx, DWORD PTR __Ptr$[ebp]
  00026	89 4d f0	 mov	 DWORD PTR $T2[ebp], ecx
  00029	c7 45 fc 00 00
	00 00		 mov	 DWORD PTR __$EHRec$[ebp+8], 0
  00030	85 c9		 test	 ecx, ecx
  00032	74 08		 je	 SHORT $LN8@construct
  00034	ff 75 10	 push	 DWORD PTR _<_Args_0>$[ebp]
  00037	e8 00 00 00 00	 call	 ??0FavoriteVolume@GostCrypt@@QAE@ABU01@@Z
$LN8@construct:

; 858  : 		}

  0003c	8b 4d f4	 mov	 ecx, DWORD PTR __$EHRec$[ebp]
  0003f	64 89 0d 00 00
	00 00		 mov	 DWORD PTR fs:0, ecx
  00046	59		 pop	 ecx
  00047	8b e5		 mov	 esp, ebp
  00049	5d		 pop	 ebp
  0004a	c3		 ret	 0
_TEXT	ENDS
;	COMDAT text$x
text$x	SEGMENT
__unwindfunclet$??$construct@UFavoriteVolume@GostCrypt@@ABU12@@?$allocator_traits@V?$allocator@U?$_List_node@UFavoriteVolume@GostCrypt@@PAX@std@@@std@@@std@@SAXAAV?$allocator@U?$_List_node@UFavoriteVolume@GostCrypt@@PAX@std@@@1@PAUFavoriteVolume@GostCrypt@@ABU34@@Z$1:
  00000	8b 45 0c	 mov	 eax, DWORD PTR __Ptr$[ebp]
  00003	50		 push	 eax
  00004	8b 45 f0	 mov	 eax, DWORD PTR $T2[ebp]
  00007	50		 push	 eax
  00008	e8 00 00 00 00	 call	 ??3@YAXPAX0@Z		; operator delete
  0000d	83 c4 08	 add	 esp, 8
  00010	c3		 ret	 0
__ehhandler$??$construct@UFavoriteVolume@GostCrypt@@ABU12@@?$allocator_traits@V?$allocator@U?$_List_node@UFavoriteVolume@GostCrypt@@PAX@std@@@std@@@std@@SAXAAV?$allocator@U?$_List_node@UFavoriteVolume@GostCrypt@@PAX@std@@@1@PAUFavoriteVolume@GostCrypt@@ABU34@@Z:
  00011	8b 54 24 08	 mov	 edx, DWORD PTR [esp+8]
  00015	8d 42 0c	 lea	 eax, DWORD PTR [edx+12]
  00018	8b 4a f8	 mov	 ecx, DWORD PTR [edx-8]
  0001b	33 c8		 xor	 ecx, eax
  0001d	e8 00 00 00 00	 call	 @__security_check_cookie@4
  00022	b8 00 00 00 00	 mov	 eax, OFFSET __ehfuncinfo$??$construct@UFavoriteVolume@GostCrypt@@ABU12@@?$allocator_traits@V?$allocator@U?$_List_node@UFavoriteVolume@GostCrypt@@PAX@std@@@std@@@std@@SAXAAV?$allocator@U?$_List_node@UFavoriteVolume@GostCrypt@@PAX@std@@@1@PAUFavoriteVolume@GostCrypt@@ABU34@@Z
  00027	e9 00 00 00 00	 jmp	 ___CxxFrameHandler3
text$x	ENDS
??$construct@UFavoriteVolume@GostCrypt@@ABU12@@?$allocator_traits@V?$allocator@U?$_List_node@UFavoriteVolume@GostCrypt@@PAX@std@@@std@@@std@@SAXAAV?$allocator@U?$_List_node@UFavoriteVolume@GostCrypt@@PAX@std@@@1@PAUFavoriteVolume@GostCrypt@@ABU34@@Z ENDP ; std::allocator_traits<std::allocator<std::_List_node<GostCrypt::FavoriteVolume,void *> > >::construct<GostCrypt::FavoriteVolume,GostCrypt::FavoriteVolume const &>
; Function compile flags: /Ogtp
; File c:\program files (x86)\microsoft visual studio 14.0\vc\include\type_traits
;	COMDAT ??$forward@V?$allocator@UFavoriteVolume@GostCrypt@@@std@@@std@@YA$$QAV?$allocator@UFavoriteVolume@GostCrypt@@@0@AAV10@@Z
_TEXT	SEGMENT
__Arg$ = 8						; size = 4
??$forward@V?$allocator@UFavoriteVolume@GostCrypt@@@std@@@std@@YA$$QAV?$allocator@UFavoriteVolume@GostCrypt@@@0@AAV10@@Z PROC ; std::forward<std::allocator<GostCrypt::FavoriteVolume> >, COMDAT

; 1275 : 	{	// forward an lvalue as either an lvalue or an rvalue

  00000	55		 push	 ebp
  00001	8b ec		 mov	 ebp, esp

; 1276 : 	return (static_cast<_Ty&&>(_Arg));

  00003	8b 45 08	 mov	 eax, DWORD PTR __Arg$[ebp]

; 1277 : 	}

  00006	5d		 pop	 ebp
  00007	c3		 ret	 0
??$forward@V?$allocator@UFavoriteVolume@GostCrypt@@@std@@@std@@YA$$QAV?$allocator@UFavoriteVolume@GostCrypt@@@0@AAV10@@Z ENDP ; std::forward<std::allocator<GostCrypt::FavoriteVolume> >
_TEXT	ENDS
; Function compile flags: /Ogtp
; File c:\program files (x86)\microsoft visual studio 14.0\vc\include\type_traits
;	COMDAT ??$forward@V?$allocator@U?$_List_node@UFavoriteVolume@GostCrypt@@PAX@std@@@std@@@std@@YA$$QAV?$allocator@U?$_List_node@UFavoriteVolume@GostCrypt@@PAX@std@@@0@AAV10@@Z
_TEXT	SEGMENT
__Arg$ = 8						; size = 4
??$forward@V?$allocator@U?$_List_node@UFavoriteVolume@GostCrypt@@PAX@std@@@std@@@std@@YA$$QAV?$allocator@U?$_List_node@UFavoriteVolume@GostCrypt@@PAX@std@@@0@AAV10@@Z PROC ; std::forward<std::allocator<std::_List_node<GostCrypt::FavoriteVolume,void *> > >, COMDAT

; 1275 : 	{	// forward an lvalue as either an lvalue or an rvalue

  00000	55		 push	 ebp
  00001	8b ec		 mov	 ebp, esp

; 1276 : 	return (static_cast<_Ty&&>(_Arg));

  00003	8b 45 08	 mov	 eax, DWORD PTR __Arg$[ebp]

; 1277 : 	}

  00006	5d		 pop	 ebp
  00007	c3		 ret	 0
??$forward@V?$allocator@U?$_List_node@UFavoriteVolume@GostCrypt@@PAX@std@@@std@@@std@@YA$$QAV?$allocator@U?$_List_node@UFavoriteVolume@GostCrypt@@PAX@std@@@0@AAV10@@Z ENDP ; std::forward<std::allocator<std::_List_node<GostCrypt::FavoriteVolume,void *> > >
_TEXT	ENDS
; Function compile flags: /Ogtp
; File c:\program files (x86)\microsoft visual studio 14.0\vc\include\xmemory
;	COMDAT ??$_Uninitialized_copy@V?$_Vector_const_iterator@V?$_Vector_val@U?$_Simple_types@UFavoriteVolume@GostCrypt@@@std@@@std@@@std@@PAUFavoriteVolume@GostCrypt@@V?$allocator@UFavoriteVolume@GostCrypt@@@2@@std@@YAPAUFavoriteVolume@GostCrypt@@V?$_Vector_const_iterator@V?$_Vector_val@U?$_Simple_types@UFavoriteVolume@GostCrypt@@@std@@@std@@@0@0PAU12@AAU?$_Wrap_alloc@V?$allocator@UFavoriteVolume@GostCrypt@@@std@@@0@@Z
_TEXT	SEGMENT
$T1 = -4						; size = 1
__First$ = 8						; size = 4
__Last$ = 12						; size = 4
__Dest$ = 16						; size = 4
__Al$ = 20						; size = 4
??$_Uninitialized_copy@V?$_Vector_const_iterator@V?$_Vector_val@U?$_Simple_types@UFavoriteVolume@GostCrypt@@@std@@@std@@@std@@PAUFavoriteVolume@GostCrypt@@V?$allocator@UFavoriteVolume@GostCrypt@@@2@@std@@YAPAUFavoriteVolume@GostCrypt@@V?$_Vector_const_iterator@V?$_Vector_val@U?$_Simple_types@UFavoriteVolume@GostCrypt@@@std@@@std@@@0@0PAU12@AAU?$_Wrap_alloc@V?$allocator@UFavoriteVolume@GostCrypt@@@std@@@0@@Z PROC ; std::_Uninitialized_copy<std::_Vector_const_iterator<std::_Vector_val<std::_Simple_types<GostCrypt::FavoriteVolume> > >,GostCrypt::FavoriteVolume *,std::allocator<GostCrypt::FavoriteVolume> >, COMDAT

; 259  : 	{	// copy [_First, _Last) to raw _Dest, using _Al

  00000	55		 push	 ebp
  00001	8b ec		 mov	 ebp, esp
  00003	83 ec 08	 sub	 esp, 8

; 260  : 		// note: only called internally from elsewhere in the STL, debug checks
; 261  : 		// and deprecation warnings omitted
; 262  : 	return (_Rechecked(_Dest,

  00006	51		 push	 ecx
  00007	c6 45 fc 00	 mov	 BYTE PTR $T1[ebp], 0
  0000b	ff 75 fc	 push	 DWORD PTR $T1[ebp]
  0000e	ff 75 14	 push	 DWORD PTR __Al$[ebp]
  00011	ff 75 10	 push	 DWORD PTR __Dest$[ebp]
  00014	ff 75 0c	 push	 DWORD PTR __Last$[ebp]
  00017	ff 75 08	 push	 DWORD PTR __First$[ebp]
  0001a	e8 00 00 00 00	 call	 ??$_Uninitialized_copy_al_unchecked1@PBUFavoriteVolume@GostCrypt@@PAU12@V?$allocator@UFavoriteVolume@GostCrypt@@@std@@@std@@YAPAUFavoriteVolume@GostCrypt@@PBU12@0PAU12@AAU?$_Wrap_alloc@V?$allocator@UFavoriteVolume@GostCrypt@@@std@@@0@U_General_ptr_iterator_tag@0@U_Any_tag@0@@Z ; std::_Uninitialized_copy_al_unchecked1<GostCrypt::FavoriteVolume const *,GostCrypt::FavoriteVolume *,std::allocator<GostCrypt::FavoriteVolume> >
  0001f	83 c4 18	 add	 esp, 24			; 00000018H

; 263  : 		_Uninitialized_copy_al_unchecked(_Unchecked(_First), _Unchecked(_Last),
; 264  : 			_Unchecked(_Dest), _Al)));
; 265  : 	}

  00022	8b e5		 mov	 esp, ebp
  00024	5d		 pop	 ebp
  00025	c3		 ret	 0
??$_Uninitialized_copy@V?$_Vector_const_iterator@V?$_Vector_val@U?$_Simple_types@UFavoriteVolume@GostCrypt@@@std@@@std@@@std@@PAUFavoriteVolume@GostCrypt@@V?$allocator@UFavoriteVolume@GostCrypt@@@2@@std@@YAPAUFavoriteVolume@GostCrypt@@V?$_Vector_const_iterator@V?$_Vector_val@U?$_Simple_types@UFavoriteVolume@GostCrypt@@@std@@@std@@@0@0PAU12@AAU?$_Wrap_alloc@V?$allocator@UFavoriteVolume@GostCrypt@@@std@@@0@@Z ENDP ; std::_Uninitialized_copy<std::_Vector_const_iterator<std::_Vector_val<std::_Simple_types<GostCrypt::FavoriteVolume> > >,GostCrypt::FavoriteVolume *,std::allocator<GostCrypt::FavoriteVolume> >
_TEXT	ENDS
; Function compile flags: /Ogtp
; File c:\program files (x86)\microsoft visual studio 14.0\vc\include\xutility
;	COMDAT ??$?0U?$_Wrap_alloc@V?$allocator@UFavoriteVolume@GostCrypt@@@std@@@std@@$$V@?$_Compressed_pair@U?$_Wrap_alloc@V?$allocator@UFavoriteVolume@GostCrypt@@@std@@@std@@V?$_Vector_val@U?$_Simple_types@UFavoriteVolume@GostCrypt@@@std@@@2@$00@std@@QAE@U_One_then_variadic_args_t@1@$$QAU?$_Wrap_alloc@V?$allocator@UFavoriteVolume@GostCrypt@@@std@@@1@@Z
_TEXT	SEGMENT
___formal$ = 8						; size = 1
__Val1$ = 12						; size = 4
??$?0U?$_Wrap_alloc@V?$allocator@UFavoriteVolume@GostCrypt@@@std@@@std@@$$V@?$_Compressed_pair@U?$_Wrap_alloc@V?$allocator@UFavoriteVolume@GostCrypt@@@std@@@std@@V?$_Vector_val@U?$_Simple_types@UFavoriteVolume@GostCrypt@@@std@@@2@$00@std@@QAE@U_One_then_variadic_args_t@1@$$QAU?$_Wrap_alloc@V?$allocator@UFavoriteVolume@GostCrypt@@@std@@@1@@Z PROC ; std::_Compressed_pair<std::_Wrap_alloc<std::allocator<GostCrypt::FavoriteVolume> >,std::_Vector_val<std::_Simple_types<GostCrypt::FavoriteVolume> >,1>::_Compressed_pair<std::_Wrap_alloc<std::allocator<GostCrypt::FavoriteVolume> >,std::_Vector_val<std::_Simple_types<GostCrypt::FavoriteVolume> >,1><std::_Wrap_alloc<std::allocator<GostCrypt::FavoriteVolume> > >, COMDAT
; _this$ = ecx

; 288  : 			_Myval2(_STD forward<_Other2>(_Val2)...)

  00000	c7 01 00 00 00
	00		 mov	 DWORD PTR [ecx], 0

; 290  : 		}

  00006	8b c1		 mov	 eax, ecx
  00008	c7 41 04 00 00
	00 00		 mov	 DWORD PTR [ecx+4], 0
  0000f	c7 41 08 00 00
	00 00		 mov	 DWORD PTR [ecx+8], 0
  00016	c2 08 00	 ret	 8
??$?0U?$_Wrap_alloc@V?$allocator@UFavoriteVolume@GostCrypt@@@std@@@std@@$$V@?$_Compressed_pair@U?$_Wrap_alloc@V?$allocator@UFavoriteVolume@GostCrypt@@@std@@@std@@V?$_Vector_val@U?$_Simple_types@UFavoriteVolume@GostCrypt@@@std@@@2@$00@std@@QAE@U_One_then_variadic_args_t@1@$$QAU?$_Wrap_alloc@V?$allocator@UFavoriteVolume@GostCrypt@@@std@@@1@@Z ENDP ; std::_Compressed_pair<std::_Wrap_alloc<std::allocator<GostCrypt::FavoriteVolume> >,std::_Vector_val<std::_Simple_types<GostCrypt::FavoriteVolume> >,1>::_Compressed_pair<std::_Wrap_alloc<std::allocator<GostCrypt::FavoriteVolume> >,std::_Vector_val<std::_Simple_types<GostCrypt::FavoriteVolume> >,1><std::_Wrap_alloc<std::allocator<GostCrypt::FavoriteVolume> > >
_TEXT	ENDS
; Function compile flags: /Ogtp
; File c:\program files (x86)\microsoft visual studio 14.0\vc\include\type_traits
;	COMDAT ??$forward@U?$_Wrap_alloc@V?$allocator@UFavoriteVolume@GostCrypt@@@std@@@std@@@std@@YA$$QAU?$_Wrap_alloc@V?$allocator@UFavoriteVolume@GostCrypt@@@std@@@0@AAU10@@Z
_TEXT	SEGMENT
__Arg$ = 8						; size = 4
??$forward@U?$_Wrap_alloc@V?$allocator@UFavoriteVolume@GostCrypt@@@std@@@std@@@std@@YA$$QAU?$_Wrap_alloc@V?$allocator@UFavoriteVolume@GostCrypt@@@std@@@0@AAU10@@Z PROC ; std::forward<std::_Wrap_alloc<std::allocator<GostCrypt::FavoriteVolume> > >, COMDAT

; 1275 : 	{	// forward an lvalue as either an lvalue or an rvalue

  00000	55		 push	 ebp
  00001	8b ec		 mov	 ebp, esp

; 1276 : 	return (static_cast<_Ty&&>(_Arg));

  00003	8b 45 08	 mov	 eax, DWORD PTR __Arg$[ebp]

; 1277 : 	}

  00006	5d		 pop	 ebp
  00007	c3		 ret	 0
??$forward@U?$_Wrap_alloc@V?$allocator@UFavoriteVolume@GostCrypt@@@std@@@std@@@std@@YA$$QAU?$_Wrap_alloc@V?$allocator@UFavoriteVolume@GostCrypt@@@std@@@0@AAU10@@Z ENDP ; std::forward<std::_Wrap_alloc<std::allocator<GostCrypt::FavoriteVolume> > >
_TEXT	ENDS
; Function compile flags: /Ogtp
; File c:\program files (x86)\microsoft visual studio 14.0\vc\include\list
;	COMDAT ??$_Insert_range@V?$_List_const_iterator@V?$_List_val@U?$_List_simple_types@UFavoriteVolume@GostCrypt@@@std@@@std@@@std@@@?$list@UFavoriteVolume@GostCrypt@@V?$allocator@UFavoriteVolume@GostCrypt@@@std@@@std@@QAEXV?$_List_unchecked_const_iterator@V?$_List_val@U?$_List_simple_types@UFavoriteVolume@GostCrypt@@@std@@@std@@U_Iterator_base0@2@@1@V?$_List_const_iterator@V?$_List_val@U?$_List_simple_types@UFavoriteVolume@GostCrypt@@@std@@@std@@@1@1Uforward_iterator_tag@1@@Z
_TEXT	SEGMENT
_this$ = -24						; size = 4
__Next$ = -20						; size = 4
__$EHRec$ = -16						; size = 16
__Where$ = 8						; size = 4
__First$ = 12						; size = 4
__Last$ = 16						; size = 4
___formal$ = 20						; size = 1
??$_Insert_range@V?$_List_const_iterator@V?$_List_val@U?$_List_simple_types@UFavoriteVolume@GostCrypt@@@std@@@std@@@std@@@?$list@UFavoriteVolume@GostCrypt@@V?$allocator@UFavoriteVolume@GostCrypt@@@std@@@std@@QAEXV?$_List_unchecked_const_iterator@V?$_List_val@U?$_List_simple_types@UFavoriteVolume@GostCrypt@@@std@@@std@@U_Iterator_base0@2@@1@V?$_List_const_iterator@V?$_List_val@U?$_List_simple_types@UFavoriteVolume@GostCrypt@@@std@@@std@@@1@1Uforward_iterator_tag@1@@Z PROC ; std::list<GostCrypt::FavoriteVolume,std::allocator<GostCrypt::FavoriteVolume> >::_Insert_range<std::_List_const_iterator<std::_List_val<std::_List_simple_types<GostCrypt::FavoriteVolume> > > >, COMDAT
; _this$ = ecx

; 1426 : 		{	// insert [_First, _Last) at _Where, forward iterators

  00000	55		 push	 ebp
  00001	8b ec		 mov	 ebp, esp
  00003	6a ff		 push	 -1
  00005	68 00 00 00 00	 push	 __ehhandler$??$_Insert_range@V?$_List_const_iterator@V?$_List_val@U?$_List_simple_types@UFavoriteVolume@GostCrypt@@@std@@@std@@@std@@@?$list@UFavoriteVolume@GostCrypt@@V?$allocator@UFavoriteVolume@GostCrypt@@@std@@@std@@QAEXV?$_List_unchecked_const_iterator@V?$_List_val@U?$_List_simple_types@UFavoriteVolume@GostCrypt@@@std@@@std@@U_Iterator_base0@2@@1@V?$_List_const_iterator@V?$_List_val@U?$_List_simple_types@UFavoriteVolume@GostCrypt@@@std@@@std@@@1@1Uforward_iterator_tag@1@@Z
  0000a	64 a1 00 00 00
	00		 mov	 eax, DWORD PTR fs:0
  00010	50		 push	 eax
  00011	83 ec 0c	 sub	 esp, 12			; 0000000cH
  00014	53		 push	 ebx
  00015	56		 push	 esi
  00016	57		 push	 edi
  00017	a1 00 00 00 00	 mov	 eax, DWORD PTR ___security_cookie
  0001c	33 c5		 xor	 eax, ebp
  0001e	50		 push	 eax
  0001f	8d 45 f4	 lea	 eax, DWORD PTR __$EHRec$[ebp+4]
  00022	64 a3 00 00 00
	00		 mov	 DWORD PTR fs:0, eax
  00028	89 65 f0	 mov	 DWORD PTR __$EHRec$[ebp], esp
  0002b	8b f9		 mov	 edi, ecx
  0002d	89 7d e8	 mov	 DWORD PTR _this$[ebp], edi

; 1427 : 		_DEBUG_RANGE(_First, _Last);
; 1428 : 		_Iter _Next = _First;

  00030	8b 45 0c	 mov	 eax, DWORD PTR __First$[ebp]
  00033	89 45 ec	 mov	 DWORD PTR __Next$[ebp], eax

; 1429 : 
; 1430 : 		_TRY_BEGIN

  00036	c7 45 fc 00 00
	00 00		 mov	 DWORD PTR __$EHRec$[ebp+12], 0
  0003d	0f 1f 00	 npad	 3
$LL4@Insert_ran:

; 1431 : 		for (; _First != _Last; ++_First)

  00040	3b 45 10	 cmp	 eax, DWORD PTR __Last$[ebp]
  00043	74 6b		 je	 SHORT $LN3@Insert_ran

; 1432 : 			_Insert(_Where, *_First);

  00045	8b 75 08	 mov	 esi, DWORD PTR __Where$[ebp]
  00048	83 c0 08	 add	 eax, 8
  0004b	50		 push	 eax
  0004c	8b cf		 mov	 ecx, edi
  0004e	ff 76 04	 push	 DWORD PTR [esi+4]
  00051	56		 push	 esi
  00052	e8 00 00 00 00	 call	 ??$_Buynode@ABUFavoriteVolume@GostCrypt@@@?$_List_buy@UFavoriteVolume@GostCrypt@@V?$allocator@UFavoriteVolume@GostCrypt@@@std@@@std@@QAEPAU?$_List_node@UFavoriteVolume@GostCrypt@@PAX@1@PAU21@0ABUFavoriteVolume@GostCrypt@@@Z ; std::_List_buy<GostCrypt::FavoriteVolume,std::allocator<GostCrypt::FavoriteVolume> >::_Buynode<GostCrypt::FavoriteVolume const &>
  00057	8b d0		 mov	 edx, eax
  00059	b9 91 24 49 02	 mov	 ecx, 38347921		; 02492491H
  0005e	8b 47 04	 mov	 eax, DWORD PTR [edi+4]
  00061	2b c8		 sub	 ecx, eax
  00063	83 f9 01	 cmp	 ecx, 1
  00066	73 0a		 jae	 SHORT $LN38@Insert_ran
  00068	68 00 00 00 00	 push	 OFFSET ??_C@_0BB@MOGOBHAF@list?$DMT?$DO?5too?5long?$AA@
  0006d	e8 00 00 00 00	 call	 ?_Xlength_error@std@@YAXPBD@Z ; std::_Xlength_error
$LN111@Insert_ran:
$LN38@Insert_ran:
  00072	40		 inc	 eax
  00073	89 47 04	 mov	 DWORD PTR [edi+4], eax
  00076	89 56 04	 mov	 DWORD PTR [esi+4], edx
  00079	8b 42 04	 mov	 eax, DWORD PTR [edx+4]
  0007c	89 10		 mov	 DWORD PTR [eax], edx
  0007e	8b 45 0c	 mov	 eax, DWORD PTR __First$[ebp]
  00081	8b 00		 mov	 eax, DWORD PTR [eax]
  00083	89 45 0c	 mov	 DWORD PTR __First$[ebp], eax
  00086	eb b8		 jmp	 SHORT $LL4@Insert_ran
__catch$??$_Insert_range@V?$_List_const_iterator@V?$_List_val@U?$_List_simple_types@UFavoriteVolume@GostCrypt@@@std@@@std@@@std@@@?$list@UFavoriteVolume@GostCrypt@@V?$allocator@UFavoriteVolume@GostCrypt@@@std@@@std@@QAEXV?$_List_unchecked_const_iterator@V?$_List_val@U?$_List_simple_types@UFavoriteVolume@GostCrypt@@@std@@@std@@U_Iterator_base0@2@@1@V?$_List_const_iterator@V?$_List_val@U?$_List_simple_types@UFavoriteVolume@GostCrypt@@@std@@@std@@@1@1Uforward_iterator_tag@1@@Z$0:

; 1433 : 		_CATCH_ALL
; 1434 : 		for (; _Next != _First; ++_Next)

  00088	8b 75 ec	 mov	 esi, DWORD PTR __Next$[ebp]
  0008b	3b 75 0c	 cmp	 esi, DWORD PTR __First$[ebp]
  0008e	74 17		 je	 SHORT $LN6@Insert_ran
  00090	8b 7d e8	 mov	 edi, DWORD PTR _this$[ebp]
$LL7@Insert_ran:

; 1435 : 			{	// undo inserts
; 1436 : 			_Unchecked_const_iterator _Before = _Where;
; 1437 : 			_Unchecked_erase(--_Before);

  00093	8b 45 08	 mov	 eax, DWORD PTR __Where$[ebp]
  00096	8b cf		 mov	 ecx, edi
  00098	ff 70 04	 push	 DWORD PTR [eax+4]
  0009b	e8 00 00 00 00	 call	 ?_Unchecked_erase@?$list@UFavoriteVolume@GostCrypt@@V?$allocator@UFavoriteVolume@GostCrypt@@@std@@@std@@QAEXV?$_List_unchecked_const_iterator@V?$_List_val@U?$_List_simple_types@UFavoriteVolume@GostCrypt@@@std@@@std@@U_Iterator_base0@2@@2@@Z ; std::list<GostCrypt::FavoriteVolume,std::allocator<GostCrypt::FavoriteVolume> >::_Unchecked_erase
  000a0	8b 36		 mov	 esi, DWORD PTR [esi]
  000a2	3b 75 0c	 cmp	 esi, DWORD PTR __First$[ebp]
  000a5	75 ec		 jne	 SHORT $LL7@Insert_ran
$LN6@Insert_ran:

; 1438 : 			}
; 1439 : 		_RERAISE;

  000a7	6a 00		 push	 0
  000a9	6a 00		 push	 0
  000ab	e8 00 00 00 00	 call	 __CxxThrowException@8
$LN112@Insert_ran:
$LN3@Insert_ran:

; 1440 : 		_CATCH_END
; 1441 : 		}

  000b0	8b 4d f4	 mov	 ecx, DWORD PTR __$EHRec$[ebp+4]
  000b3	64 89 0d 00 00
	00 00		 mov	 DWORD PTR fs:0, ecx
  000ba	59		 pop	 ecx
  000bb	5f		 pop	 edi
  000bc	5e		 pop	 esi
  000bd	5b		 pop	 ebx
  000be	8b e5		 mov	 esp, ebp
  000c0	5d		 pop	 ebp
  000c1	c2 10 00	 ret	 16			; 00000010H
$LN110@Insert_ran:
_TEXT	ENDS
;	COMDAT text$x
text$x	SEGMENT
__ehhandler$??$_Insert_range@V?$_List_const_iterator@V?$_List_val@U?$_List_simple_types@UFavoriteVolume@GostCrypt@@@std@@@std@@@std@@@?$list@UFavoriteVolume@GostCrypt@@V?$allocator@UFavoriteVolume@GostCrypt@@@std@@@std@@QAEXV?$_List_unchecked_const_iterator@V?$_List_val@U?$_List_simple_types@UFavoriteVolume@GostCrypt@@@std@@@std@@U_Iterator_base0@2@@1@V?$_List_const_iterator@V?$_List_val@U?$_List_simple_types@UFavoriteVolume@GostCrypt@@@std@@@std@@@1@1Uforward_iterator_tag@1@@Z:
  00000	8b 54 24 08	 mov	 edx, DWORD PTR [esp+8]
  00004	8d 42 0c	 lea	 eax, DWORD PTR [edx+12]
  00007	8b 4a e4	 mov	 ecx, DWORD PTR [edx-28]
  0000a	33 c8		 xor	 ecx, eax
  0000c	e8 00 00 00 00	 call	 @__security_check_cookie@4
  00011	b8 00 00 00 00	 mov	 eax, OFFSET __ehfuncinfo$??$_Insert_range@V?$_List_const_iterator@V?$_List_val@U?$_List_simple_types@UFavoriteVolume@GostCrypt@@@std@@@std@@@std@@@?$list@UFavoriteVolume@GostCrypt@@V?$allocator@UFavoriteVolume@GostCrypt@@@std@@@std@@QAEXV?$_List_unchecked_const_iterator@V?$_List_val@U?$_List_simple_types@UFavoriteVolume@GostCrypt@@@std@@@std@@U_Iterator_base0@2@@1@V?$_List_const_iterator@V?$_List_val@U?$_List_simple_types@UFavoriteVolume@GostCrypt@@@std@@@std@@@1@1Uforward_iterator_tag@1@@Z
  00016	e9 00 00 00 00	 jmp	 ___CxxFrameHandler3
text$x	ENDS
??$_Insert_range@V?$_List_const_iterator@V?$_List_val@U?$_List_simple_types@UFavoriteVolume@GostCrypt@@@std@@@std@@@std@@@?$list@UFavoriteVolume@GostCrypt@@V?$allocator@UFavoriteVolume@GostCrypt@@@std@@@std@@QAEXV?$_List_unchecked_const_iterator@V?$_List_val@U?$_List_simple_types@UFavoriteVolume@GostCrypt@@@std@@@std@@U_Iterator_base0@2@@1@V?$_List_const_iterator@V?$_List_val@U?$_List_simple_types@UFavoriteVolume@GostCrypt@@@std@@@std@@@1@1Uforward_iterator_tag@1@@Z ENDP ; std::list<GostCrypt::FavoriteVolume,std::allocator<GostCrypt::FavoriteVolume> >::_Insert_range<std::_List_const_iterator<std::_List_val<std::_List_simple_types<GostCrypt::FavoriteVolume> > > >
; Function compile flags: /Ogtp
; File c:\program files (x86)\microsoft visual studio 14.0\vc\include\list
;	COMDAT ??$?0U?$_Wrap_alloc@V?$allocator@U?$_List_node@UFavoriteVolume@GostCrypt@@PAX@std@@@std@@@std@@X@?$_List_alloc@U?$_List_base_types@UFavoriteVolume@GostCrypt@@V?$allocator@UFavoriteVolume@GostCrypt@@@std@@@std@@@std@@QAE@$$QAU?$_Wrap_alloc@V?$allocator@U?$_List_node@UFavoriteVolume@GostCrypt@@PAX@std@@@std@@@1@@Z
_TEXT	SEGMENT
__Al$ = 8						; size = 4
??$?0U?$_Wrap_alloc@V?$allocator@U?$_List_node@UFavoriteVolume@GostCrypt@@PAX@std@@@std@@@std@@X@?$_List_alloc@U?$_List_base_types@UFavoriteVolume@GostCrypt@@V?$allocator@UFavoriteVolume@GostCrypt@@@std@@@std@@@std@@QAE@$$QAU?$_Wrap_alloc@V?$allocator@U?$_List_node@UFavoriteVolume@GostCrypt@@PAX@std@@@std@@@1@@Z PROC ; std::_List_alloc<std::_List_base_types<GostCrypt::FavoriteVolume,std::allocator<GostCrypt::FavoriteVolume> > >::_List_alloc<std::_List_base_types<GostCrypt::FavoriteVolume,std::allocator<GostCrypt::FavoriteVolume> > ><std::_Wrap_alloc<std::allocator<std::_List_node<GostCrypt::FavoriteVolume,void *> > >,void>, COMDAT
; _this$ = ecx

; 611  : 		{	// construct head node, allocator from _Al

  00000	56		 push	 esi
  00001	8b f1		 mov	 esi, ecx

; 612  : 		_Myhead() = _Buyheadnode();

  00003	6a 00		 push	 0
  00005	6a 00		 push	 0
  00007	c7 06 00 00 00
	00		 mov	 DWORD PTR [esi], 0
  0000d	c7 46 04 00 00
	00 00		 mov	 DWORD PTR [esi+4], 0
  00014	e8 00 00 00 00	 call	 ?_Buynode0@?$_List_alloc@U?$_List_base_types@UFavoriteVolume@GostCrypt@@V?$allocator@UFavoriteVolume@GostCrypt@@@std@@@std@@@std@@QAEPAU?$_List_node@UFavoriteVolume@GostCrypt@@PAX@2@PAU32@0@Z ; std::_List_alloc<std::_List_base_types<GostCrypt::FavoriteVolume,std::allocator<GostCrypt::FavoriteVolume> > >::_Buynode0
  00019	89 06		 mov	 DWORD PTR [esi], eax

; 613  : 		}

  0001b	8b c6		 mov	 eax, esi
  0001d	5e		 pop	 esi
  0001e	c2 04 00	 ret	 4
??$?0U?$_Wrap_alloc@V?$allocator@U?$_List_node@UFavoriteVolume@GostCrypt@@PAX@std@@@std@@@std@@X@?$_List_alloc@U?$_List_base_types@UFavoriteVolume@GostCrypt@@V?$allocator@UFavoriteVolume@GostCrypt@@@std@@@std@@@std@@QAE@$$QAU?$_Wrap_alloc@V?$allocator@U?$_List_node@UFavoriteVolume@GostCrypt@@PAX@std@@@std@@@1@@Z ENDP ; std::_List_alloc<std::_List_base_types<GostCrypt::FavoriteVolume,std::allocator<GostCrypt::FavoriteVolume> > >::_List_alloc<std::_List_base_types<GostCrypt::FavoriteVolume,std::allocator<GostCrypt::FavoriteVolume> > ><std::_Wrap_alloc<std::allocator<std::_List_node<GostCrypt::FavoriteVolume,void *> > >,void>
_TEXT	ENDS
; Function compile flags: /Ogtp
; File c:\program files (x86)\microsoft visual studio 14.0\vc\include\type_traits
;	COMDAT ??$forward@U?$_Wrap_alloc@V?$allocator@U?$_List_node@UFavoriteVolume@GostCrypt@@PAX@std@@@std@@@std@@@std@@YA$$QAU?$_Wrap_alloc@V?$allocator@U?$_List_node@UFavoriteVolume@GostCrypt@@PAX@std@@@std@@@0@AAU10@@Z
_TEXT	SEGMENT
__Arg$ = 8						; size = 4
??$forward@U?$_Wrap_alloc@V?$allocator@U?$_List_node@UFavoriteVolume@GostCrypt@@PAX@std@@@std@@@std@@@std@@YA$$QAU?$_Wrap_alloc@V?$allocator@U?$_List_node@UFavoriteVolume@GostCrypt@@PAX@std@@@std@@@0@AAU10@@Z PROC ; std::forward<std::_Wrap_alloc<std::allocator<std::_List_node<GostCrypt::FavoriteVolume,void *> > > >, COMDAT

; 1275 : 	{	// forward an lvalue as either an lvalue or an rvalue

  00000	55		 push	 ebp
  00001	8b ec		 mov	 ebp, esp

; 1276 : 	return (static_cast<_Ty&&>(_Arg));

  00003	8b 45 08	 mov	 eax, DWORD PTR __Arg$[ebp]

; 1277 : 	}

  00006	5d		 pop	 ebp
  00007	c3		 ret	 0
??$forward@U?$_Wrap_alloc@V?$allocator@U?$_List_node@UFavoriteVolume@GostCrypt@@PAX@std@@@std@@@std@@@std@@YA$$QAU?$_Wrap_alloc@V?$allocator@U?$_List_node@UFavoriteVolume@GostCrypt@@PAX@std@@@std@@@0@AAU10@@Z ENDP ; std::forward<std::_Wrap_alloc<std::allocator<std::_List_node<GostCrypt::FavoriteVolume,void *> > > >
_TEXT	ENDS
; Function compile flags: /Ogtp
; File c:\program files (x86)\microsoft visual studio 14.0\vc\include\xmemory0
;	COMDAT ??$construct@PAU?$_List_node@UFavoriteVolume@GostCrypt@@PAX@std@@AAPAU12@@?$allocator@U?$_List_node@UFavoriteVolume@GostCrypt@@PAX@std@@@std@@QAEXPAPAU?$_List_node@UFavoriteVolume@GostCrypt@@PAX@1@AAPAU21@@Z
_TEXT	SEGMENT
__Ptr$ = 8						; size = 4
_<_Args_0>$ = 12					; size = 4
??$construct@PAU?$_List_node@UFavoriteVolume@GostCrypt@@PAX@std@@AAPAU12@@?$allocator@U?$_List_node@UFavoriteVolume@GostCrypt@@PAX@std@@@std@@QAEXPAPAU?$_List_node@UFavoriteVolume@GostCrypt@@PAX@1@AAPAU21@@Z PROC ; std::allocator<std::_List_node<GostCrypt::FavoriteVolume,void *> >::construct<std::_List_node<GostCrypt::FavoriteVolume,void *> *,std::_List_node<GostCrypt::FavoriteVolume,void *> * &>, COMDAT
; _this$ = ecx

; 736  : 		{	// construct _Objty(_Types...) at _Ptr

  00000	55		 push	 ebp
  00001	8b ec		 mov	 ebp, esp

; 737  : 		::new ((void *)_Ptr) _Objty(_STD forward<_Types>(_Args)...);

  00003	8b 4d 08	 mov	 ecx, DWORD PTR __Ptr$[ebp]
  00006	85 c9		 test	 ecx, ecx
  00008	74 07		 je	 SHORT $LN3@construct
  0000a	8b 45 0c	 mov	 eax, DWORD PTR _<_Args_0>$[ebp]
  0000d	8b 00		 mov	 eax, DWORD PTR [eax]
  0000f	89 01		 mov	 DWORD PTR [ecx], eax
$LN3@construct:

; 738  : 		}

  00011	5d		 pop	 ebp
  00012	c2 08 00	 ret	 8
??$construct@PAU?$_List_node@UFavoriteVolume@GostCrypt@@PAX@std@@AAPAU12@@?$allocator@U?$_List_node@UFavoriteVolume@GostCrypt@@PAX@std@@@std@@QAEXPAPAU?$_List_node@UFavoriteVolume@GostCrypt@@PAX@1@AAPAU21@@Z ENDP ; std::allocator<std::_List_node<GostCrypt::FavoriteVolume,void *> >::construct<std::_List_node<GostCrypt::FavoriteVolume,void *> *,std::_List_node<GostCrypt::FavoriteVolume,void *> * &>
_TEXT	ENDS
; Function compile flags: /Ogtp
; File c:\program files (x86)\microsoft visual studio 14.0\vc\include\xmemory
;	COMDAT ??$_Uninitialized_move_al_unchecked@PAUFavoriteVolume@GostCrypt@@PAU12@V?$allocator@UFavoriteVolume@GostCrypt@@@std@@@std@@YAPAUFavoriteVolume@GostCrypt@@PAU12@00AAU?$_Wrap_alloc@V?$allocator@UFavoriteVolume@GostCrypt@@@std@@@0@@Z
_TEXT	SEGMENT
$T1 = -4						; size = 1
__First$ = 8						; size = 4
__Last$ = 12						; size = 4
__Dest$ = 16						; size = 4
__Al$ = 20						; size = 4
??$_Uninitialized_move_al_unchecked@PAUFavoriteVolume@GostCrypt@@PAU12@V?$allocator@UFavoriteVolume@GostCrypt@@@std@@@std@@YAPAUFavoriteVolume@GostCrypt@@PAU12@00AAU?$_Wrap_alloc@V?$allocator@UFavoriteVolume@GostCrypt@@@std@@@0@@Z PROC ; std::_Uninitialized_move_al_unchecked<GostCrypt::FavoriteVolume *,GostCrypt::FavoriteVolume *,std::allocator<GostCrypt::FavoriteVolume> >, COMDAT

; 301  : 	{	// move [_First, _Last) to raw _Dest, using _Al, choose optimization

  00000	55		 push	 ebp
  00001	8b ec		 mov	 ebp, esp
  00003	83 ec 08	 sub	 esp, 8

; 302  : 	typedef decltype(_STD move(*_First)) _Src_type; // TRANSITION MODULES VSO#222794
; 303  : 	return (_Uninitialized_move_al_unchecked1(_First, _Last, _Dest, _Al,

  00006	51		 push	 ecx
  00007	c6 45 fc 00	 mov	 BYTE PTR $T1[ebp], 0
  0000b	ff 75 fc	 push	 DWORD PTR $T1[ebp]
  0000e	ff 75 14	 push	 DWORD PTR __Al$[ebp]
  00011	ff 75 10	 push	 DWORD PTR __Dest$[ebp]
  00014	ff 75 0c	 push	 DWORD PTR __Last$[ebp]
  00017	ff 75 08	 push	 DWORD PTR __First$[ebp]
  0001a	e8 00 00 00 00	 call	 ??$_Uninitialized_move_al_unchecked1@PAUFavoriteVolume@GostCrypt@@PAU12@V?$allocator@UFavoriteVolume@GostCrypt@@@std@@@std@@YAPAUFavoriteVolume@GostCrypt@@PAU12@00AAU?$_Wrap_alloc@V?$allocator@UFavoriteVolume@GostCrypt@@@std@@@0@U_General_ptr_iterator_tag@0@U_Any_tag@0@@Z ; std::_Uninitialized_move_al_unchecked1<GostCrypt::FavoriteVolume *,GostCrypt::FavoriteVolume *,std::allocator<GostCrypt::FavoriteVolume> >
  0001f	83 c4 18	 add	 esp, 24			; 00000018H

; 304  : 		_Ptr_move_cat(_First, _Dest),
; 305  : 		_Uses_default_construct_t<_Alloc, decltype(_Unfancy(_Dest)), _Src_type>()));
; 306  : 	}

  00022	8b e5		 mov	 esp, ebp
  00024	5d		 pop	 ebp
  00025	c3		 ret	 0
??$_Uninitialized_move_al_unchecked@PAUFavoriteVolume@GostCrypt@@PAU12@V?$allocator@UFavoriteVolume@GostCrypt@@@std@@@std@@YAPAUFavoriteVolume@GostCrypt@@PAU12@00AAU?$_Wrap_alloc@V?$allocator@UFavoriteVolume@GostCrypt@@@std@@@0@@Z ENDP ; std::_Uninitialized_move_al_unchecked<GostCrypt::FavoriteVolume *,GostCrypt::FavoriteVolume *,std::allocator<GostCrypt::FavoriteVolume> >
_TEXT	ENDS
; Function compile flags: /Ogtp
; File c:\program files (x86)\microsoft visual studio 14.0\vc\include\xmemory0
;	COMDAT ??$?0ABV?$allocator@D@std@@@?$_Wrap_alloc@V?$allocator@D@std@@@std@@QAE@ABV?$allocator@D@1@@Z
_TEXT	SEGMENT
__Right$ = 8						; size = 4
??$?0ABV?$allocator@D@std@@@?$_Wrap_alloc@V?$allocator@D@std@@@std@@QAE@ABV?$allocator@D@1@@Z PROC ; std::_Wrap_alloc<std::allocator<char> >::_Wrap_alloc<std::allocator<char> ><std::allocator<char> const &>, COMDAT
; _this$ = ecx

; 953  : 		}

  00000	8b c1		 mov	 eax, ecx
  00002	c2 04 00	 ret	 4
??$?0ABV?$allocator@D@std@@@?$_Wrap_alloc@V?$allocator@D@std@@@std@@QAE@ABV?$allocator@D@1@@Z ENDP ; std::_Wrap_alloc<std::allocator<char> >::_Wrap_alloc<std::allocator<char> ><std::allocator<char> const &>
_TEXT	ENDS
; Function compile flags: /Ogtp
; File c:\program files (x86)\microsoft visual studio 14.0\vc\include\xmemory0
;	COMDAT ??$construct@PADAAPAD@?$allocator@D@std@@QAEXPAPADAAPAD@Z
_TEXT	SEGMENT
__Ptr$ = 8						; size = 4
_<_Args_0>$ = 12					; size = 4
??$construct@PADAAPAD@?$allocator@D@std@@QAEXPAPADAAPAD@Z PROC ; std::allocator<char>::construct<char *,char * &>, COMDAT
; _this$ = ecx

; 736  : 		{	// construct _Objty(_Types...) at _Ptr

  00000	55		 push	 ebp
  00001	8b ec		 mov	 ebp, esp

; 737  : 		::new ((void *)_Ptr) _Objty(_STD forward<_Types>(_Args)...);

  00003	8b 4d 08	 mov	 ecx, DWORD PTR __Ptr$[ebp]
  00006	85 c9		 test	 ecx, ecx
  00008	74 07		 je	 SHORT $LN3@construct
  0000a	8b 45 0c	 mov	 eax, DWORD PTR _<_Args_0>$[ebp]
  0000d	8b 00		 mov	 eax, DWORD PTR [eax]
  0000f	89 01		 mov	 DWORD PTR [ecx], eax
$LN3@construct:

; 738  : 		}

  00011	5d		 pop	 ebp
  00012	c2 08 00	 ret	 8
??$construct@PADAAPAD@?$allocator@D@std@@QAEXPAPADAAPAD@Z ENDP ; std::allocator<char>::construct<char *,char * &>
_TEXT	ENDS
; Function compile flags: /Ogtp
; File c:\program files (x86)\microsoft visual studio 14.0\vc\include\xmemory0
;	COMDAT ??$destroy@PAD@?$allocator@D@std@@QAEXPAPAD@Z
_TEXT	SEGMENT
__Ptr$ = 8						; size = 4
??$destroy@PAD@?$allocator@D@std@@QAEXPAPAD@Z PROC	; std::allocator<char>::destroy<char *>, COMDAT
; _this$ = ecx

; 744  : 		_Ptr->~_Uty();
; 745  : 		}

  00000	c2 04 00	 ret	 4
??$destroy@PAD@?$allocator@D@std@@QAEXPAPAD@Z ENDP	; std::allocator<char>::destroy<char *>
_TEXT	ENDS
; Function compile flags: /Ogtp
; File c:\program files (x86)\microsoft visual studio 14.0\vc\include\xmemory0
;	COMDAT ??$?0ABV?$allocator@_W@std@@@?$_Wrap_alloc@V?$allocator@_W@std@@@std@@QAE@ABV?$allocator@_W@1@@Z
_TEXT	SEGMENT
__Right$ = 8						; size = 4
??$?0ABV?$allocator@_W@std@@@?$_Wrap_alloc@V?$allocator@_W@std@@@std@@QAE@ABV?$allocator@_W@1@@Z PROC ; std::_Wrap_alloc<std::allocator<wchar_t> >::_Wrap_alloc<std::allocator<wchar_t> ><std::allocator<wchar_t> const &>, COMDAT
; _this$ = ecx

; 953  : 		}

  00000	8b c1		 mov	 eax, ecx
  00002	c2 04 00	 ret	 4
??$?0ABV?$allocator@_W@std@@@?$_Wrap_alloc@V?$allocator@_W@std@@@std@@QAE@ABV?$allocator@_W@1@@Z ENDP ; std::_Wrap_alloc<std::allocator<wchar_t> >::_Wrap_alloc<std::allocator<wchar_t> ><std::allocator<wchar_t> const &>
_TEXT	ENDS
; Function compile flags: /Ogtp
; File c:\program files (x86)\microsoft visual studio 14.0\vc\include\xmemory0
;	COMDAT ??$construct@PA_WAAPA_W@?$allocator@_W@std@@QAEXPAPA_WAAPA_W@Z
_TEXT	SEGMENT
__Ptr$ = 8						; size = 4
_<_Args_0>$ = 12					; size = 4
??$construct@PA_WAAPA_W@?$allocator@_W@std@@QAEXPAPA_WAAPA_W@Z PROC ; std::allocator<wchar_t>::construct<wchar_t *,wchar_t * &>, COMDAT
; _this$ = ecx

; 736  : 		{	// construct _Objty(_Types...) at _Ptr

  00000	55		 push	 ebp
  00001	8b ec		 mov	 ebp, esp

; 737  : 		::new ((void *)_Ptr) _Objty(_STD forward<_Types>(_Args)...);

  00003	8b 4d 08	 mov	 ecx, DWORD PTR __Ptr$[ebp]
  00006	85 c9		 test	 ecx, ecx
  00008	74 07		 je	 SHORT $LN3@construct
  0000a	8b 45 0c	 mov	 eax, DWORD PTR _<_Args_0>$[ebp]
  0000d	8b 00		 mov	 eax, DWORD PTR [eax]
  0000f	89 01		 mov	 DWORD PTR [ecx], eax
$LN3@construct:

; 738  : 		}

  00011	5d		 pop	 ebp
  00012	c2 08 00	 ret	 8
??$construct@PA_WAAPA_W@?$allocator@_W@std@@QAEXPAPA_WAAPA_W@Z ENDP ; std::allocator<wchar_t>::construct<wchar_t *,wchar_t * &>
_TEXT	ENDS
; Function compile flags: /Ogtp
; File c:\program files (x86)\microsoft visual studio 14.0\vc\include\xmemory0
;	COMDAT ??$destroy@PA_W@?$allocator@_W@std@@QAEXPAPA_W@Z
_TEXT	SEGMENT
__Ptr$ = 8						; size = 4
??$destroy@PA_W@?$allocator@_W@std@@QAEXPAPA_W@Z PROC	; std::allocator<wchar_t>::destroy<wchar_t *>, COMDAT
; _this$ = ecx

; 744  : 		_Ptr->~_Uty();
; 745  : 		}

  00000	c2 04 00	 ret	 4
??$destroy@PA_W@?$allocator@_W@std@@QAEXPAPA_W@Z ENDP	; std::allocator<wchar_t>::destroy<wchar_t *>
_TEXT	ENDS
; Function compile flags: /Ogtp
; File c:\program files (x86)\microsoft visual studio 14.0\vc\include\xmemory0
;	COMDAT ??$destroy@UFavoriteVolume@GostCrypt@@@?$_Wrap_alloc@V?$allocator@UFavoriteVolume@GostCrypt@@@std@@@std@@QAEXPAUFavoriteVolume@GostCrypt@@@Z
_TEXT	SEGMENT
__Ptr$ = 8						; size = 4
??$destroy@UFavoriteVolume@GostCrypt@@@?$_Wrap_alloc@V?$allocator@UFavoriteVolume@GostCrypt@@@std@@@std@@QAEXPAUFavoriteVolume@GostCrypt@@@Z PROC ; std::_Wrap_alloc<std::allocator<GostCrypt::FavoriteVolume> >::destroy<GostCrypt::FavoriteVolume>, COMDAT
; _this$ = ecx

; 1002 : 		{	// destroy object at _Ptr

  00000	55		 push	 ebp
  00001	8b ec		 mov	 ebp, esp

; 1003 : 		_Mytraits::destroy(*this, _Ptr);

  00003	8b 4d 08	 mov	 ecx, DWORD PTR __Ptr$[ebp]
  00006	e8 00 00 00 00	 call	 ??1FavoriteVolume@GostCrypt@@QAE@XZ

; 1004 : 		}

  0000b	5d		 pop	 ebp
  0000c	c2 04 00	 ret	 4
??$destroy@UFavoriteVolume@GostCrypt@@@?$_Wrap_alloc@V?$allocator@UFavoriteVolume@GostCrypt@@@std@@@std@@QAEXPAUFavoriteVolume@GostCrypt@@@Z ENDP ; std::_Wrap_alloc<std::allocator<GostCrypt::FavoriteVolume> >::destroy<GostCrypt::FavoriteVolume>
_TEXT	ENDS
; Function compile flags: /Ogtp
; File c:\program files (x86)\microsoft visual studio 14.0\vc\include\xmemory0
;	COMDAT ??$destroy@UFavoriteVolume@GostCrypt@@@?$allocator@U?$_List_node@UFavoriteVolume@GostCrypt@@PAX@std@@@std@@QAEXPAUFavoriteVolume@GostCrypt@@@Z
_TEXT	SEGMENT
__Ptr$ = 8						; size = 4
??$destroy@UFavoriteVolume@GostCrypt@@@?$allocator@U?$_List_node@UFavoriteVolume@GostCrypt@@PAX@std@@@std@@QAEXPAUFavoriteVolume@GostCrypt@@@Z PROC ; std::allocator<std::_List_node<GostCrypt::FavoriteVolume,void *> >::destroy<GostCrypt::FavoriteVolume>, COMDAT
; _this$ = ecx

; 743  : 		{	// destroy object at _Ptr

  00000	55		 push	 ebp
  00001	8b ec		 mov	 ebp, esp

; 744  : 		_Ptr->~_Uty();

  00003	8b 4d 08	 mov	 ecx, DWORD PTR __Ptr$[ebp]
  00006	e8 00 00 00 00	 call	 ??1FavoriteVolume@GostCrypt@@QAE@XZ

; 745  : 		}

  0000b	5d		 pop	 ebp
  0000c	c2 04 00	 ret	 4
??$destroy@UFavoriteVolume@GostCrypt@@@?$allocator@U?$_List_node@UFavoriteVolume@GostCrypt@@PAX@std@@@std@@QAEXPAUFavoriteVolume@GostCrypt@@@Z ENDP ; std::allocator<std::_List_node<GostCrypt::FavoriteVolume,void *> >::destroy<GostCrypt::FavoriteVolume>
_TEXT	ENDS
; Function compile flags: /Ogtp
; File c:\program files (x86)\microsoft visual studio 14.0\vc\include\xmemory0
;	COMDAT ??$destroy@PAU?$_List_node@UFavoriteVolume@GostCrypt@@PAX@std@@@?$allocator@U?$_List_node@UFavoriteVolume@GostCrypt@@PAX@std@@@std@@QAEXPAPAU?$_List_node@UFavoriteVolume@GostCrypt@@PAX@1@@Z
_TEXT	SEGMENT
__Ptr$ = 8						; size = 4
??$destroy@PAU?$_List_node@UFavoriteVolume@GostCrypt@@PAX@std@@@?$allocator@U?$_List_node@UFavoriteVolume@GostCrypt@@PAX@std@@@std@@QAEXPAPAU?$_List_node@UFavoriteVolume@GostCrypt@@PAX@1@@Z PROC ; std::allocator<std::_List_node<GostCrypt::FavoriteVolume,void *> >::destroy<std::_List_node<GostCrypt::FavoriteVolume,void *> *>, COMDAT
; _this$ = ecx

; 744  : 		_Ptr->~_Uty();
; 745  : 		}

  00000	c2 04 00	 ret	 4
??$destroy@PAU?$_List_node@UFavoriteVolume@GostCrypt@@PAX@std@@@?$allocator@U?$_List_node@UFavoriteVolume@GostCrypt@@PAX@std@@@std@@QAEXPAPAU?$_List_node@UFavoriteVolume@GostCrypt@@PAX@1@@Z ENDP ; std::allocator<std::_List_node<GostCrypt::FavoriteVolume,void *> >::destroy<std::_List_node<GostCrypt::FavoriteVolume,void *> *>
_TEXT	ENDS
; Function compile flags: /Ogtp
; File c:\program files (x86)\microsoft visual studio 14.0\vc\include\xutility
;	COMDAT ??$_Rechecked@PAUFavoriteVolume@GostCrypt@@PAU12@@std@@YAAAPAUFavoriteVolume@GostCrypt@@AAPAU12@PAU12@@Z
_TEXT	SEGMENT
__Dest$ = 8						; size = 4
__Src$ = 12						; size = 4
??$_Rechecked@PAUFavoriteVolume@GostCrypt@@PAU12@@std@@YAAAPAUFavoriteVolume@GostCrypt@@AAPAU12@PAU12@@Z PROC ; std::_Rechecked<GostCrypt::FavoriteVolume *,GostCrypt::FavoriteVolume *>, COMDAT

; 457  : 	{	// reset checked from unchecked, generic

  00000	55		 push	 ebp
  00001	8b ec		 mov	 ebp, esp

; 458  : 	_Dest = _Src;

  00003	8b 45 08	 mov	 eax, DWORD PTR __Dest$[ebp]
  00006	8b 4d 0c	 mov	 ecx, DWORD PTR __Src$[ebp]
  00009	89 08		 mov	 DWORD PTR [eax], ecx

; 459  : 	return (_Dest);
; 460  : 	}

  0000b	5d		 pop	 ebp
  0000c	c3		 ret	 0
??$_Rechecked@PAUFavoriteVolume@GostCrypt@@PAU12@@std@@YAAAPAUFavoriteVolume@GostCrypt@@AAPAU12@PAU12@@Z ENDP ; std::_Rechecked<GostCrypt::FavoriteVolume *,GostCrypt::FavoriteVolume *>
_TEXT	ENDS
; Function compile flags: /Ogtp
; File c:\program files (x86)\microsoft visual studio 14.0\vc\include\xmemory
;	COMDAT ??$_Uninitialized_copy_al_unchecked@PAUFavoriteVolume@GostCrypt@@PAU12@V?$allocator@UFavoriteVolume@GostCrypt@@@std@@@std@@YAPAUFavoriteVolume@GostCrypt@@PAU12@00AAU?$_Wrap_alloc@V?$allocator@UFavoriteVolume@GostCrypt@@@std@@@0@@Z
_TEXT	SEGMENT
$T1 = -4						; size = 1
__First$ = 8						; size = 4
__Last$ = 12						; size = 4
__Dest$ = 16						; size = 4
__Al$ = 20						; size = 4
??$_Uninitialized_copy_al_unchecked@PAUFavoriteVolume@GostCrypt@@PAU12@V?$allocator@UFavoriteVolume@GostCrypt@@@std@@@std@@YAPAUFavoriteVolume@GostCrypt@@PAU12@00AAU?$_Wrap_alloc@V?$allocator@UFavoriteVolume@GostCrypt@@@std@@@0@@Z PROC ; std::_Uninitialized_copy_al_unchecked<GostCrypt::FavoriteVolume *,GostCrypt::FavoriteVolume *,std::allocator<GostCrypt::FavoriteVolume> >, COMDAT

; 248  : 	{	// copy [_First, _Last) to raw _Dest, using _Al, choose optimization

  00000	55		 push	 ebp
  00001	8b ec		 mov	 ebp, esp
  00003	83 ec 08	 sub	 esp, 8

; 249  : 	return (_Uninitialized_copy_al_unchecked1(_First, _Last, _Dest, _Al,

  00006	51		 push	 ecx
  00007	c6 45 fc 00	 mov	 BYTE PTR $T1[ebp], 0
  0000b	ff 75 fc	 push	 DWORD PTR $T1[ebp]
  0000e	ff 75 14	 push	 DWORD PTR __Al$[ebp]
  00011	ff 75 10	 push	 DWORD PTR __Dest$[ebp]
  00014	ff 75 0c	 push	 DWORD PTR __Last$[ebp]
  00017	ff 75 08	 push	 DWORD PTR __First$[ebp]
  0001a	e8 00 00 00 00	 call	 ??$_Uninitialized_copy_al_unchecked1@PAUFavoriteVolume@GostCrypt@@PAU12@V?$allocator@UFavoriteVolume@GostCrypt@@@std@@@std@@YAPAUFavoriteVolume@GostCrypt@@PAU12@00AAU?$_Wrap_alloc@V?$allocator@UFavoriteVolume@GostCrypt@@@std@@@0@U_General_ptr_iterator_tag@0@U_Any_tag@0@@Z ; std::_Uninitialized_copy_al_unchecked1<GostCrypt::FavoriteVolume *,GostCrypt::FavoriteVolume *,std::allocator<GostCrypt::FavoriteVolume> >
  0001f	83 c4 18	 add	 esp, 24			; 00000018H

; 250  : 		_Ptr_copy_cat(_First, _Dest),
; 251  : 		_Uses_default_construct_t<_Alloc, decltype(_Unfancy(_Dest)), decltype(*_First)>()));
; 252  : 	}

  00022	8b e5		 mov	 esp, ebp
  00024	5d		 pop	 ebp
  00025	c3		 ret	 0
??$_Uninitialized_copy_al_unchecked@PAUFavoriteVolume@GostCrypt@@PAU12@V?$allocator@UFavoriteVolume@GostCrypt@@@std@@@std@@YAPAUFavoriteVolume@GostCrypt@@PAU12@00AAU?$_Wrap_alloc@V?$allocator@UFavoriteVolume@GostCrypt@@@std@@@0@@Z ENDP ; std::_Uninitialized_copy_al_unchecked<GostCrypt::FavoriteVolume *,GostCrypt::FavoriteVolume *,std::allocator<GostCrypt::FavoriteVolume> >
_TEXT	ENDS
; Function compile flags: /Ogtp
; File c:\program files (x86)\microsoft visual studio 14.0\vc\include\xutility
;	COMDAT ??$_Unchecked@PAUFavoriteVolume@GostCrypt@@@std@@YAPAUFavoriteVolume@GostCrypt@@PAU12@@Z
_TEXT	SEGMENT
__Src$ = 8						; size = 4
??$_Unchecked@PAUFavoriteVolume@GostCrypt@@@std@@YAPAUFavoriteVolume@GostCrypt@@PAU12@@Z PROC ; std::_Unchecked<GostCrypt::FavoriteVolume *>, COMDAT

; 427  : 	{	// construct unchecked from checked, generic

  00000	55		 push	 ebp
  00001	8b ec		 mov	 ebp, esp

; 428  : 	return (_Src);

  00003	8b 45 08	 mov	 eax, DWORD PTR __Src$[ebp]

; 429  : 	}

  00006	5d		 pop	 ebp
  00007	c3		 ret	 0
??$_Unchecked@PAUFavoriteVolume@GostCrypt@@@std@@YAPAUFavoriteVolume@GostCrypt@@PAU12@@Z ENDP ; std::_Unchecked<GostCrypt::FavoriteVolume *>
_TEXT	ENDS
; Function compile flags: /Ogtp
; File c:\program files (x86)\microsoft visual studio 14.0\vc\include\xmemory0
;	COMDAT ??$construct@UFavoriteVolume@GostCrypt@@ABU12@@?$allocator@UFavoriteVolume@GostCrypt@@@std@@QAEXPAUFavoriteVolume@GostCrypt@@ABU23@@Z
_TEXT	SEGMENT
$T2 = -16						; size = 4
__$EHRec$ = -12						; size = 12
__Ptr$ = 8						; size = 4
_<_Args_0>$ = 12					; size = 4
??$construct@UFavoriteVolume@GostCrypt@@ABU12@@?$allocator@UFavoriteVolume@GostCrypt@@@std@@QAEXPAUFavoriteVolume@GostCrypt@@ABU23@@Z PROC ; std::allocator<GostCrypt::FavoriteVolume>::construct<GostCrypt::FavoriteVolume,GostCrypt::FavoriteVolume const &>, COMDAT
; _this$ = ecx

; 736  : 		{	// construct _Objty(_Types...) at _Ptr

  00000	55		 push	 ebp
  00001	8b ec		 mov	 ebp, esp
  00003	6a ff		 push	 -1
  00005	68 00 00 00 00	 push	 __ehhandler$??$construct@UFavoriteVolume@GostCrypt@@ABU12@@?$allocator@UFavoriteVolume@GostCrypt@@@std@@QAEXPAUFavoriteVolume@GostCrypt@@ABU23@@Z
  0000a	64 a1 00 00 00
	00		 mov	 eax, DWORD PTR fs:0
  00010	50		 push	 eax
  00011	51		 push	 ecx
  00012	a1 00 00 00 00	 mov	 eax, DWORD PTR ___security_cookie
  00017	33 c5		 xor	 eax, ebp
  00019	50		 push	 eax
  0001a	8d 45 f4	 lea	 eax, DWORD PTR __$EHRec$[ebp]
  0001d	64 a3 00 00 00
	00		 mov	 DWORD PTR fs:0, eax

; 737  : 		::new ((void *)_Ptr) _Objty(_STD forward<_Types>(_Args)...);

  00023	8b 4d 08	 mov	 ecx, DWORD PTR __Ptr$[ebp]
  00026	89 4d f0	 mov	 DWORD PTR $T2[ebp], ecx
  00029	c7 45 fc 00 00
	00 00		 mov	 DWORD PTR __$EHRec$[ebp+8], 0
  00030	85 c9		 test	 ecx, ecx
  00032	74 08		 je	 SHORT $LN3@construct
  00034	ff 75 0c	 push	 DWORD PTR _<_Args_0>$[ebp]
  00037	e8 00 00 00 00	 call	 ??0FavoriteVolume@GostCrypt@@QAE@ABU01@@Z
$LN3@construct:

; 738  : 		}

  0003c	8b 4d f4	 mov	 ecx, DWORD PTR __$EHRec$[ebp]
  0003f	64 89 0d 00 00
	00 00		 mov	 DWORD PTR fs:0, ecx
  00046	59		 pop	 ecx
  00047	8b e5		 mov	 esp, ebp
  00049	5d		 pop	 ebp
  0004a	c2 08 00	 ret	 8
_TEXT	ENDS
;	COMDAT text$x
text$x	SEGMENT
__unwindfunclet$??$construct@UFavoriteVolume@GostCrypt@@ABU12@@?$allocator@UFavoriteVolume@GostCrypt@@@std@@QAEXPAUFavoriteVolume@GostCrypt@@ABU23@@Z$0:
  00000	8b 45 08	 mov	 eax, DWORD PTR __Ptr$[ebp]
  00003	50		 push	 eax
  00004	8b 45 f0	 mov	 eax, DWORD PTR $T2[ebp]
  00007	50		 push	 eax
  00008	e8 00 00 00 00	 call	 ??3@YAXPAX0@Z		; operator delete
  0000d	83 c4 08	 add	 esp, 8
  00010	c3		 ret	 0
__ehhandler$??$construct@UFavoriteVolume@GostCrypt@@ABU12@@?$allocator@UFavoriteVolume@GostCrypt@@@std@@QAEXPAUFavoriteVolume@GostCrypt@@ABU23@@Z:
  00011	8b 54 24 08	 mov	 edx, DWORD PTR [esp+8]
  00015	8d 42 0c	 lea	 eax, DWORD PTR [edx+12]
  00018	8b 4a f8	 mov	 ecx, DWORD PTR [edx-8]
  0001b	33 c8		 xor	 ecx, eax
  0001d	e8 00 00 00 00	 call	 @__security_check_cookie@4
  00022	b8 00 00 00 00	 mov	 eax, OFFSET __ehfuncinfo$??$construct@UFavoriteVolume@GostCrypt@@ABU12@@?$allocator@UFavoriteVolume@GostCrypt@@@std@@QAEXPAUFavoriteVolume@GostCrypt@@ABU23@@Z
  00027	e9 00 00 00 00	 jmp	 ___CxxFrameHandler3
text$x	ENDS
??$construct@UFavoriteVolume@GostCrypt@@ABU12@@?$allocator@UFavoriteVolume@GostCrypt@@@std@@QAEXPAUFavoriteVolume@GostCrypt@@ABU23@@Z ENDP ; std::allocator<GostCrypt::FavoriteVolume>::construct<GostCrypt::FavoriteVolume,GostCrypt::FavoriteVolume const &>
; Function compile flags: /Ogtp
; File c:\program files (x86)\microsoft visual studio 14.0\vc\include\xmemory0
;	COMDAT ??$construct@UFavoriteVolume@GostCrypt@@AAU12@@?$allocator@UFavoriteVolume@GostCrypt@@@std@@QAEXPAUFavoriteVolume@GostCrypt@@AAU23@@Z
_TEXT	SEGMENT
$T2 = -16						; size = 4
__$EHRec$ = -12						; size = 12
__Ptr$ = 8						; size = 4
_<_Args_0>$ = 12					; size = 4
??$construct@UFavoriteVolume@GostCrypt@@AAU12@@?$allocator@UFavoriteVolume@GostCrypt@@@std@@QAEXPAUFavoriteVolume@GostCrypt@@AAU23@@Z PROC ; std::allocator<GostCrypt::FavoriteVolume>::construct<GostCrypt::FavoriteVolume,GostCrypt::FavoriteVolume &>, COMDAT
; _this$ = ecx

; 736  : 		{	// construct _Objty(_Types...) at _Ptr

  00000	55		 push	 ebp
  00001	8b ec		 mov	 ebp, esp
  00003	6a ff		 push	 -1
  00005	68 00 00 00 00	 push	 __ehhandler$??$construct@UFavoriteVolume@GostCrypt@@AAU12@@?$allocator@UFavoriteVolume@GostCrypt@@@std@@QAEXPAUFavoriteVolume@GostCrypt@@AAU23@@Z
  0000a	64 a1 00 00 00
	00		 mov	 eax, DWORD PTR fs:0
  00010	50		 push	 eax
  00011	51		 push	 ecx
  00012	a1 00 00 00 00	 mov	 eax, DWORD PTR ___security_cookie
  00017	33 c5		 xor	 eax, ebp
  00019	50		 push	 eax
  0001a	8d 45 f4	 lea	 eax, DWORD PTR __$EHRec$[ebp]
  0001d	64 a3 00 00 00
	00		 mov	 DWORD PTR fs:0, eax

; 737  : 		::new ((void *)_Ptr) _Objty(_STD forward<_Types>(_Args)...);

  00023	8b 4d 08	 mov	 ecx, DWORD PTR __Ptr$[ebp]
  00026	89 4d f0	 mov	 DWORD PTR $T2[ebp], ecx
  00029	c7 45 fc 00 00
	00 00		 mov	 DWORD PTR __$EHRec$[ebp+8], 0
  00030	85 c9		 test	 ecx, ecx
  00032	74 08		 je	 SHORT $LN3@construct
  00034	ff 75 0c	 push	 DWORD PTR _<_Args_0>$[ebp]
  00037	e8 00 00 00 00	 call	 ??0FavoriteVolume@GostCrypt@@QAE@ABU01@@Z
$LN3@construct:

; 738  : 		}

  0003c	8b 4d f4	 mov	 ecx, DWORD PTR __$EHRec$[ebp]
  0003f	64 89 0d 00 00
	00 00		 mov	 DWORD PTR fs:0, ecx
  00046	59		 pop	 ecx
  00047	8b e5		 mov	 esp, ebp
  00049	5d		 pop	 ebp
  0004a	c2 08 00	 ret	 8
_TEXT	ENDS
;	COMDAT text$x
text$x	SEGMENT
__unwindfunclet$??$construct@UFavoriteVolume@GostCrypt@@AAU12@@?$allocator@UFavoriteVolume@GostCrypt@@@std@@QAEXPAUFavoriteVolume@GostCrypt@@AAU23@@Z$0:
  00000	8b 45 08	 mov	 eax, DWORD PTR __Ptr$[ebp]
  00003	50		 push	 eax
  00004	8b 45 f0	 mov	 eax, DWORD PTR $T2[ebp]
  00007	50		 push	 eax
  00008	e8 00 00 00 00	 call	 ??3@YAXPAX0@Z		; operator delete
  0000d	83 c4 08	 add	 esp, 8
  00010	c3		 ret	 0
__ehhandler$??$construct@UFavoriteVolume@GostCrypt@@AAU12@@?$allocator@UFavoriteVolume@GostCrypt@@@std@@QAEXPAUFavoriteVolume@GostCrypt@@AAU23@@Z:
  00011	8b 54 24 08	 mov	 edx, DWORD PTR [esp+8]
  00015	8d 42 0c	 lea	 eax, DWORD PTR [edx+12]
  00018	8b 4a f8	 mov	 ecx, DWORD PTR [edx-8]
  0001b	33 c8		 xor	 ecx, eax
  0001d	e8 00 00 00 00	 call	 @__security_check_cookie@4
  00022	b8 00 00 00 00	 mov	 eax, OFFSET __ehfuncinfo$??$construct@UFavoriteVolume@GostCrypt@@AAU12@@?$allocator@UFavoriteVolume@GostCrypt@@@std@@QAEXPAUFavoriteVolume@GostCrypt@@AAU23@@Z
  00027	e9 00 00 00 00	 jmp	 ___CxxFrameHandler3
text$x	ENDS
??$construct@UFavoriteVolume@GostCrypt@@AAU12@@?$allocator@UFavoriteVolume@GostCrypt@@@std@@QAEXPAUFavoriteVolume@GostCrypt@@AAU23@@Z ENDP ; std::allocator<GostCrypt::FavoriteVolume>::construct<GostCrypt::FavoriteVolume,GostCrypt::FavoriteVolume &>
; Function compile flags: /Ogtp
; File c:\program files (x86)\microsoft visual studio 14.0\vc\include\xmemory0
;	COMDAT ??$construct@UFavoriteVolume@GostCrypt@@ABU12@@?$_Wrap_alloc@V?$allocator@U?$_List_node@UFavoriteVolume@GostCrypt@@PAX@std@@@std@@@std@@QAEXPAUFavoriteVolume@GostCrypt@@ABU23@@Z
_TEXT	SEGMENT
$T2 = -16						; size = 4
__$EHRec$ = -12						; size = 12
__Ptr$ = 8						; size = 4
_<_Args_0>$ = 12					; size = 4
??$construct@UFavoriteVolume@GostCrypt@@ABU12@@?$_Wrap_alloc@V?$allocator@U?$_List_node@UFavoriteVolume@GostCrypt@@PAX@std@@@std@@@std@@QAEXPAUFavoriteVolume@GostCrypt@@ABU23@@Z PROC ; std::_Wrap_alloc<std::allocator<std::_List_node<GostCrypt::FavoriteVolume,void *> > >::construct<GostCrypt::FavoriteVolume,GostCrypt::FavoriteVolume const &>, COMDAT
; _this$ = ecx

; 994  : 		{	// construct _Ty(_Types...) at _Ptr

  00000	55		 push	 ebp
  00001	8b ec		 mov	 ebp, esp
  00003	6a ff		 push	 -1
  00005	68 00 00 00 00	 push	 __ehhandler$??$construct@UFavoriteVolume@GostCrypt@@ABU12@@?$_Wrap_alloc@V?$allocator@U?$_List_node@UFavoriteVolume@GostCrypt@@PAX@std@@@std@@@std@@QAEXPAUFavoriteVolume@GostCrypt@@ABU23@@Z
  0000a	64 a1 00 00 00
	00		 mov	 eax, DWORD PTR fs:0
  00010	50		 push	 eax
  00011	51		 push	 ecx
  00012	a1 00 00 00 00	 mov	 eax, DWORD PTR ___security_cookie
  00017	33 c5		 xor	 eax, ebp
  00019	50		 push	 eax
  0001a	8d 45 f4	 lea	 eax, DWORD PTR __$EHRec$[ebp]
  0001d	64 a3 00 00 00
	00		 mov	 DWORD PTR fs:0, eax

; 995  : 		_Mytraits::construct(*this, _Ptr,

  00023	8b 4d 08	 mov	 ecx, DWORD PTR __Ptr$[ebp]
  00026	89 4d f0	 mov	 DWORD PTR $T2[ebp], ecx
  00029	c7 45 fc 00 00
	00 00		 mov	 DWORD PTR __$EHRec$[ebp+8], 0
  00030	85 c9		 test	 ecx, ecx
  00032	74 08		 je	 SHORT $LN13@construct
  00034	ff 75 0c	 push	 DWORD PTR _<_Args_0>$[ebp]
  00037	e8 00 00 00 00	 call	 ??0FavoriteVolume@GostCrypt@@QAE@ABU01@@Z
$LN13@construct:

; 996  : 			_STD forward<_Types>(_Args)...);
; 997  : 		}

  0003c	8b 4d f4	 mov	 ecx, DWORD PTR __$EHRec$[ebp]
  0003f	64 89 0d 00 00
	00 00		 mov	 DWORD PTR fs:0, ecx
  00046	59		 pop	 ecx
  00047	8b e5		 mov	 esp, ebp
  00049	5d		 pop	 ebp
  0004a	c2 08 00	 ret	 8
_TEXT	ENDS
;	COMDAT text$x
text$x	SEGMENT
__unwindfunclet$??$construct@UFavoriteVolume@GostCrypt@@ABU12@@?$_Wrap_alloc@V?$allocator@U?$_List_node@UFavoriteVolume@GostCrypt@@PAX@std@@@std@@@std@@QAEXPAUFavoriteVolume@GostCrypt@@ABU23@@Z$2:
  00000	8b 45 08	 mov	 eax, DWORD PTR __Ptr$[ebp]
  00003	50		 push	 eax
  00004	8b 45 f0	 mov	 eax, DWORD PTR $T2[ebp]
  00007	50		 push	 eax
  00008	e8 00 00 00 00	 call	 ??3@YAXPAX0@Z		; operator delete
  0000d	83 c4 08	 add	 esp, 8
  00010	c3		 ret	 0
__ehhandler$??$construct@UFavoriteVolume@GostCrypt@@ABU12@@?$_Wrap_alloc@V?$allocator@U?$_List_node@UFavoriteVolume@GostCrypt@@PAX@std@@@std@@@std@@QAEXPAUFavoriteVolume@GostCrypt@@ABU23@@Z:
  00011	8b 54 24 08	 mov	 edx, DWORD PTR [esp+8]
  00015	8d 42 0c	 lea	 eax, DWORD PTR [edx+12]
  00018	8b 4a f8	 mov	 ecx, DWORD PTR [edx-8]
  0001b	33 c8		 xor	 ecx, eax
  0001d	e8 00 00 00 00	 call	 @__security_check_cookie@4
  00022	b8 00 00 00 00	 mov	 eax, OFFSET __ehfuncinfo$??$construct@UFavoriteVolume@GostCrypt@@ABU12@@?$_Wrap_alloc@V?$allocator@U?$_List_node@UFavoriteVolume@GostCrypt@@PAX@std@@@std@@@std@@QAEXPAUFavoriteVolume@GostCrypt@@ABU23@@Z
  00027	e9 00 00 00 00	 jmp	 ___CxxFrameHandler3
text$x	ENDS
??$construct@UFavoriteVolume@GostCrypt@@ABU12@@?$_Wrap_alloc@V?$allocator@U?$_List_node@UFavoriteVolume@GostCrypt@@PAX@std@@@std@@@std@@QAEXPAUFavoriteVolume@GostCrypt@@ABU23@@Z ENDP ; std::_Wrap_alloc<std::allocator<std::_List_node<GostCrypt::FavoriteVolume,void *> > >::construct<GostCrypt::FavoriteVolume,GostCrypt::FavoriteVolume const &>
; Function compile flags: /Ogtp
; File c:\program files (x86)\microsoft visual studio 14.0\vc\include\xmemory0
;	COMDAT ??$?0V?$allocator@UFavoriteVolume@GostCrypt@@@std@@@?$_Wrap_alloc@V?$allocator@UFavoriteVolume@GostCrypt@@@std@@@std@@QAE@$$QAV?$allocator@UFavoriteVolume@GostCrypt@@@1@@Z
_TEXT	SEGMENT
__Right$ = 8						; size = 4
??$?0V?$allocator@UFavoriteVolume@GostCrypt@@@std@@@?$_Wrap_alloc@V?$allocator@UFavoriteVolume@GostCrypt@@@std@@@std@@QAE@$$QAV?$allocator@UFavoriteVolume@GostCrypt@@@1@@Z PROC ; std::_Wrap_alloc<std::allocator<GostCrypt::FavoriteVolume> >::_Wrap_alloc<std::allocator<GostCrypt::FavoriteVolume> ><std::allocator<GostCrypt::FavoriteVolume> >, COMDAT
; _this$ = ecx

; 953  : 		}

  00000	8b c1		 mov	 eax, ecx
  00002	c2 04 00	 ret	 4
??$?0V?$allocator@UFavoriteVolume@GostCrypt@@@std@@@?$_Wrap_alloc@V?$allocator@UFavoriteVolume@GostCrypt@@@std@@@std@@QAE@$$QAV?$allocator@UFavoriteVolume@GostCrypt@@@1@@Z ENDP ; std::_Wrap_alloc<std::allocator<GostCrypt::FavoriteVolume> >::_Wrap_alloc<std::allocator<GostCrypt::FavoriteVolume> ><std::allocator<GostCrypt::FavoriteVolume> >
_TEXT	ENDS
; Function compile flags: /Ogtp
; File c:\program files (x86)\microsoft visual studio 14.0\vc\include\xmemory0
;	COMDAT ??$?0V?$allocator@U?$_List_node@UFavoriteVolume@GostCrypt@@PAX@std@@@std@@@?$_Wrap_alloc@V?$allocator@U?$_List_node@UFavoriteVolume@GostCrypt@@PAX@std@@@std@@@std@@QAE@$$QAV?$allocator@U?$_List_node@UFavoriteVolume@GostCrypt@@PAX@std@@@1@@Z
_TEXT	SEGMENT
__Right$ = 8						; size = 4
??$?0V?$allocator@U?$_List_node@UFavoriteVolume@GostCrypt@@PAX@std@@@std@@@?$_Wrap_alloc@V?$allocator@U?$_List_node@UFavoriteVolume@GostCrypt@@PAX@std@@@std@@@std@@QAE@$$QAV?$allocator@U?$_List_node@UFavoriteVolume@GostCrypt@@PAX@std@@@1@@Z PROC ; std::_Wrap_alloc<std::allocator<std::_List_node<GostCrypt::FavoriteVolume,void *> > >::_Wrap_alloc<std::allocator<std::_List_node<GostCrypt::FavoriteVolume,void *> > ><std::allocator<std::_List_node<GostCrypt::FavoriteVolume,void *> > >, COMDAT
; _this$ = ecx

; 953  : 		}

  00000	8b c1		 mov	 eax, ecx
  00002	c2 04 00	 ret	 4
??$?0V?$allocator@U?$_List_node@UFavoriteVolume@GostCrypt@@PAX@std@@@std@@@?$_Wrap_alloc@V?$allocator@U?$_List_node@UFavoriteVolume@GostCrypt@@PAX@std@@@std@@@std@@QAE@$$QAV?$allocator@U?$_List_node@UFavoriteVolume@GostCrypt@@PAX@std@@@1@@Z ENDP ; std::_Wrap_alloc<std::allocator<std::_List_node<GostCrypt::FavoriteVolume,void *> > >::_Wrap_alloc<std::allocator<std::_List_node<GostCrypt::FavoriteVolume,void *> > ><std::allocator<std::_List_node<GostCrypt::FavoriteVolume,void *> > >
_TEXT	ENDS
; Function compile flags: /Ogtp
; File c:\program files (x86)\microsoft visual studio 14.0\vc\include\vector
;	COMDAT ??$_Ucopy@V?$_Vector_const_iterator@V?$_Vector_val@U?$_Simple_types@UFavoriteVolume@GostCrypt@@@std@@@std@@@std@@@?$vector@UFavoriteVolume@GostCrypt@@V?$allocator@UFavoriteVolume@GostCrypt@@@std@@@std@@IAEPAUFavoriteVolume@GostCrypt@@V?$_Vector_const_iterator@V?$_Vector_val@U?$_Simple_types@UFavoriteVolume@GostCrypt@@@std@@@std@@@1@0PAU23@@Z
_TEXT	SEGMENT
$T1 = -4						; size = 1
__First$ = 8						; size = 4
__Last$ = 12						; size = 4
__Ptr$ = 16						; size = 4
??$_Ucopy@V?$_Vector_const_iterator@V?$_Vector_val@U?$_Simple_types@UFavoriteVolume@GostCrypt@@@std@@@std@@@std@@@?$vector@UFavoriteVolume@GostCrypt@@V?$allocator@UFavoriteVolume@GostCrypt@@@std@@@std@@IAEPAUFavoriteVolume@GostCrypt@@V?$_Vector_const_iterator@V?$_Vector_val@U?$_Simple_types@UFavoriteVolume@GostCrypt@@@std@@@std@@@1@0PAU23@@Z PROC ; std::vector<GostCrypt::FavoriteVolume,std::allocator<GostCrypt::FavoriteVolume> >::_Ucopy<std::_Vector_const_iterator<std::_Vector_val<std::_Simple_types<GostCrypt::FavoriteVolume> > > >, COMDAT
; _this$ = ecx

; 1651 : 		{	// copy initializing [_First, _Last), using allocator

  00000	55		 push	 ebp
  00001	8b ec		 mov	 ebp, esp
  00003	83 ec 08	 sub	 esp, 8

; 1652 : 		return (_Uninitialized_copy(_First, _Last,

  00006	51		 push	 ecx
  00007	c6 45 fc 00	 mov	 BYTE PTR $T1[ebp], 0
  0000b	ff 75 fc	 push	 DWORD PTR $T1[ebp]
  0000e	51		 push	 ecx
  0000f	ff 75 10	 push	 DWORD PTR __Ptr$[ebp]
  00012	ff 75 0c	 push	 DWORD PTR __Last$[ebp]
  00015	ff 75 08	 push	 DWORD PTR __First$[ebp]
  00018	e8 00 00 00 00	 call	 ??$_Uninitialized_copy_al_unchecked1@PBUFavoriteVolume@GostCrypt@@PAU12@V?$allocator@UFavoriteVolume@GostCrypt@@@std@@@std@@YAPAUFavoriteVolume@GostCrypt@@PBU12@0PAU12@AAU?$_Wrap_alloc@V?$allocator@UFavoriteVolume@GostCrypt@@@std@@@0@U_General_ptr_iterator_tag@0@U_Any_tag@0@@Z ; std::_Uninitialized_copy_al_unchecked1<GostCrypt::FavoriteVolume const *,GostCrypt::FavoriteVolume *,std::allocator<GostCrypt::FavoriteVolume> >
  0001d	83 c4 18	 add	 esp, 24			; 00000018H

; 1653 : 			_Ptr, this->_Getal()));
; 1654 : 		}

  00020	8b e5		 mov	 esp, ebp
  00022	5d		 pop	 ebp
  00023	c2 0c 00	 ret	 12			; 0000000cH
??$_Ucopy@V?$_Vector_const_iterator@V?$_Vector_val@U?$_Simple_types@UFavoriteVolume@GostCrypt@@@std@@@std@@@std@@@?$vector@UFavoriteVolume@GostCrypt@@V?$allocator@UFavoriteVolume@GostCrypt@@@std@@@std@@IAEPAUFavoriteVolume@GostCrypt@@V?$_Vector_const_iterator@V?$_Vector_val@U?$_Simple_types@UFavoriteVolume@GostCrypt@@@std@@@std@@@1@0PAU23@@Z ENDP ; std::vector<GostCrypt::FavoriteVolume,std::allocator<GostCrypt::FavoriteVolume> >::_Ucopy<std::_Vector_const_iterator<std::_Vector_val<std::_Simple_types<GostCrypt::FavoriteVolume> > > >
_TEXT	ENDS
; Function compile flags: /Ogtp
; File c:\program files (x86)\microsoft visual studio 14.0\vc\include\vector
;	COMDAT ??$?0U?$_Wrap_alloc@V?$allocator@UFavoriteVolume@GostCrypt@@@std@@@std@@X@?$_Vector_alloc@U?$_Vec_base_types@UFavoriteVolume@GostCrypt@@V?$allocator@UFavoriteVolume@GostCrypt@@@std@@@std@@@std@@QAE@$$QAU?$_Wrap_alloc@V?$allocator@UFavoriteVolume@GostCrypt@@@std@@@1@@Z
_TEXT	SEGMENT
__Al$ = 8						; size = 4
??$?0U?$_Wrap_alloc@V?$allocator@UFavoriteVolume@GostCrypt@@@std@@@std@@X@?$_Vector_alloc@U?$_Vec_base_types@UFavoriteVolume@GostCrypt@@V?$allocator@UFavoriteVolume@GostCrypt@@@std@@@std@@@std@@QAE@$$QAU?$_Wrap_alloc@V?$allocator@UFavoriteVolume@GostCrypt@@@std@@@1@@Z PROC ; std::_Vector_alloc<std::_Vec_base_types<GostCrypt::FavoriteVolume,std::allocator<GostCrypt::FavoriteVolume> > >::_Vector_alloc<std::_Vec_base_types<GostCrypt::FavoriteVolume,std::allocator<GostCrypt::FavoriteVolume> > ><std::_Wrap_alloc<std::allocator<GostCrypt::FavoriteVolume> >,void>, COMDAT
; _this$ = ecx

; 526  : 		: _Mypair(_One_then_variadic_args_t(),

  00000	c7 01 00 00 00
	00		 mov	 DWORD PTR [ecx], 0

; 529  : 		}

  00006	8b c1		 mov	 eax, ecx
  00008	c7 41 04 00 00
	00 00		 mov	 DWORD PTR [ecx+4], 0
  0000f	c7 41 08 00 00
	00 00		 mov	 DWORD PTR [ecx+8], 0
  00016	c2 04 00	 ret	 4
??$?0U?$_Wrap_alloc@V?$allocator@UFavoriteVolume@GostCrypt@@@std@@@std@@X@?$_Vector_alloc@U?$_Vec_base_types@UFavoriteVolume@GostCrypt@@V?$allocator@UFavoriteVolume@GostCrypt@@@std@@@std@@@std@@QAE@$$QAU?$_Wrap_alloc@V?$allocator@UFavoriteVolume@GostCrypt@@@std@@@1@@Z ENDP ; std::_Vector_alloc<std::_Vec_base_types<GostCrypt::FavoriteVolume,std::allocator<GostCrypt::FavoriteVolume> > >::_Vector_alloc<std::_Vec_base_types<GostCrypt::FavoriteVolume,std::allocator<GostCrypt::FavoriteVolume> > ><std::_Wrap_alloc<std::allocator<GostCrypt::FavoriteVolume> >,void>
_TEXT	ENDS
; Function compile flags: /Ogtp
; File c:\program files (x86)\microsoft visual studio 14.0\vc\include\list
;	COMDAT ??$insert@V?$_List_const_iterator@V?$_List_val@U?$_List_simple_types@UFavoriteVolume@GostCrypt@@@std@@@std@@@std@@@?$list@UFavoriteVolume@GostCrypt@@V?$allocator@UFavoriteVolume@GostCrypt@@@std@@@std@@QAE?AV?$_List_iterator@V?$_List_val@U?$_List_simple_types@UFavoriteVolume@GostCrypt@@@std@@@std@@@1@V?$_List_const_iterator@V?$_List_val@U?$_List_simple_types@UFavoriteVolume@GostCrypt@@@std@@@std@@@1@00@Z
_TEXT	SEGMENT
$T1 = -4						; size = 1
$T2 = -4						; size = 1
___$ReturnUdt$ = 8					; size = 4
__Where$ = 12						; size = 4
__First$ = 16						; size = 4
__Last$ = 20						; size = 4
??$insert@V?$_List_const_iterator@V?$_List_val@U?$_List_simple_types@UFavoriteVolume@GostCrypt@@@std@@@std@@@std@@@?$list@UFavoriteVolume@GostCrypt@@V?$allocator@UFavoriteVolume@GostCrypt@@@std@@@std@@QAE?AV?$_List_iterator@V?$_List_val@U?$_List_simple_types@UFavoriteVolume@GostCrypt@@@std@@@std@@@1@V?$_List_const_iterator@V?$_List_val@U?$_List_simple_types@UFavoriteVolume@GostCrypt@@@std@@@std@@@1@00@Z PROC ; std::list<GostCrypt::FavoriteVolume,std::allocator<GostCrypt::FavoriteVolume> >::insert<std::_List_const_iterator<std::_List_val<std::_List_simple_types<GostCrypt::FavoriteVolume> > > >, COMDAT
; _this$ = ecx

; 1382 : 		{	// insert [_First, _Last) at _Where

  00000	55		 push	 ebp
  00001	8b ec		 mov	 ebp, esp
  00003	51		 push	 ecx

; 1383 :  #if _ITERATOR_DEBUG_LEVEL == 2
; 1384 : 		if (_Where._Getcont() != &this->_Get_data())
; 1385 : 			_DEBUG_ERROR("list insert iterator outside range");
; 1386 :  #endif /* _ITERATOR_DEBUG_LEVEL == 2 */
; 1387 : 
; 1388 : 		iterator _Prev = _Make_iter(_Where);
; 1389 : 		if (_Prev == begin())

  00004	8b 45 0c	 mov	 eax, DWORD PTR __Where$[ebp]
  00007	57		 push	 edi
  00008	8b f9		 mov	 edi, ecx

; 1390 : 			{	// insert sequence at beginning
; 1391 : 			_Insert_range(_Where._Unchecked(), _First, _Last,

  0000a	c6 45 fc 00	 mov	 BYTE PTR $T2[ebp], 0
  0000e	8b 17		 mov	 edx, DWORD PTR [edi]
  00010	3b 02		 cmp	 eax, DWORD PTR [edx]
  00012	75 1f		 jne	 SHORT $LN2@insert
  00014	ff 75 fc	 push	 DWORD PTR $T2[ebp]
  00017	ff 75 14	 push	 DWORD PTR __Last$[ebp]
  0001a	ff 75 10	 push	 DWORD PTR __First$[ebp]
  0001d	50		 push	 eax
  0001e	e8 00 00 00 00	 call	 ??$_Insert_range@V?$_List_const_iterator@V?$_List_val@U?$_List_simple_types@UFavoriteVolume@GostCrypt@@@std@@@std@@@std@@@?$list@UFavoriteVolume@GostCrypt@@V?$allocator@UFavoriteVolume@GostCrypt@@@std@@@std@@QAEXV?$_List_unchecked_const_iterator@V?$_List_val@U?$_List_simple_types@UFavoriteVolume@GostCrypt@@@std@@@std@@U_Iterator_base0@2@@1@V?$_List_const_iterator@V?$_List_val@U?$_List_simple_types@UFavoriteVolume@GostCrypt@@@std@@@std@@@1@1Uforward_iterator_tag@1@@Z ; std::list<GostCrypt::FavoriteVolume,std::allocator<GostCrypt::FavoriteVolume> >::_Insert_range<std::_List_const_iterator<std::_List_val<std::_List_simple_types<GostCrypt::FavoriteVolume> > > >

; 1392 : 				_Iter_cat_t<_Iter>());
; 1393 : 			return (begin());

  00023	8b 07		 mov	 eax, DWORD PTR [edi]
  00025	5f		 pop	 edi
  00026	8b 08		 mov	 ecx, DWORD PTR [eax]

; 1399 : 				_Iter_cat_t<_Iter>());
; 1400 : 			return (++_Prev);

  00028	8b 45 08	 mov	 eax, DWORD PTR ___$ReturnUdt$[ebp]
  0002b	89 08		 mov	 DWORD PTR [eax], ecx

; 1401 : 			}
; 1402 : 		}

  0002d	8b e5		 mov	 esp, ebp
  0002f	5d		 pop	 ebp
  00030	c2 10 00	 ret	 16			; 00000010H
$LN2@insert:
  00033	56		 push	 esi

; 1394 : 			}
; 1395 : 		else
; 1396 : 			{	// insert sequence not at beginning
; 1397 : 			--_Prev;
; 1398 : 			_Insert_range(_Where._Unchecked(), _First, _Last,

  00034	ff 75 fc	 push	 DWORD PTR $T1[ebp]
  00037	8b 70 04	 mov	 esi, DWORD PTR [eax+4]
  0003a	ff 75 14	 push	 DWORD PTR __Last$[ebp]
  0003d	ff 75 10	 push	 DWORD PTR __First$[ebp]
  00040	50		 push	 eax
  00041	e8 00 00 00 00	 call	 ??$_Insert_range@V?$_List_const_iterator@V?$_List_val@U?$_List_simple_types@UFavoriteVolume@GostCrypt@@@std@@@std@@@std@@@?$list@UFavoriteVolume@GostCrypt@@V?$allocator@UFavoriteVolume@GostCrypt@@@std@@@std@@QAEXV?$_List_unchecked_const_iterator@V?$_List_val@U?$_List_simple_types@UFavoriteVolume@GostCrypt@@@std@@@std@@U_Iterator_base0@2@@1@V?$_List_const_iterator@V?$_List_val@U?$_List_simple_types@UFavoriteVolume@GostCrypt@@@std@@@std@@@1@1Uforward_iterator_tag@1@@Z ; std::list<GostCrypt::FavoriteVolume,std::allocator<GostCrypt::FavoriteVolume> >::_Insert_range<std::_List_const_iterator<std::_List_val<std::_List_simple_types<GostCrypt::FavoriteVolume> > > >

; 1399 : 				_Iter_cat_t<_Iter>());
; 1400 : 			return (++_Prev);

  00046	8b 45 08	 mov	 eax, DWORD PTR ___$ReturnUdt$[ebp]
  00049	8b 0e		 mov	 ecx, DWORD PTR [esi]
  0004b	5e		 pop	 esi
  0004c	5f		 pop	 edi
  0004d	89 08		 mov	 DWORD PTR [eax], ecx

; 1401 : 			}
; 1402 : 		}

  0004f	8b e5		 mov	 esp, ebp
  00051	5d		 pop	 ebp
  00052	c2 10 00	 ret	 16			; 00000010H
??$insert@V?$_List_const_iterator@V?$_List_val@U?$_List_simple_types@UFavoriteVolume@GostCrypt@@@std@@@std@@@std@@@?$list@UFavoriteVolume@GostCrypt@@V?$allocator@UFavoriteVolume@GostCrypt@@@std@@@std@@QAE?AV?$_List_iterator@V?$_List_val@U?$_List_simple_types@UFavoriteVolume@GostCrypt@@@std@@@std@@@1@V?$_List_const_iterator@V?$_List_val@U?$_List_simple_types@UFavoriteVolume@GostCrypt@@@std@@@std@@@1@00@Z ENDP ; std::list<GostCrypt::FavoriteVolume,std::allocator<GostCrypt::FavoriteVolume> >::insert<std::_List_const_iterator<std::_List_val<std::_List_simple_types<GostCrypt::FavoriteVolume> > > >
_TEXT	ENDS
; Function compile flags: /Ogtp
; File c:\program files (x86)\microsoft visual studio 14.0\vc\include\list
;	COMDAT ??F?$_List_iterator@V?$_List_val@U?$_List_simple_types@UFavoriteVolume@GostCrypt@@@std@@@std@@@std@@QAEAAV01@XZ
_TEXT	SEGMENT
??F?$_List_iterator@V?$_List_val@U?$_List_simple_types@UFavoriteVolume@GostCrypt@@@std@@@std@@@std@@QAEAAV01@XZ PROC ; std::_List_iterator<std::_List_val<std::_List_simple_types<GostCrypt::FavoriteVolume> > >::operator--, COMDAT
; _this$ = ecx

; 389  : 		--(*(_Mybase *)this);

  00000	8b 01		 mov	 eax, DWORD PTR [ecx]
  00002	8b 40 04	 mov	 eax, DWORD PTR [eax+4]
  00005	89 01		 mov	 DWORD PTR [ecx], eax

; 390  : 		return (*this);

  00007	8b c1		 mov	 eax, ecx

; 391  : 		}

  00009	c3		 ret	 0
??F?$_List_iterator@V?$_List_val@U?$_List_simple_types@UFavoriteVolume@GostCrypt@@@std@@@std@@@std@@QAEAAV01@XZ ENDP ; std::_List_iterator<std::_List_val<std::_List_simple_types<GostCrypt::FavoriteVolume> > >::operator--
_TEXT	ENDS
; Function compile flags: /Ogtp
; File c:\program files (x86)\microsoft visual studio 14.0\vc\include\list
;	COMDAT ??E?$_List_iterator@V?$_List_val@U?$_List_simple_types@UFavoriteVolume@GostCrypt@@@std@@@std@@@std@@QAEAAV01@XZ
_TEXT	SEGMENT
??E?$_List_iterator@V?$_List_val@U?$_List_simple_types@UFavoriteVolume@GostCrypt@@@std@@@std@@@std@@QAEAAV01@XZ PROC ; std::_List_iterator<std::_List_val<std::_List_simple_types<GostCrypt::FavoriteVolume> > >::operator++, COMDAT
; _this$ = ecx

; 376  : 		++(*(_Mybase *)this);

  00000	8b 01		 mov	 eax, DWORD PTR [ecx]
  00002	8b 00		 mov	 eax, DWORD PTR [eax]
  00004	89 01		 mov	 DWORD PTR [ecx], eax

; 377  : 		return (*this);

  00006	8b c1		 mov	 eax, ecx

; 378  : 		}

  00008	c3		 ret	 0
??E?$_List_iterator@V?$_List_val@U?$_List_simple_types@UFavoriteVolume@GostCrypt@@@std@@@std@@@std@@QAEAAV01@XZ ENDP ; std::_List_iterator<std::_List_val<std::_List_simple_types<GostCrypt::FavoriteVolume> > >::operator++
_TEXT	ENDS
; Function compile flags: /Ogtp
; File c:\program files (x86)\microsoft visual studio 14.0\vc\include\list
;	COMDAT ??0?$_List_iterator@V?$_List_val@U?$_List_simple_types@UFavoriteVolume@GostCrypt@@@std@@@std@@@std@@QAE@PAU?$_List_node@UFavoriteVolume@GostCrypt@@PAX@1@PBV?$_List_val@U?$_List_simple_types@UFavoriteVolume@GostCrypt@@@std@@@1@@Z
_TEXT	SEGMENT
__Pnode$ = 8						; size = 4
__Plist$ = 12						; size = 4
??0?$_List_iterator@V?$_List_val@U?$_List_simple_types@UFavoriteVolume@GostCrypt@@@std@@@std@@@std@@QAE@PAU?$_List_node@UFavoriteVolume@GostCrypt@@PAX@1@PBV?$_List_val@U?$_List_simple_types@UFavoriteVolume@GostCrypt@@@std@@@1@@Z PROC ; std::_List_iterator<std::_List_val<std::_List_simple_types<GostCrypt::FavoriteVolume> > >::_List_iterator<std::_List_val<std::_List_simple_types<GostCrypt::FavoriteVolume> > >, COMDAT
; _this$ = ecx

; 348  : 		{	// construct with node pointer _Pnode

  00000	55		 push	 ebp
  00001	8b ec		 mov	 ebp, esp

; 347  : 		: _Mybase(_Pnode, _Plist)

  00003	8b 45 08	 mov	 eax, DWORD PTR __Pnode$[ebp]
  00006	89 01		 mov	 DWORD PTR [ecx], eax

; 349  : 		}

  00008	8b c1		 mov	 eax, ecx
  0000a	5d		 pop	 ebp
  0000b	c2 08 00	 ret	 8
??0?$_List_iterator@V?$_List_val@U?$_List_simple_types@UFavoriteVolume@GostCrypt@@@std@@@std@@@std@@QAE@PAU?$_List_node@UFavoriteVolume@GostCrypt@@PAX@1@PBV?$_List_val@U?$_List_simple_types@UFavoriteVolume@GostCrypt@@@std@@@1@@Z ENDP ; std::_List_iterator<std::_List_val<std::_List_simple_types<GostCrypt::FavoriteVolume> > >::_List_iterator<std::_List_val<std::_List_simple_types<GostCrypt::FavoriteVolume> > >
_TEXT	ENDS
; Function compile flags: /Ogtp
; File c:\program files (x86)\microsoft visual studio 14.0\vc\include\list
;	COMDAT ??$?0U?$_Wrap_alloc@V?$allocator@U?$_List_node@UFavoriteVolume@GostCrypt@@PAX@std@@@std@@@std@@X@?$_List_buy@UFavoriteVolume@GostCrypt@@V?$allocator@UFavoriteVolume@GostCrypt@@@std@@@std@@QAE@$$QAU?$_Wrap_alloc@V?$allocator@U?$_List_node@UFavoriteVolume@GostCrypt@@PAX@std@@@std@@@1@@Z
_TEXT	SEGMENT
_this$ = -4						; size = 4
__Al$ = 8						; size = 4
??$?0U?$_Wrap_alloc@V?$allocator@U?$_List_node@UFavoriteVolume@GostCrypt@@PAX@std@@@std@@@std@@X@?$_List_buy@UFavoriteVolume@GostCrypt@@V?$allocator@UFavoriteVolume@GostCrypt@@@std@@@std@@QAE@$$QAU?$_Wrap_alloc@V?$allocator@U?$_List_node@UFavoriteVolume@GostCrypt@@PAX@std@@@std@@@1@@Z PROC ; std::_List_buy<GostCrypt::FavoriteVolume,std::allocator<GostCrypt::FavoriteVolume> >::_List_buy<GostCrypt::FavoriteVolume,std::allocator<GostCrypt::FavoriteVolume> ><std::_Wrap_alloc<std::allocator<std::_List_node<GostCrypt::FavoriteVolume,void *> > >,void>, COMDAT
; _this$ = ecx

; 825  : 		{	// construct from allocator

  00000	55		 push	 ebp
  00001	8b ec		 mov	 ebp, esp
  00003	51		 push	 ecx
  00004	56		 push	 esi
  00005	8b f1		 mov	 esi, ecx
  00007	6a 00		 push	 0
  00009	6a 00		 push	 0
  0000b	89 75 fc	 mov	 DWORD PTR _this$[ebp], esi
  0000e	c7 06 00 00 00
	00		 mov	 DWORD PTR [esi], 0
  00014	c7 46 04 00 00
	00 00		 mov	 DWORD PTR [esi+4], 0
  0001b	e8 00 00 00 00	 call	 ?_Buynode0@?$_List_alloc@U?$_List_base_types@UFavoriteVolume@GostCrypt@@V?$allocator@UFavoriteVolume@GostCrypt@@@std@@@std@@@std@@QAEPAU?$_List_node@UFavoriteVolume@GostCrypt@@PAX@2@PAU32@0@Z ; std::_List_alloc<std::_List_base_types<GostCrypt::FavoriteVolume,std::allocator<GostCrypt::FavoriteVolume> > >::_Buynode0
  00020	89 06		 mov	 DWORD PTR [esi], eax

; 826  : 		}

  00022	8b c6		 mov	 eax, esi
  00024	5e		 pop	 esi
  00025	8b e5		 mov	 esp, ebp
  00027	5d		 pop	 ebp
  00028	c2 04 00	 ret	 4
??$?0U?$_Wrap_alloc@V?$allocator@U?$_List_node@UFavoriteVolume@GostCrypt@@PAX@std@@@std@@@std@@X@?$_List_buy@UFavoriteVolume@GostCrypt@@V?$allocator@UFavoriteVolume@GostCrypt@@@std@@@std@@QAE@$$QAU?$_Wrap_alloc@V?$allocator@U?$_List_node@UFavoriteVolume@GostCrypt@@PAX@std@@@std@@@1@@Z ENDP ; std::_List_buy<GostCrypt::FavoriteVolume,std::allocator<GostCrypt::FavoriteVolume> >::_List_buy<GostCrypt::FavoriteVolume,std::allocator<GostCrypt::FavoriteVolume> ><std::_Wrap_alloc<std::allocator<std::_List_node<GostCrypt::FavoriteVolume,void *> > >,void>
_TEXT	ENDS
; Function compile flags: /Ogtp
; File c:\program files (x86)\microsoft visual studio 14.0\vc\include\type_traits
;	COMDAT ??$move@AAU?$_Wrap_alloc@V?$allocator@_W@std@@@std@@@std@@YA$$QAU?$_Wrap_alloc@V?$allocator@_W@std@@@0@AAU10@@Z
_TEXT	SEGMENT
__Arg$ = 8						; size = 4
??$move@AAU?$_Wrap_alloc@V?$allocator@_W@std@@@std@@@std@@YA$$QAU?$_Wrap_alloc@V?$allocator@_W@std@@@0@AAU10@@Z PROC ; std::move<std::_Wrap_alloc<std::allocator<wchar_t> > &>, COMDAT

; 1291 : 	{	// forward _Arg as movable

  00000	55		 push	 ebp
  00001	8b ec		 mov	 ebp, esp

; 1292 : 	return (static_cast<typename remove_reference<_Ty>::type&&>(_Arg));

  00003	8b 45 08	 mov	 eax, DWORD PTR __Arg$[ebp]

; 1293 : 	}

  00006	5d		 pop	 ebp
  00007	c3		 ret	 0
??$move@AAU?$_Wrap_alloc@V?$allocator@_W@std@@@std@@@std@@YA$$QAU?$_Wrap_alloc@V?$allocator@_W@std@@@0@AAU10@@Z ENDP ; std::move<std::_Wrap_alloc<std::allocator<wchar_t> > &>
_TEXT	ENDS
; Function compile flags: /Ogtp
; File c:\program files (x86)\microsoft visual studio 14.0\vc\include\xmemory0
;	COMDAT ??$construct@PAU?$_List_node@UFavoriteVolume@GostCrypt@@PAX@std@@AAPAU12@@?$allocator_traits@V?$allocator@U?$_List_node@UFavoriteVolume@GostCrypt@@PAX@std@@@std@@@std@@SAXAAV?$allocator@U?$_List_node@UFavoriteVolume@GostCrypt@@PAX@std@@@1@PAPAU?$_List_node@UFavoriteVolume@GostCrypt@@PAX@1@AAPAU31@@Z
_TEXT	SEGMENT
__Al$ = 8						; size = 4
__Ptr$ = 12						; size = 4
_<_Args_0>$ = 16					; size = 4
??$construct@PAU?$_List_node@UFavoriteVolume@GostCrypt@@PAX@std@@AAPAU12@@?$allocator_traits@V?$allocator@U?$_List_node@UFavoriteVolume@GostCrypt@@PAX@std@@@std@@@std@@SAXAAV?$allocator@U?$_List_node@UFavoriteVolume@GostCrypt@@PAX@std@@@1@PAPAU?$_List_node@UFavoriteVolume@GostCrypt@@PAX@1@AAPAU31@@Z PROC ; std::allocator_traits<std::allocator<std::_List_node<GostCrypt::FavoriteVolume,void *> > >::construct<std::_List_node<GostCrypt::FavoriteVolume,void *> *,std::_List_node<GostCrypt::FavoriteVolume,void *> * &>, COMDAT

; 856  : 		{	// construct _Objty(_Types...) at _Ptr

  00000	55		 push	 ebp
  00001	8b ec		 mov	 ebp, esp

; 857  : 		_Al.construct(_Ptr, _STD forward<_Types>(_Args)...);

  00003	8b 4d 0c	 mov	 ecx, DWORD PTR __Ptr$[ebp]
  00006	85 c9		 test	 ecx, ecx
  00008	74 07		 je	 SHORT $LN8@construct
  0000a	8b 45 10	 mov	 eax, DWORD PTR _<_Args_0>$[ebp]
  0000d	8b 00		 mov	 eax, DWORD PTR [eax]
  0000f	89 01		 mov	 DWORD PTR [ecx], eax
$LN8@construct:

; 858  : 		}

  00011	5d		 pop	 ebp
  00012	c3		 ret	 0
??$construct@PAU?$_List_node@UFavoriteVolume@GostCrypt@@PAX@std@@AAPAU12@@?$allocator_traits@V?$allocator@U?$_List_node@UFavoriteVolume@GostCrypt@@PAX@std@@@std@@@std@@SAXAAV?$allocator@U?$_List_node@UFavoriteVolume@GostCrypt@@PAX@std@@@1@PAPAU?$_List_node@UFavoriteVolume@GostCrypt@@PAX@1@AAPAU31@@Z ENDP ; std::allocator_traits<std::allocator<std::_List_node<GostCrypt::FavoriteVolume,void *> > >::construct<std::_List_node<GostCrypt::FavoriteVolume,void *> *,std::_List_node<GostCrypt::FavoriteVolume,void *> * &>
_TEXT	ENDS
; Function compile flags: /Ogtp
; File c:\program files (x86)\microsoft visual studio 14.0\vc\include\type_traits
;	COMDAT ??$forward@AAPAU?$_List_node@UFavoriteVolume@GostCrypt@@PAX@std@@@std@@YAAAPAU?$_List_node@UFavoriteVolume@GostCrypt@@PAX@0@AAPAU10@@Z
_TEXT	SEGMENT
__Arg$ = 8						; size = 4
??$forward@AAPAU?$_List_node@UFavoriteVolume@GostCrypt@@PAX@std@@@std@@YAAAPAU?$_List_node@UFavoriteVolume@GostCrypt@@PAX@0@AAPAU10@@Z PROC ; std::forward<std::_List_node<GostCrypt::FavoriteVolume,void *> * &>, COMDAT

; 1275 : 	{	// forward an lvalue as either an lvalue or an rvalue

  00000	55		 push	 ebp
  00001	8b ec		 mov	 ebp, esp

; 1276 : 	return (static_cast<_Ty&&>(_Arg));

  00003	8b 45 08	 mov	 eax, DWORD PTR __Arg$[ebp]

; 1277 : 	}

  00006	5d		 pop	 ebp
  00007	c3		 ret	 0
??$forward@AAPAU?$_List_node@UFavoriteVolume@GostCrypt@@PAX@std@@@std@@YAAAPAU?$_List_node@UFavoriteVolume@GostCrypt@@PAX@0@AAPAU10@@Z ENDP ; std::forward<std::_List_node<GostCrypt::FavoriteVolume,void *> * &>
_TEXT	ENDS
; Function compile flags: /Ogtp
; File c:\program files (x86)\microsoft visual studio 14.0\vc\include\xmemory
;	COMDAT ??$_Uninitialized_move@PAUFavoriteVolume@GostCrypt@@PAU12@V?$allocator@UFavoriteVolume@GostCrypt@@@std@@@std@@YAPAUFavoriteVolume@GostCrypt@@PAU12@00AAU?$_Wrap_alloc@V?$allocator@UFavoriteVolume@GostCrypt@@@std@@@0@@Z
_TEXT	SEGMENT
$T1 = -4						; size = 1
__First$ = 8						; size = 4
