 GostCrypt

 Timestamp is 5888b140 (Wed Jan 25 15:08:00 2017)

 Preferred load address is 00400000

 Start         Length     Name                   Class
 0001:00000000 00000290H .text$di                CODE
 0001:00000290 0008a360H .text$mn                CODE
 0001:0008a5f0 000041b0H .text$x                 CODE
 0001:0008e7a0 0000042dH .text$yd                CODE
 0002:00000000 00000600H .idata$5                DATA
 0002:00000600 00000004H .00cfg                  DATA
 0002:00000604 00000004H .CRT$XCA                DATA
 0002:00000608 00000004H .CRT$XCAA               DATA
 0002:0000060c 0000000cH .CRT$XCC                DATA
 0002:00000618 0000000cH .CRT$XCL                DATA
 0002:00000624 00000028H .CRT$XCU                DATA
 0002:0000064c 00000004H .CRT$XCZ                DATA
 0002:00000650 00000004H .CRT$XIA                DATA
 0002:00000654 00000004H .CRT$XIAA               DATA
 0002:00000658 00000004H .CRT$XIAC               DATA
 0002:0000065c 00000018H .CRT$XIC                DATA
 0002:00000674 00000004H .CRT$XIZ                DATA
 0002:00000678 00000004H .CRT$XLA                DATA
 0002:0000067c 00000004H .CRT$XLZ                DATA
 0002:00000680 00000004H .CRT$XPA                DATA
 0002:00000684 00000008H .CRT$XPX                DATA
 0002:0000068c 00000004H .CRT$XPXA               DATA
 0002:00000690 00000004H .CRT$XPZ                DATA
 0002:00000694 00000004H .CRT$XTA                DATA
 0002:00000698 00000008H .CRT$XTZ                DATA
 0002:000006a0 0001d29cH .rdata                  DATA
 0002:0001d93c 00000018H .rdata$T                DATA
 0002:0001d954 000017bcH .rdata$r                DATA
 0002:0001f110 000003a4H .rdata$sxdata           DATA
 0002:0001f4b4 000003c0H .rdata$zzzdbg           DATA
 0002:0001f874 00000004H .rtc$IAA                DATA
 0002:0001f878 00000004H .rtc$IZZ                DATA
 0002:0001f87c 00000004H .rtc$TAA                DATA
 0002:0001f880 00000008H .rtc$TZZ                DATA
 0002:0001f888 00006274H .xdata$x                DATA
 0002:00025afc 00000000H ATL$__a                 DATA
 0002:00025afc 00000000H ATL$__z                 DATA
 0002:00025afc 00000000H .edata                  DATA
 0002:00025afc 000000dcH .idata$2                DATA
 0002:00025bd8 00000014H .idata$3                DATA
 0002:00025bec 00000600H .idata$4                DATA
 0002:000261ec 00001aeeH .idata$6                DATA
 0003:00000000 00003500H .data                   DATA
 0003:00003500 000012a0H .data$r                 DATA
 0003:000047a0 0002c6dcH .bss                    DATA
 0004:00000000 000000c8H .gfids$x                DATA
 0004:000000c8 000000b8H .gfids$y                DATA
 0005:00000000 00000004H .tls                    DATA
 0005:00000004 00000004H .tls$                   DATA
 0005:00000008 00000001H .tls$ZZZ                DATA
 0006:00000000 00000dd0H .rsrc$01                DATA
 0006:00000dd0 000768e8H .rsrc$02                DATA

  Address         Publics by Value              Rva+Base       Lib:Object

 0000:00000000       ___guard_longjmp_count     00000000     <absolute>
 0000:00000000       __except_list              00000000     <absolute>
 0000:00000000       ___guard_fids_count        00000000     <absolute>
 0000:00000000       ___dynamic_value_reloc_table 00000000     <absolute>
 0000:00000000       ___guard_longjmp_table     00000000     <absolute>
 0000:00000000       ___guard_iat_table         00000000     <absolute>
 0000:00000000       ___guard_iat_count         00000000     <absolute>
 0000:00000000       ___guard_fids_table        00000000     <absolute>
 0000:0000002c       __tls_array                0000002c     <absolute>
 0000:000000e9       ___safe_se_handler_count   000000e9     <absolute>
 0000:00000100       ___guard_flags             00000100     <absolute>
 0000:00000000       ___ImageBase               00400000     <linker-defined>
 0001:00000290       ??$?6U?$char_traits@D@std@@@std@@YAAAV?$basic_ostream@DU?$char_traits@D@std@@@0@AAV10@PBD@Z 00401290 f i BootEncryption.obj
 0001:000005d0       ??$?6_WU?$char_traits@_W@std@@@std@@YAAAV?$basic_ostream@_WU?$char_traits@_W@std@@@0@AAV10@PBD@Z 004015d0 f i BootEncryption.obj
 0001:00000bc0       ??$?HDU?$char_traits@D@std@@V?$allocator@D@1@@std@@YA?AV?$basic_string@DU?$char_traits@D@std@@V?$allocator@D@2@@0@$$QAV10@0@Z 00401bc0 f i BootEncryption.obj
 0001:00000c30       ??$?HDU?$char_traits@D@std@@V?$allocator@D@1@@std@@YA?AV?$basic_string@DU?$char_traits@D@std@@V?$allocator@D@2@@0@$$QAV10@ABV10@@Z 00401c30 f i BootEncryption.obj
 0001:00000c70       ??$?HDU?$char_traits@D@std@@V?$allocator@D@1@@std@@YA?AV?$basic_string@DU?$char_traits@D@std@@V?$allocator@D@2@@0@$$QAV10@D@Z 00401c70 f i BootEncryption.obj
 0001:00000cb0       ??$?HDU?$char_traits@D@std@@V?$allocator@D@1@@std@@YA?AV?$basic_string@DU?$char_traits@D@std@@V?$allocator@D@2@@0@$$QAV10@PBD@Z 00401cb0 f i BootEncryption.obj
 0001:00000d10       ??$?HDU?$char_traits@D@std@@V?$allocator@D@1@@std@@YA?AV?$basic_string@DU?$char_traits@D@std@@V?$allocator@D@2@@0@ABV10@D@Z 00401d10 f i BootEncryption.obj
 0001:00000de0       ??$?HDU?$char_traits@D@std@@V?$allocator@D@1@@std@@YA?AV?$basic_string@DU?$char_traits@D@std@@V?$allocator@D@2@@0@ABV10@PBD@Z 00401de0 f i BootEncryption.obj
 0001:00000ee0       ??$?HDU?$char_traits@D@std@@V?$allocator@D@1@@std@@YA?AV?$basic_string@DU?$char_traits@D@std@@V?$allocator@D@2@@0@PBD$$QAV10@@Z 00401ee0 f i BootEncryption.obj
 0001:00000f40       ??$?H_WU?$char_traits@_W@std@@V?$allocator@_W@1@@std@@YA?AV?$basic_string@_WU?$char_traits@_W@std@@V?$allocator@_W@2@@0@$$QAV10@0@Z 00401f40 f i BootEncryption.obj
 0001:00000fb0       ??$?H_WU?$char_traits@_W@std@@V?$allocator@_W@1@@std@@YA?AV?$basic_string@_WU?$char_traits@_W@std@@V?$allocator@_W@2@@0@$$QAV10@PB_W@Z 00401fb0 f i BootEncryption.obj
 0001:00001010       ??$?H_WU?$char_traits@_W@std@@V?$allocator@_W@1@@std@@YA?AV?$basic_string@_WU?$char_traits@_W@std@@V?$allocator@_W@2@@0@ABV10@PB_W@Z 00402010 f i BootEncryption.obj
 0001:00001120       ??$GetContainerForward@V?$list@UPartition@GostCrypt@@V?$allocator@UPartition@GostCrypt@@@std@@@std@@@ForEach@GostCrypt@@SA?AU?$ContainerForward@V?$list@UPartition@GostCrypt@@V?$allocator@UPartition@GostCrypt@@@std@@@std@@@01@ABV?$list@UPartition@GostCrypt@@V?$allocator@UPartition@GostCrypt@@@std@@@std@@@Z 00402120 f i BootEncryption.obj
 0001:00001190       ??$_Buynode@ABUPartition@GostCrypt@@@?$_List_buy@UPartition@GostCrypt@@V?$allocator@UPartition@GostCrypt@@@std@@@std@@QAEPAU?$_List_node@UPartition@GostCrypt@@PAX@1@PAU21@0ABUPartition@GostCrypt@@@Z 00402190 f i BootEncryption.obj
 0001:00001220       ??$_Immortalize@V_Iostream_error_category@std@@@std@@YAAAV_Iostream_error_category@0@XZ 00402220 f i BootEncryption.obj
 0001:00001290       ??$_Insert_range@V?$_List_const_iterator@V?$_List_val@U?$_List_simple_types@UPartition@GostCrypt@@@std@@@std@@@std@@@?$list@UPartition@GostCrypt@@V?$allocator@UPartition@GostCrypt@@@std@@@std@@QAEXV?$_List_unchecked_const_iterator@V?$_List_val@U?$_List_simple_types@UPartition@GostCrypt@@@std@@@std@@U_Iterator_base0@2@@1@V?$_List_const_iterator@V?$_List_val@U?$_List_simple_types@UPartition@GostCrypt@@@std@@@std@@@1@1Uforward_iterator_tag@1@@Z 00402290 f i BootEncryption.obj
 0001:00001360       ??$_Reusenode@ABUPartition@GostCrypt@@@?$list@UPartition@GostCrypt@@V?$allocator@UPartition@GostCrypt@@@std@@@std@@QAEXV?$_List_iterator@V?$_List_val@U?$_List_simple_types@UPartition@GostCrypt@@@std@@@std@@@1@ABUPartition@GostCrypt@@@Z 00402360 f i BootEncryption.obj
 0001:00001400       ??$assign@V?$_List_const_iterator@V?$_List_val@U?$_List_simple_types@UPartition@GostCrypt@@@std@@@std@@@std@@@?$list@UPartition@GostCrypt@@V?$allocator@UPartition@GostCrypt@@@std@@@std@@QAEXV?$_List_const_iterator@V?$_List_val@U?$_List_simple_types@UPartition@GostCrypt@@@std@@@std@@@1@0@Z 00402400 f i BootEncryption.obj
 0001:000014e0       ??$use_facet@V?$ctype@D@std@@@std@@YAABV?$ctype@D@0@ABVlocale@0@@Z 004024e0 f i BootEncryption.obj
 0001:00001610       ??$use_facet@V?$ctype@_W@std@@@std@@YAABV?$ctype@_W@0@ABVlocale@0@@Z 00402610 f i BootEncryption.obj
 0001:00001740       ??$use_facet@V?$num_put@DV?$ostreambuf_iterator@DU?$char_traits@D@std@@@std@@@std@@@std@@YAABV?$num_put@DV?$ostreambuf_iterator@DU?$char_traits@D@std@@@std@@@0@ABVlocale@0@@Z 00402740 f i BootEncryption.obj
 0001:00001870       ??$use_facet@V?$numpunct@D@std@@@std@@YAABV?$numpunct@D@0@ABVlocale@0@@Z 00402870 f i BootEncryption.obj
 0001:000019a0       ??0?$basic_iostream@DU?$char_traits@D@std@@@std@@QAE@PAV?$basic_streambuf@DU?$char_traits@D@std@@@1@@Z 004029a0 f i BootEncryption.obj
 0001:00001a80       ??0?$basic_iostream@_WU?$char_traits@_W@std@@@std@@QAE@PAV?$basic_streambuf@_WU?$char_traits@_W@std@@@1@@Z 00402a80 f i BootEncryption.obj
 0001:00001b60       ??0?$basic_streambuf@DU?$char_traits@D@std@@@std@@IAE@XZ 00402b60 f i BootEncryption.obj
 0001:00001c30       ??0?$basic_streambuf@_WU?$char_traits@_W@std@@@std@@IAE@XZ 00402c30 f i BootEncryption.obj
 0001:00001d00       ??0?$basic_string@DU?$char_traits@D@std@@V?$allocator@D@2@@std@@QAE@PBD@Z 00402d00 f i BootEncryption.obj
 0001:00001d60       ??0?$basic_string@_WU?$char_traits@_W@std@@V?$allocator@_W@2@@std@@QAE@PB_W@Z 00402d60 f i BootEncryption.obj
 0001:00001dc0       ??0?$basic_stringstream@DU?$char_traits@D@std@@V?$allocator@D@2@@std@@QAE@H@Z 00402dc0 f i BootEncryption.obj
 0001:00001eb0       ??0?$ctype@_W@std@@QAE@ABV_Locinfo@1@I@Z 00402eb0 f i BootEncryption.obj
 0001:00001f10       ??0?$list@UPartition@GostCrypt@@V?$allocator@UPartition@GostCrypt@@@std@@@std@@QAE@ABV01@@Z 00402f10 f i BootEncryption.obj
 0001:00001fb0       ??0BootEncryption@GostCrypt@@QAE@PAUHWND__@@@Z 00402fb0 f   BootEncryption.obj
 0001:00002040       ??0CComBSTR@ATL@@QAE@PBD@Z 00403040 f i BootEncryption.obj
 0001:000020d0       ??0Device@GostCrypt@@QAE@V?$basic_string@DU?$char_traits@D@std@@V?$allocator@D@2@@std@@_N@Z 004030d0 f   BootEncryption.obj
 0001:000022a0       ??0ErrorException@GostCrypt@@QAE@ABU01@@Z 004032a0 f i BootEncryption.obj
 0001:000022f0       ??0Exception@GostCrypt@@QAE@ABU01@@Z 004032f0 f i BootEncryption.obj
 0001:00002300       ??0File@GostCrypt@@QAE@V?$basic_string@DU?$char_traits@D@std@@V?$allocator@D@2@@std@@_N1@Z 00403300 f   BootEncryption.obj
 0001:000024d0       ??0ParameterIncorrect@GostCrypt@@QAE@ABU01@@Z 004034d0 f i BootEncryption.obj
 0001:000024f0       ??0Partition@GostCrypt@@QAE@ABU01@@Z 004034f0 f i BootEncryption.obj
 0001:000025e0       ??0SystemDriveConfiguration@GostCrypt@@QAE@ABU01@@Z 004035e0 f i BootEncryption.obj
 0001:00002720       ??0SystemDriveConfiguration@GostCrypt@@QAE@XZ 00403720 f i BootEncryption.obj
 0001:00002880       ??0SystemException@GostCrypt@@QAE@ABU01@@Z 00403880 f i BootEncryption.obj
 0001:000028a0       ??0UserAbort@GostCrypt@@QAE@ABU01@@Z 004038a0 f i BootEncryption.obj
 0001:000028b0       ??0_Locinfo@std@@QAE@PBD@Z 004038b0 f i BootEncryption.obj
 0001:00002990       ??0_System_error@std@@IAE@Verror_code@1@ABV?$basic_string@DU?$char_traits@D@std@@V?$allocator@D@2@@1@@Z 00403990 f i BootEncryption.obj
 0001:00002a50       ??0_System_error@std@@QAE@ABV01@@Z 00403a50 f i BootEncryption.obj
 0001:00002aa0       ??0bad_alloc@std@@QAE@ABV01@@Z 00403aa0 f i BootEncryption.obj
 0001:00002ae0       ??0bad_cast@std@@QAE@ABV01@@Z 00403ae0 f i BootEncryption.obj
 0001:00002b20       ??0exception@std@@QAE@ABV01@@Z 00403b20 f i BootEncryption.obj
 0001:00002b50       ??0failure@ios_base@std@@QAE@ABV012@@Z 00403b50 f i BootEncryption.obj
 0001:00002ba0       ??0runtime_error@std@@QAE@ABV01@@Z 00403ba0 f i BootEncryption.obj
 0001:00002be0       ??0sentry@?$basic_ostream@DU?$char_traits@D@std@@@std@@QAE@AAV12@@Z 00403be0 f i BootEncryption.obj
 0001:00002be0       ??0sentry@?$basic_ostream@_WU?$char_traits@_W@std@@@std@@QAE@AAV12@@Z 00403be0 f i BootEncryption.obj
 0001:00002c70       ??0system_error@std@@QAE@ABV01@@Z 00403c70 f i BootEncryption.obj
 0001:00002cc0       ??0system_error@std@@QAE@Verror_code@1@PBD@Z 00403cc0 f i BootEncryption.obj
 0001:00002d80       ??1?$CAtlSafeAllocBufferManager@VCCRTAllocator@ATL@@@_ATL_SAFE_ALLOCA_IMPL@ATL@@QAE@XZ 00403d80 f i BootEncryption.obj
 0001:00002da0       ??1?$ContainerForward@V?$list@UPartition@GostCrypt@@V?$allocator@UPartition@GostCrypt@@@std@@@std@@@ForEach@GostCrypt@@UAE@XZ 00403da0 f i BootEncryption.obj
 0001:00002dc0       ??1?$_Yarn@_W@std@@QAE@XZ  00403dc0 f i BootEncryption.obj
 0001:00002dc0       ??1?$_Yarn@D@std@@QAE@XZ   00403dc0 f i BootEncryption.obj
 0001:00002de0       ??1?$basic_ios@DU?$char_traits@D@std@@@std@@UAE@XZ 00403de0 f i BootEncryption.obj
 0001:00002de0       ??1?$basic_ios@_WU?$char_traits@_W@std@@@std@@UAE@XZ 00403de0 f i BootEncryption.obj
 0001:00002e30       ??1?$basic_iostream@DU?$char_traits@D@std@@@std@@UAE@XZ 00403e30 f i BootEncryption.obj
 0001:00002e90       ??1?$basic_iostream@_WU?$char_traits@_W@std@@@std@@UAE@XZ 00403e90 f i BootEncryption.obj
 0001:00002ef0       ??1?$basic_istream@DU?$char_traits@D@std@@@std@@UAE@XZ 00403ef0 f i BootEncryption.obj
 0001:00002f10       ??1?$basic_istream@_WU?$char_traits@_W@std@@@std@@UAE@XZ 00403f10 f i BootEncryption.obj
 0001:00002f30       ??1?$basic_streambuf@DU?$char_traits@D@std@@@std@@UAE@XZ 00403f30 f i BootEncryption.obj
 0001:00002fa0       ??1?$basic_streambuf@_WU?$char_traits@_W@std@@@std@@UAE@XZ 00403fa0 f i BootEncryption.obj
 0001:00003010       ??1?$basic_string@DU?$char_traits@D@std@@V?$allocator@D@2@@std@@QAE@XZ 00404010 f i BootEncryption.obj
 0001:00003050       ??1?$basic_stringstream@DU?$char_traits@D@std@@V?$allocator@D@2@@std@@UAE@XZ 00404050 f i BootEncryption.obj
 0001:00003140       ??1?$basic_stringstream@_WU?$char_traits@_W@std@@V?$allocator@_W@2@@std@@UAE@XZ 00404140 f i BootEncryption.obj
 0001:00003230       ??1?$list@UPartition@GostCrypt@@V?$allocator@UPartition@GostCrypt@@@std@@@std@@QAE@XZ 00404230 f i BootEncryption.obj
 0001:00003250       ??1BootEncryption@GostCrypt@@QAE@XZ 00404250 f   BootEncryption.obj
 0001:000032e0       ??1Buffer@GostCrypt@@QAE@XZ 004042e0 f i BootEncryption.obj
 0001:000032f0       ??1CComBSTR@ATL@@QAE@XZ    004042f0 f i BootEncryption.obj
 0001:00003300       ??1Container@ForEach@GostCrypt@@UAE@XZ 00404300 f i BootEncryption.obj
 0001:00003310       ??1ErrorException@GostCrypt@@QAE@XZ 00404310 f i BootEncryption.obj
 0001:00003350       ??1Device@GostCrypt@@QAE@XZ 00404350 f i BootEncryption.obj
 0001:00003350       ??1File@GostCrypt@@QAE@XZ  00404350 f i BootEncryption.obj
 0001:00003490       ??1Partition@GostCrypt@@QAE@XZ 00404490 f i BootEncryption.obj
 0001:00003530       ??1SystemDriveConfiguration@GostCrypt@@QAE@XZ 00404530 f i BootEncryption.obj
 0001:000035d0       ??1_Locinfo@std@@QAE@XZ    004045d0 f i BootEncryption.obj
 0001:000036a0       ??1_Sentry_base@?$basic_ostream@DU?$char_traits@D@std@@@std@@QAE@XZ 004046a0 f i BootEncryption.obj
 0001:000036a0       ??1_Sentry_base@?$basic_ostream@_WU?$char_traits@_W@std@@@std@@QAE@XZ 004046a0 f i BootEncryption.obj
 0001:000036f0       ??1facet@locale@std@@MAE@XZ 004046f0 f i BootEncryption.obj
 0001:00003700       ??1locale@std@@QAE@XZ      00404700 f i BootEncryption.obj
 0001:00003750       ??1bad_cast@std@@UAE@XZ    00404750 f i BootEncryption.obj
 0001:00003750       ??1bad_alloc@std@@UAE@XZ   00404750 f i BootEncryption.obj
 0001:00003750       ??1bad_array_new_length@std@@UAE@XZ 00404750 f i LIBCMT:throw_bad_alloc.obj
 0001:00003750       ??1runtime_error@std@@UAE@XZ 00404750 f i BootEncryption.obj
 0001:00003750       ??1bad_exception@std@@UAE@XZ 00404750 f i libvcruntime:frame.obj
 0001:00003750       ??1length_error@std@@UAE@XZ 00404750 f i libcpmt:xthrow.obj
 0001:00003750       ??1failure@ios_base@std@@UAE@XZ 00404750 f i BootEncryption.obj
 0001:00003750       ??1out_of_range@std@@UAE@XZ 00404750 f i libcpmt:xthrow.obj
 0001:00003770       ??1sentry@?$basic_ostream@DU?$char_traits@D@std@@@std@@QAE@XZ 00404770 f i BootEncryption.obj
 0001:00003770       ??1sentry@?$basic_ostream@_WU?$char_traits@_W@std@@@std@@QAE@XZ 00404770 f i BootEncryption.obj
 0001:000037d0       ??4?$basic_string@DU?$char_traits@D@std@@V?$allocator@D@2@@std@@QAEAAV01@$$QAV01@@Z 004047d0 f i BootEncryption.obj
 0001:00003850       ??4?$basic_string@DU?$char_traits@D@std@@V?$allocator@D@2@@std@@QAEAAV01@PBD@Z 00404850 f i BootEncryption.obj
 0001:00003890       ??4?$basic_string@_WU?$char_traits@_W@std@@V?$allocator@_W@2@@std@@QAEAAV01@PB_W@Z 00404890 f i BootEncryption.obj
 0001:000038e0       ??4Partition@GostCrypt@@QAEAAU01@ABU01@@Z 004048e0 f i BootEncryption.obj
 0001:00003950       ??4SystemDriveConfiguration@GostCrypt@@QAEAAU01@ABU01@@Z 00404950 f i BootEncryption.obj
 0001:00003ac0       ??6?$basic_ostream@DU?$char_traits@D@std@@@std@@QAEAAV01@H@Z 00404ac0 f i BootEncryption.obj
 0001:00003d00       ??Y?$basic_string@DU?$char_traits@D@std@@V?$allocator@D@2@@std@@QAEAAV01@PBD@Z 00404d00 f i BootEncryption.obj
 0001:00003d40       ??_D?$basic_iostream@DU?$char_traits@D@std@@@std@@QAEXXZ 00404d40 f i BootEncryption.obj
 0001:00003de0       ??_D?$basic_iostream@_WU?$char_traits@_W@std@@@std@@QAEXXZ 00404de0 f i BootEncryption.obj
 0001:00003e80       ??_D?$basic_stringstream@DU?$char_traits@D@std@@V?$allocator@D@2@@std@@QAEXXZ 00404e80 f i BootEncryption.obj
 0001:00003ee0       ??_D?$basic_stringstream@_WU?$char_traits@_W@std@@V?$allocator@_W@2@@std@@QAEXXZ 00404ee0 f i BootEncryption.obj
 0001:00003f33       ??_E?$basic_iostream@DU?$char_traits@D@std@@@std@@$4PPPPPPPM@A@AEPAXI@Z 00404f33 f i BootEncryption.obj
 0001:00003f3b       ??_E?$basic_iostream@_WU?$char_traits@_W@std@@@std@@$4PPPPPPPM@A@AEPAXI@Z 00404f3b f i BootEncryption.obj
 0001:00003f43       ??_E?$basic_istream@DU?$char_traits@D@std@@@std@@$4PPPPPPPM@A@AEPAXI@Z 00404f43 f i BootEncryption.obj
 0001:00003f4b       ??_E?$basic_istream@_WU?$char_traits@_W@std@@@std@@$4PPPPPPPM@A@AEPAXI@Z 00404f4b f i BootEncryption.obj
 0001:00003f53       ??_E?$basic_ostream@DU?$char_traits@D@std@@@std@@$4PPPPPPPM@A@AEPAXI@Z 00404f53 f i BootEncryption.obj
 0001:00003f5b       ??_E?$basic_ostream@_WU?$char_traits@_W@std@@@std@@$4PPPPPPPM@A@AEPAXI@Z 00404f5b f i BootEncryption.obj
 0001:00003f63       ??_E?$basic_stringstream@DU?$char_traits@D@std@@V?$allocator@D@2@@std@@$4PPPPPPPM@A@AEPAXI@Z 00404f63 f i BootEncryption.obj
 0001:00003f6b       ??_E?$basic_stringstream@_WU?$char_traits@_W@std@@V?$allocator@_W@2@@std@@$4PPPPPPPM@A@AEPAXI@Z 00404f6b f i BootEncryption.obj
 0001:00003f80       ??_G?$ContainerForward@V?$list@UPartition@GostCrypt@@V?$allocator@UPartition@GostCrypt@@@std@@@std@@@ForEach@GostCrypt@@UAEPAXI@Z 00404f80 f i BootEncryption.obj
 0001:00003f80       ??_E?$ContainerForward@V?$list@UPartition@GostCrypt@@V?$allocator@UPartition@GostCrypt@@@std@@@std@@@ForEach@GostCrypt@@UAEPAXI@Z 00404f80 f i BootEncryption.obj
 0001:00003fc0       ??_E?$basic_ios@DU?$char_traits@D@std@@@std@@UAEPAXI@Z 00404fc0 f i BootEncryption.obj
 0001:00003fc0       ??_G?$basic_ios@DU?$char_traits@D@std@@@std@@UAEPAXI@Z 00404fc0 f i BootEncryption.obj
 0001:00003fc0       ??_E?$basic_ios@_WU?$char_traits@_W@std@@@std@@UAEPAXI@Z 00404fc0 f i BootEncryption.obj
 0001:00003fc0       ??_G?$basic_ios@_WU?$char_traits@_W@std@@@std@@UAEPAXI@Z 00404fc0 f i BootEncryption.obj
 0001:00004020       ??_G?$basic_iostream@DU?$char_traits@D@std@@@std@@UAEPAXI@Z 00405020 f i BootEncryption.obj
 0001:00004020       ??_E?$basic_iostream@DU?$char_traits@D@std@@@std@@UAEPAXI@Z 00405020 f i BootEncryption.obj
 0001:00004050       ??_E?$basic_iostream@_WU?$char_traits@_W@std@@@std@@UAEPAXI@Z 00405050 f i BootEncryption.obj
 0001:00004050       ??_G?$basic_iostream@_WU?$char_traits@_W@std@@@std@@UAEPAXI@Z 00405050 f i BootEncryption.obj
 0001:00004080       ??_E?$basic_istream@DU?$char_traits@D@std@@@std@@UAEPAXI@Z 00405080 f i BootEncryption.obj
 0001:00004080       ??_G?$basic_istream@DU?$char_traits@D@std@@@std@@UAEPAXI@Z 00405080 f i BootEncryption.obj
 0001:00004100       ??_G?$basic_istream@_WU?$char_traits@_W@std@@@std@@UAEPAXI@Z 00405100 f i BootEncryption.obj
 0001:00004100       ??_E?$basic_istream@_WU?$char_traits@_W@std@@@std@@UAEPAXI@Z 00405100 f i BootEncryption.obj
 0001:00004180       ??_G?$basic_ostream@DU?$char_traits@D@std@@@std@@UAEPAXI@Z 00405180 f i BootEncryption.obj
 0001:00004180       ??_E?$basic_ostream@DU?$char_traits@D@std@@@std@@UAEPAXI@Z 00405180 f i BootEncryption.obj
 0001:00004200       ??_G?$basic_ostream@_WU?$char_traits@_W@std@@@std@@UAEPAXI@Z 00405200 f i BootEncryption.obj
 0001:00004200       ??_E?$basic_ostream@_WU?$char_traits@_W@std@@@std@@UAEPAXI@Z 00405200 f i BootEncryption.obj
 0001:00004280       ??_E?$basic_streambuf@DU?$char_traits@D@std@@@std@@UAEPAXI@Z 00405280 f i BootEncryption.obj
 0001:00004280       ??_G?$basic_streambuf@DU?$char_traits@D@std@@@std@@UAEPAXI@Z 00405280 f i BootEncryption.obj
 0001:00004310       ??_E?$basic_streambuf@_WU?$char_traits@_W@std@@@std@@UAEPAXI@Z 00405310 f i BootEncryption.obj
 0001:00004310       ??_G?$basic_streambuf@_WU?$char_traits@_W@std@@@std@@UAEPAXI@Z 00405310 f i BootEncryption.obj
 0001:000043a0       ??_E?$basic_stringbuf@DU?$char_traits@D@std@@V?$allocator@D@2@@std@@UAEPAXI@Z 004053a0 f i BootEncryption.obj
 0001:000043a0       ??_G?$basic_stringbuf@DU?$char_traits@D@std@@V?$allocator@D@2@@std@@UAEPAXI@Z 004053a0 f i BootEncryption.obj
 0001:00004430       ??_G?$basic_stringbuf@_WU?$char_traits@_W@std@@V?$allocator@_W@2@@std@@UAEPAXI@Z 00405430 f i BootEncryption.obj
 0001:00004430       ??_E?$basic_stringbuf@_WU?$char_traits@_W@std@@V?$allocator@_W@2@@std@@UAEPAXI@Z 00405430 f i BootEncryption.obj
 0001:000044c0       ??_E?$basic_stringstream@DU?$char_traits@D@std@@V?$allocator@D@2@@std@@UAEPAXI@Z 004054c0 f i BootEncryption.obj
 0001:000044c0       ??_G?$basic_stringstream@DU?$char_traits@D@std@@V?$allocator@D@2@@std@@UAEPAXI@Z 004054c0 f i BootEncryption.obj
 0001:00004530       ??_G?$basic_stringstream@_WU?$char_traits@_W@std@@V?$allocator@_W@2@@std@@UAEPAXI@Z 00405530 f i BootEncryption.obj
 0001:00004530       ??_E?$basic_stringstream@_WU?$char_traits@_W@std@@V?$allocator@_W@2@@std@@UAEPAXI@Z 00405530 f i BootEncryption.obj
 0001:000045a0       ??_E?$ctype@D@std@@MAEPAXI@Z 004055a0 f i BootEncryption.obj
 0001:000045a0       ??_G?$ctype@D@std@@MAEPAXI@Z 004055a0 f i BootEncryption.obj
 0001:00004600       ??_G?$ctype@_W@std@@MAEPAXI@Z 00405600 f i BootEncryption.obj
 0001:00004600       ??_E?$ctype@_W@std@@MAEPAXI@Z 00405600 f i BootEncryption.obj
 0001:00004650       ??_E?$numpunct@D@std@@MAEPAXI@Z 00405650 f i BootEncryption.obj
 0001:00004650       ??_G?$numpunct@D@std@@MAEPAXI@Z 00405650 f i BootEncryption.obj
 0001:000046a0       ??_EContainer@ForEach@GostCrypt@@UAEPAXI@Z 004056a0 f i BootEncryption.obj
 0001:000046a0       ??_GContainer@ForEach@GostCrypt@@UAEPAXI@Z 004056a0 f i BootEncryption.obj
 0001:000046d0       ??_E_Facet_base@std@@UAEPAXI@Z 004056d0 f i BootEncryption.obj
 0001:000046d0       ??_G_Facet_base@std@@UAEPAXI@Z 004056d0 f i BootEncryption.obj
 0001:00004700       ??_G_Iostream_error_category@std@@UAEPAXI@Z 00405700 f i BootEncryption.obj
 0001:00004700       ??_Eerror_category@std@@UAEPAXI@Z 00405700 f i BootEncryption.obj
 0001:00004700       ??_Gerror_category@std@@UAEPAXI@Z 00405700 f i BootEncryption.obj
 0001:00004700       ??_E_Iostream_error_category@std@@UAEPAXI@Z 00405700 f i BootEncryption.obj
 0001:00004730       ??_Gios_base@std@@UAEPAXI@Z 00405730 f i BootEncryption.obj
 0001:00004730       ??_Eios_base@std@@UAEPAXI@Z 00405730 f i BootEncryption.obj
 0001:00004790       ??_Gexception@std@@UAEPAXI@Z 00405790 f i BootEncryption.obj
 0001:00004790       ??_Gbad_cast@std@@UAEPAXI@Z 00405790 f i BootEncryption.obj
 0001:00004790       ??_Ebad_cast@std@@UAEPAXI@Z 00405790 f i BootEncryption.obj
 0001:00004790       ??_Ebad_alloc@std@@UAEPAXI@Z 00405790 f i BootEncryption.obj
 0001:00004790       ??_Eexception@std@@UAEPAXI@Z 00405790 f i BootEncryption.obj
 0001:00004790       ??_Eruntime_error@std@@UAEPAXI@Z 00405790 f i BootEncryption.obj
 0001:00004790       ??_Gbad_alloc@std@@UAEPAXI@Z 00405790 f i BootEncryption.obj
 0001:00004790       ??_Gruntime_error@std@@UAEPAXI@Z 00405790 f i BootEncryption.obj
 0001:000047c0       ??_E_System_error@std@@UAEPAXI@Z 004057c0 f i BootEncryption.obj
 0001:000047c0       ??_Esystem_error@std@@UAEPAXI@Z 004057c0 f i BootEncryption.obj
 0001:000047c0       ??_Gsystem_error@std@@UAEPAXI@Z 004057c0 f i BootEncryption.obj
 0001:000047c0       ??_G_System_error@std@@UAEPAXI@Z 004057c0 f i BootEncryption.obj
 0001:000047c0       ??_Gfailure@ios_base@std@@UAEPAXI@Z 004057c0 f i BootEncryption.obj
 0001:000047c0       ??_Efailure@ios_base@std@@UAEPAXI@Z 004057c0 f i BootEncryption.obj
 0001:000047f0       ?AbortSetup@BootEncryption@GostCrypt@@QAEXXZ 004057f0 f   BootEncryption.obj
 0001:00004810       ?AppendBytes@CComBSTR@ATL@@QAEJPBDH@Z 00405810 f i BootEncryption.obj
 0001:000048d0       ?AtlCrtErrorCheck@ATL@@YAHH@Z 004058d0 f i BootEncryption.obj
 0001:00004970       ?AtlThrowImpl@ATL@@YGXJ@Z  00405970 f i BootEncryption.obj
 0001:00004990       ?CallDriver@BootEncryption@GostCrypt@@QAEXKPAXK0K@Z 00405990 f   BootEncryption.obj
 0001:00004a60       ?CallDriver@Elevator@GostCrypt@@SAXKPAXK0K@Z 00405a60 f i BootEncryption.obj
 0001:00004b80       ?ChangePassword@BootEncryption@GostCrypt@@QAEHPAUPassword@@0H@Z 00405b80 f   BootEncryption.obj
 0001:000052f0       ?Close@File@GostCrypt@@QAEXXZ 004062f0 f   BootEncryption.obj
 0001:00005310       ?CopyFileA@Elevator@GostCrypt@@SAXABV?$basic_string@DU?$char_traits@D@std@@V?$allocator@D@2@@std@@0@Z 00406310 f i BootEncryption.obj
 0001:000053e0       ?CopyFileAdmin@BootEncryption@GostCrypt@@QAEXABV?$basic_string@DU?$char_traits@D@std@@V?$allocator@D@2@@std@@0@Z 004063e0 f   BootEncryption.obj
 0001:00005460       ?CreateBootLoaderInMemory@BootEncryption@GostCrypt@@IAEXPAEI_N1@Z 00406460 f   BootEncryption.obj
 0001:00005880       ?CreateRescueIsoImage@BootEncryption@GostCrypt@@QAEX_NABV?$basic_string@DU?$char_traits@D@std@@V?$allocator@D@2@@std@@@Z 00406880 f   BootEncryption.obj
 0001:00005d80       ?DeleteFileA@Elevator@GostCrypt@@SAXABV?$basic_string@DU?$char_traits@D@std@@V?$allocator@D@2@@std@@@Z 00406d80 f i BootEncryption.obj
 0001:00005e20       ?DeleteFileAdmin@BootEncryption@GostCrypt@@QAEXABV?$basic_string@DU?$char_traits@D@std@@V?$allocator@D@2@@std@@@Z 00406e20 f   BootEncryption.obj
 0001:00005e80       ?Elevate@Elevator@GostCrypt@@KAXXZ 00406e80 f i BootEncryption.obj
 0001:00005f10       ?GetChecksum@BootEncryption@GostCrypt@@IAEIPAEI@Z 00406f10 f   BootEncryption.obj
 0001:00005f40       ?GetDrivePartitions@BootEncryption@GostCrypt@@IAE?AV?$list@UPartition@GostCrypt@@V?$allocator@UPartition@GostCrypt@@@std@@@std@@H@Z 00406f40 f   BootEncryption.obj
 0001:000067a0       ?GetHiddenOSCreationPhase@BootEncryption@GostCrypt@@QAEIXZ 004077a0 f   BootEncryption.obj
 0001:000067d0       ?GetInstalledBootLoaderVersion@BootEncryption@GostCrypt@@QAEGXZ 004077d0 f   BootEncryption.obj
 0001:000067f0       ?GetStatus@BootEncryption@GostCrypt@@QAE?AUBootEncryptionStatus@@XZ 004077f0 f   BootEncryption.obj
 0001:00006810       ?GetSystemDriveConfiguration@BootEncryption@GostCrypt@@QAE?AUSystemDriveConfiguration@2@XZ 00407810 f   BootEncryption.obj
 0001:00007320       ?GetSystemLoaderBackupPath@BootEncryption@GostCrypt@@IAE?AV?$basic_string@DU?$char_traits@D@std@@V?$allocator@D@2@@std@@XZ 00408320 f   BootEncryption.obj
 0001:00007510       ?GetTempPathA@BootEncryption@GostCrypt@@QAE?AV?$basic_string@DU?$char_traits@D@std@@V?$allocator@D@2@@std@@XZ 00408510 f   BootEncryption.obj
 0001:000075a0       ?GetVolumeProperties@BootEncryption@GostCrypt@@QAEXPAUVOLUME_PROPERTIES_STRUCT@@@Z 004085a0 f   BootEncryption.obj
 0001:000075f0       ?GetWindowsDirectoryA@BootEncryption@GostCrypt@@IAE?AV?$basic_string@DU?$char_traits@D@std@@V?$allocator@D@2@@std@@XZ 004085f0 f   BootEncryption.obj
 0001:000076b0       ?IsBootLoaderOnDrive@BootEncryption@GostCrypt@@QAE_NPAD@Z 004086b0 f   BootEncryption.obj
 0001:00007770       ?IsHiddenSystemRunning@BootEncryption@GostCrypt@@QAE_NXZ 00408770 f   BootEncryption.obj
 0001:000077a0       ?Read@File@GostCrypt@@QAEKPAEK@Z 004087a0 f   BootEncryption.obj
 0001:00007830       ?ReadBootSectorConfig@BootEncryption@GostCrypt@@QAEXPAEI0PAV?$basic_string@DU?$char_traits@D@std@@V?$allocator@D@2@@std@@PAG@Z 00408830 f   BootEncryption.obj
 0001:000079d0       ?ReadDriverConfigurationFlags@BootEncryption@GostCrypt@@QAEIXZ 004089d0 f   BootEncryption.obj
 0001:000079d0       _ReadDriverConfigurationFlags 004089d0 f   Dlgcode.obj
 0001:00007a00       ?ReadWriteFile@Elevator@GostCrypt@@SAXHHABV?$basic_string@DU?$char_traits@D@std@@V?$allocator@D@2@@std@@PAE_KIPAK@Z 00408a00 f i BootEncryption.obj
 0001:00007b10       ?RegisterBootDriver@BootEncryption@GostCrypt@@QAEX_N@Z 00408b10 f   BootEncryption.obj
 0001:00007eb0       ?RegisterFilter@BootEncryption@GostCrypt@@IAEX_NW4FilterType@12@PBU_GUID@@@Z 00408eb0 f   BootEncryption.obj
 0001:00008500       ?RegisterFilterDriver@BootEncryption@GostCrypt@@QAEX_NW4FilterType@12@@Z 00409500 f   BootEncryption.obj
 0001:000085c0       ?RegisterFilterDriver@Elevator@GostCrypt@@SAX_NW4FilterType@BootEncryption@2@@Z 004095c0 f i BootEncryption.obj
 0001:00008620       ?RegisterSystemFavoritesService@BootEncryption@GostCrypt@@QAEXH@Z 00409620 f   BootEncryption.obj
 0001:000089d0       ?RegisterSystemFavoritesService@Elevator@GostCrypt@@SAXH@Z 004099d0 f i BootEncryption.obj
 0001:00008a20       ?SeekAt@File@GostCrypt@@QAEX_J@Z 00409a20 f   BootEncryption.obj
 0001:00008a70       ?SetDriverConfigurationFlag@BootEncryption@GostCrypt@@QAEXI_N@Z 00409a70 f   BootEncryption.obj
 0001:00008b10       ?SetDriverServiceStartType@BootEncryption@GostCrypt@@QAEXK@Z 00409b10 f   BootEncryption.obj
 0001:00008e40       ?SetDriverServiceStartType@Elevator@GostCrypt@@SAXK@Z 00409e40 f i BootEncryption.obj
 0001:00008e90       ?Show@ErrorException@GostCrypt@@UBEXPAUHWND__@@@Z 00409e90 f i BootEncryption.obj
 0001:00008ec0       ?Show@ParameterIncorrect@GostCrypt@@UBEXPAUHWND__@@@Z 00409ec0 f i BootEncryption.obj
 0001:00008fe0       ?Show@SystemException@GostCrypt@@UBEXPAUHWND__@@@Z 00409fe0 f i BootEncryption.obj
 0001:00009000       ?VerifyRescueDisk@BootEncryption@GostCrypt@@QAE_NXZ 0040a000 f   BootEncryption.obj
 0001:000092e0       ?Write@File@GostCrypt@@QAEXPAEK@Z 0040a2e0 f   BootEncryption.obj
 0001:00009490       ?WriteBootDriveSector@BootEncryption@GostCrypt@@QAEX_KPAE@Z 0040a490 f   BootEncryption.obj
 0001:00009500       ?WriteBootSectorUserConfig@BootEncryption@GostCrypt@@QAEXEABV?$basic_string@DU?$char_traits@D@std@@V?$allocator@D@2@@std@@@Z 0040a500 f   BootEncryption.obj
 0001:000097c0       ?WriteLocalMachineRegistryDwordValue@BootEncryption@GostCrypt@@QAEXPAD0K@Z 0040a7c0 f   BootEncryption.obj
 0001:00009830       ?WriteLocalMachineRegistryDwordValue@Elevator@GostCrypt@@SAXPAD0K@Z 0040a830 f i BootEncryption.obj
 0001:000098f0       ?_Assign_rv@?$basic_string@DU?$char_traits@D@std@@V?$allocator@D@2@@std@@QAEX$$QAV12@@Z 0040a8f0 f i BootEncryption.obj
 0001:00009960       ?_Assign_rv@?$basic_string@_WU?$char_traits@_W@std@@V?$allocator@_W@2@@std@@QAEX$$QAV12@@Z 0040a960 f i BootEncryption.obj
 0001:000099d0       ?_AtlInitializeCriticalSectionEx@ATL@@YAHPAU_RTL_CRITICAL_SECTION@@KK@Z 0040a9d0 f i BootEncryption.obj
 0001:000099f0       ?_Chassign@?$basic_string@DU?$char_traits@D@std@@V?$allocator@D@2@@std@@QAEXIID@Z 0040a9f0 f i BootEncryption.obj
 0001:00009a40       ?_Copy@?$basic_string@DU?$char_traits@D@std@@V?$allocator@D@2@@std@@QAEXII@Z 0040aa40 f i BootEncryption.obj
 0001:00009be0       ?_Copy@?$basic_string@_WU?$char_traits@_W@std@@V?$allocator@_W@2@@std@@QAEXII@Z 0040abe0 f i BootEncryption.obj
 0001:00009d50       ?_Deallocate@std@@YAXPAXII@Z 0040ad50 f i BootEncryption.obj
 0001:00009db0       ?_Decref@facet@locale@std@@UAEPAV_Facet_base@3@XZ 0040adb0 f i BootEncryption.obj
 0001:00009dd0       ?_Ffmt@?$num_put@DV?$ostreambuf_iterator@DU?$char_traits@D@std@@@std@@@std@@ABAPADPADDH@Z 0040add0 f i BootEncryption.obj
 0001:00009dd0       ?_Ffmt@?$num_put@_WV?$ostreambuf_iterator@_WU?$char_traits@_W@std@@@std@@@std@@ABAPADPADDH@Z 0040add0 f i Dlgcode.obj
 0001:00009e90       ?_Fput@?$num_put@DV?$ostreambuf_iterator@DU?$char_traits@D@std@@@std@@@std@@ABA?AV?$ostreambuf_iterator@DU?$char_traits@D@std@@@2@V32@AAVios_base@2@DPBDI@Z 0040ae90 f i BootEncryption.obj
 0001:0000a250       ?_Getcat@?$ctype@D@std@@SAIPAPBVfacet@locale@2@PBV42@@Z 0040b250 f i BootEncryption.obj
 0001:0000a320       ?_Getcat@?$ctype@_W@std@@SAIPAPBVfacet@locale@2@PBV42@@Z 0040b320 f i BootEncryption.obj
 0001:0000a3d0       ?_Getcat@?$num_put@DV?$ostreambuf_iterator@DU?$char_traits@D@std@@@std@@@std@@SAIPAPBVfacet@locale@2@PBV42@@Z 0040b3d0 f i BootEncryption.obj
 0001:0000a480       ?_Getcat@?$numpunct@D@std@@SAIPAPBVfacet@locale@2@PBV42@@Z 0040b480 f i BootEncryption.obj
 0001:0000a550       ?_Gnavail@?$basic_streambuf@_WU?$char_traits@_W@std@@@std@@IBE_JXZ 0040b550 f i BootEncryption.obj
 0001:0000a550       ?_Gnavail@?$basic_streambuf@DU?$char_traits@D@std@@@std@@IBE_JXZ 0040b550 f i BootEncryption.obj
 0001:0000a570       ?_Grow@?$basic_string@DU?$char_traits@D@std@@V?$allocator@D@2@@std@@QAE_NI_N@Z 0040b570 f i BootEncryption.obj
 0001:0000a5e0       ?_Grow@?$basic_string@_WU?$char_traits@_W@std@@V?$allocator@_W@2@@std@@QAE_NI_N@Z 0040b5e0 f i BootEncryption.obj
 0001:0000a660       ?_Incref@facet@locale@std@@UAEXXZ 0040b660 f i BootEncryption.obj
 0001:0000a670       ?_Init@?$numpunct@D@std@@IAEXABV_Locinfo@2@_N@Z 0040b670 f i BootEncryption.obj
 0001:0000a810       ?_Init@ios_base@std@@IAEXXZ 0040b810 f i BootEncryption.obj
 0001:0000a8e0       ?_Iput@?$num_put@DV?$ostreambuf_iterator@DU?$char_traits@D@std@@@std@@@std@@ABA?AV?$ostreambuf_iterator@DU?$char_traits@D@std@@@2@V32@AAVios_base@2@DPADI@Z 0040b8e0 f i BootEncryption.obj
 0001:0000ac40       ?_Makestr@_System_error@std@@CA?AV?$basic_string@DU?$char_traits@D@std@@V?$allocator@D@2@@2@Verror_code@2@V32@@Z 0040bc40 f i BootEncryption.obj
 0001:0000ad10       ?_Myptr@?$_String_alloc@U?$_String_base_types@DV?$allocator@D@std@@@std@@@std@@QBEPBDXZ 0040bd10 f i BootEncryption.obj
 0001:0000ad10       ?c_str@?$basic_string@DU?$char_traits@D@std@@V?$allocator@D@2@@std@@QBEPBDXZ 0040bd10 f i BootEncryption.obj
 0001:0000ad20       ?_Osfx@?$basic_ostream@DU?$char_traits@D@std@@@std@@QAEXXZ 0040bd20 f i BootEncryption.obj
 0001:0000ad20       ?_Osfx@?$basic_ostream@_WU?$char_traits@_W@std@@@std@@QAEXXZ 0040bd20 f i BootEncryption.obj
 0001:0000ae50       ?_Pnavail@?$basic_streambuf@_WU?$char_traits@_W@std@@@std@@IBE_JXZ 0040be50 f i BootEncryption.obj
 0001:0000ae50       ?_Pnavail@?$basic_streambuf@DU?$char_traits@D@std@@@std@@IBE_JXZ 0040be50 f i BootEncryption.obj
 0001:0000ae70       ?_Put@?$num_put@DV?$ostreambuf_iterator@DU?$char_traits@D@std@@@std@@@std@@ABA?AV?$ostreambuf_iterator@DU?$char_traits@D@std@@@2@V32@PBDI@Z 0040be70 f i BootEncryption.obj
 0001:0000aef0       ?_Rep@?$num_put@DV?$ostreambuf_iterator@DU?$char_traits@D@std@@@std@@@std@@ABA?AV?$ostreambuf_iterator@DU?$char_traits@D@std@@@2@V32@DI@Z 0040bef0 f i BootEncryption.obj
 0001:0000af60       ?_Tidy@?$basic_string@DU?$char_traits@D@std@@V?$allocator@D@2@@std@@QAEX_NI@Z 0040bf60 f i BootEncryption.obj
 0001:0000afc0       ?_Tidy@?$basic_string@_WU?$char_traits@_W@std@@V?$allocator@_W@2@@std@@QAEX_NI@Z 0040bfc0 f i BootEncryption.obj
 0001:0000b030       ?_Tidy@?$basic_stringbuf@DU?$char_traits@D@std@@V?$allocator@D@2@@std@@IAEXXZ 0040c030 f i BootEncryption.obj
 0001:0000b0e0       ?_Tidy@?$basic_stringbuf@_WU?$char_traits@_W@std@@V?$allocator@_W@2@@std@@IAEXXZ 0040c0e0 f i BootEncryption.obj
 0001:0000b160       ?_Tidy@?$numpunct@_W@std@@AAEXXZ 0040c160 f i Dlgcode.obj
 0001:0000b160       ?_Tidy@?$numpunct@D@std@@AAEXXZ 0040c160 f i BootEncryption.obj
 0001:0000b180       ?_Unchecked_erase@?$list@UPartition@GostCrypt@@V?$allocator@UPartition@GostCrypt@@@std@@@std@@QAEXV?$_List_unchecked_const_iterator@V?$_List_val@U?$_List_simple_types@UPartition@GostCrypt@@@std@@@std@@U_Iterator_base0@2@@2@@Z 0040c180 f i BootEncryption.obj
 0001:0000b1c0       ?allocate@?$allocator@D@std@@QAEPADI@Z 0040c1c0 f i BootEncryption.obj
 0001:0000b1c0       ?allocate@?$_Wrap_alloc@V?$allocator@E@std@@@std@@QAEPAEI@Z 0040c1c0 f i Dlgcode.obj
 0001:0000b1c0       ?allocate@?$_Wrap_alloc@V?$allocator@D@std@@@std@@QAEPADI@Z 0040c1c0 f i BootEncryption.obj
 0001:0000b220       ?allocate@?$allocator@_W@std@@QAEPA_WI@Z 0040c220 f i BootEncryption.obj
 0001:0000b290       ?append@?$basic_string@DU?$char_traits@D@std@@V?$allocator@D@2@@std@@QAEAAV12@ABV12@II@Z 0040c290 f i BootEncryption.obj
 0001:0000b390       ?append@?$basic_string@DU?$char_traits@D@std@@V?$allocator@D@2@@std@@QAEAAV12@ID@Z 0040c390 f i BootEncryption.obj
 0001:0000b440       ?append@?$basic_string@DU?$char_traits@D@std@@V?$allocator@D@2@@std@@QAEAAV12@PBDI@Z 0040c440 f i BootEncryption.obj
 0001:0000b570       ?append@?$basic_string@_WU?$char_traits@_W@std@@V?$allocator@_W@2@@std@@QAEAAV12@ABV12@II@Z 0040c570 f i BootEncryption.obj
 0001:0000b680       ?append@?$basic_string@_WU?$char_traits@_W@std@@V?$allocator@_W@2@@std@@QAEAAV12@PB_WI@Z 0040c680 f i BootEncryption.obj
 0001:0000b7b0       ?assign@?$basic_string@DU?$char_traits@D@std@@V?$allocator@D@2@@std@@QAEAAV12@ABV12@II@Z 0040c7b0 f i BootEncryption.obj
 0001:0000b8e0       ?assign@?$basic_string@DU?$char_traits@D@std@@V?$allocator@D@2@@std@@QAEAAV12@ID@Z 0040c8e0 f i BootEncryption.obj
 0001:0000b9b0       ?assign@?$basic_string@DU?$char_traits@D@std@@V?$allocator@D@2@@std@@QAEAAV12@PBDI@Z 0040c9b0 f i BootEncryption.obj
 0001:0000bab0       ?assign@?$basic_string@_WU?$char_traits@_W@std@@V?$allocator@_W@2@@std@@QAEAAV12@ABV12@II@Z 0040cab0 f i BootEncryption.obj
 0001:0000bbd0       ?assign@?$basic_string@_WU?$char_traits@_W@std@@V?$allocator@_W@2@@std@@QAEAAV12@PB_WI@Z 0040cbd0 f i BootEncryption.obj
 0001:0000bcd0       ?clear@?$basic_string@DU?$char_traits@D@std@@V?$allocator@D@2@@std@@QAEXXZ 0040ccd0 f i BootEncryption.obj
 0001:0000bcf0       ?clear@?$list@UPartition@GostCrypt@@V?$allocator@UPartition@GostCrypt@@@std@@@std@@QAEXXZ 0040ccf0 f i BootEncryption.obj
 0001:0000bd30       ?clear@ios_base@std@@QAEXH@Z 0040cd30 f i BootEncryption.obj
 0001:0000bda0       ?compare@?$char_traits@D@std@@SAHPBD0I@Z 0040cda0 f i BootEncryption.obj
 0001:0000be10       ?deallocate@?$_Wrap_alloc@V?$allocator@D@std@@@std@@QAEXPADI@Z 0040ce10 f i BootEncryption.obj
 0001:0000be10       ?deallocate@?$allocator@D@std@@QAEXPADI@Z 0040ce10 f i BootEncryption.obj
 0001:0000be60       ?deallocate@?$_Wrap_alloc@V?$allocator@_W@std@@@std@@QAEXPA_WI@Z 0040ce60 f i BootEncryption.obj
 0001:0000be60       ?deallocate@?$allocator@_W@std@@QAEXPA_WI@Z 0040ce60 f i BootEncryption.obj
 0001:0000bec0       ?deallocate@?$allocator@U?$_List_node@UPartition@GostCrypt@@PAX@std@@@std@@QAEXPAU?$_List_node@UPartition@GostCrypt@@PAX@2@I@Z 0040cec0 f i BootEncryption.obj
 0001:0000bec0       ?deallocate@?$allocator@U?$_List_node@USecurityTokenKeyfile@GostCrypt@@PAX@std@@@std@@QAEXPAU?$_List_node@USecurityTokenKeyfile@GostCrypt@@PAX@2@I@Z 0040cec0 f i Dlgcode.obj
 0001:0000bf30       ?default_error_condition@error_category@std@@UBE?AVerror_condition@2@H@Z 0040cf30 f i BootEncryption.obj
 0001:0000bf50       ?do_decimal_point@?$numpunct@D@std@@MBEDXZ 0040cf50 f i BootEncryption.obj
 0001:0000bf60       ?do_falsename@?$numpunct@D@std@@MBE?AV?$basic_string@DU?$char_traits@D@std@@V?$allocator@D@2@@2@XZ 0040cf60 f i BootEncryption.obj
 0001:0000bfc0       ?do_is@?$ctype@_W@std@@MBEPB_WPB_W0PAF@Z 0040cfc0 f i BootEncryption.obj
 0001:0000bfe0       ?do_is@?$ctype@_W@std@@MBE_NF_W@Z 0040cfe0 f i BootEncryption.obj
 0001:0000c000       ?do_narrow@?$ctype@D@std@@MBEDDD@Z 0040d000 f i BootEncryption.obj
 0001:0000c010       ?do_narrow@?$ctype@D@std@@MBEPBDPBD0DPAD@Z 0040d010 f i BootEncryption.obj
 0001:0000c030       ?do_narrow@?$ctype@_W@std@@MBED_WD@Z 0040d030 f i BootEncryption.obj
 0001:0000c080       ?do_narrow@?$ctype@_W@std@@MBEPB_WPB_W0DPAD@Z 0040d080 f i BootEncryption.obj
 0001:0000c120       ?do_put@?$num_put@DV?$ostreambuf_iterator@DU?$char_traits@D@std@@@std@@@std@@MBE?AV?$ostreambuf_iterator@DU?$char_traits@D@std@@@2@V32@AAVios_base@2@DJ@Z 0040d120 f i BootEncryption.obj
 0001:0000c190       ?do_put@?$num_put@DV?$ostreambuf_iterator@DU?$char_traits@D@std@@@std@@@std@@MBE?AV?$ostreambuf_iterator@DU?$char_traits@D@std@@@2@V32@AAVios_base@2@DK@Z 0040d190 f i BootEncryption.obj
 0001:0000c200       ?do_put@?$num_put@DV?$ostreambuf_iterator@DU?$char_traits@D@std@@@std@@@std@@MBE?AV?$ostreambuf_iterator@DU?$char_traits@D@std@@@2@V32@AAVios_base@2@DN@Z 0040d200 f i BootEncryption.obj
 0001:0000c3a0       ?do_put@?$num_put@DV?$ostreambuf_iterator@DU?$char_traits@D@std@@@std@@@std@@MBE?AV?$ostreambuf_iterator@DU?$char_traits@D@std@@@2@V32@AAVios_base@2@DO@Z 0040d3a0 f i BootEncryption.obj
 0001:0000c540       ?do_put@?$num_put@DV?$ostreambuf_iterator@DU?$char_traits@D@std@@@std@@@std@@MBE?AV?$ostreambuf_iterator@DU?$char_traits@D@std@@@2@V32@AAVios_base@2@DPBX@Z 0040d540 f i BootEncryption.obj
 0001:0000c5a0       ?do_put@?$num_put@DV?$ostreambuf_iterator@DU?$char_traits@D@std@@@std@@@std@@MBE?AV?$ostreambuf_iterator@DU?$char_traits@D@std@@@2@V32@AAVios_base@2@D_J@Z 0040d5a0 f i BootEncryption.obj
 0001:0000c610       ?do_put@?$num_put@DV?$ostreambuf_iterator@DU?$char_traits@D@std@@@std@@@std@@MBE?AV?$ostreambuf_iterator@DU?$char_traits@D@std@@@2@V32@AAVios_base@2@D_K@Z 0040d610 f i BootEncryption.obj
 0001:0000c680       ?do_put@?$num_put@DV?$ostreambuf_iterator@DU?$char_traits@D@std@@@std@@@std@@MBE?AV?$ostreambuf_iterator@DU?$char_traits@D@std@@@2@V32@AAVios_base@2@D_N@Z 0040d680 f i BootEncryption.obj
 0001:0000c880       ?do_scan_is@?$ctype@_W@std@@MBEPB_WFPB_W0@Z 0040d880 f i BootEncryption.obj
 0001:0000c8c0       ?do_scan_not@?$ctype@_W@std@@MBEPB_WFPB_W0@Z 0040d8c0 f i BootEncryption.obj
 0001:0000c900       ?do_thousands_sep@?$numpunct@D@std@@MBEDXZ 0040d900 f i BootEncryption.obj
 0001:0000c910       ?do_tolower@?$ctype@D@std@@MBEDD@Z 0040d910 f i BootEncryption.obj
 0001:0000c930       ?do_tolower@?$ctype@D@std@@MBEPBDPADPBD@Z 0040d930 f i BootEncryption.obj
 0001:0000c980       ?do_tolower@?$ctype@_W@std@@MBEPB_WPA_WPB_W@Z 0040d980 f i BootEncryption.obj
 0001:0000c9d0       ?do_tolower@?$ctype@_W@std@@MBE_W_W@Z 0040d9d0 f i BootEncryption.obj
 0001:0000c9f0       ?do_toupper@?$ctype@D@std@@MBEDD@Z 0040d9f0 f i BootEncryption.obj
 0001:0000ca10       ?do_toupper@?$ctype@D@std@@MBEPBDPADPBD@Z 0040da10 f i BootEncryption.obj
 0001:0000ca60       ?do_toupper@?$ctype@_W@std@@MBEPB_WPA_WPB_W@Z 0040da60 f i BootEncryption.obj
 0001:0000cab0       ?do_toupper@?$ctype@_W@std@@MBE_W_W@Z 0040dab0 f i BootEncryption.obj
 0001:0000cad0       ?do_truename@?$numpunct@D@std@@MBE?AV?$basic_string@DU?$char_traits@D@std@@V?$allocator@D@2@@2@XZ 0040dad0 f i BootEncryption.obj
 0001:0000cb30       ?do_widen@?$ctype@D@std@@MBEDD@Z 0040db30 f i BootEncryption.obj
 0001:0000cb40       ?do_widen@?$ctype@D@std@@MBEPBDPBD0PAD@Z 0040db40 f i BootEncryption.obj
 0001:0000cb60       ?do_widen@?$ctype@_W@std@@MBEPBDPBD0PA_W@Z 0040db60 f i BootEncryption.obj
 0001:0000cbf0       ?do_widen@?$ctype@_W@std@@MBE_WD@Z 0040dbf0 f i BootEncryption.obj
 0001:0000cc40       ?equivalent@error_category@std@@UBE_NABVerror_code@2@H@Z 0040dc40 f i BootEncryption.obj
 0001:0000cc70       ?equivalent@error_category@std@@UBE_NHABVerror_condition@2@@Z 0040dc70 f i BootEncryption.obj
 0001:0000ccb0       ?erase@?$basic_string@DU?$char_traits@D@std@@V?$allocator@D@2@@std@@QAEAAV12@II@Z 0040dcb0 f i BootEncryption.obj
 0001:0000cd50       ?erase@?$basic_string@_WU?$char_traits@_W@std@@V?$allocator@_W@2@@std@@QAEAAV12@II@Z 0040dd50 f i BootEncryption.obj
 0001:0000ce00       ?erase@?$list@UPartition@GostCrypt@@V?$allocator@UPartition@GostCrypt@@@std@@@std@@QAE?AV?$_List_iterator@V?$_List_val@U?$_List_simple_types@UPartition@GostCrypt@@@std@@@std@@@2@V?$_List_const_iterator@V?$_List_val@U?$_List_simple_types@UPartition@GostCrypt@@@std@@@std@@@2@0@Z 0040de00 f i BootEncryption.obj
 0001:0000ce70       ?find@?$basic_string@DU?$char_traits@D@std@@V?$allocator@D@2@@std@@QBEIPBDII@Z 0040de70 f i BootEncryption.obj
 0001:0000cf10       ?flush@?$basic_ostream@DU?$char_traits@D@std@@@std@@QAEAAV12@XZ 0040df10 f i BootEncryption.obj
 0001:0000cf10       ?flush@?$basic_ostream@_WU?$char_traits@_W@std@@@std@@QAEAAV12@XZ 0040df10 f i BootEncryption.obj
 0001:0000d030       ?getloc@ios_base@std@@QBE?AVlocale@2@XZ 0040e030 f i BootEncryption.obj
 0001:0000d090       ?init@?$basic_ios@DU?$char_traits@D@std@@@std@@IAEXPAV?$basic_streambuf@DU?$char_traits@D@std@@@2@_N@Z 0040e090 f i BootEncryption.obj
 0001:0000d1c0       ?init@?$basic_ios@_WU?$char_traits@_W@std@@@std@@IAEXPAV?$basic_streambuf@_WU?$char_traits@_W@std@@@2@_N@Z 0040e1c0 f i BootEncryption.obj
 0001:0000d2f0       ?insert@?$basic_string@DU?$char_traits@D@std@@V?$allocator@D@2@@std@@QAEAAV12@IABV12@II@Z 0040e2f0 f i BootEncryption.obj
 0001:0000d490       ?insert@?$basic_string@DU?$char_traits@D@std@@V?$allocator@D@2@@std@@QAEAAV12@IID@Z 0040e490 f i BootEncryption.obj
 0001:0000d5a0       ?insert@?$basic_string@DU?$char_traits@D@std@@V?$allocator@D@2@@std@@QAEAAV12@IPBDI@Z 0040e5a0 f i BootEncryption.obj
 0001:0000d720       ?insert@?$basic_string@_WU?$char_traits@_W@std@@V?$allocator@_W@2@@std@@QAEAAV12@IABV12@II@Z 0040e720 f i BootEncryption.obj
 0001:0000d8e0       ?memcpy_s@Checked@ATL@@YAXPAXIPBXI@Z 0040e8e0 f i BootEncryption.obj
 0001:0000d900       ?message@_Generic_error_category@std@@UBE?AV?$basic_string@DU?$char_traits@D@std@@V?$allocator@D@2@@2@H@Z 0040e900 f i BootEncryption.obj
 0001:0000d970       ?message@_Iostream_error_category@std@@UBE?AV?$basic_string@DU?$char_traits@D@std@@V?$allocator@D@2@@2@H@Z 0040e970 f i BootEncryption.obj
 0001:0000d9c0       ?message@error_code@std@@QBE?AV?$basic_string@DU?$char_traits@D@std@@V?$allocator@D@2@@2@XZ 0040e9c0 f i BootEncryption.obj
 0001:0000d9f0       ?name@_Iostream_error_category@std@@UBEPBDXZ 0040e9f0 f i BootEncryption.obj
 0001:0000da00       ?overflow@?$basic_streambuf@_WU?$char_traits@_W@std@@@std@@MAEGG@Z 0040ea00 f i BootEncryption.obj
 0001:0000da00       ?pbackfail@?$basic_streambuf@_WU?$char_traits@_W@std@@@std@@MAEGG@Z 0040ea00 f i BootEncryption.obj
 0001:0000da10       ?overflow@?$basic_stringbuf@DU?$char_traits@D@std@@V?$allocator@D@2@@std@@MAEHH@Z 0040ea10 f i BootEncryption.obj
 0001:0000dbf0       ?overflow@?$basic_stringbuf@_WU?$char_traits@_W@std@@V?$allocator@_W@2@@std@@MAEGG@Z 0040ebf0 f i BootEncryption.obj
 0001:0000de00       ?overflow@?$basic_streambuf@DU?$char_traits@D@std@@@std@@MAEHH@Z 0040ee00 f i BootEncryption.obj
 0001:0000de00       ?pbackfail@?$basic_streambuf@DU?$char_traits@D@std@@@std@@MAEHH@Z 0040ee00 f i BootEncryption.obj
 0001:0000de10       ?pbackfail@?$basic_stringbuf@DU?$char_traits@D@std@@V?$allocator@D@2@@std@@MAEHH@Z 0040ee10 f i BootEncryption.obj
 0001:0000de70       ?pbackfail@?$basic_stringbuf@_WU?$char_traits@_W@std@@V?$allocator@_W@2@@std@@MAEGG@Z 0040ee70 f i BootEncryption.obj
 0001:0000dee0       ?rfind@?$basic_string@DU?$char_traits@D@std@@V?$allocator@D@2@@std@@QBEIPBDI@Z 0040eee0 f i BootEncryption.obj
 0001:0000df20       ?rfind@?$basic_string@DU?$char_traits@D@std@@V?$allocator@D@2@@std@@QBEIPBDII@Z 0040ef20 f i BootEncryption.obj
 0001:0000dfb0       ?seekoff@?$basic_streambuf@DU?$char_traits@D@std@@@std@@MAE?AV?$fpos@U_Mbstatet@@@2@_JHH@Z 0040efb0 f i BootEncryption.obj
 0001:0000dfb0       ?seekoff@?$basic_streambuf@_WU?$char_traits@_W@std@@@std@@MAE?AV?$fpos@U_Mbstatet@@@2@_JHH@Z 0040efb0 f i BootEncryption.obj
 0001:0000dff0       ?seekoff@?$basic_stringbuf@DU?$char_traits@D@std@@V?$allocator@D@2@@std@@MAE?AV?$fpos@U_Mbstatet@@@2@_JHH@Z 0040eff0 f i BootEncryption.obj
 0001:0000e1c0       ?seekoff@?$basic_stringbuf@_WU?$char_traits@_W@std@@V?$allocator@_W@2@@std@@MAE?AV?$fpos@U_Mbstatet@@@2@_JHH@Z 0040f1c0 f i BootEncryption.obj
 0001:0000e3c0       ?seekpos@?$basic_streambuf@DU?$char_traits@D@std@@@std@@MAE?AV?$fpos@U_Mbstatet@@@2@V32@H@Z 0040f3c0 f i BootEncryption.obj
 0001:0000e3c0       ?seekpos@?$basic_streambuf@_WU?$char_traits@_W@std@@@std@@MAE?AV?$fpos@U_Mbstatet@@@2@V32@H@Z 0040f3c0 f i BootEncryption.obj
 0001:0000e400       ?seekpos@?$basic_stringbuf@DU?$char_traits@D@std@@V?$allocator@D@2@@std@@MAE?AV?$fpos@U_Mbstatet@@@2@V32@H@Z 0040f400 f i BootEncryption.obj
 0001:0000e530       ?seekpos@?$basic_stringbuf@_WU?$char_traits@_W@std@@V?$allocator@_W@2@@std@@MAE?AV?$fpos@U_Mbstatet@@@2@V32@H@Z 0040f530 f i BootEncryption.obj
 0001:0000e680       ?setbuf@?$basic_streambuf@_WU?$char_traits@_W@std@@@std@@MAEPAV12@PA_W_J@Z 0040f680 f i BootEncryption.obj
 0001:0000e680       ?setbuf@?$basic_streambuf@DU?$char_traits@D@std@@@std@@MAEPAV12@PAD_J@Z 0040f680 f i BootEncryption.obj
 0001:0000e690       ?showmanyc@?$basic_streambuf@_WU?$char_traits@_W@std@@@std@@MAE_JXZ 0040f690 f i BootEncryption.obj
 0001:0000e690       ?showmanyc@?$basic_streambuf@DU?$char_traits@D@std@@@std@@MAE_JXZ 0040f690 f i BootEncryption.obj
 0001:0000e6a0       ?str@?$basic_stringbuf@DU?$char_traits@D@std@@V?$allocator@D@2@@std@@QBE?AV?$basic_string@DU?$char_traits@D@std@@V?$allocator@D@2@@2@XZ 0040f6a0 f i BootEncryption.obj
 0001:0000e7e0       ?str@?$basic_stringbuf@_WU?$char_traits@_W@std@@V?$allocator@_W@2@@std@@QBE?AV?$basic_string@_WU?$char_traits@_W@std@@V?$allocator@_W@2@@2@XZ 0040f7e0 f i BootEncryption.obj
 0001:0000e910       ?str@?$basic_stringstream@DU?$char_traits@D@std@@V?$allocator@D@2@@std@@QBE?AV?$basic_string@DU?$char_traits@D@std@@V?$allocator@D@2@@2@XZ 0040f910 f i BootEncryption.obj
 0001:0000e930       ?str@?$basic_stringstream@_WU?$char_traits@_W@std@@V?$allocator@_W@2@@std@@QBE?AV?$basic_string@_WU?$char_traits@_W@std@@V?$allocator@_W@2@@2@XZ 0040f930 f i BootEncryption.obj
 0001:0000e950       ?substr@?$basic_string@DU?$char_traits@D@std@@V?$allocator@D@2@@std@@QBE?AV12@II@Z 0040f950 f i BootEncryption.obj
 0001:0000e990       ?substr@?$basic_string@_WU?$char_traits@_W@std@@V?$allocator@_W@2@@std@@QBE?AV12@II@Z 0040f990 f i BootEncryption.obj
 0001:0000e9d0       ?uflow@?$basic_streambuf@DU?$char_traits@D@std@@@std@@MAEHXZ 0040f9d0 f i BootEncryption.obj
 0001:0000ea00       ?uflow@?$basic_streambuf@_WU?$char_traits@_W@std@@@std@@MAEGXZ 0040fa00 f i BootEncryption.obj
 0001:0000ea30       ?underflow@?$basic_streambuf@DU?$char_traits@D@std@@@std@@MAEHXZ 0040fa30 f i BootEncryption.obj
 0001:0000ea40       ?underflow@?$basic_streambuf@_WU?$char_traits@_W@std@@@std@@MAEGXZ 0040fa40 f i BootEncryption.obj
 0001:0000ea50       ?underflow@?$basic_stringbuf@DU?$char_traits@D@std@@V?$allocator@D@2@@std@@MAEHXZ 0040fa50 f i BootEncryption.obj
 0001:0000eab0       ?underflow@?$basic_stringbuf@_WU?$char_traits@_W@std@@V?$allocator@_W@2@@std@@MAEGXZ 0040fab0 f i BootEncryption.obj
 0001:0000eb20       ?what@exception@std@@UBEPBDXZ 0040fb20 f i BootEncryption.obj
 0001:0000eb30       ?xsgetn@?$basic_streambuf@DU?$char_traits@D@std@@@std@@MAE_JPAD_J@Z 0040fb30 f i BootEncryption.obj
 0001:0000ec20       ?xsgetn@?$basic_streambuf@_WU?$char_traits@_W@std@@@std@@MAE_JPA_W_J@Z 0040fc20 f i BootEncryption.obj
 0001:0000ed20       ?xsputn@?$basic_streambuf@DU?$char_traits@D@std@@@std@@MAE_JPBD_J@Z 0040fd20 f i BootEncryption.obj
 0001:0000ee10       ?xsputn@?$basic_streambuf@_WU?$char_traits@_W@std@@@std@@MAE_JPB_W_J@Z 0040fe10 f i BootEncryption.obj
 0001:0000ef10       ___local_stdio_printf_options 0040ff10 f i BootEncryption.obj
 0001:0000ef20       __snwprintf                0040ff20 f i BootEncryption.obj
 0001:0000f000       _sprintf_s                 00410000 f i BootEncryption.obj
 0001:0000f030       ??$?8DU?$char_traits@D@std@@V?$allocator@D@1@@std@@YA_NABV?$basic_string@DU?$char_traits@D@std@@V?$allocator@D@2@@0@0@Z 00410030 f i Favorites.obj
 0001:0000f090       ??$?8DU?$char_traits@D@std@@V?$allocator@D@1@@std@@YA_NABV?$basic_string@DU?$char_traits@D@std@@V?$allocator@D@2@@0@PBD@Z 00410090 f i Favorites.obj
 0001:0000f100       ??$?H_WU?$char_traits@_W@std@@V?$allocator@_W@1@@std@@YA?AV?$basic_string@_WU?$char_traits@_W@std@@V?$allocator@_W@2@@0@$$QAV10@ABV10@@Z 00410100 f i Favorites.obj
 0001:0000f140       ??$?H_WU?$char_traits@_W@std@@V?$allocator@_W@1@@std@@YA?AV?$basic_string@_WU?$char_traits@_W@std@@V?$allocator@_W@2@@0@PB_W$$QAV10@@Z 00410140 f i Favorites.obj
 0001:0000f1a0       ??$?H_WU?$char_traits@_W@std@@V?$allocator@_W@1@@std@@YA?AV?$basic_string@_WU?$char_traits@_W@std@@V?$allocator@_W@2@@0@PB_WABV10@@Z 004101a0 f i Favorites.obj
 0001:0000f2b0       ??$GetContainerForward@V?$list@UFavoriteVolume@GostCrypt@@V?$allocator@UFavoriteVolume@GostCrypt@@@std@@@std@@@ForEach@GostCrypt@@SA?AU?$ContainerForward@V?$list@UFavoriteVolume@GostCrypt@@V?$allocator@UFavoriteVolume@GostCrypt@@@std@@@std@@@01@ABV?$list@UFavoriteVolume@GostCrypt@@V?$allocator@UFavoriteVolume@GostCrypt@@@std@@@std@@@Z 004102b0 f i Favorites.obj
 0001:0000f320       ??$GetContainerForward@V?$vector@UFavoriteVolume@GostCrypt@@V?$allocator@UFavoriteVolume@GostCrypt@@@std@@@std@@@ForEach@GostCrypt@@SA?AU?$ContainerForward@V?$vector@UFavoriteVolume@GostCrypt@@V?$allocator@UFavoriteVolume@GostCrypt@@@std@@@std@@@01@ABV?$vector@UFavoriteVolume@GostCrypt@@V?$allocator@UFavoriteVolume@GostCrypt@@@std@@@std@@@Z 00410320 f i Favorites.obj
 0001:0000f390       ??$_Buynode@ABUFavoriteVolume@GostCrypt@@@?$_List_buy@UFavoriteVolume@GostCrypt@@V?$allocator@UFavoriteVolume@GostCrypt@@@std@@@std@@QAEPAU?$_List_node@UFavoriteVolume@GostCrypt@@PAX@1@PAU21@0ABUFavoriteVolume@GostCrypt@@@Z 00410390 f i Favorites.obj
 0001:0000f420       ??$_Copy_unchecked1@PAUFavoriteVolume@GostCrypt@@PAU12@@std@@YAPAUFavoriteVolume@GostCrypt@@PAU12@00U_General_ptr_iterator_tag@0@@Z 00410420 f i Favorites.obj
 0001:0000f4f0       ??$_Destroy_range@V?$allocator@UFavoriteVolume@GostCrypt@@@std@@PAUFavoriteVolume@GostCrypt@@@std@@YAXPAUFavoriteVolume@GostCrypt@@0AAU?$_Wrap_alloc@V?$allocator@UFavoriteVolume@GostCrypt@@@std@@@0@@Z 004104f0 f i Favorites.obj
 0001:0000f520       ??$_Insert_range@V?$_List_const_iterator@V?$_List_val@U?$_List_simple_types@UFavoriteVolume@GostCrypt@@@std@@@std@@@std@@@?$list@UFavoriteVolume@GostCrypt@@V?$allocator@UFavoriteVolume@GostCrypt@@@std@@@std@@QAEXV?$_List_unchecked_const_iterator@V?$_List_val@U?$_List_simple_types@UFavoriteVolume@GostCrypt@@@std@@@std@@U_Iterator_base0@2@@1@V?$_List_const_iterator@V?$_List_val@U?$_List_simple_types@UFavoriteVolume@GostCrypt@@@std@@@std@@@1@1Uforward_iterator_tag@1@@Z 00410520 f i Favorites.obj
 0001:0000f5f0       ??$_Move_unchecked1@PAUFavoriteVolume@GostCrypt@@PAU12@@std@@YAPAUFavoriteVolume@GostCrypt@@PAU12@00U_General_ptr_iterator_tag@0@@Z 004105f0 f i Favorites.obj
 0001:0000f940       ??$_Ucopy@PAUFavoriteVolume@GostCrypt@@@?$vector@UFavoriteVolume@GostCrypt@@V?$allocator@UFavoriteVolume@GostCrypt@@@std@@@std@@IAEPAUFavoriteVolume@GostCrypt@@PAU23@00@Z 00410940 f i Favorites.obj
 0001:0000f970       ??$_Uninitialized_copy_al_unchecked1@PBUFavoriteVolume@GostCrypt@@PAU12@V?$allocator@UFavoriteVolume@GostCrypt@@@std@@@std@@YAPAUFavoriteVolume@GostCrypt@@PBU12@0PAU12@AAU?$_Wrap_alloc@V?$allocator@UFavoriteVolume@GostCrypt@@@std@@@0@U_General_ptr_iterator_tag@0@U_Any_tag@0@@Z 00410970 f i Favorites.obj
 0001:0000f970       ??$_Uninitialized_copy_al_unchecked1@PAUFavoriteVolume@GostCrypt@@PAU12@V?$allocator@UFavoriteVolume@GostCrypt@@@std@@@std@@YAPAUFavoriteVolume@GostCrypt@@PAU12@00AAU?$_Wrap_alloc@V?$allocator@UFavoriteVolume@GostCrypt@@@std@@@0@U_General_ptr_iterator_tag@0@U_Any_tag@0@@Z 00410970 f i Favorites.obj
 0001:0000fa10       ??$_Uninitialized_move_al_unchecked1@PAUFavoriteVolume@GostCrypt@@PAU12@V?$allocator@UFavoriteVolume@GostCrypt@@@std@@@std@@YAPAUFavoriteVolume@GostCrypt@@PAU12@00AAU?$_Wrap_alloc@V?$allocator@UFavoriteVolume@GostCrypt@@@std@@@0@U_General_ptr_iterator_tag@0@U_Any_tag@0@@Z 00410a10 f i Favorites.obj
 0001:0000fa50       ?imbue@?$basic_streambuf@_WU?$char_traits@_W@std@@@std@@MAEXABVlocale@2@@Z 00410a50 f i BootEncryption.obj
 0001:0000fa50       ??$destroy@PAU?$_Tree_node@U?$pair@$$CBKUPkcs11Session@GostCrypt@@@std@@PAX@std@@@?$_Wrap_alloc@V?$allocator@U?$_Tree_node@U?$pair@$$CBKUPkcs11Session@GostCrypt@@@std@@PAX@std@@@std@@@std@@QAEXPAPAU?$_Tree_node@U?$pair@$$CBKUPkcs11Session@GostCrypt@@@std@@PAX@1@@Z 00410a50 f i SecurityToken.obj
 0001:0000fa50       ??$destroy@PAU?$_Tree_node@U?$pair@$$CBHUHostDevice@@@std@@PAX@std@@@?$_Wrap_alloc@V?$allocator@U?$_Tree_node@U?$pair@$$CBHUHostDevice@@@std@@PAX@std@@@std@@@std@@QAEXPAPAU?$_Tree_node@U?$pair@$$CBHUHostDevice@@@std@@PAX@1@@Z 00410a50 f i Dlgcode.obj
 0001:0000fa50       ??$destroy@PAU?$_List_node@UFavoriteVolume@GostCrypt@@PAX@std@@@?$_Wrap_alloc@V?$allocator@U?$_List_node@UFavoriteVolume@GostCrypt@@PAX@std@@@std@@@std@@QAEXPAPAU?$_List_node@UFavoriteVolume@GostCrypt@@PAX@1@@Z 00410a50 f i Favorites.obj
 0001:0000fa50       ??$destroy@PAU?$_Tree_node@U?$pair@$$CBHPAX@std@@PAX@std@@@?$_Wrap_alloc@V?$allocator@U?$_Tree_node@U?$pair@$$CBHPAX@std@@PAX@std@@@std@@@std@@QAEXPAPAU?$_Tree_node@U?$pair@$$CBHPAX@std@@PAX@1@@Z 00410a50 f i Dictionary.obj
 0001:0000fa50       ??$destroy@PAD@?$_Wrap_alloc@V?$allocator@D@std@@@std@@QAEXPAPAD@Z 00410a50 f i Dlgcode.obj
 0001:0000fa50       ??$destroy@PAU?$_Tree_node@U?$pair@$$CBV?$basic_string@DU?$char_traits@D@std@@V?$allocator@D@2@@std@@PAX@std@@PAX@std@@@?$_Wrap_alloc@V?$allocator@U?$_Tree_node@U?$pair@$$CBV?$basic_string@DU?$char_traits@D@std@@V?$allocator@D@2@@std@@PAX@std@@PAX@std@@@std@@@std@@QAEXPAPAU?$_Tree_node@U?$pair@$$CBV?$basic_string@DU?$char_traits@D@std@@V?$allocator@D@2@@std@@PAX@std@@PAX@1@@Z 00410a50 f i Dictionary.obj
 0001:0000fa50       ?imbue@?$basic_streambuf@DU?$char_traits@D@std@@@std@@MAEXABVlocale@2@@Z 00410a50 f i BootEncryption.obj
 0001:0000fa50       ?Show@UserAbort@GostCrypt@@UBEXPAUHWND__@@@Z 00410a50 f i BootEncryption.obj
 0001:0000fa60       ??$swap@UFavoriteVolume@GostCrypt@@X@std@@YAXAAUFavoriteVolume@GostCrypt@@0@Z 00410a60 f i Favorites.obj
 0001:0000fab0       ??0?$_Wrap_alloc@V?$allocator@UFavoriteVolume@GostCrypt@@@std@@@std@@QAE@XZ 00410ab0 f i Favorites.obj
 0001:0000fab0       ??0?$_Wrap_alloc@V?$allocator@U?$_Tree_node@U?$pair@$$CBKUPkcs11Session@GostCrypt@@@std@@PAX@std@@@std@@@std@@QAE@XZ 00410ab0 f i SecurityToken.obj
 0001:0000fab0       ??0?$_Wrap_alloc@V?$allocator@D@std@@@std@@QAE@XZ 00410ab0 f i Dlgcode.obj
 0001:0000fab0       ??0?$_Wrap_alloc@V?$allocator@U?$_List_node@UFavoriteVolume@GostCrypt@@PAX@std@@@std@@@std@@QAE@XZ 00410ab0 f i Favorites.obj
 0001:0000fab0       ??0?$_Wrap_alloc@V?$allocator@U?$_Tree_node@U?$pair@$$CBHPAX@std@@PAX@std@@@std@@@std@@QAE@XZ 00410ab0 f i Dictionary.obj
 0001:0000fab0       ??0?$_Wrap_alloc@V?$allocator@U?$_Tree_node@U?$pair@$$CBV?$basic_string@DU?$char_traits@D@std@@V?$allocator@D@2@@std@@PAX@std@@PAX@std@@@std@@@std@@QAE@XZ 00410ab0 f i Dictionary.obj
 0001:0000fac0       ??0?$list@UFavoriteVolume@GostCrypt@@V?$allocator@UFavoriteVolume@GostCrypt@@@std@@@std@@QAE@ABV01@@Z 00410ac0 f i Favorites.obj
 0001:0000fb60       ??0?$vector@UFavoriteVolume@GostCrypt@@V?$allocator@UFavoriteVolume@GostCrypt@@@std@@@std@@QAE@ABV01@@Z 00410b60 f i Favorites.obj
 0001:0000fc50       ??0FavoriteVolume@GostCrypt@@QAE@$$QAU01@@Z 00410c50 f i Favorites.obj
 0001:0000fd10       ??0FavoriteVolume@GostCrypt@@QAE@ABU01@@Z 00410d10 f i Favorites.obj
 0001:0000fe50       ??1?$ContainerForward@V?$list@UFavoriteVolume@GostCrypt@@V?$allocator@UFavoriteVolume@GostCrypt@@@std@@@std@@@ForEach@GostCrypt@@UAE@XZ 00410e50 f i Favorites.obj
 0001:0000fe70       ??1?$ContainerForward@V?$vector@UFavoriteVolume@GostCrypt@@V?$allocator@UFavoriteVolume@GostCrypt@@@std@@@std@@@ForEach@GostCrypt@@UAE@XZ 00410e70 f i Favorites.obj
 0001:0000fe90       ??1FavoriteVolume@GostCrypt@@QAE@XZ 00410e90 f i Favorites.obj
 0001:0000ff60       ??1FavoriteVolumesDlgProcArguments@GostCrypt@@QAE@XZ 00410f60 f i Favorites.obj
 0001:0000ff90       ??4?$vector@UFavoriteVolume@GostCrypt@@V?$allocator@UFavoriteVolume@GostCrypt@@@std@@@std@@QAEAAV01@ABV01@@Z 00410f90 f i Favorites.obj
 0001:00010150       ??4FavoriteVolume@GostCrypt@@QAEAAU01@$$QAU01@@Z 00411150 f i Favorites.obj
 0001:000102e0       ??4FavoriteVolume@GostCrypt@@QAEAAU01@ABU01@@Z 004112e0 f i Favorites.obj
 0001:00010380       ??_G?$ContainerForward@V?$list@UFavoriteVolume@GostCrypt@@V?$allocator@UFavoriteVolume@GostCrypt@@@std@@@std@@@ForEach@GostCrypt@@UAEPAXI@Z 00411380 f i Favorites.obj
 0001:00010380       ??_E?$ContainerForward@V?$list@UFavoriteVolume@GostCrypt@@V?$allocator@UFavoriteVolume@GostCrypt@@@std@@@std@@@ForEach@GostCrypt@@UAEPAXI@Z 00411380 f i Favorites.obj
 0001:000103c0       ??_E?$ContainerForward@V?$vector@UFavoriteVolume@GostCrypt@@V?$allocator@UFavoriteVolume@GostCrypt@@@std@@@std@@@ForEach@GostCrypt@@UAEPAXI@Z 004113c0 f i Favorites.obj
 0001:000103c0       ??_G?$ContainerForward@V?$vector@UFavoriteVolume@GostCrypt@@V?$allocator@UFavoriteVolume@GostCrypt@@@std@@@std@@@ForEach@GostCrypt@@UAEPAXI@Z 004113c0 f i Favorites.obj
 0001:000103f0       ?AddMountedVolumeToFavorites@GostCrypt@@YAHPAUHWND__@@H_N@Z 004113f0 f   Favorites.obj
 0001:00012050       ?GetFavoriteVolumeLabel@GostCrypt@@YA?AV?$basic_string@_WU?$char_traits@_W@std@@V?$allocator@_W@2@@std@@ABV?$basic_string@DU?$char_traits@D@std@@V?$allocator@D@2@@3@@Z 00413050 f   Favorites.obj
 0001:00012550       ?IsNotEnd@?$ContainerForward@V?$list@USecurityTokenKeyfilePath@GostCrypt@@V?$allocator@USecurityTokenKeyfilePath@GostCrypt@@@std@@@std@@@ForEach@GostCrypt@@UBE_NXZ 00413550 f i Keyfiles.obj
 0001:00012550       ?IsNotEnd@?$ContainerForward@V?$list@USecurityTokenInfo@GostCrypt@@V?$allocator@USecurityTokenInfo@GostCrypt@@@std@@@std@@@ForEach@GostCrypt@@UBE_NXZ 00413550 f i Dlgcode.obj
 0001:00012550       ?IsNotEnd@?$ContainerForward@V?$list@UPartition@GostCrypt@@V?$allocator@UPartition@GostCrypt@@@std@@@std@@@ForEach@GostCrypt@@UBE_NXZ 00413550 f i BootEncryption.obj
 0001:00012550       ?IsNotEnd@?$ContainerForward@V?$list@KV?$allocator@K@std@@@std@@@ForEach@GostCrypt@@UBE_NXZ 00413550 f i Dlgcode.obj
 0001:00012550       ?IsNotEnd@?$ContainerForward@V?$list@UFavoriteVolume@GostCrypt@@V?$allocator@UFavoriteVolume@GostCrypt@@@std@@@std@@@ForEach@GostCrypt@@UBE_NXZ 00413550 f i Favorites.obj
 0001:00012550       ?IsNotEnd@?$ContainerForward@V?$list@USecurityTokenKeyfile@GostCrypt@@V?$allocator@USecurityTokenKeyfile@GostCrypt@@@std@@@std@@@ForEach@GostCrypt@@UBE_NXZ 00413550 f i Dlgcode.obj
 0001:00012550       ?IsNotEnd@?$ContainerForward@V?$list@V?$basic_string@DU?$char_traits@D@std@@V?$allocator@D@2@@std@@V?$allocator@V?$basic_string@DU?$char_traits@D@std@@V?$allocator@D@2@@std@@@2@@std@@@ForEach@GostCrypt@@UBE_NXZ 00413550 f i Mount.obj
 0001:00012550       ?IsNotEnd@?$ContainerForward@V?$map@KUPkcs11Session@GostCrypt@@U?$less@K@std@@V?$allocator@U?$pair@$$CBKUPkcs11Session@GostCrypt@@@std@@@4@@std@@@ForEach@GostCrypt@@UBE_NXZ 00413550 f i SecurityToken.obj
 0001:00012570       ?LoadFavoriteVolumes@GostCrypt@@YAXAAV?$vector@UFavoriteVolume@GostCrypt@@V?$allocator@UFavoriteVolume@GostCrypt@@@std@@@std@@_N1@Z 00413570 f   Favorites.obj
 0001:00012ed0       ?LoadFavoriteVolumes@GostCrypt@@YAXXZ 00413ed0 f   Favorites.obj
 0001:00012f50       ?Next@?$ContainerForward@V?$vector@UFavoriteVolume@GostCrypt@@V?$allocator@UFavoriteVolume@GostCrypt@@@std@@@std@@@ForEach@GostCrypt@@UBEXXZ 00413f50 f i Favorites.obj
 0001:00013340       ?OrganizeFavoriteVolumes@GostCrypt@@YAHPAUHWND__@@_NABUFavoriteVolume@1@@Z 00414340 f   Favorites.obj
 0001:000145d0       ?UpdateDeviceHostedFavoriteVolumes@GostCrypt@@YAXXZ 004155d0 f   Favorites.obj
 0001:00014630       ?_Buy@?$vector@UFavoriteVolume@GostCrypt@@V?$allocator@UFavoriteVolume@GostCrypt@@@std@@@std@@IAE_NI@Z 00415630 f i Favorites.obj
 0001:00014690       ?_Buynode0@?$_List_alloc@U?$_List_base_types@UFavoriteVolume@GostCrypt@@V?$allocator@UFavoriteVolume@GostCrypt@@@std@@@std@@@std@@QAEPAU?$_List_node@UFavoriteVolume@GostCrypt@@PAX@2@PAU32@0@Z 00415690 f i Favorites.obj
 0001:000146d0       ?_Destroy@?$vector@UFavoriteVolume@GostCrypt@@V?$allocator@UFavoriteVolume@GostCrypt@@@std@@@std@@IAEXPAUFavoriteVolume@GostCrypt@@0@Z 004156d0 f i Favorites.obj
 0001:00014700       ?_Reallocate@?$vector@UFavoriteVolume@GostCrypt@@V?$allocator@UFavoriteVolume@GostCrypt@@@std@@@std@@IAEXI@Z 00415700 f i Favorites.obj
 0001:00014800       ?_Reserve@?$vector@UFavoriteVolume@GostCrypt@@V?$allocator@UFavoriteVolume@GostCrypt@@@std@@@std@@IAEXI@Z 00415800 f i Favorites.obj
 0001:000148a0       ?_Tidy@?$vector@UFavoriteVolume@GostCrypt@@V?$allocator@UFavoriteVolume@GostCrypt@@@std@@@std@@IAEXXZ 004158a0 f i Favorites.obj
 0001:00014900       ?_Unchecked_erase@?$list@UFavoriteVolume@GostCrypt@@V?$allocator@UFavoriteVolume@GostCrypt@@@std@@@std@@QAEXV?$_List_unchecked_const_iterator@V?$_List_val@U?$_List_simple_types@UFavoriteVolume@GostCrypt@@@std@@@std@@U_Iterator_base0@2@@2@@Z 00415900 f i Favorites.obj
 0001:00014940       ?allocate@?$allocator@UFavoriteVolume@GostCrypt@@@std@@QAEPAUFavoriteVolume@GostCrypt@@I@Z 00415940 f i Favorites.obj
 0001:000149b0       ?clear@?$list@UFavoriteVolume@GostCrypt@@V?$allocator@UFavoriteVolume@GostCrypt@@@std@@@std@@QAEXXZ 004159b0 f i Favorites.obj
 0001:000149f0       ?clear@?$vector@UFavoriteVolume@GostCrypt@@V?$allocator@UFavoriteVolume@GostCrypt@@@std@@@std@@QAEXXZ 004159f0 f i Favorites.obj
 0001:00014a20       ?deallocate@?$_Wrap_alloc@V?$allocator@UFavoriteVolume@GostCrypt@@@std@@@std@@QAEXPAUFavoriteVolume@GostCrypt@@I@Z 00415a20 f i Favorites.obj
 0001:00014a80       ?erase@?$vector@UFavoriteVolume@GostCrypt@@V?$allocator@UFavoriteVolume@GostCrypt@@@std@@@std@@QAE?AV?$_Vector_iterator@V?$_Vector_val@U?$_Simple_types@UFavoriteVolume@GostCrypt@@@std@@@std@@@2@V?$_Vector_const_iterator@V?$_Vector_val@U?$_Simple_types@UFavoriteVolume@GostCrypt@@@std@@@std@@@2@@Z 00415a80 f i Favorites.obj
 0001:00014ae0       ?find@?$basic_string@DU?$char_traits@D@std@@V?$allocator@D@2@@std@@QBEIPBDI@Z 00415ae0 f i Favorites.obj
 0001:00014b20       ?insert@?$basic_string@_WU?$char_traits@_W@std@@V?$allocator@_W@2@@std@@QAEAAV12@IPB_WI@Z 00415b20 f i Favorites.obj
 0001:00014cc0       ?push_back@?$vector@UFavoriteVolume@GostCrypt@@V?$allocator@UFavoriteVolume@GostCrypt@@@std@@@std@@QAEXABUFavoriteVolume@GostCrypt@@@Z 00415cc0 f i Favorites.obj
 0001:00014d80       _fwprintf                  00415d80 f i Favorites.obj
 0001:000151b0       _GetKeyName                004161b0 f   Hotkeys.obj
 0001:000158b0       _HotkeysDlgProc@16         004168b0 f   Hotkeys.obj
 0001:000160f0       _RegisterAllHotkeys        004170f0 f   Hotkeys.obj
 0001:000161a0       _UnregisterAllHotkeys      004171a0 f   Hotkeys.obj
 0001:000161d0       _sprintf                   004171d0 f i Hotkeys.obj
 0001:00016210       ??$AtlConvAllocMemory@D@ATL@@YAXPAPADHPADH@Z 00417210 f i MainCom.obj
 0001:000162b0       ?AddRef@?$GostCryptFactory@VGostCryptMainCom@@@@UAGKXZ 004172b0 f i MainCom.obj
 0001:000162d0       ?AddRef@GostCryptMainCom@@UAGKXZ 004172d0 f i MainCom.obj
 0001:000162f0       ?AnalyzeKernelMiniDump@GostCryptMainCom@@UAGXJ@Z 004172f0 f i MainCom.obj
 0001:00016310       ?AtlThrowLastWin32@ATL@@YGXXZ 00417310 f i MainCom.obj
 0001:00016330       ?BackupVolumeHeader@GostCryptMainCom@@UAGHJHPA_W@Z 00417330 f i MainCom.obj
 0001:000163b0       ?CallDriver@GostCryptMainCom@@UAGKKPA_WPAPA_W@Z 004173b0 f i MainCom.obj
 0001:000163d0       ?ChangePassword@GostCryptMainCom@@UAGHPA_WPAUPassword@@1HJ@Z 004173d0 f i MainCom.obj
 0001:00016460       ?CopyFileA@GostCryptMainCom@@UAGKPA_W0@Z 00417460 f i MainCom.obj
 0001:00016480       ?CreateInstance@?$GostCryptFactory@VGostCryptMainCom@@@@UAGJPAUIUnknown@@ABU_GUID@@PAPAX@Z 00417480 f i MainCom.obj
 0001:00016520       ?DeleteFileA@GostCryptMainCom@@UAGKPA_W@Z 00417520 f i MainCom.obj
 0001:00016540       ?GetElevatedInstance@@YAPAUIGostCryptMainCom@@PAUHWND__@@@Z 00417540 f   MainCom.obj
 0001:00016580       ?Init@?$CW2AEX@$0IA@@ATL@@AAEXPB_WI@Z 00417580 f i MainCom.obj
 0001:00016670       ?IsPagingFileActive@GostCryptMainCom@@UAGHH@Z 00417670 f i MainCom.obj
 0001:00016690       ?IsServerLocked@?$GostCryptFactory@VGostCryptMainCom@@@@UAE_NXZ 00417690 f i MainCom.obj
 0001:000166a0       ?LockServer@?$GostCryptFactory@VGostCryptMainCom@@@@UAGJH@Z 004176a0 f i MainCom.obj
 0001:000166e0       ?QueryInterface@?$GostCryptFactory@VGostCryptMainCom@@@@UAGJABU_GUID@@PAPAX@Z 004176e0 f i MainCom.obj
 0001:00016750       ?QueryInterface@GostCryptMainCom@@UAGJABU_GUID@@PAPAX@Z 00417750 f i MainCom.obj
 0001:000167c0       ?ReadWriteFile@GostCryptMainCom@@UAGKHHPA_WPAPA_W_KIPAK@Z 004177c0 f i MainCom.obj
 0001:000167f0       ?RegisterFilterDriver@GostCryptMainCom@@UAGKHH@Z 004177f0 f i MainCom.obj
 0001:00016810       ?RegisterSystemFavoritesService@GostCryptMainCom@@UAGKH@Z 00417810 f i MainCom.obj
 0001:00016830       ?Release@?$GostCryptFactory@VGostCryptMainCom@@@@UAGKXZ 00417830 f i MainCom.obj
 0001:00016870       ?Release@GostCryptMainCom@@UAGKXZ 00417870 f i MainCom.obj
 0001:000168d0       ?RestoreVolumeHeader@GostCryptMainCom@@UAGHJPA_W@Z 004178d0 f i MainCom.obj
 0001:00016950       ?SetDriverServiceStartType@GostCryptMainCom@@UAGKK@Z 00417950 f i MainCom.obj
 0001:00016970       ?WriteLocalMachineRegistryDwordValue@GostCryptMainCom@@UAGKPA_W0K@Z 00417970 f i MainCom.obj
 0001:00016990       _ComServerMain             00417990 f   MainCom.obj
 0001:00016a80       _UacAnalyzeKernelMiniDump  00417a80 f   MainCom.obj
 0001:00016ae0       _UacBackupVolumeHeader     00417ae0 f   MainCom.obj
 0001:00016b60       _UacChangePwd              00417b60 f   MainCom.obj
 0001:00016be0       _UacRestoreVolumeHeader    00417be0 f   MainCom.obj
 0001:00016c60       ??$?6DU?$char_traits@D@std@@V?$allocator@D@1@@std@@YAAAV?$basic_ostream@DU?$char_traits@D@std@@@0@AAV10@ABV?$basic_string@DU?$char_traits@D@std@@V?$allocator@D@2@@0@@Z 00417c60 f i Mount.obj
 0001:00016f70       ??$?6U?$char_traits@D@std@@@std@@YAAAV?$basic_ostream@DU?$char_traits@D@std@@@0@AAV10@D@Z 00417f70 f i Mount.obj
 0001:000172d0       ??$?8_WU?$char_traits@_W@std@@V?$allocator@_W@1@@std@@YA_NABV?$basic_string@_WU?$char_traits@_W@std@@V?$allocator@_W@2@@0@PB_W@Z 004182d0 f i Mount.obj
 0001:00017320       ??$?9DU?$char_traits@D@std@@V?$allocator@D@1@@std@@YA_NABV?$basic_string@DU?$char_traits@D@std@@V?$allocator@D@2@@0@0@Z 00418320 f i Mount.obj
 0001:00017380       ??$?HDU?$char_traits@D@std@@V?$allocator@D@1@@std@@YA?AV?$basic_string@DU?$char_traits@D@std@@V?$allocator@D@2@@0@D$$QAV10@@Z 00418380 f i Mount.obj
 0001:000173c0       ??$?HDU?$char_traits@D@std@@V?$allocator@D@1@@std@@YA?AV?$basic_string@DU?$char_traits@D@std@@V?$allocator@D@2@@0@PBDABV10@@Z 004183c0 f i Mount.obj
 0001:000174d0       ??$GetContainerForward@V?$list@V?$basic_string@DU?$char_traits@D@std@@V?$allocator@D@2@@std@@V?$allocator@V?$basic_string@DU?$char_traits@D@std@@V?$allocator@D@2@@std@@@2@@std@@@ForEach@GostCrypt@@SA?AU?$ContainerForward@V?$list@V?$basic_string@DU?$char_traits@D@std@@V?$allocator@D@2@@std@@V?$allocator@V?$basic_string@DU?$char_traits@D@std@@V?$allocator@D@2@@std@@@2@@std@@@01@ABV?$list@V?$basic_string@DU?$char_traits@D@std@@V?$allocator@D@2@@std@@V?$allocator@V?$basic_string@DU?$char_traits@D@std@@V?$allocator@D@2@@std@@@2@@std@@@Z 004184d0 f i Mount.obj
 0001:00017540       ??$GetContainerForward@V?$vector@UHostDevice@@V?$allocator@UHostDevice@@@std@@@std@@@ForEach@GostCrypt@@SA?AU?$ContainerForward@V?$vector@UHostDevice@@V?$allocator@UHostDevice@@@std@@@std@@@01@ABV?$vector@UHostDevice@@V?$allocator@UHostDevice@@@std@@@std@@@Z 00418540 f i Mount.obj
 0001:000175b0       ??$_Buynode@ABV?$basic_string@DU?$char_traits@D@std@@V?$allocator@D@2@@std@@@?$_List_buy@V?$basic_string@DU?$char_traits@D@std@@V?$allocator@D@2@@std@@V?$allocator@V?$basic_string@DU?$char_traits@D@std@@V?$allocator@D@2@@std@@@2@@std@@QAEPAU?$_List_node@V?$basic_string@DU?$char_traits@D@std@@V?$allocator@D@2@@std@@PAX@1@PAU21@0ABV?$basic_string@DU?$char_traits@D@std@@V?$allocator@D@2@@1@@Z 004185b0 f i Mount.obj
 0001:00017670       ??$_Buynode@V?$basic_string@DU?$char_traits@D@std@@V?$allocator@D@2@@std@@@?$_List_buy@V?$basic_string@DU?$char_traits@D@std@@V?$allocator@D@2@@std@@V?$allocator@V?$basic_string@DU?$char_traits@D@std@@V?$allocator@D@2@@std@@@2@@std@@QAEPAU?$_List_node@V?$basic_string@DU?$char_traits@D@std@@V?$allocator@D@2@@std@@PAX@1@PAU21@0$$QAV?$basic_string@DU?$char_traits@D@std@@V?$allocator@D@2@@1@@Z 00418670 f i Mount.obj
 0001:000176e0       ??$_Copy_unchecked@PAUHostDevice@@PAU1@@std@@YAPAUHostDevice@@PAU1@00@Z 004186e0 f i Mount.obj
 0001:00017710       ??$_Destroy_range@V?$allocator@UHostDevice@@@std@@PAUHostDevice@@@std@@YAXPAUHostDevice@@0AAU?$_Wrap_alloc@V?$allocator@UHostDevice@@@std@@@0@@Z 00418710 f i Mount.obj
 0001:00017740       ??$_Fill_unchecked1@PAUHostDevice@@U1@@std@@YAXPAUHostDevice@@0ABU1@U?$integral_constant@_N$0A@@0@@Z 00418740 f i Mount.obj
 0001:00017800       ??$_Insert_range@V?$_List_const_iterator@V?$_List_val@U?$_List_simple_types@V?$basic_string@DU?$char_traits@D@std@@V?$allocator@D@2@@std@@@std@@@std@@@std@@@?$list@V?$basic_string@DU?$char_traits@D@std@@V?$allocator@D@2@@std@@V?$allocator@V?$basic_string@DU?$char_traits@D@std@@V?$allocator@D@2@@std@@@2@@std@@QAEXV?$_List_unchecked_const_iterator@V?$_List_val@U?$_List_simple_types@V?$basic_string@DU?$char_traits@D@std@@V?$allocator@D@2@@std@@@std@@@std@@U_Iterator_base0@2@@1@V?$_List_const_iterator@V?$_List_val@U?$_List_simple_types@V?$basic_string@DU?$char_traits@D@std@@V?$allocator@D@2@@std@@@std@@@std@@@1@1Uforward_iterator_tag@1@@Z 00418800 f i Mount.obj
 0001:000178d0       ??$_Move_backward_unchecked1@PAUHostDevice@@PAU1@@std@@YAPAUHostDevice@@PAU1@00U_General_ptr_iterator_tag@0@@Z 004188d0 f i Mount.obj
 0001:000179a0       ??$_Ucopy@PAUHostDevice@@@?$vector@UHostDevice@@V?$allocator@UHostDevice@@@std@@@std@@IAEPAUHostDevice@@PAU2@00@Z 004189a0 f i Mount.obj
 0001:000179d0       ??$_Uninit_alloc_fill_n1@PAUHostDevice@@IV?$allocator@UHostDevice@@@std@@@std@@YAXPAUHostDevice@@IPBU1@AAU?$_Wrap_alloc@V?$allocator@UHostDevice@@@std@@@0@U?$integral_constant@_N$0A@@0@@Z 004189d0 f i Mount.obj
 0001:00017a60       ??$_Uninitialized_copy_al_unchecked1@PAUHostDevice@@PAU1@V?$allocator@UHostDevice@@@std@@@std@@YAPAUHostDevice@@PAU1@00AAU?$_Wrap_alloc@V?$allocator@UHostDevice@@@std@@@0@U_General_ptr_iterator_tag@0@U_Any_tag@0@@Z 00418a60 f i Mount.obj
 0001:00017a60       ??$_Uninitialized_move_al_unchecked1@PAUHostDevice@@PAU1@V?$allocator@UHostDevice@@@std@@@std@@YAPAUHostDevice@@PAU1@00AAU?$_Wrap_alloc@V?$allocator@UHostDevice@@@std@@@0@U_General_ptr_iterator_tag@0@U_Any_tag@0@@Z 00418a60 f i Mount.obj
 0001:00017a60       ??$_Uninitialized_copy_al_unchecked1@PBUHostDevice@@PAU1@V?$allocator@UHostDevice@@@std@@@std@@YAPAUHostDevice@@PBU1@0PAU1@AAU?$_Wrap_alloc@V?$allocator@UHostDevice@@@std@@@0@U_General_ptr_iterator_tag@0@U_Any_tag@0@@Z 00418a60 f i Mount.obj
 0001:00017b00       ??0?$basic_string@DU?$char_traits@D@std@@V?$allocator@D@2@@std@@QAE@ABV01@@Z 00418b00 f i Mount.obj
 0001:00017b30       ??0?$basic_string@DU?$char_traits@D@std@@V?$allocator@D@2@@std@@QAE@XZ 00418b30 f i Mount.obj
 0001:00017b50       ??0?$list@V?$basic_string@DU?$char_traits@D@std@@V?$allocator@D@2@@std@@V?$allocator@V?$basic_string@DU?$char_traits@D@std@@V?$allocator@D@2@@std@@@2@@std@@QAE@ABV01@@Z 00418b50 f i Mount.obj
 0001:00017bf0       ??0?$vector@UHostDevice@@V?$allocator@UHostDevice@@@std@@@std@@QAE@ABV01@@Z 00418bf0 f i Mount.obj
 0001:00017dd0       ??0HostDevice@@QAE@ABU0@@Z 00418dd0 f i Mount.obj
 0001:00017f00       ??1?$ContainerForward@V?$list@V?$basic_string@DU?$char_traits@D@std@@V?$allocator@D@2@@std@@V?$allocator@V?$basic_string@DU?$char_traits@D@std@@V?$allocator@D@2@@std@@@2@@std@@@ForEach@GostCrypt@@UAE@XZ 00418f00 f i Mount.obj
 0001:00017f20       ??1?$ContainerForward@V?$vector@UHostDevice@@V?$allocator@UHostDevice@@@std@@@std@@@ForEach@GostCrypt@@UAE@XZ 00418f20 f i Mount.obj
 0001:00017f40       ??1?$vector@UFavoriteVolume@GostCrypt@@V?$allocator@UFavoriteVolume@GostCrypt@@@std@@@std@@QAE@XZ 00418f40 f i Mount.obj
 0001:00017f50       ??1?$vector@UHostDevice@@V?$allocator@UHostDevice@@@std@@@std@@QAE@XZ 00418f50 f i Mount.obj
 0001:00018050       ??1HostDevice@@QAE@XZ      00419050 f i Mount.obj
 0001:00018140       ??4?$basic_string@_WU?$char_traits@_W@std@@V?$allocator@_W@2@@std@@QAEAAV01@$$QAV01@@Z 00419140 f i Mount.obj
 0001:000181c0       ??4?$vector@UHostDevice@@V?$allocator@UHostDevice@@@std@@@std@@QAEAAV01@ABV01@@Z 004191c0 f i Mount.obj
 0001:000183a0       ??4HostDevice@@QAEAAU0@ABU0@@Z 004193a0 f i Mount.obj
 0001:00018450       ??6?$basic_ostream@DU?$char_traits@D@std@@@std@@QAEAAV01@G@Z 00419450 f i Mount.obj
 0001:000186a0       ??Y?$basic_string@_WU?$char_traits@_W@std@@V?$allocator@_W@2@@std@@QAEAAV01@PB_W@Z 004196a0 f i Mount.obj
 0001:000186f0       ??_E?$ContainerForward@V?$list@V?$basic_string@DU?$char_traits@D@std@@V?$allocator@D@2@@std@@V?$allocator@V?$basic_string@DU?$char_traits@D@std@@V?$allocator@D@2@@std@@@2@@std@@@ForEach@GostCrypt@@UAEPAXI@Z 004196f0 f i Mount.obj
 0001:000186f0       ??_G?$ContainerForward@V?$list@V?$basic_string@DU?$char_traits@D@std@@V?$allocator@D@2@@std@@V?$allocator@V?$basic_string@DU?$char_traits@D@std@@V?$allocator@D@2@@std@@@2@@std@@@ForEach@GostCrypt@@UAEPAXI@Z 004196f0 f i Mount.obj
 0001:00018730       ??_G?$ContainerForward@V?$vector@UHostDevice@@V?$allocator@UHostDevice@@@std@@@std@@@ForEach@GostCrypt@@UAEPAXI@Z 00419730 f i Mount.obj
 0001:00018730       ??_E?$ContainerForward@V?$vector@UHostDevice@@V?$allocator@UHostDevice@@@std@@@std@@@ForEach@GostCrypt@@UAEPAXI@Z 00419730 f i Mount.obj
 0001:00018760       ?ActiveSysEncDeviceSelected@@YAHXZ 00419760 f   Mount.obj
 0001:00018eb0       ?GetExecutableImageInformation@@YAHABV?$basic_string@DU?$char_traits@D@std@@V?$allocator@D@2@@std@@AAV12@111@Z 00419eb0 f   Mount.obj
 0001:00019420       ?GetSysEncDeviceEncryptedPartSize@@YA_KH@Z 0041a420 f   Mount.obj
 0001:000194d0       ?GetSysEncDeviceSize@@YA_KH@Z 0041a4d0 f   Mount.obj
 0001:00019a70       ?IsNotEnd@?$ContainerForward@V?$vector@USecurityTokenKeyfile@GostCrypt@@V?$allocator@USecurityTokenKeyfile@GostCrypt@@@std@@@std@@@ForEach@GostCrypt@@UBE_NXZ 0041aa70 f i Dlgcode.obj
 0001:00019a70       ?IsNotEnd@?$ContainerForward@V?$vector@UHostDevice@@V?$allocator@UHostDevice@@@std@@@std@@@ForEach@GostCrypt@@UBE_NXZ 0041aa70 f i Mount.obj
 0001:00019a70       ?IsNotEnd@?$ContainerForward@V?$vector@UFavoriteVolume@GostCrypt@@V?$allocator@UFavoriteVolume@GostCrypt@@@std@@@std@@@ForEach@GostCrypt@@UBE_NXZ 0041aa70 f i Favorites.obj
 0001:00019a70       ?IsNotEnd@?$ContainerForward@V?$vector@KV?$allocator@K@std@@@std@@@ForEach@GostCrypt@@UBE_NXZ 0041aa70 f i SecurityToken.obj
 0001:0001b020       ?MountFavoriteVolumes@@YAHHHHABUFavoriteVolume@GostCrypt@@@Z 0041c020 f   Mount.obj
 0001:0001b950       ?Next@?$ContainerForward@V?$vector@UHostDevice@@V?$allocator@UHostDevice@@@std@@@std@@@ForEach@GostCrypt@@UBEXXZ 0041c950 f i Mount.obj
 0001:0001b950       ?Next@?$ContainerForward@V?$vector@USecurityTokenKeyfile@GostCrypt@@V?$allocator@USecurityTokenKeyfile@GostCrypt@@@std@@@std@@@ForEach@GostCrypt@@UBEXXZ 0041c950 f i Dlgcode.obj
 0001:0001bf10       ?PreferencesDlgProc@@YGHPAUHWND__@@IIJ@Z 0041cf10 f   Mount.obj
 0001:0001c710       ?RefreshMainDlg@@YAXPAUHWND__@@@Z 0041d710 f   Mount.obj
 0001:0001ce20       ?SetDriverConfigurationFlag@@YAXIH@Z 0041de20 f   Mount.obj
 0001:0001d4e0       ?TravelerDlgProc@@YGHPAUHWND__@@IIJ@Z 0041e4e0 f   Mount.obj
 0001:0001dff0       ?VolumePropertiesDlgProc@@YGHPAUHWND__@@IIJ@Z 0041eff0 f   Mount.obj
 0001:0001eae0       ?_Buy@?$vector@UHostDevice@@V?$allocator@UHostDevice@@@std@@@std@@IAE_NI@Z 0041fae0 f i Mount.obj
 0001:0001eb40       ?_Destroy@?$vector@UHostDevice@@V?$allocator@UHostDevice@@@std@@@std@@IAEXPAUHostDevice@@0@Z 0041fb40 f i Mount.obj
 0001:0001eb70       ?_Insert_n@?$vector@UHostDevice@@V?$allocator@UHostDevice@@@std@@@std@@IAE?AV?$_Vector_iterator@V?$_Vector_val@U?$_Simple_types@UHostDevice@@@std@@@std@@@2@V?$_Vector_const_iterator@V?$_Vector_val@U?$_Simple_types@UHostDevice@@@std@@@std@@@2@IABUHostDevice@@@Z 0041fb70 f i Mount.obj
 0001:0001efe0       ?_Tidy@?$vector@UHostDevice@@V?$allocator@UHostDevice@@@std@@@std@@IAEXXZ 0041ffe0 f i Mount.obj
 0001:0001f040       ?_Traits_compare@?$basic_string@_WU?$char_traits@_W@std@@V?$allocator@_W@2@@std@@SAHQB_WI0I@Z 00420040 f i Mount.obj
 0001:0001f0a0       ?_Unchecked_erase@?$list@V?$basic_string@DU?$char_traits@D@std@@V?$allocator@D@2@@std@@V?$allocator@V?$basic_string@DU?$char_traits@D@std@@V?$allocator@D@2@@std@@@2@@std@@QAEXV?$_List_unchecked_const_iterator@V?$_List_val@U?$_List_simple_types@V?$basic_string@DU?$char_traits@D@std@@V?$allocator@D@2@@std@@@std@@@std@@U_Iterator_base0@2@@2@@Z 004200a0 f i Mount.obj
 0001:0001f100       ?clear@?$list@V?$basic_string@DU?$char_traits@D@std@@V?$allocator@D@2@@std@@V?$allocator@V?$basic_string@DU?$char_traits@D@std@@V?$allocator@D@2@@std@@@2@@std@@QAEXXZ 00420100 f i Mount.obj
 0001:0001f1a0       ?clear@?$vector@UHostDevice@@V?$allocator@UHostDevice@@@std@@@std@@QAEXXZ 004201a0 f i Mount.obj
 0001:0001f1d0       ?erase@?$list@UFavoriteVolume@GostCrypt@@V?$allocator@UFavoriteVolume@GostCrypt@@@std@@@std@@QAE?AV?$_List_iterator@V?$_List_val@U?$_List_simple_types@UFavoriteVolume@GostCrypt@@@std@@@std@@@2@V?$_List_const_iterator@V?$_List_val@U?$_List_simple_types@UFavoriteVolume@GostCrypt@@@std@@@std@@@2@@Z 004201d0 f i Mount.obj
 0001:0001f210       ?push_back@?$list@UFavoriteVolume@GostCrypt@@V?$allocator@UFavoriteVolume@GostCrypt@@@std@@@std@@QAEXABUFavoriteVolume@GostCrypt@@@Z 00420210 f i Mount.obj
 0001:0001f260       ?push_back@?$list@V?$basic_string@DU?$char_traits@D@std@@V?$allocator@D@2@@std@@V?$allocator@V?$basic_string@DU?$char_traits@D@std@@V?$allocator@D@2@@std@@@2@@std@@QAEX$$QAV?$basic_string@DU?$char_traits@D@std@@V?$allocator@D@2@@2@@Z 00420260 f i Mount.obj
 0001:0001f2b0       ?push_back@?$list@V?$basic_string@DU?$char_traits@D@std@@V?$allocator@D@2@@std@@V?$allocator@V?$basic_string@DU?$char_traits@D@std@@V?$allocator@D@2@@std@@@2@@std@@QAEXABV?$basic_string@DU?$char_traits@D@std@@V?$allocator@D@2@@2@@Z 004202b0 f i Mount.obj
 0001:0001f300       ?size@?$vector@UFavoriteVolume@GostCrypt@@V?$allocator@UFavoriteVolume@GostCrypt@@@std@@@std@@QBEIXZ 00420300 f i Mount.obj
 0001:0001f320       ?swprintf@@YAHQA_WQB_WZZ   00420320 f i Mount.obj
 0001:0001f350       _AnalyzeKernelMiniDump     00420350 f   Mount.obj
 0001:00020cf0       _BackupVolumeHeader        00421cf0 f   Mount.obj
 0001:00021740       _BuildTree                 00422740 f   Mount.obj
 0001:000219a0       _ChangeMainWindowVisibility 004229a0 f   Mount.obj
 0001:00022080       _CheckSysEncMountWithoutPBA 00423080 f   Mount.obj
 0001:000222a0       _CreateRescueDisk          004232a0 f   Mount.obj
 0001:00022a70       _DismountIdleVolumes       00423a70 f   Mount.obj
 0001:00022c80       _EnableDisableButtons      00423c80 f   Mount.obj
 0001:00022e80       _EndMainDlg                00423e80 f   Mount.obj
 0001:00022f60       _ExtractCommandLine        00423f60 f   Mount.obj
 0001:00023f20       _GSTBootLoaderOnInactiveSysEncDrive 00424f20 f   Mount.obj
 0001:00024050       _GetCipherBlockSizeByDriveNo 00425050 f   Mount.obj
 0001:00024120       _GetItemLong               00425120 f   Mount.obj
 0001:00024170       _GetModeOfOperationByDriveNo 00425170 f   Mount.obj
 0001:000241f0       _GetSelectedLong           004251f0 f   Mount.obj
 0001:00024610       _HookMouseWheel            00425610 f   Mount.obj
 0001:000246d0       _LoadDriveLetters          004256d0 f   Mount.obj
 0001:00025500       _LoadSettings              00426500 f   Mount.obj
 0001:00025970       _MainDialogProc@16         00426970 f   Mount.obj
 0001:00029190       _MountOptionsDlgProc@16    0042a190 f   Mount.obj
 0001:000297d0       _MountSelectedVolume       0042a7d0 f   Mount.obj
 0001:000298c0       _PasswordChangeDlgProc@16  0042a8c0 f   Mount.obj
 0001:0002a870       _PasswordDlgProc@16        0042b870 f   Mount.obj
 0001:0002b7c0       _RestoreVolumeHeader       0042c7c0 f   Mount.obj
 0001:0002c220       _SaveSettings              0042d220 f   Mount.obj
 0001:0002c620       _SecurityTokenPreferencesDialog 0042d620 f   Mount.obj
 0001:0002c640       _SelectItem                0042d640 f   Mount.obj
 0001:0002c730       _TaskBarIconAdd            0042d730 f   Mount.obj
 0001:0002c880       _TaskBarIconChange         0042d880 f   Mount.obj
 0001:0002c960       _TaskBarIconRemove         0042d960 f   Mount.obj
 0001:0002ca00       _VolumeSelected            0042da00 f   Mount.obj
 0001:0002ca30       _WholeSysDriveEncryption   0042da30 f   Mount.obj
 0001:0002cb00       _WinMain@16                0042db00 f   Mount.obj
 0001:0002cdb0       ___local_stdio_scanf_options 0042ddb0 f i Mount.obj
 0001:0002cdc0       __snprintf                 0042ddc0 f i Mount.obj
 0001:0002ce00       _fprintf                   0042de00 f i Mount.obj
 0001:0002d010       _sscanf                    0042e010 f i Mount.obj
 0001:0002d040       ??1?$CW2AEX@$0IA@@ATL@@QAE@XZ 0042e040 f i BaseCom.obj
 0001:0002d060       ??1?$auto_ptr@VFile@GostCrypt@@@std@@QAE@XZ 0042e060 f i BaseCom.obj
 0001:0002d0f0       ?CallDriver@BaseCom@@SAKKPA_WPAPA_W@Z 0042e0f0 f   BaseCom.obj
 0001:0002d1d0       ?ComGetInstanceBase@@YAHPAUHWND__@@ABU_GUID@@1PAPAX@Z 0042e1d0 f   BaseCom.obj
 0001:0002d220       ?CopyFileA@BaseCom@@SAKPA_W0@Z 0042e220 f   BaseCom.obj
 0001:0002d310       ?CreateElevatedComObject@@YAJPAUHWND__@@ABU_GUID@@1PAPAX@Z 0042e310 f   BaseCom.obj
 0001:0002d3d0       ?DeleteFileA@BaseCom@@SAKPA_W@Z 0042e3d0 f   BaseCom.obj
 0001:0002d460       ?IsPagingFileActive@BaseCom@@SAHH@Z 0042e460 f   BaseCom.obj
 0001:0002d470       ?ReadWriteFile@BaseCom@@SAKHHPA_WPAPA_W_KIPAK@Z 0042e470 f   BaseCom.obj
 0001:0002d6e0       ?RegisterFilterDriver@BaseCom@@SAKHH@Z 0042e6e0 f   BaseCom.obj
 0001:0002d7b0       ?RegisterSystemFavoritesService@BaseCom@@SAKH@Z 0042e7b0 f   BaseCom.obj
 0001:0002d870       ?SetDriverServiceStartType@BaseCom@@SAKK@Z 0042e870 f   BaseCom.obj
 0001:0002d930       ?WriteLocalMachineRegistryDwordValue@BaseCom@@SAKPA_W0K@Z 0042e930 f   BaseCom.obj
 0001:0002da20       _swprintf_s                0042ea20 f i BaseCom.obj
 0001:0002da50       _CommandHelpDlgProc@16     0042ea50 f   Cmdline.obj
 0001:0002dbb0       _GetArgumentID             0042ebb0 f   Cmdline.obj
 0001:0002e010       _GetArgumentValue          0042f010 f   Cmdline.obj
 0001:0002e090       _Win32CommandLine          0042f090 f   Cmdline.obj
 0001:0002e1c0       _AddComboItem              0042f1c0 f   Combo.obj
 0001:0002e270       _ClearCombo                0042f270 f   Combo.obj
 0001:0002e2a0       _DumpCombo                 0042f2a0 f   Combo.obj
 0001:0002e410       _GetOrderComboIdx          0042f410 f   Combo.obj
 0001:0002e4b0       _IsComboEmpty              0042f4b0 f   Combo.obj
 0001:0002e4e0       _LoadCombo                 0042f4e0 f   Combo.obj
 0001:0002e640       _MoveEditToCombo           0042f640 f   Combo.obj
 0001:0002e780       _UpdateComboOrder          0042f780 f   Combo.obj
 0001:0002e7c0       _GetCrc32                  0042f7c0 f   Crc.obj
 0001:0002e7f0       _crc32_selftests           0042f7f0 f   Crc.obj
 0001:0002e8b0       _crc32int                  0042f8b0 f   Crc.obj
 0001:0002e910       _CipherGetBlockSize        0042f910 f   Crypto.obj
 0001:0002e950       _CipherGetKeyScheduleSize  0042f950 f   Crypto.obj
 0001:0002e990       _CipherInit                0042f990 f   Crypto.obj
 0001:0002e9d0       _DecipherBlock             0042f9d0 f   Crypto.obj
 0001:0002ea10       _DecipherBlocks            0042fa10 f   Crypto.obj
 0001:0002eaa0       _DecryptBuffer             0042faa0 f   Crypto.obj
 0001:0002ed30       _DecryptDataUnits          0042fd30 f   Crypto.obj
 0001:0002ed50       _DecryptDataUnitsCurrentThread 0042fd50 f   Crypto.obj
 0001:0002f000       _EAGetCipherCount          00430000 f   Crypto.obj
 0001:0002f030       _EAGetCount                00430030 f   Crypto.obj
 0001:0002f050       _EAGetFirst                00430050 f   Crypto.obj
 0001:0002f060       _EAGetFirstCipher          00430060 f   Crypto.obj
 0001:0002f080       _EAGetFirstMode            00430080 f   Crypto.obj
 0001:0002f0a0       _EAGetKeyScheduleSize      004300a0 f   Crypto.obj
 0001:0002f160       _EAGetKeySize              00430160 f   Crypto.obj
 0001:0002f220       _EAGetLargestKeyForMode    00430220 f   Crypto.obj
 0001:0002f280       _EAGetLastCipher           00430280 f   Crypto.obj
 0001:0002f2b0       _EAGetModeName             004302b0 f   Crypto.obj
 0001:0002f2e0       _EAGetName                 004302e0 f   Crypto.obj
 0001:0002f440       _EAGetNext                 00430440 f   Crypto.obj
 0001:0002f460       _EAGetNextMode             00430460 f   Crypto.obj
 0001:0002f4a0       _EAGetPreviousCipher       004304a0 f   Crypto.obj
 0001:0002f4f0       _EAInit                    004304f0 f   Crypto.obj
 0001:0002f630       _EAInitMode                00430630 f   Crypto.obj
 0001:0002f680       _EAIsFormatEnabled         00430680 f   Crypto.obj
 0001:0002f6a0       _EAIsModeSupported         004306a0 f   Crypto.obj
 0001:0002f710       __initialize_denormal_control 00430710 f   LIBCMT:denormal_control.obj
 0001:0002f710       ___except_validate_jump_buffer 00430710 f   libvcruntime:jbcxrval.obj
 0001:0002f710       ___except_validate_context_record 00430710 f   libvcruntime:jbcxrval.obj
 0001:0002f710       ?_Unlock@?$basic_streambuf@_WU?$char_traits@_W@std@@@std@@UAEXXZ 00430710 f   BootEncryption.obj
 0001:0002f710       @_guard_check_icall_nop@4  00430710 f   LIBCMT:guard_support.obj
 0001:0002f710       __initialize_invalid_parameter_handler 00430710 f   LIBCMT:invalid_parameter_handler.obj
 0001:0002f710       ??3@YAXPAX0@Z              00430710 f   BootEncryption.obj
 0001:0002f710       ?_Unlock@?$basic_streambuf@DU?$char_traits@D@std@@@std@@UAEXXZ 00430710 f   BootEncryption.obj
 0001:0002f710       _EnableHwEncryption        00430710 f   Crypto.obj
 0001:0002f710       ?_Lock@?$basic_streambuf@DU?$char_traits@D@std@@@std@@UAEXXZ 00430710 f   BootEncryption.obj
 0001:0002f710       ?_Lock@?$basic_streambuf@_WU?$char_traits@_W@std@@@std@@UAEXXZ 00430710 f   BootEncryption.obj
 0001:0002f710       ??1?$_String_alloc@U?$_String_base_types@DV?$allocator@D@std@@@std@@@std@@QAE@XZ 00430710 f   Dlgcode.obj
 0001:0002f720       _EncipherBlock             00430720 f   Crypto.obj
 0001:0002f760       _EncipherBlocks            00430760 f   Crypto.obj
 0001:0002f7f0       _EncryptBuffer             004307f0 f   Crypto.obj
 0001:0002fa00       _EncryptDataUnits          00430a00 f   Crypto.obj
 0001:0002fa20       _EncryptDataUnitsCurrentThread 00430a20 f   Crypto.obj
 0001:0002fc60       _GetMaxPkcs5OutSize        00430c60 f   Crypto.obj
 0001:0002fcb0       _HashGetName               00430cb0 f   Crypto.obj
 0001:0002fcf0       _HashIsDeprecated          00430cf0 f   Crypto.obj
 0001:0002fd30       _IsHwEncryptionEnabled     00430d30 f   Crypto.obj
 0001:0002fd40       _XorKeySchedule            00430d40 f   Crypto.obj
 0001:0002fd90       _crypto_close              00430d90 f   Crypto.obj
 0001:0002fde0       _crypto_loadkey            00430de0 f   Crypto.obj
 0001:0002fe30       _crypto_open               00430e30 f   Crypto.obj
 0001:0002fe70       ??$_Buynode@ABUpiecewise_construct_t@std@@V?$tuple@$$QAV?$basic_string@DU?$char_traits@D@std@@V?$allocator@D@2@@std@@@2@V?$tuple@$$V@2@@?$_Tree_comp_alloc@V?$_Tmap_traits@V?$basic_string@DU?$char_traits@D@std@@V?$allocator@D@2@@std@@PAXU?$less@V?$basic_string@DU?$char_traits@D@std@@V?$allocator@D@2@@std@@@2@V?$allocator@U?$pair@$$CBV?$basic_string@DU?$char_traits@D@std@@V?$allocator@D@2@@std@@PAX@std@@@2@$0A@@std@@@std@@QAEPAU?$_Tree_node@U?$pair@$$CBV?$basic_string@DU?$char_traits@D@std@@V?$allocator@D@2@@std@@PAX@std@@PAX@1@ABUpiecewise_construct_t@1@$$QAV?$tuple@$$QAV?$basic_string@DU?$char_traits@D@std@@V?$allocator@D@2@@std@@@1@$$QAV?$tuple@$$V@1@@Z 00430e70 f i Dictionary.obj
 0001:0002fec0       ??$_Buynode@ABUpiecewise_construct_t@std@@V?$tuple@ABH@2@V?$tuple@$$V@2@@?$_Tree_comp_alloc@V?$_Tmap_traits@HPAXU?$less@H@std@@V?$allocator@U?$pair@$$CBHPAX@std@@@2@$0A@@std@@@std@@QAEPAU?$_Tree_node@U?$pair@$$CBHPAX@std@@PAX@1@ABUpiecewise_construct_t@1@$$QAV?$tuple@ABH@1@$$QAV?$tuple@$$V@1@@Z 00430ec0 f i Dictionary.obj
 0001:0002fef0       ??$_Insert_at@AAU?$pair@$$CBHPAX@std@@PAU?$_Tree_node@U?$pair@$$CBHPAX@std@@PAX@2@@?$_Tree@V?$_Tmap_traits@HPAXU?$less@H@std@@V?$allocator@U?$pair@$$CBHPAX@std@@@2@$0A@@std@@@std@@IAE?AV?$_Tree_iterator@V?$_Tree_val@U?$_Tree_simple_types@U?$pair@$$CBHPAX@std@@@std@@@std@@@1@_NPAU?$_Tree_node@U?$pair@$$CBHPAX@std@@PAX@1@AAU?$pair@$$CBHPAX@1@1@Z 00430ef0 f i Dictionary.obj
 0001:00030090       ??$_Insert_at@AAU?$pair@$$CBV?$basic_string@DU?$char_traits@D@std@@V?$allocator@D@2@@std@@PAX@std@@PAU?$_Tree_node@U?$pair@$$CBV?$basic_string@DU?$char_traits@D@std@@V?$allocator@D@2@@std@@PAX@std@@PAX@2@@?$_Tree@V?$_Tmap_traits@V?$basic_string@DU?$char_traits@D@std@@V?$allocator@D@2@@std@@PAXU?$less@V?$basic_string@DU?$char_traits@D@std@@V?$allocator@D@2@@std@@@2@V?$allocator@U?$pair@$$CBV?$basic_string@DU?$char_traits@D@std@@V?$allocator@D@2@@std@@PAX@std@@@2@$0A@@std@@@std@@IAE?AV?$_Tree_iterator@V?$_Tree_val@U?$_Tree_simple_types@U?$pair@$$CBV?$basic_string@DU?$char_traits@D@std@@V?$allocator@D@2@@std@@PAX@std@@@std@@@std@@@1@_NPAU?$_Tree_node@U?$pair@$$CBV?$basic_string@DU?$char_traits@D@std@@V?$allocator@D@2@@std@@PAX@std@@PAX@1@AAU?$pair@$$CBV?$basic_string@DU?$char_traits@D@std@@V?$allocator@D@2@@std@@PAX@1@1@Z 00431090 f i Dictionary.obj
 0001:00030260       ??$_Insert_hint@AAU?$pair@$$CBHPAX@std@@PAU?$_Tree_node@U?$pair@$$CBHPAX@std@@PAX@2@@?$_Tree@V?$_Tmap_traits@HPAXU?$less@H@std@@V?$allocator@U?$pair@$$CBHPAX@std@@@2@$0A@@std@@@std@@IAE?AV?$_Tree_iterator@V?$_Tree_val@U?$_Tree_simple_types@U?$pair@$$CBHPAX@std@@@std@@@std@@@1@V?$_Tree_const_iterator@V?$_Tree_val@U?$_Tree_simple_types@U?$pair@$$CBHPAX@std@@@std@@@std@@@1@AAU?$pair@$$CBHPAX@1@PAU?$_Tree_node@U?$pair@$$CBHPAX@std@@PAX@1@@Z 00431260 f i Dictionary.obj
 0001:00030450       ??$_Insert_hint@AAU?$pair@$$CBV?$basic_string@DU?$char_traits@D@std@@V?$allocator@D@2@@std@@PAX@std@@PAU?$_Tree_node@U?$pair@$$CBV?$basic_string@DU?$char_traits@D@std@@V?$allocator@D@2@@std@@PAX@std@@PAX@2@@?$_Tree@V?$_Tmap_traits@V?$basic_string@DU?$char_traits@D@std@@V?$allocator@D@2@@std@@PAXU?$less@V?$basic_string@DU?$char_traits@D@std@@V?$allocator@D@2@@std@@@2@V?$allocator@U?$pair@$$CBV?$basic_string@DU?$char_traits@D@std@@V?$allocator@D@2@@std@@PAX@std@@@2@$0A@@std@@@std@@IAE?AV?$_Tree_iterator@V?$_Tree_val@U?$_Tree_simple_types@U?$pair@$$CBV?$basic_string@DU?$char_traits@D@std@@V?$allocator@D@2@@std@@PAX@std@@@std@@@std@@@1@V?$_Tree_const_iterator@V?$_Tree_val@U?$_Tree_simple_types@U?$pair@$$CBV?$basic_string@DU?$char_traits@D@std@@V?$allocator@D@2@@std@@PAX@std@@@std@@@std@@@1@AAU?$pair@$$CBV?$basic_string@DU?$char_traits@D@std@@V?$allocator@D@2@@std@@PAX@1@PAU?$_Tree_node@U?$pair@$$CBV?$basic_string@DU?$char_traits@D@std@@V?$allocator@D@2@@std@@PAX@std@@PAX@1@@Z 00431450 f i Dictionary.obj
 0001:000306b0       ??$_Insert_nohint@AAU?$pair@$$CBHPAX@std@@PAU?$_Tree_node@U?$pair@$$CBHPAX@std@@PAX@2@@?$_Tree@V?$_Tmap_traits@HPAXU?$less@H@std@@V?$allocator@U?$pair@$$CBHPAX@std@@@2@$0A@@std@@@std@@IAE?AU?$pair@V?$_Tree_iterator@V?$_Tree_val@U?$_Tree_simple_types@U?$pair@$$CBHPAX@std@@@std@@@std@@@std@@_N@1@_NAAU?$pair@$$CBHPAX@1@PAU?$_Tree_node@U?$pair@$$CBHPAX@std@@PAX@1@@Z 004316b0 f i Dictionary.obj
 0001:000307d0       ??$_Insert_nohint@AAU?$pair@$$CBV?$basic_string@DU?$char_traits@D@std@@V?$allocator@D@2@@std@@PAX@std@@PAU?$_Tree_node@U?$pair@$$CBV?$basic_string@DU?$char_traits@D@std@@V?$allocator@D@2@@std@@PAX@std@@PAX@2@@?$_Tree@V?$_Tmap_traits@V?$basic_string@DU?$char_traits@D@std@@V?$allocator@D@2@@std@@PAXU?$less@V?$basic_string@DU?$char_traits@D@std@@V?$allocator@D@2@@std@@@2@V?$allocator@U?$pair@$$CBV?$basic_string@DU?$char_traits@D@std@@V?$allocator@D@2@@std@@PAX@std@@@2@$0A@@std@@@std@@IAE?AU?$pair@V?$_Tree_iterator@V?$_Tree_val@U?$_Tree_simple_types@U?$pair@$$CBV?$basic_string@DU?$char_traits@D@std@@V?$allocator@D@2@@std@@PAX@std@@@std@@@std@@@std@@_N@1@_NAAU?$pair@$$CBV?$basic_string@DU?$char_traits@D@std@@V?$allocator@D@2@@std@@PAX@1@PAU?$_Tree_node@U?$pair@$$CBV?$basic_string@DU?$char_traits@D@std@@V?$allocator@D@2@@std@@PAX@std@@PAX@1@@Z 004317d0 f i Dictionary.obj
 0001:00030a40       ??$_Lbound@V?$basic_string@DU?$char_traits@D@std@@V?$allocator@D@2@@std@@@?$_Tree@V?$_Tmap_traits@V?$basic_string@DU?$char_traits@D@std@@V?$allocator@D@2@@std@@PAXU?$less@V?$basic_string@DU?$char_traits@D@std@@V?$allocator@D@2@@std@@@2@V?$allocator@U?$pair@$$CBV?$basic_string@DU?$char_traits@D@std@@V?$allocator@D@2@@std@@PAX@std@@@2@$0A@@std@@@std@@IBEPAU?$_Tree_node@U?$pair@$$CBV?$basic_string@DU?$char_traits@D@std@@V?$allocator@D@2@@std@@PAX@std@@PAX@1@ABV?$basic_string@DU?$char_traits@D@std@@V?$allocator@D@2@@1@@Z 00431a40 f i Dictionary.obj
 0001:00030b20       ??$_Try_emplace@ABH$$V@?$map@HPAXU?$less@H@std@@V?$allocator@U?$pair@$$CBHPAX@std@@@2@@std@@QAE?AU?$pair@V?$_Tree_iterator@V?$_Tree_val@U?$_Tree_simple_types@U?$pair@$$CBHPAX@std@@@std@@@std@@@std@@_N@1@ABH@Z 00431b20 f i Dictionary.obj
 0001:00030bb0       ??$_Try_emplace@V?$basic_string@DU?$char_traits@D@std@@V?$allocator@D@2@@std@@$$V@?$map@V?$basic_string@DU?$char_traits@D@std@@V?$allocator@D@2@@std@@PAXU?$less@V?$basic_string@DU?$char_traits@D@std@@V?$allocator@D@2@@std@@@2@V?$allocator@U?$pair@$$CBV?$basic_string@DU?$char_traits@D@std@@V?$allocator@D@2@@std@@PAX@std@@@2@@std@@QAE?AU?$pair@V?$_Tree_iterator@V?$_Tree_val@U?$_Tree_simple_types@U?$pair@$$CBV?$basic_string@DU?$char_traits@D@std@@V?$allocator@D@2@@std@@PAX@std@@@std@@@std@@@std@@_N@1@$$QAV?$basic_string@DU?$char_traits@D@std@@V?$allocator@D@2@@1@@Z 00431bb0 f i Dictionary.obj
 0001:00030c60       ??F?$_Tree_unchecked_const_iterator@V?$_Tree_val@U?$_Tree_simple_types@U?$pair@$$CBV?$basic_string@DU?$char_traits@D@std@@V?$allocator@D@2@@std@@PAX@std@@@std@@@std@@U_Iterator_base0@2@@std@@QAEAAV01@XZ 00431c60 f i Dictionary.obj
 0001:00030c60       ??F?$_Tree_unchecked_const_iterator@V?$_Tree_val@U?$_Tree_simple_types@U?$pair@$$CBHUHostDevice@@@std@@@std@@@std@@U_Iterator_base0@2@@std@@QAEAAV01@XZ 00431c60 f i Dlgcode.obj
 0001:00030c60       ??F?$_Tree_unchecked_const_iterator@V?$_Tree_val@U?$_Tree_simple_types@U?$pair@$$CBKUPkcs11Session@GostCrypt@@@std@@@std@@@std@@U_Iterator_base0@2@@std@@QAEAAV01@XZ 00431c60 f i SecurityToken.obj
 0001:00030c60       ??F?$_Tree_unchecked_const_iterator@V?$_Tree_val@U?$_Tree_simple_types@U?$pair@$$CBHPAX@std@@@std@@@std@@U_Iterator_base0@2@@std@@QAEAAV01@XZ 00431c60 f i Dictionary.obj
 0001:00030cc0       ??R?$less@V?$basic_string@DU?$char_traits@D@std@@V?$allocator@D@2@@std@@@std@@QBE_NABV?$basic_string@DU?$char_traits@D@std@@V?$allocator@D@2@@1@0@Z 00431cc0 f i Dictionary.obj
 0001:00030d20       ?_Buyheadnode@?$_Tree_comp_alloc@V?$_Tmap_traits@HPAXU?$less@H@std@@V?$allocator@U?$pair@$$CBHPAX@std@@@2@$0A@@std@@@std@@QAEPAU?$_Tree_node@U?$pair@$$CBHPAX@std@@PAX@2@XZ 00431d20 f i Dictionary.obj
 0001:00030d50       ?_Buyheadnode@?$_Tree_comp_alloc@V?$_Tmap_traits@V?$basic_string@DU?$char_traits@D@std@@V?$allocator@D@2@@std@@PAXU?$less@V?$basic_string@DU?$char_traits@D@std@@V?$allocator@D@2@@std@@@2@V?$allocator@U?$pair@$$CBV?$basic_string@DU?$char_traits@D@std@@V?$allocator@D@2@@std@@PAX@std@@@2@$0A@@std@@@std@@QAEPAU?$_Tree_node@U?$pair@$$CBV?$basic_string@DU?$char_traits@D@std@@V?$allocator@D@2@@std@@PAX@std@@PAX@2@XZ 00431d50 f i Dictionary.obj
 0001:00030d80       ?_Buynode0@?$_Tree_comp_alloc@V?$_Tmap_traits@HPAXU?$less@H@std@@V?$allocator@U?$pair@$$CBHPAX@std@@@2@$0A@@std@@@std@@QAEPAU?$_Tree_node@U?$pair@$$CBHPAX@std@@PAX@2@XZ 00431d80 f i Dictionary.obj
 0001:00030dc0       ?_Buynode0@?$_Tree_comp_alloc@V?$_Tmap_traits@V?$basic_string@DU?$char_traits@D@std@@V?$allocator@D@2@@std@@PAXU?$less@V?$basic_string@DU?$char_traits@D@std@@V?$allocator@D@2@@std@@@2@V?$allocator@U?$pair@$$CBV?$basic_string@DU?$char_traits@D@std@@V?$allocator@D@2@@std@@PAX@std@@@2@$0A@@std@@@std@@QAEPAU?$_Tree_node@U?$pair@$$CBV?$basic_string@DU?$char_traits@D@std@@V?$allocator@D@2@@std@@PAX@std@@PAX@2@XZ 00431dc0 f i Dictionary.obj
 0001:00030e00       ?_Destroy_if_not_nil@?$_Tree@V?$_Tmap_traits@V?$basic_string@DU?$char_traits@D@std@@V?$allocator@D@2@@std@@PAXU?$less@V?$basic_string@DU?$char_traits@D@std@@V?$allocator@D@2@@std@@@2@V?$allocator@U?$pair@$$CBV?$basic_string@DU?$char_traits@D@std@@V?$allocator@D@2@@std@@PAX@std@@@2@$0A@@std@@@std@@IAEXPAU?$_Tree_node@U?$pair@$$CBV?$basic_string@DU?$char_traits@D@std@@V?$allocator@D@2@@std@@PAX@std@@PAX@2@@Z 00431e00 f i Dictionary.obj
 0001:00030e50       ?_Erase@?$_Tree@V?$_Tmap_traits@V?$basic_string@DU?$char_traits@D@std@@V?$allocator@D@2@@std@@PAXU?$less@V?$basic_string@DU?$char_traits@D@std@@V?$allocator@D@2@@std@@@2@V?$allocator@U?$pair@$$CBV?$basic_string@DU?$char_traits@D@std@@V?$allocator@D@2@@std@@PAX@std@@@2@$0A@@std@@@std@@IAEXPAU?$_Tree_node@U?$pair@$$CBV?$basic_string@DU?$char_traits@D@std@@V?$allocator@D@2@@std@@PAX@std@@PAX@2@@Z 00431e50 f i Dictionary.obj
 0001:00030f00       ?_Lrotate@?$_Tree@V?$_Tmap_traits@HUHostDevice@@U?$less@H@std@@V?$allocator@U?$pair@$$CBHUHostDevice@@@std@@@3@$0A@@std@@@std@@IAEXPAU?$_Tree_node@U?$pair@$$CBHUHostDevice@@@std@@PAX@2@@Z 00431f00 f i Dlgcode.obj
 0001:00030f00       ?_Lrotate@?$_Tree@V?$_Tmap_traits@V?$basic_string@DU?$char_traits@D@std@@V?$allocator@D@2@@std@@PAXU?$less@V?$basic_string@DU?$char_traits@D@std@@V?$allocator@D@2@@std@@@2@V?$allocator@U?$pair@$$CBV?$basic_string@DU?$char_traits@D@std@@V?$allocator@D@2@@std@@PAX@std@@@2@$0A@@std@@@std@@IAEXPAU?$_Tree_node@U?$pair@$$CBV?$basic_string@DU?$char_traits@D@std@@V?$allocator@D@2@@std@@PAX@std@@PAX@2@@Z 00431f00 f i Dictionary.obj
 0001:00030f00       ?_Lrotate@?$_Tree@V?$_Tmap_traits@KUPkcs11Session@GostCrypt@@U?$less@K@std@@V?$allocator@U?$pair@$$CBKUPkcs11Session@GostCrypt@@@std@@@4@$0A@@std@@@std@@IAEXPAU?$_Tree_node@U?$pair@$$CBKUPkcs11Session@GostCrypt@@@std@@PAX@2@@Z 00431f00 f i SecurityToken.obj
 0001:00030f00       ?_Lrotate@?$_Tree@V?$_Tmap_traits@HPAXU?$less@H@std@@V?$allocator@U?$pair@$$CBHPAX@std@@@2@$0A@@std@@@std@@IAEXPAU?$_Tree_node@U?$pair@$$CBHPAX@std@@PAX@2@@Z 00431f00 f i Dictionary.obj
 0001:00030f60       ?_Rrotate@?$_Tree@V?$_Tmap_traits@HUHostDevice@@U?$less@H@std@@V?$allocator@U?$pair@$$CBHUHostDevice@@@std@@@3@$0A@@std@@@std@@IAEXPAU?$_Tree_node@U?$pair@$$CBHUHostDevice@@@std@@PAX@2@@Z 00431f60 f i Dlgcode.obj
 0001:00030f60       ?_Rrotate@?$_Tree@V?$_Tmap_traits@KUPkcs11Session@GostCrypt@@U?$less@K@std@@V?$allocator@U?$pair@$$CBKUPkcs11Session@GostCrypt@@@std@@@4@$0A@@std@@@std@@IAEXPAU?$_Tree_node@U?$pair@$$CBKUPkcs11Session@GostCrypt@@@std@@PAX@2@@Z 00431f60 f i SecurityToken.obj
 0001:00030f60       ?_Rrotate@?$_Tree@V?$_Tmap_traits@V?$basic_string@DU?$char_traits@D@std@@V?$allocator@D@2@@std@@PAXU?$less@V?$basic_string@DU?$char_traits@D@std@@V?$allocator@D@2@@std@@@2@V?$allocator@U?$pair@$$CBV?$basic_string@DU?$char_traits@D@std@@V?$allocator@D@2@@std@@PAX@std@@@2@$0A@@std@@@std@@IAEXPAU?$_Tree_node@U?$pair@$$CBV?$basic_string@DU?$char_traits@D@std@@V?$allocator@D@2@@std@@PAX@std@@PAX@2@@Z 00431f60 f i Dictionary.obj
 0001:00030f60       ?_Rrotate@?$_Tree@V?$_Tmap_traits@HPAXU?$less@H@std@@V?$allocator@U?$pair@$$CBHPAX@std@@@2@$0A@@std@@@std@@IAEXPAU?$_Tree_node@U?$pair@$$CBHPAX@std@@PAX@2@@Z 00431f60 f i Dictionary.obj
 0001:00030fc0       ?erase@?$_Tree@V?$_Tmap_traits@V?$basic_string@DU?$char_traits@D@std@@V?$allocator@D@2@@std@@PAXU?$less@V?$basic_string@DU?$char_traits@D@std@@V?$allocator@D@2@@std@@@2@V?$allocator@U?$pair@$$CBV?$basic_string@DU?$char_traits@D@std@@V?$allocator@D@2@@std@@PAX@std@@@2@$0A@@std@@@std@@QAE?AV?$_Tree_iterator@V?$_Tree_val@U?$_Tree_simple_types@U?$pair@$$CBV?$basic_string@DU?$char_traits@D@std@@V?$allocator@D@2@@std@@PAX@std@@@std@@@std@@@2@V?$_Tree_const_iterator@V?$_Tree_val@U?$_Tree_simple_types@U?$pair@$$CBV?$basic_string@DU?$char_traits@D@std@@V?$allocator@D@2@@std@@PAX@std@@@std@@@std@@@2@0@Z 00431fc0 f i Dictionary.obj
 0001:000310b0       ?erase@?$_Tree@V?$_Tmap_traits@V?$basic_string@DU?$char_traits@D@std@@V?$allocator@D@2@@std@@PAXU?$less@V?$basic_string@DU?$char_traits@D@std@@V?$allocator@D@2@@std@@@2@V?$allocator@U?$pair@$$CBV?$basic_string@DU?$char_traits@D@std@@V?$allocator@D@2@@std@@PAX@std@@@2@$0A@@std@@@std@@QAE?AV?$_Tree_iterator@V?$_Tree_val@U?$_Tree_simple_types@U?$pair@$$CBV?$basic_string@DU?$char_traits@D@std@@V?$allocator@D@2@@std@@PAX@std@@@std@@@std@@@2@V?$_Tree_const_iterator@V?$_Tree_val@U?$_Tree_simple_types@U?$pair@$$CBV?$basic_string@DU?$char_traits@D@std@@V?$allocator@D@2@@std@@PAX@std@@@std@@@std@@@2@@Z 004320b0 f i Dictionary.obj
 0001:000313a0       ?find@?$_Tree@V?$_Tmap_traits@V?$basic_string@DU?$char_traits@D@std@@V?$allocator@D@2@@std@@PAXU?$less@V?$basic_string@DU?$char_traits@D@std@@V?$allocator@D@2@@std@@@2@V?$allocator@U?$pair@$$CBV?$basic_string@DU?$char_traits@D@std@@V?$allocator@D@2@@std@@PAX@std@@@2@$0A@@std@@@std@@QAE?AV?$_Tree_iterator@V?$_Tree_val@U?$_Tree_simple_types@U?$pair@$$CBV?$basic_string@DU?$char_traits@D@std@@V?$allocator@D@2@@std@@PAX@std@@@std@@@std@@@2@ABV?$basic_string@DU?$char_traits@D@std@@V?$allocator@D@2@@2@@Z 004323a0 f i Dictionary.obj
 0001:00031430       _AddDictionaryEntry        00432430 f   Dictionary.obj
 0001:000314e0       _AddPoolData               004324e0 f   Dictionary.obj
 0001:00031560       _ClearDictionaryPool       00432560 f   Dictionary.obj
 0001:000315e0       _GetDictionaryValue        004325e0 f   Dictionary.obj
 0001:00031690       _GetDictionaryValueByInt   00432690 f   Dictionary.obj
 0001:000316e0       ??$?0ABH$$Z$$V@?$pair@$$CBHUHostDevice@@@std@@QAE@Upiecewise_construct_t@1@V?$tuple@ABH@1@V?$tuple@$$V@1@@Z 004326e0 f i Dlgcode.obj
 0001:00031750       ??$?6_WU?$char_traits@_W@std@@@std@@YAAAV?$basic_ostream@_WU?$char_traits@_W@std@@@0@AAV10@PB_W@Z 00432750 f i Dlgcode.obj
 0001:00031ad0       ??$?6_WU?$char_traits@_W@std@@V?$allocator@_W@1@@std@@YAAAV?$basic_ostream@_WU?$char_traits@_W@std@@@0@AAV10@ABV?$basic_string@_WU?$char_traits@_W@std@@V?$allocator@_W@2@@0@@Z 00432ad0 f i Dlgcode.obj
 0001:00031df0       ??$GetContainerForward@V?$basic_string@DU?$char_traits@D@std@@V?$allocator@D@2@@std@@@ForEach@GostCrypt@@SA?AU?$ContainerForward@V?$basic_string@DU?$char_traits@D@std@@V?$allocator@D@2@@std@@@01@ABV?$basic_string@DU?$char_traits@D@std@@V?$allocator@D@2@@std@@@Z 00432df0 f i Dlgcode.obj
 0001:00031e10       ??$GetContainerForward@V?$list@KV?$allocator@K@std@@@std@@@ForEach@GostCrypt@@SA?AU?$ContainerForward@V?$list@KV?$allocator@K@std@@@std@@@01@ABV?$list@KV?$allocator@K@std@@@std@@@Z 00432e10 f i Dlgcode.obj
 0001:00031e80       ??$GetContainerForward@V?$list@USecurityTokenInfo@GostCrypt@@V?$allocator@USecurityTokenInfo@GostCrypt@@@std@@@std@@@ForEach@GostCrypt@@SA?AU?$ContainerForward@V?$list@USecurityTokenInfo@GostCrypt@@V?$allocator@USecurityTokenInfo@GostCrypt@@@std@@@std@@@01@ABV?$list@USecurityTokenInfo@GostCrypt@@V?$allocator@USecurityTokenInfo@GostCrypt@@@std@@@std@@@Z 00432e80 f i Dlgcode.obj
 0001:00031ef0       ??$GetContainerForward@V?$list@USecurityTokenKeyfile@GostCrypt@@V?$allocator@USecurityTokenKeyfile@GostCrypt@@@std@@@std@@@ForEach@GostCrypt@@SA?AU?$ContainerForward@V?$list@USecurityTokenKeyfile@GostCrypt@@V?$allocator@USecurityTokenKeyfile@GostCrypt@@@std@@@std@@@01@ABV?$list@USecurityTokenKeyfile@GostCrypt@@V?$allocator@USecurityTokenKeyfile@GostCrypt@@@std@@@std@@@Z 00432ef0 f i Dlgcode.obj
 0001:00031f60       ??$GetContainerForward@V?$vector@USecurityTokenKeyfile@GostCrypt@@V?$allocator@USecurityTokenKeyfile@GostCrypt@@@std@@@std@@@ForEach@GostCrypt@@SA?AU?$ContainerForward@V?$vector@USecurityTokenKeyfile@GostCrypt@@V?$allocator@USecurityTokenKeyfile@GostCrypt@@@std@@@std@@@01@ABV?$vector@USecurityTokenKeyfile@GostCrypt@@V?$allocator@USecurityTokenKeyfile@GostCrypt@@@std@@@std@@@Z 00432f60 f i Dlgcode.obj
 0001:00031fd0       ??$_Buynode@ABUSecurityTokenInfo@GostCrypt@@@?$_List_buy@USecurityTokenInfo@GostCrypt@@V?$allocator@USecurityTokenInfo@GostCrypt@@@std@@@std@@QAEPAU?$_List_node@USecurityTokenInfo@GostCrypt@@PAX@1@PAU21@0ABUSecurityTokenInfo@GostCrypt@@@Z 00432fd0 f i Dlgcode.obj
 0001:00032060       ??$_Buynode@ABUSecurityTokenKeyfile@GostCrypt@@@?$_List_buy@USecurityTokenKeyfile@GostCrypt@@V?$allocator@USecurityTokenKeyfile@GostCrypt@@@std@@@std@@QAEPAU?$_List_node@USecurityTokenKeyfile@GostCrypt@@PAX@1@PAU21@0ABUSecurityTokenKeyfile@GostCrypt@@@Z 00433060 f i Dlgcode.obj
 0001:000320f0       ??$_Buynode@ABUpiecewise_construct_t@std@@V?$tuple@ABH@2@V?$tuple@$$V@2@@?$_Tree_comp_alloc@V?$_Tmap_traits@HUHostDevice@@U?$less@H@std@@V?$allocator@U?$pair@$$CBHUHostDevice@@@std@@@3@$0A@@std@@@std@@QAEPAU?$_Tree_node@U?$pair@$$CBHUHostDevice@@@std@@PAX@1@ABUpiecewise_construct_t@1@$$QAV?$tuple@ABH@1@$$QAV?$tuple@$$V@1@@Z 004330f0 f i Dlgcode.obj
 0001:00032130       ??$_Buynode@ABK@?$_List_buy@KV?$allocator@K@std@@@std@@QAEPAU?$_List_node@KPAX@1@PAU21@0ABK@Z 00433130 f i Dlgcode.obj
 0001:00032130       ??$_Buynode@K@?$_List_buy@KV?$allocator@K@std@@@std@@QAEPAU?$_List_node@KPAX@1@PAU21@0$$QAK@Z 00433130 f i Dlgcode.obj
 0001:00032150       ??$_Buynode@USecurityTokenKeyfilePath@GostCrypt@@@?$_List_buy@USecurityTokenKeyfilePath@GostCrypt@@V?$allocator@USecurityTokenKeyfilePath@GostCrypt@@@std@@@std@@QAEPAU?$_List_node@USecurityTokenKeyfilePath@GostCrypt@@PAX@1@PAU21@0$$QAUSecurityTokenKeyfilePath@GostCrypt@@@Z 00433150 f i Dlgcode.obj
 0001:00032190       ??$_Destroy_range@V?$allocator@USecurityTokenKeyfile@GostCrypt@@@std@@PAUSecurityTokenKeyfile@GostCrypt@@@std@@YAXPAUSecurityTokenKeyfile@GostCrypt@@0AAU?$_Wrap_alloc@V?$allocator@USecurityTokenKeyfile@GostCrypt@@@std@@@0@@Z 00433190 f i Dlgcode.obj
 0001:000321c0       ??$_Insert_at@AAU?$pair@$$CBHUHostDevice@@@std@@PAU?$_Tree_node@U?$pair@$$CBHUHostDevice@@@std@@PAX@2@@?$_Tree@V?$_Tmap_traits@HUHostDevice@@U?$less@H@std@@V?$allocator@U?$pair@$$CBHUHostDevice@@@std@@@3@$0A@@std@@@std@@IAE?AV?$_Tree_iterator@V?$_Tree_val@U?$_Tree_simple_types@U?$pair@$$CBHUHostDevice@@@std@@@std@@@std@@@1@_NPAU?$_Tree_node@U?$pair@$$CBHUHostDevice@@@std@@PAX@1@AAU?$pair@$$CBHUHostDevice@@@1@1@Z 004331c0 f i Dlgcode.obj
 0001:00032370       ??$_Insert_hint@AAU?$pair@$$CBHUHostDevice@@@std@@PAU?$_Tree_node@U?$pair@$$CBHUHostDevice@@@std@@PAX@2@@?$_Tree@V?$_Tmap_traits@HUHostDevice@@U?$less@H@std@@V?$allocator@U?$pair@$$CBHUHostDevice@@@std@@@3@$0A@@std@@@std@@IAE?AV?$_Tree_iterator@V?$_Tree_val@U?$_Tree_simple_types@U?$pair@$$CBHUHostDevice@@@std@@@std@@@std@@@1@V?$_Tree_const_iterator@V?$_Tree_val@U?$_Tree_simple_types@U?$pair@$$CBHUHostDevice@@@std@@@std@@@std@@@1@AAU?$pair@$$CBHUHostDevice@@@1@PAU?$_Tree_node@U?$pair@$$CBHUHostDevice@@@std@@PAX@1@@Z 00433370 f i Dlgcode.obj
 0001:000325a0       ??$_Insert_nohint@AAU?$pair@$$CBHUHostDevice@@@std@@PAU?$_Tree_node@U?$pair@$$CBHUHostDevice@@@std@@PAX@2@@?$_Tree@V?$_Tmap_traits@HUHostDevice@@U?$less@H@std@@V?$allocator@U?$pair@$$CBHUHostDevice@@@std@@@3@$0A@@std@@@std@@IAE?AU?$pair@V?$_Tree_iterator@V?$_Tree_val@U?$_Tree_simple_types@U?$pair@$$CBHUHostDevice@@@std@@@std@@@std@@@std@@_N@1@_NAAU?$pair@$$CBHUHostDevice@@@1@PAU?$_Tree_node@U?$pair@$$CBHUHostDevice@@@std@@PAX@1@@Z 004335a0 f i Dlgcode.obj
 0001:000326c0       ??$_Insert_range@V?$_List_const_iterator@V?$_List_val@U?$_List_simple_types@K@std@@@std@@@std@@@?$list@KV?$allocator@K@std@@@std@@QAEXV?$_List_unchecked_const_iterator@V?$_List_val@U?$_List_simple_types@K@std@@@std@@U_Iterator_base0@2@@1@V?$_List_const_iterator@V?$_List_val@U?$_List_simple_types@K@std@@@std@@@1@1Uforward_iterator_tag@1@@Z 004336c0 f i Dlgcode.obj
 0001:00032790       ??$_Insert_range@V?$_List_const_iterator@V?$_List_val@U?$_List_simple_types@USecurityTokenInfo@GostCrypt@@@std@@@std@@@std@@@?$list@USecurityTokenInfo@GostCrypt@@V?$allocator@USecurityTokenInfo@GostCrypt@@@std@@@std@@QAEXV?$_List_unchecked_const_iterator@V?$_List_val@U?$_List_simple_types@USecurityTokenInfo@GostCrypt@@@std@@@std@@U_Iterator_base0@2@@1@V?$_List_const_iterator@V?$_List_val@U?$_List_simple_types@USecurityTokenInfo@GostCrypt@@@std@@@std@@@1@1Uforward_iterator_tag@1@@Z 00433790 f i Dlgcode.obj
 0001:00032860       ??$_Insert_range@V?$_List_const_iterator@V?$_List_val@U?$_List_simple_types@USecurityTokenKeyfile@GostCrypt@@@std@@@std@@@std@@@?$list@USecurityTokenKeyfile@GostCrypt@@V?$allocator@USecurityTokenKeyfile@GostCrypt@@@std@@@std@@QAEXV?$_List_unchecked_const_iterator@V?$_List_val@U?$_List_simple_types@USecurityTokenKeyfile@GostCrypt@@@std@@@std@@U_Iterator_base0@2@@1@V?$_List_const_iterator@V?$_List_val@U?$_List_simple_types@USecurityTokenKeyfile@GostCrypt@@@std@@@std@@@1@1Uforward_iterator_tag@1@@Z 00433860 f i Dlgcode.obj
 0001:00032930       ??$_Maklocstr@_W@std@@YAPA_WPBDPA_WABU_Cvtvec@@@Z 00433930 f i Dlgcode.obj
 0001:000329f0       ??$_Try_emplace@ABH$$V@?$map@HUHostDevice@@U?$less@H@std@@V?$allocator@U?$pair@$$CBHUHostDevice@@@std@@@3@@std@@QAE?AU?$pair@V?$_Tree_iterator@V?$_Tree_val@U?$_Tree_simple_types@U?$pair@$$CBHUHostDevice@@@std@@@std@@@std@@@std@@_N@1@ABH@Z 004339f0 f i Dlgcode.obj
 0001:00032a80       ??$_Uninitialized_copy_al_unchecked1@PBUSecurityTokenKeyfile@GostCrypt@@PAU12@V?$allocator@USecurityTokenKeyfile@GostCrypt@@@std@@@std@@YAPAUSecurityTokenKeyfile@GostCrypt@@PBU12@0PAU12@AAU?$_Wrap_alloc@V?$allocator@USecurityTokenKeyfile@GostCrypt@@@std@@@0@U_General_ptr_iterator_tag@0@U_Any_tag@0@@Z 00433a80 f i Dlgcode.obj
 0001:00032b20       ??$use_facet@V?$num_put@_WV?$ostreambuf_iterator@_WU?$char_traits@_W@std@@@std@@@std@@@std@@YAABV?$num_put@_WV?$ostreambuf_iterator@_WU?$char_traits@_W@std@@@std@@@0@ABVlocale@0@@Z 00433b20 f i Dlgcode.obj
 0001:00032c50       ??$use_facet@V?$numpunct@_W@std@@@std@@YAABV?$numpunct@_W@0@ABVlocale@0@@Z 00433c50 f i Dlgcode.obj
 0001:00032d80       ??0?$ContainerForward@V?$basic_string@DU?$char_traits@D@std@@V?$allocator@D@2@@std@@@ForEach@GostCrypt@@QAE@ABV?$basic_string@DU?$char_traits@D@std@@V?$allocator@D@2@@std@@@Z 00433d80 f i Dlgcode.obj
 0001:00032e20       ??0?$basic_string@_WU?$char_traits@_W@std@@V?$allocator@_W@2@@std@@QAE@XZ 00433e20 f i Dlgcode.obj
 0001:00032e40       ??0?$basic_stringstream@_WU?$char_traits@_W@std@@V?$allocator@_W@2@@std@@QAE@H@Z 00433e40 f i Dlgcode.obj
 0001:00032f30       ??0?$list@KV?$allocator@K@std@@@std@@QAE@ABV01@@Z 00433f30 f i Dlgcode.obj
 0001:00032fd0       ??0?$list@USecurityTokenInfo@GostCrypt@@V?$allocator@USecurityTokenInfo@GostCrypt@@@std@@@std@@QAE@ABV01@@Z 00433fd0 f i Dlgcode.obj
 0001:00033070       ??0?$list@USecurityTokenKeyfile@GostCrypt@@V?$allocator@USecurityTokenKeyfile@GostCrypt@@@std@@@std@@QAE@ABV01@@Z 00434070 f i Dlgcode.obj
 0001:00033110       ??0?$vector@EV?$allocator@E@std@@@std@@QAE@I@Z 00434110 f i Dlgcode.obj
 0001:00033160       ??0?$vector@USecurityTokenKeyfile@GostCrypt@@V?$allocator@USecurityTokenKeyfile@GostCrypt@@@std@@@std@@QAE@ABV01@@Z 00434160 f i Dlgcode.obj
 0001:00033250       ??0SecurityTokenInfo@GostCrypt@@QAE@ABU01@@Z 00434250 f i Dlgcode.obj
 0001:000332f0       ??0SecurityTokenKeyfile@GostCrypt@@QAE@ABU01@@Z 004342f0 f i Dlgcode.obj
 0001:000333b0       ??1?$ContainerForward@V?$basic_string@DU?$char_traits@D@std@@V?$allocator@D@2@@std@@@ForEach@GostCrypt@@UAE@XZ 004343b0 f i Dlgcode.obj
 0001:00033400       ??1?$ContainerForward@V?$list@KV?$allocator@K@std@@@std@@@ForEach@GostCrypt@@UAE@XZ 00434400 f i Dlgcode.obj
 0001:00033450       ??1?$ContainerForward@V?$list@USecurityTokenInfo@GostCrypt@@V?$allocator@USecurityTokenInfo@GostCrypt@@@std@@@std@@@ForEach@GostCrypt@@UAE@XZ 00434450 f i Dlgcode.obj
 0001:00033470       ??1?$ContainerForward@V?$list@USecurityTokenKeyfile@GostCrypt@@V?$allocator@USecurityTokenKeyfile@GostCrypt@@@std@@@std@@@ForEach@GostCrypt@@UAE@XZ 00434470 f i Dlgcode.obj
 0001:00033490       ??1?$ContainerForward@V?$vector@USecurityTokenKeyfile@GostCrypt@@V?$allocator@USecurityTokenKeyfile@GostCrypt@@@std@@@std@@@ForEach@GostCrypt@@UAE@XZ 00434490 f i Dlgcode.obj
 0001:000334b0       ??1?$_List_buy@USecurityTokenKeyfilePath@GostCrypt@@V?$allocator@USecurityTokenKeyfilePath@GostCrypt@@@std@@@std@@QAE@XZ 004344b0 f i Keyfiles.obj
 0001:000334b0       ??1?$_Tree_comp_alloc@V?$_Tmap_traits@KUPkcs11Session@GostCrypt@@U?$less@K@std@@V?$allocator@U?$pair@$$CBKUPkcs11Session@GostCrypt@@@std@@@4@$0A@@std@@@std@@QAE@XZ 004344b0 f i SecurityToken.obj
 0001:000334b0       ??1?$_List_buy@USecurityTokenKeyfile@GostCrypt@@V?$allocator@USecurityTokenKeyfile@GostCrypt@@@std@@@std@@QAE@XZ 004344b0 f i Dlgcode.obj
 0001:000334b0       ??1?$_List_buy@USecurityTokenInfo@GostCrypt@@V?$allocator@USecurityTokenInfo@GostCrypt@@@std@@@std@@QAE@XZ 004344b0 f i Dlgcode.obj
 0001:000334b0       ??1?$_List_buy@V?$basic_string@DU?$char_traits@D@std@@V?$allocator@D@2@@std@@V?$allocator@V?$basic_string@DU?$char_traits@D@std@@V?$allocator@D@2@@std@@@2@@std@@QAE@XZ 004344b0 f i Mount.obj
 0001:000334b0       ??1?$_List_buy@UPartition@GostCrypt@@V?$allocator@UPartition@GostCrypt@@@std@@@std@@QAE@XZ 004344b0 f i BootEncryption.obj
 0001:000334b0       ??1?$_List_buy@UFavoriteVolume@GostCrypt@@V?$allocator@UFavoriteVolume@GostCrypt@@@std@@@std@@QAE@XZ 004344b0 f i Favorites.obj
 0001:000334b0       ??1?$_List_buy@KV?$allocator@K@std@@@std@@QAE@XZ 004344b0 f i Dlgcode.obj
 0001:000334c0       ??1?$auto_ptr@UGetPinFunctor@GostCrypt@@@std@@QAE@XZ 004344c0 f i Dlgcode.obj
 0001:000334c0       ??1?$auto_ptr@USendExceptionFunctor@GostCrypt@@@std@@QAE@XZ 004344c0 f i Dlgcode.obj
 0001:000334d0       ??1?$list@KV?$allocator@K@std@@@std@@QAE@XZ 004344d0 f i Dlgcode.obj
 0001:00033510       ??1?$list@USecurityTokenInfo@GostCrypt@@V?$allocator@USecurityTokenInfo@GostCrypt@@@std@@@std@@QAE@XZ 00434510 f i Dlgcode.obj
 0001:00033530       ??1?$list@USecurityTokenKeyfile@GostCrypt@@V?$allocator@USecurityTokenKeyfile@GostCrypt@@@std@@@std@@QAE@XZ 00434530 f i Dlgcode.obj
 0001:00033550       ??1?$vector@EV?$allocator@E@std@@@std@@QAE@XZ 00434550 f i Dlgcode.obj
 0001:00033560       _NormalCursor              00434560 f   Dlgcode.obj
 0001:000335e0       ??1NewSecurityTokenKeyfileDlgProcParams@@QAE@XZ 004345e0 f i Dlgcode.obj
 0001:00033620       ??1SecurityTokenInfo@GostCrypt@@QAE@XZ 00434620 f i Dlgcode.obj
 0001:00033690       ??1SecurityTokenKeyfile@GostCrypt@@QAE@XZ 00434690 f i Dlgcode.obj
 0001:00033710       ??1SecurityTokenKeyfilePath@GostCrypt@@QAE@XZ 00434710 f i Dlgcode.obj
 0001:00033710       ??1?$basic_string@_WU?$char_traits@_W@std@@V?$allocator@_W@2@@std@@QAE@XZ 00434710 f i BootEncryption.obj
 0001:00033750       ??4?$vector@USecurityTokenKeyfile@GostCrypt@@V?$allocator@USecurityTokenKeyfile@GostCrypt@@@std@@@std@@QAEAAV01@$$QAV01@@Z 00434750 f i Dlgcode.obj
 0001:00033790       ??6?$basic_ostream@DU?$char_traits@D@std@@@std@@QAEAAV01@K@Z 00434790 f i Dlgcode.obj
 0001:00033790       ??6?$basic_ostream@DU?$char_traits@D@std@@@std@@QAEAAV01@I@Z 00434790 f i Mount.obj
 0001:000339d0       ??6?$basic_ostream@DU?$char_traits@D@std@@@std@@QAEAAV01@P6AAAVios_base@1@AAV21@@Z@Z 004349d0 f i Dlgcode.obj
 0001:00033a00       ??6?$basic_ostream@DU?$char_traits@D@std@@@std@@QAEAAV01@_K@Z 00434a00 f i Dlgcode.obj
 0001:00033c50       ??6?$basic_ostream@_WU?$char_traits@_W@std@@@std@@QAEAAV01@K@Z 00434c50 f i Dlgcode.obj
 0001:00033e90       ??E?$_Tree_unchecked_const_iterator@V?$_Tree_val@U?$_Tree_simple_types@U?$pair@$$CBKUPkcs11Session@GostCrypt@@@std@@@std@@@std@@U_Iterator_base0@2@@std@@QAEAAV01@XZ 00434e90 f i SecurityToken.obj
 0001:00033e90       ??E?$_Tree_unchecked_const_iterator@V?$_Tree_val@U?$_Tree_simple_types@U?$pair@$$CBHUHostDevice@@@std@@@std@@@std@@U_Iterator_base0@2@@std@@QAEAAV01@XZ 00434e90 f i Dlgcode.obj
 0001:00033e90       ??E?$_Tree_unchecked_const_iterator@V?$_Tree_val@U?$_Tree_simple_types@U?$pair@$$CBV?$basic_string@DU?$char_traits@D@std@@V?$allocator@D@2@@std@@PAX@std@@@std@@@std@@U_Iterator_base0@2@@std@@QAEAAV01@XZ 00434e90 f i Dictionary.obj
 0001:00033e90       ??E?$_Tree_unchecked_const_iterator@V?$_Tree_val@U?$_Tree_simple_types@U?$pair@$$CBHPAX@std@@@std@@@std@@U_Iterator_base0@2@@std@@QAEAAV01@XZ 00434e90 f i Dictionary.obj
 0001:00033f60       ??_G?$ContainerForward@V?$basic_string@DU?$char_traits@D@std@@V?$allocator@D@2@@std@@@ForEach@GostCrypt@@UAEPAXI@Z 00434f60 f i Dlgcode.obj
 0001:00033f60       ??_E?$ContainerForward@V?$basic_string@DU?$char_traits@D@std@@V?$allocator@D@2@@std@@@ForEach@GostCrypt@@UAEPAXI@Z 00434f60 f i Dlgcode.obj
 0001:00033fc0       ??_G?$ContainerForward@V?$list@KV?$allocator@K@std@@@std@@@ForEach@GostCrypt@@UAEPAXI@Z 00434fc0 f i Dlgcode.obj
 0001:00033fc0       ??_E?$ContainerForward@V?$list@KV?$allocator@K@std@@@std@@@ForEach@GostCrypt@@UAEPAXI@Z 00434fc0 f i Dlgcode.obj
 0001:00033ff0       ??_E?$ContainerForward@V?$list@USecurityTokenInfo@GostCrypt@@V?$allocator@USecurityTokenInfo@GostCrypt@@@std@@@std@@@ForEach@GostCrypt@@UAEPAXI@Z 00434ff0 f i Dlgcode.obj
 0001:00033ff0       ??_G?$ContainerForward@V?$list@USecurityTokenInfo@GostCrypt@@V?$allocator@USecurityTokenInfo@GostCrypt@@@std@@@std@@@ForEach@GostCrypt@@UAEPAXI@Z 00434ff0 f i Dlgcode.obj
 0001:00034030       ??_G?$ContainerForward@V?$list@USecurityTokenKeyfile@GostCrypt@@V?$allocator@USecurityTokenKeyfile@GostCrypt@@@std@@@std@@@ForEach@GostCrypt@@UAEPAXI@Z 00435030 f i Dlgcode.obj
 0001:00034030       ??_E?$ContainerForward@V?$list@USecurityTokenKeyfile@GostCrypt@@V?$allocator@USecurityTokenKeyfile@GostCrypt@@@std@@@std@@@ForEach@GostCrypt@@UAEPAXI@Z 00435030 f i Dlgcode.obj
 0001:00034070       ??_E?$ContainerForward@V?$vector@USecurityTokenKeyfile@GostCrypt@@V?$allocator@USecurityTokenKeyfile@GostCrypt@@@std@@@std@@@ForEach@GostCrypt@@UAEPAXI@Z 00435070 f i Dlgcode.obj
 0001:00034070       ??_G?$ContainerForward@V?$vector@USecurityTokenKeyfile@GostCrypt@@V?$allocator@USecurityTokenKeyfile@GostCrypt@@@std@@@std@@@ForEach@GostCrypt@@UAEPAXI@Z 00435070 f i Dlgcode.obj
 0001:000340a0       ??_G?$num_put@DV?$ostreambuf_iterator@DU?$char_traits@D@std@@@std@@@std@@MAEPAXI@Z 004350a0 f i BootEncryption.obj
 0001:000340a0       ??_E?$num_put@DV?$ostreambuf_iterator@DU?$char_traits@D@std@@@std@@@std@@MAEPAXI@Z 004350a0 f i BootEncryption.obj
 0001:000340a0       ??_E?$num_put@_WV?$ostreambuf_iterator@_WU?$char_traits@_W@std@@@std@@@std@@MAEPAXI@Z 004350a0 f i Dlgcode.obj
 0001:000340a0       ??_G?$num_put@_WV?$ostreambuf_iterator@_WU?$char_traits@_W@std@@@std@@@std@@MAEPAXI@Z 004350a0 f i Dlgcode.obj
 0001:000340d0       ??_E?$numpunct@_W@std@@MAEPAXI@Z 004350d0 f i Dlgcode.obj
 0001:000340d0       ??_G?$numpunct@_W@std@@MAEPAXI@Z 004350d0 f i Dlgcode.obj
 0001:00034120       ??_EPinRequestHandler@?1??InitSecurityTokenLibrary@@YAHXZ@UAEPAXI@Z 00435120 f i Dlgcode.obj
 0001:00034120       ??_GGetPinFunctor@GostCrypt@@UAEPAXI@Z 00435120 f i Dlgcode.obj
 0001:00034120       ??_GPinRequestHandler@?1??InitSecurityTokenLibrary@@YAHXZ@UAEPAXI@Z 00435120 f i Dlgcode.obj
 0001:00034120       ??_EGetPinFunctor@GostCrypt@@UAEPAXI@Z 00435120 f i Dlgcode.obj
 0001:00034150       ??_EWarningHandler@?1??InitSecurityTokenLibrary@@YAHXZ@UAEPAXI@Z 00435150 f i Dlgcode.obj
 0001:00034150       ??_GWarningHandler@?1??InitSecurityTokenLibrary@@YAHXZ@UAEPAXI@Z 00435150 f i Dlgcode.obj
 0001:00034150       ??_ESendExceptionFunctor@GostCrypt@@UAEPAXI@Z 00435150 f i Dlgcode.obj
 0001:00034150       ??_GSendExceptionFunctor@GostCrypt@@UAEPAXI@Z 00435150 f i Dlgcode.obj
 0001:00034180       ?AuxiliaryDlgProc@@YGHPAUHWND__@@IIJ@Z 00435180 f   Dlgcode.obj
 0001:00034350       ?BrowseFilesInDir@@YAHPAUHWND__@@PAD11HHPA_WPB_W3@Z 00435350 f   Dlgcode.obj
 0001:00034c60       ?ExceptionHandler@@YGJPAU_EXCEPTION_POINTERS@@@Z 00435c60 f   Dlgcode.obj
 0001:00034d00       ?ExceptionHandlerThread@@YAXPAX@Z 00435d00 f   Dlgcode.obj
 0001:00035a60       ?FindLatestFileOrDirectory@@YA?AV?$basic_string@DU?$char_traits@D@std@@V?$allocator@D@2@@std@@ABV12@PBD_N2@Z 00436a60 f   Dlgcode.obj
 0001:00035d70       ?FitPathInGfxWidth@@YA?AV?$basic_string@DU?$char_traits@D@std@@V?$allocator@D@2@@std@@PAUHWND__@@PAUHFONT__@@JABV12@@Z 00436d70 f   Dlgcode.obj
 0001:00035ee0       ?GetAvailableHostDevices@@YA?AV?$vector@UHostDevice@@V?$allocator@UHostDevice@@@std@@@std@@_N000@Z 00436ee0 f   Dlgcode.obj
 0001:00036cd0       ?GetDecoyOsInstructionsString@@YA?AV?$basic_string@_WU?$char_traits@_W@std@@V?$allocator@_W@2@@std@@XZ 00437cd0 f   Dlgcode.obj
 0001:00037300       ?GetRescueDiskHelpString@@YA?AV?$basic_string@_WU?$char_traits@_W@std@@V?$allocator@_W@2@@std@@XZ 00438300 f   Dlgcode.obj
 0001:00037600       ?GetServiceConfigPath@@YA?AV?$basic_string@DU?$char_traits@D@std@@V?$allocator@D@2@@std@@PBD@Z 00438600 f   Dlgcode.obj
 0001:00037770       ?GetSysDevicePaths@@YAHPAUHWND__@@@Z 00438770 f   Dlgcode.obj
 0001:00037de0       ?GetSysEncryptionPretestInfo2String@@YA?AV?$basic_string@_WU?$char_traits@_W@std@@V?$allocator@_W@2@@std@@XZ 00438de0 f   Dlgcode.obj
 0001:00037f60       ?GetUserFriendlyVersionString@@YA?AV?$basic_string@DU?$char_traits@D@std@@V?$allocator@D@2@@std@@H@Z 00438f60 f   Dlgcode.obj
 0001:00038070       ?GetWindowsEdition@@YA?AV?$basic_string@DU?$char_traits@D@std@@V?$allocator@D@2@@std@@XZ 00439070 f   Dlgcode.obj
 0001:00038780       ?GetWrongPasswordErrorMessage@@YA?AV?$basic_string@_WU?$char_traits@_W@std@@V?$allocator@_W@2@@std@@PAUHWND__@@@Z 00439780 f   Dlgcode.obj
 0001:00038a00       ?HarddiskVolumePathToPartitionPath@@YA?AV?$basic_string@DU?$char_traits@D@std@@V?$allocator@D@2@@std@@ABV12@@Z 00439a00 f   Dlgcode.obj
 0001:00038e30       ?InvalidParameterHandler@@YAXPB_W00II@Z 00439e30 f   Dlgcode.obj
 0001:00038e40       ?IsNotEnd@?$ContainerForward@V?$basic_string@DU?$char_traits@D@std@@V?$allocator@D@2@@std@@@ForEach@GostCrypt@@UBE_NXZ 00439e40 f i Dlgcode.obj
 0001:00039650       ?Next@?$ContainerForward@V?$basic_string@DU?$char_traits@D@std@@V?$allocator@D@2@@std@@@ForEach@GostCrypt@@UBEXXZ 0043a650 f i Dlgcode.obj
 0001:00039660       ?Next@?$ContainerForward@V?$list@UPartition@GostCrypt@@V?$allocator@UPartition@GostCrypt@@@std@@@std@@@ForEach@GostCrypt@@UBEXXZ 0043a660 f i BootEncryption.obj
 0001:00039660       ?Next@?$ContainerForward@V?$list@USecurityTokenKeyfilePath@GostCrypt@@V?$allocator@USecurityTokenKeyfilePath@GostCrypt@@@std@@@std@@@ForEach@GostCrypt@@UBEXXZ 0043a660 f i Keyfiles.obj
 0001:00039660       ?Next@?$ContainerForward@V?$list@USecurityTokenInfo@GostCrypt@@V?$allocator@USecurityTokenInfo@GostCrypt@@@std@@@std@@@ForEach@GostCrypt@@UBEXXZ 0043a660 f i Dlgcode.obj
 0001:00039660       ?Next@?$ContainerForward@V?$list@KV?$allocator@K@std@@@std@@@ForEach@GostCrypt@@UBEXXZ 0043a660 f i Dlgcode.obj
 0001:00039660       ?Next@?$ContainerForward@V?$list@UFavoriteVolume@GostCrypt@@V?$allocator@UFavoriteVolume@GostCrypt@@@std@@@std@@@ForEach@GostCrypt@@UBEXXZ 0043a660 f i Favorites.obj
 0001:00039660       ?Next@?$ContainerForward@V?$list@V?$basic_string@DU?$char_traits@D@std@@V?$allocator@D@2@@std@@V?$allocator@V?$basic_string@DU?$char_traits@D@std@@V?$allocator@D@2@@std@@@2@@std@@@ForEach@GostCrypt@@UBEXXZ 0043a660 f i Mount.obj
 0001:00039660       ?Next@?$ContainerForward@V?$list@USecurityTokenKeyfile@GostCrypt@@V?$allocator@USecurityTokenKeyfile@GostCrypt@@@std@@@std@@@ForEach@GostCrypt@@UBEXXZ 0043a660 f i Dlgcode.obj
 0001:0003a680       ?SingleStringToWide@@YA?AV?$basic_string@_WU?$char_traits@_W@std@@V?$allocator@_W@2@@std@@ABV?$basic_string@DU?$char_traits@D@std@@V?$allocator@D@2@@2@@Z 0043b680 f   Dlgcode.obj
 0001:0003a760       ?StringToUpperCase@@YA?AV?$basic_string@DU?$char_traits@D@std@@V?$allocator@D@2@@std@@ABV12@@Z 0043b760 f   Dlgcode.obj
 0001:0003a7c0       ?ToUpperCase@@YA?AV?$basic_string@DU?$char_traits@D@std@@V?$allocator@D@2@@std@@ABV12@@Z 0043b7c0 f   Dlgcode.obj
 0001:0003a9b0       ?Utf8StringToWide@@YA?AV?$basic_string@_WU?$char_traits@_W@std@@V?$allocator@_W@2@@std@@ABV?$basic_string@DU?$char_traits@D@std@@V?$allocator@D@2@@2@@Z 0043b9b0 f   Dlgcode.obj
 0001:0003aa90       ?VolumeGuidPathToDevicePath@@YA?AV?$basic_string@DU?$char_traits@D@std@@V?$allocator@D@2@@std@@V12@@Z 0043ba90 f   Dlgcode.obj
 0001:0003ad40       ?WideToSingleString@@YA?AV?$basic_string@DU?$char_traits@D@std@@V?$allocator@D@2@@std@@ABV?$basic_string@_WU?$char_traits@_W@std@@V?$allocator@_W@2@@2@@Z 0043bd40 f   Dlgcode.obj
 0001:0003ae20       ?WideToUtf8String@@YA?AV?$basic_string@DU?$char_traits@D@std@@V?$allocator@D@2@@std@@ABV?$basic_string@_WU?$char_traits@_W@std@@V?$allocator@_W@2@@2@@Z 0043be20 f   Dlgcode.obj
 0001:0003af00       ?_Buyheadnode@?$_Tree_comp_alloc@V?$_Tmap_traits@HUHostDevice@@U?$less@H@std@@V?$allocator@U?$pair@$$CBHUHostDevice@@@std@@@3@$0A@@std@@@std@@QAEPAU?$_Tree_node@U?$pair@$$CBHUHostDevice@@@std@@PAX@2@XZ 0043bf00 f i Dlgcode.obj
 0001:0003af30       ?_Buynode0@?$_List_alloc@U?$_List_base_types@KV?$allocator@K@std@@@std@@@std@@QAEPAU?$_List_node@KPAX@2@PAU32@0@Z 0043bf30 f i Dlgcode.obj
 0001:0003af70       ?_Buynode0@?$_List_alloc@U?$_List_base_types@USecurityTokenInfo@GostCrypt@@V?$allocator@USecurityTokenInfo@GostCrypt@@@std@@@std@@@std@@QAEPAU?$_List_node@USecurityTokenInfo@GostCrypt@@PAX@2@PAU32@0@Z 0043bf70 f i Dlgcode.obj
 0001:0003afb0       ?_Buynode0@?$_List_alloc@U?$_List_base_types@UPartition@GostCrypt@@V?$allocator@UPartition@GostCrypt@@@std@@@std@@@std@@QAEPAU?$_List_node@UPartition@GostCrypt@@PAX@2@PAU32@0@Z 0043bfb0 f i BootEncryption.obj
 0001:0003afb0       ?_Buynode0@?$_List_alloc@U?$_List_base_types@USecurityTokenKeyfile@GostCrypt@@V?$allocator@USecurityTokenKeyfile@GostCrypt@@@std@@@std@@@std@@QAEPAU?$_List_node@USecurityTokenKeyfile@GostCrypt@@PAX@2@PAU32@0@Z 0043bfb0 f i Dlgcode.obj
 0001:0003aff0       ?_Buynode0@?$_List_alloc@U?$_List_base_types@V?$basic_string@DU?$char_traits@D@std@@V?$allocator@D@2@@std@@V?$allocator@V?$basic_string@DU?$char_traits@D@std@@V?$allocator@D@2@@std@@@2@@std@@@std@@QAEPAU?$_List_node@V?$basic_string@DU?$char_traits@D@std@@V?$allocator@D@2@@std@@PAX@2@PAU32@0@Z 0043bff0 f i Mount.obj
 0001:0003aff0       ?_Buynode0@?$_List_alloc@U?$_List_base_types@USecurityTokenKeyfilePath@GostCrypt@@V?$allocator@USecurityTokenKeyfilePath@GostCrypt@@@std@@@std@@@std@@QAEPAU?$_List_node@USecurityTokenKeyfilePath@GostCrypt@@PAX@2@PAU32@0@Z 0043bff0 f i Dlgcode.obj
 0001:0003b030       ?_Buynode0@?$_Tree_comp_alloc@V?$_Tmap_traits@HUHostDevice@@U?$less@H@std@@V?$allocator@U?$pair@$$CBHUHostDevice@@@std@@@3@$0A@@std@@@std@@QAEPAU?$_Tree_node@U?$pair@$$CBHUHostDevice@@@std@@PAX@2@XZ 0043c030 f i Dlgcode.obj
 0001:0003b070       ?_Chassign@?$basic_string@_WU?$char_traits@_W@std@@V?$allocator@_W@2@@std@@QAEXII_W@Z 0043c070 f i Dlgcode.obj
 0001:0003b0d0       ?_Destroy_if_not_nil@?$_Tree@V?$_Tmap_traits@HUHostDevice@@U?$less@H@std@@V?$allocator@U?$pair@$$CBHUHostDevice@@@std@@@3@$0A@@std@@@std@@IAEXPAU?$_Tree_node@U?$pair@$$CBHUHostDevice@@@std@@PAX@2@@Z 0043c0d0 f i Dlgcode.obj
 0001:0003b0f0       ?_Erase@?$_Tree@V?$_Tmap_traits@HUHostDevice@@U?$less@H@std@@V?$allocator@U?$pair@$$CBHUHostDevice@@@std@@@3@$0A@@std@@@std@@IAEXPAU?$_Tree_node@U?$pair@$$CBHUHostDevice@@@std@@PAX@2@@Z 0043c0f0 f i Dlgcode.obj
 0001:0003b130       ?_Fput@?$num_put@_WV?$ostreambuf_iterator@_WU?$char_traits@_W@std@@@std@@@std@@ABA?AV?$ostreambuf_iterator@_WU?$char_traits@_W@std@@@2@V32@AAVios_base@2@_WPBDI@Z 0043c130 f i Dlgcode.obj
 0001:0003b4f0       ?_Getcat@?$num_put@_WV?$ostreambuf_iterator@_WU?$char_traits@_W@std@@@std@@@std@@SAIPAPBVfacet@locale@2@PBV42@@Z 0043c4f0 f i Dlgcode.obj
 0001:0003b5a0       ?_Getcat@?$numpunct@_W@std@@SAIPAPBVfacet@locale@2@PBV42@@Z 0043c5a0 f i Dlgcode.obj
 0001:0003b670       ?_Ifmt@?$num_put@DV?$ostreambuf_iterator@DU?$char_traits@D@std@@@std@@@std@@ABAPADPADPBDH@Z 0043c670 f i BootEncryption.obj
 0001:0003b670       ?_Ifmt@?$num_put@_WV?$ostreambuf_iterator@_WU?$char_traits@_W@std@@@std@@@std@@ABAPADPADPBDH@Z 0043c670 f i Dlgcode.obj
 0001:0003b700       ?_Init@?$numpunct@_W@std@@IAEXABV_Locinfo@2@_N@Z 0043c700 f i Dlgcode.obj
 0001:0003b8d0       ?_Iput@?$num_put@_WV?$ostreambuf_iterator@_WU?$char_traits@_W@std@@@std@@@std@@ABA?AV?$ostreambuf_iterator@_WU?$char_traits@_W@std@@@2@V32@AAVios_base@2@_WPADI@Z 0043c8d0 f i Dlgcode.obj
 0001:0003bc30       ?_Put@?$num_put@_WV?$ostreambuf_iterator@_WU?$char_traits@_W@std@@@std@@@std@@ABA?AV?$ostreambuf_iterator@_WU?$char_traits@_W@std@@@2@V32@PB_WI@Z 0043cc30 f i Dlgcode.obj
 0001:0003bcb0       ?_Reallocate@?$vector@UHostDevice@@V?$allocator@UHostDevice@@@std@@@std@@IAEXI@Z 0043ccb0 f i Dlgcode.obj
 0001:0003bdb0       ?_Rep@?$num_put@_WV?$ostreambuf_iterator@_WU?$char_traits@_W@std@@@std@@@std@@ABA?AV?$ostreambuf_iterator@_WU?$char_traits@_W@std@@@2@V32@_WI@Z 0043cdb0 f i Dlgcode.obj
 0001:0003be20       ?_Reserve@?$vector@UHostDevice@@V?$allocator@UHostDevice@@@std@@@std@@IAEXI@Z 0043ce20 f i Dlgcode.obj
 0001:0003bec0       ?_Tidy@?$list@KV?$allocator@K@std@@@std@@QAEXXZ 0043cec0 f i Dlgcode.obj
 0001:0003bf00       ?_Tidy@?$vector@EV?$allocator@E@std@@@std@@IAEXXZ 0043cf00 f i Dlgcode.obj
 0001:0003bf70       ?_Tidy@?$vector@USecurityTokenKeyfile@GostCrypt@@V?$allocator@USecurityTokenKeyfile@GostCrypt@@@std@@@std@@IAEXXZ 0043cf70 f i Dlgcode.obj
 0001:0003bfd0       ?_Unchecked_erase@?$list@KV?$allocator@K@std@@@std@@QAEXV?$_List_unchecked_const_iterator@V?$_List_val@U?$_List_simple_types@K@std@@@std@@U_Iterator_base0@2@@2@@Z 0043cfd0 f i Dlgcode.obj
 0001:0003c000       ?_Unchecked_erase@?$list@USecurityTokenInfo@GostCrypt@@V?$allocator@USecurityTokenInfo@GostCrypt@@@std@@@std@@QAEXV?$_List_unchecked_const_iterator@V?$_List_val@U?$_List_simple_types@USecurityTokenInfo@GostCrypt@@@std@@@std@@U_Iterator_base0@2@@2@@Z 0043d000 f i Dlgcode.obj
 0001:0003c040       ?_Unchecked_erase@?$list@USecurityTokenKeyfile@GostCrypt@@V?$allocator@USecurityTokenKeyfile@GostCrypt@@@std@@@std@@QAEXV?$_List_unchecked_const_iterator@V?$_List_val@U?$_List_simple_types@USecurityTokenKeyfile@GostCrypt@@@std@@@std@@U_Iterator_base0@2@@2@@Z 0043d040 f i Dlgcode.obj
 0001:0003c080       ?_open@@YAHQBDHH@Z         0043d080 f i Dlgcode.obj
 0001:0003c0b0       ?allocate@?$allocator@USecurityTokenKeyfile@GostCrypt@@@std@@QAEPAUSecurityTokenKeyfile@GostCrypt@@I@Z 0043d0b0 f i Dlgcode.obj
 0001:0003c0b0       ?allocate@?$allocator@UHostDevice@@@std@@QAEPAUHostDevice@@I@Z 0043d0b0 f i Mount.obj
 0001:0003c120       ?assign@?$basic_string@_WU?$char_traits@_W@std@@V?$allocator@_W@2@@std@@QAEAAV12@I_W@Z 0043d120 f i Dlgcode.obj
 0001:0003c1c0       ?clear@?$list@USecurityTokenInfo@GostCrypt@@V?$allocator@USecurityTokenInfo@GostCrypt@@@std@@@std@@QAEXXZ 0043d1c0 f i Dlgcode.obj
 0001:0003c2d0       ?clear@?$list@USecurityTokenKeyfile@GostCrypt@@V?$allocator@USecurityTokenKeyfile@GostCrypt@@@std@@@std@@QAEXXZ 0043d2d0 f i Dlgcode.obj
 0001:0003c310       ?deallocate@?$_Wrap_alloc@V?$allocator@UHostDevice@@@std@@@std@@QAEXPAUHostDevice@@I@Z 0043d310 f i Mount.obj
 0001:0003c310       ?deallocate@?$_Wrap_alloc@V?$allocator@USecurityTokenKeyfile@GostCrypt@@@std@@@std@@QAEXPAUSecurityTokenKeyfile@GostCrypt@@I@Z 0043d310 f i Dlgcode.obj
 0001:0003c370       ?dec@std@@YAAAVios_base@1@AAV21@@Z 0043d370 f i Dlgcode.obj
 0001:0003c390       ?do_decimal_point@?$numpunct@_W@std@@MBE_WXZ 0043d390 f i Dlgcode.obj
 0001:0003c3a0       ?do_falsename@?$numpunct@_W@std@@MBE?AV?$basic_string@_WU?$char_traits@_W@std@@V?$allocator@_W@2@@2@XZ 0043d3a0 f i Dlgcode.obj
 0001:0003c410       ?do_grouping@?$numpunct@_W@std@@MBE?AV?$basic_string@DU?$char_traits@D@std@@V?$allocator@D@2@@2@XZ 0043d410 f i Dlgcode.obj
 0001:0003c410       ?do_grouping@?$numpunct@D@std@@MBE?AV?$basic_string@DU?$char_traits@D@std@@V?$allocator@D@2@@2@XZ 0043d410 f i BootEncryption.obj
 0001:0003c470       ?do_put@?$num_put@_WV?$ostreambuf_iterator@_WU?$char_traits@_W@std@@@std@@@std@@MBE?AV?$ostreambuf_iterator@_WU?$char_traits@_W@std@@@2@V32@AAVios_base@2@_WJ@Z 0043d470 f i Dlgcode.obj
 0001:0003c4e0       ?do_put@?$num_put@_WV?$ostreambuf_iterator@_WU?$char_traits@_W@std@@@std@@@std@@MBE?AV?$ostreambuf_iterator@_WU?$char_traits@_W@std@@@2@V32@AAVios_base@2@_WK@Z 0043d4e0 f i Dlgcode.obj
 0001:0003c550       ?do_put@?$num_put@_WV?$ostreambuf_iterator@_WU?$char_traits@_W@std@@@std@@@std@@MBE?AV?$ostreambuf_iterator@_WU?$char_traits@_W@std@@@2@V32@AAVios_base@2@_WN@Z 0043d550 f i Dlgcode.obj
 0001:0003c6f0       ?do_put@?$num_put@_WV?$ostreambuf_iterator@_WU?$char_traits@_W@std@@@std@@@std@@MBE?AV?$ostreambuf_iterator@_WU?$char_traits@_W@std@@@2@V32@AAVios_base@2@_WO@Z 0043d6f0 f i Dlgcode.obj
 0001:0003c890       ?do_put@?$num_put@_WV?$ostreambuf_iterator@_WU?$char_traits@_W@std@@@std@@@std@@MBE?AV?$ostreambuf_iterator@_WU?$char_traits@_W@std@@@2@V32@AAVios_base@2@_WPBX@Z 0043d890 f i Dlgcode.obj
 0001:0003c8f0       ?do_put@?$num_put@_WV?$ostreambuf_iterator@_WU?$char_traits@_W@std@@@std@@@std@@MBE?AV?$ostreambuf_iterator@_WU?$char_traits@_W@std@@@2@V32@AAVios_base@2@_W_J@Z 0043d8f0 f i Dlgcode.obj
 0001:0003c960       ?do_put@?$num_put@_WV?$ostreambuf_iterator@_WU?$char_traits@_W@std@@@std@@@std@@MBE?AV?$ostreambuf_iterator@_WU?$char_traits@_W@std@@@2@V32@AAVios_base@2@_W_K@Z 0043d960 f i Dlgcode.obj
 0001:0003c9d0       ?do_put@?$num_put@_WV?$ostreambuf_iterator@_WU?$char_traits@_W@std@@@std@@@std@@MBE?AV?$ostreambuf_iterator@_WU?$char_traits@_W@std@@@2@V32@AAVios_base@2@_W_N@Z 0043d9d0 f i Dlgcode.obj
 0001:0003cbd0       ?do_thousands_sep@?$numpunct@_W@std@@MBE_WXZ 0043dbd0 f i Dlgcode.obj
 0001:0003cbe0       ?do_truename@?$numpunct@_W@std@@MBE?AV?$basic_string@_WU?$char_traits@_W@std@@V?$allocator@_W@2@@2@XZ 0043dbe0 f i Dlgcode.obj
 0001:0003cc50       ?erase@?$_Tree@V?$_Tmap_traits@HUHostDevice@@U?$less@H@std@@V?$allocator@U?$pair@$$CBHUHostDevice@@@std@@@3@$0A@@std@@@std@@QAE?AV?$_Tree_iterator@V?$_Tree_val@U?$_Tree_simple_types@U?$pair@$$CBHUHostDevice@@@std@@@std@@@std@@@2@V?$_Tree_const_iterator@V?$_Tree_val@U?$_Tree_simple_types@U?$pair@$$CBHUHostDevice@@@std@@@std@@@std@@@2@0@Z 0043dc50 f i Dlgcode.obj
 0001:0003cd40       ?erase@?$_Tree@V?$_Tmap_traits@HUHostDevice@@U?$less@H@std@@V?$allocator@U?$pair@$$CBHUHostDevice@@@std@@@3@$0A@@std@@@std@@QAE?AV?$_Tree_iterator@V?$_Tree_val@U?$_Tree_simple_types@U?$pair@$$CBHUHostDevice@@@std@@@std@@@std@@@2@V?$_Tree_const_iterator@V?$_Tree_val@U?$_Tree_simple_types@U?$pair@$$CBHUHostDevice@@@std@@@std@@@std@@@2@@Z 0043dd40 f i Dlgcode.obj
 0001:0003cfd0       ?falsename@?$numpunct@D@std@@QBE?AV?$basic_string@DU?$char_traits@D@std@@V?$allocator@D@2@@2@XZ 0043dfd0 f i BootEncryption.obj
 0001:0003cfd0       ?falsename@?$numpunct@_W@std@@QBE?AV?$basic_string@_WU?$char_traits@_W@std@@V?$allocator@_W@2@@2@XZ 0043dfd0 f i Dlgcode.obj
 0001:0003cff0       ?find@?$_Tree@V?$_Tmap_traits@HUHostDevice@@U?$less@H@std@@V?$allocator@U?$pair@$$CBHUHostDevice@@@std@@@3@$0A@@std@@@std@@QAE?AV?$_Tree_iterator@V?$_Tree_val@U?$_Tree_simple_types@U?$pair@$$CBHUHostDevice@@@std@@@std@@@std@@@2@ABH@Z 0043dff0 f i Dlgcode.obj
 0001:0003d040       ?grouping@?$numpunct@D@std@@QBE?AV?$basic_string@DU?$char_traits@D@std@@V?$allocator@D@2@@2@XZ 0043e040 f i BootEncryption.obj
 0001:0003d040       ?grouping@?$numpunct@_W@std@@QBE?AV?$basic_string@DU?$char_traits@D@std@@V?$allocator@D@2@@2@XZ 0043e040 f i Dlgcode.obj
 0001:0003d060       ?hex@std@@YAAAVios_base@1@AAV21@@Z 0043e060 f i Dlgcode.obj
 0001:0003d080       ?insert@?$basic_string@_WU?$char_traits@_W@std@@V?$allocator@_W@2@@std@@QAEAAV12@II_W@Z 0043e080 f i Dlgcode.obj
 0001:0003d1a0       ?push_back@?$list@KV?$allocator@K@std@@@std@@QAEXABK@Z 0043e1a0 f i Dlgcode.obj
 0001:0003d1f0       ?push_back@?$vector@UHostDevice@@V?$allocator@UHostDevice@@@std@@@std@@QAEXABUHostDevice@@@Z 0043e1f0 f i Dlgcode.obj
 0001:0003d2b0       ?truename@?$numpunct@D@std@@QBE?AV?$basic_string@DU?$char_traits@D@std@@V?$allocator@D@2@@2@XZ 0043e2b0 f i BootEncryption.obj
 0001:0003d2b0       ?truename@?$numpunct@_W@std@@QBE?AV?$basic_string@_WU?$char_traits@_W@std@@V?$allocator@_W@2@@2@XZ 0043e2b0 f i Dlgcode.obj
 0001:0003d2d0       _AbortProcess              0043e2d0 f   Dlgcode.obj
 0001:0003d300       _AbortProcessSilent        0043e300 f   Dlgcode.obj
 0001:0003d310       _AboutDlgProc@16           0043e310 f   Dlgcode.obj
 0001:0003d540       _AccommodateTextField      0043e540 f   Dlgcode.obj
 0001:0003d7f0       _AddComboPair              0043e7f0 f   Dlgcode.obj
 0001:0003d820       _Applink                   0043e820 f   Dlgcode.obj
 0001:0003d9a0       _AskErrNoYes               0043e9a0 f   Dlgcode.obj
 0001:0003d9e0       _AskMultiChoice            0043e9e0 f   Dlgcode.obj
 0001:0003da20       _AskNoYes                  0043ea20 f   Dlgcode.obj
 0001:0003da60       _AskNonSysInPlaceEncryptionResume 0043ea60 f   Dlgcode.obj
 0001:0003db50       _AskOkCancel               0043eb50 f   Dlgcode.obj
 0001:0003db90       _AskWarnNoYes              0043eb90 f   Dlgcode.obj
 0001:0003dbd0       _AskWarnYesNo              0043ebd0 f   Dlgcode.obj
 0001:0003dc10       _AskWarnYesNoStringTopmost 0043ec10 f   Dlgcode.obj
 0001:0003dc40       _AskWarnYesNoTopmost       0043ec40 f   Dlgcode.obj
 0001:0003dc80       _AskYesNo                  0043ec80 f   Dlgcode.obj
 0001:0003dcc0       _AskYesNoString            0043ecc0 f   Dlgcode.obj
 0001:0003dcf0       _AskYesNoTopmost           0043ecf0 f   Dlgcode.obj
 0001:0003dd30       _BenchmarkDlgProc@16       0043ed30 f   Dlgcode.obj
 0001:0003e430       _BroadcastDeviceChange     0043f430 f   Dlgcode.obj
 0001:0003e610       _BrowseDirectories         0043f610 f   Dlgcode.obj
 0001:0003e6b0       _BrowseFiles               0043f6b0 f   Dlgcode.obj
 0001:0003e6e0       _BufferContainsString      0043f6e0 f   Dlgcode.obj
 0001:0003e780       _CheckCapsLock             0043f780 f   Dlgcode.obj
 0001:0003e7c0       _CheckFileExtension        0043f7c0 f   Dlgcode.obj
 0001:0003e820       _CheckFileStreamWriteErrors 0043f820 f   Dlgcode.obj
 0001:0003e8c0       _CheckFilesystem           0043f8c0 f   Dlgcode.obj
 0001:0003e9d0       _CipherTestDialogProc@16   0043f9d0 f   Dlgcode.obj
 0001:0003f580       _CleanLastVisitedMRU       00440580 f   Dlgcode.obj
 0001:0003f880       _ClearHistory              00440880 f   Dlgcode.obj
 0001:0003f900       _CloseDriverSetupMutex     00440900 f   Dlgcode.obj
 0001:0003f940       _CloseGSTWindowsEnum@8     00440940 f   Dlgcode.obj
 0001:0003fa20       _CloseSysEncMutex          00440a20 f   Dlgcode.obj
 0001:0003fa60       _CloseVolume               00440a60 f   Dlgcode.obj
 0001:0003fac0       _CloseVolumeExplorerWindows 00440ac0 f   Dlgcode.obj
 0001:0003fbe0       _CompensateDPIFont         00440be0 f   Dlgcode.obj
 0001:0003fc60       _CompensateXDPI            00440c60 f   Dlgcode.obj
 0001:0003fcd0       _CompensateYDPI            00440cd0 f   Dlgcode.obj
 0001:0003fd40       _ConfigReadInt             00440d40 f   Dlgcode.obj
 0001:0003fda0       _ConfigReadString          00440da0 f   Dlgcode.obj
 0001:0003fdd0       _ConfigWriteBegin          00440dd0 f   Dlgcode.obj
 0001:0003fe70       _ConfigWriteEnd            00440e70 f   Dlgcode.obj
 0001:0003ffd0       _ConfigWriteInt            00440fd0 f   Dlgcode.obj
 0001:00040070       _ConfigWriteString         00441070 f   Dlgcode.obj
 0001:000400d0       _CreateDriverSetupMutex    004410d0 f   Dlgcode.obj
 0001:00040130       _CreateFullVolumePath      00441130 f   Dlgcode.obj
 0001:00040190       _CreateSysEncMutex         00441190 f   Dlgcode.obj
 0001:000401f0       _CustomDlgProc@16          004411f0 f   Dlgcode.obj
 0001:00040220       _DebugMsgBox               00441220 f   Dlgcode.obj
 0001:00040290       _DoDriverInstall           00441290 f   Dlgcode.obj
 0001:00040370       _DoPostInstallTasks        00441370 f   Dlgcode.obj
 0001:00040450       _DriverAttach              00441450 f   Dlgcode.obj
 0001:00040850       _DriverUnload              00441850 f   Dlgcode.obj
 0001:00040a60       _DriverUnmountVolume       00441a60 f   Dlgcode.obj
 0001:00040b60       _EnableElevatedCursorChange 00441b60 f   Dlgcode.obj
 0001:00040c20       _Error                     00441c20 f   Dlgcode.obj
 0001:00040c60       _ErrorDirect               00441c60 f   Dlgcode.obj
 0001:00040c90       _Extlink                   00441c90 f   Dlgcode.obj
 0001:00040d50       _FakeDosNameForDevice      00441d50 f   Dlgcode.obj
 0001:00040da0       _FileExists                00441da0 f   Dlgcode.obj
 0001:00040e50       _FileHasReadOnlyAttribute  00441e50 f   Dlgcode.obj
 0001:00040e70       _FindGSTWindowEnum@8       00441e70 f   Dlgcode.obj
 0001:00040f30       _FindString                00441f30 f   Dlgcode.obj
 0001:00041030       _GSTCopyFile               00442030 f   Dlgcode.obj
 0001:00041160       _GetCheckBox               00442160 f   Dlgcode.obj
 0001:00041190       _GetConfigPath             00442190 f   Dlgcode.obj
 0001:00041290       _GetDeviceInfo             00442290 f   Dlgcode.obj
 0001:000412e0       _GetDiskDeviceDriveLetter  004422e0 f   Dlgcode.obj
 0001:000414a0       _GetDriveGeometry          004424a0 f   Dlgcode.obj
 0001:00041540       _GetDriveLabel             00442540 f   Dlgcode.obj
 0001:000415a0       _GetDriverRefCount         004425a0 f   Dlgcode.obj
 0001:000415e0       _GetFirstAvailableDrive    004425e0 f   Dlgcode.obj
 0001:00041610       _GetLegalNotices           00442610 f   Dlgcode.obj
 0001:00041690       _GetMountList              00442690 f   Dlgcode.obj
 0001:000416d0       _GetMountedVolumeDriveNo   004426d0 f   Dlgcode.obj
 0001:000418a0       _GetPartitionInfo          004428a0 f   Dlgcode.obj
 0001:00041930       _GetSizeString             00442930 f   Dlgcode.obj
 0001:00041b80       _GetSpeedString            00442b80 f   Dlgcode.obj
 0001:00041dd0       _GetSystemDriveLetter      00442dd0 f   Dlgcode.obj
 0001:00041e30       _GetTextGfxHeight          00442e30 f   Dlgcode.obj
 0001:00041e90       _GetTextGfxWidth           00442e90 f   Dlgcode.obj
 0001:00041f20       _HandleDriveNotReadyError  00442f20 f   Dlgcode.obj
 0001:00042000       _IncreaseWrongPwdRetryCount 00443000 f   Dlgcode.obj
 0001:00042010       _Info                      00443010 f   Dlgcode.obj
 0001:00042050       _InfoBalloon               00443050 f   Dlgcode.obj
 0001:000420b0       _InfoBalloonDirect         004430b0 f   Dlgcode.obj
 0001:000420f0       _InfoDirect                004430f0 f   Dlgcode.obj
 0001:00042120       _InitApp                   00443120 f   Dlgcode.obj
 0001:000426a0       _InitDialog                004436a0 f   Dlgcode.obj
 0001:00042ab0       _InitHelpFileName          00443ab0 f   Dlgcode.obj
 0001:00042bf0       _InitOSVersionInfo         00443bf0 f   Dlgcode.obj
 0001:00042e30       _InitSecurityTokenLibrary  00443e30 f   Dlgcode.obj
 0001:00042f90       _Is64BitOs                 00443f90 f   Dlgcode.obj
 0001:00043000       _IsAdmin                   00444000 f   Dlgcode.obj
 0001:00043010       _IsApplicationInstalled    00444010 f   Dlgcode.obj
 0001:00043310       _IsBuiltInAdmin            00444310 f   Dlgcode.obj
 0001:000433f0       _IsButtonChecked           004443f0 f   Dlgcode.obj
 0001:00043410       _IsDiskError               00444410 f   Dlgcode.obj
 0001:00043450       _IsDriveAvailable          00444450 f   Dlgcode.obj
 0001:00043470       _IsFileOnReadOnlyFilesystem 00444470 f   Dlgcode.obj
 0001:000434f0       _IsGostCryptInstallerRunning 004444f0 f   Dlgcode.obj
 0001:00043540       _IsHiddenOSRunning         00444540 f   Dlgcode.obj
 0001:000435f0       _IsMountedVolume           004445f0 f   Dlgcode.obj
 0001:000437b0       _IsNonInstallMode          004447b0 f   Dlgcode.obj
 0001:00043960       _IsOSAtLeast               00444960 f   Dlgcode.obj
 0001:00043980       _IsOSVersionAtLeast        00444980 f   Dlgcode.obj
 0001:00043a30       _IsPagingFileActive        00444a30 f   Dlgcode.obj
 0001:00043cf0       _IsPagingFileWildcardActive 00444cf0 f   Dlgcode.obj
 0001:00043db0       _IsPasswordCacheEmpty      00444db0 f   Dlgcode.obj
 0001:00043de0       _IsServerOS                00444de0 f   Dlgcode.obj
 0001:00043e40       _IsSystemDevicePath        00444e40 f   Dlgcode.obj
 0001:00043f60       _IsUacSupported            00444f60 f   Dlgcode.obj
 0001:00044010       _IsVolumeDeviceHosted      00445010 f   Dlgcode.obj
 0001:00044050       _IsWindowsIsoBurnerAvailable 00445050 f   Dlgcode.obj
 0001:00044120       _KeyfileGeneratorDlgProc@16 00445120 f   Dlgcode.obj
 0001:00044730       _LaunchWindowsIsoBurner    00445730 f   Dlgcode.obj
 0001:00044850       _LeftPadString             00445850 f   Dlgcode.obj
 0001:000448a0       _ListItemAdd               004458a0 f   Dlgcode.obj
 0001:000448f0       _ListItemAddW              004458f0 f   Dlgcode.obj
 0001:00044940       _ListSubItemSet            00445940 f   Dlgcode.obj
 0001:00044990       _ListSubItemSetW           00445990 f   Dlgcode.obj
 0001:000449e0       _LoadDefaultKeyFilesParam  004459e0 f   Dlgcode.obj
 0001:00044ab0       _LoadFile                  00445ab0 f   Dlgcode.obj
 0001:00044b40       _LoadNonSysInPlaceEncSettings 00445b40 f   Dlgcode.obj
 0001:00044c00       _LoadSysEncSettings        00445c00 f   Dlgcode.obj
 0001:00044d90       _LocalizeDialog            00445d90 f   Dlgcode.obj
 0001:00044e00       _ManageStartupSeq          00445e00 f   Dlgcode.obj
 0001:00044f60       _MapResource               00445f60 f   Dlgcode.obj
 0001:00044fb0       _MountVolume               00445fb0 f   Dlgcode.obj
 0001:00045c40       _MultiChoiceDialogProc@16  00446c40 f   Dlgcode.obj
 0001:000463f0       _MutexExistsOnSystem       004473f0 f   Dlgcode.obj
 0001:00046440       _NonSysInplaceEncInProgressElsewhere 00447440 f   Dlgcode.obj
 0001:00046490       _OpenDevice                00447490 f   Dlgcode.obj
 0001:00046530       _OpenOnlineHelp            00447530 f   Dlgcode.obj
 0001:00046540       _OpenPageHelp              00447540 f   Dlgcode.obj
 0001:000465d0       _OpenVolume                004475d0 f   Dlgcode.obj
 0001:00046a70       _OpenVolumeExplorerWindow  00447a70 f   Dlgcode.obj
 0001:00046ae0       _PrintHardCopyTextUTF16    00447ae0 f   Dlgcode.obj
 0001:00046e70       _ProcessPaintMessages      00447e70 f   Dlgcode.obj
 0001:00046ed0       _RawDevicesDlgProc@16      00447ed0 f   Dlgcode.obj
 0001:00047a30       _ReEncryptVolumeHeader     00448a30 f   Dlgcode.obj
 0001:00047b40       _ReadEncryptionThreadPoolFreeCpuCountLimit 00448b40 f   Dlgcode.obj
 0001:00047b70       _RedTick@16                00448b70 f   Dlgcode.obj
 0001:00047d40       _RegisterRedTick           00448d40 f   Dlgcode.obj
 0001:00047dc0       _RelativePath2Absolute     00448dc0 f   Dlgcode.obj
 0001:00047eb0       _RemoveDeviceWriteProtection 00448eb0 f   Dlgcode.obj
 0001:00048090       _RemoveFakeDosName         00449090 f   Dlgcode.obj
 0001:000480b0       _RemoveNonSysInPlaceEncNotifications 004490b0 f   Dlgcode.obj
 0001:00048150       _RenderBitmap              00449150 f   Dlgcode.obj
 0001:00048310       _ResetCipherTest           00449310 f   Dlgcode.obj
 0001:00048730       _ResetCurrentDirectory     00449730 f   Dlgcode.obj
 0001:000487b0       _ResetWrongPwdRetryCount   004497b0 f   Dlgcode.obj
 0001:000487c0       _ResolveSymbolicLink       004497c0 f   Dlgcode.obj
 0001:00048870       _RestoreDefaultKeyFilesParam 00449870 f   Dlgcode.obj
 0001:000488b0       _SaveBufferToFile          004498b0 f   Dlgcode.obj
 0001:00048970       _SecurityTokenKeyfileDlgProc@16 00449970 f   Dlgcode.obj
 0001:00049660       _SecurityTokenPasswordDlgProc@16 0044a660 f   Dlgcode.obj
 0001:00049950       _SelectAlgo                0044a950 f   Dlgcode.obj
 0001:000499d0       _SelectMultipleFiles       0044a9d0 f   Dlgcode.obj
 0001:00049bd0       _SelectMultipleFilesNext   0044abd0 f   Dlgcode.obj
 0001:00049ca0       _SetCheckBox               0044aca0 f   Dlgcode.obj
 0001:00049cd0       _SetListScrollHPos         0044acd0 f   Dlgcode.obj
 0001:00049d10       _SplashDlgProc@16          0044ad10 f   Dlgcode.obj
 0001:00049d20       _TaskBarIconDisplayBalloonTooltip 0044ad20 f   Dlgcode.obj
 0001:00049e60       _TextInfoDialogBox         0044ae60 f   Dlgcode.obj
 0001:00049e90       _TextInfoDialogBoxDlgProc@16 0044ae90 f   Dlgcode.obj
 0001:0004a260       _ToBootPwdField            0044b260 f   Dlgcode.obj
 0001:0004a2a0       _ToHyperlink               0044b2a0 f   Dlgcode.obj
 0001:0004a300       _ToSBCS                    0044b300 f   Dlgcode.obj
 0001:0004a390       _ToUNICODE                 0044b390 f   Dlgcode.obj
 0001:0004a430       _UnmountVolume             0044b430 f   Dlgcode.obj
 0001:0004a560       _UpperCaseCopy             0044b560 f   Dlgcode.obj
 0001:0004a5b0       _UserEnrichRandomPool      0044b5b0 f   Dlgcode.obj
 0001:0004a600       _VolumePathExists          0044b600 f   Dlgcode.obj
 0001:0004a770       _WaitCursor                0044b770 f   Dlgcode.obj
 0001:0004a7a0       _Warning                   0044b7a0 f   Dlgcode.obj
 0001:0004a7e0       _WarningBalloon            0044b7e0 f   Dlgcode.obj
 0001:0004a840       _WarningDirect             0044b840 f   Dlgcode.obj
 0001:0004a870       _WarningTopMost            0044b870 f   Dlgcode.obj
 0001:0004a8b0       _WrongPwdRetryCountOverLimit 0044b8b0 f   Dlgcode.obj
 0001:0004a8c0       _cleanup                   0044b8c0 f   Dlgcode.obj
 0001:0004aa70       _err_malloc                0044ba70 f   Dlgcode.obj
 0001:0004aa90       _handleError               0044ba90 f   Dlgcode.obj
 0001:0004ae60       _handleWin32Error          0044be60 f   Dlgcode.obj
 0001:0004af30       _swscanf_s                 0044bf30 f i Dlgcode.obj
 0001:0004af60       _EncryptionThreadPoolBeginKeyDerivation 0044bf60 f   EncryptionThreadPool.obj
 0001:0004b050       _EncryptionThreadPoolDoWork 0044c050 f   EncryptionThreadPool.obj
 0001:0004b260       _EncryptionThreadPoolStart 0044c260 f   EncryptionThreadPool.obj
 0001:0004b3e0       _EncryptionThreadPoolStop  0044c3e0 f   EncryptionThreadPool.obj
 0001:0004b670       _GetEncryptionThreadCount  0044c670 f   EncryptionThreadPool.obj
 0001:0004b680       _GetMaxEncryptionThreadCount 0044c680 f   EncryptionThreadPool.obj
 0001:0004b690       _MirrorBytes16             0044c690 f   Endian.obj
 0001:0004b6b0       _MirrorBytes32             0044c6b0 f   Endian.obj
 0001:0004b6e0       _MirrorBytes64             0044c6e0 f   Endian.obj
 0001:0004b780       ??$GetContainerForward@V?$list@USecurityTokenKeyfilePath@GostCrypt@@V?$allocator@USecurityTokenKeyfilePath@GostCrypt@@@std@@@std@@@ForEach@GostCrypt@@SA?AU?$ContainerForward@V?$list@USecurityTokenKeyfilePath@GostCrypt@@V?$allocator@USecurityTokenKeyfilePath@GostCrypt@@@std@@@std@@@01@ABV?$list@USecurityTokenKeyfilePath@GostCrypt@@V?$allocator@USecurityTokenKeyfilePath@GostCrypt@@@std@@@std@@@Z 0044c780 f i Keyfiles.obj
 0001:0004b7f0       ??$_Buynode@ABUSecurityTokenKeyfilePath@GostCrypt@@@?$_List_buy@USecurityTokenKeyfilePath@GostCrypt@@V?$allocator@USecurityTokenKeyfilePath@GostCrypt@@@std@@@std@@QAEPAU?$_List_node@USecurityTokenKeyfilePath@GostCrypt@@PAX@1@PAU21@0ABUSecurityTokenKeyfilePath@GostCrypt@@@Z 0044c7f0 f i Keyfiles.obj
 0001:0004b8a0       ??$_Insert_range@V?$_List_const_iterator@V?$_List_val@U?$_List_simple_types@USecurityTokenKeyfilePath@GostCrypt@@@std@@@std@@@std@@@?$list@USecurityTokenKeyfilePath@GostCrypt@@V?$allocator@USecurityTokenKeyfilePath@GostCrypt@@@std@@@std@@QAEXV?$_List_unchecked_const_iterator@V?$_List_val@U?$_List_simple_types@USecurityTokenKeyfilePath@GostCrypt@@@std@@@std@@U_Iterator_base0@2@@1@V?$_List_const_iterator@V?$_List_val@U?$_List_simple_types@USecurityTokenKeyfilePath@GostCrypt@@@std@@@std@@@1@1Uforward_iterator_tag@1@@Z 0044c8a0 f i Keyfiles.obj
 0001:0004b970       ??0?$list@USecurityTokenKeyfilePath@GostCrypt@@V?$allocator@USecurityTokenKeyfilePath@GostCrypt@@@std@@@std@@QAE@ABV01@@Z 0044c970 f i Keyfiles.obj
 0001:0004ba10       ??0?$list@USecurityTokenKeyfilePath@GostCrypt@@V?$allocator@USecurityTokenKeyfilePath@GostCrypt@@@std@@@std@@QAE@XZ 0044ca10 f i Keyfiles.obj
 0001:0004ba10       ??0?$list@V?$basic_string@DU?$char_traits@D@std@@V?$allocator@D@2@@std@@V?$allocator@V?$basic_string@DU?$char_traits@D@std@@V?$allocator@D@2@@std@@@2@@std@@QAE@XZ 0044ca10 f i Mount.obj
 0001:0004ba50       ??BSecurityTokenKeyfilePath@GostCrypt@@QBE?AV?$basic_string@_WU?$char_traits@_W@std@@V?$allocator@_W@2@@std@@XZ 0044ca50 f i Keyfiles.obj
 0001:0004ba90       ??_E?$ContainerForward@V?$list@USecurityTokenKeyfilePath@GostCrypt@@V?$allocator@USecurityTokenKeyfilePath@GostCrypt@@@std@@@std@@@ForEach@GostCrypt@@UAEPAXI@Z 0044ca90 f i Keyfiles.obj
 0001:0004ba90       ??_G?$ContainerForward@V?$list@USecurityTokenKeyfilePath@GostCrypt@@V?$allocator@USecurityTokenKeyfilePath@GostCrypt@@@std@@@std@@@ForEach@GostCrypt@@UAEPAXI@Z 0044ca90 f i Keyfiles.obj
 0001:0004be60       ?_Unchecked_erase@?$list@USecurityTokenKeyfilePath@GostCrypt@@V?$allocator@USecurityTokenKeyfilePath@GostCrypt@@@std@@@std@@QAEXV?$_List_unchecked_const_iterator@V?$_List_val@U?$_List_simple_types@USecurityTokenKeyfilePath@GostCrypt@@@std@@@std@@U_Iterator_base0@2@@2@@Z 0044ce60 f i Keyfiles.obj
 0001:0004bec0       ?clear@?$list@USecurityTokenKeyfilePath@GostCrypt@@V?$allocator@USecurityTokenKeyfilePath@GostCrypt@@@std@@@std@@QAEXXZ 0044cec0 f i Keyfiles.obj
 0001:0004bf60       _KeyFileAdd                0044cf60 f   Keyfiles.obj
 0001:0004bfc0       _KeyFileCloneAll           0044cfc0 f   Keyfiles.obj
 0001:0004c090       _KeyFileRemoveAll          0044d090 f   Keyfiles.obj
 0001:0004c0f0       _KeyFilesApply             0044d0f0 f   Keyfiles.obj
 0001:0004c960       _KeyFilesDlgProc@16        0044d960 f   Keyfiles.obj
 0001:0004cf50       _KeyfilesPopupMenu         0044df50 f   Keyfiles.obj
 0001:0004d2a0       _GetActiveLangPackVersion  0044e2a0 f   Language.obj
 0001:0004d2b0       _GetFont                   0044e2b0 f   Language.obj
 0001:0004d2c0       _GetPreferredLangId        0044e2c0 f   Language.obj
 0001:0004d2d0       _GetString                 0044e2d0 f   Language.obj
 0001:0004d300       _LanguageDlgProc@16        0044e300 f   Language.obj
 0001:0004d870       _LoadLanguageFile          0044e870 f   Language.obj
 0001:0004e2b0       _SetPreferredLangId        0044f2b0 f   Language.obj
 0001:0004e2d0       __swprintf                 0044f2d0 f i Language.obj
 0001:0004e300       _ChangePwd                 0044f300 f   Password.obj
 0001:0004ea00       _CheckPasswordCharEncoding 0044fa00 f   Password.obj
 0001:0004eae0       _CheckPasswordLength       0044fae0 f   Password.obj
 0001:0004eb30       _VerifyPasswordAndUpdate   0044fb30 f   Password.obj
 0001:0004ecb0       _derive_key_gosthash       0044fcb0 f   Pkcs5.obj
 0001:0004edb0       _derive_key_stribog        0044fdb0 f   Pkcs5.obj
 0001:0004eec0       _derive_key_whirlpool      0044fec0 f   Pkcs5.obj
 0001:0004efd0       _derive_u_gosthash         0044ffd0 f   Pkcs5.obj
 0001:0004f150       _derive_u_stribog          00450150 f   Pkcs5.obj
 0001:0004f320       _derive_u_whirlpool        00450320 f   Pkcs5.obj
 0001:0004f4f0       _get_pkcs5_iteration_count 004504f0 f   Pkcs5.obj
 0001:0004f520       _get_pkcs5_prf_name        00450520 f   Pkcs5.obj
 0001:0004f560       _hmac_gosthash             00450560 f   Pkcs5.obj
 0001:0004f8b0       _hmac_stribog              004508b0 f   Pkcs5.obj
 0001:0004fc20       _hmac_whirlpool            00450c20 f   Pkcs5.obj
 0001:00050000       _FastPoll                  00451000 f   Random.obj
 0001:00050300       _IsRandomPoolEnrichedByUser 00451300 f   Random.obj
 0001:00050310       _KeyboardProc@12           00451310 f   Random.obj
 0001:00050460       _MouseProc@12              00451460 f   Random.obj
 0001:00050950       _RandAddInt                00451950 f   Random.obj
 0001:00050a60       _RandGetHashFunction       00451a60 f   Random.obj
 0001:00050a70       _RandSetHashFunction       00451a70 f   Random.obj
 0001:00050aa0       _RandStop                  00451aa0 f   Random.obj
 0001:00050bf0       _RandaddBuf                00451bf0 f   Random.obj
 0001:00050f20       _RandgetBytes              00451f20 f   Random.obj
 0001:00051070       _Randinit                  00452070 f   Random.obj
 0001:000511d0       _Randmix                   004521d0 f   Random.obj
 0001:000514a0       _RandpeekBytes             004524a0 f   Random.obj
 0001:00051500       _SetRandomPoolEnrichedByUserStatus 00452500 f   Random.obj
 0001:00051510       _SlowPoll                  00452510 f   Random.obj
 0001:000517e0       _DeleteLocalMachineRegistryKey 004527e0 f   Registry.obj
 0001:00051850       _DeleteRegistryValue       00452850 f   Registry.obj
 0001:000518a0       _GetStartupRegKeyName      004528a0 f   Registry.obj
 0001:000518c0       _ReadLocalMachineRegistryDword 004528c0 f   Registry.obj
 0001:00051930       _ReadLocalMachineRegistryMultiString 00452930 f   Registry.obj
 0001:000519a0       _ReadLocalMachineRegistryString 004529a0 f   Registry.obj
 0001:00051a10       _ReadLocalMachineRegistryStringNonReflected 00452a10 f   Registry.obj
 0001:00051a80       _ReadRegistryBytes         00452a80 f   Registry.obj
 0001:00051af0       _ReadRegistryString        00452af0 f   Registry.obj
 0001:00051bd0       _WriteLocalMachineRegistryDword 00452bd0 f   Registry.obj
 0001:00051c50       _WriteLocalMachineRegistryString 00452c50 f   Registry.obj
 0001:00051cf0       _WriteRegistryBytes        00452cf0 f   Registry.obj
 0001:00051d60       _WriteRegistryString       00452d60 f   Registry.obj
 0001:00051dd0       ??$?0U?$_Wrap_alloc@V?$allocator@U?$_Tree_node@U?$pair@$$CBKUPkcs11Session@GostCrypt@@@std@@PAX@std@@@std@@@std@@@?$_Tree@V?$_Tmap_traits@KUPkcs11Session@GostCrypt@@U?$less@K@std@@V?$allocator@U?$pair@$$CBKUPkcs11Session@GostCrypt@@@std@@@4@$0A@@std@@@std@@QAE@ABV01@$$QAU?$_Wrap_alloc@V?$allocator@U?$_Tree_node@U?$pair@$$CBKUPkcs11Session@GostCrypt@@@std@@PAX@std@@@std@@@1@@Z 00452dd0 f i SecurityToken.obj
 0001:00051e60       ??$GetContainerForward@V?$map@KUPkcs11Session@GostCrypt@@U?$less@K@std@@V?$allocator@U?$pair@$$CBKUPkcs11Session@GostCrypt@@@std@@@4@@std@@@ForEach@GostCrypt@@SA?AU?$ContainerForward@V?$map@KUPkcs11Session@GostCrypt@@U?$less@K@std@@V?$allocator@U?$pair@$$CBKUPkcs11Session@GostCrypt@@@std@@@4@@std@@@01@ABV?$map@KUPkcs11Session@GostCrypt@@U?$less@K@std@@V?$allocator@U?$pair@$$CBKUPkcs11Session@GostCrypt@@@std@@@4@@std@@@Z 00452e60 f i SecurityToken.obj
 0001:00051ee0       ??$GetContainerForward@V?$vector@KV?$allocator@K@std@@@std@@@ForEach@GostCrypt@@SA?AU?$ContainerForward@V?$vector@KV?$allocator@K@std@@@std@@@01@ABV?$vector@KV?$allocator@K@std@@@std@@@Z 00452ee0 f i SecurityToken.obj
 0001:00051f50       ??$_Buynode@AAU?$pair@$$CBKUPkcs11Session@GostCrypt@@@std@@@?$_Tree_comp_alloc@V?$_Tmap_traits@KUPkcs11Session@GostCrypt@@U?$less@K@std@@V?$allocator@U?$pair@$$CBKUPkcs11Session@GostCrypt@@@std@@@4@$0A@@std@@@std@@QAEPAU?$_Tree_node@U?$pair@$$CBKUPkcs11Session@GostCrypt@@@std@@PAX@1@AAU?$pair@$$CBKUPkcs11Session@GostCrypt@@@1@@Z 00452f50 f i SecurityToken.obj
 0001:00051f80       ??$_Buynode@ABUpiecewise_construct_t@std@@V?$tuple@ABK@2@V?$tuple@$$V@2@@?$_Tree_comp_alloc@V?$_Tmap_traits@KUPkcs11Session@GostCrypt@@U?$less@K@std@@V?$allocator@U?$pair@$$CBKUPkcs11Session@GostCrypt@@@std@@@4@$0A@@std@@@std@@QAEPAU?$_Tree_node@U?$pair@$$CBKUPkcs11Session@GostCrypt@@@std@@PAX@1@ABUpiecewise_construct_t@1@$$QAV?$tuple@ABK@1@$$QAV?$tuple@$$V@1@@Z 00452f80 f i SecurityToken.obj
 0001:00051fb0       ??$_Buynode@USecurityTokenInfo@GostCrypt@@@?$_List_buy@USecurityTokenInfo@GostCrypt@@V?$allocator@USecurityTokenInfo@GostCrypt@@@std@@@std@@QAEPAU?$_List_node@USecurityTokenInfo@GostCrypt@@PAX@1@PAU21@0$$QAUSecurityTokenInfo@GostCrypt@@@Z 00452fb0 f i SecurityToken.obj
 0001:00052020       ??$_Copy@U_Copy_tag@?$_Tree@V?$_Tmap_traits@KUPkcs11Session@GostCrypt@@U?$less@K@std@@V?$allocator@U?$pair@$$CBKUPkcs11Session@GostCrypt@@@std@@@4@$0A@@std@@@std@@@?$_Tree@V?$_Tmap_traits@KUPkcs11Session@GostCrypt@@U?$less@K@std@@V?$allocator@U?$pair@$$CBKUPkcs11Session@GostCrypt@@@std@@@4@$0A@@std@@@std@@IAEXABV01@U_Copy_tag@01@@Z 00453020 f i SecurityToken.obj
 0001:000520a0       ??$_Copy_nodes@U_Copy_tag@?$_Tree@V?$_Tmap_traits@KUPkcs11Session@GostCrypt@@U?$less@K@std@@V?$allocator@U?$pair@$$CBKUPkcs11Session@GostCrypt@@@std@@@4@$0A@@std@@@std@@@?$_Tree@V?$_Tmap_traits@KUPkcs11Session@GostCrypt@@U?$less@K@std@@V?$allocator@U?$pair@$$CBKUPkcs11Session@GostCrypt@@@std@@@4@$0A@@std@@@std@@IAEPAU?$_Tree_node@U?$pair@$$CBKUPkcs11Session@GostCrypt@@@std@@PAX@1@PAU21@0U_Copy_tag@01@@Z 004530a0 f i SecurityToken.obj
 0001:00052160       ??$_Insert_at@AAU?$pair@$$CBKUPkcs11Session@GostCrypt@@@std@@PAU?$_Tree_node@U?$pair@$$CBKUPkcs11Session@GostCrypt@@@std@@PAX@2@@?$_Tree@V?$_Tmap_traits@KUPkcs11Session@GostCrypt@@U?$less@K@std@@V?$allocator@U?$pair@$$CBKUPkcs11Session@GostCrypt@@@std@@@4@$0A@@std@@@std@@IAE?AV?$_Tree_iterator@V?$_Tree_val@U?$_Tree_simple_types@U?$pair@$$CBKUPkcs11Session@GostCrypt@@@std@@@std@@@std@@@1@_NPAU?$_Tree_node@U?$pair@$$CBKUPkcs11Session@GostCrypt@@@std@@PAX@1@AAU?$pair@$$CBKUPkcs11Session@GostCrypt@@@1@1@Z 00453160 f i SecurityToken.obj
 0001:00052300       ??$_Insert_hint@AAU?$pair@$$CBKUPkcs11Session@GostCrypt@@@std@@PAU?$_Tree_node@U?$pair@$$CBKUPkcs11Session@GostCrypt@@@std@@PAX@2@@?$_Tree@V?$_Tmap_traits@KUPkcs11Session@GostCrypt@@U?$less@K@std@@V?$allocator@U?$pair@$$CBKUPkcs11Session@GostCrypt@@@std@@@4@$0A@@std@@@std@@IAE?AV?$_Tree_iterator@V?$_Tree_val@U?$_Tree_simple_types@U?$pair@$$CBKUPkcs11Session@GostCrypt@@@std@@@std@@@std@@@1@V?$_Tree_const_iterator@V?$_Tree_val@U?$_Tree_simple_types@U?$pair@$$CBKUPkcs11Session@GostCrypt@@@std@@@std@@@std@@@1@AAU?$pair@$$CBKUPkcs11Session@GostCrypt@@@1@PAU?$_Tree_node@U?$pair@$$CBKUPkcs11Session@GostCrypt@@@std@@PAX@1@@Z 00453300 f i SecurityToken.obj
 0001:000524f0       ??$_Insert_nohint@AAU?$pair@$$CBKUPkcs11Session@GostCrypt@@@std@@PAU?$_Tree_node@U?$pair@$$CBKUPkcs11Session@GostCrypt@@@std@@PAX@2@@?$_Tree@V?$_Tmap_traits@KUPkcs11Session@GostCrypt@@U?$less@K@std@@V?$allocator@U?$pair@$$CBKUPkcs11Session@GostCrypt@@@std@@@4@$0A@@std@@@std@@IAE?AU?$pair@V?$_Tree_iterator@V?$_Tree_val@U?$_Tree_simple_types@U?$pair@$$CBKUPkcs11Session@GostCrypt@@@std@@@std@@@std@@@std@@_N@1@_NAAU?$pair@$$CBKUPkcs11Session@GostCrypt@@@1@PAU?$_Tree_node@U?$pair@$$CBKUPkcs11Session@GostCrypt@@@std@@PAX@1@@Z 004534f0 f i SecurityToken.obj
 0001:00052610       ??$_Try_emplace@ABK$$V@?$map@KUPkcs11Session@GostCrypt@@U?$less@K@std@@V?$allocator@U?$pair@$$CBKUPkcs11Session@GostCrypt@@@std@@@4@@std@@QAE?AU?$pair@V?$_Tree_iterator@V?$_Tree_val@U?$_Tree_simple_types@U?$pair@$$CBKUPkcs11Session@GostCrypt@@@std@@@std@@@std@@@std@@_N@1@ABK@Z 00453610 f i SecurityToken.obj
 0001:000526a0       ??$_Uninitialized_move_al_unchecked1@PAUSecurityTokenKeyfile@GostCrypt@@PAU12@V?$allocator@USecurityTokenKeyfile@GostCrypt@@@std@@@std@@YAPAUSecurityTokenKeyfile@GostCrypt@@PAU12@00AAU?$_Wrap_alloc@V?$allocator@USecurityTokenKeyfile@GostCrypt@@@std@@@0@U_General_ptr_iterator_tag@0@U_Any_tag@0@@Z 004536a0 f i SecurityToken.obj
 0001:000526e0       ??0?$vector@KV?$allocator@K@std@@@std@@QAE@ABV01@@Z 004536e0 f i SecurityToken.obj
 0001:00052770       ??0?$vector@KV?$allocator@K@std@@@std@@QAE@I@Z 00453770 f i SecurityToken.obj
 0001:000527e0       ??0InvalidSecurityTokenKeyfilePath@GostCrypt@@QAE@ABU01@@Z 004537e0 f i SecurityToken.obj
 0001:000527f0       ??0Pkcs11Exception@GostCrypt@@QAE@ABU01@@Z 004537f0 f i SecurityToken.obj
 0001:00052820       ??0SecurityTokenKeyfile@GostCrypt@@QAE@$$QAU01@@Z 00453820 f i SecurityToken.obj
 0001:000528c0       ??0SecurityTokenKeyfile@GostCrypt@@QAE@ABUSecurityTokenKeyfilePath@1@@Z 004538c0 f   SecurityToken.obj
 0001:00052ad0       ??0SecurityTokenKeyfileAlreadyExists@GostCrypt@@QAE@ABU01@@Z 00453ad0 f i SecurityToken.obj
 0001:00052ae0       ??0SecurityTokenKeyfileNotFound@GostCrypt@@QAE@ABU01@@Z 00453ae0 f i SecurityToken.obj
 0001:00052af0       ??0SecurityTokenLibraryNotInitialized@GostCrypt@@QAE@ABU01@@Z 00453af0 f i SecurityToken.obj
 0001:00052b00       ??1?$ContainerForward@V?$map@KUPkcs11Session@GostCrypt@@U?$less@K@std@@V?$allocator@U?$pair@$$CBKUPkcs11Session@GostCrypt@@@std@@@4@@std@@@ForEach@GostCrypt@@UAE@XZ 00453b00 f i SecurityToken.obj
 0001:00052b40       ??1?$ContainerForward@V?$vector@KV?$allocator@K@std@@@std@@@ForEach@GostCrypt@@UAE@XZ 00453b40 f i SecurityToken.obj
 0001:00052b80       ??1?$vector@KV?$allocator@K@std@@@std@@QAE@XZ 00453b80 f i SecurityToken.obj
 0001:00052bb0       ??1?$vector@USecurityTokenKeyfile@GostCrypt@@V?$allocator@USecurityTokenKeyfile@GostCrypt@@@std@@@std@@QAE@XZ 00453bb0 f i SecurityToken.obj
 0001:00052cc0       ??4?$vector@EV?$allocator@E@std@@@std@@QAEAAV01@$$QAV01@@Z 00453cc0 f i SecurityToken.obj
 0001:00052d00       ??4SecurityTokenInfo@GostCrypt@@QAEAAU01@$$QAU01@@Z 00453d00 f i SecurityToken.obj
 0001:00052de0       ??4SecurityTokenKeyfile@GostCrypt@@QAEAAU01@ABU01@@Z 00453de0 f i SecurityToken.obj
 0001:00052e60       ??6?$basic_ostream@_WU?$char_traits@_W@std@@@std@@QAEAAV01@_K@Z 00453e60 f i SecurityToken.obj
 0001:000530a0       ??BPkcs11Exception@GostCrypt@@QBE?AV?$basic_string@DU?$char_traits@D@std@@V?$allocator@D@2@@std@@XZ 004540a0 f   SecurityToken.obj
 0001:000532e0       ??BSecurityTokenKeyfile@GostCrypt@@QBE?AUSecurityTokenKeyfilePath@1@XZ 004542e0 f   SecurityToken.obj
 0001:00053510       ??_G?$ContainerForward@V?$map@KUPkcs11Session@GostCrypt@@U?$less@K@std@@V?$allocator@U?$pair@$$CBKUPkcs11Session@GostCrypt@@@std@@@4@@std@@@ForEach@GostCrypt@@UAEPAXI@Z 00454510 f i SecurityToken.obj
 0001:00053510       ??_E?$ContainerForward@V?$map@KUPkcs11Session@GostCrypt@@U?$less@K@std@@V?$allocator@U?$pair@$$CBKUPkcs11Session@GostCrypt@@@std@@@4@@std@@@ForEach@GostCrypt@@UAEPAXI@Z 00454510 f i SecurityToken.obj
 0001:00053560       ??_G?$ContainerForward@V?$vector@KV?$allocator@K@std@@@std@@@ForEach@GostCrypt@@UAEPAXI@Z 00454560 f i SecurityToken.obj
 0001:00053560       ??_E?$ContainerForward@V?$vector@KV?$allocator@K@std@@@std@@@ForEach@GostCrypt@@UAEPAXI@Z 00454560 f i SecurityToken.obj
 0001:000535c0       ?CloseAllSessions@SecurityToken@GostCrypt@@SAXXZ 004545c0 f   SecurityToken.obj
 0001:000536b0       ?CloseLibrary@SecurityToken@GostCrypt@@SAXXZ 004546b0 f   SecurityToken.obj
 0001:000536f0       ?CloseSession@SecurityToken@GostCrypt@@KAXK@Z 004546f0 f   SecurityToken.obj
 0001:000537c0       ?CreateKeyfile@SecurityToken@GostCrypt@@SAXKAAV?$vector@EV?$allocator@E@std@@@std@@ABV?$basic_string@DU?$char_traits@D@std@@V?$allocator@D@2@@4@@Z 004547c0 f   SecurityToken.obj
 0001:00053db0       ?DeleteKeyfile@SecurityToken@GostCrypt@@SAXABUSecurityTokenKeyfile@2@@Z 00454db0 f   SecurityToken.obj
 0001:00053e20       ?GetAvailableKeyfiles@SecurityToken@GostCrypt@@SA?AV?$vector@USecurityTokenKeyfile@GostCrypt@@V?$allocator@USecurityTokenKeyfile@GostCrypt@@@std@@@std@@PAKV?$basic_string@_WU?$char_traits@_W@std@@V?$allocator@_W@2@@4@@Z 00454e20 f   SecurityToken.obj
 0001:00054610       ?GetAvailableTokens@SecurityToken@GostCrypt@@SA?AV?$list@USecurityTokenInfo@GostCrypt@@V?$allocator@USecurityTokenInfo@GostCrypt@@@std@@@std@@XZ 00455610 f   SecurityToken.obj
 0001:00054960       ?GetKeyfileData@SecurityToken@GostCrypt@@SAXABUSecurityTokenKeyfile@2@AAV?$vector@EV?$allocator@E@std@@@std@@@Z 00455960 f   SecurityToken.obj
 0001:00054990       ?GetObjectAttribute@SecurityToken@GostCrypt@@KAXKKKAAV?$vector@EV?$allocator@E@std@@@std@@@Z 00455990 f   SecurityToken.obj
 0001:00054ab0       ?GetObjects@SecurityToken@GostCrypt@@KA?AV?$vector@KV?$allocator@K@std@@@std@@KK@Z 00455ab0 f   SecurityToken.obj
 0001:00054cc0       ?GetTokenInfo@SecurityToken@GostCrypt@@SA?AUSecurityTokenInfo@2@K@Z 00455cc0 f   SecurityToken.obj
 0001:00054ee0       ?GetTokenSlots@SecurityToken@GostCrypt@@KA?AV?$list@KV?$allocator@K@std@@@std@@XZ 00455ee0 f   SecurityToken.obj
 0001:00055090       ?InitLibrary@SecurityToken@GostCrypt@@SAXABV?$basic_string@DU?$char_traits@D@std@@V?$allocator@D@2@@std@@V?$auto_ptr@UGetPinFunctor@GostCrypt@@@4@V?$auto_ptr@USendExceptionFunctor@GostCrypt@@@4@@Z 00456090 f   SecurityToken.obj
 0001:00055210       ?IsKeyfilePathValid@SecurityToken@GostCrypt@@SA_NABV?$basic_string@_WU?$char_traits@_W@std@@V?$allocator@_W@2@@std@@@Z 00456210 f   SecurityToken.obj
 0001:00055230       ?Login@SecurityToken@GostCrypt@@KAXKABV?$basic_string@DU?$char_traits@D@std@@V?$allocator@D@2@@std@@@Z 00456230 f   SecurityToken.obj
 0001:00055310       ?LoginUserIfRequired@SecurityToken@GostCrypt@@KAXK@Z 00456310 f   SecurityToken.obj
 0001:00055860       ?Next@?$ContainerForward@V?$map@KUPkcs11Session@GostCrypt@@U?$less@K@std@@V?$allocator@U?$pair@$$CBKUPkcs11Session@GostCrypt@@@std@@@4@@std@@@ForEach@GostCrypt@@UBEXXZ 00456860 f i SecurityToken.obj
 0001:00055870       ?Next@?$ContainerForward@V?$vector@KV?$allocator@K@std@@@std@@@ForEach@GostCrypt@@UBEXXZ 00456870 f i SecurityToken.obj
 0001:00055880       ?OpenSession@SecurityToken@GostCrypt@@KAXK@Z 00456880 f   SecurityToken.obj
 0001:00055960       ?Show@InvalidSecurityTokenKeyfilePath@GostCrypt@@UBEXPAUHWND__@@@Z 00456960 f i SecurityToken.obj
 0001:00055970       ?Show@Pkcs11Exception@GostCrypt@@UBEXPAUHWND__@@@Z 00456970 f   SecurityToken.obj
 0001:00055e40       ?Show@SecurityTokenKeyfileAlreadyExists@GostCrypt@@UBEXPAUHWND__@@@Z 00456e40 f i SecurityToken.obj
 0001:00055e50       ?Show@SecurityTokenKeyfileNotFound@GostCrypt@@UBEXPAUHWND__@@@Z 00456e50 f i SecurityToken.obj
 0001:00055e60       ?Show@SecurityTokenLibraryNotInitialized@GostCrypt@@UBEXPAUHWND__@@@Z 00456e60 f i SecurityToken.obj
 0001:00055e80       ?_Buyheadnode@?$_Tree_comp_alloc@V?$_Tmap_traits@KUPkcs11Session@GostCrypt@@U?$less@K@std@@V?$allocator@U?$pair@$$CBKUPkcs11Session@GostCrypt@@@std@@@4@$0A@@std@@@std@@QAEPAU?$_Tree_node@U?$pair@$$CBKUPkcs11Session@GostCrypt@@@std@@PAX@2@XZ 00456e80 f i SecurityToken.obj
 0001:00055eb0       ?_Buynode0@?$_Tree_comp_alloc@V?$_Tmap_traits@KUPkcs11Session@GostCrypt@@U?$less@K@std@@V?$allocator@U?$pair@$$CBKUPkcs11Session@GostCrypt@@@std@@@4@$0A@@std@@@std@@QAEPAU?$_Tree_node@U?$pair@$$CBKUPkcs11Session@GostCrypt@@@std@@PAX@2@XZ 00456eb0 f i SecurityToken.obj
 0001:00055ef0       ?_Erase@?$_Tree@V?$_Tmap_traits@HPAXU?$less@H@std@@V?$allocator@U?$pair@$$CBHPAX@std@@@2@$0A@@std@@@std@@IAEXPAU?$_Tree_node@U?$pair@$$CBHPAX@std@@PAX@2@@Z 00456ef0 f i Dictionary.obj
 0001:00055ef0       ?_Erase@?$_Tree@V?$_Tmap_traits@KUPkcs11Session@GostCrypt@@U?$less@K@std@@V?$allocator@U?$pair@$$CBKUPkcs11Session@GostCrypt@@@std@@@4@$0A@@std@@@std@@IAEXPAU?$_Tree_node@U?$pair@$$CBKUPkcs11Session@GostCrypt@@@std@@PAX@2@@Z 00456ef0 f i SecurityToken.obj
 0001:00055f30       ?_Reallocate@?$vector@EV?$allocator@E@std@@@std@@IAEXI@Z 00456f30 f i SecurityToken.obj
 0001:00056010       ?_Reallocate@?$vector@KV?$allocator@K@std@@@std@@IAEXI@Z 00457010 f i SecurityToken.obj
 0001:00056070       ?_Reallocate@?$vector@USecurityTokenKeyfile@GostCrypt@@V?$allocator@USecurityTokenKeyfile@GostCrypt@@@std@@@std@@IAEXI@Z 00457070 f i SecurityToken.obj
 0001:00056170       ?_Reserve@?$vector@EV?$allocator@E@std@@@std@@IAEXI@Z 00457170 f i SecurityToken.obj
 0001:000561d0       ?_Reserve@?$vector@KV?$allocator@K@std@@@std@@IAEXI@Z 004571d0 f i SecurityToken.obj
 0001:00056240       ?_Reserve@?$vector@USecurityTokenKeyfile@GostCrypt@@V?$allocator@USecurityTokenKeyfile@GostCrypt@@@std@@@std@@IAEXI@Z 00457240 f i SecurityToken.obj
 0001:000562e0       ?allocate@?$allocator@K@std@@QAEPAKI@Z 004572e0 f i SecurityToken.obj
 0001:00056350       ?clear@?$_Tree@V?$_Tmap_traits@HPAXU?$less@H@std@@V?$allocator@U?$pair@$$CBHPAX@std@@@2@$0A@@std@@@std@@QAEXXZ 00457350 f i Dictionary.obj
 0001:00056350       ?clear@?$_Tree@V?$_Tmap_traits@KUPkcs11Session@GostCrypt@@U?$less@K@std@@V?$allocator@U?$pair@$$CBKUPkcs11Session@GostCrypt@@@std@@@4@$0A@@std@@@std@@QAEXXZ 00457350 f i SecurityToken.obj
 0001:000563d0       ?deallocate@?$_Wrap_alloc@V?$allocator@K@std@@@std@@QAEXPAKI@Z 004573d0 f i SecurityToken.obj
 0001:00056430       ?erase@?$_Tree@V?$_Tmap_traits@KUPkcs11Session@GostCrypt@@U?$less@K@std@@V?$allocator@U?$pair@$$CBKUPkcs11Session@GostCrypt@@@std@@@4@$0A@@std@@@std@@QAE?AV?$_Tree_iterator@V?$_Tree_val@U?$_Tree_simple_types@U?$pair@$$CBKUPkcs11Session@GostCrypt@@@std@@@std@@@std@@@2@V?$_Tree_const_iterator@V?$_Tree_val@U?$_Tree_simple_types@U?$pair@$$CBKUPkcs11Session@GostCrypt@@@std@@@std@@@std@@@2@0@Z 00457430 f i SecurityToken.obj
 0001:00056430       ?erase@?$_Tree@V?$_Tmap_traits@HPAXU?$less@H@std@@V?$allocator@U?$pair@$$CBHPAX@std@@@2@$0A@@std@@@std@@QAE?AV?$_Tree_iterator@V?$_Tree_val@U?$_Tree_simple_types@U?$pair@$$CBHPAX@std@@@std@@@std@@@2@V?$_Tree_const_iterator@V?$_Tree_val@U?$_Tree_simple_types@U?$pair@$$CBHPAX@std@@@std@@@std@@@2@0@Z 00457430 f i Dictionary.obj
 0001:000564d0       ?erase@?$_Tree@V?$_Tmap_traits@KUPkcs11Session@GostCrypt@@U?$less@K@std@@V?$allocator@U?$pair@$$CBKUPkcs11Session@GostCrypt@@@std@@@4@$0A@@std@@@std@@QAE?AV?$_Tree_iterator@V?$_Tree_val@U?$_Tree_simple_types@U?$pair@$$CBKUPkcs11Session@GostCrypt@@@std@@@std@@@std@@@2@V?$_Tree_const_iterator@V?$_Tree_val@U?$_Tree_simple_types@U?$pair@$$CBKUPkcs11Session@GostCrypt@@@std@@@std@@@std@@@2@@Z 004574d0 f i SecurityToken.obj
 0001:000564d0       ?erase@?$_Tree@V?$_Tmap_traits@HPAXU?$less@H@std@@V?$allocator@U?$pair@$$CBHPAX@std@@@2@$0A@@std@@@std@@QAE?AV?$_Tree_iterator@V?$_Tree_val@U?$_Tree_simple_types@U?$pair@$$CBHPAX@std@@@std@@@std@@@2@V?$_Tree_const_iterator@V?$_Tree_val@U?$_Tree_simple_types@U?$pair@$$CBHPAX@std@@@std@@@std@@@2@@Z 004574d0 f i Dictionary.obj
 0001:00056750       ?find@?$basic_string@_WU?$char_traits@_W@std@@V?$allocator@_W@2@@std@@QBEIPB_WII@Z 00457750 f i SecurityToken.obj
 0001:00056840       ?find_last_not_of@?$basic_string@DU?$char_traits@D@std@@V?$allocator@D@2@@std@@QBEIPBDII@Z 00457840 f i SecurityToken.obj
 0001:000568c0       ?push_back@?$vector@EV?$allocator@E@std@@@std@@QAEX$$QAE@Z 004578c0 f i SecurityToken.obj
 0001:00056920       ?push_back@?$vector@USecurityTokenKeyfile@GostCrypt@@V?$allocator@USecurityTokenKeyfile@GostCrypt@@@std@@@std@@QAEXABUSecurityTokenKeyfile@GostCrypt@@@Z 00457920 f i SecurityToken.obj
 0001:000569e0       _swscanf                   004579e0 f i SecurityToken.obj
 0001:00056a10       _AutoTestAlgorithms        00457a10 f   Tests.obj
 0001:00056af0       _CipherInit2               00457af0 f   Tests.obj
 0001:00056b30       _TestLegacySectorBufEncryption 00457b30 f   Tests.obj
 0001:00056d20       _TestSectorBufEncryption   00457d20 f   Tests.obj
 0001:00057240       _test_hmac_gosthash        00458240 f   Tests.obj
 0001:000572d0       _test_hmac_stribog         004582d0 f   Tests.obj
 0001:00057360       _test_hmac_whirlpool       00458360 f   Tests.obj
 0001:000573f0       _test_pkcs5                004583f0 f   Tests.obj
 0001:00057520       _CreateVolumeHeaderInMemory 00458520 f   Volumes.obj
 0001:00057ab0       _ReadEffectiveVolumeHeader 00458ab0 f   Volumes.obj
 0001:00057bc0       _ReadVolumeHeader          00458bc0 f   Volumes.obj
 0001:000584f0       _WriteEffectiveVolumeHeader 004594f0 f   Volumes.obj
 0001:00058650       _WriteRandomDataToReservedHeaderAreas 00459650 f   Volumes.obj
 0001:00058960       _XmlFindElement            00459960 f   Xml.obj
 0001:000589f0       _XmlFindElementByAttributeValue 004599f0 f   Xml.obj
 0001:00058ac0       _XmlGetAttributeText       00459ac0 f   Xml.obj
 0001:00058c50       _XmlGetNodeText            00459c50 f   Xml.obj
 0001:00058d40       _XmlQuoteText              00459d40 f   Xml.obj
 0001:00058e10       _XmlWriteFooter            00459e10 f   Xml.obj
 0001:00058e30       _XmlWriteFooterW           00459e30 f   Xml.obj
 0001:00058e50       _XmlWriteHeader            00459e50 f   Xml.obj
 0001:00058e70       _XmlWriteHeaderW           00459e70 f   Xml.obj
 0001:00058e90       _DecryptBufferXTS          00459e90 f   Xts.obj
 0001:00058ed0       _DecryptBufferXTS8Byte     00459ed0 f   Xts.obj
 0001:00059550       _EncryptBufferXTS          0045a550 f   Xts.obj
 0001:00059590       _EncryptBufferXTS8Byte     0045a590 f   Xts.obj
 0001:00059c04       _GetFileVersionInfoSizeA@8 0045ac04 f   version:VERSION.dll
 0001:00059c0a       _GetFileVersionInfoA@16    0045ac0a f   version:VERSION.dll
 0001:00059c10       _VerQueryValueA@16         0045ac10 f   version:VERSION.dll
 0001:00059c20       _gost_decrypt              0045ac20 f   crypto:GostCipher.obj
 0001:00059ed0       _gost_encrypt              0045aed0 f   crypto:GostCipher.obj
 0001:0005a170       _gost_set_key              0045b170 f   crypto:GostCipher.obj
 0001:0005a2b0       _gost_xor_ks               0045b2b0 f   crypto:GostCipher.obj
 0001:0005a470       _F                         0045b470 f   crypto:GrasshopperCipher.obj
 0001:0005a500       _L                         0045b500 f   crypto:GrasshopperCipher.obj
 0001:0005a570       _L_inv                     0045b570 f   crypto:GrasshopperCipher.obj
 0001:0005a5e0       _R                         0045b5e0 f   crypto:GrasshopperCipher.obj
 0001:0005a660       _R_inv                     0045b660 f   crypto:GrasshopperCipher.obj
 0001:0005a6e0       _S                         0045b6e0 f   crypto:GrasshopperCipher.obj
 0001:0005a7e0       _S_inv                     0045b7e0 f   crypto:GrasshopperCipher.obj
 0001:0005a8e0       _grasshopper_decrypt       0045b8e0 f   crypto:GrasshopperCipher.obj
 0001:0005abb0       _grasshopper_encrypt       0045bbb0 f   crypto:GrasshopperCipher.obj
 0001:0005ae80       _grasshopper_set_key       0045be80 f   crypto:GrasshopperCipher.obj
 0001:0005cb80       _grasshopper_xor_ks        0045db80 f   crypto:GrasshopperCipher.obj
 0001:0005cd80       _ll                        0045dd80 f   crypto:GrasshopperCipher.obj
 0001:0005ce30       _WHIRLPOOL_add             0045de30 f   crypto:Whirlpool.obj
 0001:0005cff0       _WHIRLPOOL_finalize        0045dff0 f   crypto:Whirlpool.obj
 0001:0005d470       _WHIRLPOOL_init            0045e470 f   crypto:Whirlpool.obj
 0001:0005ee50       _GOSTHASH_add              0045fe50 f   crypto:GostHash.obj
 0001:0005f000       _GOSTHASH_finalize         00460000 f   crypto:GostHash.obj
 0001:0005f160       _GOSTHASH_init             00460160 f   crypto:GostHash.obj
 0001:0005ff30       _STRIBOG_add               00460f30 f   crypto:Stribog.obj
 0001:00060260       _STRIBOG_finalize          00461260 f   crypto:Stribog.obj
 0001:00060430       _STRIBOG_init              00461430 f   crypto:Stribog.obj
 0001:000604f0       _g_N                       004614f0 f   crypto:Stribog.obj
 0001:00060562       ??0_Init_locks@std@@QAE@XZ 00461562 f   libcpmt:xlock.obj
 0001:0006058f       ??0_Lockit@std@@QAE@H@Z    0046158f f   libcpmt:xlock.obj
 0001:000605c0       ??1_Init_locks@std@@QAE@XZ 004615c0 f   libcpmt:xlock.obj
 0001:000605e7       ??1_Lockit@std@@QAE@XZ     004615e7 f   libcpmt:xlock.obj
 0001:00060606       ?uncaught_exception@std@@YA_NXZ 00461606 f   libcpmt:uncaught.obj
 0001:0006060b       ??0bad_alloc@std@@QAE@XZ   0046160b f i libcpmt:xthrow.obj
 0001:00060623       ??0exception@std@@QAE@QBD@Z 00461623 f i libcpmt:xthrow.obj
 0001:0006065a       ??0length_error@std@@QAE@ABV01@@Z 0046165a f i libcpmt:xthrow.obj
 0001:00060675       ??0length_error@std@@QAE@PBD@Z 00461675 f i libcpmt:xthrow.obj
 0001:00060696       ??0logic_error@std@@QAE@ABV01@@Z 00461696 f i libcpmt:xthrow.obj
 0001:000606b1       ??0out_of_range@std@@QAE@ABV01@@Z 004616b1 f i libcpmt:xthrow.obj
 0001:000606cc       ??0out_of_range@std@@QAE@PBD@Z 004616cc f i libcpmt:xthrow.obj
 0001:000606ed       ??_Elogic_error@std@@UAEPAXI@Z 004616ed f i libcpmt:xthrow.obj
 0001:000606ed       ??_Eout_of_range@std@@UAEPAXI@Z 004616ed f i libcpmt:xthrow.obj
 0001:000606ed       ??_Gbad_array_new_length@std@@UAEPAXI@Z 004616ed f i LIBCMT:throw_bad_alloc.obj
 0001:000606ed       ??_Ebad_array_new_length@std@@UAEPAXI@Z 004616ed f i LIBCMT:throw_bad_alloc.obj
 0001:000606ed       ??_Gbad_exception@std@@UAEPAXI@Z 004616ed f i libvcruntime:frame.obj
 0001:000606ed       ??_Glength_error@std@@UAEPAXI@Z 004616ed f i libcpmt:xthrow.obj
 0001:000606ed       ??_Glogic_error@std@@UAEPAXI@Z 004616ed f i libcpmt:xthrow.obj
 0001:000606ed       ??_Ebad_exception@std@@UAEPAXI@Z 004616ed f i libvcruntime:frame.obj
 0001:000606ed       ??_Elength_error@std@@UAEPAXI@Z 004616ed f i libcpmt:xthrow.obj
 0001:000606ed       ??_Gout_of_range@std@@UAEPAXI@Z 004616ed f i libcpmt:xthrow.obj
 0001:0006071a       ?__scrt_throw_std_bad_alloc@@YAXXZ 0046171a f   LIBCMT:throw_bad_alloc.obj
 0001:0006071a       ?_Xbad_alloc@std@@YAXXZ    0046171a f   libcpmt:xthrow.obj
 0001:00060737       ?_Xlength_error@std@@YAXPBD@Z 00461737 f   libcpmt:xthrow.obj
 0001:00060757       ?_Xout_of_range@std@@YAXPBD@Z 00461757 f   libcpmt:xthrow.obj
 0001:00060777       __Getctype                 00461777 f   libcpmt:_tolower.obj
 0001:000607e2       __Tolower                  004617e2 f   libcpmt:_tolower.obj
 0001:000608dc       __Getcvt                   004618dc f   libcpmt:xwctomb.obj
 0001:00060949       __Wcrtomb                  00461949 f   libcpmt:xwctomb.obj
 0001:000609a7       __Mbrtowc                  004619a7 f   libcpmt:xmbtowc.obj
 0001:00060afa       __Toupper                  00461afa f   libcpmt:_toupper.obj
 0001:00060bf4       __Getwctype                00461bf4 f   libcpmt:xgetwctype.obj
 0001:00060c18       __Getwctypes               00461c18 f   libcpmt:xgetwctype.obj
 0001:00060c37       __Towlower                 00461c37 f   libcpmt:xtowlower.obj
 0001:00060c99       __Towupper                 00461c99 f   libcpmt:xtowupper.obj
 0001:00060cff       ??0_Locimp@locale@std@@AAE@_N@Z 00461cff f i libcpmt:locale0.obj
 0001:00060d42       ??1_Fac_node@std@@QAE@XZ   00461d42 f i libcpmt:locale0.obj
 0001:00060da1       ??1_Fac_tidy_reg_t@std@@QAE@XZ 00461da1 f i libcpmt:locale0.obj
 0001:00060dc8       ??1_Locimp@locale@std@@MAE@XZ 00461dc8 f i libcpmt:locale0.obj
 0001:00060e23       ??4?$_Yarn@D@std@@QAEAAV01@PBD@Z 00461e23 f i libcpmt:locale0.obj
 0001:00060e77       ??_G_Locimp@locale@std@@MAEPAXI@Z 00461e77 f i libcpmt:locale0.obj
 0001:00060e77       ??_E_Locimp@locale@std@@MAEPAXI@Z 00461e77 f i libcpmt:locale0.obj
 0001:00060e99       ?_Facet_Register@std@@YAXPAV_Facet_base@1@@Z 00461e99 f   libcpmt:locale0.obj
 0001:00060ec7       ?_Getgloballocale@locale@std@@CAPAV_Locimp@12@XZ 00461ec7 f   libcpmt:locale0.obj
 0001:00060ecd       ?_Init@locale@std@@CAPAV_Locimp@12@_N@Z 00461ecd f   libcpmt:locale0.obj
 0001:00060f5b       ?_Locimp_dtor@_Locimp@locale@std@@CAXPAV123@@Z 00461f5b f   libcpmt:locale0.obj
 0001:00060fd0       ?_Locinfo_ctor@_Locinfo@std@@SAXPAV12@PBD@Z 00461fd0 f   libcpmt:locale0.obj
 0001:0006101b       ?_Locinfo_dtor@_Locinfo@std@@SAXPAV12@@Z 0046201b f   libcpmt:locale0.obj
 0001:0006103d       ?_New_Locimp@_Locimp@locale@std@@CAPAV123@_N@Z 0046203d f   libcpmt:locale0.obj
 0001:00061062       ?_Setgloballocale@locale@std@@CAXPAX@Z 00462062 f   libcpmt:locale0.obj
 0001:0006108a       __Deletegloballocale       0046208a f   libcpmt:locale0.obj
 0001:000610ef       ?_Syserror_map@std@@YAPBDH@Z 004620ef f   libcpmt:syserror.obj
 0001:00061114       ?_Addstd@ios_base@std@@SAXPAV12@@Z 00462114 f   libcpmt:ios.obj
 0001:00061165       ?_Callfns@ios_base@std@@AAEXW4event@12@@Z 00462165 f i libcpmt:ios.obj
 0001:00061197       ?_Ios_base_dtor@ios_base@std@@CAXPAV12@@Z 00462197 f   libcpmt:ios.obj
 0001:000611d7       ?_Tidy@ios_base@std@@AAEXXZ 004621d7 f i libcpmt:ios.obj
 0001:0006121f       __Mtxdst                   0046221f f   libcpmt:xmtx.obj
 0001:0006122d       __Mtxinit                  0046222d f   libcpmt:xmtx.obj
 0001:00061244       __Mtxlock                  00462244 f   libcpmt:xmtx.obj
 0001:00061252       __Mtxunlock                00462252 f   libcpmt:xmtx.obj
 0001:00061260       ___crtLCMapStringA         00462260 f   libcpmt:StlLCMapStringA.obj
 0001:00061463       __freea_crt                00462463 f i libcpmt:StlLCMapStringA.obj
 0001:00061481       ___crtLCMapStringW         00462481 f   libcpmt:StlLCMapStringW.obj
 0001:000614bb       ??1_Init_atexit@@QAE@XZ    004624bb f i libcpmt:iosptrs.obj
 0001:0006151f       ?_Atexit@@YAXP6AXXZ@Z      0046251f f   libcpmt:iosptrs.obj
 0001:000618f7       ___crtInitializeCriticalSectionEx 004628f7 f   libcpmt:winapisupp.obj
 0001:0006192f       _GetTableIndexFromLocaleName 0046292f f   libcpmt:winapinls.obj
 0001:0006197d       ___crtDownlevelLocaleNameToLCID 0046297d f   libcpmt:winapinls.obj
 0001:000619a7       ___crtLCMapStringEx        004629a7 f   libcpmt:winapinls.obj
 0001:000619fd       ___wcsnicmp_ascii          004629fd f   libcpmt:winapinls.obj
 0001:00061a70       ??0CAtlBaseModule@ATL@@QAE@XZ 00462a70 f   atls:atlbase.obj
 0001:00061ac3       ??0_ATL_BASE_MODULE70@ATL@@QAE@XZ 00462ac3 f i atls:atlbase.obj
 0001:00061ae6       ??1CAtlBaseModule@ATL@@QAE@XZ 00462ae6 f   atls:atlbase.obj
 0001:00061afc       ?Init@CComCriticalSection@ATL@@QAEJXZ 00462afc f i atls:atlbase.obj
 0001:00061b27       ?RemoveAll@?$CSimpleArray@PAUHINSTANCE__@@V?$CSimpleArrayEqualHelper@PAUHINSTANCE__@@@ATL@@@ATL@@QAEXXZ 00462b27 f i atls:atlbase.obj
 0001:00061b44       ??3@YAXPAX@Z               00462b44 f   LIBCMT:delete_scalar.obj
 0001:00061b49       ??2@YAPAXI@Z               00462b49 f   LIBCMT:new_scalar.obj
 0001:00061b7c       ??3@YAXPAXI@Z              00462b7c f   LIBCMT:delete_scalar_size.obj
 0001:00061b8a       ??_U@YAPAXI@Z              00462b8a f   LIBCMT:new_array.obj
 0001:00061b93       ??_V@YAXPAX@Z              00462b93 f   LIBCMT:delete_array.obj
 0001:00061b98       ??$__crt_fast_encode_pointer@PAP6AXXZ@@YAPAP6AXXZQAP6AXXZ@Z 00462b98 f i LIBCMT:utility.obj
 0001:00061b98       ??$__crt_fast_encode_pointer@P6GHPAU_RTL_CONDITION_VARIABLE@@PAU_RTL_CRITICAL_SECTION@@K@Z@@YAP6GHPAU_RTL_CONDITION_VARIABLE@@PAU_RTL_CRITICAL_SECTION@@K@ZQ6GH01K@Z@Z 00462b98 f i LIBCMT:thread_safe_statics.obj
 0001:00061b98       ??$__crt_fast_encode_pointer@PAX@@YAPAXQAX@Z 00462b98 f i libvcruntime:winapi_downlevel.obj
 0001:00061b98       ??$__crt_fast_encode_pointer@P6GXPAU_RTL_CONDITION_VARIABLE@@@Z@@YAP6GXPAU_RTL_CONDITION_VARIABLE@@@ZQ6GX0@Z@Z 00462b98 f i LIBCMT:thread_safe_statics.obj
 0001:00061bf9       ___scrt_acquire_startup_lock 00462bf9 f   LIBCMT:utility.obj
 0001:00061c2e       ___scrt_initialize_crt     00462c2e f   LIBCMT:utility.obj
 0001:00061c67       ___scrt_initialize_onexit_tables 00462c67 f   LIBCMT:utility.obj
 0001:00061cfe       ___scrt_is_nonwritable_in_current_image 00462cfe f   LIBCMT:utility.obj
 0001:00061d88       ___scrt_release_startup_lock 00462d88 f   LIBCMT:utility.obj
 0001:00061da5       ___scrt_uninitialize_crt   00462da5 f   LIBCMT:utility.obj
 0001:00061dcd       __onexit                   00462dcd f   LIBCMT:utility.obj
 0001:00061e08       _atexit                    00462e08 f   LIBCMT:utility.obj
 0001:00061ef9       __Init_thread_footer       00462ef9 f   LIBCMT:thread_safe_statics.obj
 0001:00061f38       __Init_thread_header       00462f38 f   LIBCMT:thread_safe_statics.obj
 0001:00061f7e       __Init_thread_lock         00462f7e f   LIBCMT:thread_safe_statics.obj
 0001:00061f8a       __Init_thread_notify       00462f8a f   LIBCMT:thread_safe_statics.obj
 0001:00061fcb       __Init_thread_unlock       00462fcb f   LIBCMT:thread_safe_statics.obj
 0001:00061fd7       __Init_thread_wait         00462fd7 f   LIBCMT:thread_safe_statics.obj
 0001:0006203c       @__security_check_cookie@4 0046303c f   LIBCMT:_secchk_.obj
 0001:00062050       __chkstk                   00463050 f   LIBCMT:chkstk.obj
 0001:00062050       __alloca_probe             00463050 f   LIBCMT:chkstk.obj
 0001:00062080       __ftoui3                   00463080 f   LIBCMT:_ftol3_.obj
 0001:0006208f       __ftoul3                   0046308f f   LIBCMT:_ftol3_.obj
 0001:0006209e       __ftol3                    0046309e f   LIBCMT:_ftol3_.obj
 0001:000620ab       __ftol3_NaN                004630ab f   LIBCMT:_ftol3_.obj
 0001:000620c3       __ftol3_work               004630c3 f   LIBCMT:_ftol3_.obj
 0001:00062149       __ftol3_common             00463149 f   LIBCMT:_ftol3_.obj
 0001:0006220b       __ftol3_arg_error          0046320b f   LIBCMT:_ftol3_.obj
 0001:0006221d       __ftol3_except             0046321d f   LIBCMT:_ftol3_.obj
 0001:00062261       __dtoui3                   00463261 f   LIBCMT:_ftol3_.obj
 0001:00062270       __dtoul3                   00463270 f   LIBCMT:_ftol3_.obj
 0001:0006227f       __dtol3                    0046327f f   LIBCMT:_ftol3_.obj
 0001:0006228c       __dtol3_NaN                0046328c f   LIBCMT:_ftol3_.obj
 0001:000622a9       __dtol3_work               004632a9 f   LIBCMT:_ftol3_.obj
 0001:00062390       __ultod3                   00463390 f   LIBCMT:_ftol3_.obj
 0001:000623d0       __ltod3                    004633d0 f   LIBCMT:_ftol3_.obj
 0001:000623f7       ??_Gtype_info@@UAEPAXI@Z   004633f7 f i LIBCMT:std_type_info_static.obj
 0001:000623f7       ??_Etype_info@@UAEPAXI@Z   004633f7 f i LIBCMT:std_type_info_static.obj
 0001:00062420       __alldiv                   00463420 f   LIBCMT:lldiv.obj
 0001:000624d0       __allmul                   004634d0 f   LIBCMT:llmul.obj
 0001:00062504       ___raise_securityfailure   00463504 f   LIBCMT:gs_report.obj
 0001:0006252c       ___report_gsfailure        0046352c f   LIBCMT:gs_report.obj
 0001:00062627       ___report_rangecheckfailure 00463627 f   LIBCMT:gs_report.obj
 0001:00062633       ___report_securityfailure  00463633 f   LIBCMT:gs_report.obj
 0001:00062929       _WinMainCRTStartup         00463929 f   LIBCMT:exe_winmain.obj
 0001:00062940       __aullshr                  00463940 f   LIBCMT:ullshr.obj
 0001:0006295f       @_guard_check_icall@4      0046395f f i LIBCMT:checkcfg.obj
 0001:00062965       __EH_epilog3               00463965 f   LIBCMT:ehprolg3.obj
 0001:0006297a       __EH_prolog3               0046397a f   LIBCMT:ehprolg3.obj
 0001:000629ae       __EH_prolog3_catch         004639ae f   LIBCMT:ehprolg3.obj
 0001:000629f0       __alloca_probe_16          004639f0 f   LIBCMT:alloca16.obj
 0001:00062a06       __alloca_probe_8           00463a06     LIBCMT:alloca16.obj
 0001:00062a20       __aulldiv                  00463a20 f   LIBCMT:ulldiv.obj
 0001:00062a88       ??0bad_array_new_length@std@@QAE@ABV01@@Z 00463a88 f i LIBCMT:throw_bad_alloc.obj
 0001:00062aa3       ??0bad_array_new_length@std@@QAE@XZ 00463aa3 f i LIBCMT:throw_bad_alloc.obj
 0001:00062abb       ?__scrt_throw_std_bad_array_new_length@@YAXXZ 00463abb f   LIBCMT:throw_bad_alloc.obj
 0001:00062ad8       ___isa_available_init      00463ad8 f   LIBCMT:_cpu_disp_.obj
 0001:00062c72       __get_startup_argv_mode    00463c72 f   LIBCMT:argv_mode.obj
 0001:00062c76       ___scrt_is_ucrt_dll_in_use 00463c76 f   LIBCMT:ucrt_detection.obj
 0001:00062c82       ___scrt_fastfail           00463c82 f   LIBCMT:utility_desktop.obj
 0001:00062d9d       ___scrt_get_show_window_mode 00463d9d f   LIBCMT:utility_desktop.obj
 0001:00062dd0       ___scrt_is_managed_app     00463dd0 f   LIBCMT:utility_desktop.obj
 0001:00062e14       ___scrt_set_unhandled_exception_filter 00463e14 f   LIBCMT:utility_desktop.obj
 0001:00062e20       ___scrt_unhandled_exception_filter@4 00463e20 f   LIBCMT:utility_desktop.obj
 0001:00062e61       __crt_debugger_hook        00463e61 f   LIBCMT:utility_desktop.obj
 0001:00062e70       __SEH_prolog4              00463e70 f   LIBCMT:_sehprolg4_.obj
 0001:00062eb6       __SEH_epilog4              00463eb6 f   LIBCMT:_sehprolg4_.obj
 0001:00062ecb       ___security_init_cookie    00463ecb f   LIBCMT:gs_support.obj
 0001:00062f67       __get_startup_file_mode    00463f67 f   LIBCMT:file_mode.obj
 0001:00062f70       ___scrt_initialize_winrt   00463f70 f   LIBCMT:utility_desktop.obj
 0001:00062f70       __matherr                  00463f70 f   LIBCMT:matherr.obj
 0001:00062f70       __get_startup_new_mode     00463f70 f   LIBCMT:new_mode.obj
 0001:00062f70       ?sync@?$basic_streambuf@_WU?$char_traits@_W@std@@@std@@MAEHXZ 00463f70 f   BootEncryption.obj
 0001:00062f70       __get_startup_commit_mode  00463f70 f   LIBCMT:commit_mode.obj
 0001:00062f70       ?sync@?$basic_streambuf@DU?$char_traits@D@std@@@std@@MAEHXZ 00463f70 f   BootEncryption.obj
 0001:00062f70       _CipherSupportsIntraDataUnitParallelization 00463f70 f   Crypto.obj
 0001:00062f70       __get_startup_thread_locale_mode 00463f70 f   LIBCMT:thread_locale.obj
 0001:00062f73       ?__scrt_initialize_type_info@@YAXXZ 00463f73 f   LIBCMT:tncleanup.obj
 0001:00062f7f       __initialize_default_precision 00463f7f f   LIBCMT:default_precision.obj
 0001:00062fa0       ___scrt_initialize_default_local_stdio_options 00463fa0 f   LIBCMT:default_local_stdio_options.obj
 0001:00062fbd       ___scrt_is_user_matherr_present 00463fbd f   LIBCMT:matherr_detection.obj
 0001:00062fc9       ___scrt_get_dyn_tls_init_callback 00463fc9 f   LIBCMT:dyn_tls_init.obj
 0001:00062fcf       ___scrt_get_dyn_tls_dtor_callback 00463fcf f   LIBCMT:dyn_tls_dtor.obj
 0001:00062fd5       __RTC_Initialize           00463fd5 f   LIBCMT:_initsect_.obj
 0001:00063000       __RTC_Terminate            00464000 f   LIBCMT:_initsect_.obj
 0001:0006302b       __get_purecall_handler     0046402b f   libvcruntime:purevirt.obj
 0001:0006304a       __purecall                 0046404a f   libvcruntime:purevirt.obj
 0001:00063065       ___DestructExceptionObject 00464065 f   libvcruntime:frame.obj
 0001:000630f9       ??0bad_exception@std@@QAE@ABV01@@Z 004640f9 f i libvcruntime:frame.obj
 0001:00063114       ??0bad_exception@std@@QAE@XZ 00464114 f i libvcruntime:frame.obj
 0001:00063945       ?_CallMemberFunction2@@YGXQAX00H@Z 00464945 f i libvcruntime:frame.obj
 0001:00063945       ?_CallMemberFunction1@@YGXQAX00@Z 00464945 f i libvcruntime:frame.obj
 0001:00063945       ?_CallMemberFunction0@@YGXQAX0@Z 00464945 f i libvcruntime:frame.obj
 0001:0006394c       ___AdjustPointer           0046494c f   libvcruntime:frame.obj
 0001:00063971       ___BuildCatchObject        00464971 f   libvcruntime:frame.obj
 0001:00063a00       ___BuildCatchObjectHelper  00464a00 f   libvcruntime:frame.obj
 0001:00063b2e       ___FrameUnwindFilter       00464b2e f   libvcruntime:frame.obj
 0001:00063b73       ___FrameUnwindToState      00464b73 f   libvcruntime:frame.obj
 0001:00063c3b       ___InternalCxxFrameHandler 00464c3b f   libvcruntime:frame.obj
 0001:00063d37       ___TypeMatch               00464d37 f   libvcruntime:frame.obj
 0001:00063dc5       ___std_terminate           00464dc5 f   libvcruntime:frame.obj
 0001:00063dca       ___uncaught_exception      00464dca f   libvcruntime:frame.obj
 0001:00063de0       _memchr                    00464de0 f   libvcruntime:memchr.obj
 0001:00063e90       _memmove                   00464e90 f   libvcruntime:memmove.obj
 0001:00064404       ___std_exception_copy      00465404 f   libvcruntime:std_exception.obj
 0001:00064467       ___std_exception_destroy   00465467 f   libvcruntime:std_exception.obj
 0001:00064486       __CxxThrowException@8      00465486 f   libvcruntime:throw.obj
 0001:000644f4       ?_CallCatchBlock2@@YAPAXPAUEHRegistrationNode@@PBU_s_FuncInfo@@PAXHK@Z 004654f4 f   libvcruntime:trnsctrl.obj
 0001:00064554       ?_CallSETranslator@@YAHPAUEHExceptionRecord@@PAUEHRegistrationNode@@PAX2PBU_s_FuncInfo@@H1@Z 00465554 f   libvcruntime:trnsctrl.obj
 0001:00064631       ?_GetRangeOfTrysToCheck@@YAPBU_s_TryBlockMapEntry@@PBU_s_FuncInfo@@HHPAI1@Z 00465631 f   libvcruntime:trnsctrl.obj
 0001:000646a9       ?_JumpToContinuation@@YGXPAXPAUEHRegistrationNode@@@Z 004656a9 f   libvcruntime:trnsctrl.obj
 0001:000646db       ?_UnwindNestedFrames@@YGXPAUEHRegistrationNode@@PAUEHExceptionRecord@@@Z 004656db f   libvcruntime:trnsctrl.obj
 0001:00064730       __CatchGuardHandler        00465730 f   libvcruntime:trnsctrl.obj
 0001:00064761       __CreateFrameInfo          00465761 f   libvcruntime:trnsctrl.obj
 0001:00064785       __FindAndUnlinkFrame       00465785 f   libvcruntime:trnsctrl.obj
 0001:000647cf       __IsExceptionObjectToBeDestroyed 004657cf f   libvcruntime:trnsctrl.obj
 0001:000647f5       __TranslatorGuardHandler   004657f5 f   libvcruntime:trnsctrl.obj
 0001:00064894       ___CxxFrameHandler3        00465894 f   libvcruntime:trnsctrl.obj
 0001:000648d0       _memcpy                    004658d0 f   libvcruntime:memcpy.obj
 0001:00064e50       _memset                    00465e50 f   libvcruntime:memset.obj
 0001:00064fb0       _strchr                    00465fb0 f   libvcruntime:strchr.obj
 0001:0006501e       ___from_strstr_to_strchr   0046601e     libvcruntime:strchr.obj
 0001:000650e0       _strrchr                   004660e0 f   libvcruntime:strrchr.obj
 0001:00065217       _wcsstr                    00466217 f   libvcruntime:wcsstr.obj
 0001:000654a0       _strstr                    004664a0 f   libvcruntime:strstr.obj
 0001:00065703       _wcsrchr                   00466703 f   libvcruntime:wcsrchr.obj
 0001:000657a4       _memcmp                    004667a4 f   libvcruntime:_memcmp_.obj
 0001:00066f24       ___vcrt_initialize         00467f24 f   libvcruntime:initialization.obj
 0001:00066f4d       ___vcrt_uninitialize       00467f4d f   libvcruntime:initialization.obj
 0001:00066fb0       __except_handler4          00467fb0 f   libvcruntime:_chandler4_.obj
 0001:00067237       ___vcrt_FlsAlloc           00468237 f   libvcruntime:winapi_downlevel.obj
 0001:00067271       ___vcrt_FlsFree            00468271 f   libvcruntime:winapi_downlevel.obj
 0001:000672ab       ___vcrt_FlsGetValue        004682ab f   libvcruntime:winapi_downlevel.obj
 0001:000672e5       ___vcrt_FlsSetValue        004682e5 f   libvcruntime:winapi_downlevel.obj
 0001:00067322       ___vcrt_InitializeCriticalSectionEx 00468322 f   libvcruntime:winapi_downlevel.obj
 0001:00067368       ___vcrt_initialize_winapi_thunks 00468368 f   libvcruntime:winapi_downlevel.obj
 0001:000673a2       ___vcrt_uninitialize_winapi_thunks 004683a2 f   libvcruntime:winapi_downlevel.obj
 0001:000673d4       ___std_type_info_compare   004683d4 f   libvcruntime:std_type_info.obj
 0001:00067410       ___vcrt_initialize_pure_virtual_call_handler 00468410 f   libvcruntime:purevirt_data.obj
 0001:0006742d       _unexpected                0046842d f   libvcruntime:unexpected.obj
 0001:00067449       ___vcrt_freefls@4          00468449 f   libvcruntime:per_thread_data.obj
 0001:00067465       ___vcrt_getptd             00468465 f   libvcruntime:per_thread_data.obj
 0001:00067473       ___vcrt_getptd_noexit      00468473 f   libvcruntime:per_thread_data.obj
 0001:00067505       ___vcrt_initialize_ptd     00468505 f   libvcruntime:per_thread_data.obj
 0001:00067538       ___vcrt_uninitialize_ptd   00468538 f   libvcruntime:per_thread_data.obj
 0001:00067560       __CallSettingFrame@12      00468560 f   libvcruntime:lowhelpr.obj
 0001:00067587       __NLG_Return               00468587     libvcruntime:lowhelpr.obj
 0001:000675ac       ___vcrt_initialize_locks   004685ac f   libvcruntime:locks.obj
 0001:000675e8       ___vcrt_uninitialize_locks 004685e8 f   libvcruntime:locks.obj
 0001:00067620       __local_unwind4            00468620 f   libvcruntime:_exsup4_.obj
 0001:000676f6       __seh_longjmp_unwind4@4    004686f6 f   libvcruntime:_exsup4_.obj
 0001:0006771e       @_EH4_CallFilterFunc@8     0046871e f   libvcruntime:_exsup4_.obj
 0001:00067735       @_EH4_TransferToHandler@8  00468735 f   libvcruntime:_exsup4_.obj
 0001:0006774e       @_EH4_GlobalUnwind2@8      0046874e f   libvcruntime:_exsup4_.obj
 0001:00067767       @_EH4_LocalUnwind@16       00468767 f   libvcruntime:_exsup4_.obj
 0001:00067780       __global_unwind2           00468780 f   libvcruntime:_exsup_.obj
 0001:000677e5       __local_unwind2            004687e5 f   libvcruntime:_exsup_.obj
 0001:00067869       __abnormal_termination     00468869 f   libvcruntime:_exsup_.obj
 0001:0006788c       __NLG_Notify1              0046888c f   libvcruntime:_exsup_.obj
 0001:00067895       __NLG_Notify               00468895 f   libvcruntime:_exsup_.obj
 0001:000678ac       __NLG_Dispatch             004688ac     libvcruntime:_exsup_.obj
 0001:000678ac       __NLG_Dispatch2            004688ac     libvcruntime:_exsup_.obj
 0001:000678b4       __NLG_Call                 004688b4 f   libvcruntime:_exsup_.obj
 0001:000678b6       __NLG_Return2              004688b6     libvcruntime:_exsup_.obj
 0001:000678b7       ?initialize@?$dual_state_global@P6AXPB_W00II@Z@__crt_state_management@@QAEXQ6AXPB_W00II@Z@Z 004688b7 f i libucrt:invalid_parameter.obj
 0001:000678b7       ?initialize@?$dual_state_global@P6AXH@Z@__crt_state_management@@QAEXQ6AXH@Z@Z 004688b7 f i libucrt:signal.obj
 0001:000678b7       ?initialize@?$dual_state_global@PAPAD@__crt_state_management@@QAEXQAPAD@Z 004688b7 f i libucrt:environment_initialization.obj
 0001:000678b7       ?initialize@?$dual_state_global@J@__crt_state_management@@QAEXJ@Z 004688b7 f i libucrt:timeset.obj
 0001:000678b7       ?initialize@?$dual_state_global@PAU__crt_locale_data@@@__crt_state_management@@QAEXQAU__crt_locale_data@@@Z 004688b7 f i libucrt:initialization.obj
 0001:000678b7       ?initialize@?$dual_state_global@P6AHI@Z@__crt_state_management@@QAEXQ6AHI@Z@Z 004688b7 f i libucrt:new_handler.obj
 0001:000678b7       ?initialize@?$dual_state_global@P6AHPAU_exception@@@Z@__crt_state_management@@QAEXQ6AHPAU_exception@@@Z@Z 004688b7 f i libucrt:matherr.obj
 0001:000678b7       ?initialize@?$dual_state_global@H@__crt_state_management@@QAEXH@Z 004688b7 f i libucrt:timeset.obj
 0001:000678e8       ___acrt_call_reportfault   004688e8 f   libucrt:invalid_parameter.obj
 0001:00067a23       ___acrt_initialize_invalid_parameter_handler 00468a23 f   libucrt:invalid_parameter.obj
 0001:00067a37       __invalid_parameter        00468a37 f   libucrt:invalid_parameter.obj
 0001:00067ab2       __invalid_parameter_noinfo 00468ab2 f   libucrt:invalid_parameter.obj
 0001:00067ac2       __invalid_parameter_noinfo_noreturn 00468ac2 f   libucrt:invalid_parameter.obj
 0001:00067adf       __invoke_watson            00468adf f   libucrt:invalid_parameter.obj
 0001:00067b12       __set_invalid_parameter_handler 00468b12 f   libucrt:invalid_parameter.obj
 0001:00067dd6       ??0_LocaleUpdate@@QAE@QAU__crt_locale_pointers@@@Z 00468dd6 f i libucrt:tolower_toupper.obj
 0001:00067e93       __chvalidchk_l             00468e93 f i libucrt:tolower_toupper.obj
 0001:00067ebd       __ischartype_l             00468ebd f i libucrt:tolower_toupper.obj
 0001:00067ef0       __tolower_l                00468ef0 f   libucrt:tolower_toupper.obj
 0001:00067f0a       __toupper_l                00468f0a f   libucrt:tolower_toupper.obj
 0001:00067f24       _tolower                   00468f24 f   libucrt:tolower_toupper.obj
 0001:00067f54       _toupper                   00468f54 f   libucrt:tolower_toupper.obj
 0001:00067f84       ___acrt_errno_from_os_error 00468f84 f   libucrt:errno.obj
 0001:00067fc7       ___acrt_errno_map_os_error 00468fc7 f   libucrt:errno.obj
 0001:00067fea       ___doserrno                00468fea f   libucrt:errno.obj
 0001:00067ffd       __errno                    00468ffd f   libucrt:errno.obj
 0001:00068010       _strcspn                   00469010 f   libucrt:strcspn.obj
 0001:00068060       _strncpy                   00469060 f   libucrt:strncpy.obj
 0001:00068184       _calloc                    00469184 f   libucrt:calloc.obj
 0001:0006818f       _free                      0046918f f   libucrt:free.obj
 0001:00068194       _frexp                     00469194 f   libucrt:frexp.obj
 0001:00068290       ??$?RV<lambda_ab9923ffb5d694ec0d78876dd103e44f>@@AAV<lambda_481dd5778c961fbcd3b60b650e9b9dc4>@@V<lambda_7923d86c9e3f319b415918ec4b39749c>@@@?$__crt_seh_guarded_call@H@@QAEH$$QAV<lambda_ab9923ffb5d694ec0d78876dd103e44f>@@AAV<lambda_481dd5778c961fbcd3b60b650e9b9dc4>@@$$QAV<lambda_7923d86c9e3f319b415918ec4b39749c>@@@Z 00469290 f i libucrt:output.obj
 0001:000682e1       ??$?RV<lambda_db08b09ef7aa9d4f8620ce68402612bc>@@AAV<lambda_4f2c1eaeead2a5fc776db5b62ea0fb9b>@@V<lambda_3ae262bc35d4ba6a3825c4f6bcaaf95c>@@@?$__crt_seh_guarded_call@H@@QAEH$$QAV<lambda_db08b09ef7aa9d4f8620ce68402612bc>@@AAV<lambda_4f2c1eaeead2a5fc776db5b62ea0fb9b>@@$$QAV<lambda_3ae262bc35d4ba6a3825c4f6bcaaf95c>@@@Z 004692e1 f i libucrt:output.obj
 0001:00068332       ??$__acrt_lock_stream_and_call@V<lambda_481dd5778c961fbcd3b60b650e9b9dc4>@@@@YAHQAU_iobuf@@$$QAV<lambda_481dd5778c961fbcd3b60b650e9b9dc4>@@@Z 00469332 f i libucrt:output.obj
 0001:0006835a       ??$__acrt_lock_stream_and_call@V<lambda_4f2c1eaeead2a5fc776db5b62ea0fb9b>@@@@YAHQAU_iobuf@@$$QAV<lambda_4f2c1eaeead2a5fc776db5b62ea0fb9b>@@@Z 0046935a f i libucrt:output.obj
 0001:00068a76       ??$count@D@formatting_buffer@__crt_stdio_output@@QBEIXZ 00469a76 f i libucrt:output.obj
 0001:00068a8e       ??$ensure_buffer_is_big_enough@D@formatting_buffer@__crt_stdio_output@@QAE_NI@Z 00469a8e f i libucrt:output.obj
 0001:00068b14       ??$is_wide_character_specifier@D@__crt_stdio_output@@YA_N_KDW4length_modifier@0@@Z 00469b14 f i libucrt:output.obj
 0001:00068b54       ??$is_wide_character_specifier@_W@__crt_stdio_output@@YA_N_K_WW4length_modifier@0@@Z 00469b54 f i libucrt:output.obj
 0001:00068ba3       ??$scratch_data@D@formatting_buffer@__crt_stdio_output@@QAEPADXZ 00469ba3 f i libucrt:output.obj
 0001:00068bc1       ??$type_case_integer_parse_into_buffer@I@?$output_processor@_WV?$string_output_adapter@_W@__crt_stdio_output@@V?$standard_base@_WV?$string_output_adapter@_W@__crt_stdio_output@@@2@@__crt_stdio_output@@AAEXII_N@Z 00469bc1 f i libucrt:output.obj
 0001:00068bc1       ??$type_case_integer_parse_into_buffer@I@?$output_processor@_WV?$string_output_adapter@_W@__crt_stdio_output@@V?$format_validation_base@_WV?$string_output_adapter@_W@__crt_stdio_output@@@2@@__crt_stdio_output@@AAEXII_N@Z 00469bc1 f i libucrt:output.obj
 0001:00068bc1       ??$type_case_integer_parse_into_buffer@I@?$output_processor@DV?$string_output_adapter@D@__crt_stdio_output@@V?$format_validation_base@DV?$string_output_adapter@D@__crt_stdio_output@@@2@@__crt_stdio_output@@AAEXII_N@Z 00469bc1 f i libucrt:output.obj
 0001:00068bc1       ??$type_case_integer_parse_into_buffer@I@?$output_processor@DV?$string_output_adapter@D@__crt_stdio_output@@V?$standard_base@DV?$string_output_adapter@D@__crt_stdio_output@@@2@@__crt_stdio_output@@AAEXII_N@Z 00469bc1 f i libucrt:output.obj
 0001:00068bc1       ??$type_case_integer_parse_into_buffer@I@?$output_processor@_WV?$stream_output_adapter@_W@__crt_stdio_output@@V?$standard_base@_WV?$stream_output_adapter@_W@__crt_stdio_output@@@2@@__crt_stdio_output@@AAEXII_N@Z 00469bc1 f i libucrt:output.obj
 0001:00068bc1       ??$type_case_integer_parse_into_buffer@I@?$output_processor@DV?$stream_output_adapter@D@__crt_stdio_output@@V?$standard_base@DV?$stream_output_adapter@D@__crt_stdio_output@@@2@@__crt_stdio_output@@AAEXII_N@Z 00469bc1 f i libucrt:output.obj
 0001:00068c36       ??$type_case_integer_parse_into_buffer@_K@?$output_processor@_WV?$stream_output_adapter@_W@__crt_stdio_output@@V?$standard_base@_WV?$stream_output_adapter@_W@__crt_stdio_output@@@2@@__crt_stdio_output@@AAEX_KI_N@Z 00469c36 f i libucrt:output.obj
 0001:00068c36       ??$type_case_integer_parse_into_buffer@_K@?$output_processor@DV?$string_output_adapter@D@__crt_stdio_output@@V?$format_validation_base@DV?$string_output_adapter@D@__crt_stdio_output@@@2@@__crt_stdio_output@@AAEX_KI_N@Z 00469c36 f i libucrt:output.obj
 0001:00068c36       ??$type_case_integer_parse_into_buffer@_K@?$output_processor@DV?$string_output_adapter@D@__crt_stdio_output@@V?$standard_base@DV?$string_output_adapter@D@__crt_stdio_output@@@2@@__crt_stdio_output@@AAEX_KI_N@Z 00469c36 f i libucrt:output.obj
 0001:00068c36       ??$type_case_integer_parse_into_buffer@_K@?$output_processor@_WV?$string_output_adapter@_W@__crt_stdio_output@@V?$format_validation_base@_WV?$string_output_adapter@_W@__crt_stdio_output@@@2@@__crt_stdio_output@@AAEX_KI_N@Z 00469c36 f i libucrt:output.obj
 0001:00068c36       ??$type_case_integer_parse_into_buffer@_K@?$output_processor@DV?$stream_output_adapter@D@__crt_stdio_output@@V?$standard_base@DV?$stream_output_adapter@D@__crt_stdio_output@@@2@@__crt_stdio_output@@AAEX_KI_N@Z 00469c36 f i libucrt:output.obj
 0001:00068c36       ??$type_case_integer_parse_into_buffer@_K@?$output_processor@_WV?$string_output_adapter@_W@__crt_stdio_output@@V?$standard_base@_WV?$string_output_adapter@_W@__crt_stdio_output@@@2@@__crt_stdio_output@@AAEX_KI_N@Z 00469c36 f i libucrt:output.obj
 0001:00068cbe       ??$write_multiple_characters@V?$stream_output_adapter@D@__crt_stdio_output@@D@__crt_stdio_output@@YAXABV?$stream_output_adapter@D@0@DHQAH@Z 00469cbe f i libucrt:output.obj
 0001:00068cea       ??$write_multiple_characters@V?$stream_output_adapter@_W@__crt_stdio_output@@D@__crt_stdio_output@@YAXABV?$stream_output_adapter@_W@0@DHQAH@Z 00469cea f i libucrt:output.obj
 0001:00068d1b       ??$write_multiple_characters@V?$string_output_adapter@D@__crt_stdio_output@@D@__crt_stdio_output@@YAXABV?$string_output_adapter@D@0@DHQAH@Z 00469d1b f i libucrt:output.obj
 0001:00068d47       ??$write_multiple_characters@V?$string_output_adapter@_W@__crt_stdio_output@@D@__crt_stdio_output@@YAXABV?$string_output_adapter@_W@0@DHQAH@Z 00469d47 f i libucrt:output.obj
 0001:00068d78       ??0?$common_data@D@__crt_stdio_output@@IAE@XZ 00469d78 f i libucrt:output.obj
 0001:00068dbf       ??0?$common_data@_W@__crt_stdio_output@@IAE@XZ 00469dbf f i libucrt:output.obj
 0001:00068e0b       ??0?$output_adapter_data@DV?$stream_output_adapter@D@__crt_stdio_output@@@__crt_stdio_output@@IAE@ABV?$stream_output_adapter@D@1@_KQBDQAU__crt_locale_pointers@@QAD@Z 00469e0b f i libucrt:output.obj
 0001:00068e0b       ??0?$output_adapter_data@DV?$string_output_adapter@D@__crt_stdio_output@@@__crt_stdio_output@@IAE@ABV?$string_output_adapter@D@1@_KQBDQAU__crt_locale_pointers@@QAD@Z 00469e0b f i libucrt:output.obj
 0001:00068e47       ??0?$output_adapter_data@_WV?$string_output_adapter@_W@__crt_stdio_output@@@__crt_stdio_output@@IAE@ABV?$string_output_adapter@_W@1@_KQB_WQAU__crt_locale_pointers@@QAD@Z 00469e47 f i libucrt:output.obj
 0001:00068e47       ??0?$output_adapter_data@_WV?$stream_output_adapter@_W@__crt_stdio_output@@@__crt_stdio_output@@IAE@ABV?$stream_output_adapter@_W@1@_KQB_WQAU__crt_locale_pointers@@QAD@Z 00469e47 f i libucrt:output.obj
 0001:00068e83       ??0?$output_processor@DV?$string_output_adapter@D@__crt_stdio_output@@V?$format_validation_base@DV?$string_output_adapter@D@__crt_stdio_output@@@2@@__crt_stdio_output@@QAE@ABV?$string_output_adapter@D@1@_KQBDQAU__crt_locale_pointers@@QAD@Z 00469e83 f i libucrt:output.obj
 0001:00068e83       ??0?$output_processor@DV?$string_output_adapter@D@__crt_stdio_output@@V?$standard_base@DV?$string_output_adapter@D@__crt_stdio_output@@@2@@__crt_stdio_output@@QAE@ABV?$string_output_adapter@D@1@_KQBDQAU__crt_locale_pointers@@QAD@Z 00469e83 f i libucrt:output.obj
 0001:00068e83       ??0?$output_processor@DV?$stream_output_adapter@D@__crt_stdio_output@@V?$standard_base@DV?$stream_output_adapter@D@__crt_stdio_output@@@2@@__crt_stdio_output@@QAE@ABV?$stream_output_adapter@D@1@_KQBDQAU__crt_locale_pointers@@QAD@Z 00469e83 f i libucrt:output.obj
 0001:00068eb8       ??0?$output_processor@_WV?$string_output_adapter@_W@__crt_stdio_output@@V?$format_validation_base@_WV?$string_output_adapter@_W@__crt_stdio_output@@@2@@__crt_stdio_output@@QAE@ABV?$string_output_adapter@_W@1@_KQB_WQAU__crt_locale_pointers@@QAD@Z 00469eb8 f i libucrt:output.obj
 0001:00068eb8       ??0?$output_processor@_WV?$stream_output_adapter@_W@__crt_stdio_output@@V?$standard_base@_WV?$stream_output_adapter@_W@__crt_stdio_output@@@2@@__crt_stdio_output@@QAE@ABV?$stream_output_adapter@_W@1@_KQB_WQAU__crt_locale_pointers@@QAD@Z 00469eb8 f i libucrt:output.obj
 0001:00068eb8       ??0?$output_processor@_WV?$string_output_adapter@_W@__crt_stdio_output@@V?$standard_base@_WV?$string_output_adapter@_W@__crt_stdio_output@@@2@@__crt_stdio_output@@QAE@ABV?$string_output_adapter@_W@1@_KQB_WQAU__crt_locale_pointers@@QAD@Z 00469eb8 f i libucrt:output.obj
 0001:00068eed       ??1formatting_buffer@__crt_stdio_output@@QAE@XZ 00469eed f i libucrt:output.obj
 0001:00069081       ?crop_zeroes@__crt_stdio_output@@YAXPADQAU__crt_locale_pointers@@@Z 0046a081 f i libucrt:output.obj
 0001:000690d8       ?find_next_state@?$output_processor@DV?$stream_output_adapter@D@__crt_stdio_output@@V?$standard_base@DV?$stream_output_adapter@D@__crt_stdio_output@@@2@@__crt_stdio_output@@ABE?AW4state@2@DW432@@Z 0046a0d8 f i libucrt:output.obj
 0001:000690d8       ?find_next_state@?$output_processor@DV?$string_output_adapter@D@__crt_stdio_output@@V?$standard_base@DV?$string_output_adapter@D@__crt_stdio_output@@@2@@__crt_stdio_output@@ABE?AW4state@2@DW432@@Z 0046a0d8 f i libucrt:output.obj
 0001:0006910a       ?find_next_state@?$output_processor@DV?$string_output_adapter@D@__crt_stdio_output@@V?$format_validation_base@DV?$string_output_adapter@D@__crt_stdio_output@@@2@@__crt_stdio_output@@ABE?AW4state@2@DW432@@Z 0046a10a f i libucrt:output.obj
 0001:0006913f       ?find_next_state@?$output_processor@_WV?$string_output_adapter@_W@__crt_stdio_output@@V?$format_validation_base@_WV?$string_output_adapter@_W@__crt_stdio_output@@@2@@__crt_stdio_output@@ABE?AW4state@2@_WW432@@Z 0046a13f f i libucrt:output.obj
 0001:00069176       ?find_next_state@?$output_processor@_WV?$stream_output_adapter@_W@__crt_stdio_output@@V?$standard_base@_WV?$stream_output_adapter@_W@__crt_stdio_output@@@2@@__crt_stdio_output@@ABE?AW4state@2@_WW432@@Z 0046a176 f i libucrt:output.obj
 0001:00069176       ?find_next_state@?$output_processor@_WV?$string_output_adapter@_W@__crt_stdio_output@@V?$standard_base@_WV?$string_output_adapter@_W@__crt_stdio_output@@@2@@__crt_stdio_output@@ABE?AW4state@2@_WW432@@Z 0046a176 f i libucrt:output.obj
 0001:000691aa       ?force_decimal_point@__crt_stdio_output@@YAXPADQAU__crt_locale_pointers@@@Z 0046a1aa f i libucrt:output.obj
 0001:00069206       ?parse_int_from_format_string@?$output_processor@DV?$string_output_adapter@D@__crt_stdio_output@@V?$format_validation_base@DV?$string_output_adapter@D@__crt_stdio_output@@@2@@__crt_stdio_output@@AAE_NQAH@Z 0046a206 f i libucrt:output.obj
 0001:00069206       ?parse_int_from_format_string@?$output_processor@DV?$stream_output_adapter@D@__crt_stdio_output@@V?$standard_base@DV?$stream_output_adapter@D@__crt_stdio_output@@@2@@__crt_stdio_output@@AAE_NQAH@Z 0046a206 f i libucrt:output.obj
 0001:00069206       ?parse_int_from_format_string@?$output_processor@DV?$string_output_adapter@D@__crt_stdio_output@@V?$standard_base@DV?$string_output_adapter@D@__crt_stdio_output@@@2@@__crt_stdio_output@@AAE_NQAH@Z 0046a206 f i libucrt:output.obj
 0001:00069262       ?parse_int_from_format_string@?$output_processor@_WV?$string_output_adapter@_W@__crt_stdio_output@@V?$format_validation_base@_WV?$string_output_adapter@_W@__crt_stdio_output@@@2@@__crt_stdio_output@@AAE_NQAH@Z 0046a262 f i libucrt:output.obj
 0001:00069262       ?parse_int_from_format_string@?$output_processor@_WV?$stream_output_adapter@_W@__crt_stdio_output@@V?$standard_base@_WV?$stream_output_adapter@_W@__crt_stdio_output@@@2@@__crt_stdio_output@@AAE_NQAH@Z 0046a262 f i libucrt:output.obj
 0001:00069262       ?parse_int_from_format_string@?$output_processor@_WV?$string_output_adapter@_W@__crt_stdio_output@@V?$standard_base@_WV?$string_output_adapter@_W@__crt_stdio_output@@@2@@__crt_stdio_output@@AAE_NQAH@Z 0046a262 f i libucrt:output.obj
 0001:000692c0       ?process@?$output_processor@DV?$stream_output_adapter@D@__crt_stdio_output@@V?$standard_base@DV?$stream_output_adapter@D@__crt_stdio_output@@@2@@__crt_stdio_output@@QAEHXZ 0046a2c0 f i libucrt:output.obj
 0001:000693dc       ?process@?$output_processor@DV?$string_output_adapter@D@__crt_stdio_output@@V?$format_validation_base@DV?$string_output_adapter@D@__crt_stdio_output@@@2@@__crt_stdio_output@@QAEHXZ 0046a3dc f i libucrt:output.obj
 0001:00069504       ?process@?$output_processor@DV?$string_output_adapter@D@__crt_stdio_output@@V?$standard_base@DV?$string_output_adapter@D@__crt_stdio_output@@@2@@__crt_stdio_output@@QAEHXZ 0046a504 f i libucrt:output.obj
 0001:00069620       ?process@?$output_processor@_WV?$stream_output_adapter@_W@__crt_stdio_output@@V?$standard_base@_WV?$stream_output_adapter@_W@__crt_stdio_output@@@2@@__crt_stdio_output@@QAEHXZ 0046a620 f i libucrt:output.obj
 0001:00069740       ?process@?$output_processor@_WV?$string_output_adapter@_W@__crt_stdio_output@@V?$format_validation_base@_WV?$string_output_adapter@_W@__crt_stdio_output@@@2@@__crt_stdio_output@@QAEHXZ 0046a740 f i libucrt:output.obj
 0001:00069870       ?process@?$output_processor@_WV?$string_output_adapter@_W@__crt_stdio_output@@V?$standard_base@_WV?$string_output_adapter@_W@__crt_stdio_output@@@2@@__crt_stdio_output@@QAEHXZ 0046a870 f i libucrt:output.obj
 0001:00069990       ?state_case_flag@?$output_processor@DV?$stream_output_adapter@D@__crt_stdio_output@@V?$standard_base@DV?$stream_output_adapter@D@__crt_stdio_output@@@2@@__crt_stdio_output@@AAE_NXZ 0046a990 f i libucrt:output.obj
 0001:00069990       ?state_case_flag@?$output_processor@DV?$string_output_adapter@D@__crt_stdio_output@@V?$format_validation_base@DV?$string_output_adapter@D@__crt_stdio_output@@@2@@__crt_stdio_output@@AAE_NXZ 0046a990 f i libucrt:output.obj
 0001:00069990       ?state_case_flag@?$output_processor@DV?$string_output_adapter@D@__crt_stdio_output@@V?$standard_base@DV?$string_output_adapter@D@__crt_stdio_output@@@2@@__crt_stdio_output@@AAE_NXZ 0046a990 f i libucrt:output.obj
 0001:000699cd       ?state_case_flag@?$output_processor@_WV?$string_output_adapter@_W@__crt_stdio_output@@V?$standard_base@_WV?$string_output_adapter@_W@__crt_stdio_output@@@2@@__crt_stdio_output@@AAE_NXZ 0046a9cd f i libucrt:output.obj
 0001:000699cd       ?state_case_flag@?$output_processor@_WV?$stream_output_adapter@_W@__crt_stdio_output@@V?$standard_base@_WV?$stream_output_adapter@_W@__crt_stdio_output@@@2@@__crt_stdio_output@@AAE_NXZ 0046a9cd f i libucrt:output.obj
 0001:000699cd       ?state_case_flag@?$output_processor@_WV?$string_output_adapter@_W@__crt_stdio_output@@V?$format_validation_base@_WV?$string_output_adapter@_W@__crt_stdio_output@@@2@@__crt_stdio_output@@AAE_NXZ 0046a9cd f i libucrt:output.obj
 0001:00069a0a       ?state_case_normal@?$output_processor@DV?$stream_output_adapter@D@__crt_stdio_output@@V?$standard_base@DV?$stream_output_adapter@D@__crt_stdio_output@@@2@@__crt_stdio_output@@AAE_NXZ 0046aa0a f i libucrt:output.obj
 0001:00069a29       ?state_case_normal@?$output_processor@DV?$string_output_adapter@D@__crt_stdio_output@@V?$standard_base@DV?$string_output_adapter@D@__crt_stdio_output@@@2@@__crt_stdio_output@@AAE_NXZ 0046aa29 f i libucrt:output.obj
 0001:00069a29       ?state_case_normal@?$output_processor@DV?$string_output_adapter@D@__crt_stdio_output@@V?$format_validation_base@DV?$string_output_adapter@D@__crt_stdio_output@@@2@@__crt_stdio_output@@AAE_NXZ 0046aa29 f i libucrt:output.obj
 0001:00069a48       ?state_case_normal@?$output_processor@_WV?$stream_output_adapter@_W@__crt_stdio_output@@V?$standard_base@_WV?$stream_output_adapter@_W@__crt_stdio_output@@@2@@__crt_stdio_output@@AAE_NXZ 0046aa48 f i libucrt:output.obj
 0001:00069a67       ?state_case_normal@?$output_processor@_WV?$string_output_adapter@_W@__crt_stdio_output@@V?$standard_base@_WV?$string_output_adapter@_W@__crt_stdio_output@@@2@@__crt_stdio_output@@AAE_NXZ 0046aa67 f i libucrt:output.obj
 0001:00069a67       ?state_case_normal@?$output_processor@_WV?$string_output_adapter@_W@__crt_stdio_output@@V?$format_validation_base@_WV?$string_output_adapter@_W@__crt_stdio_output@@@2@@__crt_stdio_output@@AAE_NXZ 0046aa67 f i libucrt:output.obj
 0001:00069a86       ?state_case_normal_common@?$output_processor@DV?$stream_output_adapter@D@__crt_stdio_output@@V?$standard_base@DV?$stream_output_adapter@D@__crt_stdio_output@@@2@@__crt_stdio_output@@AAE_NXZ 0046aa86 f i libucrt:output.obj
 0001:00069ab0       ?state_case_normal_common@?$output_processor@DV?$string_output_adapter@D@__crt_stdio_output@@V?$standard_base@DV?$string_output_adapter@D@__crt_stdio_output@@@2@@__crt_stdio_output@@AAE_NXZ 0046aab0 f i libucrt:output.obj
 0001:00069ab0       ?state_case_normal_common@?$output_processor@DV?$string_output_adapter@D@__crt_stdio_output@@V?$format_validation_base@DV?$string_output_adapter@D@__crt_stdio_output@@@2@@__crt_stdio_output@@AAE_NXZ 0046aab0 f i libucrt:output.obj
 0001:00069ada       ?state_case_normal_common@?$output_processor@_WV?$stream_output_adapter@_W@__crt_stdio_output@@V?$standard_base@_WV?$stream_output_adapter@_W@__crt_stdio_output@@@2@@__crt_stdio_output@@AAE_NXZ 0046aada f i libucrt:output.obj
 0001:00069af5       ?state_case_normal_common@?$output_processor@_WV?$string_output_adapter@_W@__crt_stdio_output@@V?$standard_base@_WV?$string_output_adapter@_W@__crt_stdio_output@@@2@@__crt_stdio_output@@AAE_NXZ 0046aaf5 f i libucrt:output.obj
 0001:00069af5       ?state_case_normal_common@?$output_processor@_WV?$string_output_adapter@_W@__crt_stdio_output@@V?$format_validation_base@_WV?$string_output_adapter@_W@__crt_stdio_output@@@2@@__crt_stdio_output@@AAE_NXZ 0046aaf5 f i libucrt:output.obj
 0001:00069b10       ?state_case_normal_tchar@?$output_processor@DV?$stream_output_adapter@D@__crt_stdio_output@@V?$standard_base@DV?$stream_output_adapter@D@__crt_stdio_output@@@2@@__crt_stdio_output@@AAE_ND@Z 0046ab10 f i libucrt:output.obj
 0001:00069b71       ?state_case_normal_tchar@?$output_processor@DV?$string_output_adapter@D@__crt_stdio_output@@V?$format_validation_base@DV?$string_output_adapter@D@__crt_stdio_output@@@2@@__crt_stdio_output@@AAE_ND@Z 0046ab71 f i libucrt:output.obj
 0001:00069b71       ?state_case_normal_tchar@?$output_processor@DV?$string_output_adapter@D@__crt_stdio_output@@V?$standard_base@DV?$string_output_adapter@D@__crt_stdio_output@@@2@@__crt_stdio_output@@AAE_ND@Z 0046ab71 f i libucrt:output.obj
 0001:00069bd2       ?state_case_precision@?$output_processor@DV?$stream_output_adapter@D@__crt_stdio_output@@V?$standard_base@DV?$stream_output_adapter@D@__crt_stdio_output@@@2@@__crt_stdio_output@@AAE_NXZ 0046abd2 f i libucrt:output.obj
 0001:00069bd2       ?state_case_precision@?$output_processor@DV?$string_output_adapter@D@__crt_stdio_output@@V?$format_validation_base@DV?$string_output_adapter@D@__crt_stdio_output@@@2@@__crt_stdio_output@@AAE_NXZ 0046abd2 f i libucrt:output.obj
 0001:00069bd2       ?state_case_precision@?$output_processor@DV?$string_output_adapter@D@__crt_stdio_output@@V?$standard_base@DV?$string_output_adapter@D@__crt_stdio_output@@@2@@__crt_stdio_output@@AAE_NXZ 0046abd2 f i libucrt:output.obj
 0001:00069bfa       ?state_case_precision@?$output_processor@_WV?$string_output_adapter@_W@__crt_stdio_output@@V?$standard_base@_WV?$string_output_adapter@_W@__crt_stdio_output@@@2@@__crt_stdio_output@@AAE_NXZ 0046abfa f i libucrt:output.obj
 0001:00069bfa       ?state_case_precision@?$output_processor@_WV?$stream_output_adapter@_W@__crt_stdio_output@@V?$standard_base@_WV?$stream_output_adapter@_W@__crt_stdio_output@@@2@@__crt_stdio_output@@AAE_NXZ 0046abfa f i libucrt:output.obj
 0001:00069bfa       ?state_case_precision@?$output_processor@_WV?$string_output_adapter@_W@__crt_stdio_output@@V?$format_validation_base@_WV?$string_output_adapter@_W@__crt_stdio_output@@@2@@__crt_stdio_output@@AAE_NXZ 0046abfa f i libucrt:output.obj
 0001:00069c23       ?state_case_size@?$output_processor@DV?$stream_output_adapter@D@__crt_stdio_output@@V?$standard_base@DV?$stream_output_adapter@D@__crt_stdio_output@@@2@@__crt_stdio_output@@AAE_NXZ 0046ac23 f i libucrt:output.obj
 0001:00069d8c       ?state_case_size@?$output_processor@DV?$string_output_adapter@D@__crt_stdio_output@@V?$standard_base@DV?$string_output_adapter@D@__crt_stdio_output@@@2@@__crt_stdio_output@@AAE_NXZ 0046ad8c f i libucrt:output.obj
 0001:00069d8c       ?state_case_size@?$output_processor@DV?$string_output_adapter@D@__crt_stdio_output@@V?$format_validation_base@DV?$string_output_adapter@D@__crt_stdio_output@@@2@@__crt_stdio_output@@AAE_NXZ 0046ad8c f i libucrt:output.obj
 0001:00069ef5       ?state_case_size@?$output_processor@_WV?$stream_output_adapter@_W@__crt_stdio_output@@V?$standard_base@_WV?$stream_output_adapter@_W@__crt_stdio_output@@@2@@__crt_stdio_output@@AAE_NXZ 0046aef5 f i libucrt:output.obj
 0001:0006a071       ?state_case_size@?$output_processor@_WV?$string_output_adapter@_W@__crt_stdio_output@@V?$format_validation_base@_WV?$string_output_adapter@_W@__crt_stdio_output@@@2@@__crt_stdio_output@@AAE_NXZ 0046b071 f i libucrt:output.obj
 0001:0006a071       ?state_case_size@?$output_processor@_WV?$string_output_adapter@_W@__crt_stdio_output@@V?$standard_base@_WV?$string_output_adapter@_W@__crt_stdio_output@@@2@@__crt_stdio_output@@AAE_NXZ 0046b071 f i libucrt:output.obj
 0001:0006a1ed       ?state_case_type@?$output_processor@DV?$stream_output_adapter@D@__crt_stdio_output@@V?$standard_base@DV?$stream_output_adapter@D@__crt_stdio_output@@@2@@__crt_stdio_output@@AAE_NXZ 0046b1ed f i libucrt:output.obj
 0001:0006a41c       ?state_case_type@?$output_processor@DV?$string_output_adapter@D@__crt_stdio_output@@V?$format_validation_base@DV?$string_output_adapter@D@__crt_stdio_output@@@2@@__crt_stdio_output@@AAE_NXZ 0046b41c f i libucrt:output.obj
 0001:0006a41c       ?state_case_type@?$output_processor@DV?$string_output_adapter@D@__crt_stdio_output@@V?$standard_base@DV?$string_output_adapter@D@__crt_stdio_output@@@2@@__crt_stdio_output@@AAE_NXZ 0046b41c f i libucrt:output.obj
 0001:0006a64b       ?state_case_type@?$output_processor@_WV?$stream_output_adapter@_W@__crt_stdio_output@@V?$standard_base@_WV?$stream_output_adapter@_W@__crt_stdio_output@@@2@@__crt_stdio_output@@AAE_NXZ 0046b64b f i libucrt:output.obj
 0001:0006a8a8       ?state_case_type@?$output_processor@_WV?$string_output_adapter@_W@__crt_stdio_output@@V?$standard_base@_WV?$string_output_adapter@_W@__crt_stdio_output@@@2@@__crt_stdio_output@@AAE_NXZ 0046b8a8 f i libucrt:output.obj
 0001:0006a8a8       ?state_case_type@?$output_processor@_WV?$string_output_adapter@_W@__crt_stdio_output@@V?$format_validation_base@_WV?$string_output_adapter@_W@__crt_stdio_output@@@2@@__crt_stdio_output@@AAE_NXZ 0046b8a8 f i libucrt:output.obj
 0001:0006ab05       ?state_case_width@?$output_processor@DV?$stream_output_adapter@D@__crt_stdio_output@@V?$standard_base@DV?$stream_output_adapter@D@__crt_stdio_output@@@2@@__crt_stdio_output@@AAE_NXZ 0046bb05 f i libucrt:output.obj
 0001:0006ab05       ?state_case_width@?$output_processor@DV?$string_output_adapter@D@__crt_stdio_output@@V?$standard_base@DV?$string_output_adapter@D@__crt_stdio_output@@@2@@__crt_stdio_output@@AAE_NXZ 0046bb05 f i libucrt:output.obj
 0001:0006ab05       ?state_case_width@?$output_processor@DV?$string_output_adapter@D@__crt_stdio_output@@V?$format_validation_base@DV?$string_output_adapter@D@__crt_stdio_output@@@2@@__crt_stdio_output@@AAE_NXZ 0046bb05 f i libucrt:output.obj
 0001:0006ab30       ?state_case_width@?$output_processor@_WV?$string_output_adapter@_W@__crt_stdio_output@@V?$format_validation_base@_WV?$string_output_adapter@_W@__crt_stdio_output@@@2@@__crt_stdio_output@@AAE_NXZ 0046bb30 f i libucrt:output.obj
 0001:0006ab30       ?state_case_width@?$output_processor@_WV?$stream_output_adapter@_W@__crt_stdio_output@@V?$standard_base@_WV?$stream_output_adapter@_W@__crt_stdio_output@@@2@@__crt_stdio_output@@AAE_NXZ 0046bb30 f i libucrt:output.obj
 0001:0006ab30       ?state_case_width@?$output_processor@_WV?$string_output_adapter@_W@__crt_stdio_output@@V?$standard_base@_WV?$string_output_adapter@_W@__crt_stdio_output@@@2@@__crt_stdio_output@@AAE_NXZ 0046bb30 f i libucrt:output.obj
 0001:0006ab5c       ?to_integer_size@__crt_stdio_output@@YAIW4length_modifier@1@@Z 0046bb5c f i libucrt:output.obj
 0001:0006abb8       ?type_case_Z@?$output_processor@DV?$string_output_adapter@D@__crt_stdio_output@@V?$standard_base@DV?$string_output_adapter@D@__crt_stdio_output@@@2@@__crt_stdio_output@@AAE_NXZ 0046bbb8 f i libucrt:output.obj
 0001:0006abb8       ?type_case_Z@?$output_processor@DV?$string_output_adapter@D@__crt_stdio_output@@V?$format_validation_base@DV?$string_output_adapter@D@__crt_stdio_output@@@2@@__crt_stdio_output@@AAE_NXZ 0046bbb8 f i libucrt:output.obj
 0001:0006abb8       ?type_case_Z@?$output_processor@DV?$stream_output_adapter@D@__crt_stdio_output@@V?$standard_base@DV?$stream_output_adapter@D@__crt_stdio_output@@@2@@__crt_stdio_output@@AAE_NXZ 0046bbb8 f i libucrt:output.obj
 0001:0006ac1b       ?type_case_Z@?$output_processor@_WV?$string_output_adapter@_W@__crt_stdio_output@@V?$format_validation_base@_WV?$string_output_adapter@_W@__crt_stdio_output@@@2@@__crt_stdio_output@@AAE_NXZ 0046bc1b f i libucrt:output.obj
 0001:0006ac1b       ?type_case_Z@?$output_processor@_WV?$stream_output_adapter@_W@__crt_stdio_output@@V?$standard_base@_WV?$stream_output_adapter@_W@__crt_stdio_output@@@2@@__crt_stdio_output@@AAE_NXZ 0046bc1b f i libucrt:output.obj
 0001:0006ac1b       ?type_case_Z@?$output_processor@_WV?$string_output_adapter@_W@__crt_stdio_output@@V?$standard_base@_WV?$string_output_adapter@_W@__crt_stdio_output@@@2@@__crt_stdio_output@@AAE_NXZ 0046bc1b f i libucrt:output.obj
 0001:0006ac7e       ?type_case_a@?$output_processor@DV?$string_output_adapter@D@__crt_stdio_output@@V?$format_validation_base@DV?$string_output_adapter@D@__crt_stdio_output@@@2@@__crt_stdio_output@@AAE_NXZ 0046bc7e f i libucrt:output.obj
 0001:0006ac7e       ?type_case_a@?$output_processor@DV?$string_output_adapter@D@__crt_stdio_output@@V?$standard_base@DV?$string_output_adapter@D@__crt_stdio_output@@@2@@__crt_stdio_output@@AAE_NXZ 0046bc7e f i libucrt:output.obj
 0001:0006ac7e       ?type_case_a@?$output_processor@DV?$stream_output_adapter@D@__crt_stdio_output@@V?$standard_base@DV?$stream_output_adapter@D@__crt_stdio_output@@@2@@__crt_stdio_output@@AAE_NXZ 0046bc7e f i libucrt:output.obj
 0001:0006add8       ?type_case_a@?$output_processor@_WV?$string_output_adapter@_W@__crt_stdio_output@@V?$format_validation_base@_WV?$string_output_adapter@_W@__crt_stdio_output@@@2@@__crt_stdio_output@@AAE_NXZ 0046bdd8 f i libucrt:output.obj
 0001:0006add8       ?type_case_a@?$output_processor@_WV?$stream_output_adapter@_W@__crt_stdio_output@@V?$standard_base@_WV?$stream_output_adapter@_W@__crt_stdio_output@@@2@@__crt_stdio_output@@AAE_NXZ 0046bdd8 f i libucrt:output.obj
 0001:0006add8       ?type_case_a@?$output_processor@_WV?$string_output_adapter@_W@__crt_stdio_output@@V?$standard_base@_WV?$string_output_adapter@_W@__crt_stdio_output@@@2@@__crt_stdio_output@@AAE_NXZ 0046bdd8 f i libucrt:output.obj
 0001:0006af4a       ?type_case_c_tchar@?$output_processor@DV?$string_output_adapter@D@__crt_stdio_output@@V?$standard_base@DV?$string_output_adapter@D@__crt_stdio_output@@@2@@__crt_stdio_output@@AAE_ND@Z 0046bf4a f i libucrt:output.obj
 0001:0006af4a       ?type_case_c_tchar@?$output_processor@DV?$stream_output_adapter@D@__crt_stdio_output@@V?$standard_base@DV?$stream_output_adapter@D@__crt_stdio_output@@@2@@__crt_stdio_output@@AAE_ND@Z 0046bf4a f i libucrt:output.obj
 0001:0006af4a       ?type_case_c_tchar@?$output_processor@DV?$string_output_adapter@D@__crt_stdio_output@@V?$format_validation_base@DV?$string_output_adapter@D@__crt_stdio_output@@@2@@__crt_stdio_output@@AAE_ND@Z 0046bf4a f i libucrt:output.obj
 0001:0006afda       ?type_case_c_tchar@?$output_processor@_WV?$string_output_adapter@_W@__crt_stdio_output@@V?$format_validation_base@_WV?$string_output_adapter@_W@__crt_stdio_output@@@2@@__crt_stdio_output@@AAE_N_W@Z 0046bfda f i libucrt:output.obj
 0001:0006afda       ?type_case_c_tchar@?$output_processor@_WV?$string_output_adapter@_W@__crt_stdio_output@@V?$standard_base@_WV?$string_output_adapter@_W@__crt_stdio_output@@@2@@__crt_stdio_output@@AAE_N_W@Z 0046bfda f i libucrt:output.obj
 0001:0006afda       ?type_case_c_tchar@?$output_processor@_WV?$stream_output_adapter@_W@__crt_stdio_output@@V?$standard_base@_WV?$stream_output_adapter@_W@__crt_stdio_output@@@2@@__crt_stdio_output@@AAE_N_W@Z 0046bfda f i libucrt:output.obj
 0001:0006b072       ?type_case_integer@?$output_processor@DV?$string_output_adapter@D@__crt_stdio_output@@V?$standard_base@DV?$string_output_adapter@D@__crt_stdio_output@@@2@@__crt_stdio_output@@AAE_NI_N@Z 0046c072 f i libucrt:output.obj
 0001:0006b072       ?type_case_integer@?$output_processor@_WV?$stream_output_adapter@_W@__crt_stdio_output@@V?$standard_base@_WV?$stream_output_adapter@_W@__crt_stdio_output@@@2@@__crt_stdio_output@@AAE_NI_N@Z 0046c072 f i libucrt:output.obj
 0001:0006b072       ?type_case_integer@?$output_processor@_WV?$string_output_adapter@_W@__crt_stdio_output@@V?$format_validation_base@_WV?$string_output_adapter@_W@__crt_stdio_output@@@2@@__crt_stdio_output@@AAE_NI_N@Z 0046c072 f i libucrt:output.obj
 0001:0006b072       ?type_case_integer@?$output_processor@_WV?$string_output_adapter@_W@__crt_stdio_output@@V?$standard_base@_WV?$string_output_adapter@_W@__crt_stdio_output@@@2@@__crt_stdio_output@@AAE_NI_N@Z 0046c072 f i libucrt:output.obj
 0001:0006b072       ?type_case_integer@?$output_processor@DV?$string_output_adapter@D@__crt_stdio_output@@V?$format_validation_base@DV?$string_output_adapter@D@__crt_stdio_output@@@2@@__crt_stdio_output@@AAE_NI_N@Z 0046c072 f i libucrt:output.obj
 0001:0006b072       ?type_case_integer@?$output_processor@DV?$stream_output_adapter@D@__crt_stdio_output@@V?$standard_base@DV?$stream_output_adapter@D@__crt_stdio_output@@@2@@__crt_stdio_output@@AAE_NI_N@Z 0046c072 f i libucrt:output.obj
 0001:0006b1bc       ?type_case_n@?$output_processor@DV?$stream_output_adapter@D@__crt_stdio_output@@V?$standard_base@DV?$stream_output_adapter@D@__crt_stdio_output@@@2@@__crt_stdio_output@@AAE_NXZ 0046c1bc f i libucrt:output.obj
 0001:0006b1bc       ?type_case_n@?$output_processor@DV?$string_output_adapter@D@__crt_stdio_output@@V?$format_validation_base@DV?$string_output_adapter@D@__crt_stdio_output@@@2@@__crt_stdio_output@@AAE_NXZ 0046c1bc f i libucrt:output.obj
 0001:0006b1bc       ?type_case_n@?$output_processor@_WV?$string_output_adapter@_W@__crt_stdio_output@@V?$standard_base@_WV?$string_output_adapter@_W@__crt_stdio_output@@@2@@__crt_stdio_output@@AAE_NXZ 0046c1bc f i libucrt:output.obj
 0001:0006b1bc       ?type_case_n@?$output_processor@_WV?$string_output_adapter@_W@__crt_stdio_output@@V?$format_validation_base@_WV?$string_output_adapter@_W@__crt_stdio_output@@@2@@__crt_stdio_output@@AAE_NXZ 0046c1bc f i libucrt:output.obj
 0001:0006b1bc       ?type_case_n@?$output_processor@DV?$string_output_adapter@D@__crt_stdio_output@@V?$standard_base@DV?$string_output_adapter@D@__crt_stdio_output@@@2@@__crt_stdio_output@@AAE_NXZ 0046c1bc f i libucrt:output.obj
 0001:0006b1bc       ?type_case_n@?$output_processor@_WV?$stream_output_adapter@_W@__crt_stdio_output@@V?$standard_base@_WV?$stream_output_adapter@_W@__crt_stdio_output@@@2@@__crt_stdio_output@@AAE_NXZ 0046c1bc f i libucrt:output.obj
 0001:0006b230       ?type_case_o@?$output_processor@DV?$string_output_adapter@D@__crt_stdio_output@@V?$standard_base@DV?$string_output_adapter@D@__crt_stdio_output@@@2@@__crt_stdio_output@@AAE_NXZ 0046c230 f i libucrt:output.obj
 0001:0006b230       ?type_case_o@?$output_processor@_WV?$string_output_adapter@_W@__crt_stdio_output@@V?$standard_base@_WV?$string_output_adapter@_W@__crt_stdio_output@@@2@@__crt_stdio_output@@AAE_NXZ 0046c230 f i libucrt:output.obj
 0001:0006b230       ?type_case_o@?$output_processor@_WV?$stream_output_adapter@_W@__crt_stdio_output@@V?$standard_base@_WV?$stream_output_adapter@_W@__crt_stdio_output@@@2@@__crt_stdio_output@@AAE_NXZ 0046c230 f i libucrt:output.obj
 0001:0006b230       ?type_case_o@?$output_processor@DV?$string_output_adapter@D@__crt_stdio_output@@V?$format_validation_base@DV?$string_output_adapter@D@__crt_stdio_output@@@2@@__crt_stdio_output@@AAE_NXZ 0046c230 f i libucrt:output.obj
 0001:0006b230       ?type_case_o@?$output_processor@DV?$stream_output_adapter@D@__crt_stdio_output@@V?$standard_base@DV?$stream_output_adapter@D@__crt_stdio_output@@@2@@__crt_stdio_output@@AAE_NXZ 0046c230 f i libucrt:output.obj
 0001:0006b230       ?type_case_o@?$output_processor@_WV?$string_output_adapter@_W@__crt_stdio_output@@V?$format_validation_base@_WV?$string_output_adapter@_W@__crt_stdio_output@@@2@@__crt_stdio_output@@AAE_NXZ 0046c230 f i libucrt:output.obj
 0001:0006b24f       ?type_case_p@?$output_processor@DV?$string_output_adapter@D@__crt_stdio_output@@V?$format_validation_base@DV?$string_output_adapter@D@__crt_stdio_output@@@2@@__crt_stdio_output@@AAE_NXZ 0046c24f f i libucrt:output.obj
 0001:0006b24f       ?type_case_p@?$output_processor@DV?$stream_output_adapter@D@__crt_stdio_output@@V?$standard_base@DV?$stream_output_adapter@D@__crt_stdio_output@@@2@@__crt_stdio_output@@AAE_NXZ 0046c24f f i libucrt:output.obj
 0001:0006b24f       ?type_case_p@?$output_processor@_WV?$string_output_adapter@_W@__crt_stdio_output@@V?$standard_base@_WV?$string_output_adapter@_W@__crt_stdio_output@@@2@@__crt_stdio_output@@AAE_NXZ 0046c24f f i libucrt:output.obj
 0001:0006b24f       ?type_case_p@?$output_processor@DV?$string_output_adapter@D@__crt_stdio_output@@V?$standard_base@DV?$string_output_adapter@D@__crt_stdio_output@@@2@@__crt_stdio_output@@AAE_NXZ 0046c24f f i libucrt:output.obj
 0001:0006b24f       ?type_case_p@?$output_processor@_WV?$string_output_adapter@_W@__crt_stdio_output@@V?$format_validation_base@_WV?$string_output_adapter@_W@__crt_stdio_output@@@2@@__crt_stdio_output@@AAE_NXZ 0046c24f f i libucrt:output.obj
 0001:0006b24f       ?type_case_p@?$output_processor@_WV?$stream_output_adapter@_W@__crt_stdio_output@@V?$standard_base@_WV?$stream_output_adapter@_W@__crt_stdio_output@@@2@@__crt_stdio_output@@AAE_NXZ 0046c24f f i libucrt:output.obj
 0001:0006b267       ?type_case_s@?$output_processor@DV?$string_output_adapter@D@__crt_stdio_output@@V?$standard_base@DV?$string_output_adapter@D@__crt_stdio_output@@@2@@__crt_stdio_output@@AAE_NXZ 0046c267 f i libucrt:output.obj
 0001:0006b267       ?type_case_s@?$output_processor@DV?$string_output_adapter@D@__crt_stdio_output@@V?$format_validation_base@DV?$string_output_adapter@D@__crt_stdio_output@@@2@@__crt_stdio_output@@AAE_NXZ 0046c267 f i libucrt:output.obj
 0001:0006b267       ?type_case_s@?$output_processor@DV?$stream_output_adapter@D@__crt_stdio_output@@V?$standard_base@DV?$stream_output_adapter@D@__crt_stdio_output@@@2@@__crt_stdio_output@@AAE_NXZ 0046c267 f i libucrt:output.obj
 0001:0006b2da       ?type_case_s@?$output_processor@_WV?$string_output_adapter@_W@__crt_stdio_output@@V?$standard_base@_WV?$string_output_adapter@_W@__crt_stdio_output@@@2@@__crt_stdio_output@@AAE_NXZ 0046c2da f i libucrt:output.obj
 0001:0006b2da       ?type_case_s@?$output_processor@_WV?$string_output_adapter@_W@__crt_stdio_output@@V?$format_validation_base@_WV?$string_output_adapter@_W@__crt_stdio_output@@@2@@__crt_stdio_output@@AAE_NXZ 0046c2da f i libucrt:output.obj
 0001:0006b2da       ?type_case_s@?$output_processor@_WV?$stream_output_adapter@_W@__crt_stdio_output@@V?$standard_base@_WV?$stream_output_adapter@_W@__crt_stdio_output@@@2@@__crt_stdio_output@@AAE_NXZ 0046c2da f i libucrt:output.obj
 0001:0006b34e       ?type_case_s_compute_narrow_string_length@?$output_processor@_WV?$string_output_adapter@_W@__crt_stdio_output@@V?$standard_base@_WV?$string_output_adapter@_W@__crt_stdio_output@@@2@@__crt_stdio_output@@ABEHH_W@Z 0046c34e f i libucrt:output.obj
 0001:0006b34e       ?type_case_s_compute_narrow_string_length@?$output_processor@_WV?$string_output_adapter@_W@__crt_stdio_output@@V?$format_validation_base@_WV?$string_output_adapter@_W@__crt_stdio_output@@@2@@__crt_stdio_output@@ABEHH_W@Z 0046c34e f i libucrt:output.obj
 0001:0006b34e       ?type_case_s_compute_narrow_string_length@?$output_processor@_WV?$stream_output_adapter@_W@__crt_stdio_output@@V?$standard_base@_WV?$stream_output_adapter@_W@__crt_stdio_output@@@2@@__crt_stdio_output@@ABEHH_W@Z 0046c34e f i libucrt:output.obj
 0001:0006b38e       ?validate@?$stream_output_adapter@D@__crt_stdio_output@@QBE_NXZ 0046c38e f i libucrt:output.obj
 0001:0006b3af       ?validate_and_update_state_at_end_of_format_string@?$format_validation_base@DV?$string_output_adapter@D@__crt_stdio_output@@@__crt_stdio_output@@IBE_NXZ 0046c3af f i libucrt:output.obj
 0001:0006b3af       ?validate_and_update_state_at_end_of_format_string@?$format_validation_base@_WV?$string_output_adapter@_W@__crt_stdio_output@@@__crt_stdio_output@@IBE_NXZ 0046c3af f i libucrt:output.obj
 0001:0006b3d1       ?validate_stream_is_ansi_if_required@?$__acrt_stdio_char_traits@D@@SA_NQAU_iobuf@@@Z 0046c3d1 f i libucrt:output.obj
 0001:0006b453       ?write_character@?$stream_output_adapter@D@__crt_stdio_output@@QBEXDQAH@Z 0046c453 f i libucrt:output.obj
 0001:0006b490       ?write_character@?$stream_output_adapter@_W@__crt_stdio_output@@QBEX_WQAH@Z 0046c490 f i libucrt:output.obj
 0001:0006b4d0       ?write_character@?$string_output_adapter@D@__crt_stdio_output@@QBE_NDQAH@Z 0046c4d0 f i libucrt:output.obj
 0001:0006b512       ?write_character@?$string_output_adapter@_W@__crt_stdio_output@@QBE_N_WQAH@Z 0046c512 f i libucrt:output.obj
 0001:0006b557       ?write_stored_string_tchar@?$output_processor@DV?$stream_output_adapter@D@__crt_stdio_output@@V?$standard_base@DV?$stream_output_adapter@D@__crt_stdio_output@@@2@@__crt_stdio_output@@AAE_ND@Z 0046c557 f i libucrt:output.obj
 0001:0006b5fe       ?write_stored_string_tchar@?$output_processor@DV?$string_output_adapter@D@__crt_stdio_output@@V?$standard_base@DV?$string_output_adapter@D@__crt_stdio_output@@@2@@__crt_stdio_output@@AAE_ND@Z 0046c5fe f i libucrt:output.obj
 0001:0006b5fe       ?write_stored_string_tchar@?$output_processor@DV?$string_output_adapter@D@__crt_stdio_output@@V?$format_validation_base@DV?$string_output_adapter@D@__crt_stdio_output@@@2@@__crt_stdio_output@@AAE_ND@Z 0046c5fe f i libucrt:output.obj
 0001:0006b6a5       ?write_stored_string_tchar@?$output_processor@_WV?$stream_output_adapter@_W@__crt_stdio_output@@V?$standard_base@_WV?$stream_output_adapter@_W@__crt_stdio_output@@@2@@__crt_stdio_output@@AAE_N_W@Z 0046c6a5 f i libucrt:output.obj
 0001:0006b730       ?write_stored_string_tchar@?$output_processor@_WV?$string_output_adapter@_W@__crt_stdio_output@@V?$standard_base@_WV?$string_output_adapter@_W@__crt_stdio_output@@@2@@__crt_stdio_output@@AAE_N_W@Z 0046c730 f i libucrt:output.obj
 0001:0006b730       ?write_stored_string_tchar@?$output_processor@_WV?$string_output_adapter@_W@__crt_stdio_output@@V?$format_validation_base@_WV?$string_output_adapter@_W@__crt_stdio_output@@@2@@__crt_stdio_output@@AAE_N_W@Z 0046c730 f i libucrt:output.obj
 0001:0006b7bb       ?write_string@?$stream_output_adapter@D@__crt_stdio_output@@QBEXQBDHQAH1@Z 0046c7bb f i libucrt:output.obj
 0001:0006b845       ?write_string@?$stream_output_adapter@_W@__crt_stdio_output@@QBEXQB_WHQAH1@Z 0046c845 f i libucrt:output.obj
 0001:0006b8d2       ?write_string@?$string_output_adapter@D@__crt_stdio_output@@QBEXQBDHQAH1@Z 0046c8d2 f i libucrt:output.obj
 0001:0006b965       ?write_string@?$string_output_adapter@_W@__crt_stdio_output@@QBEXQB_WHQAH1@Z 0046c965 f i libucrt:output.obj
 0001:0006b9ff       ___stdio_common_vfprintf   0046c9ff f   libucrt:output.obj
 0001:0006ba76       ___stdio_common_vfwprintf  0046ca76 f   libucrt:output.obj
 0001:0006baed       ___stdio_common_vsprintf   0046caed f   libucrt:output.obj
 0001:0006bb11       ___stdio_common_vsprintf_s 0046cb11 f   libucrt:output.obj
 0001:0006bb35       ___stdio_common_vswprintf  0046cb35 f   libucrt:output.obj
 0001:0006bb59       ___stdio_common_vswprintf_s 0046cb59 f   libucrt:output.obj
 0001:0006bb7d       __waccess                  0046cb7d f   libucrt:waccess.obj
 0001:0006bb95       __waccess_s                0046cb95 f   libucrt:waccess.obj
 0001:0006bc55       _localeconv                0046cc55 f   libucrt:localeconv.obj
 0001:0006bc7f       __access                   0046cc7f f   libucrt:access.obj
 0001:0006bc97       __access_s                 0046cc97 f   libucrt:access.obj
 0001:0006bcec       _fputws                    0046ccec f   libucrt:fputws.obj
 0001:0006bd84       __fclose_nolock            0046cd84 f   libucrt:fclose.obj
 0001:0006bdfa       _fclose                    0046cdfa f   libucrt:fclose.obj
 0001:0006bf3b       _fopen                     0046cf3b f   libucrt:fopen.obj
 0001:0006bf52       _remove                    0046cf52 f   libucrt:unlink.obj
 0001:0006bf9f       _wcsncpy                   0046cf9f f   libucrt:wcsncpy.obj
 0001:0006bfe2       __recalloc                 0046cfe2 f   libucrt:recalloc.obj
 0001:0006bfed       __recalloc_base            0046cfed f   libucrt:recalloc.obj
 0001:0006c05a       _strcpy_s                  0046d05a f   libucrt:strcpy_s.obj
 0001:0006c0b4       ___ascii_stricmp           0046d0b4 f   libucrt:stricmp.obj
 0001:0006c0ef       __stricmp                  0046d0ef f   libucrt:stricmp.obj
 0001:0006c137       __stricmp_l                0046d137 f   libucrt:stricmp.obj
 0001:0006c1d1       _malloc                    0046d1d1 f   libucrt:malloc.obj
 0001:0006c3b3       ___acrt_initialize_thread_local_exit_callback 0046d3b3 f   libucrt:exit.obj
 0001:0006c3c2       __c_exit                   0046d3c2 f   libucrt:exit.obj
 0001:0006c3d1       __cexit                    0046d3d1 f   libucrt:exit.obj
 0001:0006c3e0       __exit                     0046d3e0 f   libucrt:exit.obj
 0001:0006c3f6       __register_thread_local_exe_atexit_callback 0046d3f6 f   libucrt:exit.obj
 0001:0006c42e       _exit                      0046d42e f   libucrt:exit.obj
 0001:0006c444       ??$?RV<lambda_b0cac3301889906f8da68b04e3d9a7f4>@@AAV<lambda_9a20e10065b92b5193c3597a66cba9d4>@@V<lambda_24b35df97fd4c1fecac72a72d95cc146>@@@?$__crt_seh_guarded_call@H@@QAEH$$QAV<lambda_b0cac3301889906f8da68b04e3d9a7f4>@@AAV<lambda_9a20e10065b92b5193c3597a66cba9d4>@@$$QAV<lambda_24b35df97fd4c1fecac72a72d95cc146>@@@Z 0046d444 f i libucrt:fputs.obj
 0001:0006c495       ??$__acrt_lock_stream_and_call@V<lambda_9a20e10065b92b5193c3597a66cba9d4>@@@@YAHQAU_iobuf@@$$QAV<lambda_9a20e10065b92b5193c3597a66cba9d4>@@@Z 0046d495 f i libucrt:fputs.obj
 0001:0006c50b       _fputs                     0046d50b f   libucrt:fputs.obj
 0001:0006c5e6       ??$assemble_floating_point_ind@N@__crt_strtox@@YAXAAN@Z 0046d5e6 f i libucrt:input.obj
 0001:0006c615       ??$assemble_floating_point_infinity@N@__crt_strtox@@YAX_NAAN@Z 0046d615 f i libucrt:input.obj
 0001:0006c654       ??$assemble_floating_point_qnan@N@__crt_strtox@@YAX_NAAN@Z 0046d654 f i libucrt:input.obj
 0001:0006c693       ??$assemble_floating_point_snan@N@__crt_strtox@@YAX_NAAN@Z 0046d693 f i libucrt:input.obj
 0001:0006c6d7       ??$assemble_floating_point_value_t@M@__crt_strtox@@YA?AW4SLD_STATUS@@_NH_KAAM@Z 0046d6d7 f i libucrt:input.obj
 0001:0006c707       ??$assemble_floating_point_value_t@N@__crt_strtox@@YA?AW4SLD_STATUS@@_NH_KAAN@Z 0046d707 f i libucrt:input.obj
 0001:0006c766       ??$assemble_floating_point_zero@N@__crt_strtox@@YAX_NAAN@Z 0046d766 f i libucrt:input.obj
 0001:0006c913       ??$convert_decimal_string_to_floating_type@M@__crt_strtox@@YA?AW4SLD_STATUS@@ABUfloating_point_string@0@AAM@Z 0046d913 f i libucrt:input.obj
 0001:0006c936       ??$convert_decimal_string_to_floating_type@N@__crt_strtox@@YA?AW4SLD_STATUS@@ABUfloating_point_string@0@AAN@Z 0046d936 f i libucrt:input.obj
 0001:0006c959       ??$convert_hexadecimal_string_to_floating_type@M@__crt_strtox@@YA?AW4SLD_STATUS@@ABUfloating_point_string@0@AAM@Z 0046d959 f i libucrt:input.obj
 0001:0006c97c       ??$convert_hexadecimal_string_to_floating_type@N@__crt_strtox@@YA?AW4SLD_STATUS@@ABUfloating_point_string@0@AAN@Z 0046d97c f i libucrt:input.obj
 0001:0006c99f       ??$is_overflow_condition@_K@__crt_strtox@@YA_NI_K@Z 0046d99f f i libucrt:input.obj
 0001:0006c9e2       ??$make_input_adapter_character_source@V?$string_input_adapter@D@__crt_stdio_input@@@__crt_strtox@@YA?AV?$input_adapter_character_source@V?$string_input_adapter@D@__crt_stdio_input@@@0@QAV?$string_input_adapter@D@__crt_stdio_input@@_KQA_N@Z 0046d9e2 f i libucrt:input.obj
 0001:0006c9e2       ??$make_input_adapter_character_source@V?$string_input_adapter@_W@__crt_stdio_input@@@__crt_strtox@@YA?AV?$input_adapter_character_source@V?$string_input_adapter@_W@__crt_stdio_input@@@0@QAV?$string_input_adapter@_W@__crt_stdio_input@@_KQA_N@Z 0046d9e2 f i libucrt:input.obj
 0001:0006ca00       ??$parse_floating_point@V?$input_adapter_character_source@V?$string_input_adapter@D@__crt_stdio_input@@@__crt_strtox@@M@__crt_strtox@@YA?AW4SLD_STATUS@@QAU__crt_locale_pointers@@V?$input_adapter_character_source@V?$string_input_adapter@D@__crt_stdio_input@@@0@QAM@Z 0046da00 f i libucrt:input.obj
 0001:0006ca7b       ??$parse_floating_point@V?$input_adapter_character_source@V?$string_input_adapter@D@__crt_stdio_input@@@__crt_strtox@@N@__crt_strtox@@YA?AW4SLD_STATUS@@QAU__crt_locale_pointers@@V?$input_adapter_character_source@V?$string_input_adapter@D@__crt_stdio_input@@@0@QAN@Z 0046da7b f i libucrt:input.obj
 0001:0006caf6       ??$parse_floating_point@V?$input_adapter_character_source@V?$string_input_adapter@_W@__crt_stdio_input@@@__crt_strtox@@M@__crt_strtox@@YA?AW4SLD_STATUS@@QAU__crt_locale_pointers@@V?$input_adapter_character_source@V?$string_input_adapter@_W@__crt_stdio_input@@@0@QAM@Z 0046daf6 f i libucrt:input.obj
 0001:0006cb71       ??$parse_floating_point@V?$input_adapter_character_source@V?$string_input_adapter@_W@__crt_stdio_input@@@__crt_strtox@@N@__crt_strtox@@YA?AW4SLD_STATUS@@QAU__crt_locale_pointers@@V?$input_adapter_character_source@V?$string_input_adapter@_W@__crt_stdio_input@@@0@QAN@Z 0046db71 f i libucrt:input.obj
 0001:0006cbec       ??$parse_floating_point_from_source@V?$input_adapter_character_source@V?$string_input_adapter@D@__crt_stdio_input@@@__crt_strtox@@@__crt_strtox@@YA?AW4floating_point_parse_result@0@QAU__crt_locale_pointers@@AAV?$input_adapter_character_source@V?$string_input_adapter@D@__crt_stdio_input@@@0@AAUfloating_point_string@0@@Z 0046dbec f i libucrt:input.obj
 0001:0006d053       ??$parse_floating_point_from_source@V?$input_adapter_character_source@V?$string_input_adapter@_W@__crt_stdio_input@@@__crt_strtox@@@__crt_strtox@@YA?AW4floating_point_parse_result@0@QAU__crt_locale_pointers@@AAV?$input_adapter_character_source@V?$string_input_adapter@_W@__crt_stdio_input@@@0@AAUfloating_point_string@0@@Z 0046e053 f i libucrt:input.obj
 0001:0006de81       ??$parse_floating_point_possible_infinity@DV?$input_adapter_character_source@V?$string_input_adapter@D@__crt_stdio_input@@@__crt_strtox@@_K@__crt_strtox@@YA?AW4floating_point_parse_result@0@AADAAV?$input_adapter_character_source@V?$string_input_adapter@D@__crt_stdio_input@@@0@_K@Z 0046ee81 f i libucrt:input.obj
 0001:0006df42       ??$parse_floating_point_possible_infinity@_WV?$input_adapter_character_source@V?$string_input_adapter@_W@__crt_stdio_input@@@__crt_strtox@@_K@__crt_strtox@@YA?AW4floating_point_parse_result@0@AA_WAAV?$input_adapter_character_source@V?$string_input_adapter@_W@__crt_stdio_input@@@0@_K@Z 0046ef42 f i libucrt:input.obj
 0001:0006e011       ??$parse_floating_point_possible_nan@DV?$input_adapter_character_source@V?$string_input_adapter@D@__crt_stdio_input@@@__crt_strtox@@_K@__crt_strtox@@YA?AW4floating_point_parse_result@0@AADAAV?$input_adapter_character_source@V?$string_input_adapter@D@__crt_stdio_input@@@0@_K@Z 0046f011 f i libucrt:input.obj
 0001:0006e123       ??$parse_floating_point_possible_nan@_WV?$input_adapter_character_source@V?$string_input_adapter@_W@__crt_stdio_input@@@__crt_strtox@@_K@__crt_strtox@@YA?AW4floating_point_parse_result@0@AA_WAAV?$input_adapter_character_source@V?$string_input_adapter@_W@__crt_stdio_input@@@0@_K@Z 0046f123 f i libucrt:input.obj
 0001:0006e24f       ??$parse_floating_point_possible_nan_is_ind@DV?$input_adapter_character_source@V?$string_input_adapter@D@__crt_stdio_input@@@__crt_strtox@@@__crt_strtox@@YA_NAADAAV?$input_adapter_character_source@V?$string_input_adapter@D@__crt_stdio_input@@@0@@Z 0046f24f f i libucrt:input.obj
 0001:0006e289       ??$parse_floating_point_possible_nan_is_ind@_WV?$input_adapter_character_source@V?$string_input_adapter@_W@__crt_stdio_input@@@__crt_strtox@@@__crt_strtox@@YA_NAA_WAAV?$input_adapter_character_source@V?$string_input_adapter@_W@__crt_stdio_input@@@0@@Z 0046f289 f i libucrt:input.obj
 0001:0006e2c9       ??$parse_floating_point_possible_nan_is_snan@DV?$input_adapter_character_source@V?$string_input_adapter@D@__crt_stdio_input@@@__crt_strtox@@@__crt_strtox@@YA_NAADAAV?$input_adapter_character_source@V?$string_input_adapter@D@__crt_stdio_input@@@0@@Z 0046f2c9 f i libucrt:input.obj
 0001:0006e303       ??$parse_floating_point_possible_nan_is_snan@_WV?$input_adapter_character_source@V?$string_input_adapter@_W@__crt_stdio_input@@@__crt_strtox@@@__crt_strtox@@YA_NAA_WAAV?$input_adapter_character_source@V?$string_input_adapter@_W@__crt_stdio_input@@@0@@Z 0046f303 f i libucrt:input.obj
 0001:0006e343       ??$parse_floating_point_write_result@M@__crt_strtox@@YA?AW4SLD_STATUS@@W4floating_point_parse_result@0@ABUfloating_point_string@0@QAM@Z 0046f343 f i libucrt:input.obj
 0001:0006e453       ??$parse_floating_point_write_result@N@__crt_strtox@@YA?AW4SLD_STATUS@@W4floating_point_parse_result@0@ABUfloating_point_string@0@QAN@Z 0046f453 f i libucrt:input.obj
 0001:0006e557       ??$parse_integer@_KV?$input_adapter_character_source@V?$string_input_adapter@D@__crt_stdio_input@@@__crt_strtox@@@__crt_strtox@@YA_KQAU__crt_locale_pointers@@V?$input_adapter_character_source@V?$string_input_adapter@D@__crt_stdio_input@@@0@H_N@Z 0046f557 f i libucrt:input.obj
 0001:0006e808       ??$parse_integer@_KV?$input_adapter_character_source@V?$string_input_adapter@_W@__crt_stdio_input@@@__crt_strtox@@@__crt_strtox@@YA_KQAU__crt_locale_pointers@@V?$input_adapter_character_source@V?$string_input_adapter@_W@__crt_stdio_input@@@0@H_N@Z 0046f808 f i libucrt:input.obj
 0001:0006ee07       ??$process_floating_point_specifier_t@M@?$input_processor@DV?$string_input_adapter@D@__crt_stdio_input@@@__crt_stdio_input@@AAE_NXZ 0046fe07 f i libucrt:input.obj
 0001:0006ee6f       ??$process_floating_point_specifier_t@M@?$input_processor@_WV?$string_input_adapter@_W@__crt_stdio_input@@@__crt_stdio_input@@AAE_NXZ 0046fe6f f i libucrt:input.obj
 0001:0006eed7       ??$process_floating_point_specifier_t@N@?$input_processor@DV?$string_input_adapter@D@__crt_stdio_input@@@__crt_stdio_input@@AAE_NXZ 0046fed7 f i libucrt:input.obj
 0001:0006ef3f       ??$process_floating_point_specifier_t@N@?$input_processor@_WV?$string_input_adapter@_W@__crt_stdio_input@@@__crt_stdio_input@@AAE_NXZ 0046ff3f f i libucrt:input.obj
 0001:0006efa7       ??$process_string_specifier_tchar@D@?$input_processor@DV?$string_input_adapter@D@__crt_stdio_input@@@__crt_stdio_input@@AAE_NW4conversion_mode@1@D@Z 0046ffa7 f i libucrt:input.obj
 0001:0006f109       ??$process_string_specifier_tchar@D@?$input_processor@_WV?$string_input_adapter@_W@__crt_stdio_input@@@__crt_stdio_input@@AAE_NW4conversion_mode@1@D@Z 00470109 f i libucrt:input.obj
 0001:0006f274       ??$process_string_specifier_tchar@_W@?$input_processor@DV?$string_input_adapter@D@__crt_stdio_input@@@__crt_stdio_input@@AAE_NW4conversion_mode@1@_W@Z 00470274 f i libucrt:input.obj
 0001:0006f3e0       ??$process_string_specifier_tchar@_W@?$input_processor@_WV?$string_input_adapter@_W@__crt_stdio_input@@@__crt_stdio_input@@AAE_NW4conversion_mode@1@_W@Z 004703e0 f i libucrt:input.obj
 0001:0006f54c       ??$skip_whitespace@Vstring_input_adapter@__crt_stdio_input@@D@__crt_stdio_input@@YAHAAV?$string_input_adapter@D@0@QAU__crt_locale_pointers@@@Z 0047054c f i libucrt:input.obj
 0001:0006f57b       ??$skip_whitespace@Vstring_input_adapter@__crt_stdio_input@@_W@__crt_stdio_input@@YAGAAV?$string_input_adapter@_W@0@QAU__crt_locale_pointers@@@Z 0047057b f i libucrt:input.obj
 0001:0006f5aa       ??$write_floating_point@M@?$input_processor@DV?$string_input_adapter@D@__crt_stdio_input@@@__crt_stdio_input@@AAE_NABM@Z 004705aa f i libucrt:input.obj
 0001:0006f5e1       ??$write_floating_point@M@?$input_processor@_WV?$string_input_adapter@_W@__crt_stdio_input@@@__crt_stdio_input@@AAE_NABM@Z 004705e1 f i libucrt:input.obj
 0001:0006f618       ??$write_floating_point@N@?$input_processor@DV?$string_input_adapter@D@__crt_stdio_input@@@__crt_stdio_input@@AAE_NABN@Z 00470618 f i libucrt:input.obj
 0001:0006f655       ??$write_floating_point@N@?$input_processor@_WV?$string_input_adapter@_W@__crt_stdio_input@@@__crt_stdio_input@@AAE_NABN@Z 00470655 f i libucrt:input.obj
 0001:0006f692       ??0?$format_string_parser@D@__crt_stdio_input@@QAE@_KQBE@Z 00470692 f i libucrt:input.obj
 0001:0006f6dc       ??0?$format_string_parser@_W@__crt_stdio_input@@QAE@_KQB_W@Z 004706dc f i libucrt:input.obj
 0001:0006f71a       ??0?$input_adapter_character_source@V?$string_input_adapter@D@__crt_stdio_input@@@__crt_strtox@@QAE@QAV?$string_input_adapter@D@__crt_stdio_input@@_KQA_N@Z 0047071a f i libucrt:input.obj
 0001:0006f71a       ??0?$input_adapter_character_source@V?$string_input_adapter@_W@__crt_stdio_input@@@__crt_strtox@@QAE@QAV?$string_input_adapter@_W@__crt_stdio_input@@_KQA_N@Z 0047071a f i libucrt:input.obj
 0001:0006f74b       ??0?$input_processor@DV?$string_input_adapter@D@__crt_stdio_input@@@__crt_stdio_input@@QAE@ABV?$string_input_adapter@D@1@_KQBDQAU__crt_locale_pointers@@QAD@Z 0047074b f i libucrt:input.obj
 0001:0006f793       ??0?$input_processor@_WV?$string_input_adapter@_W@__crt_stdio_input@@@__crt_stdio_input@@QAE@ABV?$string_input_adapter@_W@1@_KQB_WQAU__crt_locale_pointers@@QAD@Z 00470793 f i libucrt:input.obj
 0001:0006f7db       ??4?$__crt_unique_heap_ptr@DU__crt_internal_free_policy@@@@QAEAAV0@$$QAV0@@Z 004707db f i libucrt:output.obj
 0001:0006f7db       ??4?$__crt_unique_heap_ptr@EU__crt_internal_free_policy@@@@QAEAAV0@$$QAV0@@Z 004707db f i libucrt:input.obj
 0001:0006f855       ?advance@?$format_string_parser@D@__crt_stdio_input@@QAE_NXZ 00470855 f i libucrt:input.obj
 0001:0006f975       ?advance@?$format_string_parser@_W@__crt_stdio_input@@QAE_NXZ 00470975 f i libucrt:input.obj
 0001:0006fa77       ?as_double@floating_point_value@__crt_strtox@@QBEAANXZ 00470a77 f i libucrt:input.obj
 0001:0006fa9c       ?as_float@floating_point_value@__crt_strtox@@QBEAAMXZ 00470a9c f i libucrt:input.obj
 0001:0006fac1       ?assemble_floating_point_infinity@__crt_strtox@@YAX_NABVfloating_point_value@1@@Z 00470ac1 f i libucrt:input.obj
 0001:0006fafb       ?assemble_floating_point_value@__crt_strtox@@YA?AW4SLD_STATUS@@_KH_N1ABVfloating_point_value@1@@Z 00470afb f i libucrt:input.obj
 0001:0006fe47       ?assemble_floating_point_value_from_big_integer@__crt_strtox@@YA?AW4SLD_STATUS@@ABUbig_integer@1@I_N1ABVfloating_point_value@1@@Z 00470e47 f i libucrt:input.obj
 0001:0006ffd5       ?assemble_floating_point_zero@__crt_strtox@@YAX_NABVfloating_point_value@1@@Z 00470fd5 f i libucrt:input.obj
 0001:00070009       ?convert_decimal_string_to_floating_type_common@__crt_strtox@@YA?AW4SLD_STATUS@@ABUfloating_point_string@1@ABVfloating_point_value@1@@Z 00471009 f i libucrt:input.obj
 0001:00071dcc       ?convert_hexadecimal_string_to_floating_type_common@__crt_strtox@@YA?AW4SLD_STATUS@@ABUfloating_point_string@1@ABVfloating_point_value@1@@Z 00472dcc f i libucrt:input.obj
 0001:00071e78       ?data@?$scanset_storage@$01@__crt_stdio_input@@QBEPAEXZ 00472e78 f i libucrt:input.obj
 0001:00071eb2       ?denormal_mantissa_mask@floating_point_value@__crt_strtox@@QBE_KXZ 00472eb2 f i libucrt:input.obj
 0001:00071ed0       ?divide@__crt_strtox@@YA_KAAUbig_integer@1@ABU21@@Z 00472ed0 f i libucrt:input.obj
 0001:0007237e       ?get@?$input_adapter_character_source@V?$string_input_adapter@D@__crt_stdio_input@@@__crt_strtox@@QAEDXZ 0047337e f i libucrt:input.obj
 0001:000723b8       ?get@?$input_adapter_character_source@V?$string_input_adapter@_W@__crt_stdio_input@@@__crt_strtox@@QAE_WXZ 004733b8 f i libucrt:input.obj
 0001:000723f1       ?get@?$string_input_adapter@D@__crt_stdio_input@@QAEHXZ 004733f1 f i libucrt:input.obj
 0001:00072407       ?get@?$string_input_adapter@_W@__crt_stdio_input@@QAEGXZ 00473407 f i libucrt:input.obj
 0001:00072421       ?invert@?$scanset_buffer@E@__crt_stdio_input@@QAEXXZ 00473421 f i libucrt:input.obj
 0001:0007243f       ?invert@?$scanset_buffer@_W@__crt_stdio_input@@QAEXXZ 0047343f f i libucrt:input.obj
 0001:00072467       ?is_character_allowed_in_string@?$input_processor@DV?$string_input_adapter@D@__crt_stdio_input@@@__crt_stdio_input@@ABE_NW4conversion_mode@2@H@Z 00473467 f i libucrt:input.obj
 0001:000724ad       ?is_character_allowed_in_string@?$input_processor@_WV?$string_input_adapter@_W@__crt_stdio_input@@@__crt_stdio_input@@ABE_NW4conversion_mode@2@G@Z 004734ad f i libucrt:input.obj
 0001:000724fa       ?length@?$format_string_parser@D@__crt_stdio_input@@QBEIXZ 004734fa f i libucrt:input.obj
 0001:0007253b       ?length@?$format_string_parser@_W@__crt_stdio_input@@QBEIXZ 0047353b f i libucrt:input.obj
 0001:0007257c       ?normal_mantissa_mask@floating_point_value@__crt_strtox@@QBE_KXZ 0047357c f i libucrt:input.obj
 0001:00072593       ?process@?$input_processor@DV?$string_input_adapter@D@__crt_stdio_input@@@__crt_stdio_input@@QAEHXZ 00473593 f i libucrt:input.obj
 0001:00072618       ?process@?$input_processor@_WV?$string_input_adapter@_W@__crt_stdio_input@@@__crt_stdio_input@@QAEHXZ 00473618 f i libucrt:input.obj
 0001:000726a6       ?process_character_count_specifier@?$input_processor@DV?$string_input_adapter@D@__crt_stdio_input@@@__crt_stdio_input@@AAE_NXZ 004736a6 f i libucrt:input.obj
 0001:000726c0       ?process_character_count_specifier@?$input_processor@_WV?$string_input_adapter@_W@__crt_stdio_input@@@__crt_stdio_input@@AAE_NXZ 004736c0 f i libucrt:input.obj
 0001:000726dc       ?process_conversion_specifier@?$input_processor@DV?$string_input_adapter@D@__crt_stdio_input@@@__crt_stdio_input@@AAE_NXZ 004736dc f i libucrt:input.obj
 0001:00072750       ?process_conversion_specifier@?$input_processor@_WV?$string_input_adapter@_W@__crt_stdio_input@@@__crt_stdio_input@@AAE_NXZ 00473750 f i libucrt:input.obj
 0001:000727c4       ?process_floating_point_specifier@?$input_processor@DV?$string_input_adapter@D@__crt_stdio_input@@@__crt_stdio_input@@AAE_NXZ 004737c4 f i libucrt:input.obj
 0001:000727f4       ?process_floating_point_specifier@?$input_processor@_WV?$string_input_adapter@_W@__crt_stdio_input@@@__crt_stdio_input@@AAE_NXZ 004737f4 f i libucrt:input.obj
 0001:00072824       ?process_integer_specifier@?$input_processor@DV?$string_input_adapter@D@__crt_stdio_input@@@__crt_stdio_input@@AAE_NI_N@Z 00473824 f i libucrt:input.obj
 0001:0007288a       ?process_integer_specifier@?$input_processor@_WV?$string_input_adapter@_W@__crt_stdio_input@@@__crt_stdio_input@@AAE_NI_N@Z 0047388a f i libucrt:input.obj
 0001:000728f0       ?process_literal_character@?$input_processor@DV?$string_input_adapter@D@__crt_stdio_input@@@__crt_stdio_input@@AAE_NXZ 004738f0 f i libucrt:input.obj
 0001:00072926       ?process_literal_character@?$input_processor@_WV?$string_input_adapter@_W@__crt_stdio_input@@@__crt_stdio_input@@AAE_NXZ 00473926 f i libucrt:input.obj
 0001:0007295b       ?process_literal_character_tchar@?$input_processor@DV?$string_input_adapter@D@__crt_stdio_input@@@__crt_stdio_input@@AAE_ND@Z 0047395b f i libucrt:input.obj
 0001:000729b1       ?process_state@?$input_processor@DV?$string_input_adapter@D@__crt_stdio_input@@@__crt_stdio_input@@AAE_NXZ 004739b1 f i libucrt:input.obj
 0001:000729e7       ?process_state@?$input_processor@_WV?$string_input_adapter@_W@__crt_stdio_input@@@__crt_stdio_input@@AAE_NXZ 004739e7 f i libucrt:input.obj
 0001:00072a1d       ?process_string_specifier@?$input_processor@DV?$string_input_adapter@D@__crt_stdio_input@@@__crt_stdio_input@@AAE_NW4conversion_mode@2@@Z 00473a1d f i libucrt:input.obj
 0001:00072a65       ?process_string_specifier@?$input_processor@_WV?$string_input_adapter@_W@__crt_stdio_input@@@__crt_stdio_input@@AAE_NW4conversion_mode@2@@Z 00473a65 f i libucrt:input.obj
 0001:00072aad       ?process_whitespace@?$input_processor@DV?$string_input_adapter@D@__crt_stdio_input@@@__crt_stdio_input@@AAE_NXZ 00473aad f i libucrt:input.obj
 0001:00072aca       ?process_whitespace@?$input_processor@_WV?$string_input_adapter@_W@__crt_stdio_input@@@__crt_stdio_input@@AAE_NXZ 00473aca f i libucrt:input.obj
 0001:00072aea       ?reset@?$scanset_buffer@_W@__crt_stdio_input@@QAEXXZ 00473aea f i libucrt:input.obj
 0001:00072b04       ?reset_token_state_for_error@?$format_string_parser@_W@__crt_stdio_input@@AAEXH@Z 00473b04 f i libucrt:input.obj
 0001:00072b2f       ?restore_state@?$input_adapter_character_source@V?$string_input_adapter@D@__crt_stdio_input@@@__crt_strtox@@QAE_N_K@Z 00473b2f f i libucrt:input.obj
 0001:00072b2f       ?restore_state@?$input_adapter_character_source@V?$string_input_adapter@_W@__crt_stdio_input@@@__crt_strtox@@QAE_N_K@Z 00473b2f f i libucrt:input.obj
 0001:00072b54       ?scan_conversion_specifier@?$format_string_parser@D@__crt_stdio_input@@AAE_NXZ 00473b54 f i libucrt:input.obj
 0001:00072cbf       ?scan_conversion_specifier@?$format_string_parser@_W@__crt_stdio_input@@AAE_NXZ 00473cbf f i libucrt:input.obj
 0001:00072e0b       ?scan_optional_assignment_suppressor@?$format_string_parser@_W@__crt_stdio_input@@AAEXXZ 00473e0b f i libucrt:input.obj
 0001:00072e1f       ?scan_optional_field_width@?$format_string_parser@D@__crt_stdio_input@@AAE_NXZ 00473e1f f i libucrt:input.obj
 0001:00072ebe       ?scan_optional_field_width@?$format_string_parser@_W@__crt_stdio_input@@AAE_NXZ 00473ebe f i libucrt:input.obj
 0001:000730ea       ?scan_optional_length_modifier@?$format_string_parser@D@__crt_stdio_input@@AAEXXZ 004740ea f i libucrt:input.obj
 0001:0007320a       ?scan_optional_length_modifier@?$format_string_parser@_W@__crt_stdio_input@@AAEXXZ 0047420a f i libucrt:input.obj
 0001:0007333b       ?scan_optional_literal_character_trail_bytes_tchar@?$format_string_parser@D@__crt_stdio_input@@AAE_ND@Z 0047433b f i libucrt:input.obj
 0001:00073390       ?scan_optional_wide_modifier@?$format_string_parser@D@__crt_stdio_input@@AAEXXZ 00474390 f i libucrt:input.obj
 0001:000733ae       ?scan_optional_wide_modifier@?$format_string_parser@_W@__crt_stdio_input@@AAEXXZ 004743ae f i libucrt:input.obj
 0001:000733d8       ?scan_scanset_range@?$format_string_parser@D@__crt_stdio_input@@AAE_NXZ 004743d8 f i libucrt:input.obj
 0001:000734df       ?scan_scanset_range@?$format_string_parser@_W@__crt_stdio_input@@AAE_NXZ 004744df f i libucrt:input.obj
 0001:000735ef       ?set@?$scanset_buffer@E@__crt_stdio_input@@QAEXE@Z 004745ef f i libucrt:input.obj
 0001:0007361a       ?set@?$scanset_buffer@_W@__crt_stdio_input@@QAEX_W@Z 0047461a f i libucrt:input.obj
 0001:0007364a       ?set_wide_for_c_s_or_scanset@?$format_string_parser@D@__crt_stdio_input@@AAEXXZ 0047464a f i libucrt:input.obj
 0001:0007366a       ?set_wide_for_c_s_or_scanset@?$format_string_parser@_W@__crt_stdio_input@@AAEXXZ 0047466a f i libucrt:input.obj
 0001:0007368a       ?should_default_to_wide@?$format_string_parser@_W@__crt_stdio_input@@AAE_N_W@Z 0047468a f i libucrt:input.obj
 0001:000736bd       ?test@?$scanset_buffer@E@__crt_stdio_input@@QBE_NE@Z 004746bd f i libucrt:input.obj
 0001:000736ee       ?test@?$scanset_buffer@_W@__crt_stdio_input@@QBE_N_W@Z 004746ee f i libucrt:input.obj
 0001:00073726       ?to_floating_point_length@__crt_stdio_input@@YAIW4length_modifier@1@@Z 00474726 f i libucrt:input.obj
 0001:00073749       ?to_integer_length@__crt_stdio_input@@YAIW4length_modifier@1@@Z 00474749 f i libucrt:input.obj
 0001:000737a1       ?unget@?$input_adapter_character_source@V?$string_input_adapter@D@__crt_stdio_input@@@__crt_strtox@@QAEXD@Z 004747a1 f i libucrt:input.obj
 0001:000737e2       ?unget@?$input_adapter_character_source@V?$string_input_adapter@_W@__crt_stdio_input@@@__crt_strtox@@QAEX_W@Z 004747e2 f i libucrt:input.obj
 0001:00073827       ?unget@?$string_input_adapter@D@__crt_stdio_input@@QAEXH@Z 00474827 f i libucrt:input.obj
 0001:00073846       ?unget@?$string_input_adapter@_W@__crt_stdio_input@@QAEXG@Z 00474846 f i libucrt:input.obj
 0001:0007386c       ?validate@?$format_string_parser@_W@__crt_stdio_input@@QBE_NXZ 0047486c f i libucrt:input.obj
 0001:0007386c       ?validate@?$format_string_parser@D@__crt_stdio_input@@QBE_NXZ 0047486c f i libucrt:input.obj
 0001:00073888       ?validate@?$input_adapter_character_source@V?$string_input_adapter@_W@__crt_stdio_input@@@__crt_strtox@@QBE_NXZ 00474888 f i libucrt:input.obj
 0001:00073888       ?validate@?$input_adapter_character_source@V?$string_input_adapter@D@__crt_stdio_input@@@__crt_strtox@@QBE_NXZ 00474888 f i libucrt:input.obj
 0001:000738a9       ?validate@?$string_input_adapter@_W@__crt_stdio_input@@QAE_NXZ 004748a9 f i libucrt:input.obj
 0001:000738a9       ?validate@?$string_input_adapter@D@__crt_stdio_input@@QAE_NXZ 004748a9 f i libucrt:input.obj
 0001:000738cb       ?write_character@?$input_processor@DV?$string_input_adapter@D@__crt_stdio_input@@@__crt_stdio_input@@AAE_NQA_WIAAPA_WAAID@Z 004748cb f i libucrt:input.obj
 0001:0007393c       ?write_character@?$input_processor@_WV?$string_input_adapter@_W@__crt_stdio_input@@@__crt_stdio_input@@AAE_NQADIAAPADAAI_W@Z 0047493c f i libucrt:input.obj
 0001:000739c4       ?write_integer@?$input_processor@DV?$string_input_adapter@D@__crt_stdio_input@@@__crt_stdio_input@@AAE_N_K_N@Z 004749c4 f i libucrt:input.obj
 0001:00073a3b       ?write_integer@?$input_processor@_WV?$string_input_adapter@_W@__crt_stdio_input@@@__crt_stdio_input@@AAE_N_K_N@Z 00474a3b f i libucrt:input.obj
 0001:00073ab2       ___stdio_common_vsscanf    00474ab2 f   libucrt:input.obj
 0001:00073ad6       ___stdio_common_vswscanf   00474ad6 f   libucrt:input.obj
 0001:00073afa       ??$?RV<lambda_123407a5e2ac06da108355a851863b7a>@@AAV<lambda_2fe9b910cf3cbf4a0ab98a02ba45b3ec>@@V<lambda_ae55bdf541ad94d75914d381c370e64d>@@@?$__crt_seh_guarded_call@H@@QAEH$$QAV<lambda_123407a5e2ac06da108355a851863b7a>@@AAV<lambda_2fe9b910cf3cbf4a0ab98a02ba45b3ec>@@$$QAV<lambda_ae55bdf541ad94d75914d381c370e64d>@@@Z 00474afa f i libucrt:close.obj
 0001:00073b7c       ??$__acrt_lowio_lock_fh_and_call@V<lambda_2fe9b910cf3cbf4a0ab98a02ba45b3ec>@@@@YAHH$$QAV<lambda_2fe9b910cf3cbf4a0ab98a02ba45b3ec>@@@Z 00474b7c f i libucrt:close.obj
 0001:00073ba4       __close                    00474ba4 f   libucrt:close.obj
 0001:00073c23       __close_nolock             00474c23 f   libucrt:close.obj
 0001:0007424f       __write                    0047524f f   libucrt:write.obj
 0001:0007433a       __write_nolock             0047533a f   libucrt:write.obj
 0001:00074b20       __sopen_dispatch           00475b20 f   libucrt:open.obj
 0001:00074b2b       __sopen_nolock             00475b2b f   libucrt:open.obj
 0001:00074b7c       __sopen_s                  00475b7c f   libucrt:open.obj
 0001:00074b9c       __wsopen_nolock            00475b9c f   libucrt:open.obj
 0001:00074f44       __time64                   00475f44 f   libucrt:time.obj
 0001:00074f86       __isalnum_l                00475f86 f i libucrt:_ctype.obj
 0001:00074fc1       __isdigit_l                00475fc1 f i libucrt:_ctype.obj
 0001:00074ff9       __islower_l                00475ff9 f i libucrt:_ctype.obj
 0001:00075031       __isspace_l                00476031 f i libucrt:_ctype.obj
 0001:00075069       __isupper_l                00476069 f i libucrt:_ctype.obj
 0001:000750a1       _isalnum                   004760a1 f i libucrt:_ctype.obj
 0001:000750d0       _isdigit                   004760d0 f i libucrt:_ctype.obj
 0001:000750fd       _islower                   004760fd f i libucrt:_ctype.obj
 0001:0007512a       _isspace                   0047612a f i libucrt:_ctype.obj
 0001:00075157       _isupper                   00476157 f i libucrt:_ctype.obj
 0001:00075184       _wcscpy_s                  00476184 f   libucrt:wcscpy_s.obj
 0001:000751e8       __wcsicmp                  004761e8 f   libucrt:wcsicmp.obj
 0001:0007527d       __wcsicmp_l                0047627d f   libucrt:wcsicmp.obj
 0001:0007535d       _strcat_s                  0047635d f   libucrt:strcat_s.obj
 0001:000753d0       _strncmp                   004763d0 f   libucrt:strncmp.obj
 0001:000755c4       __strupr                   004765c4 f   libucrt:strupr.obj
 0001:00075621       __strupr_s_l               00476621 f   libucrt:strupr.obj
 0001:0007565a       ??$is_overflow_condition@K@__crt_strtox@@YA_NIK@Z 0047665a f i libucrt:atox.obj
 0001:0007568d       ??$make_c_string_character_source@_W$$T@__crt_strtox@@YA?AV?$c_string_character_source@_W@0@QB_W$$T@Z 0047668d f i libucrt:atox.obj
 0001:0007568d       ??$make_c_string_character_source@D$$T@__crt_strtox@@YA?AV?$c_string_character_source@D@0@QBD$$T@Z 0047668d f i libucrt:atox.obj
 0001:0007568d       ??$make_c_string_character_source@DPAPAD@__crt_strtox@@YA?AV?$c_string_character_source@D@0@QBDQAPAD@Z 0047668d f i libucrt:strtox.obj
 0001:0007568d       ??$make_c_string_character_source@_WPAPA_W@__crt_strtox@@YA?AV?$c_string_character_source@_W@0@QB_WQAPA_W@Z 0047668d f i libucrt:strtox.obj
 0001:000756a8       ??$parse_integer@KV?$c_string_character_source@D@__crt_strtox@@@__crt_strtox@@YAKQAU__crt_locale_pointers@@V?$c_string_character_source@D@0@H_N@Z 004766a8 f i libucrt:atox.obj
 0001:000758d0       ??$parse_integer@KV?$c_string_character_source@_W@__crt_strtox@@@__crt_strtox@@YAKQAU__crt_locale_pointers@@V?$c_string_character_source@_W@0@H_N@Z 004768d0 f i libucrt:atox.obj
 0001:00075fb5       ??$parse_integer@_KV?$c_string_character_source@D@__crt_strtox@@@__crt_strtox@@YA_KQAU__crt_locale_pointers@@V?$c_string_character_source@D@0@H_N@Z 00476fb5 f i libucrt:atox.obj
 0001:0007625b       ??$parse_integer@_KV?$c_string_character_source@_W@__crt_strtox@@@__crt_strtox@@YA_KQAU__crt_locale_pointers@@V?$c_string_character_source@_W@0@H_N@Z 0047725b f i libucrt:atox.obj
 0001:00076850       ?unget@?$c_string_character_source@D@__crt_strtox@@QAEXD@Z 00477850 f i libucrt:atox.obj
 0001:00076878       ?unget@?$c_string_character_source@_W@__crt_strtox@@QAEX_W@Z 00477878 f i libucrt:atox.obj
 0001:000768a4       ?validate@?$c_string_character_source@D@__crt_strtox@@QBE_NXZ 004778a4 f i libucrt:atox.obj
 0001:000768a4       ?validate@?$c_string_character_source@_W@__crt_strtox@@QBE_NXZ 004778a4 f i libucrt:atox.obj
 0001:000768a4       ?validate@?$stream_output_adapter@_W@__crt_stdio_output@@QBE_NXZ 004778a4 f i libucrt:output.obj
 0001:000768a4       ?validate@?$string_output_adapter@D@__crt_stdio_output@@QBE_NXZ 004778a4 f i libucrt:output.obj
 0001:000768a4       ?validate@?$string_output_adapter@_W@__crt_stdio_output@@QBE_NXZ 004778a4 f i libucrt:output.obj
 0001:000768bf       __wtol                     004778bf f   libucrt:atox.obj
 0001:000768e9       _atol                      004778e9 f   libucrt:atox.obj
 0001:000768e9       _atoi                      004778e9 f   libucrt:atox.obj
 0001:00076913       _strtol                    00477913 f   libucrt:strtox.obj
 0001:0007693f       _strtoull                  0047793f f   libucrt:strtox.obj
 0001:0007696b       _wcstol                    0047796b f   libucrt:strtox.obj
 0001:00076997       _wcstoull                  00477997 f   libucrt:strtox.obj
 0001:00076abf       ??Rthread_parameter_free_policy@?A0xe57bf005@@QAEXQAU__acrt_thread_parameter@@@Z 00477abf f i libucrt:thread.obj
 0001:00076b96       __beginthread              00477b96 f   libucrt:thread.obj
 0001:00076c22       __beginthreadex            00477c22 f   libucrt:thread.obj
 0001:00076ca7       __endthreadex              00477ca7 f   libucrt:thread.obj
 0001:00076cb5       _ferror                    00477cb5 f   libucrt:feoferr.obj
 0001:00076ce0       ___acrt_stdio_flush_nolock 00477ce0 f   libucrt:fflush.obj
 0001:00076d46       __fflush_nolock            00477d46 f   libucrt:fflush.obj
 0001:00076d8d       __flushall                 00477d8d f   libucrt:fflush.obj
 0001:00076e6e       _fflush                    00477e6e f   libucrt:fflush.obj
 0001:00076ec7       __fileno                   00477ec7 f   libucrt:fileno.obj
 0001:00076eed       ___acrt_lowio_create_handle_array 00477eed f   libucrt:osfinfo.obj
 0001:00076f67       ___acrt_lowio_destroy_handle_array 00477f67 f   libucrt:osfinfo.obj
 0001:00076f9c       ___acrt_lowio_ensure_fh_exists 00477f9c f   libucrt:osfinfo.obj
 0001:00077034       ___acrt_lowio_lock_fh      00478034 f   libucrt:osfinfo.obj
 0001:00077057       ___acrt_lowio_set_os_handle 00478057 f   libucrt:osfinfo.obj
 0001:000770eb       ___acrt_lowio_unlock_fh    004780eb f   libucrt:osfinfo.obj
 0001:0007710e       __alloc_osfhnd             0047810e f   libucrt:osfinfo.obj
 0001:00077220       __free_osfhnd              00478220 f   libucrt:osfinfo.obj
 0001:000772b1       __get_osfhandle            004782b1 f   libucrt:osfinfo.obj
 0001:00077320       _ceil                      00478320 f   libucrt:ceil_pentium4.obj
 0001:00077360       __ceil_pentium4            00478360 f   libucrt:ceil_pentium4.obj
 0001:00077440       _floor                     00478440 f   libucrt:floor_pentium4.obj
 0001:00077480       __floor_pentium4           00478480 f   libucrt:floor_pentium4.obj
 0001:00077932       ??$loctotime@AAGAAGAAGAAGAAGAAGH@?$__crt_integer_traits@_J@@SA_JAAG00000$$QAH@Z 00478932 f i libucrt:stat.obj
 0001:00077d28       __stat64i32                00478d28 f   libucrt:stat.obj
 0001:00077d88       __fread_nolock_s           00478d88 f   libucrt:fread.obj
 0001:00077f54       _fread                     00478f54 f   libucrt:fread.obj
 0001:00077f71       _fread_s                   00478f71 f   libucrt:fread.obj
 0001:000783f7       __findclose                004793f7 f   libucrt:findfile.obj
 0001:0007841d       __findfirst64i32           0047941d f   libucrt:findfile.obj
 0001:00078428       __findnext64i32            00479428 f   libucrt:findfile.obj
 0001:00078485       ___acrt_initialize_locks   00479485 f   libucrt:locks.obj
 0001:000784c6       ___acrt_lock               004794c6 f   libucrt:locks.obj
 0001:000784dd       ___acrt_uninitialize_locks 004794dd f   libucrt:locks.obj
 0001:0007850e       ___acrt_unlock             0047950e f   libucrt:locks.obj
 0001:00078525       __lock_locales             00479525 f   libucrt:locks.obj
 0001:0007852e       __unlock_locales           0047952e f   libucrt:locks.obj
 0001:00078537       __calloc_base              00479537 f   libucrt:calloc_base.obj
 0001:00078594       ___pctype_func             00479594 f   libucrt:ctype.obj
 0001:000785ba       __wcsdup                   004795ba f   libucrt:wcsdup.obj
 0001:0007861b       ____lc_codepage_func       0047961b f   libucrt:initctype.obj
 0001:00078642       ____lc_locale_name_func    00479642 f   libucrt:initctype.obj
 0001:0007866b       ____mb_cur_max_func        0047966b f   libucrt:initctype.obj
 0001:00078692       ___acrt_locale_initialize_ctype 00479692 f   libucrt:initctype.obj
 0001:00078a89       __ismbblead                00479a89 f   libucrt:ismbbyte.obj
 0001:00078b3e       _setlocale                 00479b3e f   libucrt:setlocale.obj
 0001:00078c9b       ___strncnt                 00479c9b f   libucrt:strncnt.obj
 0001:00078cb7       __free_base                00479cb7 f   libucrt:free_base.obj
 0001:00078cf1       __malloc_base              00479cf1 f   libucrt:malloc_base.obj
 0001:00078d3f       _strnlen                   00479d3f f   libucrt:strnlen.obj
 0001:00078e66       _wcsnlen                   00479e66 f   libucrt:strnlen.obj
 0001:0007901d       _abort                     0047a01d f   libucrt:abort.obj
 0001:00079060       __realloc_base             0047a060 f   libucrt:realloc_base.obj
 0001:000790d0       _pow                       0047a0d0 f   libucrt:pow.obj
 0001:00079110       __CIpow                    0047a110 f   libucrt:pow.obj
 0001:0007914b       __CIpow_default            0047a14b f   libucrt:pow.obj
 0001:00079164       __pow_default              0047a164     libucrt:pow.obj
 0001:00079359       ??$__crt_time_is_leap_year@H@@YA_NH@Z 0047a359 f i libucrt:wcsftime.obj
 0001:0007939a       ___acrt_initialize_new_handler 0047a39a f   libucrt:new_handler.obj
 0001:000793ae       __callnewh                 0047a3ae f   libucrt:new_handler.obj
 0001:000793f2       __query_new_handler        0047a3f2 f   libucrt:new_handler.obj
 0001:00079444       __seh_filter_exe           0047a444 f   libucrt:exception_filter.obj
 0001:00079850       ___acrt_allocate_buffer_for_argv 0047a850 f   libucrt:argv_parsing.obj
 0001:000798a5       __configure_narrow_argv    0047a8a5 f   libucrt:argv_parsing.obj
 0001:00079ab7       ??$uninitialize@A6AXAAPAPA_W@Z@?$dual_state_global@PAPA_W@__crt_state_management@@QAEXA6AXAAPAPA_W@Z@Z 0047aab7 f i libucrt:environment_initialization.obj
 0001:00079ab7       ??$uninitialize@A6AXAAPAPAD@Z@?$dual_state_global@PAPAD@__crt_state_management@@QAEXA6AXAAPAPAD@Z@Z 0047aab7 f i libucrt:environment_initialization.obj
 0001:00079b2d       ?__crt_compute_required_transform_buffer_count@@YAIIQB_W@Z 0047ab2d f i libucrt:environment_initialization.obj
 0001:00079b49       ?__crt_transform_string@@YAIIQB_WQADI@Z 0047ab49 f i libucrt:environment_initialization.obj
 0001:00079b69       ___dcrt_get_or_create_narrow_environment_nolock 0047ab69 f   libucrt:environment_initialization.obj
 0001:00079b6e       ___dcrt_uninitialize_environments_nolock 0047ab6e f   libucrt:environment_initialization.obj
 0001:00079ba5       __initialize_narrow_environment 0047aba5 f   libucrt:environment_initialization.obj
 0001:00079baa       ??$?RV<lambda_800076c951b434888f4765a74a194fcc>@@AAV<lambda_4e60a939b0d047cfe11ddc22648dfba9>@@V<lambda_6dbb1268764f43b569ce7b67e331d33a>@@@?$__crt_seh_guarded_call@H@@QAEH$$QAV<lambda_800076c951b434888f4765a74a194fcc>@@AAV<lambda_4e60a939b0d047cfe11ddc22648dfba9>@@$$QAV<lambda_6dbb1268764f43b569ce7b67e331d33a>@@@Z 0047abaa f i libucrt:onexit.obj
 0001:00079bfb       ??$?RV<lambda_995298e7d72eb4c2aab26c0585b3abe5>@@AAV<lambda_275893d493268fdec8709772e3fcec0e>@@V<lambda_293819299cbf9a7022e18b56a874bb5c>@@@?$__crt_seh_guarded_call@H@@QAEH$$QAV<lambda_995298e7d72eb4c2aab26c0585b3abe5>@@AAV<lambda_275893d493268fdec8709772e3fcec0e>@@$$QAV<lambda_293819299cbf9a7022e18b56a874bb5c>@@@Z 0047abfb f i libucrt:onexit.obj
 0001:00079c4c       ??$__acrt_lock_and_call@V<lambda_275893d493268fdec8709772e3fcec0e>@@@@YAHW4__acrt_lock_id@@$$QAV<lambda_275893d493268fdec8709772e3fcec0e>@@@Z 0047ac4c f i libucrt:onexit.obj
 0001:00079c74       ??$__acrt_lock_and_call@V<lambda_4e60a939b0d047cfe11ddc22648dfba9>@@@@YAHW4__acrt_lock_id@@$$QAV<lambda_4e60a939b0d047cfe11ddc22648dfba9>@@@Z 0047ac74 f i libucrt:onexit.obj
 0001:00079c9c       ??$__crt_fast_encode_pointer@P6AHPAU_exception@@@Z@@YAP6AHPAU_exception@@@ZQ6AH0@Z@Z 0047ac9c f i libucrt:matherr.obj
 0001:00079c9c       ??$__crt_fast_encode_pointer@P6AXPB_W00II@Z@@YAP6AXPB_W00II@ZQ6AX000II@Z@Z 0047ac9c f i libucrt:invalid_parameter.obj
 0001:00079c9c       ??$__crt_fast_encode_pointer@P6AHXZ@@YAP6AHXZQ6AHXZ@Z 0047ac9c f i libucrt:onexit.obj
 0001:00079c9c       ??$__crt_fast_encode_pointer@P6GHPA_WKJ@Z@@YAP6GHPA_WKJ@ZQ6GH0KJ@Z@Z 0047ac9c f i libucrt:winapi_thunks.obj
 0001:00079c9c       ??$__crt_fast_encode_pointer@P6GXPAXK0@Z@@YAP6GXPAXK0@ZQ6GX0K0@Z@Z 0047ac9c f i libucrt:exit.obj
 0001:00079f1c       __crt_atexit               0047af1c f   libucrt:onexit.obj
 0001:00079f32       __execute_onexit_table     0047af32 f   libucrt:onexit.obj
 0001:00079f4f       __initialize_onexit_table  0047af4f f   libucrt:onexit.obj
 0001:00079f8c       __register_onexit_function 0047af8c f   libucrt:onexit.obj
 0001:00079fdc       __should_initialize_environment 0047afdc f   LIBCMT:env_mode.obj
 0001:00079fdc       ___acrt_uninitialize_command_line 0047afdc f   libucrt:argv_data.obj
 0001:0007a0a4       ___acrt_initialize         0047b0a4 f   libucrt:initialization.obj
 0001:0007a0b6       ___acrt_uninitialize       0047b0b6 f   libucrt:initialization.obj
 0001:0007a0c8       __errcode                  0047b0c8 f   libucrt:fpexcept.obj
 0001:0007a0fc       __except1                  0047b0fc f   libucrt:fpexcept.obj
 0001:0007a1ca       __handle_exc               0047b1ca f   libucrt:fpexcept.obj
 0001:0007a3aa       __raise_exc                0047b3aa f   libucrt:fpexcept.obj
 0001:0007a3cd       __raise_exc_ex             0047b3cd f   libucrt:fpexcept.obj
 0001:0007a6be       __set_errno_from_matherr   0047b6be f   libucrt:fpexcept.obj
 0001:0007a6ed       __umatherr                 0047b6ed f   libucrt:fpexcept.obj
 0001:0007a78f       __query_app_type           0047b78f f   libucrt:report_runtime_error.obj
 0001:0007a795       __set_app_type             0047b795 f   libucrt:report_runtime_error.obj
 0001:0007a7a4       ___acrt_has_user_matherr   0047b7a4 f   libucrt:matherr.obj
 0001:0007a7bd       ___acrt_initialize_user_matherr 0047b7bd f   libucrt:matherr.obj
 0001:0007a7d1       ___acrt_invoke_user_matherr 0047b7d1 f   libucrt:matherr.obj
 0001:0007a81a       ___setusermatherr          0047b81a f   libucrt:matherr.obj
 0001:0007a82f       __get_narrow_winmain_command_line 0047b82f f   libucrt:argv_winmain.obj
 0001:0007a882       __initterm                 0047b882 f   libucrt:initterm.obj
 0001:0007a8de       __initterm_e               0047b8de f   libucrt:initterm.obj
 0001:0007a923       __get_fmode                0047b923 f   libucrt:setmode.obj
 0001:0007a94f       __set_fmode                0047b94f f   libucrt:setmode.obj
 0001:0007a98c       __setmode_nolock           0047b98c f   libucrt:setmode.obj
 0001:0007aa5d       ??$?RV<lambda_70818de7b02deff9841e8b0962a60ed9>@@AAV<lambda_2af78c5f5901b1372d98f9ab3177dfa6>@@AAV<lambda_f51fe5fd7c79a33db34fc9310f277369>@@@?$__crt_seh_guarded_call@X@@QAEX$$QAV<lambda_70818de7b02deff9841e8b0962a60ed9>@@AAV<lambda_2af78c5f5901b1372d98f9ab3177dfa6>@@AAV<lambda_f51fe5fd7c79a33db34fc9310f277369>@@@Z 0047ba5d f i libucrt:wsetlocale.obj
 0001:0007aa98       ??$?RV<lambda_c76fdea48760d5f9368b465f31df4405>@@AAV<lambda_e378711a6f6581bf7f0efd7cdf97f5d9>@@V<lambda_e927a58b2a85c081d733e8c6192ae2d2>@@@?$__crt_seh_guarded_call@X@@QAEX$$QAV<lambda_c76fdea48760d5f9368b465f31df4405>@@AAV<lambda_e378711a6f6581bf7f0efd7cdf97f5d9>@@$$QAV<lambda_e927a58b2a85c081d733e8c6192ae2d2>@@@Z 0047ba98 f i libucrt:wsetlocale.obj
 0001:0007aadb       ??$__acrt_lock_and_call@V<lambda_e378711a6f6581bf7f0efd7cdf97f5d9>@@@@YAXW4__acrt_lock_id@@$$QAV<lambda_e378711a6f6581bf7f0efd7cdf97f5d9>@@@Z 0047badb f i libucrt:wsetlocale.obj
 0001:0007ac5d       ___acrt_copy_locale_name   0047bc5d f   libucrt:wsetlocale.obj
 0001:0007acc3       ___acrt_set_locale_changed 0047bcc3 f   libucrt:wsetlocale.obj
 0001:0007acce       ___acrt_uninitialize_locale 0047bcce f   libucrt:wsetlocale.obj
 0001:0007ad20       ___lc_lctowcs              0047bd20 f   libucrt:wsetlocale.obj
 0001:0007ad90       ___lc_wcstolc              0047bd90 f   libucrt:wsetlocale.obj
 0001:0007aebf       __configthreadlocale       0047bebf f   libucrt:wsetlocale.obj
 0001:0007af50       __expandlocale             0047bf50 f   libucrt:wsetlocale.obj
 0001:0007b2c7       __wcscats                  0047c2c7 f   libucrt:wsetlocale.obj
 0001:0007b308       __wsetlocale               0047c308 f   libucrt:wsetlocale.obj
 0001:0007bbd2       __query_new_mode           0047cbd2 f   libucrt:new_mode.obj
 0001:0007bbd8       __set_new_mode             0047cbd8 f   libucrt:new_mode.obj
 0001:0007bc07       ___p__commode              0047cc07 f   libucrt:ncommode.obj
 0001:0007bc0d       _terminate                 0047cc0d f   libucrt:terminate.obj
 0001:0007bc49       __controlfp_s              0047cc49 f   libucrt:contrlfp.obj
 0001:0007bca8       ??$?RV<lambda_3518db117f0e7cdb002338c5d3c47b6c>@@AAV<lambda_b2ea41f6bbb362cd97d94c6828d90b61>@@V<lambda_abdedf541bb04549bc734292b4a045d4>@@@?$__crt_seh_guarded_call@X@@QAEX$$QAV<lambda_3518db117f0e7cdb002338c5d3c47b6c>@@AAV<lambda_b2ea41f6bbb362cd97d94c6828d90b61>@@$$QAV<lambda_abdedf541bb04549bc734292b4a045d4>@@@Z 0047cca8 f i libucrt:per_thread_data.obj
 0001:0007bcf8       ??$?RV<lambda_51b6e8b1eb166f2a3faf91f424b38130>@@AAV<lambda_6250bd4b2a391816dd638c3bf72b0bcb>@@V<lambda_0b5a4a3e68152e1d9b943535f5f47bed>@@@?$__crt_seh_guarded_call@X@@QAEX$$QAV<lambda_51b6e8b1eb166f2a3faf91f424b38130>@@AAV<lambda_6250bd4b2a391816dd638c3bf72b0bcb>@@$$QAV<lambda_0b5a4a3e68152e1d9b943535f5f47bed>@@@Z 0047ccf8 f i libucrt:per_thread_data.obj
 0001:0007bd59       ??$?RV<lambda_5b71d36f03204c0beab531769a5b5694>@@AAV<lambda_be2b3da3f62db62e9dad5dc70221a656>@@V<lambda_8f9ce462984622f9bf76b59e2aaaf805>@@@?$__crt_seh_guarded_call@X@@QAEX$$QAV<lambda_5b71d36f03204c0beab531769a5b5694>@@AAV<lambda_be2b3da3f62db62e9dad5dc70221a656>@@$$QAV<lambda_8f9ce462984622f9bf76b59e2aaaf805>@@@Z 0047cd59 f i libucrt:per_thread_data.obj
 0001:0007bda4       ??$?RV<lambda_9df27f884b057bc3edfc946cb5b7cf47>@@AAV<lambda_e69574bed617af4e071282c136b37893>@@V<lambda_cc0d902bcbbeb830f749456577db4721>@@@?$__crt_seh_guarded_call@X@@QAEX$$QAV<lambda_9df27f884b057bc3edfc946cb5b7cf47>@@AAV<lambda_e69574bed617af4e071282c136b37893>@@$$QAV<lambda_cc0d902bcbbeb830f749456577db4721>@@@Z 0047cda4 f i libucrt:per_thread_data.obj
 0001:0007bdec       ??$__acrt_lock_and_call@V<lambda_6250bd4b2a391816dd638c3bf72b0bcb>@@@@YAXW4__acrt_lock_id@@$$QAV<lambda_6250bd4b2a391816dd638c3bf72b0bcb>@@@Z 0047cdec f i libucrt:per_thread_data.obj
 0001:0007be14       ??$__acrt_lock_and_call@V<lambda_b2ea41f6bbb362cd97d94c6828d90b61>@@@@YAXW4__acrt_lock_id@@$$QAV<lambda_b2ea41f6bbb362cd97d94c6828d90b61>@@@Z 0047ce14 f i libucrt:per_thread_data.obj
 0001:0007be3c       ??$__acrt_lock_and_call@V<lambda_be2b3da3f62db62e9dad5dc70221a656>@@@@YAXW4__acrt_lock_id@@$$QAV<lambda_be2b3da3f62db62e9dad5dc70221a656>@@@Z 0047ce3c f i libucrt:per_thread_data.obj
 0001:0007be64       ??$__acrt_lock_and_call@V<lambda_e69574bed617af4e071282c136b37893>@@@@YAXW4__acrt_lock_id@@$$QAV<lambda_e69574bed617af4e071282c136b37893>@@@Z 0047ce64 f i libucrt:per_thread_data.obj
 0001:0007c01a       ___acrt_getptd             0047d01a f   libucrt:per_thread_data.obj
 0001:0007c09e       ___acrt_getptd_noexit      0047d09e f   libucrt:per_thread_data.obj
 0001:0007c123       ___acrt_initialize_ptd     0047d123 f   libucrt:per_thread_data.obj
 0001:0007c14f       ___acrt_uninitialize_ptd   0047d14f f   libucrt:per_thread_data.obj
 0001:0007c169       __isleadbyte_l             0047d169 f i libucrt:_wctype.obj
 0001:0007c1a2       __isctype_l                0047d1a2 f   libucrt:isctype.obj
 0001:0007c491       ___acrt_LCMapStringA       0047d491 f   libucrt:lcmapstringa.obj
 0001:0007c4dc       ___acrt_update_locale_info 0047d4dc f   libucrt:locale_update.obj
 0001:0007c509       ___acrt_update_multibyte_info 0047d509 f   libucrt:locale_update.obj
 0001:0007c536       __dsign                    0047d536 f   libucrt:nan.obj
 0001:0007c546       __decomp                   0047d546 f   libucrt:util.obj
 0001:0007c61a       __set_exp                  0047d61a f   libucrt:util.obj
 0001:0007c649       __sptype                   0047d649 f   libucrt:util.obj
 0001:0007c6a7       ___set_fpsr_sse2           0047d6a7 f   libucrt:fpctrl.obj
 0001:0007c71d       __clrfp                    0047d71d f   libucrt:fpctrl.obj
 0001:0007c730       __ctrlfp                   0047d730 f   libucrt:fpctrl.obj
 0001:0007c75c       __set_statfp               0047d75c f   libucrt:fpctrl.obj
 0001:0007c7b7       __statfp                   0047d7b7 f   libucrt:fpctrl.obj
 0001:0007c7c9       __mbtowc_l                 0047d7c9 f   libucrt:mbtowc.obj
 0001:0007c8c3       _mbtowc                    0047d8c3 f   libucrt:mbtowc.obj
 0001:0007c8dd       __wctomb_s_l               0047d8dd f   libucrt:wctomb.obj
 0001:0007c9fe       _wctomb_s                  0047d9fe f   libucrt:wctomb.obj
 0001:0007ca1b       ?__acrt_fp_classify@@YA?AW4__acrt_fp_class@@ABN@Z 0047da1b f i libucrt:cvt.obj
 0001:0007ca87       ?__acrt_fp_is_negative@@YA_NABN@Z 0047da87 f i libucrt:cvt.obj
 0001:0007d2e6       ___acrt_fp_format          0047e2e6 f   libucrt:cvt.obj
 0001:0007d462       __fputwc_nolock            0047e462 f   libucrt:fputwc.obj
 0001:0007d588       ___acrt_initialize_stdio   0047e588 f   libucrt:_file.obj
 0001:0007d650       ___acrt_iob_func           0047e650 f   libucrt:_file.obj
 0001:0007d660       ___acrt_uninitialize_stdio 0047e660 f   libucrt:_file.obj
 0001:0007d6ac       __lock_file                0047e6ac f   libucrt:_file.obj
 0001:0007d6c0       __unlock_file              0047e6c0 f   libucrt:_file.obj
 0001:0007d6d4       __fputc_nolock             0047e6d4 f   libucrt:fputc.obj
 0001:0007d6fd       __get_printf_count_output  0047e6fd f   libucrt:printf_count_output.obj
 0001:0007d712       ___acrt_stdio_begin_temporary_buffering_nolock 0047e712 f   libucrt:_sftbuf.obj
 0001:0007d7c7       ___acrt_stdio_end_temporary_buffering_nolock 0047e7c7 f   libucrt:_sftbuf.obj
 0001:0007d96c       ___acrt_initialize_lowio   0047e96c f   libucrt:ioinit.obj
 0001:0007d9c2       ___acrt_uninitialize_lowio 0047e9c2 f   libucrt:ioinit.obj
 0001:0007da34       ??$?RV<lambda_9227be29367c048ad7fd93a717dcb1a1>@@AAV<lambda_a463b7b0560cfcaf9b17f27c6ef46564>@@V<lambda_ccea11b5727ccf69be64f5f5d9a08d9f>@@@?$__crt_seh_guarded_call@H@@QAEH$$QAV<lambda_9227be29367c048ad7fd93a717dcb1a1>@@AAV<lambda_a463b7b0560cfcaf9b17f27c6ef46564>@@$$QAV<lambda_ccea11b5727ccf69be64f5f5d9a08d9f>@@@Z 0047ea34 f i libucrt:winapi_thunks.obj
 0001:0007dab8       ??$__acrt_lock_and_call@V<lambda_a463b7b0560cfcaf9b17f27c6ef46564>@@@@YAHW4__acrt_lock_id@@$$QAV<lambda_a463b7b0560cfcaf9b17f27c6ef46564>@@@Z 0047eab8 f i libucrt:winapi_thunks.obj
 0001:0007dc11       ___acrt_AreFileApisANSI@0  0047ec11 f   libucrt:winapi_thunks.obj
 0001:0007dc5f       ___acrt_CompareStringEx@36 0047ec5f f   libucrt:winapi_thunks.obj
 0001:0007dcd3       ___acrt_EnumSystemLocalesEx@16 0047ecd3 f   libucrt:winapi_thunks.obj
 0001:0007dd40       ___acrt_FlsAlloc@4         0047ed40 f   libucrt:winapi_thunks.obj
 0001:0007dd96       ___acrt_FlsFree@4          0047ed96 f   libucrt:winapi_thunks.obj
 0001:0007ddec       ___acrt_FlsGetValue@4      0047edec f   libucrt:winapi_thunks.obj
 0001:0007de42       ___acrt_FlsSetValue@8      0047ee42 f   libucrt:winapi_thunks.obj
 0001:0007de9b       ___acrt_GetFileInformationByHandleEx@16 0047ee9b f   libucrt:winapi_thunks.obj
 0001:0007defe       ___acrt_GetLocaleInfoEx@16 0047eefe f   libucrt:winapi_thunks.obj
 0001:0007df68       ___acrt_GetSystemTimePreciseAsFileTime@4 0047ef68 f   libucrt:winapi_thunks.obj
 0001:0007dfbe       ___acrt_GetUserDefaultLocaleName@8 0047efbe f   libucrt:winapi_thunks.obj
 0001:0007e025       ___acrt_InitializeCriticalSectionEx@12 0047f025 f   libucrt:winapi_thunks.obj
 0001:0007e087       ___acrt_IsValidLocaleName@4 0047f087 f   libucrt:winapi_thunks.obj
 0001:0007e0ea       ___acrt_LCIDToLocaleName@16 0047f0ea f   libucrt:winapi_thunks.obj
 0001:0007e154       ___acrt_LCMapStringEx@36   0047f154 f   libucrt:winapi_thunks.obj
 0001:0007e1dc       ___acrt_LocaleNameToLCID@8 0047f1dc f   libucrt:winapi_thunks.obj
 0001:0007e238       ___acrt_RoInitialize@4     0047f238 f   libucrt:winapi_thunks.obj
 0001:0007e28a       ___acrt_RoUninitialize@0   0047f28a f   libucrt:winapi_thunks.obj
 0001:0007e2d3       ___acrt_can_use_vista_locale_apis 0047f2d3 f   libucrt:winapi_thunks.obj
 0001:0007e2df       ___acrt_initialize_winapi_thunks 0047f2df f   libucrt:winapi_thunks.obj
 0001:0007e305       ___acrt_is_packaged_app    0047f305 f   libucrt:winapi_thunks.obj
 0001:0007e38c       ___acrt_uninitialize_winapi_thunks 0047f38c f   libucrt:winapi_thunks.obj
 0001:0007e3c2       ___acrt_copy_path_to_wide_string 0047f3c2 f   libucrt:string_utilities.obj
 0001:0007e489       ___acrt_copy_to_char       0047f489 f   libucrt:string_utilities.obj
 0001:0007e545       ?__acrt_stdio_allocate_stream@@YA?AV__crt_stdio_stream@@XZ 0047f545 f   libucrt:stream.obj
 0001:0007e5a4       ?__acrt_stdio_free_stream@@YAXV__crt_stdio_stream@@@Z 0047f5a4 f   libucrt:stream.obj
 0001:0007e6a2       ___acrt_stdio_free_buffer_nolock 0047f6a2 f   libucrt:_freebuf.obj
 0001:0007e6e0       ??$__acrt_stdio_parse_mode@D@@YA?AU__acrt_stdio_stream_mode@@QBD@Z 0047f6e0 f i libucrt:openfile.obj
 0001:0007e997       ?__acrt_stdio_parse_mode_D@@YA_NAAU__acrt_stdio_stream_mode@@@Z 0047f997 f i libucrt:openfile.obj
 0001:0007e9b2       ?__acrt_stdio_parse_mode_T@@YA_NAAU__acrt_stdio_stream_mode@@@Z 0047f9b2 f i libucrt:openfile.obj
 0001:0007e9d1       ?__acrt_stdio_parse_mode_b@@YA_NAAU__acrt_stdio_stream_mode@@@Z 0047f9d1 f i libucrt:openfile.obj
 0001:0007e9f1       ?__acrt_stdio_parse_mode_c@@YA_NAAU__acrt_stdio_stream_mode@@AA_N@Z 0047f9f1 f i libucrt:openfile.obj
 0001:0007ea13       ?__acrt_stdio_parse_mode_n@@YA_NAAU__acrt_stdio_stream_mode@@AA_N@Z 0047fa13 f i libucrt:openfile.obj
 0001:0007ea35       ?__acrt_stdio_parse_mode_plus@@YA_NAAU__acrt_stdio_stream_mode@@AA_N@Z 0047fa35 f i libucrt:openfile.obj
 0001:0007ea6a       ?__acrt_stdio_parse_mode_t@@YA_NAAU__acrt_stdio_stream_mode@@@Z 0047fa6a f i libucrt:openfile.obj
 0001:0007ea8a       __openfile                 0047fa8a f   libucrt:openfile.obj
 0001:0007ea95       __wremove                  0047fa95 f   libucrt:wunlink.obj
 0001:0007eabd       __msize                    0047fabd f   libucrt:msize.obj
 0001:0007eaf0       __fwrite_nolock            0047faf0 f   libucrt:fwrite.obj
 0001:0007ec69       _iswctype                  0047fc69 f   libucrt:iswctype.obj
 0001:0007ecc8       _fegetround                0047fcc8 f   libucrt:fegetround.obj
 0001:0007ecd3       __isatty                   0047fcd3 f   libucrt:isatty.obj
 0001:0007eeac       __lseeki64                 0047feac f   libucrt:lseek.obj
 0001:0007eec7       __lseeki64_nolock          0047fec7 f   libucrt:lseek.obj
 0001:0007eee2       __putwch_nolock            0047fee2 f   libucrt:putwch.obj
 0001:0007ef27       __chsize_nolock            0047ff27 f   libucrt:chsize.obj
 0001:0007f5a0       __read                     004805a0 f   libucrt:read.obj
 0001:0007f6b3       __read_nolock              004806b3 f   libucrt:read.obj
 0001:0007fa68       __towlower_l               00480a68 f   libucrt:towlower.obj
 0001:0007fb31       ??$?RV<lambda_61cee617f5178ae960314fd4d05640a0>@@AAV<lambda_6978c1fb23f02e42e1d9e99668cc68aa>@@V<lambda_9cd88cf8ad10232537feb2133f08c833>@@@?$__crt_seh_guarded_call@H@@QAEH$$QAV<lambda_61cee617f5178ae960314fd4d05640a0>@@AAV<lambda_6978c1fb23f02e42e1d9e99668cc68aa>@@$$QAV<lambda_9cd88cf8ad10232537feb2133f08c833>@@@Z 00480b31 f i libucrt:commit.obj
 0001:0007fbc9       ??$__acrt_lowio_lock_fh_and_call@V<lambda_6978c1fb23f02e42e1d9e99668cc68aa>@@@@YAHH$$QAV<lambda_6978c1fb23f02e42e1d9e99668cc68aa>@@@Z 00480bc9 f i libucrt:commit.obj
 0001:0007fbf1       __commit                   00480bf1 f   libucrt:commit.obj
 0001:0007fc60       ___libm_error_support      00480c60 f   libucrt:libm_error.obj
 0001:0007fe78       ___acrt_initialize_sse2    00480e78 f   libucrt:mathfcns.obj
 0001:0007fe87       __ceil_default             00480e87 f   libucrt:ceil.obj
 0001:0007ff40       __floor_default            00480f40 f   libucrt:floor.obj
 0001:00080026       __getdrive                 00481026 f   libucrt:drive.obj
 0001:000801aa       __wfullpath                004811aa f   libucrt:fullpath.obj
 0001:00080200       _wcspbrk                   00481200 f   libucrt:wcspbrk.obj
 0001:00080245       ??$__crt_time_elapsed_leap_years@H@@YAHH@Z 00481245 f i libucrt:loctotime.obj
 0001:00080461       ?__crt_time_is_day_valid@@YA_NHHH@Z 00481461 f i libucrt:loctotime.obj
 0001:000804a8       ___loctotime64_t           004814a8 f   libucrt:loctotime.obj
 0001:00080634       ___acrt_stdio_refill_and_read_narrow_nolock 00481634 f   libucrt:_filbuf.obj
 0001:0008063f       ___acrt_initialize_heap    0048163f f   libucrt:heap_handle.obj
 0001:00080650       ___acrt_uninitialize_heap  00481650 f   libucrt:heap_handle.obj
 0001:00080755       ___acrt_GetLocaleInfoA     00481755 f   libucrt:getlocaleinfoa.obj
 0001:00080907       ___acrt_GetStringTypeA     00481907 f   libucrt:getstringtypea.obj
 0001:00080b9d       __mbstowcs_s_l             00481b9d f   libucrt:mbstowcs.obj
 0001:00080c80       _mbstowcs_s                00481c80 f   libucrt:mbstowcs.obj
 0001:00080f21       __wcstombs_s_l             00481f21 f   libucrt:wcstombs.obj
 0001:00080fee       ??$?RV<lambda_a048d3beccc847880fc8490e18b82769>@@AAV<lambda_ec61778202f4f5fc7e7711acc23c3bca>@@V<lambda_f7496a158712204296dd6628a163878e>@@@?$__crt_seh_guarded_call@P6AXH@Z@@QAEP6AXH@Z$$QAV<lambda_a048d3beccc847880fc8490e18b82769>@@AAV<lambda_ec61778202f4f5fc7e7711acc23c3bca>@@$$QAV<lambda_f7496a158712204296dd6628a163878e>@@@Z 00481fee f i libucrt:signal.obj
 0001:00081048       ??$__acrt_lock_and_call@V<lambda_ec61778202f4f5fc7e7711acc23c3bca>@@@@YAP6AXH@ZW4__acrt_lock_id@@$$QAV<lambda_ec61778202f4f5fc7e7711acc23c3bca>@@@Z 00482048 f i libucrt:signal.obj
 0001:000810da       ___acrt_get_sigabrt_handler 004820da f   libucrt:signal.obj
 0001:000810f1       ___acrt_initialize_signal_handlers 004820f1 f   libucrt:signal.obj
 0001:0008112c       ___fpecode                 0048212c f   libucrt:signal.obj
 0001:00081135       _raise                     00482135 f   libucrt:signal.obj
 0001:0008133d       __fpclass                  0048233d f   libucrt:ieeemisc.obj
 0001:000813f0       __CIpow_pentium4           004823f0 f   libucrt:pow_pentium4.obj
 0001:00081409       __pow_pentium4             00482409     libucrt:pow_pentium4.obj
 0001:00081f21       __fFEXP                    00482f21     libucrt:87tran.obj
 0001:00081f78       __rtinfpopse               00482f78     libucrt:87tran.obj
 0001:00081f7a       __rtinfnpopse              00482f7a     libucrt:87tran.obj
 0001:00081f8a       __fFLN                     00482f8a     libucrt:87tran.obj
 0001:0008203f       __rtinfpop                 0048303f     libucrt:87tran.obj
 0001:00082041       __rtinfnpop                00483041     libucrt:87tran.obj
 0001:0008205e       __ffexpm1                  0048305e     libucrt:87tran.obj
 0001:00082110       __trandisp1                00483110 f   libucrt:87disp.obj
 0001:00082177       __trandisp2                00483177 f   libucrt:87disp.obj
 0001:00082203       __rttospopde               00483203     libucrt:87disp.obj
 0001:00082208       __rttospop                 00483208     libucrt:87disp.obj
 0001:0008220a       __rtnospop                 0048320a     libucrt:87disp.obj
 0001:0008220c       __rttosnpop                0048320c     libucrt:87disp.obj
 0001:0008220d       __rtnospopde               0048320d     libucrt:87disp.obj
 0001:00082214       __rtzeropop                00483214     libucrt:87disp.obj
 0001:00082216       __rtzeronpop               00483216     libucrt:87disp.obj
 0001:0008221b       __rtzerospop               0048321b     libucrt:87disp.obj
 0001:00082228       __rtonepop                 00483228     libucrt:87disp.obj
 0001:0008222a       __rtonenpop                0048322a     libucrt:87disp.obj
 0001:0008222f       __tosnan1                  0048322f     libucrt:87disp.obj
 0001:0008225a       __nosnan2                  0048325a     libucrt:87disp.obj
 0001:0008225c       __tosnan2                  0048325c     libucrt:87disp.obj
 0001:00082284       __nan2                     00483284     libucrt:87disp.obj
 0001:000822c3       __rtindfpop                004832c3     libucrt:87disp.obj
 0001:000822c5       __rtindfnpop               004832c5     libucrt:87disp.obj
 0001:000822d6       __rttosnpopde              004832d6     libucrt:87disp.obj
 0001:000822e0       __rtatan2inf               004832e0     libucrt:87disp.obj
 0001:000822fd       __rtchsifneg               004832fd     libucrt:87disp.obj
 0001:00082310       __startTwoArgErrorHandling 00483310 f   libucrt:genexcep.obj
 0001:00082327       __startOneArgErrorHandling 00483327 f   libucrt:genexcep.obj
 0001:00082370       __twoToTOS                 00483370 f   libucrt:common.obj
 0001:00082385       __load_CW                  00483385 f   libucrt:common.obj
 0001:0008239c       __convertTOStoQNaN         0048339c f   libucrt:common.obj
 0001:000823b5       __fload_withFB             004833b5 f   libucrt:common.obj
 0001:000823f8       __checkTOS_withFB          004833f8 f   libucrt:common.obj
 0001:0008240e       __fast_exit                0048340e f   libucrt:common.obj
 0001:0008241b       __math_exit                0048341b f   libucrt:common.obj
 0001:00082445       __check_overflow_exit      00483445 f   libucrt:common.obj
 0001:00082459       __check_range_exit         00483459 f   libucrt:common.obj
 0001:000824fc       __d_inttype                004834fc f   libucrt:powhlp.obj
 0001:00082566       __powhlp                   00483566 f   libucrt:powhlp.obj
 0001:00082691       ___acrt_initialize_timeset 00483691 f   libucrt:timeset.obj
 0001:000826c8       ___daylight                004836c8 f   libucrt:timeset.obj
 0001:000826ce       ___dstbias                 004836ce f   libucrt:timeset.obj
 0001:000826d4       ___timezone                004836d4 f   libucrt:timeset.obj
 0001:000826da       ___tzname                  004836da f   libucrt:timeset.obj
 0001:000826e0       __get_daylight             004836e0 f   libucrt:timeset.obj
 0001:0008270c       __get_dstbias              0048370c f   libucrt:timeset.obj
 0001:00082738       __get_timezone             00483738 f   libucrt:timeset.obj
 0001:00082eab       ___tzset                   00483eab f   libucrt:tzset.obj
 0001:00082efc       __isindst                  00483efc f   libucrt:tzset.obj
 0001:00083308       ??1?$argument_list@D@?A0xb0e4b824@@QAE@XZ 00484308 f i libucrt:argv_wildcards.obj
 0001:0008332d       ?append@?$argument_list@D@?A0xb0e4b824@@QAEHQAD@Z 0048432d f i libucrt:argv_wildcards.obj
 0001:00083362       ?expand_if_necessary@?$argument_list@D@?A0xb0e4b824@@AAEHXZ 00484362 f i libucrt:argv_wildcards.obj
 0001:000833e9       ___acrt_expand_narrow_argv_wildcards 004843e9 f   libucrt:argv_wildcards.obj
 0001:000833f4       ??$?RV<lambda_978dc153c237d78434369da87b74ff60>@@AAV<lambda_ad1ced32f4ac17aa236e5ef05d6b3b7c>@@V<lambda_4a8533e2866a575feecb8298ce776b0d>@@@?$__crt_seh_guarded_call@X@@QAEX$$QAV<lambda_978dc153c237d78434369da87b74ff60>@@AAV<lambda_ad1ced32f4ac17aa236e5ef05d6b3b7c>@@$$QAV<lambda_4a8533e2866a575feecb8298ce776b0d>@@@Z 004843f4 f i libucrt:mbctype.obj
 0001:00083437       ??$__acrt_lock_and_call@V<lambda_ad1ced32f4ac17aa236e5ef05d6b3b7c>@@@@YAXW4__acrt_lock_id@@$$QAV<lambda_ad1ced32f4ac17aa236e5ef05d6b3b7c>@@@Z 00484437 f i libucrt:mbctype.obj
 0001:000838ce       ___acrt_initialize_multibyte 004848ce f   libucrt:mbctype.obj
 0001:000838ec       ___acrt_update_thread_multibyte_data 004848ec f   libucrt:mbctype.obj
 0001:0008398e       __setmbcp_nolock           0048498e f   libucrt:mbctype.obj
 0001:00083b7f       ___acrt_initialize_command_line 00484b7f f   libucrt:argv_data.obj
 0001:00083bcf       ___dcrt_get_narrow_environment_from_os 00484bcf f   libucrt:get_environment_from_os.obj
 0001:00083f92       ___dcrt_set_variable_in_narrow_environment_nolock 00484f92 f   libucrt:setenv.obj
 0001:00083f9d       ___acrt_execute_initializers 00484f9d f   libucrt:shared_initialization.obj
 0001:00084020       ___acrt_execute_uninitializers 00485020 f   libucrt:shared_initialization.obj
 0001:0008406d       _wcscat_s                  0048506d f   libucrt:wcscat_s.obj
 0001:000841af       _wcsncpy_s                 004851af f   libucrt:wcsncpy_s.obj
 0001:000841ba       ___acrt_locale_free_monetary 004851ba f   libucrt:initmon.obj
 0001:000842b8       ___acrt_locale_initialize_monetary 004852b8 f   libucrt:initmon.obj
 0001:00084674       ___acrt_locale_free_numeric 00485674 f   libucrt:initnum.obj
 0001:000846dd       ___acrt_locale_initialize_numeric 004856dd f   libucrt:initnum.obj
 0001:00084bb2       ___acrt_locale_free_time   00485bb2 f   libucrt:inittime.obj
 0001:00084c96       ___acrt_locale_initialize_time 00485c96 f   libucrt:inittime.obj
 0001:00084d15       _wcscspn                   00485d15 f   libucrt:wcscspn.obj
 0001:00084d65       _wcsncmp                   00485d65 f   libucrt:wcsncmp.obj
 0001:00084d9f       ___acrt_add_locale_ref     00485d9f f   libucrt:locale_refcounting.obj
 0001:00084e1c       ___acrt_free_locale        00485e1c f   libucrt:locale_refcounting.obj
 0001:00084f66       ___acrt_locale_add_lc_time_reference 00485f66 f   libucrt:locale_refcounting.obj
 0001:00084f8f       ___acrt_locale_free_lc_time_if_unreferenced 00485f8f f   libucrt:locale_refcounting.obj
 0001:00084fbf       ___acrt_locale_release_lc_time_reference 00485fbf f   libucrt:locale_refcounting.obj
 0001:00084fe8       ___acrt_release_locale_ref 00485fe8 f   libucrt:locale_refcounting.obj
 0001:00085069       ___acrt_update_thread_locale_data 00486069 f   libucrt:locale_refcounting.obj
 0001:000850e0       __updatetlocinfoEx_nolock  004860e0 f   libucrt:locale_refcounting.obj
 0001:0008582e       ___acrt_get_qualified_locale 0048682e f   libucrt:get_qualified_locale.obj
 0001:00086166       ___acrt_get_qualified_locale_downlevel 00487166 f   libucrt:getqloc_downlevel.obj
 0001:00086418       __clearfp                  00487418 f   libucrt:ieee87.obj
 0001:000864f6       __control87                004874f6 f   libucrt:ieee87.obj
 0001:00086891       ___acrt_fp_strflt_to_string 00487891 f   libucrt:_fptostr.obj
 0001:0008694d       ??0scoped_fp_state_reset@?A0x48fbfdd4@@QAE@XZ 0048794d f i libucrt:cfout.obj
 0001:00086977       ___acrt_fltout             00487977 f   libucrt:cfout.obj
 0001:0008815a       ___acrt_stdio_flush_and_write_narrow_nolock 0048915a f   libucrt:_flsbuf.obj
 0001:00088165       ___acrt_stdio_flush_and_write_wide_nolock 00489165 f   libucrt:_flsbuf.obj
 0001:00088170       __fcloseall                00489170 f   libucrt:closeall.obj
 0001:000882cc       ___acrt_DownlevelLCIDToLocaleName 004892cc f   libucrt:lcidtoname_downlevel.obj
 0001:00088376       ___acrt_DownlevelLocaleNameToLCID 00489376 f   libucrt:lcidtoname_downlevel.obj
 0001:000883a2       __wcsnicmp                 004893a2 f   libucrt:wcsnicmp.obj
 0001:0008845a       __wcsnicmp_l               0048945a f   libucrt:wcsnicmp.obj
 0001:0008855b       __strnicmp                 0048955b f   libucrt:strnicmp.obj
 0001:000885c7       __strnicmp_l               004895c7 f   libucrt:strnicmp.obj
 0001:0008867e       ___acrt_stdio_allocate_buffer_nolock 0048967e f   libucrt:_getbuf.obj
 0001:0008897e       __getfpcontrolword         0048997e f   libucrt:_fenvutils.obj
 0001:000889c1       __getfpstatusword          004899c1 f   libucrt:_fenvutils.obj
 0001:00088a69       __setfpcontrolword         00489a69 f   libucrt:_fenvutils.obj
 0001:00088ae9       __setfpstatusword          00489ae9 f   libucrt:_fenvutils.obj
 0001:00088b69       ___dcrt_lowio_initialize_console_output 00489b69 f   libucrt:initcon.obj
 0001:00088b88       ___dcrt_terminate_console_output 00489b88 f   libucrt:initcon.obj
 0001:00088b9f       ___acrt_LCMapStringW       00489b9f f   libucrt:lcmapstringw.obj
 0001:00088bdd       __frnd                     00489bdd f   libucrt:frnd.obj
 0001:00088e39       __wgetcwd                  00489e39 f   libucrt:getcwd.obj
 0001:00088f06       _strncpy_s                 00489f06 f   libucrt:strncpy_s.obj
 0001:00088f11       __87except                 00489f11 f   libucrt:87except.obj
 0001:00089189       _getenv_s                  0048a189 f   libucrt:getenv.obj
 0001:00089280       _qsort                     0048a280 f   libucrt:qsort.obj
 0001:00089620       _strpbrk                   0048a620 f   libucrt:strpbrk.obj
 0001:00089660       __mbsdec                   0048a660 f   libucrt:mbsdec.obj
 0001:00089677       __mbsdec_l                 0048a677 f   libucrt:mbsdec.obj
 0001:00089713       __strnicoll                0048a713 f   libucrt:strnicol.obj
 0001:0008973c       __strnicoll_l              0048a73c f   libucrt:strnicol.obj
 0001:000898f3       __itow_s                   0048a8f3 f   libucrt:xtoa.obj
 0001:00089928       _fegetenv                  0048a928 f   libucrt:fegetenv.obj
 0001:00089945       _fesetenv                  0048a945 f   libucrt:fesetenv.obj
 0001:0008998e       _feholdexcept              0048a98e f   libucrt:feholdexcept.obj
 0001:000899e0       _log10                     0048a9e0 f   libucrt:log10.obj
 0001:00089a20       __CIlog10                  0048aa20 f   libucrt:log10.obj
 0001:00089a5b       __CIlog10_default          0048aa5b f   libucrt:log10.obj
 0001:00089a6f       __log10_default            0048aa6f     libucrt:log10.obj
 0001:00089b30       ___ascii_strnicmp          0048ab30 f   libucrt:_strnicm.obj
 0001:00089e39       ___acrt_CompareStringA     0048ae39 f   libucrt:comparestringa.obj
 0001:00089e90       __CIlog10_pentium4         0048ae90 f   libucrt:log10_pentium4.obj
 0001:00089ea8       __log10_pentium4           0048aea8     libucrt:log10_pentium4.obj
 0001:0008a120       _IsProcessorFeaturePresent@4 0048b120 f   kernel32:KERNEL32.dll
 0001:0008a126       _RtlUnwind@16              0048b126 f   kernel32:KERNEL32.dll
 0001:0008a130       __FindPESection            0048b130 f   LIBCMT:pesect.obj
 0001:0008a180       __IsNonwritableInCurrentImage 0048b180 f   LIBCMT:pesect.obj
 0001:0008a240       __ValidateImageBase        0048b240 f   LIBCMT:pesect.obj
 0001:0008a280       __aulldvrm                 0048b280 f   LIBCMT:ulldvrm.obj
 0001:0008a320       __SEH_prolog4_GS           0048b320 f   LIBCMT:_sehprolg4gs_.obj
 0001:0008a369       __SEH_epilog4_GS           0048b369 f   LIBCMT:_sehprolg4gs_.obj
 0001:0008a380       __allshl                   0048b380 f   LIBCMT:llshl.obj
 0001:0008a3a0       __alldvrm                  0048b3a0 f   LIBCMT:lldvrm.obj
 0001:0008a480       __ftol2_sse                0048b480 f   LIBCMT:_ftol2_.obj
 0001:0008a489       __ftol2_pentium4           0048b489 f   LIBCMT:_ftol2_.obj
 0001:0008a49c       __ftol2_sse_excpt          0048b49c f   LIBCMT:_ftol2_.obj
 0001:0008a4c0       __ftol2                    0048b4c0 f   LIBCMT:_ftol2_.obj
 0001:0008a535       _wcschr                    0048b535 f   libvcruntime:wcschr.obj
 0001:0008e7a0       ??__F_Static@?1???$_Immortalize@V_Iostream_error_category@std@@@std@@YAAAV_Iostream_error_category@0@XZ@YAXXZ 0048f7a0 f i BootEncryption.obj
 0002:00000000       __imp__RegSetValueExA@24   00490000     advapi32:ADVAPI32.dll
 0002:00000004       __imp__RegDeleteValueA@8   00490004     advapi32:ADVAPI32.dll
 0002:00000008       __imp__RegDeleteKeyA@8     00490008     advapi32:ADVAPI32.dll
 0002:0000000c       __imp__RegCreateKeyExA@36  0049000c     advapi32:ADVAPI32.dll
 0002:00000010       __imp__CryptGenRandom@12   00490010     advapi32:ADVAPI32.dll
 0002:00000014       __imp__CryptReleaseContext@8 00490014     advapi32:ADVAPI32.dll
 0002:00000018       __imp__CryptAcquireContextA@20 00490018     advapi32:ADVAPI32.dll
 0002:0000001c       __imp__StartServiceA@12    0049001c     advapi32:ADVAPI32.dll
 0002:00000020       __imp__QueryServiceStatus@8 00490020     advapi32:ADVAPI32.dll
 0002:00000024       __imp__ControlService@12   00490024     advapi32:ADVAPI32.dll
 0002:00000028       __imp__RegEnumKeyExA@32    00490028     advapi32:ADVAPI32.dll
 0002:0000002c       __imp__IsWellKnownSid@8    0049002c     advapi32:ADVAPI32.dll
 0002:00000030       __imp__GetTokenInformation@20 00490030     advapi32:ADVAPI32.dll
 0002:00000034       __imp__OpenProcessToken@12 00490034     advapi32:ADVAPI32.dll
 0002:00000038       __imp__StartServiceCtrlDispatcherA@4 00490038     advapi32:ADVAPI32.dll
 0002:0000003c       __imp__SetServiceStatus@8  0049003c     advapi32:ADVAPI32.dll
 0002:00000040       __imp__RegisterServiceCtrlHandlerA@8 00490040     advapi32:ADVAPI32.dll
 0002:00000044       __imp__ReportEventA@36     00490044     advapi32:ADVAPI32.dll
 0002:00000048       __imp__RegisterEventSourceA@8 00490048     advapi32:ADVAPI32.dll
 0002:0000004c       __imp__DeregisterEventSource@4 0049004c     advapi32:ADVAPI32.dll
 0002:00000050       __imp__OpenServiceA@12     00490050     advapi32:ADVAPI32.dll
 0002:00000054       __imp__OpenSCManagerA@12   00490054     advapi32:ADVAPI32.dll
 0002:00000058       __imp__DeleteService@4     00490058     advapi32:ADVAPI32.dll
 0002:0000005c       __imp__CreateServiceA@52   0049005c     advapi32:ADVAPI32.dll
 0002:00000060       __imp__RegCloseKey@4       00490060     advapi32:ADVAPI32.dll
 0002:00000064       __imp__RegOpenKeyExA@20    00490064     advapi32:ADVAPI32.dll
 0002:00000068       __imp__RegQueryValueExA@24 00490068     advapi32:ADVAPI32.dll
 0002:0000006c       __imp__ChangeServiceConfigA@44 0049006c     advapi32:ADVAPI32.dll
 0002:00000070       __imp__ChangeServiceConfig2A@12 00490070     advapi32:ADVAPI32.dll
 0002:00000074       __imp__CloseServiceHandle@4 00490074     advapi32:ADVAPI32.dll
 0002:00000078       \177ADVAPI32_NULL_THUNK_DATA 00490078     advapi32:ADVAPI32.dll
 0002:0000007c       __imp__ImageList_Add@12    0049007c     comctl32:COMCTL32.dll
 0002:00000080       __imp__ImageList_Create@20 00490080     comctl32:COMCTL32.dll
 0002:00000084       __imp__InitCommonControls@0 00490084     comctl32:COMCTL32.dll
 0002:00000088       \177COMCTL32_NULL_THUNK_DATA 00490088     comctl32:COMCTL32.dll
 0002:0000008c       __imp__GetOpenFileNameW@4  0049008c     comdlg32:COMDLG32.dll
 0002:00000090       __imp__GetSaveFileNameW@4  00490090     comdlg32:COMDLG32.dll
 0002:00000094       \177COMDLG32_NULL_THUNK_DATA 00490094     comdlg32:COMDLG32.dll
 0002:00000098       __imp__SetStretchBltMode@8 00490098     gdi32:GDI32.dll
 0002:0000009c       __imp__StretchBlt@44       0049009c     gdi32:GDI32.dll
 0002:000000a0       __imp__SetMapMode@8        004900a0     gdi32:GDI32.dll
 0002:000000a4       __imp__SelectObject@8      004900a4     gdi32:GDI32.dll
 0002:000000a8       __imp__LineTo@12           004900a8     gdi32:GDI32.dll
 0002:000000ac       __imp__GetTextExtentPoint32W@16 004900ac     gdi32:GDI32.dll
 0002:000000b0       __imp__GetTextMetricsA@8   004900b0     gdi32:GDI32.dll
 0002:000000b4       __imp__GetDeviceCaps@8     004900b4     gdi32:GDI32.dll
 0002:000000b8       __imp__GetCurrentObject@8  004900b8     gdi32:GDI32.dll
 0002:000000bc       __imp__DeleteDC@4          004900bc     gdi32:GDI32.dll
 0002:000000c0       __imp__CreatePen@12        004900c0     gdi32:GDI32.dll
 0002:000000c4       __imp__CreateFontIndirectW@4 004900c4     gdi32:GDI32.dll
 0002:000000c8       __imp__CreateCompatibleDC@4 004900c8     gdi32:GDI32.dll
 0002:000000cc       __imp__CreateCompatibleBitmap@12 004900cc     gdi32:GDI32.dll
 0002:000000d0       __imp__BitBlt@36           004900d0     gdi32:GDI32.dll
 0002:000000d4       __imp__GetObjectA@12       004900d4     gdi32:GDI32.dll
 0002:000000d8       __imp__MoveToEx@16         004900d8     gdi32:GDI32.dll
 0002:000000dc       __imp__GetStockObject@4    004900dc     gdi32:GDI32.dll
 0002:000000e0       __imp__DeleteObject@4      004900e0     gdi32:GDI32.dll
 0002:000000e4       \177GDI32_NULL_THUNK_DATA  004900e4     gdi32:GDI32.dll
 0002:000000e8       __imp__CreateMutexA@12     004900e8     kernel32:KERNEL32.dll
 0002:000000ec       __imp__GetExitCodeProcess@8 004900ec     kernel32:KERNEL32.dll
 0002:000000f0       __imp__CreateProcessA@40   004900f0     kernel32:KERNEL32.dll
 0002:000000f4       __imp__GetSystemTime@4     004900f4     kernel32:KERNEL32.dll
 0002:000000f8       __imp__GetSystemInfo@4     004900f8     kernel32:KERNEL32.dll
 0002:000000fc       __imp__GetTickCount@0      004900fc     kernel32:KERNEL32.dll
 0002:00000100       __imp__GetWindowsDirectoryA@8 00490100     kernel32:KERNEL32.dll
 0002:00000104       __imp__VirtualLock@8       00490104     kernel32:KERNEL32.dll
 0002:00000108       __imp__FreeLibrary@4       00490108     kernel32:KERNEL32.dll
 0002:0000010c       __imp__GetProcAddress@8    0049010c     kernel32:KERNEL32.dll
 0002:00000110       __imp__LoadLibraryA@4      00490110     kernel32:KERNEL32.dll
 0002:00000114       __imp__MoveFileA@8         00490114     kernel32:KERNEL32.dll
 0002:00000118       __imp__SystemTimeToFileTime@8 00490118     kernel32:KERNEL32.dll
 0002:0000011c       __imp__SetVolumeMountPointA@8 0049011c     kernel32:KERNEL32.dll
 0002:00000120       __imp__DeleteVolumeMountPointA@4 00490120     kernel32:KERNEL32.dll
 0002:00000124       __imp__GetVolumeNameForVolumeMountPointA@12 00490124     kernel32:KERNEL32.dll
 0002:00000128       __imp__LocalFree@4         00490128     kernel32:KERNEL32.dll
 0002:0000012c       __imp__VirtualUnlock@8     0049012c     kernel32:KERNEL32.dll
 0002:00000130       __imp__SetCurrentDirectoryA@4 00490130     kernel32:KERNEL32.dll
 0002:00000134       __imp__GetCurrentDirectoryA@8 00490134     kernel32:KERNEL32.dll
 0002:00000138       __imp__FlushFileBuffers@4  00490138     kernel32:KERNEL32.dll
 0002:0000013c       __imp__GetDiskFreeSpaceA@20 0049013c     kernel32:KERNEL32.dll
 0002:00000140       __imp__GetFileAttributesA@4 00490140     kernel32:KERNEL32.dll
 0002:00000144       __imp__GetFileInformationByHandle@8 00490144     kernel32:KERNEL32.dll
 0002:00000148       __imp__GetFileSize@8       00490148     kernel32:KERNEL32.dll
 0002:0000014c       __imp__GetVolumeInformationW@32 0049014c     kernel32:KERNEL32.dll
 0002:00000150       __imp__SetFilePointer@16   00490150     kernel32:KERNEL32.dll
 0002:00000154       __imp__UnhandledExceptionFilter@4 00490154     kernel32:KERNEL32.dll
 0002:00000158       __imp__SetUnhandledExceptionFilter@4 00490158     kernel32:KERNEL32.dll
 0002:0000015c       __imp__SetErrorMode@4      0049015c     kernel32:KERNEL32.dll
 0002:00000160       __imp__QueryPerformanceCounter@4 00490160     kernel32:KERNEL32.dll
 0002:00000164       __imp__QueryPerformanceFrequency@4 00490164     kernel32:KERNEL32.dll
 0002:00000168       __imp__ReleaseMutex@4      00490168     kernel32:KERNEL32.dll
 0002:0000016c       __imp__GetCurrentProcess@0 0049016c     kernel32:KERNEL32.dll
 0002:00000170       __imp__GetCurrentProcessId@0 00490170     kernel32:KERNEL32.dll
 0002:00000174       __imp__GetCurrentThread@0  00490174     kernel32:KERNEL32.dll
 0002:00000178       __imp__GetVersionExA@4     00490178     kernel32:KERNEL32.dll
 0002:0000017c       __imp__VirtualQuery@12     0049017c     kernel32:KERNEL32.dll
 0002:00000180       __imp__GetModuleFileNameW@12 00490180     kernel32:KERNEL32.dll
 0002:00000184       __imp__GetModuleHandleA@4  00490184     kernel32:KERNEL32.dll
 0002:00000188       __imp__LoadLibraryExA@12   00490188     kernel32:KERNEL32.dll
 0002:0000018c       __imp__LoadResource@8      0049018c     kernel32:KERNEL32.dll
 0002:00000190       __imp__LockResource@4      00490190     kernel32:KERNEL32.dll
 0002:00000194       __imp__SizeofResource@8    00490194     kernel32:KERNEL32.dll
 0002:00000198       __imp__FormatMessageW@28   00490198     kernel32:KERNEL32.dll
 0002:0000019c       __imp__OpenMutexA@12       0049019c     kernel32:KERNEL32.dll
 0002:000001a0       __imp__FindResourceA@12    004901a0     kernel32:KERNEL32.dll
 0002:000001a4       __imp__DefineDosDeviceA@12 004901a4     kernel32:KERNEL32.dll
 0002:000001a8       __imp__SetEvent@4          004901a8     kernel32:KERNEL32.dll
 0002:000001ac       __imp__ResetEvent@4        004901ac     kernel32:KERNEL32.dll
 0002:000001b0       __imp__CreateEventA@16     004901b0     kernel32:KERNEL32.dll
 0002:000001b4       __imp__GetFileAttributesExA@12 004901b4     kernel32:KERNEL32.dll
 0002:000001b8       __imp__CreateFileW@28      004901b8     kernel32:KERNEL32.dll
 0002:000001bc       __imp__FindFirstFileW@8    004901bc     kernel32:KERNEL32.dll
 0002:000001c0       __imp__FindNextFileW@8     004901c0     kernel32:KERNEL32.dll
 0002:000001c4       __imp__GetProcessHeap@0    004901c4     kernel32:KERNEL32.dll
 0002:000001c8       __imp__InitializeCriticalSection@4 004901c8     kernel32:KERNEL32.dll
 0002:000001cc       __imp__EnterCriticalSection@4 004901cc     kernel32:KERNEL32.dll
 0002:000001d0       __imp__LeaveCriticalSection@4 004901d0     kernel32:KERNEL32.dll
 0002:000001d4       __imp__WaitForSingleObject@8 004901d4     kernel32:KERNEL32.dll
 0002:000001d8       __imp__GetThreadTimes@20   004901d8     kernel32:KERNEL32.dll
 0002:000001dc       __imp__GlobalMemoryStatus@4 004901dc     kernel32:KERNEL32.dll
 0002:000001e0       __imp__GetProcessWorkingSetSize@12 004901e0     kernel32:KERNEL32.dll
 0002:000001e4       __imp__GetStartupInfoA@4   004901e4     kernel32:KERNEL32.dll
 0002:000001e8       __imp__GetFullPathNameW@16 004901e8     kernel32:KERNEL32.dll
 0002:000001ec       __imp__GetCurrentDirectoryW@8 004901ec     kernel32:KERNEL32.dll
 0002:000001f0       __imp__ReadConsoleW@20     004901f0     kernel32:KERNEL32.dll
 0002:000001f4       __imp__SetEndOfFile@4      004901f4     kernel32:KERNEL32.dll
 0002:000001f8       __imp__WriteConsoleW@20    004901f8     kernel32:KERNEL32.dll
 0002:000001fc       __imp__HeapSize@12         004901fc     kernel32:KERNEL32.dll
 0002:00000200       __imp__DeleteFileW@4       00490200     kernel32:KERNEL32.dll
 0002:00000204       __imp__EnumSystemLocalesW@8 00490204     kernel32:KERNEL32.dll
 0002:00000208       __imp__GetUserDefaultLCID@0 00490208     kernel32:KERNEL32.dll
 0002:0000020c       __imp__IsValidLocale@8     0049020c     kernel32:KERNEL32.dll
 0002:00000210       __imp__GetACP@0            00490210     kernel32:KERNEL32.dll
 0002:00000214       __imp__GetStdHandle@4      00490214     kernel32:KERNEL32.dll
 0002:00000218       __imp__HeapReAlloc@16      00490218     kernel32:KERNEL32.dll
 0002:0000021c       __imp__HeapFree@12         0049021c     kernel32:KERNEL32.dll
 0002:00000220       __imp__HeapAlloc@12        00490220     kernel32:KERNEL32.dll
 0002:00000224       __imp__FindFirstFileExW@24 00490224     kernel32:KERNEL32.dll
 0002:00000228       __imp__FileTimeToSystemTime@8 00490228     kernel32:KERNEL32.dll
 0002:0000022c       __imp__SystemTimeToTzSpecificLocalTime@12 0049022c     kernel32:KERNEL32.dll
 0002:00000230       __imp__PeekNamedPipe@24    00490230     kernel32:KERNEL32.dll
 0002:00000234       __imp__GetDriveTypeW@4     00490234     kernel32:KERNEL32.dll
 0002:00000238       __imp__SetStdHandle@8      00490238     kernel32:KERNEL32.dll
 0002:0000023c       __imp__FreeLibraryAndExitThread@8 0049023c     kernel32:KERNEL32.dll
 0002:00000240       __imp__ResumeThread@4      00490240     kernel32:KERNEL32.dll
 0002:00000244       __imp__ExitThread@4        00490244     kernel32:KERNEL32.dll
 0002:00000248       __imp__CreateThread@24     00490248     kernel32:KERNEL32.dll
 0002:0000024c       __imp__GetFileType@4       0049024c     kernel32:KERNEL32.dll
 0002:00000250       __imp__GetConsoleMode@8    00490250     kernel32:KERNEL32.dll
 0002:00000254       __imp__GetConsoleCP@0      00490254     kernel32:KERNEL32.dll
 0002:00000258       __imp__GetModuleHandleExW@12 00490258     kernel32:KERNEL32.dll
 0002:0000025c       __imp__ExitProcess@4       0049025c     kernel32:KERNEL32.dll
 0002:00000260       __imp__GetFileAttributesExW@12 00490260     kernel32:KERNEL32.dll
 0002:00000264       __imp__LoadLibraryExW@12   00490264     kernel32:KERNEL32.dll
 0002:00000268       __imp__RtlUnwind@16        00490268     kernel32:KERNEL32.dll
 0002:0000026c       __imp__InitializeSListHead@4 0049026c     kernel32:KERNEL32.dll
 0002:00000270       __imp__GetStartupInfoW@4   00490270     kernel32:KERNEL32.dll
 0002:00000274       __imp__IsProcessorFeaturePresent@4 00490274     kernel32:KERNEL32.dll
 0002:00000278       __imp__TerminateProcess@8  00490278     kernel32:KERNEL32.dll
 0002:0000027c       __imp__WaitForSingleObjectEx@12 0049027c     kernel32:KERNEL32.dll
 0002:00000280       __imp__OutputDebugStringW@4 00490280     kernel32:KERNEL32.dll
 0002:00000284       __imp__IsDebuggerPresent@0 00490284     kernel32:KERNEL32.dll
 0002:00000288       __imp__GetCPInfo@8         00490288     kernel32:KERNEL32.dll
 0002:0000028c       __imp__GetLocaleInfoW@16   0049028c     kernel32:KERNEL32.dll
 0002:00000290       __imp__LCMapStringW@24     00490290     kernel32:KERNEL32.dll
 0002:00000294       __imp__CompareStringW@24   00490294     kernel32:KERNEL32.dll
 0002:00000298       __imp__GetModuleHandleW@4  00490298     kernel32:KERNEL32.dll
 0002:0000029c       __imp__GetSystemTimeAsFileTime@4 0049029c     kernel32:KERNEL32.dll
 0002:000002a0       __imp__TlsFree@4           004902a0     kernel32:KERNEL32.dll
 0002:000002a4       __imp__TlsSetValue@8       004902a4     kernel32:KERNEL32.dll
 0002:000002a8       __imp__TlsGetValue@4       004902a8     kernel32:KERNEL32.dll
 0002:000002ac       __imp__TlsAlloc@0          004902ac     kernel32:KERNEL32.dll
 0002:000002b0       __imp__CreateEventW@16     004902b0     kernel32:KERNEL32.dll
 0002:000002b4       __imp__EncodePointer@4     004902b4     kernel32:KERNEL32.dll
 0002:000002b8       __imp__GetStringTypeW@16   004902b8     kernel32:KERNEL32.dll
 0002:000002bc       __imp__CreatePipe@16       004902bc     kernel32:KERNEL32.dll
 0002:000002c0       __imp__SetHandleInformation@12 004902c0     kernel32:KERNEL32.dll
 0002:000002c4       __imp__SetFileTime@16      004902c4     kernel32:KERNEL32.dll
 0002:000002c8       __imp__GetLogicalDrives@0  004902c8     kernel32:KERNEL32.dll
 0002:000002cc       __imp__GetFileTime@16      004902cc     kernel32:KERNEL32.dll
 0002:000002d0       __imp__GetFileSizeEx@8     004902d0     kernel32:KERNEL32.dll
 0002:000002d4       __imp__FindNextFileA@8     004902d4     kernel32:KERNEL32.dll
 0002:000002d8       __imp__FindFirstFileA@8    004902d8     kernel32:KERNEL32.dll
 0002:000002dc       __imp__FindClose@4         004902dc     kernel32:KERNEL32.dll
 0002:000002e0       __imp__GetCommandLineW@0   004902e0     kernel32:KERNEL32.dll
 0002:000002e4       __imp__GetCommandLineA@0   004902e4     kernel32:KERNEL32.dll
 0002:000002e8       __imp__WideCharToMultiByte@32 004902e8     kernel32:KERNEL32.dll
 0002:000002ec       __imp__SetProcessShutdownParameters@8 004902ec     kernel32:KERNEL32.dll
 0002:000002f0       __imp__FindNextVolumeA@12  004902f0     kernel32:KERNEL32.dll
 0002:000002f4       __imp__FindFirstVolumeA@8  004902f4     kernel32:KERNEL32.dll
 0002:000002f8       __imp__QueryDosDeviceA@12  004902f8     kernel32:KERNEL32.dll
 0002:000002fc       __imp__MultiByteToWideChar@24 004902fc     kernel32:KERNEL32.dll
 0002:00000300       __imp__GetVolumePathNameA@12 00490300     kernel32:KERNEL32.dll
 0002:00000304       __imp__GetVolumeInformationA@32 00490304     kernel32:KERNEL32.dll
 0002:00000308       __imp__CopyFileA@12        00490308     kernel32:KERNEL32.dll
 0002:0000030c       __imp__GetTempPathA@8      0049030c     kernel32:KERNEL32.dll
 0002:00000310       __imp__GetShortPathNameA@12 00490310     kernel32:KERNEL32.dll
 0002:00000314       __imp__GetModuleFileNameA@12 00490314     kernel32:KERNEL32.dll
 0002:00000318       __imp__GetSystemDirectoryA@8 00490318     kernel32:KERNEL32.dll
 0002:0000031c       __imp__GetCurrentThreadId@0 0049031c     kernel32:KERNEL32.dll
 0002:00000320       __imp__Sleep@4             00490320     kernel32:KERNEL32.dll
 0002:00000324       __imp__DeleteCriticalSection@4 00490324     kernel32:KERNEL32.dll
 0002:00000328       __imp__InitializeCriticalSectionAndSpinCount@8 00490328     kernel32:KERNEL32.dll
 0002:0000032c       __imp__DeviceIoControl@32  0049032c     kernel32:KERNEL32.dll
 0002:00000330       __imp__SetLastError@4      00490330     kernel32:KERNEL32.dll
 0002:00000334       __imp__GetLastError@0      00490334     kernel32:KERNEL32.dll
 0002:00000338       __imp__RaiseException@16   00490338     kernel32:KERNEL32.dll
 0002:0000033c       __imp__CloseHandle@4       0049033c     kernel32:KERNEL32.dll
 0002:00000340       __imp__DecodePointer@4     00490340     kernel32:KERNEL32.dll
 0002:00000344       __imp__WriteFile@20        00490344     kernel32:KERNEL32.dll
 0002:00000348       __imp__SetFilePointerEx@20 00490348     kernel32:KERNEL32.dll
 0002:0000034c       __imp__ReadFile@20         0049034c     kernel32:KERNEL32.dll
 0002:00000350       __imp__QueryDosDeviceW@12  00490350     kernel32:KERNEL32.dll
 0002:00000354       __imp__FindVolumeClose@4   00490354     kernel32:KERNEL32.dll
 0002:00000358       __imp__FindNextVolumeW@12  00490358     kernel32:KERNEL32.dll
 0002:0000035c       __imp__FindFirstVolumeW@8  0049035c     kernel32:KERNEL32.dll
 0002:00000360       __imp__DeleteFileA@4       00490360     kernel32:KERNEL32.dll
 0002:00000364       __imp__CreateFileA@28      00490364     kernel32:KERNEL32.dll
 0002:00000368       __imp__CreateDirectoryA@8  00490368     kernel32:KERNEL32.dll
 0002:0000036c       __imp__GetTimeZoneInformation@4 0049036c     kernel32:KERNEL32.dll
 0002:00000370       __imp__FindFirstFileExA@24 00490370     kernel32:KERNEL32.dll
 0002:00000374       __imp__IsValidCodePage@4   00490374     kernel32:KERNEL32.dll
 0002:00000378       __imp__GetOEMCP@0          00490378     kernel32:KERNEL32.dll
 0002:0000037c       __imp__GetEnvironmentStringsW@0 0049037c     kernel32:KERNEL32.dll
 0002:00000380       __imp__FreeEnvironmentStringsW@4 00490380     kernel32:KERNEL32.dll
 0002:00000384       __imp__SetEnvironmentVariableA@8 00490384     kernel32:KERNEL32.dll
 0002:00000388       __imp__GetProcessTimes@20  00490388     kernel32:KERNEL32.dll
 0002:0000038c       \177KERNEL32_NULL_THUNK_DATA 0049038c     kernel32:KERNEL32.dll
 0002:00000390       __imp__SysStringByteLen@4  00490390     oleaut32:OLEAUT32.dll
 0002:00000394       __imp__SysFreeString@4     00490394     oleaut32:OLEAUT32.dll
 0002:00000398       __imp__SysAllocStringLen@8 00490398     oleaut32:OLEAUT32.dll
 0002:0000039c       __imp__SysAllocStringByteLen@8 0049039c     oleaut32:OLEAUT32.dll
 0002:000003a0       \177OLEAUT32_NULL_THUNK_DATA 004903a0     oleaut32:OLEAUT32.dll
 0002:000003a4       __imp__SetupInstallFromInfSectionA@44 004903a4     setupapi:SETUPAPI.dll
 0002:000003a8       __imp__SetupCloseInfFile@4 004903a8     setupapi:SETUPAPI.dll
 0002:000003ac       __imp__SetupOpenInfFileA@16 004903ac     setupapi:SETUPAPI.dll
 0002:000003b0       __imp__SetupDiOpenClassRegKey@8 004903b0     setupapi:SETUPAPI.dll
 0002:000003b4       \177SETUPAPI_NULL_THUNK_DATA 004903b4     setupapi:SETUPAPI.dll
 0002:000003b8       __imp__SHBrowseForFolderW@4 004903b8     shell32:SHELL32.dll
 0002:000003bc       __imp__SHGetPathFromIDListA@8 004903bc     shell32:SHELL32.dll
 0002:000003c0       __imp__SHGetMalloc@4       004903c0     shell32:SHELL32.dll
 0002:000003c4       __imp__SHGetFileInfoA@20   004903c4     shell32:SHELL32.dll
 0002:000003c8       __imp__ShellExecuteW@24    004903c8     shell32:SHELL32.dll
 0002:000003cc       __imp__SHChangeNotify@16   004903cc     shell32:SHELL32.dll
 0002:000003d0       __imp__SHGetSpecialFolderPathA@16 004903d0     shell32:SHELL32.dll
 0002:000003d4       __imp__Shell_NotifyIconW@8 004903d4     shell32:SHELL32.dll
 0002:000003d8       __imp__Shell_NotifyIconA@8 004903d8     shell32:SHELL32.dll
 0002:000003dc       __imp__CommandLineToArgvW@8 004903dc     shell32:SHELL32.dll
 0002:000003e0       __imp__ShellExecuteA@24    004903e0     shell32:SHELL32.dll
 0002:000003e4       __imp__DragAcceptFiles@8   004903e4     shell32:SHELL32.dll
 0002:000003e8       __imp__DragFinish@4        004903e8     shell32:SHELL32.dll
 0002:000003ec       __imp__DragQueryFileA@16   004903ec     shell32:SHELL32.dll
 0002:000003f0       __imp__SHGetFolderPathA@20 004903f0     shell32:SHELL32.dll
 0002:000003f4       __imp__IsUserAnAdmin@0     004903f4     shell32:SHELL32.dll
 0002:000003f8       \177SHELL32_NULL_THUNK_DATA 004903f8     shell32:SHELL32.dll
 0002:000003fc       __imp__GetDC@4             004903fc     user32:USER32.dll
 0002:00000400       __imp__DrawTextA@20        00490400     user32:USER32.dll
 0002:00000404       __imp__GetSystemMenu@8     00490404     user32:USER32.dll
 0002:00000408       __imp__GetSystemMetrics@4  00490408     user32:USER32.dll
 0002:0000040c       __imp__GetKeyState@4       0049040c     user32:USER32.dll
 0002:00000410       __imp__DefDlgProcA@16      00490410     user32:USER32.dll
 0002:00000414       __imp__GetDialogBaseUnits@0 00490414     user32:USER32.dll
 0002:00000418       __imp__GetDlgCtrlID@4      00490418     user32:USER32.dll
 0002:0000041c       __imp__MoveWindow@24       0049041c     user32:USER32.dll
 0002:00000420       __imp__SetLayeredWindowAttributes@16 00490420     user32:USER32.dll
 0002:00000424       __imp__DestroyWindow@4     00490424     user32:USER32.dll
 0002:00000428       __imp__CreateWindowExA@48  00490428     user32:USER32.dll
 0002:0000042c       __imp__RegisterClassExA@4  0049042c     user32:USER32.dll
 0002:00000430       __imp__GetClassInfoA@12    00490430     user32:USER32.dll
 0002:00000434       __imp__ReleaseDC@8         00490434     user32:USER32.dll
 0002:00000438       __imp__GetFocus@0          00490438     user32:USER32.dll
 0002:0000043c       __imp__GetDesktopWindow@0  0049043c     user32:USER32.dll
 0002:00000440       __imp__PeekMessageA@20     00490440     user32:USER32.dll
 0002:00000444       __imp__TrackMouseEvent@4   00490444     user32:USER32.dll
 0002:00000448       __imp__wsprintfA           00490448     user32:USER32.dll
 0002:0000044c       __imp__SystemParametersInfoA@16 0049044c     user32:USER32.dll
 0002:00000450       __imp__LoadImageA@24       00490450     user32:USER32.dll
 0002:00000454       __imp__LoadBitmapA@8       00490454     user32:USER32.dll
 0002:00000458       __imp__EnumWindows@8       00490458     user32:USER32.dll
 0002:0000045c       __imp__SetWindowLongA@12   0049045c     user32:USER32.dll
 0002:00000460       __imp__GetWindowLongA@8    00490460     user32:USER32.dll
 0002:00000464       __imp__GetCursorPos@4      00490464     user32:USER32.dll
 0002:00000468       __imp__MessageBeep@4       00490468     user32:USER32.dll
 0002:0000046c       __imp__MessageBoxW@16      0049046c     user32:USER32.dll
 0002:00000470       __imp__GetWindowRect@8     00490470     user32:USER32.dll
 0002:00000474       __imp__GetWindowTextLengthA@4 00490474     user32:USER32.dll
 0002:00000478       __imp__BeginPaint@8        00490478     user32:USER32.dll
 0002:0000047c       __imp__EndPaint@8          0049047c     user32:USER32.dll
 0002:00000480       __imp__GetUpdateRect@12    00490480     user32:USER32.dll
 0002:00000484       __imp__GetWindowTextW@12   00490484     user32:USER32.dll
 0002:00000488       __imp__SetCursor@4         00490488     user32:USER32.dll
 0002:0000048c       __imp__EnumChildWindows@12 0049048c     user32:USER32.dll
 0002:00000490       __imp__GetClassNameA@12    00490490     user32:USER32.dll
 0002:00000494       __imp__LoadCursorA@8       00490494     user32:USER32.dll
 0002:00000498       __imp__LoadIconA@8         00490498     user32:USER32.dll
 0002:0000049c       __imp__SystemParametersInfoW@16 0049049c     user32:USER32.dll
 0002:000004a0       __imp__GetWindowInfo@8     004904a0     user32:USER32.dll
 0002:000004a4       __imp__GetProcessWindowStation@0 004904a4     user32:USER32.dll
 0002:000004a8       __imp__GetMessageTime@0    004904a8     user32:USER32.dll
 0002:000004ac       __imp__GetClipboardOwner@0 004904ac     user32:USER32.dll
 0002:000004b0       __imp__GetClipboardViewer@0 004904b0     user32:USER32.dll
 0002:000004b4       __imp__RegisterClassA@4    004904b4     user32:USER32.dll
 0002:000004b8       __imp__GetOpenClipboardWindow@0 004904b8     user32:USER32.dll
 0002:000004bc       __imp__GetInputState@0     004904bc     user32:USER32.dll
 0002:000004c0       __imp__GetQueueStatus@4    004904c0     user32:USER32.dll
 0002:000004c4       __imp__GetCapture@0        004904c4     user32:USER32.dll
 0002:000004c8       __imp__DefWindowProcA@16   004904c8     user32:USER32.dll
 0002:000004cc       __imp__GetCaretPos@4       004904cc     user32:USER32.dll
 0002:000004d0       __imp__UnregisterClassA@8  004904d0     user32:USER32.dll
 0002:000004d4       __imp__GetActiveWindow@0   004904d4     user32:USER32.dll
 0002:000004d8       __imp__SetWindowsHookExA@16 004904d8     user32:USER32.dll
 0002:000004dc       __imp__CallNextHookEx@16   004904dc     user32:USER32.dll
 0002:000004e0       __imp__SendMessageTimeoutA@28 004904e0     user32:USER32.dll
 0002:000004e4       __imp__UnhookWindowsHookEx@4 004904e4     user32:USER32.dll
 0002:000004e8       __imp__GetWindowTextA@12   004904e8     user32:USER32.dll
 0002:000004ec       __imp__SetWindowTextA@8    004904ec     user32:USER32.dll
 0002:000004f0       __imp__SetForegroundWindow@4 004904f0     user32:USER32.dll
 0002:000004f4       __imp__SetMenuItemInfoW@16 004904f4     user32:USER32.dll
 0002:000004f8       __imp__TrackPopupMenu@28   004904f8     user32:USER32.dll
 0002:000004fc       __imp__GetSubMenu@8        004904fc     user32:USER32.dll
 0002:00000500       __imp__EnableMenuItem@12   00490500     user32:USER32.dll
 0002:00000504       __imp__DestroyMenu@4       00490504     user32:USER32.dll
 0002:00000508       __imp__CreatePopupMenu@0   00490508     user32:USER32.dll
 0002:0000050c       __imp__DrawMenuBar@4       0049050c     user32:USER32.dll
 0002:00000510       __imp__GetMenu@4           00490510     user32:USER32.dll
 0002:00000514       __imp__IsWindowEnabled@4   00490514     user32:USER32.dll
 0002:00000518       __imp__SetFocus@4          00490518     user32:USER32.dll
 0002:0000051c       __imp__SendDlgItemMessageW@20 0049051c     user32:USER32.dll
 0002:00000520       __imp__SendDlgItemMessageA@20 00490520     user32:USER32.dll
 0002:00000524       __imp__GetDlgItemTextA@16  00490524     user32:USER32.dll
 0002:00000528       __imp__SetDlgItemTextA@12  00490528     user32:USER32.dll
 0002:0000052c       __imp__GetDlgItemInt@16    0049052c     user32:USER32.dll
 0002:00000530       __imp__SetDlgItemInt@16    00490530     user32:USER32.dll
 0002:00000534       __imp__FlashWindowEx@4     00490534     user32:USER32.dll
 0002:00000538       __imp__CallWindowProcA@20  00490538     user32:USER32.dll
 0002:0000053c       __imp__PostMessageA@16     0049053c     user32:USER32.dll
 0002:00000540       __imp__GetMessagePos@0     00490540     user32:USER32.dll
 0002:00000544       __imp__RegisterWindowMessageA@4 00490544     user32:USER32.dll
 0002:00000548       __imp__GetKeyboardLayout@4 00490548     user32:USER32.dll
 0002:0000054c       __imp__LoadKeyboardLayoutA@8 0049054c     user32:USER32.dll
 0002:00000550       __imp__PostThreadMessageA@16 00490550     user32:USER32.dll
 0002:00000554       __imp__DispatchMessageA@4  00490554     user32:USER32.dll
 0002:00000558       __imp__TranslateMessage@4  00490558     user32:USER32.dll
 0002:0000055c       __imp__GetMessageA@16      0049055c     user32:USER32.dll
 0002:00000560       __imp__GetParent@4         00490560     user32:USER32.dll
 0002:00000564       __imp__GetWindowTextLengthW@4 00490564     user32:USER32.dll
 0002:00000568       __imp__KillTimer@8         00490568     user32:USER32.dll
 0002:0000056c       __imp__SetTimer@16         0049056c     user32:USER32.dll
 0002:00000570       __imp__GetAsyncKeyState@4  00490570     user32:USER32.dll
 0002:00000574       __imp__UnregisterHotKey@8  00490574     user32:USER32.dll
 0002:00000578       __imp__RegisterHotKey@16   00490578     user32:USER32.dll
 0002:0000057c       __imp__wsprintfW           0049057c     user32:USER32.dll
 0002:00000580       __imp__GetClientRect@8     00490580     user32:USER32.dll
 0002:00000584       __imp__SetWindowTextW@8    00490584     user32:USER32.dll
 0002:00000588       __imp__InvalidateRect@12   00490588     user32:USER32.dll
 0002:0000058c       __imp__DeleteMenu@12       0049058c     user32:USER32.dll
 0002:00000590       __imp__AppendMenuW@16      00490590     user32:USER32.dll
 0002:00000594       __imp__AppendMenuA@16      00490594     user32:USER32.dll
 0002:00000598       __imp__EnableWindow@8      00490598     user32:USER32.dll
 0002:0000059c       __imp__IsDlgButtonChecked@8 0049059c     user32:USER32.dll
 0002:000005a0       __imp__CheckDlgButton@12   004905a0     user32:USER32.dll
 0002:000005a4       __imp__GetDlgItemTextW@16  004905a4     user32:USER32.dll
 0002:000005a8       __imp__SetDlgItemTextW@12  004905a8     user32:USER32.dll
 0002:000005ac       __imp__GetDlgItem@8        004905ac     user32:USER32.dll
 0002:000005b0       __imp__EndDialog@8         004905b0     user32:USER32.dll
 0002:000005b4       __imp__DialogBoxParamW@20  004905b4     user32:USER32.dll
 0002:000005b8       __imp__SetWindowPos@28     004905b8     user32:USER32.dll
 0002:000005bc       __imp__ShowWindow@8        004905bc     user32:USER32.dll
 0002:000005c0       __imp__SendMessageW@16     004905c0     user32:USER32.dll
 0002:000005c4       __imp__SendMessageA@16     004905c4     user32:USER32.dll
 0002:000005c8       __imp__MessageBoxA@16      004905c8     user32:USER32.dll
 0002:000005cc       \177USER32_NULL_THUNK_DATA 004905cc     user32:USER32.dll
 0002:000005d0       __imp__GetFileVersionInfoA@16 004905d0     version:VERSION.dll
 0002:000005d4       __imp__VerQueryValueA@16   004905d4     version:VERSION.dll
 0002:000005d8       __imp__GetFileVersionInfoSizeA@8 004905d8     version:VERSION.dll
 0002:000005dc       \177VERSION_NULL_THUNK_DATA 004905dc     version:VERSION.dll
 0002:000005e0       __imp__CoGetObject@16      004905e0     ole32:ole32.dll
 0002:000005e4       __imp__StringFromGUID2@12  004905e4     ole32:ole32.dll
 0002:000005e8       __imp__CoCreateInstance@20 004905e8     ole32:ole32.dll
 0002:000005ec       __imp__CoRegisterClassObject@20 004905ec     ole32:ole32.dll
 0002:000005f0       __imp__CoInitialize@4      004905f0     ole32:ole32.dll
 0002:000005f4       __imp__CoUninitialize@0    004905f4     ole32:ole32.dll
 0002:000005f8       __imp__CoRevokeClassObject@4 004905f8     ole32:ole32.dll
 0002:000005fc       \177ole32_NULL_THUNK_DATA  004905fc     ole32:ole32.dll
 0002:00000600       ___guard_check_icall_fptr  00490600     LIBCMT:guard_support.obj
 0002:00000604       ___xc_a                    00490604     LIBCMT:initializers.obj
 0002:0000064c       ___xc_z                    0049064c     LIBCMT:initializers.obj
 0002:00000650       ___xi_a                    00490650     LIBCMT:initializers.obj
 0002:00000664       ___acrt_stdio_initializer  00490664     libucrt:stdio_initializer.obj
 0002:00000668       ___acrt_tran_sse2_initializer 00490668     libucrt:sse2_initializer.obj
 0002:0000066c       ___acrt_timeset_initializer 0049066c     libucrt:timeset_initializer.obj
 0002:00000670       ___acrt_multibyte_initializer 00490670     libucrt:multibyte_initializer.obj
 0002:00000674       ___xi_z                    00490674     LIBCMT:initializers.obj
 0002:00000678       ___xl_a                    00490678     LIBCMT:tlssup.obj
 0002:0000067c       ___xl_z                    0049067c     LIBCMT:tlssup.obj
 0002:00000680       ___xp_a                    00490680     LIBCMT:initializers.obj
 0002:00000684       ___acrt_locale_terminator  00490684     libucrt:locale_initializer.obj
 0002:00000688       ___dcrt_console_output_terminator 00490688     libucrt:console_output_initializer.obj
 0002:0000068c       ___acrt_stdio_terminator   0049068c     libucrt:stdio_initializer.obj
 0002:00000690       ___xp_z                    00490690     LIBCMT:initializers.obj
 0002:00000694       ___xt_a                    00490694     LIBCMT:initializers.obj
 0002:00000698       ___xt_z                    00490698     LIBCMT:initializers.obj
 0002:000006a0       ??_C@_1M@LJLLCMEH@?$AAp?$AAt?$AA?9?$AAb?$AAr?$AA?$AA@ 004906a0     BootEncryption.obj
 0002:000006ac       ??_C@_1M@NCMONAAL@?$AAp?$AAt?$AA?9?$AAp?$AAt?$AA?$AA@ 004906ac     BootEncryption.obj
 0002:000006b8       ??_C@_1O@EAKMAJDN@?$AAq?$AAu?$AAz?$AA?9?$AAb?$AAo?$AA?$AA@ 004906b8     BootEncryption.obj
 0002:000006c8       ??_C@_1O@BHHPIGDN@?$AAq?$AAu?$AAz?$AA?9?$AAe?$AAc?$AA?$AA@ 004906c8     BootEncryption.obj
 0002:000006d8       ??_C@_1O@GBAPEKMJ@?$AAq?$AAu?$AAz?$AA?9?$AAp?$AAe?$AA?$AA@ 004906d8     BootEncryption.obj
 0002:000006e8       ??_C@_1M@CLGLEFBO@?$AAr?$AAo?$AA?9?$AAr?$AAo?$AA?$AA@ 004906e8     BootEncryption.obj
 0002:000006f4       ??_C@_1M@CEEDODME@?$AAr?$AAu?$AA?9?$AAr?$AAu?$AA?$AA@ 004906f4     BootEncryption.obj
 0002:00000700       ??_C@_1M@HPKKKMPP@?$AAs?$AAa?$AA?9?$AAi?$AAn?$AA?$AA@ 00490700     BootEncryption.obj
 0002:0000070c       ??_C@_1M@BKMAIGOJ@?$AAs?$AAe?$AA?9?$AAf?$AAi?$AA?$AA@ 0049070c     BootEncryption.obj
 0002:00000718       ??_C@_1M@NDPIFLFI@?$AAs?$AAe?$AA?9?$AAn?$AAo?$AA?$AA@ 00490718     BootEncryption.obj
 0002:00000724       ??_C@_1M@DANKKHJ@?$AAs?$AAe?$AA?9?$AAs?$AAe?$AA?$AA@ 00490724     BootEncryption.obj
 0002:00000730       ??_C@_1M@PNBLONPJ@?$AAs?$AAk?$AA?9?$AAs?$AAk?$AA?$AA@ 00490730     BootEncryption.obj
 0002:0000073c       ??_C@_1M@LFMODOAL@?$AAs?$AAl?$AA?9?$AAs?$AAi?$AA?$AA@ 0049073c     BootEncryption.obj
 0002:00000748       ??_C@_1O@DFKOMPG@?$AAs?$AAm?$AAa?$AA?9?$AAn?$AAo?$AA?$AA@ 00490748     BootEncryption.obj
 0002:00000758       ??_C@_1O@NDKPBNNH@?$AAs?$AAm?$AAa?$AA?9?$AAs?$AAe?$AA?$AA@ 00490758     BootEncryption.obj
 0002:00000768       ??_C@_1O@PLLKBHAB@?$AAs?$AAm?$AAj?$AA?9?$AAn?$AAo?$AA?$AA@ 00490768     BootEncryption.obj
 0002:00000778       ??_C@_1O@CLEPOGCA@?$AAs?$AAm?$AAj?$AA?9?$AAs?$AAe?$AA?$AA@ 00490778     BootEncryption.obj
 0002:00000788       ??_C@_1O@DLGJGKMK@?$AAs?$AAm?$AAn?$AA?9?$AAf?$AAi?$AA?$AA@ 00490788     BootEncryption.obj
 0002:00000798       ??_C@_1O@OJDJGAJC@?$AAs?$AAm?$AAs?$AA?9?$AAf?$AAi?$AA?$AA@ 00490798     BootEncryption.obj
 0002:000007a8       ??_C@_1M@BOFOGHPB@?$AAs?$AAq?$AA?9?$AAa?$AAl?$AA?$AA@ 004907a8     BootEncryption.obj
 0002:000007b4       ??_C@_1BG@LJBBIPGB@?$AAs?$AAr?$AA?9?$AAb?$AAa?$AA?9?$AAc?$AAy?$AAr?$AAl?$AA?$AA@ 004907b4     BootEncryption.obj
 0002:000007cc       ??_C@_1BG@JLBENFOE@?$AAs?$AAr?$AA?9?$AAb?$AAa?$AA?9?$AAl?$AAa?$AAt?$AAn?$AA?$AA@ 004907cc     BootEncryption.obj
 0002:000007e4       ??_C@_1BG@KODPNHE@?$AAs?$AAr?$AA?9?$AAs?$AAp?$AA?9?$AAc?$AAy?$AAr?$AAl?$AA?$AA@ 004907e4     BootEncryption.obj
 0002:000007fc       ??_C@_1BG@CIOGKHPB@?$AAs?$AAr?$AA?9?$AAs?$AAp?$AA?9?$AAl?$AAa?$AAt?$AAn?$AA?$AA@ 004907fc     BootEncryption.obj
 0002:00000814       ??_C@_1M@NGFJLMAC@?$AAs?$AAv?$AA?9?$AAf?$AAi?$AA?$AA@ 00490814     BootEncryption.obj
 0002:00000820       ??_C@_1M@MPJEJAJC@?$AAs?$AAv?$AA?9?$AAs?$AAe?$AA?$AA@ 00490820     BootEncryption.obj
 0002:0000082c       ??_C@_1M@MPNDHLFK@?$AAs?$AAw?$AA?9?$AAk?$AAe?$AA?$AA@ 0049082c     BootEncryption.obj
 0002:00000838       ??_C@_1O@KOHBJJI@?$AAs?$AAy?$AAr?$AA?9?$AAs?$AAy?$AA?$AA@ 00490838     BootEncryption.obj
 0002:00000848       ??_C@_1M@LDCEFHA@?$AAt?$AAa?$AA?9?$AAi?$AAn?$AA?$AA@ 00490848     BootEncryption.obj
 0002:00000854       ??_C@_1M@CNJOFAK@?$AAt?$AAe?$AA?9?$AAi?$AAn?$AA?$AA@ 00490854     BootEncryption.obj
 0002:00000860       ??_C@_1M@GNAECACD@?$AAt?$AAh?$AA?9?$AAt?$AAh?$AA?$AA@ 00490860     BootEncryption.obj
 0002:0000086c       ??_C@_1M@CHBIHOJO@?$AAt?$AAn?$AA?9?$AAz?$AAa?$AA?$AA@ 0049086c     BootEncryption.obj
 0002:00000878       ??_C@_1M@GCCMIGPJ@?$AAt?$AAr?$AA?9?$AAt?$AAr?$AA?$AA@ 00490878     BootEncryption.obj
 0002:00000884       ??_C@_1M@CELMCNBK@?$AAt?$AAt?$AA?9?$AAr?$AAu?$AA?$AA@ 00490884     BootEncryption.obj
 0002:00000890       ??_C@_1M@KLMCELGA@?$AAu?$AAk?$AA?9?$AAu?$AAa?$AA?$AA@ 00490890     BootEncryption.obj
 0002:0000089c       ??_C@_1M@EPAJJAJF@?$AAu?$AAr?$AA?9?$AAp?$AAk?$AA?$AA@ 0049089c     BootEncryption.obj
 0002:000008a8       ??_C@_1BG@GEGPMCDJ@?$AAu?$AAz?$AA?9?$AAu?$AAz?$AA?9?$AAc?$AAy?$AAr?$AAl?$AA?$AA@ 004908a8     BootEncryption.obj
 0002:000008c0       ??_C@_1BG@EGGKJILM@?$AAu?$AAz?$AA?9?$AAu?$AAz?$AA?9?$AAl?$AAa?$AAt?$AAn?$AA?$AA@ 004908c0     BootEncryption.obj
 0002:000008d8       ??_C@_1M@GFOCLFF@?$AAv?$AAi?$AA?9?$AAv?$AAn?$AA?$AA@ 004908d8     BootEncryption.obj
 0002:000008e4       ??_C@_1M@CPAMEDFI@?$AAx?$AAh?$AA?9?$AAz?$AAa?$AA?$AA@ 004908e4     BootEncryption.obj
 0002:000008f0       ??_C@_1O@EBKIFIGN@?$AAz?$AAh?$AA?9?$AAc?$AAh?$AAs?$AA?$AA@ 004908f0     BootEncryption.obj
 0002:00000900       ??_C@_1O@NMHPGANE@?$AAz?$AAh?$AA?9?$AAc?$AAh?$AAt?$AA?$AA@ 00490900     BootEncryption.obj
 0002:00000910       ??_C@_1M@LPINJOMC@?$AAz?$AAh?$AA?9?$AAc?$AAn?$AA?$AA@ 00490910     BootEncryption.obj
 0002:0000091c       ??_C@_1M@OCJEJODD@?$AAz?$AAh?$AA?9?$AAh?$AAk?$AA?$AA@ 0049091c     BootEncryption.obj
 0002:00000928       ??_C@_1M@DNDLJINH@?$AAz?$AAh?$AA?9?$AAm?$AAo?$AA?$AA@ 00490928     BootEncryption.obj
 0002:00000934       ??_C@_1M@MBFDNDND@?$AAz?$AAh?$AA?9?$AAs?$AAg?$AA?$AA@ 00490934     BootEncryption.obj
 0002:00000940       ??_C@_1M@IMEPLEPE@?$AAz?$AAh?$AA?9?$AAt?$AAw?$AA?$AA@ 00490940     BootEncryption.obj
 0002:0000094c       ??_C@_1M@BBGHNHJP@?$AAz?$AAu?$AA?9?$AAz?$AAa?$AA?$AA@ 0049094c     BootEncryption.obj
 0002:00000958       ??_C@_15EMKDOKLE@?$AAa?$AAr?$AA?$AA@ 00490958     BootEncryption.obj
 0002:00000960       ??_C@_15KNPADPLH@?$AAb?$AAg?$AA?$AA@ 00490960     BootEncryption.obj
 0002:00000968       ??_C@_15EDMHLDMO@?$AAc?$AAa?$AA?$AA@ 00490968     BootEncryption.obj
 0002:00000970       ??_C@_1O@BPEAJADD@?$AAz?$AAh?$AA?9?$AAC?$AAH?$AAS?$AA?$AA@ 00490970     BootEncryption.obj
 0002:00000980       ??_C@_15LJNHCMNK@?$AAc?$AAs?$AA?$AA@ 00490980     BootEncryption.obj
 0002:00000988       ??_C@_15FOMCIDHG@?$AAd?$AAa?$AA?$AA@ 00490988     BootEncryption.obj
 0002:00000990       ??_C@_15NBKABECB@?$AAd?$AAe?$AA?$AA@ 00490990     BootEncryption.obj
 0002:00000998       ??_C@_15GHPEIIAO@?$AAe?$AAl?$AA?$AA@ 00490998     BootEncryption.obj
 0002:000009a0       ??_C@_15MNPNEAIF@?$AAe?$AAn?$AA?$AA@ 004909a0     BootEncryption.obj
 0002:000009a8       ??_C@_15GPIOMPMH@?$AAe?$AAs?$AA?$AA@ 004909a8     BootEncryption.obj
 0002:000009b0       ??_C@_15NGLOAKJC@?$AAf?$AAi?$AA?$AA@ 004909b0     BootEncryption.obj
 0002:000009b8       ??_C@_15FBKGNKAM@?$AAf?$AAr?$AA?$AA@ 004909b8     BootEncryption.obj
 0002:000009c0       ??_C@_15KGGCNEFK@?$AAh?$AAe?$AA?$AA@ 004909c0     BootEncryption.obj
 0002:000009c8       ??_C@_15PGHLIDMF@?$AAh?$AAu?$AA?$AA@ 004909c8     BootEncryption.obj
 0002:000009d0       ??_C@_15BIEMAPLM@?$AAi?$AAs?$AA?$AA@ 004909d0     BootEncryption.obj
 0002:000009d8       ??_C@_15IFJLDHAF@?$AAi?$AAt?$AA?$AA@ 004909d8     BootEncryption.obj
 0002:000009e0       ??_C@_15GEMIOCAG@?$AAj?$AAa?$AA?$AA@ 004909e0     BootEncryption.obj
 0002:000009e8       ??_C@_15EPELEGJA@?$AAk?$AAo?$AA?$AA@ 004909e8     BootEncryption.obj
 0002:000009f0       ??_C@_15NDDHIMN@?$AAn?$AAl?$AA?$AA@ 004909f0     BootEncryption.obj
 0002:000009f8       ??_C@_15BPIGNHCD@?$AAn?$AAo?$AA?$AA@ 004909f8     BootEncryption.obj
 0002:00000a00       ??_C@_15DEOPBLCG@?$AAp?$AAl?$AA?$AA@ 00490a00     BootEncryption.obj
 0002:00000a08       ??_C@_15KBECGEFG@?$AAp?$AAt?$AA?$AA@ 00490a08     BootEncryption.obj
 0002:00000a10       ??_C@_15GLJCBFMD@?$AAr?$AAo?$AA?$AA@ 00490a10     BootEncryption.obj
 0002:00000a18       ??_C@_15FEDGKCDI@?$AAr?$AAu?$AA?$AA@ 00490a18     BootEncryption.obj
 0002:00000a20       ??_C@_15GLKMLLHM@?$AAh?$AAr?$AA?$AA@ 00490a20     BootEncryption.obj
 0002:00000a28       ??_C@_15CPKMFBDB@?$AAs?$AAk?$AA?$AA@ 00490a28     BootEncryption.obj
 0002:00000a30       ??_C@_15BAAIOGMK@?$AAs?$AAq?$AA?$AA@ 00490a30     BootEncryption.obj
 0002:00000a38       ??_C@_15INNPNOHD@?$AAs?$AAv?$AA?$AA@ 00490a38     BootEncryption.obj
 0002:00000a40       ??_C@_15CABMMOGH@?$AAt?$AAh?$AA?$AA@ 00490a40     BootEncryption.obj
 0002:00000a48       ??_C@_15BPLIHJJM@?$AAt?$AAr?$AA?$AA@ 00490a48     BootEncryption.obj
 0002:00000a50       ??_C@_15NEOEKKDJ@?$AAu?$AAr?$AA?$AA@ 00490a50     BootEncryption.obj
 0002:00000a58       ??_C@_15NFICGAJK@?$AAi?$AAd?$AA?$AA@ 00490a58     BootEncryption.obj
 0002:00000a60       ??_C@_15PJPFLCCM@?$AAu?$AAk?$AA?$AA@ 00490a60     BootEncryption.obj
 0002:00000a68       ??_C@_15HPJPHDM@?$AAb?$AAe?$AA?$AA@ 00490a68     BootEncryption.obj
 0002:00000a70       ??_C@_15LCHLGJII@?$AAs?$AAl?$AA?$AA@ 00490a70     BootEncryption.obj
 0002:00000a78       ??_C@_15PCFJPHHO@?$AAe?$AAt?$AA?$AA@ 00490a78     BootEncryption.obj
 0002:00000a80       ??_C@_15HPFPGODN@?$AAl?$AAv?$AA?$AA@ 00490a80     BootEncryption.obj
 0002:00000a88       ??_C@_15NFFGKGLG@?$AAl?$AAt?$AA?$AA@ 00490a88     BootEncryption.obj
 0002:00000a90       ??_C@_15BDAKCCHN@?$AAf?$AAa?$AA?$AA@ 00490a90     BootEncryption.obj
 0002:00000a98       ??_C@_15NFGIAIAJ@?$AAv?$AAi?$AA?$AA@ 00490a98     BootEncryption.obj
 0002:00000aa0       ??_C@_15LMKNDMHN@?$AAh?$AAy?$AA?$AA@ 00490aa0     BootEncryption.obj
 0002:00000aa8       ??_C@_15IJBHMCFL@?$AAa?$AAz?$AA?$AA@ 00490aa8     BootEncryption.obj
 0002:00000ab0       ??_C@_15EKOFJABL@?$AAe?$AAu?$AA?$AA@ 00490ab0     BootEncryption.obj
 0002:00000ab8       ??_C@_15BGHADCNK@?$AAm?$AAk?$AA?$AA@ 00490ab8     BootEncryption.obj
 0002:00000ac0       ??_C@_15JDNICKHM@?$AAa?$AAf?$AA?$AA@ 00490ac0     BootEncryption.obj
 0002:00000ac8       ??_C@_15KPJEDBKD@?$AAk?$AAa?$AA?$AA@ 00490ac8     BootEncryption.obj
 0002:00000ad0       ??_C@_15PDNFFFEO@?$AAf?$AAo?$AA?$AA@ 00490ad0     BootEncryption.obj
 0002:00000ad8       ??_C@_15OMLEGLOC@?$AAh?$AAi?$AA?$AA@ 00490ad8     BootEncryption.obj
 0002:00000ae0       ??_C@_15IDNNENKK@?$AAm?$AAs?$AA?$AA@ 00490ae0     BootEncryption.obj
 0002:00000ae8       ??_C@_15MACJNBMH@?$AAk?$AAk?$AA?$AA@ 00490ae8     BootEncryption.obj
 0002:00000af0       ??_C@_15DKDJEOND@?$AAk?$AAy?$AA?$AA@ 00490af0     BootEncryption.obj
 0002:00000af8       ??_C@_15DFGDLJBG@?$AAs?$AAw?$AA?$AA@ 00490af8     BootEncryption.obj
 0002:00000b00       ??_C@_15BBFAICNG@?$AAu?$AAz?$AA?$AA@ 00490b00     BootEncryption.obj
 0002:00000b08       ??_C@_15DKNDCGEA@?$AAt?$AAt?$AA?$AA@ 00490b08     BootEncryption.obj
 0002:00000b10       ??_C@_15MGIFMDPL@?$AAp?$AAa?$AA?$AA@ 00490b10     BootEncryption.obj
 0002:00000b18       ??_C@_15HCNDBBA@?$AAg?$AAu?$AA?$AA@ 00490b18     BootEncryption.obj
 0002:00000b20       ??_C@_15FNBEIBON@?$AAt?$AAa?$AA?$AA@ 00490b20     BootEncryption.obj
 0002:00000b28       ??_C@_15NCHGBGLK@?$AAt?$AAe?$AA?$AA@ 00490b28     BootEncryption.obj
 0002:00000b30       ??_C@_15PHPHCBPF@?$AAk?$AAn?$AA?$AA@ 00490b30     BootEncryption.obj
 0002:00000b38       ??_C@_15DLGBCKMP@?$AAm?$AAr?$AA?$AA@ 00490b38     BootEncryption.obj
 0002:00000b40       ??_C@_15EABBLBFF@?$AAs?$AAa?$AA?$AA@ 00490b40     BootEncryption.obj
 0002:00000b48       ??_C@_15CBKOMCOI@?$AAm?$AAn?$AA?$AA@ 00490b48     BootEncryption.obj
 0002:00000b50       ??_C@_15CKDMCJAF@?$AAg?$AAl?$AA?$AA@ 00490b50     BootEncryption.obj
 0002:00000b58       ??_C@_17CNJFBPG@?$AAk?$AAo?$AAk?$AA?$AA@ 00490b58     BootEncryption.obj
 0002:00000b60       ??_C@_17FFBJICPL@?$AAs?$AAy?$AAr?$AA?$AA@ 00490b60     BootEncryption.obj
 0002:00000b68       ??_C@_17KPNDCPAF@?$AAd?$AAi?$AAv?$AA?$AA@ 00490b68     BootEncryption.obj
 0002:00000b70       ??_C@_11LOCGONAA@?$AA?$AA@ 00490b70     BootEncryption.obj
 0002:00000b74       ??_C@_1M@OKAHONE@?$AAa?$AAr?$AA?9?$AAS?$AAA?$AA?$AA@ 00490b74     BootEncryption.obj
 0002:00000b80       ??_C@_1M@FFFIGIGK@?$AAb?$AAg?$AA?9?$AAB?$AAG?$AA?$AA@ 00490b80     BootEncryption.obj
 0002:00000b8c       ??_C@_1M@BJNKEDC@?$AAc?$AAa?$AA?9?$AAE?$AAS?$AA?$AA@ 00490b8c     BootEncryption.obj
 0002:00000b98       ??_C@_1M@CLNBBOPM@?$AAz?$AAh?$AA?9?$AAT?$AAW?$AA?$AA@ 00490b98     BootEncryption.obj
 0002:00000ba4       ??_C@_1M@IJJHFJHA@?$AAc?$AAs?$AA?9?$AAC?$AAZ?$AA?$AA@ 00490ba4     BootEncryption.obj
 0002:00000bb0       ??_C@_1M@CLPEOBGI@?$AAd?$AAa?$AA?9?$AAD?$AAK?$AA?$AA@ 00490bb0     BootEncryption.obj
 0002:00000bbc       ??_C@_1M@MCMADGCB@?$AAd?$AAe?$AA?9?$AAD?$AAE?$AA?$AA@ 00490bbc     BootEncryption.obj
 0002:00000bc8       ??_C@_1M@OOCKEMAM@?$AAe?$AAl?$AA?9?$AAG?$AAR?$AA?$AA@ 00490bc8     BootEncryption.obj
 0002:00000bd4       ??_C@_1M@BMHNFIME@?$AAe?$AAn?$AA?9?$AAU?$AAS?$AA?$AA@ 00490bd4     BootEncryption.obj
 0002:00000be0       ??_C@_1M@DDNJFGID@?$AAf?$AAi?$AA?9?$AAF?$AAI?$AA?$AA@ 00490be0     BootEncryption.obj
 0002:00000bec       ??_C@_1M@GLIPPMAC@?$AAf?$AAr?$AA?9?$AAF?$AAR?$AA?$AA@ 00490bec     BootEncryption.obj
 0002:00000bf8       ??_C@_1M@GFMCHPE@?$AAh?$AAe?$AA?9?$AAI?$AAL?$AA?$AA@ 00490bf8     BootEncryption.obj
 0002:00000c04       ??_C@_1M@MHLPGNKM@?$AAh?$AAu?$AA?9?$AAH?$AAU?$AA?$AA@ 00490c04     BootEncryption.obj
 0002:00000c10       ??_C@_1M@LPDDNNPN@?$AAi?$AAs?$AA?9?$AAI?$AAS?$AA?$AA@ 00490c10     BootEncryption.obj
 0002:00000c1c       ??_C@_1M@MADIPODN@?$AAi?$AAt?$AA?9?$AAI?$AAT?$AA?$AA@ 00490c1c     BootEncryption.obj
 0002:00000c28       ??_C@_1M@HPNHIDJI@?$AAj?$AAa?$AA?9?$AAJ?$AAP?$AA?$AA@ 00490c28     BootEncryption.obj
 0002:00000c34       ??_C@_1M@JLOOOEGK@?$AAk?$AAo?$AA?9?$AAK?$AAR?$AA?$AA@ 00490c34     BootEncryption.obj
 0002:00000c40       ??_C@_1M@IHBJJGG@?$AAn?$AAl?$AA?9?$AAN?$AAL?$AA?$AA@ 00490c40     BootEncryption.obj
 0002:00000c4c       ??_C@_1M@EANAGDL@?$AAn?$AAb?$AA?9?$AAN?$AAO?$AA?$AA@ 00490c4c     BootEncryption.obj
 0002:00000c58       ??_C@_1M@NEIEMEGP@?$AAp?$AAl?$AA?9?$AAP?$AAL?$AA?$AA@ 00490c58     BootEncryption.obj
 0002:00000c64       ??_C@_1M@BOCFIGEP@?$AAp?$AAt?$AA?9?$AAB?$AAR?$AA?$AA@ 00490c64     BootEncryption.obj
 0002:00000c70       ??_C@_1M@IMPFOPBG@?$AAr?$AAo?$AA?9?$AAR?$AAO?$AA?$AA@ 00490c70     BootEncryption.obj
 0002:00000c7c       ??_C@_1M@IDNNEJMM@?$AAr?$AAu?$AA?9?$AAR?$AAU?$AA?$AA@ 00490c7c     BootEncryption.obj
 0002:00000c88       ??_C@_1M@LILEEOGM@?$AAh?$AAr?$AA?9?$AAH?$AAR?$AA?$AA@ 00490c88     BootEncryption.obj
 0002:00000c94       ??_C@_1M@FKIFEHPB@?$AAs?$AAk?$AA?9?$AAS?$AAK?$AA?$AA@ 00490c94     BootEncryption.obj
 0002:00000ca0       ??_C@_1M@LJMAMNPJ@?$AAs?$AAq?$AA?9?$AAA?$AAL?$AA?$AA@ 00490ca0     BootEncryption.obj
 0002:00000cac       ??_C@_1M@GIAKDKJK@?$AAs?$AAv?$AA?9?$AAS?$AAE?$AA?$AA@ 00490cac     BootEncryption.obj
 0002:00000cb8       ??_C@_1M@MKJKIKCL@?$AAt?$AAh?$AA?9?$AAT?$AAH?$AA?$AA@ 00490cb8     BootEncryption.obj
 0002:00000cc4       ??_C@_1M@MFLCCMPB@?$AAt?$AAr?$AA?9?$AAT?$AAR?$AA?$AA@ 00490cc4     BootEncryption.obj
 0002:00000cd0       ??_C@_1M@OIJHDKJN@?$AAu?$AAr?$AA?9?$AAP?$AAK?$AA?$AA@ 00490cd0     BootEncryption.obj
 0002:00000cdc       ??_C@_1M@LHIPCIEK@?$AAi?$AAd?$AA?9?$AAI?$AAD?$AA?$AA@ 00490cdc     BootEncryption.obj
 0002:00000ce8       ??_C@_1M@MFMOBGI@?$AAu?$AAk?$AA?9?$AAU?$AAA?$AA?$AA@ 00490ce8     BootEncryption.obj
 0002:00000cf4       ??_C@_1M@OBGLJIPL@?$AAb?$AAe?$AA?9?$AAB?$AAY?$AA?$AA@ 00490cf4     BootEncryption.obj
 0002:00000d00       ??_C@_1M@BCFAJEAD@?$AAs?$AAl?$AA?9?$AAS?$AAI?$AA?$AA@ 00490d00     BootEncryption.obj
 0002:00000d0c       ??_C@_1M@FKFFEDDN@?$AAe?$AAt?$AA?9?$AAE?$AAE?$AA?$AA@ 00490d0c     BootEncryption.obj
 0002:00000d18       ??_C@_1M@KGKKAACI@?$AAl?$AAv?$AA?9?$AAL?$AAV?$AA?$AA@ 00490d18     BootEncryption.obj
 0002:00000d24       ??_C@_1M@IFGBIJO@?$AAl?$AAt?$AA?9?$AAL?$AAT?$AA?$AA@ 00490d24     BootEncryption.obj
 0002:00000d30       ??_C@_1M@FGEAHEDM@?$AAf?$AAa?$AA?9?$AAI?$AAR?$AA?$AA@ 00490d30     BootEncryption.obj
 0002:00000d3c       ??_C@_1M@KBMAIBFN@?$AAv?$AAi?$AA?9?$AAV?$AAN?$AA?$AA@ 00490d3c     BootEncryption.obj
 0002:00000d48       ??_C@_1M@GPCBKDJK@?$AAh?$AAy?$AA?9?$AAA?$AAM?$AA?$AA@ 00490d48     BootEncryption.obj
 0002:00000d54       ??_C@_1BG@BECMDDJB@?$AAa?$AAz?$AA?9?$AAA?$AAZ?$AA?9?$AAL?$AAa?$AAt?$AAn?$AA?$AA@ 00490d54     BootEncryption.obj
 0002:00000d6c       ??_C@_1M@MAOFCAEA@?$AAe?$AAu?$AA?9?$AAE?$AAS?$AA?$AA@ 00490d6c     BootEncryption.obj
 0002:00000d78       ??_C@_1M@IGHABKPI@?$AAm?$AAk?$AA?9?$AAM?$AAK?$AA?$AA@ 00490d78     BootEncryption.obj
 0002:00000d84       ??_C@_1M@IAIGNEJG@?$AAt?$AAn?$AA?9?$AAZ?$AAA?$AA?$AA@ 00490d84     BootEncryption.obj
 0002:00000d90       ??_C@_1M@IIJCOJFA@?$AAx?$AAh?$AA?9?$AAZ?$AAA?$AA?$AA@ 00490d90     BootEncryption.obj
 0002:00000d9c       ??_C@_1M@LGPJHNJH@?$AAz?$AAu?$AA?9?$AAZ?$AAA?$AA?$AA@ 00490d9c     BootEncryption.obj
 0002:00000da8       ??_C@_1M@HOKAOIO@?$AAa?$AAf?$AA?9?$AAZ?$AAA?$AA?$AA@ 00490da8     BootEncryption.obj
 0002:00000db4       ??_C@_1M@DPCLHLIE@?$AAk?$AAa?$AA?9?$AAG?$AAE?$AA?$AA@ 00490db4     BootEncryption.obj
 0002:00000dc0       ??_C@_1M@BLKMHJBI@?$AAf?$AAo?$AA?9?$AAF?$AAO?$AA?$AA@ 00490dc0     BootEncryption.obj
 0002:00000dcc       ??_C@_1M@LGGJAPPB@?$AAh?$AAi?$AA?9?$AAI?$AAN?$AA?$AA@ 00490dcc     BootEncryption.obj
 0002:00000dd8       ??_C@_1M@FIKPIHFE@?$AAm?$AAt?$AA?9?$AAM?$AAT?$AA?$AA@ 00490dd8     BootEncryption.obj
 0002:00000de4       ??_C@_1M@HEGGPBFA@?$AAs?$AAe?$AA?9?$AAN?$AAO?$AA?$AA@ 00490de4     BootEncryption.obj
 0002:00000df0       ??_C@_1M@EIBJEEPA@?$AAm?$AAs?$AA?9?$AAM?$AAY?$AA?$AA@ 00490df0     BootEncryption.obj
 0002:00000dfc       ??_C@_1M@FHLBGMPP@?$AAk?$AAk?$AA?9?$AAK?$AAZ?$AA?$AA@ 00490dfc     BootEncryption.obj
 0002:00000e08       ??_C@_1M@NGJJLCGI@?$AAk?$AAy?$AA?9?$AAK?$AAG?$AA?$AA@ 00490e08     BootEncryption.obj
 0002:00000e14       ??_C@_1M@GIENNBFC@?$AAs?$AAw?$AA?9?$AAK?$AAE?$AA?$AA@ 00490e14     BootEncryption.obj
 0002:00000e20       ??_C@_1BG@NDGMJIMJ@?$AAu?$AAz?$AA?9?$AAU?$AAZ?$AA?9?$AAL?$AAa?$AAt?$AAn?$AA?$AA@ 00490e20     BootEncryption.obj
 0002:00000e38       ??_C@_1M@IDCCIHBC@?$AAt?$AAt?$AA?9?$AAR?$AAU?$AA?$AA@ 00490e38     BootEncryption.obj
 0002:00000e44       ??_C@_1M@LOICPMOJ@?$AAb?$AAn?$AA?9?$AAI?$AAN?$AA?$AA@ 00490e44     BootEncryption.obj
 0002:00000e50       ??_C@_1M@KPKKNEAH@?$AAp?$AAa?$AA?9?$AAI?$AAN?$AA?$AA@ 00490e50     BootEncryption.obj
 0002:00000e5c       ??_C@_1M@PJGPPBOG@?$AAg?$AAu?$AA?9?$AAI?$AAN?$AA?$AA@ 00490e5c     BootEncryption.obj
 0002:00000e68       ??_C@_1M@KMKMOPHI@?$AAt?$AAa?$AA?9?$AAI?$AAN?$AA?$AA@ 00490e68     BootEncryption.obj
 0002:00000e74       ??_C@_1M@KFEHEPAC@?$AAt?$AAe?$AA?9?$AAI?$AAN?$AA?$AA@ 00490e74     BootEncryption.obj
 0002:00000e80       ??_C@_1M@CDCLMGHI@?$AAk?$AAn?$AA?9?$AAI?$AAN?$AA?$AA@ 00490e80     BootEncryption.obj
 0002:00000e8c       ??_C@_1M@MIODLDKF@?$AAm?$AAl?$AA?9?$AAI?$AAN?$AA?$AA@ 00490e8c     BootEncryption.obj
 0002:00000e98       ??_C@_1M@PBIEACPO@?$AAm?$AAr?$AA?9?$AAI?$AAN?$AA?$AA@ 00490e98     BootEncryption.obj
 0002:00000ea4       ??_C@_1M@NIDEAGPH@?$AAs?$AAa?$AA?9?$AAI?$AAN?$AA?$AA@ 00490ea4     BootEncryption.obj
 0002:00000eb0       ??_C@_1M@FHIHCBIO@?$AAm?$AAn?$AA?9?$AAM?$AAN?$AA?$AA@ 00490eb0     BootEncryption.obj
 0002:00000ebc       ??_C@_1M@JAIJPENP@?$AAc?$AAy?$AA?9?$AAG?$AAB?$AA?$AA@ 00490ebc     BootEncryption.obj
 0002:00000ec8       ??_C@_1M@PHGFBEPN@?$AAg?$AAl?$AA?9?$AAE?$AAS?$AA?$AA@ 00490ec8     BootEncryption.obj
 0002:00000ed4       ??_C@_1O@KPIPDNCP@?$AAk?$AAo?$AAk?$AA?9?$AAI?$AAN?$AA?$AA@ 00490ed4     BootEncryption.obj
 0002:00000ee4       ??_C@_1O@KNHJLDJA@?$AAs?$AAy?$AAr?$AA?9?$AAS?$AAY?$AA?$AA@ 00490ee4     BootEncryption.obj
 0002:00000ef4       ??_C@_1O@MKEKBLAH@?$AAd?$AAi?$AAv?$AA?9?$AAM?$AAV?$AA?$AA@ 00490ef4     BootEncryption.obj
 0002:00000f04       ??_C@_1O@OHDCKDDF@?$AAq?$AAu?$AAz?$AA?9?$AAB?$AAO?$AA?$AA@ 00490f04     BootEncryption.obj
 0002:00000f14       ??_C@_1M@LEPJNLFD@?$AAn?$AAs?$AA?9?$AAZ?$AAA?$AA?$AA@ 00490f14     BootEncryption.obj
 0002:00000f20       ??_C@_1M@OMLEIIJB@?$AAm?$AAi?$AA?9?$AAN?$AAZ?$AA?$AA@ 00490f20     BootEncryption.obj
 0002:00000f2c       ??_C@_1M@PMPEAILG@?$AAa?$AAr?$AA?9?$AAI?$AAQ?$AA?$AA@ 00490f2c     BootEncryption.obj
 0002:00000f38       ??_C@_1M@BIBDDEMK@?$AAz?$AAh?$AA?9?$AAC?$AAN?$AA?$AA@ 00490f38     BootEncryption.obj
 0002:00000f44       ??_C@_1M@CNKPNOEE@?$AAd?$AAe?$AA?9?$AAC?$AAH?$AA?$AA@ 00490f44     BootEncryption.obj
 0002:00000f50       ??_C@_1M@LKMGMLKO@?$AAe?$AAn?$AA?9?$AAG?$AAB?$AA?$AA@ 00490f50     BootEncryption.obj
 0002:00000f5c       ??_C@_1M@PGKJFFGL@?$AAe?$AAs?$AA?9?$AAM?$AAX?$AA?$AA@ 00490f5c     BootEncryption.obj
 0002:00000f68       ??_C@_1M@DNNANBDC@?$AAf?$AAr?$AA?9?$AAB?$AAE?$AA?$AA@ 00490f68     BootEncryption.obj
 0002:00000f74       ??_C@_1M@HLGMDFHM@?$AAi?$AAt?$AA?9?$AAC?$AAH?$AA?$AA@ 00490f74     BootEncryption.obj
 0002:00000f80       ??_C@_1M@CLLBGJH@?$AAn?$AAl?$AA?9?$AAB?$AAE?$AA?$AA@ 00490f80     BootEncryption.obj
 0002:00000f8c       ??_C@_1M@BODBOGLF@?$AAn?$AAn?$AA?9?$AAN?$AAO?$AA?$AA@ 00490f8c     BootEncryption.obj
 0002:00000f98       ??_C@_1M@HFFAHKAD@?$AAp?$AAt?$AA?9?$AAP?$AAT?$AA?$AA@ 00490f98     BootEncryption.obj
 0002:00000fa4       ??_C@_1BG@LNOAKHIE@?$AAs?$AAr?$AA?9?$AAS?$AAP?$AA?9?$AAL?$AAa?$AAt?$AAn?$AA?$AA@ 00490fa4     BootEncryption.obj
 0002:00000fbc       ??_C@_1M@HBMHBGAK@?$AAs?$AAv?$AA?9?$AAF?$AAI?$AA?$AA@ 00490fbc     BootEncryption.obj
 0002:00000fc8       ??_C@_1BG@DGCJGJBE@?$AAa?$AAz?$AA?9?$AAA?$AAZ?$AA?9?$AAC?$AAy?$AAr?$AAl?$AA?$AA@ 00490fc8     BootEncryption.obj
 0002:00000fe0       ??_C@_1M@KEJDAAHB@?$AAs?$AAe?$AA?9?$AAS?$AAE?$AA?$AA@ 00490fe0     BootEncryption.obj
 0002:00000fec       ??_C@_1M@HEIBJJAD@?$AAm?$AAs?$AA?9?$AAB?$AAN?$AA?$AA@ 00490fec     BootEncryption.obj
 0002:00000ff8       ??_C@_1BG@PBGJMCEM@?$AAu?$AAz?$AA?9?$AAU?$AAZ?$AA?9?$AAC?$AAy?$AAr?$AAl?$AA?$AA@ 00490ff8     BootEncryption.obj
 0002:00001010       ??_C@_1O@LAOBCMDF@?$AAq?$AAu?$AAz?$AA?9?$AAE?$AAC?$AA?$AA@ 00491010     BootEncryption.obj
 0002:00001020       ??_C@_1M@POEEMAIO@?$AAa?$AAr?$AA?9?$AAE?$AAG?$AA?$AA@ 00491020     BootEncryption.obj
 0002:0000102c       ??_C@_1M@EFAKDEDL@?$AAz?$AAh?$AA?9?$AAH?$AAK?$AA?$AA@ 0049102c     BootEncryption.obj
 0002:00001038       ??_C@_1M@HKKIJHGI@?$AAd?$AAe?$AA?9?$AAA?$AAT?$AA?$AA@ 00491038     BootEncryption.obj
 0002:00001044       ??_C@_1M@KBFBEHJF@?$AAe?$AAn?$AA?9?$AAA?$AAU?$AA?$AA@ 00491044     BootEncryption.obj
 0002:00001050       ??_C@_1M@MNPLFAAH@?$AAe?$AAs?$AA?9?$AAE?$AAS?$AA?$AA@ 00491050     BootEncryption.obj
 0002:0000105c       ??_C@_1M@HJOOJFMA@?$AAf?$AAr?$AA?9?$AAC?$AAA?$AA?$AA@ 0049105c     BootEncryption.obj
 0002:00001068       ??_C@_1BG@JPOFPNAB@?$AAs?$AAr?$AA?9?$AAS?$AAP?$AA?9?$AAC?$AAy?$AAr?$AAl?$AA?$AA@ 00491068     BootEncryption.obj
 0002:00001080       ??_C@_1M@LNFOCMOB@?$AAs?$AAe?$AA?9?$AAF?$AAI?$AA?$AA@ 00491080     BootEncryption.obj
 0002:0000108c       ??_C@_1O@MGJBOAMB@?$AAq?$AAu?$AAz?$AA?9?$AAP?$AAE?$AA?$AA@ 0049108c     BootEncryption.obj
 0002:0000109c       ??_C@_1M@GJINLBOK@?$AAa?$AAr?$AA?9?$AAL?$AAY?$AA?$AA@ 0049109c     BootEncryption.obj
 0002:000010a8       ??_C@_1M@GGMNHJNL@?$AAz?$AAh?$AA?9?$AAS?$AAG?$AA?$AA@ 004910a8     BootEncryption.obj
 0002:000010b4       ??_C@_1M@HOIKODND@?$AAd?$AAe?$AA?9?$AAL?$AAU?$AA?$AA@ 004910b4     BootEncryption.obj
 0002:000010c0       ??_C@_1M@DDOCCGFG@?$AAe?$AAn?$AA?9?$AAC?$AAA?$AA?$AA@ 004910c0     BootEncryption.obj
 0002:000010cc       ??_C@_1M@BNOEMJLF@?$AAe?$AAs?$AA?9?$AAG?$AAT?$AA?$AA@ 004910cc     BootEncryption.obj
 0002:000010d8       ??_C@_1M@EOGNKEK@?$AAf?$AAr?$AA?9?$AAC?$AAH?$AA?$AA@ 004910d8     BootEncryption.obj
 0002:000010e4       ??_C@_1M@FLIDJFHL@?$AAh?$AAr?$AA?9?$AAB?$AAA?$AA?$AA@ 004910e4     BootEncryption.obj
 0002:000010f0       ??_C@_1O@FMCELNAJ@?$AAs?$AAm?$AAj?$AA?9?$AAN?$AAO?$AA?$AA@ 004910f0     BootEncryption.obj
 0002:00001100       ??_C@_1M@JHGLJMGJ@?$AAa?$AAr?$AA?9?$AAD?$AAZ?$AA?$AA@ 00491100     BootEncryption.obj
 0002:0000110c       ??_C@_1M@JKKFDCNP@?$AAz?$AAh?$AA?9?$AAM?$AAO?$AA?$AA@ 0049110c     BootEncryption.obj
 0002:00001118       ??_C@_1M@GEEFALPE@?$AAd?$AAe?$AA?9?$AAL?$AAI?$AA?$AA@ 00491118     BootEncryption.obj
 0002:00001124       ??_C@_1M@IGEOFBG@?$AAe?$AAn?$AA?9?$AAN?$AAZ?$AA?$AA@ 00491124     BootEncryption.obj
 0002:00001130       ??_C@_1M@KDBONEHP@?$AAe?$AAs?$AA?9?$AAC?$AAR?$AA?$AA@ 00491130     BootEncryption.obj
 0002:0000113c       ??_C@_1M@FHMDOHNN@?$AAf?$AAr?$AA?9?$AAL?$AAU?$AA?$AA@ 0049113c     BootEncryption.obj
 0002:00001148       ??_C@_1BG@NFKKMAFG@?$AAb?$AAs?$AA?9?$AAB?$AAA?$AA?9?$AAL?$AAa?$AAt?$AAn?$AA?$AA@ 00491148     BootEncryption.obj
 0002:00001160       ??_C@_1O@IMNBEMCI@?$AAs?$AAm?$AAj?$AA?9?$AAS?$AAE?$AA?$AA@ 00491160     BootEncryption.obj
 0002:00001170       ??_C@_1M@DHHMBNDP@?$AAa?$AAr?$AA?9?$AAM?$AAA?$AA?$AA@ 00491170     BootEncryption.obj
 0002:0000117c       ??_C@_1M@BNBLJCGH@?$AAe?$AAn?$AA?9?$AAI?$AAE?$AA?$AA@ 0049117c     BootEncryption.obj
 0002:00001188       ??_C@_1M@GEPAFMDL@?$AAe?$AAs?$AA?9?$AAP?$AAA?$AA?$AA@ 00491188     BootEncryption.obj
 0002:00001194       ??_C@_1M@OJONDMDL@?$AAf?$AAr?$AA?9?$AAM?$AAC?$AA?$AA@ 00491194     BootEncryption.obj
 0002:000011a0       ??_C@_1BG@OBCNFJB@?$AAs?$AAr?$AA?9?$AAB?$AAA?$AA?9?$AAL?$AAa?$AAt?$AAn?$AA?$AA@ 004911a0     BootEncryption.obj
 0002:000011b8       ??_C@_1O@KEMEEGPO@?$AAs?$AAm?$AAa?$AA?9?$AAN?$AAO?$AA?$AA@ 004911b8     BootEncryption.obj
 0002:000011c8       ??_C@_1M@ELMGFODK@?$AAa?$AAr?$AA?9?$AAT?$AAN?$AA?$AA@ 004911c8     BootEncryption.obj
 0002:000011d4       ??_C@_1M@BHDLHFAF@?$AAe?$AAn?$AA?9?$AAZ?$AAA?$AA?$AA@ 004911d4     BootEncryption.obj
 0002:000011e0       ??_C@_1M@BMGIGLIF@?$AAe?$AAs?$AA?9?$AAD?$AAO?$AA?$AA@ 004911e0     BootEncryption.obj
 0002:000011ec       ??_C@_1BG@CMBHIPBE@?$AAs?$AAr?$AA?9?$AAB?$AAA?$AA?9?$AAC?$AAy?$AAr?$AAl?$AA?$AA@ 004911ec     BootEncryption.obj
 0002:00001204       ??_C@_1O@HEDBLHNP@?$AAs?$AAm?$AAa?$AA?9?$AAS?$AAE?$AA?$AA@ 00491204     BootEncryption.obj
 0002:00001214       ??_C@_1M@DAGCADIM@?$AAa?$AAr?$AA?9?$AAO?$AAM?$AA?$AA@ 00491214     BootEncryption.obj
 0002:00001220       ??_C@_1M@FODLMICG@?$AAe?$AAn?$AA?9?$AAJ?$AAM?$AA?$AA@ 00491220     BootEncryption.obj
 0002:0000122c       ??_C@_1M@DNMLCIHB@?$AAe?$AAs?$AA?9?$AAV?$AAE?$AA?$AA@ 0049122c     BootEncryption.obj
 0002:00001238       ??_C@_1O@EOKHMKJK@?$AAs?$AAm?$AAs?$AA?9?$AAF?$AAI?$AA?$AA@ 00491238     BootEncryption.obj
 0002:00001248       ??_C@_1M@CAFJMKOF@?$AAa?$AAr?$AA?9?$AAY?$AAE?$AA?$AA@ 00491248     BootEncryption.obj
 0002:00001254       ??_C@_1M@CBFHIJLI@?$AAe?$AAn?$AA?9?$AAC?$AAB?$AA?$AA@ 00491254     BootEncryption.obj
 0002:00001260       ??_C@_1M@BGNFLDN@?$AAe?$AAs?$AA?9?$AAC?$AAO?$AA?$AA@ 00491260     BootEncryption.obj
 0002:0000126c       ??_C@_1O@JMPHMAMC@?$AAs?$AAm?$AAn?$AA?9?$AAF?$AAI?$AA?$AA@ 0049126c     BootEncryption.obj
 0002:0000127c       ??_C@_1M@JLANABKE@?$AAa?$AAr?$AA?9?$AAS?$AAY?$AA?$AA@ 0049127c     BootEncryption.obj
 0002:00001288       ??_C@_1M@HPKGCFGN@?$AAe?$AAn?$AA?9?$AAB?$AAZ?$AA?$AA@ 00491288     BootEncryption.obj
 0002:00001294       ??_C@_1M@OLJCMLGM@?$AAe?$AAs?$AA?9?$AAP?$AAE?$AA?$AA@ 00491294     BootEncryption.obj
 0002:000012a0       ??_C@_1M@MKKGFKLE@?$AAa?$AAr?$AA?9?$AAJ?$AAO?$AA?$AA@ 004912a0     BootEncryption.obj
 0002:000012ac       ??_C@_1M@EKPGLDNI@?$AAe?$AAn?$AA?9?$AAT?$AAT?$AA?$AA@ 004912ac     BootEncryption.obj
 0002:000012b8       ??_C@_1M@OONGHFHE@?$AAe?$AAs?$AA?9?$AAA?$AAR?$AA?$AA@ 004912b8     BootEncryption.obj
 0002:000012c4       ??_C@_1M@OOJFGBHE@?$AAa?$AAr?$AA?9?$AAL?$AAB?$AA?$AA@ 004912c4     BootEncryption.obj
 0002:000012d0       ??_C@_1M@GCEJHNEG@?$AAe?$AAn?$AA?9?$AAZ?$AAW?$AA?$AA@ 004912d0     BootEncryption.obj
 0002:000012dc       ??_C@_1M@JNOCAHJI@?$AAe?$AAs?$AA?9?$AAE?$AAC?$AA?$AA@ 004912dc     BootEncryption.obj
 0002:000012e8       ??_C@_1M@JEFHPGGB@?$AAa?$AAr?$AA?9?$AAK?$AAW?$AA?$AA@ 004912e8     BootEncryption.obj
 0002:000012f4       ??_C@_1M@MLKIBJOJ@?$AAe?$AAn?$AA?9?$AAP?$AAH?$AA?$AA@ 004912f4     BootEncryption.obj
 0002:00001300       ??_C@_1M@BDNIPEND@?$AAe?$AAs?$AA?9?$AAC?$AAL?$AA?$AA@ 00491300     BootEncryption.obj
 0002:0000130c       ??_C@_1M@MPNMEKBD@?$AAa?$AAr?$AA?9?$AAA?$AAE?$AA?$AA@ 0049130c     BootEncryption.obj
 0002:00001318       ??_C@_1M@KBJALCPI@?$AAe?$AAs?$AA?9?$AAU?$AAY?$AA?$AA@ 00491318     BootEncryption.obj
 0002:00001324       ??_C@_1M@LLCCOAGA@?$AAa?$AAr?$AA?9?$AAB?$AAH?$AA?$AA@ 00491324     BootEncryption.obj
 0002:00001330       ??_C@_1M@PBFNCDEL@?$AAe?$AAs?$AA?9?$AAP?$AAY?$AA?$AA@ 00491330     BootEncryption.obj
 0002:0000133c       ??_C@_1M@EDGINPNP@?$AAa?$AAr?$AA?9?$AAQ?$AAA?$AA?$AA@ 0049133c     BootEncryption.obj
 0002:00001348       ??_C@_1M@MKDBIIJI@?$AAe?$AAs?$AA?9?$AAB?$AAO?$AA?$AA@ 00491348     BootEncryption.obj
 0002:00001354       ??_C@_1M@CPKKEBLD@?$AAe?$AAs?$AA?9?$AAS?$AAV?$AA?$AA@ 00491354     BootEncryption.obj
 0002:00001360       ??_C@_1M@NDBGMMJL@?$AAe?$AAs?$AA?9?$AAH?$AAN?$AA?$AA@ 00491360     BootEncryption.obj
 0002:0000136c       ??_C@_1M@JIJIBHDP@?$AAe?$AAs?$AA?9?$AAN?$AAI?$AA?$AA@ 0049136c     BootEncryption.obj
 0002:00001378       ??_C@_1M@CGFMKEEK@?$AAe?$AAs?$AA?9?$AAP?$AAR?$AA?$AA@ 00491378     BootEncryption.obj
 0002:00001384       ??_C@_1O@ICJHKIIK@?$AAz?$AAh?$AA?9?$AAC?$AAH?$AAT?$AA?$AA@ 00491384     BootEncryption.obj
 0002:00001394       ??_C@_15CLNEJCE@?$AAs?$AAr?$AA?$AA@ 00491394     BootEncryption.obj
 0002:0000139c       ??_C@_1M@KAHEKEIG@?$AAa?$AAf?$AA?9?$AAz?$AAa?$AA?$AA@ 0049139c     BootEncryption.obj
 0002:000013a8       ??_C@_1M@GIECOABL@?$AAa?$AAr?$AA?9?$AAa?$AAe?$AA?$AA@ 004913a8     BootEncryption.obj
 0002:000013b4       ??_C@_1M@BMLMEKGI@?$AAa?$AAr?$AA?9?$AAb?$AAh?$AA?$AA@ 004913b4     BootEncryption.obj
 0002:000013c0       ??_C@_1M@DAPFDGGB@?$AAa?$AAr?$AA?9?$AAd?$AAz?$AA?$AA@ 004913c0     BootEncryption.obj
 0002:000013cc       ??_C@_1M@FJNKGKIG@?$AAa?$AAr?$AA?9?$AAe?$AAg?$AA?$AA@ 004913cc     BootEncryption.obj
 0002:000013d8       ??_C@_1M@FLGKKCLO@?$AAa?$AAr?$AA?9?$AAi?$AAq?$AA?$AA@ 004913d8     BootEncryption.obj
 0002:000013e4       ??_C@_1M@GNDIPALM@?$AAa?$AAr?$AA?9?$AAj?$AAo?$AA?$AA@ 004913e4     BootEncryption.obj
 0002:000013f0       ??_C@_1M@DDMJFMGJ@?$AAa?$AAr?$AA?9?$AAk?$AAw?$AA?$AA@ 004913f0     BootEncryption.obj
 0002:000013fc       ??_C@_1M@EJALMLHM@?$AAa?$AAr?$AA?9?$AAl?$AAb?$AA?$AA@ 004913fc     BootEncryption.obj
 0002:00001408       ??_C@_1M@MOBDBLOC@?$AAa?$AAr?$AA?9?$AAl?$AAy?$AA?$AA@ 00491408     BootEncryption.obj
 0002:00001414       ??_C@_1M@JAOCLHDH@?$AAa?$AAr?$AA?9?$AAm?$AAa?$AA?$AA@ 00491414     BootEncryption.obj
 0002:00001420       ??_C@_1M@JHPMKJIE@?$AAa?$AAr?$AA?9?$AAo?$AAm?$AA?$AA@ 00491420     BootEncryption.obj
 0002:0000142c       ??_C@_1M@OEPGHFNH@?$AAa?$AAr?$AA?9?$AAq?$AAa?$AA?$AA@ 0049142c     BootEncryption.obj
 0002:00001438       ??_C@_1M@KJDONENM@?$AAa?$AAr?$AA?9?$AAs?$AAa?$AA?$AA@ 00491438     BootEncryption.obj
 0002:00001444       ??_C@_1M@DMJDKLKM@?$AAa?$AAr?$AA?9?$AAs?$AAy?$AA?$AA@ 00491444     BootEncryption.obj
 0002:00001450       ??_C@_1M@OMFIPEDC@?$AAa?$AAr?$AA?9?$AAt?$AAn?$AA?$AA@ 00491450     BootEncryption.obj
 0002:0000145c       ??_C@_1M@IHMHGAON@?$AAa?$AAr?$AA?9?$AAy?$AAe?$AA?$AA@ 0049145c     BootEncryption.obj
 0002:00001468       ??_C@_1BG@KDCPGJGB@?$AAa?$AAz?$AA?9?$AAa?$AAz?$AA?9?$AAc?$AAy?$AAr?$AAl?$AA?$AA@ 00491468     BootEncryption.obj
 0002:00001480       ??_C@_1BG@IBCKDDOE@?$AAa?$AAz?$AA?9?$AAa?$AAz?$AA?9?$AAl?$AAa?$AAt?$AAn?$AA?$AA@ 00491480     BootEncryption.obj
 0002:00001498       ??_C@_1M@EGPFDCPD@?$AAb?$AAe?$AA?9?$AAb?$AAy?$AA?$AA@ 00491498     BootEncryption.obj
 0002:000014a4       ??_C@_1M@PCMGMCGC@?$AAb?$AAg?$AA?9?$AAb?$AAg?$AA?$AA@ 004914a4     BootEncryption.obj
 0002:000014b0       ??_C@_1M@BJBMFGOB@?$AAb?$AAn?$AA?9?$AAi?$AAn?$AA?$AA@ 004914b0     BootEncryption.obj
 0002:000014bc       ??_C@_1BG@EAKMMACD@?$AAb?$AAs?$AA?9?$AAb?$AAa?$AA?9?$AAl?$AAa?$AAt?$AAn?$AA?$AA@ 004914bc     BootEncryption.obj
 0002:000014d4       ??_C@_1M@KGADAODK@?$AAc?$AAa?$AA?9?$AAe?$AAs?$AA?$AA@ 004914d4     BootEncryption.obj
 0002:000014e0       ??_C@_1M@COAJPDHI@?$AAc?$AAs?$AA?9?$AAc?$AAz?$AA?$AA@ 004914e0     BootEncryption.obj
 0002:000014ec       ??_C@_1M@DHBHFONH@?$AAc?$AAy?$AA?9?$AAg?$AAb?$AA?$AA@ 004914ec     BootEncryption.obj
 0002:000014f8       ??_C@_1M@IMGKELGA@?$AAd?$AAa?$AA?9?$AAd?$AAk?$AA?$AA@ 004914f8     BootEncryption.obj
 0002:00001504       ??_C@_1M@NNDGDNGA@?$AAd?$AAe?$AA?9?$AAa?$AAt?$AA?$AA@ 00491504     BootEncryption.obj
 0002:00001510       ??_C@_1M@IKDBHEEM@?$AAd?$AAe?$AA?9?$AAc?$AAh?$AA?$AA@ 00491510     BootEncryption.obj
 0002:0000151c       ??_C@_1M@GFFOJMCJ@?$AAd?$AAe?$AA?9?$AAd?$AAe?$AA?$AA@ 0049151c     BootEncryption.obj
 0002:00001528       ??_C@_1M@MDNLKBPM@?$AAd?$AAe?$AA?9?$AAl?$AAi?$AA?$AA@ 00491528     BootEncryption.obj
 0002:00001534       ??_C@_1M@NJBEEJNL@?$AAd?$AAe?$AA?9?$AAl?$AAu?$AA?$AA@ 00491534     BootEncryption.obj
 0002:00001540       ??_C@_1O@GNNELBAP@?$AAd?$AAi?$AAv?$AA?9?$AAm?$AAv?$AA?$AA@ 00491540     BootEncryption.obj
 0002:00001550       ??_C@_1M@EJLEOGAE@?$AAe?$AAl?$AA?9?$AAg?$AAr?$AA?$AA@ 00491550     BootEncryption.obj
 0002:0000155c       ??_C@_1M@GMPONJN@?$AAe?$AAn?$AA?9?$AAa?$AAu?$AA?$AA@ 0049155c     BootEncryption.obj
 0002:00001568       ??_C@_1M@NIDIIPGF@?$AAe?$AAn?$AA?9?$AAb?$AAz?$AA?$AA@ 00491568     BootEncryption.obj
 0002:00001574       ??_C@_1M@JEHMIMFO@?$AAe?$AAn?$AA?9?$AAc?$AAa?$AA?$AA@ 00491574     BootEncryption.obj
 0002:00001580       ??_C@_1M@IGMJCDLA@?$AAe?$AAn?$AA?9?$AAc?$AAb?$AA?$AA@ 00491580     BootEncryption.obj
 0002:0000158c       ??_C@_1M@BNFIGBKG@?$AAe?$AAn?$AA?9?$AAg?$AAb?$AA?$AA@ 0049158c     BootEncryption.obj
 0002:00001598       ??_C@_1M@LKIFDIGP@?$AAe?$AAn?$AA?9?$AAi?$AAe?$AA?$AA@ 00491598     BootEncryption.obj
 0002:000015a4       ??_C@_1M@PJKFGCCO@?$AAe?$AAn?$AA?9?$AAj?$AAm?$AA?$AA@ 004915a4     BootEncryption.obj
 0002:000015b0       ??_C@_1M@KPPKEPBO@?$AAe?$AAn?$AA?9?$AAn?$AAz?$AA?$AA@ 004915b0     BootEncryption.obj
 0002:000015bc       ??_C@_1M@GMDGLDOB@?$AAe?$AAn?$AA?9?$AAp?$AAh?$AA?$AA@ 004915bc     BootEncryption.obj
 0002:000015c8       ??_C@_1M@ONGIBJNA@?$AAe?$AAn?$AA?9?$AAt?$AAt?$AA?$AA@ 004915c8     BootEncryption.obj
 0002:000015d4       ??_C@_1M@LLODPCMM@?$AAe?$AAn?$AA?9?$AAu?$AAs?$AA?$AA@ 004915d4     BootEncryption.obj
 0002:000015e0       ??_C@_1M@LAKFNPAN@?$AAe?$AAn?$AA?9?$AAz?$AAa?$AA?$AA@ 004915e0     BootEncryption.obj
 0002:000015ec       ??_C@_1M@MFNHNHEO@?$AAe?$AAn?$AA?9?$AAz?$AAw?$AA?$AA@ 004915ec     BootEncryption.obj
 0002:000015f8       ??_C@_1M@EJEINPHM@?$AAe?$AAs?$AA?9?$AAa?$AAr?$AA?$AA@ 004915f8     BootEncryption.obj
 0002:00001604       ??_C@_1M@GNKPCCJA@?$AAe?$AAs?$AA?9?$AAb?$AAo?$AA?$AA@ 00491604     BootEncryption.obj
 0002:00001610       ??_C@_1M@LEEGFONL@?$AAe?$AAs?$AA?9?$AAc?$AAl?$AA?$AA@ 00491610     BootEncryption.obj
 0002:0000161c       ??_C@_1M@KGPDPBDF@?$AAe?$AAs?$AA?9?$AAc?$AAo?$AA?$AA@ 0049161c     BootEncryption.obj
 0002:00001628       ??_C@_1M@EIAHOHH@?$AAe?$AAs?$AA?9?$AAc?$AAr?$AA?$AA@ 00491628     BootEncryption.obj
 0002:00001634       ??_C@_1M@LLPGMBIN@?$AAe?$AAs?$AA?9?$AAd?$AAo?$AA?$AA@ 00491634     BootEncryption.obj
 0002:00001640       ??_C@_1M@DKHMKNJA@?$AAe?$AAs?$AA?9?$AAe?$AAc?$AA?$AA@ 00491640     BootEncryption.obj
 0002:0000164c       ??_C@_1M@GKGFPKAP@?$AAe?$AAs?$AA?9?$AAe?$AAs?$AA?$AA@ 0049164c     BootEncryption.obj
 0002:00001658       ??_C@_1M@LKHKGDLN@?$AAe?$AAs?$AA?9?$AAg?$AAt?$AA?$AA@ 00491658     BootEncryption.obj
 0002:00001664       ??_C@_1M@HEIIGGJD@?$AAe?$AAs?$AA?9?$AAh?$AAn?$AA?$AA@ 00491664     BootEncryption.obj
 0002:00001670       ??_C@_1M@FBDHPPGD@?$AAe?$AAs?$AA?9?$AAm?$AAx?$AA?$AA@ 00491670     BootEncryption.obj
 0002:0000167c       ??_C@_1M@DPAGLNDH@?$AAe?$AAs?$AA?9?$AAn?$AAi?$AA?$AA@ 0049167c     BootEncryption.obj
 0002:00001688       ??_C@_1M@MDGOPGDD@?$AAe?$AAs?$AA?9?$AAp?$AAa?$AA?$AA@ 00491688     BootEncryption.obj
 0002:00001694       ??_C@_1M@EMAMGBGE@?$AAe?$AAs?$AA?9?$AAp?$AAe?$AA?$AA@ 00491694     BootEncryption.obj
 0002:000016a0       ??_C@_1M@IBMCAOEC@?$AAe?$AAs?$AA?9?$AAp?$AAr?$AA?$AA@ 004916a0     BootEncryption.obj
 0002:000016ac       ??_C@_1M@FGMDIJED@?$AAe?$AAs?$AA?9?$AAp?$AAy?$AA?$AA@ 004916ac     BootEncryption.obj
 0002:000016b8       ??_C@_1M@IIDEOLLL@?$AAe?$AAs?$AA?9?$AAs?$AAv?$AA?$AA@ 004916b8     BootEncryption.obj
 0002:000016c4       ??_C@_1M@GAOBIPA@?$AAe?$AAs?$AA?9?$AAu?$AAy?$AA?$AA@ 004916c4     BootEncryption.obj
 0002:000016d0       ??_C@_1M@JKFFICHJ@?$AAe?$AAs?$AA?9?$AAv?$AAe?$AA?$AA@ 004916d0     BootEncryption.obj
 0002:000016dc       ??_C@_1M@PNMLOJDF@?$AAe?$AAt?$AA?9?$AAe?$AAe?$AA?$AA@ 004916dc     BootEncryption.obj
 0002:000016e8       ??_C@_1M@GHHLIKEI@?$AAe?$AAu?$AA?9?$AAe?$AAs?$AA?$AA@ 004916e8     BootEncryption.obj
 0002:000016f4       ??_C@_1M@PBNONODE@?$AAf?$AAa?$AA?9?$AAi?$AAr?$AA?$AA@ 004916f4     BootEncryption.obj
 0002:00001700       ??_C@_1M@JEEHPMIL@?$AAf?$AAi?$AA?9?$AAf?$AAi?$AA?$AA@ 00491700     BootEncryption.obj
 0002:0000170c       ??_C@_1M@LMDCNDBA@?$AAf?$AAo?$AA?9?$AAf?$AAo?$AA?$AA@ 0049170c     BootEncryption.obj
 0002:00001718       ??_C@_1M@JKEOHLDK@?$AAf?$AAr?$AA?9?$AAb?$AAe?$AA?$AA@ 00491718     BootEncryption.obj
 0002:00001724       ??_C@_1M@NOHADPMI@?$AAf?$AAr?$AA?9?$AAc?$AAa?$AA?$AA@ 00491724     BootEncryption.obj
 0002:00001730       ??_C@_1M@KDHIHAEC@?$AAf?$AAr?$AA?9?$AAc?$AAh?$AA?$AA@ 00491730     BootEncryption.obj
 0002:0000173c       ??_C@_1M@MMBBFGAK@?$AAf?$AAr?$AA?9?$AAf?$AAr?$AA?$AA@ 0049173c     BootEncryption.obj
 0002:00001748       ??_C@_1M@PAFNENNF@?$AAf?$AAr?$AA?9?$AAl?$AAu?$AA?$AA@ 00491748     BootEncryption.obj
 0002:00001754       ??_C@_1M@EOHDJGDD@?$AAf?$AAr?$AA?9?$AAm?$AAc?$AA?$AA@ 00491754     BootEncryption.obj
 0002:00001760       ??_C@_1M@FAPLLOPF@?$AAg?$AAl?$AA?9?$AAe?$AAs?$AA?$AA@ 00491760     BootEncryption.obj
 0002:0000176c       ??_C@_1M@FOPBFLOO@?$AAg?$AAu?$AA?9?$AAi?$AAn?$AA?$AA@ 0049176c     BootEncryption.obj
 0002:00001778       ??_C@_1M@KBMCINPM@?$AAh?$AAe?$AA?9?$AAi?$AAl?$AA?$AA@ 00491778     BootEncryption.obj
 0002:00001784       ??_C@_1M@BBPHKFPJ@?$AAh?$AAi?$AA?9?$AAi?$AAn?$AA?$AA@ 00491784     BootEncryption.obj
 0002:00001790       ??_C@_1M@PMBNDPHD@?$AAh?$AAr?$AA?9?$AAb?$AAa?$AA?$AA@ 00491790     BootEncryption.obj
 0002:0000179c       ??_C@_1M@BPCKOEGE@?$AAh?$AAr?$AA?9?$AAh?$AAr?$AA?$AA@ 0049179c     BootEncryption.obj
 0002:000017a8       ??_C@_1M@GACBMHKE@?$AAh?$AAu?$AA?9?$AAh?$AAu?$AA?$AA@ 004917a8     BootEncryption.obj
 0002:000017b4       ??_C@_1M@MILPAJJC@?$AAh?$AAy?$AA?9?$AAa?$AAm?$AA?$AA@ 004917b4     BootEncryption.obj
 0002:000017c0       ??_C@_1M@BABBICEC@?$AAi?$AAd?$AA?9?$AAi?$AAd?$AA?$AA@ 004917c0     BootEncryption.obj
 0002:000017cc       ??_C@_1M@BIKNHHPF@?$AAi?$AAs?$AA?9?$AAi?$AAs?$AA?$AA@ 004917cc     BootEncryption.obj
 0002:000017d8       ??_C@_1M@NMPCJPHE@?$AAi?$AAt?$AA?9?$AAc?$AAh?$AA?$AA@ 004917d8     BootEncryption.obj
 0002:000017e4       ??_C@_1M@GHKGFEDF@?$AAi?$AAt?$AA?9?$AAi?$AAt?$AA?$AA@ 004917e4     BootEncryption.obj
 0002:000017f0       ??_C@_1M@NIEJCJJA@?$AAj?$AAa?$AA?9?$AAj?$AAp?$AA?$AA@ 004917f0     BootEncryption.obj
 0002:000017fc       ??_C@_1M@JILFNBIM@?$AAk?$AAa?$AA?9?$AAg?$AAe?$AA?$AA@ 004917fc     BootEncryption.obj
 0002:00001808       ??_C@_1M@PACPMGPH@?$AAk?$AAk?$AA?9?$AAk?$AAz?$AA?$AA@ 00491808     BootEncryption.obj
 0002:00001814       ??_C@_1M@IELFGMHA@?$AAk?$AAn?$AA?9?$AAi?$AAn?$AA?$AA@ 00491814     BootEncryption.obj
 0002:00001820       ??_C@_1O@IBBJHCH@?$AAk?$AAo?$AAk?$AA?9?$AAi?$AAn?$AA?$AA@ 00491820     BootEncryption.obj
 0002:00001830       ??_C@_1M@DMHAEOGC@?$AAk?$AAo?$AA?9?$AAk?$AAr?$AA?$AA@ 00491830     BootEncryption.obj
 0002:0000183c       ??_C@_1M@HBAHBIGA@?$AAk?$AAy?$AA?9?$AAk?$AAg?$AA?$AA@ 0049183c     BootEncryption.obj
 0002:00001848       ??_C@_1M@KPMILCJG@?$AAl?$AAt?$AA?9?$AAl?$AAt?$AA?$AA@ 00491848     BootEncryption.obj
 0002:00001854       ??_C@_1M@BDEKKCA@?$AAl?$AAv?$AA?9?$AAl?$AAv?$AA?$AA@ 00491854     BootEncryption.obj
 0002:00001860       ??_C@_1M@ELCKCCJJ@?$AAm?$AAi?$AA?9?$AAn?$AAz?$AA?$AA@ 00491860     BootEncryption.obj
 0002:0000186c       ??_C@_1M@CBOOLAPA@?$AAm?$AAk?$AA?9?$AAm?$AAk?$AA?$AA@ 0049186c     BootEncryption.obj
 0002:00001878       ??_C@_1M@GPHNBJKN@?$AAm?$AAl?$AA?9?$AAi?$AAn?$AA?$AA@ 00491878     BootEncryption.obj
 0002:00001884       ??_C@_1M@PABJILIG@?$AAm?$AAn?$AA?9?$AAm?$AAn?$AA?$AA@ 00491884     BootEncryption.obj
 0002:00001890       ??_C@_1M@FGBKKIPG@?$AAm?$AAr?$AA?9?$AAi?$AAn?$AA?$AA@ 00491890     BootEncryption.obj
 0002:0000189c       ??_C@_1M@NDBPDDAL@?$AAm?$AAs?$AA?9?$AAb?$AAn?$AA?$AA@ 0049189c     BootEncryption.obj
 0002:000018a8       ??_C@_1M@OPIHOOPI@?$AAm?$AAs?$AA?9?$AAm?$AAy?$AA?$AA@ 004918a8     BootEncryption.obj
 0002:000018b4       ??_C@_1M@PPDBCNFM@?$AAm?$AAt?$AA?9?$AAm?$AAt?$AA?$AA@ 004918b4     BootEncryption.obj
 0002:000018c0       ??_C@_1M@KDJDKMDD@?$AAn?$AAb?$AA?9?$AAn?$AAo?$AA?$AA@ 004918c0     BootEncryption.obj
 0002:000018cc       ??_C@_1M@KFCFLMJP@?$AAn?$AAl?$AA?9?$AAb?$AAe?$AA?$AA@ 004918cc     BootEncryption.obj
 0002:000018d8       ??_C@_1M@KPOPDDGO@?$AAn?$AAl?$AA?9?$AAn?$AAl?$AA?$AA@ 004918d8     BootEncryption.obj
 0002:000018e4       ??_C@_1M@LJKPEMLN@?$AAn?$AAn?$AA?9?$AAn?$AAo?$AA?$AA@ 004918e4     BootEncryption.obj
 0002:000018f0       ??_C@_1M@BDGHHBFL@?$AAn?$AAs?$AA?9?$AAz?$AAa?$AA?$AA@ 004918f0     BootEncryption.obj
 0002:000018fc       ??_C@_1M@IDEHOAP@?$AAp?$AAa?$AA?9?$AAi?$AAn?$AA?$AA@ 004918fc     BootEncryption.obj
 0002:00001908       ??_C@_1M@HDBKGOGH@?$AAp?$AAl?$AA?9?$AAp?$AAl?$AA?$AA@ 00491908     BootEncryption.obj
 0002:00001918       ??_7exception@std@@6B@     00491918     BootEncryption.obj
 0002:00001920       ??_C@_0BC@EOODALEL@Unknown?5exception?$AA@ 00491920     BootEncryption.obj
 0002:00001938       ??_7bad_alloc@std@@6B@     00491938     BootEncryption.obj
 0002:00001940       ??_C@_0P@GHFPNOJB@bad?5allocation?$AA@ 00491940     BootEncryption.obj
 0002:00001954       ??_7runtime_error@std@@6B@ 00491954     BootEncryption.obj
 0002:00001960       ??_7bad_cast@std@@6B@      00491960     BootEncryption.obj
 0002:00001968       ??_C@_08EPJLHIJG@bad?5cast?$AA@ 00491968     BootEncryption.obj
 0002:00001974       ??_C@_0BA@ELKIONDK@bad?5locale?5name?$AA@ 00491974     BootEncryption.obj
 0002:00001984       ??_C@_05LAPONLG@false?$AA@ 00491984     BootEncryption.obj
 0002:0000198c       ??_C@_04LOAJBDKD@true?$AA@ 0049198c     BootEncryption.obj
 0002:00001998       ??_7_Facet_base@std@@6B@   00491998     BootEncryption.obj
 0002:000019a4       ??_C@_00CNPNBAHC@?$AA@     004919a4     BootEncryption.obj
 0002:000019ac       ??_7?$ctype@D@std@@6B@     004919ac     BootEncryption.obj
 0002:000019dc       ??_7?$ctype@_W@std@@6B@    004919dc     BootEncryption.obj
 0002:00001a1c       ??_7error_category@std@@6B@ 00491a1c     BootEncryption.obj
 0002:00001a38       ??_7_System_error@std@@6B@ 00491a38     BootEncryption.obj
 0002:00001a40       ??_C@_02LMMGGCAJ@?3?5?$AA@ 00491a40     BootEncryption.obj
 0002:00001a48       ??_7system_error@std@@6B@  00491a48     BootEncryption.obj
 0002:00001a54       ??_7_Iostream_error_category@std@@6B@ 00491a54     BootEncryption.obj
 0002:00001a6c       ??_C@_08LLGCOLLL@iostream?$AA@ 00491a6c     BootEncryption.obj
 0002:00001a78       ??_C@_0BG@PADBLCHM@iostream?5stream?5error?$AA@ 00491a78     BootEncryption.obj
 0002:00001a94       ??_7failure@ios_base@std@@6B@ 00491a94     BootEncryption.obj
 0002:00001aa0       ??_7ios_base@std@@6B@      00491aa0     BootEncryption.obj
 0002:00001aa4       ??_C@_0BF@PHHKMMFD@ios_base?3?3badbit?5set?$AA@ 00491aa4     BootEncryption.obj
 0002:00001abc       ??_C@_0BG@FMKFHCIL@ios_base?3?3failbit?5set?$AA@ 00491abc     BootEncryption.obj
 0002:00001ad4       ??_C@_0BF@OOHOMBOF@ios_base?3?3eofbit?5set?$AA@ 00491ad4     BootEncryption.obj
 0002:00001af0       ??_7Container@ForEach@GostCrypt@@6B@ 00491af0     BootEncryption.obj
 0002:00001b00       ??_7Exception@GostCrypt@@6B@ 00491b00     BootEncryption.obj
 0002:00001b08       ??_7SystemException@GostCrypt@@6B@ 00491b08     BootEncryption.obj
 0002:00001b10       ??_7ErrorException@GostCrypt@@6B@ 00491b10     BootEncryption.obj
 0002:00001b18       ??_7ParameterIncorrect@GostCrypt@@6B@ 00491b18     BootEncryption.obj
 0002:00001b1c       ??_C@_01PKGAHCOL@?$CJ?$AA@ 00491b1c     BootEncryption.obj
 0002:00001b20       ??_C@_0IM@CKBKFPJM@Parameter?5incorrect?4?6?6?6?$CIIf?5you?5r@ 00491b20     BootEncryption.obj
 0002:00001bac       ??_C@_09NKHKFHLH@GostCrypt?$AA@ 00491bac     BootEncryption.obj
 0002:00001bbc       ??_7UserAbort@GostCrypt@@6B@ 00491bbc     BootEncryption.obj
 0002:00001bc0       ??_C@_0CD@HBGHDAEL@GostCrypt?3?3Elevator?3?3CallDriver?3@ 00491bc0     BootEncryption.obj
 0002:00001be4       ??_C@_0CD@BFALPFEP@GostCrypt?3?3Elevator?3?3CallDriver?3@ 00491be4     BootEncryption.obj
 0002:00001c08       ??_C@_0CH@HCJBBEHF@GostCrypt?3?3Elevator?3?3ReadWriteFi@ 00491c08     BootEncryption.obj
 0002:00001c30       ??_C@_04GBDIODIA@?2?2?4?2?$AA@ 00491c30     BootEncryption.obj
 0002:00001c3c       ??_7?$ContainerForward@V?$list@UPartition@GostCrypt@@V?$allocator@UPartition@GostCrypt@@@std@@@std@@@ForEach@GostCrypt@@6B@ 00491c3c     BootEncryption.obj
 0002:00001c48       ??_C@_05FHMJPCKA@Start?$AA@ 00491c48     BootEncryption.obj
 0002:00001c50       ??_C@_0CM@LCJDGIOL@SYSTEM?2CurrentControlSet?2Service@ 00491c50     BootEncryption.obj
 0002:00001c7c       ??_C@_15IABLJNFO@?$AA?6?$AA?6?$AA?$AA@ 00491c7c     BootEncryption.obj
 0002:00001c84       ??_C@_09JCILFBFB@gostcrypt?$AA@ 00491c84     BootEncryption.obj
 0002:00001c90       ??_C@_0BH@EJBOALFB@?2drivers?2gostcrypt?4sys?$AA@ 00491c90     BootEncryption.obj
 0002:00001ca8       ??_C@_01KICIPPFI@?2?$AA@   00491ca8     BootEncryption.obj
 0002:00001cac       ??_C@_06IBDJIBGI@Filter?$AA@ 00491cac     BootEncryption.obj
 0002:00001cb4       ??_C@_17LGGGMOOB@?$AA?$CF?$AAh?$AAs?$AA?$AA@ 00491cb4     BootEncryption.obj
 0002:00001cc0       ??_7?$basic_ios@DU?$char_traits@D@std@@@std@@6B@ 00491cc0     BootEncryption.obj
 0002:00001cc8       ??_7?$basic_istream@DU?$char_traits@D@std@@@std@@6B@ 00491cc8     BootEncryption.obj
 0002:00001cd0       ??_7?$basic_ostream@DU?$char_traits@D@std@@@std@@6B@ 00491cd0     BootEncryption.obj
 0002:00001cd8       ??_7?$basic_iostream@DU?$char_traits@D@std@@@std@@6B@ 00491cd8     BootEncryption.obj
 0002:00001cdc       ??_8?$basic_iostream@DU?$char_traits@D@std@@@std@@7B?$basic_istream@DU?$char_traits@D@std@@@1@@ 00491cdc     BootEncryption.obj
 0002:00001ce4       ??_8?$basic_iostream@DU?$char_traits@D@std@@@std@@7B?$basic_ostream@DU?$char_traits@D@std@@@1@@ 00491ce4     BootEncryption.obj
 0002:00001cf0       ??_7?$basic_streambuf@DU?$char_traits@D@std@@@std@@6B@ 00491cf0     BootEncryption.obj
 0002:00001d30       ??_7?$basic_stringbuf@DU?$char_traits@D@std@@V?$allocator@D@2@@std@@6B@ 00491d30     BootEncryption.obj
 0002:00001d70       ??_7?$basic_stringstream@DU?$char_traits@D@std@@V?$allocator@D@2@@std@@6B@ 00491d70     BootEncryption.obj
 0002:00001d74       ??_8?$basic_stringstream@DU?$char_traits@D@std@@V?$allocator@D@2@@std@@7B?$basic_istream@DU?$char_traits@D@std@@@1@@ 00491d74     BootEncryption.obj
 0002:00001d7c       ??_8?$basic_stringstream@DU?$char_traits@D@std@@V?$allocator@D@2@@std@@7B?$basic_ostream@DU?$char_traits@D@std@@@1@@ 00491d7c     BootEncryption.obj
 0002:00001d88       ??_7?$basic_ios@_WU?$char_traits@_W@std@@@std@@6B@ 00491d88     BootEncryption.obj
 0002:00001d90       ??_7?$basic_istream@_WU?$char_traits@_W@std@@@std@@6B@ 00491d90     BootEncryption.obj
 0002:00001d98       ??_7?$basic_ostream@_WU?$char_traits@_W@std@@@std@@6B@ 00491d98     BootEncryption.obj
 0002:00001da0       ??_7?$basic_iostream@_WU?$char_traits@_W@std@@@std@@6B@ 00491da0     BootEncryption.obj
 0002:00001da4       ??_8?$basic_iostream@_WU?$char_traits@_W@std@@@std@@7B?$basic_istream@_WU?$char_traits@_W@std@@@1@@ 00491da4     BootEncryption.obj
 0002:00001dac       ??_8?$basic_iostream@_WU?$char_traits@_W@std@@@std@@7B?$basic_ostream@_WU?$char_traits@_W@std@@@1@@ 00491dac     BootEncryption.obj
 0002:00001db8       ??_7?$basic_streambuf@_WU?$char_traits@_W@std@@@std@@6B@ 00491db8     BootEncryption.obj
 0002:00001df8       ??_7?$basic_stringbuf@_WU?$char_traits@_W@std@@V?$allocator@_W@2@@std@@6B@ 00491df8     BootEncryption.obj
 0002:00001e38       ??_7?$basic_stringstream@_WU?$char_traits@_W@std@@V?$allocator@_W@2@@std@@6B@ 00491e38     BootEncryption.obj
 0002:00001e3c       ??_8?$basic_stringstream@_WU?$char_traits@_W@std@@V?$allocator@_W@2@@std@@7B?$basic_istream@_WU?$char_traits@_W@std@@@1@@ 00491e3c     BootEncryption.obj
 0002:00001e44       ??_8?$basic_stringstream@_WU?$char_traits@_W@std@@V?$allocator@_W@2@@std@@7B?$basic_ostream@_WU?$char_traits@_W@std@@@1@@ 00491e44     BootEncryption.obj
 0002:00001e4c       ??_C@_0L@DPPABKKK@?2Partition?$AA@ 00491e4c     BootEncryption.obj
 0002:00001e58       ??_C@_0BB@EPPOJBJL@?2Device?2Harddisk?$AA@ 00491e58     BootEncryption.obj
 0002:00001e6c       ??_C@_01JLIPDDHJ@?3?$AA@   00491e6c     BootEncryption.obj
 0002:00001e70       ??_C@_0M@OJHKIMBP@?2Partition0?$AA@ 00491e70     BootEncryption.obj
 0002:00001e7c       ??_C@_0CN@FBLLBALE@GostCrypt?3?3BootEncryption?3?3GetTe@ 00491e7c     BootEncryption.obj
 0002:00001eac       ??_C@_0DE@OACJGKF@GostCrypt?3?3BootEncryption?3?3GetVo@ 00491eac     BootEncryption.obj
 0002:00001ee0       ??_C@_08OINNAHG@?2bootmgr?$AA@ 00491ee0     BootEncryption.obj
 0002:00001eec       ??_C@_06JLGNLLFE@?2ntldr?$AA@ 00491eec     BootEncryption.obj
 0002:00001ef4       ??_C@_1BC@EONGMCPP@?$AA?2?$AAb?$AAo?$AAo?$AAt?$AAm?$AAg?$AAr?$AA?$AA@ 00491ef4     BootEncryption.obj
 0002:00001f08       ??_C@_1O@MIGMNGND@?$AA?2?$AAn?$AAt?$AAl?$AAd?$AAr?$AA?$AA@ 00491f08     BootEncryption.obj
 0002:00001f18       ??_C@_0O@ICNEBHDC@PhysicalDrive?$AA@ 00491f18     BootEncryption.obj
 0002:00001f28       ??_C@_0DM@OMHMHGFL@GostCrypt?3?3BootEncryption?3?3GetSy@ 00491f28     BootEncryption.obj
 0002:00001f64       ??_C@_0DJ@BHABFNLC@GostCrypt?3?3BootEncryption?3?3Creat@ 00491f64     BootEncryption.obj
 0002:00001fa0       ??_C@_0DJ@HLLFALOF@GostCrypt?3?3BootEncryption?3?3Creat@ 00491fa0     BootEncryption.obj
 0002:00001fdc       ??_C@_03POBHGEJB@BIN?$AA@  00491fdc     BootEncryption.obj
 0002:00001fe0       ??_C@_0DJ@EIEBADFA@GostCrypt?3?3BootEncryption?3?3Creat@ 00491fe0     BootEncryption.obj
 0002:0000201c       ??_C@_0DJ@PCOOIHML@GostCrypt?3?3BootEncryption?3?3Creat@ 0049201c     BootEncryption.obj
 0002:00002058       ??_C@_0DJ@LNKPBBAM@GostCrypt?3?3BootEncryption?3?3Creat@ 00492058     BootEncryption.obj
 0002:00002094       ??_C@_0DJ@PDCMONPM@GostCrypt?3?3BootEncryption?3?3Creat@ 00492094     BootEncryption.obj
 0002:000020d0       ??_C@_0DF@DPDHMAHA@GostCrypt?3?3BootEncryption?3?3ReadB@ 004920d0     BootEncryption.obj
 0002:00002108       ??_C@_0BE@GPJOEGCF@ERROR_MBR_PROTECTED?$AA@ 00492108     BootEncryption.obj
 0002:0000211c       ??_C@_0DK@IOCENGCH@GostCrypt?3?3BootEncryption?3?3Write@ 0049211c     BootEncryption.obj
 0002:00002158       ??_C@_0L@CANDMBMO@?2GostCrypt?$AA@ 00492158     BootEncryption.obj
 0002:00002164       ??_C@_0BH@KENEBBHH@Original?5System?5Loader?$AA@ 00492164     BootEncryption.obj
 0002:0000217c       ??_C@_0DF@KLIDFACM@GostCrypt?3?3BootEncryption?3?3Creat@ 0049217c     BootEncryption.obj
 0002:000021b4       ??_C@_07NKOFPJFH@?$ABCD001?$AB?$AA@ 004921b4     BootEncryption.obj
 0002:000021bc       ??_C@_0CB@MBJIJKGC@GostCrypt?5Rescue?5Disk?5?5?5?5?5?5?5?5?5?5?5@ 004921bc     BootEncryption.obj
 0002:000021e0       ??_C@_0BO@DHOJLLGB@CD001?$ABEL?5TORITO?5SPECIFICATION?$AA@ 004921e0     BootEncryption.obj
 0002:00002200       ??_C@_07DAAEPPCP@?$PPCD001?$AB?$AA@ 00492200     BootEncryption.obj
 0002:00002208       ??_C@_0DF@NJKAADBI@GostCrypt?3?3BootEncryption?3?3Creat@ 00492208     BootEncryption.obj
 0002:00002240       ??_C@_0CH@FHEPLLOO@SYS_LOADER_UNAVAILABLE_FOR_RESCU@ 00492240     BootEncryption.obj
 0002:00002268       ??_C@_03OPPAHFLA@X?3?2?$AA@ 00492268     BootEncryption.obj
 0002:0000226c       ??_C@_0DB@MFFJFGID@GostCrypt?3?3BootEncryption?3?3Verif@ 0049226c     BootEncryption.obj
 0002:000022a0       ??_C@_02EHLIIHJM@X?3?$AA@  004922a0     BootEncryption.obj
 0002:000022a4       ??_C@_0N@KPKBADH@UpperFilters?$AA@ 004922a4     BootEncryption.obj
 0002:000022b4       ??_C@_0O@IAPAHIFF@gostcrypt?4sys?$AA@ 004922b4     BootEncryption.obj
 0002:000022c4       ??_C@_0M@DBKHNNPD@DumpFilters?$AA@ 004922c4     BootEncryption.obj
 0002:000022d0       ??_C@_0CO@FIPMIJLN@SYSTEM?2CurrentControlSet?2Control@ 004922d0     BootEncryption.obj
 0002:00002300       ??_C@_0CP@OJIEODCG@GostCrypt?3?3BootEncryption?3?3Regis@ 00492300     BootEncryption.obj
 0002:00002330       ??_C@_0BM@CLKNIPKP@?2gostcrypt_driver_setup?4inf?$AA@ 00492330     BootEncryption.obj
 0002:0000234c       ??_C@_03CGLHDMIP@?$CC?$AN?6?$AA@ 0049234c     BootEncryption.obj
 0002:00002350       ??_C@_02JGFLNPEJ@?0?$CC?$AA@ 00492350     BootEncryption.obj
 0002:00002354       ??_C@_04FLCDBBKO@0008?$AA@ 00492354     BootEncryption.obj
 0002:0000235c       ??_C@_04JBLMLCOF@8002?$AA@ 0049235c     BootEncryption.obj
 0002:00002364       ??_C@_08OHAGLOJG@?$CC?00x0001?$AA@ 00492364     BootEncryption.obj
 0002:00002370       ??_C@_0CN@EJNJANKE@Reg?$DNgostcrypt_reg?$AN?6?$AN?6?$FLgostcrypt_@ 00492370     BootEncryption.obj
 0002:000023a0       ??_C@_03LDFMNCOE@Add?$AA@  004923a0     BootEncryption.obj
 0002:000023a4       ??_C@_03ENJJMCOJ@Del?$AA@  004923a4     BootEncryption.obj
 0002:000023a8       ??_C@_0O@MJBIBBDL@?$FLgostcrypt?$FN?$AN?6?$AA@ 004923a8     BootEncryption.obj
 0002:000023b8       ??_C@_0DF@LDCHKMLL@GostCrypt?3?3BootEncryption?3?3Regis@ 004923b8     BootEncryption.obj
 0002:000023f0       ??_C@_0O@GKOBNEPO@GostCrypt?4exe?$AA@ 004923f0     BootEncryption.obj
 0002:00002400       ??_C@_09ENFKIOHO@Event?5Log?$AA@ 00492400     BootEncryption.obj
 0002:0000240c       ??_C@_0BK@KLJIEDOC@?$CC?5?1systemFavoritesService?$AA@ 0049240c     BootEncryption.obj
 0002:00002428       ??_C@_01BJJEKLCA@?$CC?$AA@ 00492428     BootEncryption.obj
 0002:0000242c       ??_C@_0BL@LDDPDLLO@GostCrypt?5System?5Favorites?$AA@ 0049242c     BootEncryption.obj
 0002:00002448       ??_C@_0BJ@IIGMOCCE@GostCryptSystemFavorites?$AA@ 00492448     BootEncryption.obj
 0002:00002464       ??_C@_0CK@KHOKHPEC@Mounts?5GostCrypt?5system?5favorite@ 00492464     BootEncryption.obj
 0002:00002490       ??_C@_07LMLHFMEG@Service?$AA@ 00492490     BootEncryption.obj
 0002:00002498       ??_C@_0EL@MKLMKGDH@SYSTEM?2CurrentControlSet?2Control@ 00492498     BootEncryption.obj
 0002:000024e8       ??_C@_0EL@ELDIGJGM@SYSTEM?2CurrentControlSet?2Control@ 004924e8     BootEncryption.obj
 0002:00002534       ??_C@_0DC@DDPDEKGA@SYSTEM?2CurrentControlSet?2Control@ 00492534     BootEncryption.obj
 0002:00002568       ??_C@_0DC@PMGJGMIM@SYSTEM?2CurrentControlSet?2Control@ 00492568     BootEncryption.obj
 0002:0000259c       ??_C@_0BO@EPIDJGMK@FEATURE_REQUIRES_INSTALLATION?$AA@ 0049259c     BootEncryption.obj
 0002:000025bc       ??_C@_0M@BHFNFFHI@PagingFiles?$AA@ 004925bc     BootEncryption.obj
 0002:000025c8       ??_C@_0ED@FMLJHJOD@System?2CurrentControlSet?2Control@ 004925c8     BootEncryption.obj
 0002:0000260c       ??_C@_17MFDLPPFM@?$AA?6?$AA?6?$AA?6?$AA?$AA@ 0049260c     BootEncryption.obj
 0002:00002614       ??_C@_0CP@GALNFEGF@GostCrypt?3?3BootEncryption?3?3Chang@ 00492614     BootEncryption.obj
 0002:00002644       ??_C@_0CP@HIGEAPBD@GostCrypt?3?3BootEncryption?3?3Chang@ 00492644     BootEncryption.obj
 0002:00002674       ??_C@_0CP@HCPKCCBJ@GostCrypt?3?3BootEncryption?3?3Chang@ 00492674     BootEncryption.obj
 0002:000026a4       ??_C@_0BA@NANEHOFP@GostCryptConfig?$AA@ 004926a4     BootEncryption.obj
 0002:000026b8       ??_7?$num_put@DV?$ostreambuf_iterator@DU?$char_traits@D@std@@@std@@@std@@6B@ 004926b8     BootEncryption.obj
 0002:000026e4       ??_C@_02BBAHNLBA@?$CFp?$AA@ 004926e4     BootEncryption.obj
 0002:000026e8       ??_C@_02CLHGNPPK@Lu?$AA@   004926e8     BootEncryption.obj
 0002:000026ec       ??_C@_02HIKPPMOK@Ld?$AA@   004926ec     BootEncryption.obj
 0002:000026f0       ??_C@_02BDDLJJBK@lu?$AA@   004926f0     BootEncryption.obj
 0002:000026f4       ??_C@_02EAOCLKAK@ld?$AA@   004926f4     BootEncryption.obj
 0002:000026fc       ??_7?$numpunct@D@std@@6B@  004926fc     BootEncryption.obj
 0002:0000271c       ??_C@_02MDKMJEGG@eE?$AA@   0049271c     BootEncryption.obj
 0002:00002720       ??_C@_02OOPEBDOJ@pP?$AA@   00492720     BootEncryption.obj
 0002:00002724       ??_C@_01LFCBOECM@?4?$AA@   00492724     BootEncryption.obj
 0002:00002728       ??_C@_0BA@JFNIOLAK@string?5too?5long?$AA@ 00492728     BootEncryption.obj
 0002:00002738       ??_C@_0BI@CFPLBAOH@invalid?5string?5position?$AA@ 00492738     BootEncryption.obj
 0002:00002750       ??_C@_0BB@MOGOBHAF@list?$DMT?$DO?5too?5long?$AA@ 00492750     BootEncryption.obj
 0002:00002768       __real@4202a05f20000000    00492768     BootEncryption.obj
 0002:00002770       __xmm@7fffffffffffffff7fffffffffffffff 00492770     BootEncryption.obj
 0002:00002780       ??_C@_06FHFOAHML@system?$AA@ 00492780     Favorites.obj
 0002:00002788       ??_C@_04FFEPHCCK@?2?$DP?$DP?2?$AA@ 00492788     Favorites.obj
 0002:00002790       ??_C@_0M@CJEJOKNC@?2?2?$DP?2Volume?$HL?$AA@ 00492790     Favorites.obj
 0002:0000279c       ??_C@_0CE@GJAIEOAP@FAVORITE_ADD_PARTITION_TYPE_WARN@ 0049279c     Favorites.obj
 0002:000027c0       ??_C@_0BP@BOKIMCAM@FAVORITE_ADD_DRIVE_DEV_WARNING?$AA@ 004927c0     Favorites.obj
 0002:000027e4       ??_7?$ContainerForward@V?$vector@UFavoriteVolume@GostCrypt@@V?$allocator@UFavoriteVolume@GostCrypt@@@std@@@std@@@ForEach@GostCrypt@@6B@ 004927e4     Favorites.obj
 0002:000027f0       ??_C@_0BL@JDDKFBO@SYSTEM_FAVORITES_DLG_TITLE?$AA@ 004927f0     Favorites.obj
 0002:0000280c       ??_C@_0BF@HCOFEODH@IDD_FAVORITE_VOLUMES?$AA@ 0049280c     Favorites.obj
 0002:00002824       ??_C@_0BK@ELJEKFFN@SYS_FAVORITES_REQUIRE_PBA?$AA@ 00492824     Favorites.obj
 0002:00002840       ??_C@_0BP@EKHONFKP@MOUNT_SYSTEM_FAVORITES_ON_BOOT?$AA@ 00492840     Favorites.obj
 0002:00002860       ??_C@_0CG@OLJJJKLA@DISABLE_NONADMIN_SYS_FAVORITES_A@ 00492860     Favorites.obj
 0002:00002888       ??_C@_05JLAEHEHI@DRIVE?$AA@ 00492888     Favorites.obj
 0002:00002890       ??_C@_05EILEDKCG@LABEL?$AA@ 00492890     Favorites.obj
 0002:00002898       ??_C@_06EIAEKLLO@VOLUME?$AA@ 00492898     Favorites.obj
 0002:000028a0       ??_C@_0BI@CHIEPLIO@SYS_FAVORITES_HELP_LINK?$AA@ 004928a0     Favorites.obj
 0002:000028b8       ??_C@_0CL@LJFCINAI@FAVORITE_ARRIVAL_MOUNT_BACKGROUN@ 004928b8     Favorites.obj
 0002:000028e4       ??_C@_0CF@JLONOHPL@BOOT_PASSWORD_CACHE_KEYBOARD_WAR@ 004928e4     Favorites.obj
 0002:0000290c       ??_C@_0BP@EBHLJFH@SYS_FAVORITES_KEYBOARD_WARNING?$AA@ 0049290c     Favorites.obj
 0002:0000292c       ??_C@_0BO@EPEDCGFA@SYS_FAVORITES_ADMIN_ONLY_INFO?$AA@ 0049292c     Favorites.obj
 0002:0000294c       ??_C@_0BI@BHGNKFED@SETTING_REQUIRES_REBOOT?$AA@ 0049294c     Favorites.obj
 0002:00002964       ??_C@_0CB@FJMJOJID@SYS_FAVORITES_ADMIN_ONLY_WARNING@ 00492964     Favorites.obj
 0002:00002988       ??_C@_0N@NFCNMOKI@sysfavorites?$AA@ 00492988     Favorites.obj
 0002:00002998       ??_C@_09OAMOHPIB@favorites?$AA@ 00492998     Favorites.obj
 0002:000029a4       ??_C@_13DIBMAFH@?$AA?$CJ?$AA?$AA@ 004929a4     Favorites.obj
 0002:000029a8       ??_C@_0BK@OGKIEBOP@FAVORITE_DISCONNECTED_DEV?$AA@ 004929a8     Favorites.obj
 0002:000029c4       ??_C@_13LLDNKHDC@?$AA?$CI?$AA?$AA@ 004929c4     Favorites.obj
 0002:000029c8       ??_C@_13HOIJIPNN@?$AA?5?$AA?$AA@ 004929c8     Favorites.obj
 0002:000029cc       ??_C@_13KDLDGPGJ@?$AA?7?$AA?$AA@ 004929cc     Favorites.obj
 0002:000029d0       ??_C@_0CG@KHDBJKEN@GostCrypt?5System?5Favorite?5Volume@ 004929d0     Favorites.obj
 0002:000029f8       ??_C@_0BF@EGBOIEGJ@Favorite?5Volumes?4xml?$AA@ 004929f8     Favorites.obj
 0002:00002a10       ??_C@_06EMCPHFGM@volume?$AA@ 00492a10     Favorites.obj
 0002:00002a18       ??_C@_0L@BHNCAFPG@mountpoint?$AA@ 00492a18     Favorites.obj
 0002:00002a24       ??_C@_05IDCCNNGI@label?$AA@ 00492a24     Favorites.obj
 0002:00002a2c       ??_C@_08JOKHDEJH@readonly?$AA@ 00492a2c     Favorites.obj
 0002:00002a38       ??_C@_09HPGMKNKO@removable?$AA@ 00492a38     Favorites.obj
 0002:00002a44       ??_C@_0O@KADIAEN@noHotKeyMount?$AA@ 00492a44     Favorites.obj
 0002:00002a54       ??_C@_0BD@FMMJHNKO@openExplorerWindow?$AA@ 00492a54     Favorites.obj
 0002:00002a68       ??_C@_0P@BNAHGHLI@mountOnArrival?$AA@ 00492a68     Favorites.obj
 0002:00002a78       ??_C@_0N@GAADCGJD@mountOnLogOn?$AA@ 00492a78     Favorites.obj
 0002:00002a88       ??_C@_02EKJJMPLG@?$HN?2?$AA@ 00492a88     Favorites.obj
 0002:00002a90       ??_7?$ContainerForward@V?$list@UFavoriteVolume@GostCrypt@@V?$allocator@UFavoriteVolume@GostCrypt@@@std@@@std@@@ForEach@GostCrypt@@6B@ 00492a90     Favorites.obj
 0002:00002a9c       ??_C@_0M@OEIOICOO@w?0ccs?$DNUTF?98?$AA@ 00492a9c     Favorites.obj
 0002:00002aa8       ??_C@_1BM@LHCEIKFH@?$AA?6?$AA?7?$AA?$DM?$AAf?$AAa?$AAv?$AAo?$AAr?$AAi?$AAt?$AAe?$AAs?$AA?$DO?$AA?$AA@ 00492aa8     Favorites.obj
 0002:00002ac4       ??_C@_02HDBGODGB@?2?2?$AA@ 00492ac4     Favorites.obj
 0002:00002ac8       ??_C@_07HBPFMAGN@Volume?$HL?$AA@ 00492ac8     Favorites.obj
 0002:00002ad0       ??_C@_0CB@FDMOEEOH@SYSTEM_FAVORITE_NETWORK_PATH_ERR@ 00492ad0     Favorites.obj
 0002:00002af4       ??_C@_13NEIAEHFG@?$AA?$CC?$AA?$AA@ 00492af4     Favorites.obj
 0002:00002af8       ??_C@_1DA@FKMFKHK@?$AA?6?$AA?7?$AA?7?$AA?$DM?$AAv?$AAo?$AAl?$AAu?$AAm?$AAe?$AA?5?$AAm?$AAo?$AAu?$AAn?$AAt?$AAp?$AAo?$AAi?$AAn?$AAt?$AA?$DN?$AA?$CC?$AA?$AA@ 00492af8     Favorites.obj
 0002:00002b28       ??_C@_1BC@IMCPEDAD@?$AA?5?$AAl?$AAa?$AAb?$AAe?$AAl?$AA?$DN?$AA?$CC?$AA?$AA@ 00492b28     Favorites.obj
 0002:00002b3c       ??_C@_1BM@ENOBLAGP@?$AA?5?$AAr?$AAe?$AAa?$AAd?$AAo?$AAn?$AAl?$AAy?$AA?$DN?$AA?$CC?$AA1?$AA?$CC?$AA?$AA@ 00492b3c     Favorites.obj
 0002:00002b58       ??_C@_1BO@KPDNDBGI@?$AA?5?$AAr?$AAe?$AAm?$AAo?$AAv?$AAa?$AAb?$AAl?$AAe?$AA?$DN?$AA?$CC?$AA1?$AA?$CC?$AA?$AA@ 00492b58     Favorites.obj
 0002:00002b78       ??_C@_1BI@DCLBMOGE@?$AA?5?$AAs?$AAy?$AAs?$AAt?$AAe?$AAm?$AA?$DN?$AA?$CC?$AA1?$AA?$CC?$AA?$AA@ 00492b78     Favorites.obj
 0002:00002b90       ??_C@_1CI@PFJKIIJG@?$AA?5?$AAm?$AAo?$AAu?$AAn?$AAt?$AAO?$AAn?$AAA?$AAr?$AAr?$AAi?$AAv?$AAa?$AAl?$AA?$DN?$AA?$CC?$AA1?$AA?$CC?$AA?$AA@ 00492b90     Favorites.obj
 0002:00002bb8       ??_C@_1CE@JKNJFOGE@?$AA?5?$AAm?$AAo?$AAu?$AAn?$AAt?$AAO?$AAn?$AAL?$AAo?$AAg?$AAO?$AAn?$AA?$DN?$AA?$CC?$AA1?$AA?$CC?$AA?$AA@ 00492bb8     Favorites.obj
 0002:00002bdc       ??_C@_1CG@JPOBGFJC@?$AA?5?$AAn?$AAo?$AAH?$AAo?$AAt?$AAK?$AAe?$AAy?$AAM?$AAo?$AAu?$AAn?$AAt?$AA?$DN?$AA?$CC?$AA1?$AA?$CC?$AA?$AA@ 00492bdc     Favorites.obj
 0002:00002c04       ??_C@_1DA@CGPNJOBH@?$AA?5?$AAo?$AAp?$AAe?$AAn?$AAE?$AAx?$AAp?$AAl?$AAo?$AAr?$AAe?$AAr?$AAW?$AAi?$AAn?$AAd?$AAo?$AAw?$AA?$DN?$AA?$CC?$AA1?$AA?$CC?$AA?$AA@ 00492c04     Favorites.obj
 0002:00002c34       ??_C@_1BE@BKLKJEIJ@?$AA?$DM?$AA?1?$AAv?$AAo?$AAl?$AAu?$AAm?$AAe?$AA?$DO?$AA?$AA@ 00492c34     Favorites.obj
 0002:00002c48       ??_C@_13MOEPKPHB@?$AA?$DO?$AA?$AA@ 00492c48     Favorites.obj
 0002:00002c4c       ??_C@_17EEOGHOKP@?$AA?$CF?$AAw?$AAs?$AA?$AA@ 00492c4c     Favorites.obj
 0002:00002c54       ??_C@_1BO@LKECBBKI@?$AA?6?$AA?7?$AA?$DM?$AA?1?$AAf?$AAa?$AAv?$AAo?$AAr?$AAi?$AAt?$AAe?$AAs?$AA?$DO?$AA?$AA@ 00492c54     Favorites.obj
 0002:00002c74       ??_C@_0BL@JLAFANLF@SYS_FAVORITE_VOLUMES_SAVED?$AA@ 00492c74     Favorites.obj
 0002:00002c90       ??_C@_0CC@GPNGJACE@FAVORITE_LABEL_PARTITION_TYPE_ER@ 00492c90     Favorites.obj
 0002:00002cb4       ??_C@_0BP@JDCKOJKF@FAVORITE_LABEL_DEVICE_PATH_ERR?$AA@ 00492cb4     Favorites.obj
 0002:00002cd4       ??_C@_0CK@BMBODKOP@FAVORITE_ARRIVAL_MOUNT_PARTITION@ 00492cd4     Favorites.obj
 0002:00002d00       ??_C@_0CH@DKBAOJFF@FAVORITE_ARRIVAL_MOUNT_DEVICE_PA@ 00492d00     Favorites.obj
 0002:00002d28       ??_C@_0CI@HPPIJBMN@FAVORITE_ARRIVAL_MOUNT_NETWORK_P@ 00492d28     Favorites.obj
 0002:00002d50       ??_C@_0BD@OLBABOEK@vector?$DMT?$DO?5too?5long?$AA@ 00492d50     Favorites.obj
 0002:00002d64       ??_C@_17OGHPJJHO@?$AA?$CF?$AAh?$AAc?$AA?$AA@ 00492d64     Hotkeys.obj
 0002:00002d6c       ??_C@_1O@HLLLAKJJ@?$AAO?$AAE?$AAM?$AA?9?$AA?$CF?$AAd?$AA?$AA@ 00492d6c     Hotkeys.obj
 0002:00002d7c       ??_C@_17JGAKBPCN@?$AAF?$AA?$CF?$AAd?$AA?$AA@ 00492d7c     Hotkeys.obj
 0002:00002d84       ??_C@_09LOOKHEPK@VK_NUMPAD?$AA@ 00492d84     Hotkeys.obj
 0002:00002d90       ??_C@_1M@DJFDNGE@?$AA?$CF?$AAs?$AA?5?$AA?$CF?$AAd?$AA?$AA@ 00492d90     Hotkeys.obj
 0002:00002d9c       ??_C@_19FPPNIDAC@?$AA?$CF?$AAs?$AA?5?$AA?$CK?$AA?$AA@ 00492d9c     Hotkeys.obj
 0002:00002da8       ??_C@_19OHEBOEGH@?$AA?$CF?$AAs?$AA?5?$AA?$CL?$AA?$AA@ 00492da8     Hotkeys.obj
 0002:00002db4       ??_C@_1BK@DEGHIJPD@?$AA?$CF?$AAs?$AA?5?$AAS?$AAe?$AAp?$AAa?$AAr?$AAa?$AAt?$AAo?$AAr?$AA?$AA@ 00492db4     Hotkeys.obj
 0002:00002dd0       ??_C@_19MCCKLLLL@?$AA?$CF?$AAs?$AA?5?$AA?9?$AA?$AA@ 00492dd0     Hotkeys.obj
 0002:00002ddc       ??_C@_19NAJPBEFF@?$AA?$CF?$AAs?$AA?5?$AA?4?$AA?$AA@ 00492ddc     Hotkeys.obj
 0002:00002de8       ??_C@_19GICDHDDA@?$AA?$CF?$AAs?$AA?5?$AA?1?$AA?$AA@ 00492de8     Hotkeys.obj
 0002:00002df4       ??_C@_1BI@PIEDINDL@?$AAO?$AAE?$AAM?$AA?5?$AA1?$AA?5?$AA?$CI?$AA?8?$AA?$DL?$AA?8?$AA?$CJ?$AA?$AA@ 00492df4     Hotkeys.obj
 0002:00002e0c       ??_C@_13KJIIAINM@?$AA?$CL?$AA?$AA@ 00492e0c     Hotkeys.obj
 0002:00002e10       ??_C@_1BI@CJHKAGBI@?$AAO?$AAE?$AAM?$AA?5?$AA2?$AA?5?$AA?$CI?$AA?8?$AA?1?$AA?8?$AA?$CJ?$AA?$AA@ 00492e10     Hotkeys.obj
 0002:00002e28       ??_C@_1BE@NONNBIJA@?$AAO?$AAE?$AAM?$AA?5?$AA3?$AA?5?$AA?$CI?$AA?$GA?$AA?$CJ?$AA?$AA@ 00492e28     Hotkeys.obj
 0002:00002e3c       ??_C@_1BI@FCPBPAJG@?$AAO?$AAE?$AAM?$AA?5?$AA4?$AA?5?$AA?$CI?$AA?8?$AA?$FL?$AA?8?$AA?$CJ?$AA?$AA@ 00492e3c     Hotkeys.obj
 0002:00002e54       ??_C@_1BI@PGFMGIBO@?$AAO?$AAE?$AAM?$AA?5?$AA5?$AA?5?$AA?$CI?$AA?8?$AA?2?$AA?8?$AA?$CJ?$AA?$AA@ 00492e54     Hotkeys.obj
 0002:00002e6c       ??_C@_1BI@BDDONMHC@?$AAO?$AAE?$AAM?$AA?5?$AA6?$AA?5?$AA?$CI?$AA?8?$AA?$FN?$AA?8?$AA?$CJ?$AA?$AA@ 00492e6c     Hotkeys.obj
 0002:00002e84       ??_C@_1BE@MPIGBJDL@?$AAO?$AAE?$AAM?$AA?5?$AA7?$AA?5?$AA?$CI?$AA?8?$AA?$CJ?$AA?$AA@ 00492e84     Hotkeys.obj
 0002:00002e98       ??_C@_1M@DOOFNPLB@?$AAO?$AAE?$AAM?$AA?5?$AA8?$AA?$AA@ 00492e98     Hotkeys.obj
 0002:00002ea4       ??_C@_1O@MJCGBFBN@?$AAO?$AAE?$AAM?$AA?5?$AAA?$AAX?$AA?$AA@ 00492ea4     Hotkeys.obj
 0002:00002eb4       ??_C@_1BA@IAGEGNFM@?$AAO?$AAE?$AAM?$AA?5?$AA1?$AA0?$AA2?$AA?$AA@ 00492eb4     Hotkeys.obj
 0002:00002ec4       ??_C@_1BC@NLJJNCCF@?$AAI?$AAC?$AAO?$AA_?$AAH?$AAE?$AAL?$AAP?$AA?$AA@ 00492ec4     Hotkeys.obj
 0002:00002ed8       ??_C@_1O@JBLAKJMC@?$AAI?$AAC?$AAO?$AA_?$AA0?$AA0?$AA?$AA@ 00492ed8     Hotkeys.obj
 0002:00002ee8       ??_C@_1BE@LLGIDKHO@?$AAI?$AAC?$AAO?$AA_?$AAC?$AAL?$AAE?$AAA?$AAR?$AA?$AA@ 00492ee8     Hotkeys.obj
 0002:00002efc       ??_C@_19OFNKLJK@?$AAA?$AAt?$AAt?$AAn?$AA?$AA@ 00492efc     Hotkeys.obj
 0002:00002f08       ??_C@_1M@MDALCLEC@?$AAC?$AAr?$AAS?$AAe?$AAl?$AA?$AA@ 00492f08     Hotkeys.obj
 0002:00002f14       ??_C@_1M@DLBEBOGL@?$AAE?$AAx?$AAS?$AAe?$AAl?$AA?$AA@ 00492f14     Hotkeys.obj
 0002:00002f20       ??_C@_1BE@PNGDAKCB@?$AAE?$AAr?$AAa?$AAs?$AAe?$AA?5?$AAE?$AAO?$AAF?$AA?$AA@ 00492f20     Hotkeys.obj
 0002:00002f34       ??_C@_17EDGIJFFN@?$AAP?$AAA?$AA1?$AA?$AA@ 00492f34     Hotkeys.obj
 0002:00002f3c       ??_C@_1BE@BLNJPCHA@?$AAO?$AAE?$AAM?$AA?5?$AAC?$AAl?$AAe?$AAa?$AAr?$AA?$AA@ 00492f3c     Hotkeys.obj
 0002:00002f50       ??_C@_09HCNHJIOE@VKEY_?$CF02X?$AA@ 00492f50     Hotkeys.obj
 0002:00002f5c       ??_C@_0BF@BHDAGLNG@HK_AUTOMOUNT_DEVICES?$AA@ 00492f5c     Hotkeys.obj
 0002:00002f74       ??_C@_0BA@FCDOFIMA@HK_DISMOUNT_ALL?$AA@ 00492f74     Hotkeys.obj
 0002:00002f84       ??_C@_0O@CLOOONDG@HK_WIPE_CACHE?$AA@ 00492f84     Hotkeys.obj
 0002:00002f94       ??_C@_0BJ@PKPOPMEC@HK_DISMOUNT_ALL_AND_WIPE?$AA@ 00492f94     Hotkeys.obj
 0002:00002fb0       ??_C@_0BP@BAOJNMID@HK_FORCE_DISMOUNT_ALL_AND_WIPE?$AA@ 00492fb0     Hotkeys.obj
 0002:00002fd0       ??_C@_0CI@FEMPJBPL@HK_FORCE_DISMOUNT_ALL_AND_WIPE_A@ 00492fd0     Hotkeys.obj
 0002:00002ff8       ??_C@_0BK@KFKHOBIO@HK_MOUNT_FAVORITE_VOLUMES?$AA@ 00492ff8     Hotkeys.obj
 0002:00003014       ??_C@_0BJ@PKJKCAHL@HK_SHOW_HIDE_MAIN_WINDOW?$AA@ 00493014     Hotkeys.obj
 0002:00003030       ??_C@_0BN@BCAFOOJE@IDM_CLOSE_ALL_TOKEN_SESSIONS?$AA@ 00493030     Hotkeys.obj
 0002:00003050       ??_C@_17FONKKNAB@?$AA?$FL?$AA?$DP?$AA?$FN?$AA?$AA@ 00493050     Hotkeys.obj
 0002:00003058       ??_C@_0L@GEFMOENA@VK_CONTROL?$AA@ 00493058     Hotkeys.obj
 0002:00003064       ??_C@_08BHJBIDAM@VK_SHIFT?$AA@ 00493064     Hotkeys.obj
 0002:00003070       ??_C@_06HJLFINBF@VK_ALT?$AA@ 00493070     Hotkeys.obj
 0002:00003078       ??_C@_06LKCBLNGG@VK_WIN?$AA@ 00493078     Hotkeys.obj
 0002:00003080       ??_C@_19LJDFFCJJ@?$AA?$CF?$AAs?$AA?$CF?$AAs?$AA?$AA@ 00493080     Hotkeys.obj
 0002:0000308c       ??_C@_06DHJAPAEE@ACTION?$AA@ 0049308c     Hotkeys.obj
 0002:00003094       ??_C@_08KLMGAJAF@SHORTCUT?$AA@ 00493094     Hotkeys.obj
 0002:000030a0       ??_C@_0BA@HMGJHPFD@IDD_HOTKEYS_DLG?$AA@ 004930a0     Hotkeys.obj
 0002:000030b0       ??_C@_0BG@BHHJNFFK@PRESS_A_KEY_TO_ASSIGN?$AA@ 004930b0     Hotkeys.obj
 0002:000030c8       ??_C@_0BI@CFJLLBFG@SHORTCUT_ALREADY_IN_USE?$AA@ 004930c8     Hotkeys.obj
 0002:000030e0       ??_C@_0BI@CPPIEFFH@CANNOT_USE_RESERVED_KEY?$AA@ 004930e0     Hotkeys.obj
 0002:000030f8       _LIBID_GostCryptMainCom    004930f8     MainCom.obj
 0002:00003108       _IID_IGostCryptMainCom     00493108     MainCom.obj
 0002:00003118       _CLSID_GostCryptMainCom    00493118     MainCom.obj
 0002:0000312c       ??_7GostCryptMainCom@@6B@  0049312c     MainCom.obj
 0002:00003170       ??_7?$GostCryptFactory@VGostCryptMainCom@@@@6B@ 00493170     MainCom.obj
 0002:00003188       ??_C@_01NBENCBCI@?$CK?$AA@ 00493188     Mount.obj
 0002:0000318c       ??_C@_0N@PDNIMNCL@MENU_VOLUMES?$AA@ 0049318c     Mount.obj
 0002:0000319c       ??_C@_0BH@MEKCCHEP@MENU_SYSTEM_ENCRYPTION?$AA@ 0049319c     Mount.obj
 0002:000031b4       ??_C@_0P@BPHMCAOP@MENU_FAVORITES?$AA@ 004931b4     Mount.obj
 0002:000031c4       ??_C@_0L@EJOBNNFH@MENU_TOOLS?$AA@ 004931c4     Mount.obj
 0002:000031d0       ??_C@_0O@EAENFNPM@MENU_SETTINGS?$AA@ 004931d0     Mount.obj
 0002:000031e0       ??_C@_09FEGEGDEL@MENU_HELP?$AA@ 004931e0     Mount.obj
 0002:000031ec       ??_C@_0N@KAFGONOM@MENU_WEBSITE?$AA@ 004931ec     Mount.obj
 0002:000031fc       ??_C@_13OHNMPHJM@?$AA?$FN?$AA?$AA@ 004931fc     Mount.obj
 0002:00003200       ??_C@_0O@OBIPPEOD@ADMINISTRATOR?$AA@ 00493200     Mount.obj
 0002:00003210       ??_C@_15FFJNNDMJ@?$AA?5?$AA?$FL?$AA?$AA@ 00493210     Mount.obj
 0002:00003218       ??_C@_0P@JOHDMOHN@UNMOUNT_BUTTON?$AA@ 00493218     Mount.obj
 0002:00003228       ??_C@_0N@HBOIHDNA@MOUNT_BUTTON?$AA@ 00493228     Mount.obj
 0002:00003238       ??_C@_0BN@JJNCGBDA@OpenExplorerWindowAfterMount?$AA@ 00493238     Mount.obj
 0002:00003258       ??_C@_0CF@KIMFPDKC@UseDifferentTrayIconIfVolumesMou@ 00493258     Mount.obj
 0002:00003280       ??_C@_0BC@CGLEBHPJ@SaveVolumeHistory?$AA@ 00493280     Mount.obj
 0002:00003294       ??_C@_0P@NEHAKGAO@CachePasswords?$AA@ 00493294     Mount.obj
 0002:000032a4       ??_C@_0BI@BNIOMO@WipePasswordCacheOnExit?$AA@ 004932a4     Mount.obj
 0002:000032bc       ??_C@_0BI@FALOPCPE@WipeCacheOnAutoDismount?$AA@ 004932bc     Mount.obj
 0002:000032d4       ??_C@_0N@PLOGBODB@StartOnLogon?$AA@ 004932d4     Mount.obj
 0002:000032e4       ??_C@_0BE@MJJJGJOJ@MountDevicesOnLogon?$AA@ 004932e4     Mount.obj
 0002:000032f8       ??_C@_0BG@IDCDKCEI@MountFavoritesOnLogon?$AA@ 004932f8     Mount.obj
 0002:00003310       ??_C@_0BF@KJGFKHOF@EnableBackgroundTask?$AA@ 00493310     Mount.obj
 0002:00003328       ??_C@_0BP@GDDJCJHL@CloseBackgroundTaskOnNoVolumes?$AA@ 00493328     Mount.obj
 0002:00003348       ??_C@_0BB@JBNDKFIM@DismountOnLogOff?$AA@ 00493348     Mount.obj
 0002:0000335c       ??_C@_0BG@EJBOHCEJ@DismountOnPowerSaving?$AA@ 0049335c     Mount.obj
 0002:00003374       ??_C@_0BG@MFJBKGJC@DismountOnScreenSaver?$AA@ 00493374     Mount.obj
 0002:0000338c       ??_C@_0BC@EDMFNFCN@ForceAutoDismount?$AA@ 0049338c     Mount.obj
 0002:000033a0       ??_C@_0BC@JKHHAAAB@MaxVolumeIdleTime?$AA@ 004933a0     Mount.obj
 0002:000033b4       ??_C@_0BM@GHIJBHNC@HiddenSectorDetectionStatus?$AA@ 004933b4     Mount.obj
 0002:000033d0       ??_C@_0M@LMLBNLIJ@UseKeyfiles?$AA@ 004933d0     Mount.obj
 0002:000033dc       ??_C@_0BD@LGMAGJMG@PreserveTimestamps?$AA@ 004933dc     Mount.obj
 0002:000033f0       ??_C@_0BG@BIDCCDPC@MountVolumesRemovable?$AA@ 004933f0     Mount.obj
 0002:00003408       ??_C@_0BF@NMKCILAI@MountVolumesReadOnly?$AA@ 00493408     Mount.obj
 0002:00003420       ??_C@_0CF@EFIMMBIH@CloseSecurityTokenSessionsAfterM@ 00493420     Mount.obj
 0002:00003448       ??_C@_0BM@PPMGLKNI@DisableSystemCrashDetection?$AA@ 00493448     Mount.obj
 0002:00003464       ??_C@_0CA@JDEDMHHP@HiddenSystemLeakProtNotifStatus?$AA@ 00493464     Mount.obj
 0002:00003484       ??_C@_0BC@JNFOKCJG@LastSelectedDrive?$AA@ 00493484     Mount.obj
 0002:00003498       ??_C@_0BF@MIMCAHPI@SecurityTokenLibrary?$AA@ 00493498     Mount.obj
 0002:000034b0       ??_C@_0BP@BFHJPAFJ@PlaySoundOnHotkeyMountDismount?$AA@ 004934b0     Mount.obj
 0002:000034d0       ??_C@_0BO@GGCIJNCK@DisplayMsgBoxOnHotkeyDismount?$AA@ 004934d0     Mount.obj
 0002:000034f0       ??_C@_0BK@HBJAAJIJ@HotkeyModAutoMountDevices?$AA@ 004934f0     Mount.obj
 0002:0000350c       ??_C@_0BL@HFFNPBG@HotkeyCodeAutoMountDevices?$AA@ 0049350c     Mount.obj
 0002:00003528       ??_C@_0BF@JKNNFNFF@HotkeyModDismountAll?$AA@ 00493528     Mount.obj
 0002:00003540       ??_C@_0BG@FAJJGDON@HotkeyCodeDismountAll?$AA@ 00493540     Mount.obj
 0002:00003558       ??_C@_0BD@PFLDJHEM@HotkeyModWipeCache?$AA@ 00493558     Mount.obj
 0002:0000356c       ??_C@_0BE@NNJKBANE@HotkeyCodeWipeCache?$AA@ 0049356c     Mount.obj
 0002:00003580       ??_C@_0BJ@DMJNNPJL@HotkeyModDismountAllWipe?$AA@ 00493580     Mount.obj
 0002:0000359c       ??_C@_0BK@CFAKNANL@HotkeyCodeDismountAllWipe?$AA@ 0049359c     Mount.obj
 0002:000035b8       ??_C@_0BO@CEGBOIP@HotkeyModForceDismountAllWipe?$AA@ 004935b8     Mount.obj
 0002:000035d8       ??_C@_0BP@GBIKFBPN@HotkeyCodeForceDismountAllWipe?$AA@ 004935d8     Mount.obj
 0002:000035f8       ??_C@_0CC@NJGCLCKP@HotkeyModForceDismountAllWipeExi@ 004935f8     Mount.obj
 0002:0000361c       ??_C@_0CD@NAGGLIOF@HotkeyCodeForceDismountAllWipeEx@ 0049361c     Mount.obj
 0002:00003640       ??_C@_0BO@BBPCFBJL@HotkeyModMountFavoriteVolumes?$AA@ 00493640     Mount.obj
 0002:00003660       ??_C@_0BP@HCDOBOOJ@HotkeyCodeMountFavoriteVolumes?$AA@ 00493660     Mount.obj
 0002:00003680       ??_C@_0BM@LONPOCBB@HotkeyModShowHideMainWindow?$AA@ 00493680     Mount.obj
 0002:0000369c       ??_C@_0BN@CHLGHFOA@HotkeyCodeShowHideMainWindow?$AA@ 0049369c     Mount.obj
 0002:000036bc       ??_C@_0CE@HGCCLLKG@HotkeyModCloseSecurityTokenSessi@ 004936bc     Mount.obj
 0002:000036e0       ??_C@_0CF@JMGBPMDD@HotkeyCodeCloseSecurityTokenSess@ 004936e0     Mount.obj
 0002:00003708       ??_C@_03CGGPNEOP@?$CFc?3?$AA@ 00493708     Mount.obj
 0002:0000370c       ??_C@_08BENDAOKD@Language?$AA@ 0049370c     Mount.obj
 0002:00003718       ??_C@_0BC@EGBHACCE@IDM_SYSENC_RESUME?$AA@ 00493718     Mount.obj
 0002:0000372c       ??_C@_0BE@NCCLMCDM@PERMANENTLY_DECRYPT?$AA@ 0049372c     Mount.obj
 0002:00003740       ??_C@_07CAOFPAJK@ENCRYPT?$AA@ 00493740     Mount.obj
 0002:00003748       ??_C@_0BI@CKBDIDDP@IDM_CHANGE_SYS_PASSWORD?$AA@ 00493748     Mount.obj
 0002:00003760       ??_C@_0CF@CAHOHCGA@IDM_CHANGE_SYS_HEADER_KEY_DERIV_@ 00493760     Mount.obj
 0002:00003788       ??_C@_0BF@KPIIIAFE@IDM_SYS_ENC_SETTINGS?$AA@ 00493788     Mount.obj
 0002:000037a0       ??_C@_0BH@MLCINLBO@IDM_CREATE_RESCUE_DISK?$AA@ 004937a0     Mount.obj
 0002:000037b8       ??_C@_0BH@MNBOMCDE@IDM_VERIFY_RESCUE_DISK?$AA@ 004937b8     Mount.obj
 0002:000037d0       ??_C@_0BA@DJOMNFMG@IDPM_PROPERTIES?$AA@ 004937d0     Mount.obj
 0002:000037e0       ??_C@_0BN@ILKHOBEF@NO_SYSENC_PARTITION_SELECTED?$AA@ 004937e0     Mount.obj
 0002:00003800       ??_C@_0BC@PDEAFOMG@SELECT_FREE_DRIVE?$AA@ 00493800     Mount.obj
 0002:00003814       ??_C@_0BN@CEPHIDFC@?2Device?2Harddisk?$CFd?2Partition?$AA@ 00493814     Mount.obj
 0002:00003834       ??_C@_0N@PJPEEMEG@INVALID_PATH?$AA@ 00493834     Mount.obj
 0002:00003844       ??_C@_0BO@FKAHPBKI@?2Device?2Harddisk?$CFd?2Partition0?$AA@ 00493844     Mount.obj
 0002:00003864       ??_C@_0CN@HPAOAPNF@MOUNT_WITHOUT_PBA_VOL_ON_ACTIVE_@ 00493864     Mount.obj
 0002:00003894       ??_C@_0BG@OOBKKBIJ@GostCrypt?5Format?4exe?$CC?$AA@ 00493894     Mount.obj
 0002:000038ac       ??_C@_0BO@KBIBLJFA@VOL_CREATION_WIZARD_NOT_FOUND?$AA@ 004938ac     Mount.obj
 0002:000038cc       ??_C@_01CLKCMJKC@?5?$AA@   004938cc     Mount.obj
 0002:000038d0       ??_C@_02FEEPBPGD@A?3?$AA@  004938d0     Mount.obj
 0002:000038d4       ??_C@_02FGAJKBDK@B?3?$AA@  004938d4     Mount.obj
 0002:000038d8       ??_C@_02FHMLMLAN@C?3?$AA@  004938d8     Mount.obj
 0002:000038dc       ??_C@_02FCIENNII@D?3?$AA@  004938dc     Mount.obj
 0002:000038e0       ??_C@_02FDEGLHLP@E?3?$AA@  004938e0     Mount.obj
 0002:000038e4       ??_C@_02FBAAAJOG@F?3?$AA@  004938e4     Mount.obj
 0002:000038e8       ??_C@_02FAMCGDNB@G?3?$AA@  004938e8     Mount.obj
 0002:000038ec       ??_C@_02FLJOCEOM@H?3?$AA@  004938ec     Mount.obj
 0002:000038f0       ??_C@_02FKFMEONL@I?3?$AA@  004938f0     Mount.obj
 0002:000038f4       ??_C@_02FIBKPAIC@J?3?$AA@  004938f4     Mount.obj
 0002:000038f8       ??_C@_02FJNIJKLF@K?3?$AA@  004938f8     Mount.obj
 0002:000038fc       ??_C@_02FMJHIMDA@L?3?$AA@  004938fc     Mount.obj
 0002:00003900       ??_C@_02FNFFOGAH@M?3?$AA@  00493900     Mount.obj
 0002:00003904       ??_C@_02FPBDFIFO@N?3?$AA@  00493904     Mount.obj
 0002:00003908       ??_C@_02FONBDCGJ@O?3?$AA@  00493908     Mount.obj
 0002:0000390c       ??_C@_02EJKLNGCE@P?3?$AA@  0049390c     Mount.obj
 0002:00003910       ??_C@_02EIGJLMBD@Q?3?$AA@  00493910     Mount.obj
 0002:00003914       ??_C@_02EKCPACEK@R?3?$AA@  00493914     Mount.obj
 0002:00003918       ??_C@_02ELONGIHN@S?3?$AA@  00493918     Mount.obj
 0002:0000391c       ??_C@_02EOKCHOPI@T?3?$AA@  0049391c     Mount.obj
 0002:00003920       ??_C@_02EPGABEMP@U?3?$AA@  00493920     Mount.obj
 0002:00003924       ??_C@_02ENCGKKJG@V?3?$AA@  00493924     Mount.obj
 0002:00003928       ??_C@_02EMOEMAKB@W?3?$AA@  00493928     Mount.obj
 0002:0000392c       ??_C@_02EGHKONKL@Y?3?$AA@  0049392c     Mount.obj
 0002:00003930       ??_C@_02EEDMFDPC@Z?3?$AA@  00493930     Mount.obj
 0002:00003934       ??_C@_0N@LABMODCO@DRIVELETTERS?$AA@ 00493934     Mount.obj
 0002:00003944       ??_C@_0N@JCIDDNEG@SYSTEM_DRIVE?$AA@ 00493944     Mount.obj
 0002:00003954       ??_C@_0BI@FMGCHKLP@SYSTEM_DRIVE_ENCRYPTING?$AA@ 00493954     Mount.obj
 0002:0000396c       ??_C@_0BI@GFAMFOII@SYSTEM_DRIVE_DECRYPTING?$AA@ 0049396c     Mount.obj
 0002:00003984       ??_C@_0CB@NENDIPBG@SYSTEM_DRIVE_PARTIALLY_ENCRYPTED@ 00493984     Mount.obj
 0002:000039a8       ??_C@_06JMIOFMHI@HIDDEN?$AA@ 004939a8     Mount.obj
 0002:000039b0       ??_C@_0BN@OIBEPDD@SYSTEM_VOLUME_TYPE_ADJECTIVE?$AA@ 004939b0     Mount.obj
 0002:000039d0       ??_C@_0BI@NAKILHP@HIDDEN_SYSTEM_PARTITION?$AA@ 004939d0     Mount.obj
 0002:000039e8       ??_C@_0BB@NIFEDNAB@SYSTEM_PARTITION?$AA@ 004939e8     Mount.obj
 0002:000039fc       ??_C@_0BM@GLCKIEAG@SYSTEM_PARTITION_ENCRYPTING?$AA@ 004939fc     Mount.obj
 0002:00003a18       ??_C@_0BM@FCEEKADB@SYSTEM_PARTITION_DECRYPTING?$AA@ 00493a18     Mount.obj
 0002:00003a34       ??_C@_0CF@LEGOPDKD@SYSTEM_PARTITION_PARTIALLY_ENCRY@ 00493a34     Mount.obj
 0002:00003a5c       ??_C@_17HIGNGECK@?$AA_?$AA_?$AA_?$AA?$AA@ 00493a5c     Mount.obj
 0002:00003a64       ??_C@_06IOJAGNKJ@NORMAL?$AA@ 00493a64     Mount.obj
 0002:00003a6c       ??_C@_05PKHDEOFG@OUTER?$AA@ 00493a6c     Mount.obj
 0002:00003a74       ??_C@_0BK@GNLJADMH@OUTER_VOL_WRITE_PREVENTED?$AA@ 00493a74     Mount.obj
 0002:00003a90       ??_C@_13HGPDMIBE@?$AA?$DP?$AA?$AA@ 00493a90     Mount.obj
 0002:00003a94       ??_C@_0CC@LCDEFKJP@DAMAGE_TO_HIDDEN_VOLUME_PREVENTE@ 00493a94     Mount.obj
 0002:00003ab8       ??_C@_0BH@OAALJAFL@IDD_PASSWORDCHANGE_DLG?$AA@ 00493ab8     Mount.obj
 0002:00003ad0       ??_C@_09ECKOGGEP@UNCHANGED?$AA@ 00493ad0     Mount.obj
 0002:00003adc       ??_C@_0BK@EBNLJAJI@IDD_PCDM_CHANGE_PKCS5_PRF?$AA@ 00493adc     Mount.obj
 0002:00003af8       ??_C@_0CB@POIELMAL@IDD_PCDM_ADD_REMOVE_VOL_KEYFILES@ 00493af8     Mount.obj
 0002:00003b1c       ??_C@_0CG@JOKOOJHO@IDD_PCDM_REMOVE_ALL_KEYFILES_FRO@ 00493b1c     Mount.obj
 0002:00003b44       ??_C@_08OKJEGFFL@00000409?$AA@ 00493b44     Mount.obj
 0002:00003b50       ??_C@_0CL@KAEHBIEI@CANT_CHANGE_KEYB_LAYOUT_FOR_SYS_@ 00493b50     Mount.obj
 0002:00003b7c       ??_C@_0BB@MMDPAFIK@CANNOT_SET_TIMER?$AA@ 00493b7c     Mount.obj
 0002:00003b90       ??_C@_0BN@MNCKOJDH@KEYB_LAYOUT_CHANGE_PREVENTED?$AA@ 00493b90     Mount.obj
 0002:00003bb0       ??_C@_0CA@HGCGAMEK@KEYB_LAYOUT_SYS_ENC_EXPLANATION?$AA@ 00493bb0     Mount.obj
 0002:00003bd0       ??_C@_0CF@OEJEFNLJ@ALT_KEY_CHARS_NOT_FOR_SYS_ENCRYP@ 00493bd0     Mount.obj
 0002:00003bf8       ??_C@_0CK@PHDAOPJF@KEYFILES_NOT_SUPPORTED_FOR_SYS_E@ 00493bf8     Mount.obj
 0002:00003c24       ??_C@_0CG@FCGANOF@ALGO_NOT_SUPPORTED_FOR_SYS_ENCRY@ 00493c24     Mount.obj
 0002:00003c4c       ??_C@_0BJ@CPHEENHA@UNSUPPORTED_CHARS_IN_PWD?$AA@ 00493c4c     Mount.obj
 0002:00003c68       ??_C@_0BB@HOAEAIOP@IDD_PASSWORD_DLG?$AA@ 00493c68     Mount.obj
 0002:00003c7c       ??_C@_0BJ@NGNFBMFD@ENTER_PASSWORD_FOR_LABEL?$AA@ 00493c7c     Mount.obj
 0002:00003c98       ??_C@_03BHBGBHAB@___?$AA@  00493c98     Mount.obj
 0002:00003c9c       ??_C@_0BD@OPCEEDMD@ENTER_PASSWORD_FOR?$AA@ 00493c9c     Mount.obj
 0002:00003cb0       ??_C@_04JIMNDDED@?$CF08X?$AA@ 00493cb0     Mount.obj
 0002:00003cb8       ??_C@_0BP@BGCHIACG@CANNOT_RESTORE_KEYBOARD_LAYOUT?$AA@ 00493cb8     Mount.obj
 0002:00003cd8       ??_C@_0BE@CHONIFKG@IDD_PREFERENCES_DLG?$AA@ 00493cd8     Mount.obj
 0002:00003cec       ??_C@_0CB@DILBGMN@CONFIRM_BACKGROUND_TASK_DISABLED@ 00493cec     Mount.obj
 0002:00003d10       ??_C@_0BP@IFIIHFON@CONFIRM_NO_FORCED_AUTODISMOUNT?$AA@ 00493d10     Mount.obj
 0002:00003d30       ??_C@_0BI@MENNOFDM@WARN_PREF_AUTO_DISMOUNT?$AA@ 00493d30     Mount.obj
 0002:00003d48       ??_C@_0CB@JNMNPOPP@WARN_PREF_AUTO_DISMOUNT_ON_POWER@ 00493d48     Mount.obj
 0002:00003d6c       ??_C@_0N@FMENHOOK@IDM_LANGUAGE?$AA@ 00493d6c     Mount.obj
 0002:00003d7c       ??_C@_0BE@LICAELEJ@IDM_HOTKEY_SETTINGS?$AA@ 00493d7c     Mount.obj
 0002:00003d90       ??_C@_0BJ@EOENNFH@IDM_PERFORMANCE_SETTINGS?$AA@ 00493d90     Mount.obj
 0002:00003dac       ??_C@_0BE@MAKEILOG@IDM_SYSENC_SETTINGS?$AA@ 00493dac     Mount.obj
 0002:00003dc0       ??_C@_0BL@MNFBKGOL@IDM_SYS_FAVORITES_SETTINGS?$AA@ 00493dc0     Mount.obj
 0002:00003ddc       ??_C@_0BF@ENCPBHMN@IDM_DEFAULT_KEYFILES?$AA@ 00493ddc     Mount.obj
 0002:00003df4       ??_C@_0BG@KMGBADNB@IDM_TOKEN_PREFERENCES?$AA@ 00493df4     Mount.obj
 0002:00003e0c       ??_C@_0BC@LMEHFMJL@IDD_MOUNT_OPTIONS?$AA@ 00493e0c     Mount.obj
 0002:00003e20       ??_C@_0CK@NCJGAECA@http?3?1?1www?4gostcrypt?4org?1redirec@ 00493e20     Mount.obj
 0002:00003e4c       ??_C@_0BN@GAPKAGEI@HIDVOL_PROT_BKG_TASK_WARNING?$AA@ 00493e4c     Mount.obj
 0002:00003e6c       ??_C@_0BG@JEJOMNKK@IDD_VOLUME_PROPERTIES?$AA@ 00493e6c     Mount.obj
 0002:00003e84       ??_C@_05MHMCHENB@VALUE?$AA@ 00493e84     Mount.obj
 0002:00003e8c       ??_C@_08DDLBCDJK@PROPERTY?$AA@ 00493e8c     Mount.obj
 0002:00003e98       ??_C@_08FOLJKLOE@LOCATION?$AA@ 00493e98     Mount.obj
 0002:00003ea4       ??_C@_04EMFHLKGI@SIZE?$AA@ 00493ea4     Mount.obj
 0002:00003eac       ??_C@_05JKAGIBMI@BYTES?$AA@ 00493eac     Mount.obj
 0002:00003eb4       ??_C@_1BC@FBJLKEEF@?$AA?$CF?$AAI?$AA6?$AA4?$AAu?$AA?5?$AA?$CF?$AAs?$AA?$AA@ 00493eb4     Mount.obj
 0002:00003ec8       ??_C@_04KDPJLEDB@TYPE?$AA@ 00493ec8     Mount.obj
 0002:00003ed0       ??_C@_0BN@DBMDCCJC@TYPE_HIDDEN_SYSTEM_ADJECTIVE?$AA@ 00493ed0     Mount.obj
 0002:00003ef0       ??_C@_09COKLNMKA@READ_ONLY?$AA@ 00493ef0     Mount.obj
 0002:00003efc       ??_C@_09JHINKGCK@UISTR_YES?$AA@ 00493efc     Mount.obj
 0002:00003f08       ??_C@_08EOJLPPDK@UISTR_NO?$AA@ 00493f08     Mount.obj
 0002:00003f14       ??_C@_0BG@NHADNFHI@HIDDEN_VOL_PROTECTION?$AA@ 00493f14     Mount.obj
 0002:00003f2c       ??_C@_0CA@KEHLKHJA@NOT_APPLICABLE_OR_NOT_AVAILABLE?$AA@ 00493f2c     Mount.obj
 0002:00003f4c       ??_C@_0BJ@JMEOPGAH@HID_VOL_DAMAGE_PREVENTED?$AA@ 00493f4c     Mount.obj
 0002:00003f68       ??_C@_0BF@IHNHLCAB@ENCRYPTION_ALGORITHM?$AA@ 00493f68     Mount.obj
 0002:00003f80       ??_C@_01OGPIMHDM@?$DP?$AA@ 00493f80     Mount.obj
 0002:00003f84       ??_C@_08BKFDBOMO@KEY_SIZE?$AA@ 00493f84     Mount.obj
 0002:00003f90       ??_C@_04HNBJMIH@BITS?$AA@  00493f90     Mount.obj
 0002:00003f98       ??_C@_1M@LCJMIND@?$AA?$CF?$AAd?$AA?5?$AA?$CF?$AAs?$AA?$AA@ 00493f98     Mount.obj
 0002:00003fa4       ??_C@_03CKCBIPFF@XTS?$AA@  00493fa4     Mount.obj
 0002:00003fa8       ??_C@_0BH@JOOMIKPF@SECONDARY_KEY_SIZE_XTS?$AA@ 00493fa8     Mount.obj
 0002:00003fc0       ??_C@_03JFLLPGCL@LRW?$AA@  00493fc0     Mount.obj
 0002:00003fc4       ??_C@_0BH@CBHGPDIL@SECONDARY_KEY_SIZE_LRW?$AA@ 00493fc4     Mount.obj
 0002:00003fdc       ??_C@_0L@PGLNCJOA@BLOCK_SIZE?$AA@ 00493fdc     Mount.obj
 0002:00003fe8       ??_C@_17BIBMKONG@?$AA?$CF?$AAd?$AA?5?$AA?$AA@ 00493fe8     Mount.obj
 0002:00003ff0       ??_C@_0BC@KECMIANL@MODE_OF_OPERATION?$AA@ 00493ff0     Mount.obj
 0002:00004004       ??_C@_09KAGLGJME@PKCS5_PRF?$AA@ 00494004     Mount.obj
 0002:00004010       ??_C@_0BG@KEFCFEKB@VOLUME_FORMAT_VERSION?$AA@ 00494010     Mount.obj
 0002:00004028       ??_C@_02DPKJAMEF@?$CFd?$AA@ 00494028     Mount.obj
 0002:0000402c       ??_C@_0O@FKDNIFFO@BACKUP_HEADER?$AA@ 0049402c     Mount.obj
 0002:0000403c       ??_C@_0BA@IKOIIHIN@TOTAL_DATA_READ?$AA@ 0049403c     Mount.obj
 0002:0000404c       ??_C@_0BD@JBAOAAB@TOTAL_DATA_WRITTEN?$AA@ 0049404c     Mount.obj
 0002:00004060       ??_C@_0BI@DLHEDHM@GST_BOOT_LOADER_VERSION?$AA@ 00494060     Mount.obj
 0002:00004078       ??_C@_0BC@EBMHNMJD@ENCRYPTED_PORTION?$AA@ 00494078     Mount.obj
 0002:0000408c       ??_C@_0CC@FDEMMPMK@ENCRYPTED_PORTION_FULLY_ENCRYPTE@ 0049408c     Mount.obj
 0002:000040b0       ??_C@_0CA@EPNHMBGD@ENCRYPTED_PORTION_NOT_ENCRYPTED?$AA@ 004940b0     Mount.obj
 0002:000040d0       ??_C@_0BM@HDAHKLF@PROCESSED_PORTION_X_PERCENT?$AA@ 004940d0     Mount.obj
 0002:000040ec       ??_C@_0BB@KOMHMFOJ@IDD_TRAVELER_DLG?$AA@ 004940ec     Mount.obj
 0002:00004100       ??_C@_0BA@OIDCBJLP@FIRST_AVAILABLE?$AA@ 00494100     Mount.obj
 0002:00004110       ??_C@_0BM@BMCDENFC@AUTORUN_MAY_NOT_ALWAYS_WORK?$AA@ 00494110     Mount.obj
 0002:0000412c       ??_C@_0L@GHEOANHD@OPEN_TITLE?$AA@ 0049412c     Mount.obj
 0002:00004138       ??_C@_0BA@DJBAGGGN@SELECT_DEST_DIR?$AA@ 00494138     Mount.obj
 0002:00004148       ??_C@_0BB@EDOKKIEO@NO_PATH_SELECTED?$AA@ 00494148     Mount.obj
 0002:0000415c       ??_C@_0BB@EGBJNKPM@NO_FILE_SELECTED?$AA@ 0049415c     Mount.obj
 0002:00004170       ??_C@_0N@LJKFJNEC@?$CFs?2GostCrypt?$AA@ 00494170     Mount.obj
 0002:00004180       ??_C@_0BB@JFHKMIMP@?$CFs?2GostCrypt?4exe?$AA@ 00494180     Mount.obj
 0002:00004194       ??_C@_0BL@LIMMEMPB@?$CFs?2GostCrypt?2GostCrypt?4exe?$AA@ 00494194     Mount.obj
 0002:000041b0       ??_C@_0BI@MDHDJIBA@?$CFs?2GostCrypt?5Format?4exe?$AA@ 004941b0     Mount.obj
 0002:000041c8       ??_C@_0CC@HDNBJKIG@?$CFs?2GostCrypt?2GostCrypt?5Format?4ex@ 004941c8     Mount.obj
 0002:000041ec       ??_C@_0BB@HPGLGEGE@?$CFs?2gostcrypt?4sys?$AA@ 004941ec     Mount.obj
 0002:00004200       ??_C@_0BL@FCNNOAFK@?$CFs?2GostCrypt?2gostcrypt?4sys?$AA@ 00494200     Mount.obj
 0002:0000421c       ??_C@_0BF@CBJJCFED@?$CFs?2gostcrypt?9x64?4sys?$AA@ 0049421c     Mount.obj
 0002:00004234       ??_C@_0BP@CABBEMMG@?$CFs?2GostCrypt?2gostcrypt?9x64?4sys?$AA@ 00494234     Mount.obj
 0002:00004254       ??_C@_02LFNMGJAP@en?$AA@   00494254     Mount.obj
 0002:00004258       ??_C@_0BD@CKMJLFFK@?$CFs?2Language?4?$CFs?4xml?$AA@ 00494258     Mount.obj
 0002:0000426c       ??_C@_0BN@IBNJMEKI@?$CFs?2GostCrypt?2Language?4?$CFs?4xml?$AA@ 0049426c     Mount.obj
 0002:0000428c       ??_C@_0P@PNEANFPE@?$CFs?2autorun?4inf?$AA@ 0049428c     Mount.obj
 0002:0000429c       ??_C@_0O@NLMEGGOA@w?0ccs?$DNUNICODE?$AA@ 0049429c     Mount.obj
 0002:000042ac       ??_C@_0BE@JLOKBADK@CANT_CREATE_AUTORUN?$AA@ 004942ac     Mount.obj
 0002:000042c0       ??_C@_06CPFEHJGK@?5?1m?5ro?$AA@ 004942c0     Mount.obj
 0002:000042c8       ??_C@_05OFCDDPAN@?5?1c?5y?$AA@ 004942c8     Mount.obj
 0002:000042d0       ??_C@_03FFBCBBOC@?5?1e?$AA@ 004942d0     Mount.obj
 0002:000042d4       ??_C@_0DK@IBBJPBFH@GostCrypt?2GostCrypt?4exe?5?1q?5backg@ 004942d4     Mount.obj
 0002:00004310       ??_C@_0BC@COMNDJGI@GST_TRAVELER_DISK?$AA@ 00494310     Mount.obj
 0002:00004328       ??_C@_1GC@LNEPCLHH@?$AA?$FL?$AAa?$AAu?$AAt?$AAo?$AAr?$AAu?$AAn?$AA?$FN?$AA?6?$AAl?$AAa?$AAb?$AAe?$AAl?$AA?$DN?$AA?$CF?$AAs?$AA?6?$AAi?$AAc?$AAo?$AAn?$AA?$DN?$AAG?$AAo?$AAs?$AAt?$AAC?$AAr?$AAy?$AAp@ 00494328     Mount.obj
 0002:0000438c       ??_C@_0BB@ENODHCDO@MOUNT_GST_VOLUME?$AA@ 0049438c     Mount.obj
 0002:000043a0       ??_C@_0BF@FNOLBOJK@IDC_PREF_LOGON_START?$AA@ 004943a0     Mount.obj
 0002:000043b8       ??_C@_1BG@HBMCJIGD@?$AAa?$AAc?$AAt?$AAi?$AAo?$AAn?$AA?$DN?$AA?$CF?$AAs?$AA?6?$AA?$AA@ 004943b8     Mount.obj
 0002:000043d0       ??_C@_0BI@JFNFPGAF@GostCrypt?2GostCrypt?4exe?$AA@ 004943d0     Mount.obj
 0002:000043e8       ??_C@_1BE@KMHACBEF@?$AAo?$AAp?$AAe?$AAn?$AA?$DN?$AA?$CF?$AAh?$AAs?$AA?6?$AA?$AA@ 004943e8     Mount.obj
 0002:00004400       ??_C@_1HI@HMCEMMBN@?$AAs?$AAh?$AAe?$AAl?$AAl?$AA?2?$AAs?$AAt?$AAa?$AAr?$AAt?$AA?$DN?$AA?$CF?$AAs?$AA?6?$AAs?$AAh?$AAe?$AAl?$AAl?$AA?2?$AAs?$AAt?$AAa?$AAr?$AAt?$AA?2?$AAc?$AAo?$AAm?$AAm?$AAa@ 00494400     Mount.obj
 0002:00004478       ??_C@_0BJ@DAGMMIPD@DISMOUNT_ALL_GST_VOLUMES?$AA@ 00494478     Mount.obj
 0002:00004498       ??_C@_1JA@NDDLEFLE@?$AAs?$AAh?$AAe?$AAl?$AAl?$AA?2?$AAd?$AAi?$AAs?$AAm?$AAo?$AAu?$AAn?$AAt?$AA?$DN?$AA?$CF?$AAs?$AA?6?$AAs?$AAh?$AAe?$AAl?$AAl?$AA?2?$AAd?$AAi?$AAs?$AAm?$AAo?$AAu?$AAn?$AAt@ 00494498     Mount.obj
 0002:00004528       ??_C@_0BG@EAOOIFHO@TRAVELER_DISK_CREATED?$AA@ 00494528     Mount.obj
 0002:00004540       ??_C@_0BI@MJIJHAHP@ENCRYPTION_ALGORITHM_LV?$AA@ 00494540     Mount.obj
 0002:00004558       ??_C@_0BE@NEFDJEPG@VOL_ALREADY_MOUNTED?$AA@ 00494558     Mount.obj
 0002:0000456c       ??_C@_0CB@FLEKEKLI@EXE_FILE_EXTENSION_MOUNT_WARNING@ 0049456c     Mount.obj
 0002:00004590       ??_C@_0BP@MPHFEMNC@UNSUPPORTED_CHARS_IN_PWD_RECOM?$AA@ 00494590     Mount.obj
 0002:000045b0       ??_C@_0BN@OHAMCJFH@HIDVOL_PROT_WARN_AFTER_MOUNT?$AA@ 004945b0     Mount.obj
 0002:000045d0       ??_C@_0BH@OGJNMHFJ@UNMOUNTALL_LOCK_FAILED?$AA@ 004945d0     Mount.obj
 0002:000045e8       ??_C@_0P@INOOLPM@UNMOUNT_FAILED?$AA@ 004945e8     Mount.obj
 0002:000045fc       ??_7?$ContainerForward@V?$vector@UHostDevice@@V?$allocator@UHostDevice@@@std@@@std@@@ForEach@GostCrypt@@6B@ 004945fc     Mount.obj
 0002:00004608       ??_C@_0CE@FPDIILIE@PASSWORD_OR_KEYFILE_WRONG_AUTOMO@ 00494608     Mount.obj
 0002:0000462c       ??_C@_0BJ@FBHENHB@PASSWORD_WRONG_AUTOMOUNT?$AA@ 0049462c     Mount.obj
 0002:00004648       ??_C@_0BL@JMLKAJFL@PASSWORD_WRONG_CAPSLOCK_ON?$AA@ 00494648     Mount.obj
 0002:00004664       ??_C@_0CE@NGBHCJPO@HEADER_DAMAGED_AUTO_USED_HEADER_@ 00494664     Mount.obj
 0002:00004688       ??_C@_0BD@LFBCNKIH@DEVICE_IN_USE_INFO?$AA@ 00494688     Mount.obj
 0002:0000469c       ??_C@_0CE@CDKDLFOB@HIDVOL_PROT_WARN_AFTER_MOUNT_PLU@ 0049469c     Mount.obj
 0002:000046c0       ??_C@_0BM@FIBIL@MOUNTED_NO_PKCS5_PRF_CHANGE?$AA@ 004946c0     Mount.obj
 0002:000046dc       ??_C@_0BD@OHBCOECM@MOUNTED_NOPWCHANGE?$AA@ 004946dc     Mount.obj
 0002:000046f0       ??_C@_0BC@EIILMKAM@PKCS5_PRF_CHANGED?$AA@ 004946f0     Mount.obj
 0002:00004704       ??_C@_0BA@LJPOPGOF@KEYFILE_CHANGED?$AA@ 00494704     Mount.obj
 0002:00004714       ??_C@_0BB@DEPMFMC@PASSWORD_CHANGED?$AA@ 00494714     Mount.obj
 0002:00004728       ??_C@_0BI@BHICMCGD@SYS_DRIVE_NOT_ENCRYPTED?$AA@ 00494728     Mount.obj
 0002:00004740       ??_C@_0CA@CIGKJDHB@SYSTEM_ENCRYPTION_NOT_COMPLETED?$AA@ 00494740     Mount.obj
 0002:00004760       ??_C@_0CF@EKDDCIEI@SYS_HKD_ALGO_CHANGED_ASK_RESCUE_@ 00494760     Mount.obj
 0002:00004788       ??_C@_0CF@MIEAFHMK@SYS_PASSWORD_CHANGED_ASK_RESCUE_@ 00494788     Mount.obj
 0002:000047b0       ??_C@_0CI@FPFBOAHN@SYSTEM_ENCRYPTION_IN_PROGRESS_EL@ 004947b0     Mount.obj
 0002:000047d8       ??_C@_0CK@NOADNGOE@Global?2GostCrypt?5System?5Encrypti@ 004947d8     Mount.obj
 0002:00004804       ??_C@_07PFDFIFLD@?1sysenc?$AA@ 00494804     Mount.obj
 0002:0000480c       ??_C@_0CP@MHIMBFBH@SYS_PARTITION_OR_DRIVE_APPEARS_F@ 0049480c     Mount.obj
 0002:0000483c       ??_C@_0BJ@KGJBOMKO@CANNOT_DECRYPT_HIDDEN_OS?$AA@ 0049483c     Mount.obj
 0002:00004858       ??_C@_0BL@DACABIPE@CONFIRM_DECRYPT_SYS_DEVICE?$AA@ 00494858     Mount.obj
 0002:00004874       ??_C@_0CD@DOIAPED@CONFIRM_DECRYPT_SYS_DEVICE_CAUTI@ 00494874     Mount.obj
 0002:00004898       ??_C@_0CJ@GFEACENL@SYS_ENCRYPTION_OR_DECRYPTION_IN_@ 00494898     Mount.obj
 0002:000048c4       ??_C@_08FPKBNNLN@?1dsysenc?$AA@ 004948c4     Mount.obj
 0002:000048d0       ??_C@_0BC@FGMBBDKC@HIDDEN_OS_PREINFO?$AA@ 004948d0     Mount.obj
 0002:000048e4       ??_C@_08MEKEMIGM@?1isysenc?$AA@ 004948e4     Mount.obj
 0002:000048f0       ??_C@_08FFGENEKE@?1csysenc?$AA@ 004948f0     Mount.obj
 0002:000048fc       ??_C@_0CH@DMFOBPHA@CANNOT_CREATE_RESCUE_DISK_ON_HID@ 004948fc     Mount.obj
 0002:00004924       ??_C@_0CM@JEBIBPGJ@RESCUE_DISK_NON_WIZARD_CREATION_@ 00494924     Mount.obj
 0002:00004950       ??_C@_17LLIKADDM@?$AAi?$AAs?$AAo?$AA?$AA@ 00494950     Mount.obj
 0002:00004958       ??_C@_1DE@NNFJBING@?$AAG?$AAo?$AAs?$AAt?$AAC?$AAr?$AAy?$AAp?$AAt?$AA?5?$AAR?$AAe?$AAs?$AAc?$AAu?$AAe?$AA?5?$AAD?$AAi?$AAs?$AAk?$AA?4?$AAi?$AAs?$AAo?$AA?$AA@ 00494958     Mount.obj
 0002:0000498c       ??_C@_0CM@GACCFBMA@RESCUE_DISK_NON_WIZARD_CREATION_@ 0049498c     Mount.obj
 0002:000049b8       ??_C@_0CF@JPIEPDKB@RESCUE_DISK_NON_WIZARD_CREATION_@ 004949b8     Mount.obj
 0002:000049e0       ??_C@_0BL@IAKJDMNN@ERROR_CREATING_RESCUE_DISK?$AA@ 004949e0     Mount.obj
 0002:000049fc       ??_C@_0CE@OJOGFJPM@RESCUE_DISK_NON_WIZARD_CHECK_INS@ 004949fc     Mount.obj
 0002:00004a20       ??_C@_0CE@OKALPMMN@RESCUE_DISK_NON_WIZARD_CHECK_FAI@ 00494a20     Mount.obj
 0002:00004a44       ??_C@_0CE@MMCPJNND@RESCUE_DISK_NON_WIZARD_CHECK_PAS@ 00494a44     Mount.obj
 0002:00004a68       ??_C@_0BHH@CINFKGAJ@Debugging?5information?5for?5system@ 00494a68     Mount.obj
 0002:00004be0       ??_C@_09FFOCOHMH@?1zinplace?$AA@ 00494be0     Mount.obj
 0002:00004bec       ??_C@_0P@GPHBLDDM@OPEN_VOL_TITLE?$AA@ 00494bec     Mount.obj
 0002:00004bfc       ??_C@_0BF@NBAJKDBM@PASSWORD_CACHE_WIPED?$AA@ 00494bfc     Mount.obj
 0002:00004c14       ??_C@_0BL@PHEMONEB@PASSWORD_CACHE_WIPED_SHORT?$AA@ 00494c14     Mount.obj
 0002:00004c30       ??_C@_0CA@JEBBJKJG@HIDDEN_OS_HIBERNATION_PREVENTED?$AA@ 00494c30     Mount.obj
 0002:00004c50       ??_C@_0BO@KKNHDDJP@SYS_ENC_HIBERNATION_PREVENTED?$AA@ 00494c50     Mount.obj
 0002:00004c70       ??_C@_0CG@LFCLDECM@HIDDEN_OS_WRITE_PROTECTION_BRIEF@ 00494c70     Mount.obj
 0002:00004c98       ??_C@_0BG@LCMGFIPF@SHOW_MORE_INFORMATION?$AA@ 00494c98     Mount.obj
 0002:00004cb0       ??_C@_0BH@LAJANGPP@DO_NOT_SHOW_THIS_AGAIN?$AA@ 00494cb0     Mount.obj
 0002:00004cc8       ??_C@_08EECOACDK@CONTINUE?$AA@ 00494cc8     Mount.obj
 0002:00004cd4       ??_C@_0CH@BNCMPPOG@DECOY_TO_HIDDEN_OS_DATA_TRANSFER@ 00494cd4     Mount.obj
 0002:00004cfc       ??_C@_0CH@OILEALFF@HIDDEN_OS_WRITE_PROTECTION_EXPLA@ 00494cfc     Mount.obj
 0002:00004d24       ??_C@_0BJ@CCHDLBFE@GST_INSTALLER_IS_RUNNING?$AA@ 00494d24     Mount.obj
 0002:00004d40       ??_C@_0BM@PMOBILPI@UPDATE_GST_IN_HIDDEN_OS_TOO?$AA@ 00494d40     Mount.obj
 0002:00004d5c       ??_C@_0DC@PODPMMAO@BOOT_LOADER_VERSION_DIFFERENT_FR@ 00494d5c     Mount.obj
 0002:00004d90       ??_C@_0BL@CMJGINID@NO_VOLUME_MOUNTED_TO_DRIVE?$AA@ 00494d90     Mount.obj
 0002:00004dac       ??_C@_0BK@KCJBFNOC@HOTKEY_REGISTRATION_ERROR?$AA@ 00494dac     Mount.obj
 0002:00004dc8       ??_C@_0P@HDDEAF@TaskbarCreated?$AA@ 00494dc8     Mount.obj
 0002:00004dd8       ??_C@_0CA@HDGOHFPD@SYSTEM_ENCRYPTION_RESUME_PROMPT?$AA@ 00494dd8     Mount.obj
 0002:00004df8       ??_C@_0M@DAMBDOGJ@?2MEMORY?4DMP?$AA@ 00494df8     Mount.obj
 0002:00004e04       ??_C@_0BK@DDMAOGAE@SYS_FAVORITE_VOLUME_DIRTY?$AA@ 00494e04     Mount.obj
 0002:00004e20       ??_C@_0BP@EPKBNKHP@PAGING_FILE_CREATION_PREVENTED?$AA@ 00494e20     Mount.obj
 0002:00004e40       ??_C@_0BK@FEHLLPHO@SYSTEM_CRASHED_ASK_REPORT?$AA@ 00494e40     Mount.obj
 0002:00004e5c       ??_C@_0CA@JKMICAAI@ASK_KEEP_DETECTING_SYSTEM_CRASH?$AA@ 00494e5c     Mount.obj
 0002:00004e7c       ??_C@_08HDEECEC@SHOW_GST?$AA@ 00494e7c     Mount.obj
 0002:00004e88       ??_C@_08KJBCGJBK@HIDE_GST?$AA@ 00494e88     Mount.obj
 0002:00004e94       ??_C@_0N@KOOLLHHJ@IDC_MOUNTALL?$AA@ 00494e94     Mount.obj
 0002:00004ea4       ??_C@_0BL@KPKLMBF@IDM_MOUNT_FAVORITE_VOLUMES?$AA@ 00494ea4     Mount.obj
 0002:00004ec0       ??_C@_0P@FLCKCNGO@IDC_UNMOUNTALL?$AA@ 00494ec0     Mount.obj
 0002:00004ed0       ??_C@_19JHEHLFPM@?$AA?2?$AA?$DP?$AA?$DP?$AA?2?$AA?$AA@ 00494ed0     Mount.obj
 0002:00004edc       ??_C@_04DANIOFHI@OPEN?$AA@ 00494edc     Mount.obj
 0002:00004ee4       ??_C@_08IPACICJG@DISMOUNT?$AA@ 00494ee4     Mount.obj
 0002:00004ef0       ??_C@_1BI@PHBMCDGL@?$AA?$CF?$AAs?$AA?5?$AA?$CF?$AAc?$AA?3?$AA?5?$AA?$CI?$AA?$CF?$AAs?$AA?$CJ?$AA?$AA@ 00494ef0     Mount.obj
 0002:00004f08       ??_C@_08BFCIMFPP@HOMEPAGE?$AA@ 00494f08     Mount.obj
 0002:00004f14       ??_C@_0BA@LCMKEAHB@IDM_PREFERENCES?$AA@ 00494f14     Mount.obj
 0002:00004f24       ??_C@_09LEBEJAK@IDM_ABOUT?$AA@ 00494f24     Mount.obj
 0002:00004f30       ??_C@_04GOLNGIJ@EXIT?$AA@  00494f30     Mount.obj
 0002:00004f38       ??_C@_0CM@BLAGDCIG@VOLUME_MOUNTED_AS_DRIVE_LETTER_X@ 00494f38     Mount.obj
 0002:00004f64       ??_C@_0BI@BNFOBMMN@SUCCESSFULLY_DISMOUNTED?$AA@ 00494f64     Mount.obj
 0002:00004f7c       ??_C@_0BK@EMBCECD@http?3?1?1www?4gostcrypt?4org?1?$AA@ 00494f7c     Mount.obj
 0002:00004f98       ??_C@_0N@CHKBBIIA@CONFIRM_EXIT?$AA@ 00494f98     Mount.obj
 0002:00004fa8       ??_C@_0CC@EMODIILJ@HOST_DEVICE_REMOVAL_DISMOUNT_WAR@ 00494fa8     Mount.obj
 0002:00004fcc       ??_C@_0CI@KGJJJNAK@HOST_DEVICE_REMOVAL_DISMOUNT_WAR@ 00494fcc     Mount.obj
 0002:00004ff4       ??_C@_03MIIGHJO@?$CFls?$AA@ 00494ff4     Mount.obj
 0002:00004ff8       ??_C@_0BB@PCGMGAC@IDM_MOUNT_VOLUME?$AA@ 00494ff8     Mount.obj
 0002:0000500c       ??_C@_0BG@IDGGPDHG@SELECT_FILE_AND_MOUNT?$AA@ 0049500c     Mount.obj
 0002:00005024       ??_C@_0BI@IOBNBNLE@SELECT_DEVICE_AND_MOUNT?$AA@ 00495024     Mount.obj
 0002:0000503c       ??_C@_0BD@LLINIPJO@IDPM_CHECK_FILESYS?$AA@ 0049503c     Mount.obj
 0002:00005050       ??_C@_0BE@FIGCPPJ@IDPM_REPAIR_FILESYS?$AA@ 00495050     Mount.obj
 0002:00005064       ??_C@_0BG@KFNIGFKC@IDPM_ADD_TO_FAVORITES?$AA@ 00495064     Mount.obj
 0002:0000507c       ??_C@_0BN@DBKOJEDK@IDPM_ADD_TO_SYSTEM_FAVORITES?$AA@ 0049507c     Mount.obj
 0002:0000509c       ??_C@_0BD@EIJPLIHM@NO_VOLUME_SELECTED?$AA@ 0049509c     Mount.obj
 0002:000050b0       ??_C@_0BI@DPFJFJBI@SELECT_A_MOUNTED_VOLUME?$AA@ 004950b0     Mount.obj
 0002:000050c8       ??_C@_1BE@NJGOLFGO@?$AAG?$AAo?$AAs?$AAt?$AAC?$AAr?$AAy?$AAp?$AAt?$AA?$AA@ 004950c8     Mount.obj
 0002:000050dc       ??_C@_0BL@FOMIGOIN@MOUNTED_VOLUMES_DISMOUNTED?$AA@ 004950dc     Mount.obj
 0002:000050f8       ??_C@_0BE@NDHENBON@IDM_CHANGE_PASSWORD?$AA@ 004950f8     Mount.obj
 0002:0000510c       ??_C@_0CB@KMDEDFDG@IDM_CHANGE_HEADER_KEY_DERIV_ALGO@ 0049510c     Mount.obj
 0002:00005130       ??_C@_0BM@KEPNAEHF@IDM_ADD_REMOVE_VOL_KEYFILES?$AA@ 00495130     Mount.obj
 0002:0000514c       ??_C@_0CB@BLPODHKE@IDM_REMOVE_ALL_KEYFILES_FROM_VOL@ 0049514c     Mount.obj
 0002:00005170       ??_C@_0BG@DFAIMILK@IDM_BACKUP_VOL_HEADER?$AA@ 00495170     Mount.obj
 0002:00005188       ??_C@_0BH@FLEEOEDN@IDM_RESTORE_VOL_HEADER?$AA@ 00495188     Mount.obj
 0002:000051a0       ??_C@_0BK@JIMANJGK@ALL_TOKEN_SESSIONS_CLOSED?$AA@ 004951a0     Mount.obj
 0002:000051bc       ??_C@_0CK@IEMMKDKG@http?3?1?1www?4gostcrypt?4org?1redirec@ 004951bc     Mount.obj
 0002:000051e8       ??_C@_0CK@MLINDFGB@http?3?1?1www?4gostcrypt?4org?1redirec@ 004951e8     Mount.obj
 0002:00005214       ??_C@_0CK@JNNHJCOH@http?3?1?1www?4gostcrypt?4org?1redirec@ 00495214     Mount.obj
 0002:00005240       ??_C@_0CK@LGPKMBCE@http?3?1?1www?4gostcrypt?4org?1redirec@ 00495240     Mount.obj
 0002:0000526c       ??_C@_0CK@KPOBPAGF@http?3?1?1www?4gostcrypt?4org?1redirec@ 0049526c     Mount.obj
 0002:00005298       ??_C@_17LGKOMLJ@?$AA?4?$AA?4?$AA?4?$AA?$AA@ 00495298     Mount.obj
 0002:000052a0       ??_C@_0BI@DALIBKDK@AMBIGUOUS_VOL_SELECTION?$AA@ 004952a0     Mount.obj
 0002:000052b8       ??_C@_08DDAIHKOO@IDCANCEL?$AA@ 004952b8     Mount.obj
 0002:000052c4       ??_C@_0L@JGIDNNFC@?9Embedding?$AA@ 004952c4     Mount.obj
 0002:000052d0       ??_C@_05PBOJFAAI@?1auto?$AA@ 004952d0     Mount.obj
 0002:000052d8       ??_C@_02EPEJHNNG@?1a?$AA@  004952d8     Mount.obj
 0002:000052dc       ??_C@_05DGOOLKJO@?1beep?$AA@ 004952dc     Mount.obj
 0002:000052e4       ??_C@_02GEGECOBF@?1b?$AA@  004952e4     Mount.obj
 0002:000052e8       ??_C@_06GIJBHGK@?1cache?$AA@ 004952e8     Mount.obj
 0002:000052f0       ??_C@_02HNHPBPFE@?1c?$AA@  004952f0     Mount.obj
 0002:000052f4       ??_C@_09ELHLJIDE@?1dismount?$AA@ 004952f4     Mount.obj
 0002:00005300       ??_C@_02DCDOIJJD@?1d?$AA@  00495300     Mount.obj
 0002:00005304       ??_C@_08HIGIMFLE@?1explore?$AA@ 00495304     Mount.obj
 0002:00005310       ??_C@_02CLCFLINC@?1e?$AA@  00495310     Mount.obj
 0002:00005314       ??_C@_06NIEOHKD@?1force?$AA@ 00495314     Mount.obj
 0002:0000531c       ??_C@_02IOLBB@?1f?$AA@     0049531c     Mount.obj
 0002:00005320       ??_C@_05HDIPJJLA@?1help?$AA@ 00495320     Mount.obj
 0002:00005328       ??_C@_02GLHBANAM@?1?$DP?$AA@ 00495328     Mount.obj
 0002:0000532c       ??_C@_08BCLHLEKP@?1history?$AA@ 0049532c     Mount.obj
 0002:00005338       ??_C@_02JOILMGJP@?1h?$AA@  00495338     Mount.obj
 0002:0000533c       ??_C@_08DFIHLCEH@?1keyfile?$AA@ 0049533c     Mount.obj
 0002:00005348       ??_C@_02LFKGJFFM@?1k?$AA@  00495348     Mount.obj
 0002:0000534c       ??_C@_07BFLOILGP@?1letter?$AA@ 0049534c     Mount.obj
 0002:00005354       ??_C@_02PKOHADJL@?1l?$AA@  00495354     Mount.obj
 0002:00005358       ??_C@_0N@DJNKKGFK@?1mountoption?$AA@ 00495358     Mount.obj
 0002:00005368       ??_C@_02ODPMDCNK@?1m?$AA@  00495368     Mount.obj
 0002:0000536c       ??_C@_09GAKENAOK@?1password?$AA@ 0049536c     Mount.obj
 0002:00005378       ??_C@_02BMJAFOMG@?1p?$AA@  00495378     Mount.obj
 0002:0000537c       ??_C@_05CMMBDMDD@?1quit?$AA@ 0049537c     Mount.obj
 0002:00005384       ??_C@_02FILGPIH@?1q?$AA@   00495384     Mount.obj
 0002:00005388       ??_C@_07BBNAADON@?1silent?$AA@ 00495388     Mount.obj
 0002:00005390       ??_C@_02DHLNANAF@?1s?$AA@  00495390     Mount.obj
 0002:00005394       ??_C@_09JABABBPB@?1tokenlib?$AA@ 00495394     Mount.obj
 0002:000053a0       ??_C@_07JEDHAFIB@?1volume?$AA@ 004953a0     Mount.obj
 0002:000053a8       ??_C@_02EKMKPJEA@?1v?$AA@  004953a8     Mount.obj
 0002:000053ac       ??_C@_0L@ENHIBAFA@?1wipecache?$AA@ 004953ac     Mount.obj
 0002:000053b8       ??_C@_02FDNBMIAB@?1w?$AA@  004953b8     Mount.obj
 0002:000053bc       ??_C@_07DNDGGNGG@devices?$AA@ 004953bc     Mount.obj
 0002:000053c4       ??_C@_05DEGNHEGP@logon?$AA@ 004953c4     Mount.obj
 0002:000053cc       ??_C@_01EFFIKLCJ@n?$AA@    004953cc     Mount.obj
 0002:000053d0       ??_C@_02KAJCLHKP@no?$AA@   004953d0     Mount.obj
 0002:000053d4       ??_C@_0BB@JACLBFH@BAD_DRIVE_LETTER?$AA@ 004953d4     Mount.obj
 0002:000053e8       ??_C@_02LFKOONLL@ro?$AA@   004953e8     Mount.obj
 0002:000053ec       ??_C@_02IHJIIPDJ@rm?$AA@   004953ec     Mount.obj
 0002:000053f0       ??_C@_02FHFEMMFE@ts?$AA@   004953f0     Mount.obj
 0002:000053f4       ??_C@_09OMDJNLDP@timestamp?$AA@ 004953f4     Mount.obj
 0002:00005400       ??_C@_02IGFKOFAO@sm?$AA@   00495400     Mount.obj
 0002:00005404       ??_C@_02MNOEILMP@bk?$AA@   00495404     Mount.obj
 0002:00005408       ??_C@_09COBBNOIA@headerbak?$AA@ 00495408     Mount.obj
 0002:00005414       ??_C@_08MPLGCJPF@recovery?$AA@ 00495414     Mount.obj
 0002:00005420       ??_C@_03IIGECEEC@UAC?$AA@  00495420     Mount.obj
 0002:00005424       ??_C@_0M@OAMDCHEH@preferences?$AA@ 00495424     Mount.obj
 0002:00005430       ??_C@_0L@EGCKCJDC@background?$AA@ 00495430     Mount.obj
 0002:0000543c       ??_C@_0BD@LGCKNJIO@COMMAND_LINE_ERROR?$AA@ 0049543c     Mount.obj
 0002:00005450       ??_C@_0BI@INAEICPC@?1systemFavoritesService?$AA@ 00495450     Mount.obj
 0002:00005468       ??_C@_0N@PDPHKHCO@INIT_SYS_ENC?$AA@ 00495468     Mount.obj
 0002:00005478       ??_C@_08ELEAABKI@NODRIVER?$AA@ 00495478     Mount.obj
 0002:00005484       ??_C@_0BF@HGFBFKCN@GostCryptTaskBarIcon?$AA@ 00495484     Mount.obj
 0002:0000549c       ??_C@_02DPEMFEPD@?3?2?$AA@ 0049549c     Mount.obj
 0002:000054a0       ??_C@_0EB@HEILLAOI@?3?5was?5not?5cleanly?5dismounted?5and@ 004954a0     Mount.obj
 0002:000054e4       ??_C@_0CJ@DGLLCMFL@The?5filesystem?5of?5the?5volume?5mou@ 004954e4     Mount.obj
 0002:00005510       ??_C@_0BJ@PCMNJMOK@DRIVE_LETTER_UNAVAILABLE?$AA@ 00495510     Mount.obj
 0002:0000552c       ??_C@_0BF@CEDLNBLM@Default?5Keyfiles?4xml?$AA@ 0049552c     Mount.obj
 0002:00005544       ??_C@_01NOFIACDB@w?$AA@    00495544     Mount.obj
 0002:00005548       ??_C@_0BE@OMMCBCFB@?6?7?$DMdefaultkeyfiles?$DO?$AA@ 00495548     Mount.obj
 0002:0000555c       ??_C@_0BJ@CHEIJIHP@?6?7?7?$DMkeyfile?$DO?$CFs?$DM?1keyfile?$DO?$AA@ 0049555c     Mount.obj
 0002:00005578       ??_C@_0BF@DOFEIEI@?6?7?$DM?1defaultkeyfiles?$DO?$AA@ 00495578     Mount.obj
 0002:00005590       ??_C@_0BO@DGLAJIIH@CONFIRM_SAVE_DEFAULT_KEYFILES?$AA@ 00495590     Mount.obj
 0002:000055b0       ??_C@_0BP@HODIPNNI@VOLUMES_DISMOUNTED_CACHE_WIPED?$AA@ 004955b0     Mount.obj
 0002:000055d0       ??_C@_0CB@COFHFDLC@BACKUP_HEADER_NOT_FOR_SYS_DEVICE@ 004955d0     Mount.obj
 0002:000055f4       ??_C@_0P@MICPAHBN@DISMOUNT_FIRST?$AA@ 004955f4     Mount.obj
 0002:00005604       ??_C@_0CD@BMDCPMNN@EXTERNAL_VOL_HEADER_BAK_FIRST_IN@ 00495604     Mount.obj
 0002:00005628       ??_C@_0BK@NBNNCJIA@ENTER_HIDDEN_VOL_PASSWORD?$AA@ 00495628     Mount.obj
 0002:00005644       ??_C@_0BK@PFPMCGBA@ENTER_NORMAL_VOL_PASSWORD?$AA@ 00495644     Mount.obj
 0002:00005660       ??_C@_0BL@NFANNLME@DOES_VOLUME_CONTAIN_HIDDEN?$AA@ 00495660     Mount.obj
 0002:0000567c       ??_C@_0BH@ICMGDKFO@VOLUME_CONTAINS_HIDDEN?$AA@ 0049567c     Mount.obj
 0002:00005694       ??_C@_0BP@MCBDNFBA@VOLUME_DOES_NOT_CONTAIN_HIDDEN?$AA@ 00495694     Mount.obj
 0002:000056b4       ??_C@_0BH@GJOFNIEF@CONFIRM_VOL_HEADER_BAK?$AA@ 004956b4     Mount.obj
 0002:000056cc       ??_C@_0BF@CNAIDNAO@VOL_HEADER_BACKED_UP?$AA@ 004956cc     Mount.obj
 0002:000056e4       ??_C@_0CC@JDGAADHA@RESTORE_HEADER_NOT_FOR_SYS_DEVIC@ 004956e4     Mount.obj
 0002:00005708       ??_C@_0CB@FAFBPKHB@HEADER_RESTORE_EXTERNAL_INTERNAL@ 00495708     Mount.obj
 0002:0000572c       ??_C@_0BI@EHPOIEIN@HEADER_RESTORE_INTERNAL?$AA@ 0049572c     Mount.obj
 0002:00005744       ??_C@_0BI@BLBOEPDF@HEADER_RESTORE_EXTERNAL?$AA@ 00495744     Mount.obj
 0002:0000575c       ??_C@_0BM@IJOHKBBH@VOLUME_HAS_NO_BACKUP_HEADER?$AA@ 0049575c     Mount.obj
 0002:00005778       ??_C@_0BL@LDJEOHOC@CONFIRM_VOL_HEADER_RESTORE?$AA@ 00495778     Mount.obj
 0002:00005794       ??_C@_0BN@JPMMBOLE@HEADER_BACKUP_SIZE_INCORRECT?$AA@ 00495794     Mount.obj
 0002:000057b4       ??_C@_0BN@OAEDFHDH@ENTER_HEADER_BACKUP_PASSWORD?$AA@ 004957b4     Mount.obj
 0002:000057d4       ??_C@_0BE@KBMHKHFE@VOL_HEADER_RESTORED?$AA@ 004957d4     Mount.obj
 0002:000057e8       ??_C@_0BJ@JPCOHEKF@IDD_PERFORMANCE_SETTINGS?$AA@ 004957e8     Mount.obj
 0002:00005804       ??_C@_0BL@IHFEJFAE@LIMIT_ENC_THREAD_POOL_NOTE?$AA@ 00495804     Mount.obj
 0002:00005820       ??_C@_0CK@PODLKGNM@BOOT_LOADER_VERSION_INCORRECT_PR@ 00495820     Mount.obj
 0002:0000584c       ??_C@_0CA@MKBHDAPB@GostCryptEncryptionFreeCpuCount?$AA@ 0049584c     Mount.obj
 0002:0000586c       ??_C@_0CF@BCEFFIOG@CONFIRM_SETTING_DEGRADES_PERFORM@ 0049586c     Mount.obj
 0002:00005894       ??_C@_0BG@FENNOOCF@IDD_TOKEN_PREFERENCES?$AA@ 00495894     Mount.obj
 0002:000058ac       ??_C@_0BJ@CFHJALGH@PKCS11_LIB_LOCATION_HELP?$AA@ 004958ac     Mount.obj
 0002:000058c8       ??_C@_06GCOBGCMM@?2?$CK?4dll?$AA@ 004958c8     Mount.obj
 0002:000058d0       ??_C@_0BC@GHFGDNNP@C_GetFunctionList?$AA@ 004958d0     Mount.obj
 0002:000058e4       ??_C@_0CE@OHLDMBDC@PKCS11_MODULE_AUTO_DETECTION_FAI@ 004958e4     Mount.obj
 0002:00005908       ??_C@_0BK@JAOPIDPK@SELECT_PKCS11_MODULE_HELP?$AA@ 00495908     Mount.obj
 0002:00005924       ??_C@_09KCMKPLMM@DLL_FILES?$AA@ 00495924     Mount.obj
 0002:00005930       ??_C@_1CO@NINDPDLA@?$AA?$CF?$AAl?$AAs?$AA?5?$AA?$CI?$AA?$CK?$AA?4?$AAd?$AAl?$AAl?$AA?$CJ?$AA?$CF?$AAc?$AA?$CK?$AA?4?$AAd?$AAl?$AAl?$AA?$CF?$AAc?$AA?$CF?$AAc?$AA?$AA@ 00495930     Mount.obj
 0002:00005960       ??_C@_0BF@MIOOGCMH@SELECT_PKCS11_MODULE?$AA@ 00495960     Mount.obj
 0002:00005978       ??_C@_0BE@DIKHJDAL@IDD_SYSENC_SETTINGS?$AA@ 00495978     Mount.obj
 0002:0000598c       ??_C@_0CA@MLEEDNMP@CUSTOM_BOOT_LOADER_MESSAGE_HELP?$AA@ 0049598c     Mount.obj
 0002:000059ac       ??_C@_0CC@JFAOPCM@CUSTOM_BOOT_LOADER_MESSAGE_PROMP@ 004959ac     Mount.obj
 0002:000059d0       ??_C@_0BJ@KPNNKBCP@?2VarFileInfo?2Translation?$AA@ 004959d0     Mount.obj
 0002:000059ec       ??_C@_0BK@KLKDFMGB@?2StringFileInfo?2?$CF04x?$CF04x?2?$AA@ 004959ec     Mount.obj
 0002:00005a08       ??_C@_0BA@IMJFJNNG@FileDescription?$AA@ 00495a08     Mount.obj
 0002:00005a18       ??_C@_0M@DHIAIDA@CompanyName?$AA@ 00495a18     Mount.obj
 0002:00005a24       ??_C@_0M@MNPNDAHP@ProductName?$AA@ 00495a24     Mount.obj
 0002:00005a30       ??_C@_0BN@NCIHJKNO@ASK_DELETE_KERNEL_CRASH_DUMP?$AA@ 00495a30     Mount.obj
 0002:00005a54       ??_7?$ContainerForward@V?$list@V?$basic_string@DU?$char_traits@D@std@@V?$allocator@D@2@@std@@V?$allocator@V?$basic_string@DU?$char_traits@D@std@@V?$allocator@D@2@@std@@@2@@std@@@ForEach@GostCrypt@@6B@ 00495a54     Mount.obj
 0002:00005a60       ??_C@_05ENIPKILI@?$CK?4dmp?$AA@ 00495a60     Mount.obj
 0002:00005a68       ??_C@_09PEDFGHAD@?2Minidump?$AA@ 00495a68     Mount.obj
 0002:00005a74       ??_C@_0BC@FCCCOAIF@NO_MINIDUMP_FOUND?$AA@ 00495a74     Mount.obj
 0002:00005a88       ??_C@_0BA@NBHAJNOF@?4true_crypt?4dmp?$AA@ 00495a88     Mount.obj
 0002:00005a98       ??_C@_0CC@CCBLKMNC@Debugging?5Tools?5for?5Windows?5?$CIx64@ 00495a98     Mount.obj
 0002:00005abc       ??_C@_0CC@MBEAAPIP@Debugging?5Tools?5for?5Windows?5?$CIx86@ 00495abc     Mount.obj
 0002:00005ae0       ??_C@_0BF@MBNOGAIL@ASK_DEBUGGER_INSTALL?$AA@ 00495ae0     Mount.obj
 0002:00005af8       ??_C@_02JLHCEMDI@64?$AA@   00495af8     Mount.obj
 0002:00005afc       ??_C@_02KDNKADLA@86?$AA@   00495afc     Mount.obj
 0002:00005b00       ??_C@_0FM@BKMGFOOM@msiexec?4exe?5?1qb?5?1i?5http?3?1?1www?4go@ 00495b00     Mount.obj
 0002:00005b5c       ??_C@_0BL@KIJCEJCM@SYSTEM_CRASH_ANALYSIS_INFO?$AA@ 00495b5c     Mount.obj
 0002:00005b78       ??_C@_06NOEMODMP@?5?$CIx86?$CJ?$AA@ 00495b78     Mount.obj
 0002:00005b80       ??_C@_08BPJIFMCN@?$CJ?2kd?4exe?$AA@ 00495b80     Mount.obj
 0002:00005b8c       ??_C@_03OLPMMCEF@x64?$AA@  00495b8c     Mount.obj
 0002:00005b90       ??_C@_03NDFEINMN@x86?$AA@  00495b90     Mount.obj
 0002:00005b94       ??_C@_0BP@EAPKEFHJ@?2Debugging?5Tools?5for?5Windows?5?$CI?$AA@ 00495b94     Mount.obj
 0002:00005bb4       ??_C@_08DPIDHLKL@?3?2WinDDK?$AA@ 00495bb4     Mount.obj
 0002:00005bc0       ??_C@_0BC@OEHGBEPK@?2Debuggers?2kd?4exe?$AA@ 00495bc0     Mount.obj
 0002:00005bd4       ??_C@_06EICGEFIM@kd?4exe?$AA@ 00495bd4     Mount.obj
 0002:00005be0       ??_C@_0EP@EEFBGPBB@?$CC?5?9y?5http?3?1?1msdl?4microsoft?4com?1d@ 00495be0     Mount.obj
 0002:00005c30       ??_C@_06JPDBKGIP@?$CC?5?9z?5?$CC?$AA@ 00495c30     Mount.obj
 0002:00005c38       ??_C@_0BD@JOHJKMBG@DEBUGGER_NOT_FOUND?$AA@ 00495c38     Mount.obj
 0002:00005c4c       ??_C@_0P@IAENJCO@Bugcheck?5code?5?$AA@ 00495c4c     Mount.obj
 0002:00005c5c       ??_C@_0BI@NIGJHOFH@ERR_PARAMETER_INCORRECT?$AA@ 00495c5c     Mount.obj
 0002:00005c74       ??_C@_05MIPPMNIM@?$CFI64X?$AA@ 00495c74     Mount.obj
 0002:00005c7c       ??_C@_0L@BOIEBBIA@Arguments?5?$AA@ 00495c7c     Mount.obj
 0002:00005c88       ??_C@_0BI@BFMPHOAO@?$CFI64X?5?$CFI64X?5?$CFI64X?5?$CFI64X?$AA@ 00495c88     Mount.obj
 0002:00005ca0       ??_C@_0M@CBBALMMJ@IMAGE_NAME?3?$AA@ 00495ca0     Mount.obj
 0002:00005cac       ??_C@_0M@HHAMOJPD@STACK_TEXT?3?$AA@ 00495cac     Mount.obj
 0002:00005cb8       ??_C@_0N@MBCBPEAG@FOLLOWUP_IP?3?$AA@ 00495cb8     Mount.obj
 0002:00005cc8       ??_C@_0P@NOCFBPIP@STACK_COMMAND?3?$AA@ 00495cc8     Mount.obj
 0002:00005cd8       ??_C@_01MIFGBAGJ@?$CL?$AA@ 00495cd8     Mount.obj
 0002:00005cdc       ??_C@_01JOAMLHOP@?9?$AA@   00495cdc     Mount.obj
 0002:00005ce0       ??_C@_01GBGANLPD@0?$AA@    00495ce0     Mount.obj
 0002:00005ce4       ??_C@_01HIHLOKLC@1?$AA@    00495ce4     Mount.obj
 0002:00005ce8       ??_C@_0KJ@DELNAAOK@https?3?1?1www?4gostcrypt?4org?1applin@ 00495ce8     Mount.obj
 0002:00005d94       ??_C@_01NEMOKFLO@?$DN?$AA@ 00495d94     Mount.obj
 0002:00005d98       ??_C@_03EGAGLKPK@?$CGst?$AA@ 00495d98     Mount.obj
 0002:00005d9c       ??_C@_04GMGPCCGD@?4SYS?$AA@ 00495d9c     Mount.obj
 0002:00005da4       ??_C@_0BL@CMMKPOGK@SYSTEM_CRASH_UPDATE_DRIVER?$AA@ 00495da4     Mount.obj
 0002:00005dc0       ??_C@_0BD@JHJKCMBK@?2System32?2drivers?2?$AA@ 00495dc0     Mount.obj
 0002:00005dd4       ??_C@_03FEFIDNAB@?$DL?5?5?$AA@ 00495dd4     Mount.obj
 0002:00005dd8       ??_C@_03BLJJGHJH@?5?5?$CI?$AA@ 00495dd8     Mount.obj
 0002:00005ddc       ??_C@_0BK@LHIAABCF@SYSTEM_CRASH_NO_GOSTCRYPT?$AA@ 00495ddc     Mount.obj
 0002:00005df8       ??_C@_08FNMHHHDJ@?$CGdrvver?$DN?$AA@ 00495df8     Mount.obj
 0002:00005e04       ??_C@_0BE@IDLEBLFG@SYSTEM_CRASH_REPORT?$AA@ 00495e04     Mount.obj
 0002:00005e18       ??_C@_0BG@PCCHGHDE@ASK_SEND_ERROR_REPORT?$AA@ 00495e18     Mount.obj
 0002:00005e30       ??_C@_04PMOCAHAA@open?$AA@ 00495e30     Mount.obj
 0002:00005e38       __real@4059000000000000    00495e38     Mount.obj
 0002:00005e40       ??_C@_1DO@BMONIIMG@?$AAE?$AAl?$AAe?$AAv?$AAa?$AAt?$AAi?$AAo?$AAn?$AA?3?$AAA?$AAd?$AAm?$AAi?$AAn?$AAi?$AAs?$AAt?$AAr?$AAa?$AAt?$AAo?$AAr?$AA?$CB?$AAn?$AAe?$AAw?$AA?3?$AA?$CF?$AAs?$AA?$AA@ 00495e40     BaseCom.obj
 0002:00005e80       ??_C@_0P@NDJDHMAP@UAC_INIT_ERROR?$AA@ 00495e80     BaseCom.obj
 0002:00005e90       ??_C@_0BE@GKKPACCB@IDD_COMMANDHELP_DLG?$AA@ 00495e90     Cmdline.obj
 0002:00005ea4       ??_C@_0BI@HHPEFDNB@Command?5line?5options?3?6?6?$AA@ 00495ea4     Cmdline.obj
 0002:00005ebc       ??_C@_06EEAEEKCL@?$CFs?7?$CFs?6?$AA@ 00495ebc     Cmdline.obj
 0002:00005ec4       ??_C@_0M@IMAOAGMP@OUTOFMEMORY?$AA@ 00495ec4     Cmdline.obj
 0002:00005ed0       ??_C@_0M@COMBLGLD@History?4xml?$AA@ 00495ed0     Combo.obj
 0002:00005edc       ??_C@_0M@MCACFAKG@?6?7?$DMhistory?$DO?$AA@ 00495edc     Combo.obj
 0002:00005ee8       ??_C@_0BH@PGAPGLND@?6?7?7?$DMvolume?$DO?$CFs?$DM?1volume?$DO?$AA@ 00495ee8     Combo.obj
 0002:00005f00       ??_C@_0N@GOMGLJCI@?6?7?$DM?1history?$DO?$AA@ 00495f00     Combo.obj
 0002:00005f10       ??_C@_0O@POKHNLDL@GOST?528147?989?$AA@ 00495f10     Crypto.obj
 0002:00005f20       ??_C@_0BB@BMJBGELP@Gost?5Grasshopper?$AA@ 00495f20     Crypto.obj
 0002:00005f34       ??_C@_0BC@IEIFLFFI@GOST?5R?534?411?92012?$AA@ 00495f34     Crypto.obj
 0002:00005f48       ??_C@_0BA@KDEBPBMN@GOST?5R?534?411?994?$AA@ 00495f48     Crypto.obj
 0002:00005f58       ??_C@_09HLDHDDJL@Whirlpool?$AA@ 00495f58     Crypto.obj
 0002:00005f64       ??_C@_0BD@GMAMAMGI@XTS?564?9bit?5version?$AA@ 00495f64     Crypto.obj
 0002:00005f78       ??_C@_09DJENBFJK@?$FLunknown?$FN?$AA@ 00495f78     Crypto.obj
 0002:00005f84       ??_C@_0BE@JONHPENG@map?1set?$DMT?$DO?5too?5long?$AA@ 00495f84     Dictionary.obj
 0002:00005f9c       ??_C@_0BL@NECJIJNL@NO_PKCS11_MODULE_SPECIFIED?$AA@ 00495f9c     Dlgcode.obj
 0002:00005fb8       ??_C@_0BK@OPPAPAFF@PKCS11_MODULE_INIT_FAILED?$AA@ 00495fb8     Dlgcode.obj
 0002:00005fd8       ??_7GetPinFunctor@GostCrypt@@6B@ 00495fd8     Dlgcode.obj
 0002:00005fe4       ??_7SendExceptionFunctor@GostCrypt@@6B@ 00495fe4     Dlgcode.obj
 0002:00005fec       ??_C@_09ODDMBMG@CustomDlg?$AA@ 00495fec     Dlgcode.obj
 0002:00005ff8       ??_C@_09EPIDNIBP@SplashDlg?$AA@ 00495ff8     Dlgcode.obj
 0002:00006008       ??_7?$ContainerForward@V?$basic_string@DU?$char_traits@D@std@@V?$allocator@D@2@@std@@@ForEach@GostCrypt@@6B@ 00496008     Dlgcode.obj
 0002:00006014       ??_C@_08MBBBEOPI@?2Device?2?$AA@ 00496014     Dlgcode.obj
 0002:00006020       ??_C@_08FALOLEII@?2DEVICE?2?$AA@ 00496020     Dlgcode.obj
 0002:0000602c       ??_C@_0N@DANNJCFD@gostcrypt?$CFlu?$AA@ 0049602c     Dlgcode.obj
 0002:0000603c       ??_C@_06DIBEOEIP@?2?2?4?2?$CFs?$AA@ 0049603c     Dlgcode.obj
 0002:00006044       ??_C@_0BC@GIPDODAO@ERR_ACCESS_DENIED?$AA@ 00496044     Dlgcode.obj
 0002:00006058       ??_C@_0BD@NLNANBEJ@ERR_HARDWARE_ERROR?$AA@ 00496058     Dlgcode.obj
 0002:0000606c       ??_C@_0O@JLGCPBGA@IDD_ABOUT_DLG?$AA@ 0049606c     Dlgcode.obj
 0002:0000607c       ??_C@_0BC@CFCNFPNP@www?4gostcrypt?4org?$AA@ 0049607c     Dlgcode.obj
 0002:00006090       ??_C@_05OJPKCACG@1?43?41?$AA@ 00496090     Dlgcode.obj
 0002:00006098       ??_C@_0N@BPJNLKPO@GostCrypt?5?$CFs?$AA@ 00496098     Dlgcode.obj
 0002:000060a8       ??_C@_0DF@NEDIGDMJ@Released?5by?5the?5GostCrypt?5develo@ 004960a8     Dlgcode.obj
 0002:000060e0       ??_C@_0DCE@DDNKAONB@Portions?5of?5this?5software?5are?5ba@ 004960e0     Dlgcode.obj
 0002:00006404       ??_C@_0M@IGCGEGAM@font_normal?$AA@ 00496404     Dlgcode.obj
 0002:00006410       ??_C@_1BA@HANLFFFG@?$AAd?$AAe?$AAf?$AAa?$AAu?$AAl?$AAt?$AA?$AA@ 00496410     Dlgcode.obj
 0002:00006420       ??_C@_1O@FPBPJIKI@?$AAT?$AAa?$AAh?$AAo?$AAm?$AAa?$AA?$AA@ 00496420     Dlgcode.obj
 0002:00006430       ??_C@_1BI@GNONBDFP@?$AAC?$AAo?$AAu?$AAr?$AAi?$AAe?$AAr?$AA?5?$AAN?$AAe?$AAw?$AA?$AA@ 00496430     Dlgcode.obj
 0002:00006448       ??_C@_06DILOELAE@NOFONT?$AA@ 00496448     Dlgcode.obj
 0002:00006450       ??_C@_09KDCDAOMH@font_bold?$AA@ 00496450     Dlgcode.obj
 0002:0000645c       ??_C@_1M@KAKMLIHO@?$AAA?$AAr?$AAi?$AAa?$AAl?$AA?$AA@ 0049645c     Dlgcode.obj
 0002:00006468       ??_C@_0L@NMFINBBB@font_title?$AA@ 00496468     Dlgcode.obj
 0002:00006474       ??_C@_1CA@MBPOLHGL@?$AAT?$AAi?$AAm?$AAe?$AAs?$AA?5?$AAN?$AAe?$AAw?$AA?5?$AAR?$AAo?$AAm?$AAa?$AAn?$AA?$AA@ 00496474     Dlgcode.obj
 0002:00006494       ??_C@_0L@MOFKMHPH@font_fixed?$AA@ 00496494     Dlgcode.obj
 0002:000064a0       ??_C@_1BO@CJPKCNHF@?$AAL?$AAu?$AAc?$AAi?$AAd?$AAa?$AA?5?$AAC?$AAo?$AAn?$AAs?$AAo?$AAl?$AAe?$AA?$AA@ 004964a0     Dlgcode.obj
 0002:000064c0       ??_C@_08KAINEBEN@ABOUTBOX?$AA@ 004964c0     Dlgcode.obj
 0002:000064cc       ??_C@_07EFPKBNGC@REDTICK?$AA@ 004964cc     Dlgcode.obj
 0002:000064d8       ??_7?$ContainerForward@V?$list@KV?$allocator@K@std@@@std@@@ForEach@GostCrypt@@6B@ 004964d8     Dlgcode.obj
 0002:000064e4       ??_C@_0BH@KPCDNAAO@EXCEPTION_REPORT_TITLE?$AA@ 004964e4     Dlgcode.obj
 0002:000064fc       ??_C@_0BF@JIKAMFDK@EXCEPTION_REPORT_EXT?$AA@ 004964fc     Dlgcode.obj
 0002:00006514       ??_C@_0M@OOEJBPPK@dbghelp?4dll?$AA@ 00496514     Dlgcode.obj
 0002:00006520       ??_C@_0O@KGBKFDLO@SymGetOptions?$AA@ 00496520     Dlgcode.obj
 0002:00006530       ??_C@_0O@LIDFOEPH@SymSetOptions?$AA@ 00496530     Dlgcode.obj
 0002:00006540       ??_C@_0O@MCMFENKA@SymInitialize?$AA@ 00496540     Dlgcode.obj
 0002:00006550       ??_C@_0BJ@OOGADJNM@SymFunctionTableAccess64?$AA@ 00496550     Dlgcode.obj
 0002:0000656c       ??_C@_0BD@JCAKOMOK@SymGetModuleBase64?$AA@ 0049656c     Dlgcode.obj
 0002:00006580       ??_C@_0M@FJINHFIC@StackWalk64?$AA@ 00496580     Dlgcode.obj
 0002:0000658c       ??_C@_0M@GHNAPHBH@SymFromAddr?$AA@ 0049658c     Dlgcode.obj
 0002:00006598       ??_C@_03BPHHBGPB@?$DN0x?$AA@ 00496598     Dlgcode.obj
 0002:0000659c       ??_C@_0BA@EIBJDAPB@?$CGlangpack?$DN?$CFs_?$CFs?$AA@ 0049659c     Dlgcode.obj
 0002:000065ac       ??_C@_04GHJNJNPO@main?$AA@ 004965ac     Dlgcode.obj
 0002:000065b8       ??_C@_0JB@MLJIHOID@https?3?1?1www?4gostcrypt?4org?1applin@ 004965b8     Dlgcode.obj
 0002:0000664c       ??_C@_0BB@PFGPMKFM@EXCEPTION_REPORT?$AA@ 0049664c     Dlgcode.obj
 0002:00006660       ??_C@_0BN@PKGEAFIB@EXCEPTION_REPORT_EXT_FILESEL?$AA@ 00496660     Dlgcode.obj
 0002:00006680       ??_C@_0CM@BEIDGOGA@Global?2GostCrypt?5In?9Place?5Encryp@ 00496680     Dlgcode.obj
 0002:000066ac       ??_C@_0BO@JOPFAKIM@Global?2GostCrypt?5Driver?5Setup?$AA@ 004966ac     Dlgcode.obj
 0002:000066cc       ??_C@_0BH@JMLDCLIN@Global?2GostCrypt?5Setup?$AA@ 004966cc     Dlgcode.obj
 0002:000066e4       ??_C@_0BG@NJOIKHOP@System?5Encryption?4xml?$AA@ 004966e4     Dlgcode.obj
 0002:000066fc       ??_C@_06HEJKKHEK@config?$AA@ 004966fc     Dlgcode.obj
 0002:00006704       ??_C@_03ICHNJLJF@key?$AA@  00496704     Dlgcode.obj
 0002:00006708       ??_C@_0BH@GJIMGGMJ@SystemEncryptionStatus?$AA@ 00496708     Dlgcode.obj
 0002:00006720       ??_C@_08OAECLFAP@WipeMode?$AA@ 00496720     Dlgcode.obj
 0002:0000672c       ??_C@_0BE@NLGDPAAC@In?9Place?5Encryption?$AA@ 0049672c     Dlgcode.obj
 0002:00006740       ??_C@_0BO@IBNLKCDC@In?9Place?5Encryption?5Wipe?5Algo?$AA@ 00496740     Dlgcode.obj
 0002:00006760       ??_C@_0BN@CCKGMGAA@Post?9Install?5Task?5?9?5Tutorial?$AA@ 00496760     Dlgcode.obj
 0002:00006780       ??_C@_0CC@PPOKIEIE@Post?9Install?5Task?5?9?5Release?5Note@ 00496780     Dlgcode.obj
 0002:000067a4       ??_C@_0BH@JALPBIFE@AFTER_INSTALL_TUTORIAL?$AA@ 004967a4     Dlgcode.obj
 0002:000067bc       ??_C@_0BM@PEPDOHPE@AFTER_UPGRADE_RELEASE_NOTES?$AA@ 004967bc     Dlgcode.obj
 0002:000067d8       ??_C@_09IDILIKHG@NO_OS_VER?$AA@ 004967d8     Dlgcode.obj
 0002:000067e4       ??_C@_0CI@MDCPAMLM@SetCurrentProcessExplicitAppUser@ 004967e4     Dlgcode.obj
 0002:0000680c       ??_C@_0M@KFDNOLCO@shell32?4dll?$AA@ 0049680c     Dlgcode.obj
 0002:00006818       ??_C@_1DM@PACGJHBK@?$AAG?$AAo?$AAs?$AAt?$AAC?$AAr?$AAy?$AAp?$AAt?$AAF?$AAo?$AAu?$AAn?$AAd?$AAa?$AAt?$AAi?$AAo?$AAn?$AA?4?$AAG?$AAo?$AAs?$AAt?$AAC?$AAr?$AAy?$AAp?$AAt?$AA?$AA@ 00496818     Dlgcode.obj
 0002:00006854       ??_C@_07MDDLOGBN@?1q?5UAC?5?$AA@ 00496854     Dlgcode.obj
 0002:0000685c       ??_C@_05KPBLJGDL@runas?$AA@ 0049685c     Dlgcode.obj
 0002:00006864       ??_C@_0P@IEEIGCBO@UNSUPPORTED_OS?$AA@ 00496864     Dlgcode.obj
 0002:00006874       ??_C@_0BF@FAAJOFOJ@LARGE_IDE_WARNING_2K?$AA@ 00496874     Dlgcode.obj
 0002:0000688c       ??_C@_0DD@HENCBNAN@SYSTEM?2CurrentControlSet?2Service@ 0049688c     Dlgcode.obj
 0002:000068c0       ??_C@_0N@MGFEFGLL@EnableBigLba?$AA@ 004968c0     Dlgcode.obj
 0002:000068d0       ??_C@_0BO@CHBDAIFD@LARGE_IDE_WARNING_2K_REGISTRY?$AA@ 004968d0     Dlgcode.obj
 0002:000068f0       ??_C@_0CI@KAEBDPBB@System?2CurrentControlSet?2Control@ 004968f0     Dlgcode.obj
 0002:00006918       ??_C@_0BF@LMHPGAIF@LARGE_IDE_WARNING_XP?$AA@ 00496918     Dlgcode.obj
 0002:00006930       ??_C@_06FGFHJIJL@?$CD32770?$AA@ 00496930     Dlgcode.obj
 0002:00006938       ??_C@_0O@PKFAAFKJ@INIT_REGISTER?$AA@ 00496938     Dlgcode.obj
 0002:00006948       ??_C@_0N@KPDNKMDE@riched20?4dll?$AA@ 00496948     Dlgcode.obj
 0002:00006958       ??_C@_0O@HCBFIMAP@INIT_RICHEDIT?$AA@ 00496958     Dlgcode.obj
 0002:00006968       ??_C@_0BJ@ELFIPPEB@GostCrypt?5User?5Guide?4pdf?$AA@ 00496968     Dlgcode.obj
 0002:00006984       ??_C@_0BM@JHDHCLPC@GostCrypt?5User?5Guide?4?$CFs?4pdf?$AA@ 00496984     Dlgcode.obj
 0002:000069a0       ??_C@_0CH@LFBCKMNM@SYS_ENCRYPTION_PRETEST_INFO2_POR@ 004969a0     Dlgcode.obj
 0002:000069c8       ??_C@_0CH@PKFDDKBL@SYS_ENCRYPTION_PRETEST_INFO2_POR@ 004969c8     Dlgcode.obj
 0002:000069f0       ??_C@_0CH@ODEIALFK@SYS_ENCRYPTION_PRETEST_INFO2_POR@ 004969f0     Dlgcode.obj
 0002:00006a18       ??_C@_0CH@MIGFFIJJ@SYS_ENCRYPTION_PRETEST_INFO2_POR@ 00496a18     Dlgcode.obj
 0002:00006a40       ??_C@_13LBAGMAIH@?$AA?6?$AA?$AA@ 00496a40     Dlgcode.obj
 0002:00006a44       ??_C@_0BL@BIFKAJPO@RESCUE_DISK_HELP_PORTION_9?$AA@ 00496a44     Dlgcode.obj
 0002:00006a60       ??_C@_0BL@BEBDILP@RESCUE_DISK_HELP_PORTION_8?$AA@ 00496a60     Dlgcode.obj
 0002:00006a7c       ??_C@_0BL@IGNJCEHA@RESCUE_DISK_HELP_PORTION_7?$AA@ 00496a7c     Dlgcode.obj
 0002:00006a98       ??_C@_0BL@JPMCBFDB@RESCUE_DISK_HELP_PORTION_6?$AA@ 00496a98     Dlgcode.obj
 0002:00006ab4       ??_C@_0BL@LEOPEGPC@RESCUE_DISK_HELP_PORTION_5?$AA@ 00496ab4     Dlgcode.obj
 0002:00006ad0       ??_C@_0BL@KNPEHHLD@RESCUE_DISK_HELP_PORTION_4?$AA@ 00496ad0     Dlgcode.obj
 0002:00006aec       ??_C@_0BL@OCLFOBHE@RESCUE_DISK_HELP_PORTION_3?$AA@ 00496aec     Dlgcode.obj
 0002:00006b08       ??_C@_0BL@PLKONADF@RESCUE_DISK_HELP_PORTION_2?$AA@ 00496b08     Dlgcode.obj
 0002:00006b24       ??_C@_0BL@NAIDIDPG@RESCUE_DISK_HELP_PORTION_1?$AA@ 00496b24     Dlgcode.obj
 0002:00006b40       ??_C@_0CB@MBHBFDO@DECOY_OS_INSTRUCTIONS_PORTION_18@ 00496b40     Dlgcode.obj
 0002:00006b64       ??_C@_0CB@ILIPAJPB@DECOY_OS_INSTRUCTIONS_PORTION_17@ 00496b64     Dlgcode.obj
 0002:00006b88       ??_C@_0CB@JCJEDILA@DECOY_OS_INSTRUCTIONS_PORTION_16@ 00496b88     Dlgcode.obj
 0002:00006bac       ??_C@_0CB@LJLJGLHD@DECOY_OS_INSTRUCTIONS_PORTION_15@ 00496bac     Dlgcode.obj
 0002:00006bd0       ??_C@_0CB@KAKCFKDC@DECOY_OS_INSTRUCTIONS_PORTION_14@ 00496bd0     Dlgcode.obj
 0002:00006bf4       ??_C@_0CB@OPODMMPF@DECOY_OS_INSTRUCTIONS_PORTION_13@ 00496bf4     Dlgcode.obj
 0002:00006c18       ??_C@_0CB@PGPIPNLE@DECOY_OS_INSTRUCTIONS_PORTION_12@ 00496c18     Dlgcode.obj
 0002:00006c3c       ??_C@_0CB@NNNFKOHH@DECOY_OS_INSTRUCTIONS_PORTION_11@ 00496c3c     Dlgcode.obj
 0002:00006c60       ??_C@_0CB@MEMOJPDG@DECOY_OS_INSTRUCTIONS_PORTION_10@ 00496c60     Dlgcode.obj
 0002:00006c84       ??_C@_0CA@EBNFDEFN@DECOY_OS_INSTRUCTIONS_PORTION_9?$AA@ 00496c84     Dlgcode.obj
 0002:00006ca4       ??_C@_0CA@FIMOAFBM@DECOY_OS_INSTRUCTIONS_PORTION_8?$AA@ 00496ca4     Dlgcode.obj
 0002:00006cc4       ??_C@_0CA@NPFGBJND@DECOY_OS_INSTRUCTIONS_PORTION_7?$AA@ 00496cc4     Dlgcode.obj
 0002:00006ce4       ??_C@_0CA@MGENCIJC@DECOY_OS_INSTRUCTIONS_PORTION_6?$AA@ 00496ce4     Dlgcode.obj
 0002:00006d04       ??_C@_0CA@ONGAHLFB@DECOY_OS_INSTRUCTIONS_PORTION_5?$AA@ 00496d04     Dlgcode.obj
 0002:00006d24       ??_C@_0CA@PEHLEKBA@DECOY_OS_INSTRUCTIONS_PORTION_4?$AA@ 00496d24     Dlgcode.obj
 0002:00006d44       ??_C@_0CA@LLDKNMNH@DECOY_OS_INSTRUCTIONS_PORTION_3?$AA@ 00496d44     Dlgcode.obj
 0002:00006d64       ??_C@_0CA@KCCBONJG@DECOY_OS_INSTRUCTIONS_PORTION_2?$AA@ 00496d64     Dlgcode.obj
 0002:00006d84       ??_C@_0CA@IJAMLOFF@DECOY_OS_INSTRUCTIONS_PORTION_1?$AA@ 00496d84     Dlgcode.obj
 0002:00006da4       ??_C@_0BI@OOMIJPBL@LEGAL_NOTICES_DLG_TITLE?$AA@ 00496da4     Dlgcode.obj
 0002:00006dbc       ??_C@_0BJ@OAHHFEJL@Pre?9Boot?5Troubleshooting?$AA@ 00496dbc     Dlgcode.obj
 0002:00006dd8       ??_C@_0BL@LGNEPEIP@GostCrypt?5Rescue?5Disk?5Help?$AA@ 00496dd8     Dlgcode.obj
 0002:00006df4       ??_C@_0BH@DOMMMACL@How?5to?5Create?5Decoy?5OS?$AA@ 00496df4     Dlgcode.obj
 0002:00006e0c       ??_C@_0CK@GKLMBFMH@EXTRA_BOOT_PARTITION_REMOVAL_INS@ 00496e0c     Dlgcode.obj
 0002:00006e38       ??_C@_0CD@IBNJCEOK@How?5to?5Remove?5Extra?5Boot?5Partiti@ 00496e38     Dlgcode.obj
 0002:00006e5c       ??_C@_04OJAHODMC@Text?$AA@ 00496e5c     Dlgcode.obj
 0002:00006e64       ??_C@_0BD@OAMDNKIF@IDD_RAWDEVICES_DLG?$AA@ 00496e64     Dlgcode.obj
 0002:00006e78       ??_C@_06CDNPEPDB@DEVICE?$AA@ 00496e78     Dlgcode.obj
 0002:00006e80       ??_C@_0L@IJFHJLKD@RAWDEVICES?$AA@ 00496e80     Dlgcode.obj
 0002:00006e8c       ??_C@_0P@MBKJGBEM@REMOVABLE_DISK?$AA@ 00496e8c     Dlgcode.obj
 0002:00006e9c       ??_C@_08IPBANHMA@HARDDISK?$AA@ 00496e9c     Dlgcode.obj
 0002:00006ea8       ??_C@_13EBCNDICG@?$AA?3?$AA?$AA@ 00496ea8     Dlgcode.obj
 0002:00006eac       ??_C@_0BP@KPLJJAIG@System32?2drivers?2gostcrypt?4sys?$AA@ 00496eac     Dlgcode.obj
 0002:00006ecc       ??_C@_0BG@NAJKGDG@DRIVER_INSTALL_FAILED?$AA@ 00496ecc     Dlgcode.obj
 0002:00006ee4       ??_C@_0P@ENPEEPKD@?2gostcrypt?4sys?$AA@ 00496ee4     Dlgcode.obj
 0002:00006ef4       ??_C@_0BD@MABFJNKI@?2gostcrypt?9x64?4sys?$AA@ 00496ef4     Dlgcode.obj
 0002:00006f08       ??_C@_0BB@DLIKOOJL@DRIVER_NOT_FOUND?$AA@ 00496f08     Dlgcode.obj
 0002:00006f1c       ??_C@_0BI@HINAFLMC@ADMIN_PRIVILEGES_DRIVER?$AA@ 00496f1c     Dlgcode.obj
 0002:00006f34       ??_C@_0O@PFCBNFDJ@?2?2?4?2GostCrypt?$AA@ 00496f34     Dlgcode.obj
 0002:00006f44       ??_C@_0M@BLEDMAHO@GST_VOLUMES?$AA@ 00496f44     Dlgcode.obj
 0002:00006f50       ??_C@_09EEODDAII@ALL_FILES?$AA@ 00496f50     Dlgcode.obj
 0002:00006f60       ??_C@_1EO@HPAMBPDO@?$AA?$CF?$AAl?$AAs?$AA?5?$AA?$CI?$AA?$CK?$AA?4?$AA?$CK?$AA?$CJ?$AA?$CF?$AAc?$AA?$CK?$AA?4?$AA?$CK?$AA?$CF?$AAc?$AA?$CF?$AAl?$AAs?$AA?5?$AA?$CI?$AA?$CK?$AA?4?$AAg?$AAs?$AAt?$AA?$CJ?$AA?$CF?$AAc?$AA?$CK?$AA?4?$AAg@ 00496f60     Dlgcode.obj
 0002:00006fb0       ??_C@_0BK@LAEGKAMJ@PASSWORD_OR_KEYFILE_WRONG?$AA@ 00496fb0     Dlgcode.obj
 0002:00006fcc       ??_C@_0P@MKGPOAFK@PASSWORD_WRONG?$AA@ 00496fcc     Dlgcode.obj
 0002:00006fdc       ??_C@_0CC@FKMPBFBP@PASSWORD_OR_KEYFILE_OR_MODE_WRON@ 00496fdc     Dlgcode.obj
 0002:00007000       ??_C@_0BH@CMAKHPOE@PASSWORD_OR_MODE_WRONG?$AA@ 00497000     Dlgcode.obj
 0002:00007018       ??_C@_0BO@HLEOGNJG@SYSENC_MOUNT_WITHOUT_PBA_NOTE?$AA@ 00497018     Dlgcode.obj
 0002:00007038       ??_C@_0CF@ICCCDCPD@HIDDEN_FILES_PRESENT_IN_KEYFILE_@ 00497038     Dlgcode.obj
 0002:00007060       ??_C@_09IILMPLJM@NOT_FOUND?$AA@ 00497060     Dlgcode.obj
 0002:0000706c       ??_C@_0BB@HBDCANKP@OPENFILES_DRIVER?$AA@ 0049706c     Dlgcode.obj
 0002:00007080       ??_C@_0P@DNONBLBD@OPENFILES_LOCK?$AA@ 00497080     Dlgcode.obj
 0002:00007090       ??_C@_0P@HPMGPOAF@VOL_SIZE_WRONG?$AA@ 00497090     Dlgcode.obj
 0002:000070a0       ??_C@_0BK@FLKCANLN@COMPRESSION_NOT_SUPPORTED?$AA@ 004970a0     Dlgcode.obj
 0002:000070bc       ??_C@_0P@BKLABIJI@WRONG_VOL_TYPE?$AA@ 004970bc     Dlgcode.obj
 0002:000070cc       ??_C@_0M@KFLNHABP@VOL_SEEKING?$AA@ 004970cc     Dlgcode.obj
 0002:000070d8       ??_C@_0BI@BFLHAGLK@ERR_CIPHER_INIT_FAILURE?$AA@ 004970d8     Dlgcode.obj
 0002:000070f0       ??_C@_0BJ@DGGCCNCK@ERR_CIPHER_INIT_WEAK_KEY?$AA@ 004970f0     Dlgcode.obj
 0002:0000710c       ??_C@_0BB@GLPAMHI@FILE_OPEN_FAILED?$AA@ 0049710c     Dlgcode.obj
 0002:00007120       ??_C@_0BB@JCPIJGNN@VOL_MOUNT_FAILED?$AA@ 00497120     Dlgcode.obj
 0002:00007134       ??_C@_0P@ECPPAAM@NO_FREE_DRIVES?$AA@ 00497134     Dlgcode.obj
 0002:00007144       ??_C@_0O@ILOHOCOF@ACCESS_DENIED?$AA@ 00497144     Dlgcode.obj
 0002:00007154       ??_C@_0P@LICKOHFP@DRIVER_VERSION?$AA@ 00497154     Dlgcode.obj
 0002:00007164       ??_C@_0BF@LDKGLOCG@NEW_VERSION_REQUIRED?$AA@ 00497164     Dlgcode.obj
 0002:0000717c       ??_C@_0BG@DKEEGIEL@ERR_SELF_TESTS_FAILED?$AA@ 0049717c     Dlgcode.obj
 0002:00007194       ??_C@_0BD@GJIBONDI@ERR_VOL_FORMAT_BAD?$AA@ 00497194     Dlgcode.obj
 0002:000071a8       ??_C@_0BN@JLJPGHCL@ERR_ENCRYPTION_NOT_COMPLETED?$AA@ 004971a8     Dlgcode.obj
 0002:000071c8       ??_C@_0CC@BGLNMIMN@ERR_NONSYS_INPLACE_ENC_INCOMPLET@ 004971c8     Dlgcode.obj
 0002:000071ec       ??_C@_0CF@MBJPLKGL@ERR_SYS_HIDVOL_HEAD_REENC_MODE_W@ 004971ec     Dlgcode.obj
 0002:00007214       ??_C@_0M@FDOCLIJD@ERR_UNKNOWN?$AA@ 00497214     Dlgcode.obj
 0002:00007220       ??_C@_0BE@BADKJOBO@CANNOT_WRITE_FILE_X?$AA@ 00497220     Dlgcode.obj
 0002:00007234       ??_C@_06LKBCGDFD@Button?$AA@ 00497234     Dlgcode.obj
 0002:0000723c       ??_C@_06KJMEDNIB@Static?$AA@ 0049723c     Dlgcode.obj
 0002:00007244       ??_C@_04CGJNICGF@?$CFc?3?2?$AA@ 00497244     Dlgcode.obj
 0002:0000724c       ??_C@_0O@DMIKDLEM@CabinetWClass?$AA@ 0049724c     Dlgcode.obj
 0002:0000725c       ??_C@_02NJNOFBBI@?$CFx?$AA@ 0049725c     Dlgcode.obj
 0002:00007260       ??_C@_02LODOGJEL@KB?$AA@   00497260     Dlgcode.obj
 0002:00007264       ??_C@_02LKLDBFPJ@MB?$AA@   00497264     Dlgcode.obj
 0002:00007268       ??_C@_02LHCEJACP@GB?$AA@   00497268     Dlgcode.obj
 0002:0000726c       ??_C@_02KJEEINAG@TB?$AA@   0049726c     Dlgcode.obj
 0002:00007270       ??_C@_02KOENCFNK@PB?$AA@   00497270     Dlgcode.obj
 0002:00007274       ??_C@_04ELFAHOMP@BYTE?$AA@ 00497274     Dlgcode.obj
 0002:0000727c       ??_C@_1BC@JJPHEOJD@?$AA?$CF?$AAI?$AA6?$AA4?$AAd?$AA?5?$AA?$CF?$AAs?$AA?$AA@ 0049727c     Dlgcode.obj
 0002:00007290       ??_C@_1BA@PMDFMIGE@?$AA?$CF?$AA?4?$AA1?$AAf?$AA?5?$AA?$CF?$AAs?$AA?$AA@ 00497290     Dlgcode.obj
 0002:000072a0       ??_C@_0L@JKBICCNN@KB_PER_SEC?$AA@ 004972a0     Dlgcode.obj
 0002:000072ac       ??_C@_0L@HCKNOIJO@MB_PER_SEC?$AA@ 004972ac     Dlgcode.obj
 0002:000072b8       ??_C@_0L@JAACLABK@GB_PER_SEC?$AA@ 004972b8     Dlgcode.obj
 0002:000072c4       ??_C@_0L@KHBGBCNA@TB_PER_SEC?$AA@ 004972c4     Dlgcode.obj
 0002:000072d0       ??_C@_0L@BHMPGBFC@PB_PER_SEC?$AA@ 004972d0     Dlgcode.obj
 0002:000072dc       ??_C@_09OHHMGFOM@B_PER_SEC?$AA@ 004972dc     Dlgcode.obj
 0002:000072e8       ??_C@_0BB@CMDEHNDL@ERR_PERF_COUNTER?$AA@ 004972e8     Dlgcode.obj
 0002:000072fc       ??_C@_0O@JJNKJOK@ERR_MEM_ALLOC?$AA@ 004972fc     Dlgcode.obj
 0002:0000730c       ??_C@_0BC@LMCINEGC@IDD_BENCHMARK_DLG?$AA@ 0049730c     Dlgcode.obj
 0002:00007320       ??_C@_09KPCECDGB@ALGORITHM?$AA@ 00497320     Dlgcode.obj
 0002:0000732c       ??_C@_0L@MHHIHFIN@ENCRYPTION?$AA@ 0049732c     Dlgcode.obj
 0002:00007338       ??_C@_0L@POBGFBLK@DECRYPTION?$AA@ 00497338     Dlgcode.obj
 0002:00007344       ??_C@_04CKNGLJGJ@MEAN?$AA@ 00497344     Dlgcode.obj
 0002:0000734c       ??_C@_0BJ@CAIGIJEE@ALPHABETICAL_CATEGORIZED?$AA@ 0049734c     Dlgcode.obj
 0002:00007368       ??_C@_0L@CNNDFAGN@MEAN_SPEED?$AA@ 00497368     Dlgcode.obj
 0002:00007374       ??_C@_1O@LDNKGOGH@?$AA1?$AA0?$AA0?$AA?5?$AA?$CF?$AAs?$AA?$AA@ 00497374     Dlgcode.obj
 0002:00007384       ??_C@_1O@KKHGOBHM@?$AA5?$AA0?$AA0?$AA?5?$AA?$CF?$AAs?$AA?$AA@ 00497384     Dlgcode.obj
 0002:00007394       ??_C@_19EMNJIHCO@?$AA1?$AA?5?$AA?$CF?$AAs?$AA?$AA@ 00497394     Dlgcode.obj
 0002:000073a0       ??_C@_19EFDCCHFE@?$AA5?$AA?5?$AA?$CF?$AAs?$AA?$AA@ 004973a0     Dlgcode.obj
 0002:000073ac       ??_C@_1M@LEMIDIGC@?$AA1?$AA0?$AA?5?$AA?$CF?$AAs?$AA?$AA@ 004973ac     Dlgcode.obj
 0002:000073b8       ??_C@_1M@LHMOADBN@?$AA5?$AA0?$AA?5?$AA?$CF?$AAs?$AA?$AA@ 004973b8     Dlgcode.obj
 0002:000073c4       ??_C@_1O@MPLLELLM@?$AA2?$AA0?$AA0?$AA?5?$AA?$CF?$AAs?$AA?$AA@ 004973c4     Dlgcode.obj
 0002:000073d4       ??_C@_0P@OLANKFFE@UISTR_DISABLED?$AA@ 004973d4     Dlgcode.obj
 0002:000073e4       ??_C@_0BC@OLBIFKJH@NUMBER_OF_THREADS?$AA@ 004973e4     Dlgcode.obj
 0002:000073f8       ??_C@_0CJ@DPNMADAJ@LIMITED_THREAD_COUNT_AFFECTS_PER@ 004973f8     Dlgcode.obj
 0002:00007424       ??_C@_0BL@HFEGJCP@IDD_RANDOM_POOL_ENRICHMENT?$AA@ 00497424     Dlgcode.obj
 0002:00007440       ??_C@_04LAOFCJDB@?5?$CFc?5?$AA@ 00497440     Dlgcode.obj
 0002:00007448       ??_C@_03NJNOMAJF@?5?4?5?$AA@ 00497448     Dlgcode.obj
 0002:0000744c       ??_C@_05BFHEBJNP@?$CF02X?5?$AA@ 0049744c     Dlgcode.obj
 0002:00007454       ??_C@_01EEMJAFIK@?6?$AA@   00497454     Dlgcode.obj
 0002:00007458       ??_C@_0BG@HKFCCDBK@IDD_KEYFILE_GENERATOR?$AA@ 00497458     Dlgcode.obj
 0002:00007470       ??_C@_09PLHAEEAO@INIT_RAND?$AA@ 00497470     Dlgcode.obj
 0002:0000747c       ??_C@_0BA@CBDNBIND@KEYFILE_CREATED?$AA@ 0049747c     Dlgcode.obj
 0002:0000748c       ??_C@_0BE@LMGFCBMP@IDD_CIPHER_TEST_DLG?$AA@ 0049748c     Dlgcode.obj
 0002:000074a0       ??_C@_0N@ICLIKEKJ@TESTS_FAILED?$AA@ 004974a0     Dlgcode.obj
 0002:000074b0       ??_C@_0N@KEJMMFLH@TESTS_PASSED?$AA@ 004974b0     Dlgcode.obj
 0002:000074c0       ??_C@_0O@HIHJOOAG@TEST_KEY_SIZE?$AA@ 004974c0     Dlgcode.obj
 0002:000074d0       ??_C@_0BE@EILEFIMF@TEST_PLAINTEXT_SIZE?$AA@ 004974d0     Dlgcode.obj
 0002:000074e4       ??_C@_0BF@ONCDDKDD@TEST_CIPHERTEXT_SIZE?$AA@ 004974e4     Dlgcode.obj
 0002:000074fc       ??_C@_0CC@KLEPGHII@TEST_INCORRECT_SECONDARY_KEY_SIZ@ 004974fc     Dlgcode.obj
 0002:00007520       ??_C@_0CD@CMIOHKDK@TEST_INCORRECT_TEST_DATA_UNIT_SI@ 00497520     Dlgcode.obj
 0002:00007544       ??_C@_04NOJCDH@?$CF02x?$AA@ 00497544     Dlgcode.obj
 0002:00007550       ??_C@_0EB@CBHPLKKO@00000000000000000000000000000000@ 00497550     Dlgcode.obj
 0002:00007594       ??_C@_0BB@GHIALFFI@0000000000000000?$AA@ 00497594     Dlgcode.obj
 0002:000075a8       ??_C@_03CPCFKGMH@256?$AA@  004975a8     Dlgcode.obj
 0002:000075ac       ??_C@_03KGFMDCCC@128?$AA@  004975ac     Dlgcode.obj
 0002:000075b0       ??_C@_0EB@JNGLHFFN@8899aabbccddeeff0011223344556677@ 004975b0     Dlgcode.obj
 0002:000075f4       ??_C@_0CB@NGEPPHFA@1122334455667700ffeeddccbbaa9988@ 004975f4     Dlgcode.obj
 0002:00007618       ??_C@_0CB@KLIODADE@00000000000000000000000000000000@ 00497618     Dlgcode.obj
 0002:0000763c       ??_C@_0M@MKBGBFGO@CAPSLOCK_ON?$AA@ 0049763c     Dlgcode.obj
 0002:00007648       ??_C@_04OOOHIFAO@?4asa?$AA@ 00497648     Dlgcode.obj
 0002:00007650       ??_C@_04LNDOKGBO@?4asp?$AA@ 00497650     Dlgcode.obj
 0002:00007658       ??_C@_05BNFEPADL@?4aspx?$AA@ 00497658     Dlgcode.obj
 0002:00007660       ??_C@_03DAKFKKAH@?4ax?$AA@ 00497660     Dlgcode.obj
 0002:00007664       ??_C@_04JLAECNCN@?4bas?$AA@ 00497664     Dlgcode.obj
 0002:0000766c       ??_C@_04NEEFLLOK@?4bat?$AA@ 0049766c     Dlgcode.obj
 0002:00007674       ??_C@_04GKHLBAIJ@?4bin?$AA@ 00497674     Dlgcode.obj
 0002:0000767c       ??_C@_04DNKKNDNF@?4cer?$AA@ 0049767c     Dlgcode.obj
 0002:00007684       ??_C@_04PICIEOBI@?4chm?$AA@ 00497684     Dlgcode.obj
 0002:0000768c       ??_C@_04HILJPKAL@?4clb?$AA@ 0049768c     Dlgcode.obj
 0002:00007694       ??_C@_04CPCBDHLK@?4cmd?$AA@ 00497694     Dlgcode.obj
 0002:0000769c       ??_C@_04GHKFJLLC@?4cnt?$AA@ 0049769c     Dlgcode.obj
 0002:000076a4       ??_C@_04FFJDPJDA@?4cnv?$AA@ 004976a4     Dlgcode.obj
 0002:000076ac       ??_C@_04PNGHFIJN@?4com?$AA@ 004976ac     Dlgcode.obj
 0002:000076b4       ??_C@_04PDAGINJB@?4cpl?$AA@ 004976b4     Dlgcode.obj
 0002:000076bc       ??_C@_04NNKIFKME@?4cpx?$AA@ 004976bc     Dlgcode.obj
 0002:000076c4       ??_C@_04HCJJMBKG@?4crt?$AA@ 004976c4     Dlgcode.obj
 0002:000076cc       ??_C@_04JFCMPGMM@?4csh?$AA@ 004976cc     Dlgcode.obj
 0002:000076d4       ??_C@_04HLONOPDM@?4dll?$AA@ 004976d4     Dlgcode.obj
 0002:000076dc       ??_C@_04NNHIJLJN@?4drv?$AA@ 004976dc     Dlgcode.obj
 0002:000076e4       ??_C@_04KBABJHPM@?4dtd?$AA@ 004976e4     Dlgcode.obj
 0002:000076ec       ??_C@_04JLMDILM@?4exe?$AA@ 004976ec     Dlgcode.obj
 0002:000076f4       ??_C@_04CMLMHBEG@?4fxp?$AA@ 004976f4     Dlgcode.obj
 0002:000076fc       ??_C@_04JJJHJDPF@?4grp?$AA@ 004976fc     Dlgcode.obj
 0002:00007704       ??_C@_04JIAFODPJ@?4h1s?$AA@ 00497704     Dlgcode.obj
 0002:0000770c       ??_C@_04NHEMANNJ@?4hlp?$AA@ 0049770c     Dlgcode.obj
 0002:00007714       ??_C@_04JGKANMAB@?4hta?$AA@ 00497714     Dlgcode.obj
 0002:0000771c       ??_C@_04FJIHOGJP@?4ime?$AA@ 0049771c     Dlgcode.obj
 0002:00007724       ??_C@_04HAOMALAF@?4inf?$AA@ 00497724     Dlgcode.obj
 0002:0000772c       ??_C@_04EHFJONBB@?4ins?$AA@ 0049772c     Dlgcode.obj
 0002:00007734       ??_C@_04HIIKIOPB@?4isp?$AA@ 00497734     Dlgcode.obj
 0002:0000773c       ??_C@_04FGOIMLLH@?4its?$AA@ 0049773c     Dlgcode.obj
 0002:00007744       ??_C@_03NPAEJMCN@?4js?$AA@ 00497744     Dlgcode.obj
 0002:00007748       ??_C@_04FNIKMHAL@?4jse?$AA@ 00497748     Dlgcode.obj
 0002:00007750       ??_C@_04FAJINOCD@?4ksh?$AA@ 00497750     Dlgcode.obj
 0002:00007758       ??_C@_04PCJMIFHK@?4lnk?$AA@ 00497758     Dlgcode.obj
 0002:00007760       ??_C@_04MGOELJON@?4mad?$AA@ 00497760     Dlgcode.obj
 0002:00007768       ??_C@_04PENCNLGP@?4maf?$AA@ 00497768     Dlgcode.obj
 0002:00007770       ??_C@_04ONMJOKCO@?4mag?$AA@ 00497770     Dlgcode.obj
 0002:00007778       ??_C@_04BHCGACKE@?4mam?$AA@ 00497778     Dlgcode.obj
 0002:00007780       ??_C@_04DMALFBGH@?4man?$AA@ 00497780     Dlgcode.obj
 0002:00007788       ??_C@_04PBFBFPPJ@?4maq?$AA@ 00497788     Dlgcode.obj
 0002:00007790       ??_C@_04NKHMAMDK@?4mar?$AA@ 00497790     Dlgcode.obj
 0002:00007798       ??_C@_04MDGHDNHL@?4mas?$AA@ 00497798     Dlgcode.obj
 0002:000077a0       ??_C@_04IMCGKLLM@?4mat?$AA@ 004977a0     Dlgcode.obj
 0002:000077a8       ??_C@_04JFDNJKPN@?4mau?$AA@ 004977a8     Dlgcode.obj
 0002:000077b0       ??_C@_04LOBAMJDO@?4mav?$AA@ 004977b0     Dlgcode.obj
 0002:000077b8       ??_C@_04KHALPIHP@?4maw?$AA@ 004977b8     Dlgcode.obj
 0002:000077c0       ??_C@_04LNFIIPED@?4mda?$AA@ 004977c0     Dlgcode.obj
 0002:000077c8       ??_C@_04JGHFNMIA@?4mdb?$AA@ 004977c8     Dlgcode.obj
 0002:000077d0       ??_C@_04NJDEEKEH@?4mde?$AA@ 004977d0     Dlgcode.obj
 0002:000077d8       ??_C@_04IKONGJFH@?4mdt?$AA@ 004977d8     Dlgcode.obj
 0002:000077e0       ??_C@_04KBMADKJE@?4mdw?$AA@ 004977e0     Dlgcode.obj
 0002:000077e8       ??_C@_04BEGOEENJ@?4mdz?$AA@ 004977e8     Dlgcode.obj
 0002:000077f0       ??_C@_04JGAHFIDE@?4msc?$AA@ 004977f0     Dlgcode.obj
 0002:000077f8       ??_C@_04GMOILALO@?4msi?$AA@ 004977f8     Dlgcode.obj
 0002:00007800       ??_C@_04PHOIBJKG@?4msp?$AA@ 00497800     Dlgcode.obj
 0002:00007808       ??_C@_04JDIENMKC@?4mst?$AA@ 00497808     Dlgcode.obj
 0002:00007810       ??_C@_04GIGFMMAM@?4mui?$AA@ 00497810     Dlgcode.obj
 0002:00007818       ??_C@_04NJAKABMG@?4nls?$AA@ 00497818     Dlgcode.obj
 0002:00007820       ??_C@_04IJBOPIFF@?4ocx?$AA@ 00497820     Dlgcode.obj
 0002:00007828       ??_C@_04HEIKDMLH@?4ops?$AA@ 00497828     Dlgcode.obj
 0002:00007830       ??_C@_04KMEOLMKH@?4pal?$AA@ 00497830     Dlgcode.obj
 0002:00007838       ??_C@_04GHBDOCMB@?4pcd?$AA@ 00497838     Dlgcode.obj
 0002:00007840       ??_C@_04FILCAFJF@?4pif?$AA@ 00497840     Dlgcode.obj
 0002:00007848       ??_C@_04EIMBEJAE@?4prf?$AA@ 00497848     Dlgcode.obj
 0002:00007850       ??_C@_04FBNKHIEF@?4prg?$AA@ 00497850     Dlgcode.obj
 0002:00007858       ??_C@_04DBPHFDOA@?4pst?$AA@ 00497858     Dlgcode.obj
 0002:00007860       ??_C@_04OCLKAFDL@?4reg?$AA@ 00497860     Dlgcode.obj
 0002:00007868       ??_C@_04EHJACPKN@?4scf?$AA@ 00497868     Dlgcode.obj
 0002:00007870       ??_C@_04GJDOPIPI@?4scr?$AA@ 00497870     Dlgcode.obj
 0002:00007878       ??_C@_04DPGEFPHO@?4sct?$AA@ 00497878     Dlgcode.obj
 0002:00007880       ??_C@_04CPKJAFEI@?4shb?$AA@ 00497880     Dlgcode.obj
 0002:00007888       ??_C@_04HMHACGFI@?4shs?$AA@ 00497888     Dlgcode.obj
 0002:00007890       ??_C@_04GBJEOPBP@?4sys?$AA@ 00497890     Dlgcode.obj
 0002:00007898       ??_C@_04LFHHJFCN@?4tlb?$AA@ 00497898     Dlgcode.obj
 0002:000078a0       ??_C@_04NKPJABLD@?4tsp?$AA@ 004978a0     Dlgcode.obj
 0002:000078a8       ??_C@_04IFPAFBLM@?4url?$AA@ 004978a8     Dlgcode.obj
 0002:000078b0       ??_C@_03JJOBOFCJ@?4vb?$AA@ 004978b0     Dlgcode.obj
 0002:000078b4       ??_C@_04FKKBOGGL@?4vbe?$AA@ 004978b4     Dlgcode.obj
 0002:000078bc       ??_C@_04EGDJFDLM@?4vbs?$AA@ 004978bc     Dlgcode.obj
 0002:000078c4       ??_C@_09JNHDLKLO@?4vsmacros?$AA@ 004978c4     Dlgcode.obj
